ARM GAS  /tmp/ccugwmcB.s 			page 1


   1              		.cpu cortex-m4
   2              		.eabi_attribute 20, 1
   3              		.eabi_attribute 21, 1
   4              		.eabi_attribute 23, 3
   5              		.eabi_attribute 24, 1
   6              		.eabi_attribute 25, 1
   7              		.eabi_attribute 26, 1
   8              		.eabi_attribute 30, 2
   9              		.eabi_attribute 34, 1
  10              		.eabi_attribute 18, 4
  11              		.file	"ch_test.c"
  12              		.text
  13              	.Ltext0:
  14              		.cfi_sections	.debug_frame
  15              		.section	.rodata.print_line.str1.4,"aMS",%progbits,1
  16              		.align	2
  17              	.LC0:
  18 0000 0D0A00   		.ascii	"\015\012\000"
  19              		.section	.text.print_line,"ax",%progbits
  20              		.align	1
  21              		.p2align 4,,15
  22              		.arch armv7e-m
  23              		.syntax unified
  24              		.thumb
  25              		.thumb_func
  26              		.fpu softvfp
  27              		.type	print_line, %function
  28              	print_line:
  29              	.LFB280:
  30              		.file 1 "../../../test/lib/ch_test.c"
  31              		.loc 1 90 30 view -0
  32              		.cfi_startproc
  33              		@ args = 0, pretend = 0, frame = 0
  34              		@ frame_needed = 0, uses_anonymous_args = 0
  35              		.loc 1 91 3 view .LVU1
  36              		.loc 1 93 3 view .LVU2
  37              	.LVL0:
  38              		.loc 1 93 15 view .LVU3
  39              		.loc 1 90 30 is_stmt 0 view .LVU4
  40 0000 70B5     		push	{r4, r5, r6, lr}
  41              		.cfi_def_cfa_offset 16
  42              		.cfi_offset 4, -16
  43              		.cfi_offset 5, -12
  44              		.cfi_offset 6, -8
  45              		.cfi_offset 14, -4
  46 0002 084D     		ldr	r5, .L6
  47              		.loc 1 90 30 view .LVU5
  48 0004 4C24     		movs	r4, #76
  49              	.LVL1:
  50              	.L2:
  51              		.loc 1 94 5 is_stmt 1 discriminator 3 view .LVU6
  52 0006 2868     		ldr	r0, [r5]
  53 0008 0368     		ldr	r3, [r0]
  54 000a 2D21     		movs	r1, #45
  55 000c 9B68     		ldr	r3, [r3, #8]
  56 000e 9847     		blx	r3
  57              	.LVL2:
ARM GAS  /tmp/ccugwmcB.s 			page 2


  58              		.loc 1 93 23 discriminator 3 view .LVU7
  59              		.loc 1 93 15 discriminator 3 view .LVU8
  60              		.loc 1 93 3 is_stmt 0 discriminator 3 view .LVU9
  61 0010 013C     		subs	r4, r4, #1
  62              	.LVL3:
  63              		.loc 1 93 3 discriminator 3 view .LVU10
  64 0012 F8D1     		bne	.L2
  65              		.loc 1 95 3 is_stmt 1 view .LVU11
  66 0014 2868     		ldr	r0, [r5]
  67 0016 0449     		ldr	r1, .L6+4
  68 0018 0368     		ldr	r3, [r0]
  69              		.loc 1 96 1 is_stmt 0 view .LVU12
  70 001a BDE87040 		pop	{r4, r5, r6, lr}
  71              		.cfi_restore 14
  72              		.cfi_restore 6
  73              		.cfi_restore 5
  74              		.cfi_restore 4
  75              		.cfi_def_cfa_offset 0
  76              	.LVL4:
  77              		.loc 1 95 3 view .LVU13
  78 001e 1B68     		ldr	r3, [r3]
  79 0020 0222     		movs	r2, #2
  80 0022 1847     		bx	r3
  81              	.LVL5:
  82              	.L7:
  83              		.align	2
  84              	.L6:
  85 0024 00000000 		.word	.LANCHOR0
  86 0028 00000000 		.word	.LC0
  87              		.cfi_endproc
  88              	.LFE280:
  89              		.size	print_line, .-print_line
  90              		.section	.text._test_fail,"ax",%progbits
  91              		.align	1
  92              		.p2align 4,,15
  93              		.global	_test_fail
  94              		.syntax unified
  95              		.thumb
  96              		.thumb_func
  97              		.fpu softvfp
  98              		.type	_test_fail, %function
  99              	_test_fail:
 100              	.LVL6:
 101              	.LFB281:
 102              		.loc 1 102 34 is_stmt 1 view -0
 103              		.cfi_startproc
 104              		@ args = 0, pretend = 0, frame = 0
 105              		@ frame_needed = 0, uses_anonymous_args = 0
 106              		@ link register save eliminated.
 107              		.loc 1 104 3 view .LVU15
 108              		.loc 1 102 34 is_stmt 0 view .LVU16
 109 0000 10B4     		push	{r4}
 110              		.cfi_def_cfa_offset 4
 111              		.cfi_offset 4, -4
 112              		.loc 1 105 24 view .LVU17
 113 0002 0549     		ldr	r1, .L10
 114              		.loc 1 104 24 view .LVU18
ARM GAS  /tmp/ccugwmcB.s 			page 3


 115 0004 054C     		ldr	r4, .L10+4
 116              		.loc 1 106 24 view .LVU19
 117 0006 064A     		ldr	r2, .L10+8
 118              		.loc 1 104 24 view .LVU20
 119 0008 0123     		movs	r3, #1
 120 000a 2370     		strb	r3, [r4]
 121              		.loc 1 105 3 is_stmt 1 view .LVU21
 122              		.loc 1 106 24 is_stmt 0 view .LVU22
 123 000c 1060     		str	r0, [r2]
 124              		.loc 1 108 1 view .LVU23
 125 000e 10BC     		pop	{r4}
 126              		.cfi_restore 4
 127              		.cfi_def_cfa_offset 0
 128              		.loc 1 105 24 view .LVU24
 129 0010 0B70     		strb	r3, [r1]
 130              		.loc 1 106 3 is_stmt 1 view .LVU25
 131              		.loc 1 107 3 view .LVU26
 132              		.loc 1 108 1 is_stmt 0 view .LVU27
 133 0012 1846     		mov	r0, r3
 134              	.LVL7:
 135              		.loc 1 108 1 view .LVU28
 136 0014 7047     		bx	lr
 137              	.L11:
 138 0016 00BF     		.align	2
 139              	.L10:
 140 0018 00000000 		.word	.LANCHOR2
 141 001c 00000000 		.word	.LANCHOR1
 142 0020 00000000 		.word	.LANCHOR3
 143              		.cfi_endproc
 144              	.LFE281:
 145              		.size	_test_fail, .-_test_fail
 146              		.section	.text._test_assert,"ax",%progbits
 147              		.align	1
 148              		.p2align 4,,15
 149              		.global	_test_assert
 150              		.syntax unified
 151              		.thumb
 152              		.thumb_func
 153              		.fpu softvfp
 154              		.type	_test_assert, %function
 155              	_test_assert:
 156              	.LVL8:
 157              	.LFB282:
 158              		.loc 1 110 52 is_stmt 1 view -0
 159              		.cfi_startproc
 160              		@ args = 0, pretend = 0, frame = 0
 161              		@ frame_needed = 0, uses_anonymous_args = 0
 162              		@ link register save eliminated.
 163              		.loc 1 112 3 view .LVU30
 164              		.loc 1 112 6 is_stmt 0 view .LVU31
 165 0000 08B1     		cbz	r0, .L19
 166              		.loc 1 114 10 view .LVU32
 167 0002 0020     		movs	r0, #0
 168              	.LVL9:
 169              		.loc 1 115 1 view .LVU33
 170 0004 7047     		bx	lr
 171              	.LVL10:
ARM GAS  /tmp/ccugwmcB.s 			page 4


 172              	.L19:
 173              		.loc 1 113 5 is_stmt 1 view .LVU34
 174              	.LBB76:
 175              	.LBI76:
 176              		.loc 1 102 6 view .LVU35
 177              	.LBB77:
 178              		.loc 1 104 3 view .LVU36
 179              	.LBE77:
 180              	.LBE76:
 181              		.loc 1 110 52 is_stmt 0 view .LVU37
 182 0006 10B4     		push	{r4}
 183              		.cfi_def_cfa_offset 4
 184              		.cfi_offset 4, -4
 185              	.LBB80:
 186              	.LBB78:
 187              		.loc 1 105 24 view .LVU38
 188 0008 044A     		ldr	r2, .L20
 189              		.loc 1 104 24 view .LVU39
 190 000a 054C     		ldr	r4, .L20+4
 191              		.loc 1 106 24 view .LVU40
 192 000c 054B     		ldr	r3, .L20+8
 193              		.loc 1 104 24 view .LVU41
 194 000e 0120     		movs	r0, #1
 195              	.LVL11:
 196              		.loc 1 104 24 view .LVU42
 197 0010 2070     		strb	r0, [r4]
 198              		.loc 1 105 3 is_stmt 1 view .LVU43
 199              		.loc 1 105 24 is_stmt 0 view .LVU44
 200 0012 1070     		strb	r0, [r2]
 201              		.loc 1 106 3 is_stmt 1 view .LVU45
 202              	.LBE78:
 203              	.LBE80:
 204              		.loc 1 115 1 is_stmt 0 view .LVU46
 205 0014 10BC     		pop	{r4}
 206              		.cfi_restore 4
 207              		.cfi_def_cfa_offset 0
 208              	.LBB81:
 209              	.LBB79:
 210              		.loc 1 106 24 view .LVU47
 211 0016 1960     		str	r1, [r3]
 212              		.loc 1 107 3 is_stmt 1 view .LVU48
 213              	.LVL12:
 214              		.loc 1 107 3 is_stmt 0 view .LVU49
 215              	.LBE79:
 216              	.LBE81:
 217              		.loc 1 115 1 view .LVU50
 218 0018 7047     		bx	lr
 219              	.L21:
 220 001a 00BF     		.align	2
 221              	.L20:
 222 001c 00000000 		.word	.LANCHOR2
 223 0020 00000000 		.word	.LANCHOR1
 224 0024 00000000 		.word	.LANCHOR3
 225              		.cfi_endproc
 226              	.LFE282:
 227              		.size	_test_assert, .-_test_assert
 228              		.section	.text._test_assert_sequence,"ax",%progbits
ARM GAS  /tmp/ccugwmcB.s 			page 5


 229              		.align	1
 230              		.p2align 4,,15
 231              		.global	_test_assert_sequence
 232              		.syntax unified
 233              		.thumb
 234              		.thumb_func
 235              		.fpu softvfp
 236              		.type	_test_assert_sequence, %function
 237              	_test_assert_sequence:
 238              	.LVL13:
 239              	.LFB283:
 240              		.loc 1 117 61 is_stmt 1 view -0
 241              		.cfi_startproc
 242              		@ args = 0, pretend = 0, frame = 0
 243              		@ frame_needed = 0, uses_anonymous_args = 0
 244              		@ link register save eliminated.
 245              		.loc 1 118 3 view .LVU52
 246              		.loc 1 120 3 view .LVU53
 247              		.loc 1 117 61 is_stmt 0 view .LVU54
 248 0000 70B4     		push	{r4, r5, r6}
 249              		.cfi_def_cfa_offset 12
 250              		.cfi_offset 4, -12
 251              		.cfi_offset 5, -8
 252              		.cfi_offset 6, -4
 253              		.loc 1 120 13 view .LVU55
 254 0002 0D4D     		ldr	r5, .L29
 255              		.loc 1 118 9 view .LVU56
 256 0004 0D4E     		ldr	r6, .L29+4
 257              		.loc 1 120 13 view .LVU57
 258 0006 2C68     		ldr	r4, [r5]
 259              		.loc 1 118 9 view .LVU58
 260 0008 3346     		mov	r3, r6
 261              		.loc 1 120 9 view .LVU59
 262 000a 05E0     		b	.L23
 263              	.LVL14:
 264              	.L25:
 265              		.loc 1 121 8 view .LVU60
 266 000c 13F801CB 		ldrb	ip, [r3], #1	@ zero_extendqisi2
 267              	.LVL15:
 268              		.loc 1 121 8 view .LVU61
 269 0010 10F8012B 		ldrb	r2, [r0], #1	@ zero_extendqisi2
 270              	.LVL16:
 271              		.loc 1 121 8 view .LVU62
 272 0014 9445     		cmp	ip, r2
 273 0016 06D1     		bne	.L26
 274              	.LVL17:
 275              	.L23:
 276              		.loc 1 121 5 is_stmt 1 view .LVU63
 277              		.loc 1 120 9 view .LVU64
 278 0018 9C42     		cmp	r4, r3
 279 001a F7D8     		bhi	.L25
 280              		.loc 1 125 3 view .LVU65
 281              		.loc 1 125 6 is_stmt 0 view .LVU66
 282 001c 0078     		ldrb	r0, [r0]	@ zero_extendqisi2
 283              	.LVL18:
 284              		.loc 1 125 6 view .LVU67
 285 001e 10B9     		cbnz	r0, .L26
ARM GAS  /tmp/ccugwmcB.s 			page 6


 286              		.loc 1 128 3 is_stmt 1 view .LVU68
 287              	.LBB82:
 288              	.LBI82:
 289              		.loc 1 65 13 view .LVU69
 290              	.LBB83:
 291              		.loc 1 67 3 view .LVU70
 292              		.loc 1 67 13 is_stmt 0 view .LVU71
 293 0020 2E60     		str	r6, [r5]
 294              	.LBE83:
 295              	.LBE82:
 296              		.loc 1 130 3 is_stmt 1 view .LVU72
 297              		.loc 1 131 1 is_stmt 0 view .LVU73
 298 0022 70BC     		pop	{r4, r5, r6}
 299              		.cfi_remember_state
 300              		.cfi_restore 6
 301              		.cfi_restore 5
 302              		.cfi_restore 4
 303              		.cfi_def_cfa_offset 0
 304 0024 7047     		bx	lr
 305              	.LVL19:
 306              	.L26:
 307              		.cfi_restore_state
 308              		.loc 1 122 6 is_stmt 1 view .LVU74
 309              	.LBB84:
 310              	.LBI84:
 311              		.loc 1 102 6 view .LVU75
 312              	.LBB85:
 313              		.loc 1 104 3 view .LVU76
 314              		.loc 1 104 24 is_stmt 0 view .LVU77
 315 0026 064C     		ldr	r4, .L29+8
 316              		.loc 1 105 24 view .LVU78
 317 0028 064A     		ldr	r2, .L29+12
 318              		.loc 1 106 24 view .LVU79
 319 002a 074B     		ldr	r3, .L29+16
 320              		.loc 1 104 24 view .LVU80
 321 002c 0120     		movs	r0, #1
 322 002e 2070     		strb	r0, [r4]
 323              		.loc 1 105 3 is_stmt 1 view .LVU81
 324              		.loc 1 105 24 is_stmt 0 view .LVU82
 325 0030 1070     		strb	r0, [r2]
 326              		.loc 1 106 3 is_stmt 1 view .LVU83
 327              	.LBE85:
 328              	.LBE84:
 329              		.loc 1 131 1 is_stmt 0 view .LVU84
 330 0032 70BC     		pop	{r4, r5, r6}
 331              		.cfi_restore 6
 332              		.cfi_restore 5
 333              		.cfi_restore 4
 334              		.cfi_def_cfa_offset 0
 335              	.LBB87:
 336              	.LBB86:
 337              		.loc 1 106 24 view .LVU85
 338 0034 1960     		str	r1, [r3]
 339              		.loc 1 107 3 is_stmt 1 view .LVU86
 340              	.LVL20:
 341              		.loc 1 107 3 is_stmt 0 view .LVU87
 342              	.LBE86:
ARM GAS  /tmp/ccugwmcB.s 			page 7


 343              	.LBE87:
 344              		.loc 1 131 1 view .LVU88
 345 0036 7047     		bx	lr
 346              	.L30:
 347              		.align	2
 348              	.L29:
 349 0038 00000000 		.word	.LANCHOR5
 350 003c 00000000 		.word	.LANCHOR4
 351 0040 00000000 		.word	.LANCHOR1
 352 0044 00000000 		.word	.LANCHOR2
 353 0048 00000000 		.word	.LANCHOR3
 354              		.cfi_endproc
 355              	.LFE283:
 356              		.size	_test_assert_sequence, .-_test_assert_sequence
 357              		.section	.text._test_assert_time_window,"ax",%progbits
 358              		.align	1
 359              		.p2align 4,,15
 360              		.global	_test_assert_time_window
 361              		.syntax unified
 362              		.thumb
 363              		.thumb_func
 364              		.fpu softvfp
 365              		.type	_test_assert_time_window, %function
 366              	_test_assert_time_window:
 367              	.LVL21:
 368              	.LFB284:
 369              		.loc 1 135 48 is_stmt 1 view -0
 370              		.cfi_startproc
 371              		@ args = 0, pretend = 0, frame = 0
 372              		@ frame_needed = 0, uses_anonymous_args = 0
 373              		@ link register save eliminated.
 374              		.loc 1 137 3 view .LVU90
 375              	.LBB88:
 376              	.LBI88:
 377              		.file 2 "../../../os/hal/osal/rt/osal.h"
 378              		.loc 2 616 25 view .LVU91
 379              	.LBE88:
 380              		.loc 2 618 3 view .LVU92
 381              	.LBB96:
 382              	.LBB89:
 383              	.LBI89:
 384              		.file 3 "../../../os/rt/include/chvt.h"
 385              		.loc 3 392 25 view .LVU93
 386              	.LBE89:
 387              	.LBE96:
 388              		.loc 3 397 3 view .LVU94
 389              	.LBB97:
 390              	.LBB94:
 391              	.LBB90:
 392              	.LBI90:
 393              		.file 4 "../../../os/common/ports/ARMCMx/chcore_timer.h"
 394              		.loc 4 105 25 view .LVU95
 395              	.LBE90:
 396              	.LBE94:
 397              	.LBE97:
 398              		.loc 4 107 3 view .LVU96
 399              	.LBB98:
ARM GAS  /tmp/ccugwmcB.s 			page 8


 400              	.LBB95:
 401              	.LBB93:
 402              	.LBB91:
 403              	.LBI91:
 404              		.file 5 "../../../os/hal/ports/STM32/LLD/TIMv1/hal_st_lld.h"
 405              		.loc 5 139 25 view .LVU97
 406              	.LBB92:
 407              		.loc 5 141 3 view .LVU98
 408              		.loc 5 141 10 is_stmt 0 view .LVU99
 409 0000 4FF08043 		mov	r3, #1073741824
 410 0004 5B6A     		ldr	r3, [r3, #36]
 411              	.LVL22:
 412              		.loc 5 141 10 view .LVU100
 413              	.LBE92:
 414              	.LBE91:
 415              	.LBE93:
 416              	.LBE95:
 417              	.LBE98:
 418              	.LBB99:
 419              	.LBI99:
 420              		.loc 2 635 20 is_stmt 1 view .LVU101
 421              	.LBE99:
 422              		.loc 2 639 3 view .LVU102
 423              	.LBB102:
 424              	.LBB100:
 425              	.LBI100:
 426              		.loc 3 448 20 view .LVU103
 427              	.LBB101:
 428              		.loc 3 452 3 view .LVU104
 429              		.loc 3 452 34 is_stmt 0 view .LVU105
 430 0006 1B1A     		subs	r3, r3, r0
 431              	.LVL23:
 432              		.loc 3 452 61 view .LVU106
 433 0008 081A     		subs	r0, r1, r0
 434              	.LVL24:
 435              		.loc 3 452 61 view .LVU107
 436              	.LBE101:
 437              	.LBE100:
 438              	.LBE102:
 439              	.LBB103:
 440              	.LBI103:
 441              		.loc 1 110 6 is_stmt 1 view .LVU108
 442              	.LBB104:
 443              		.loc 1 112 3 view .LVU109
 444              		.loc 1 112 6 is_stmt 0 view .LVU110
 445 000a 8342     		cmp	r3, r0
 446 000c 01D2     		bcs	.L38
 447              		.loc 1 114 10 view .LVU111
 448 000e 0020     		movs	r0, #0
 449              	.LVL25:
 450              		.loc 1 114 10 view .LVU112
 451              	.LBE104:
 452              	.LBE103:
 453              		.loc 1 139 1 view .LVU113
 454 0010 7047     		bx	lr
 455              	.LVL26:
 456              	.L38:
ARM GAS  /tmp/ccugwmcB.s 			page 9


 457              	.LBB114:
 458              	.LBB111:
 459              		.loc 1 113 5 is_stmt 1 view .LVU114
 460              	.LBB105:
 461              	.LBI105:
 462              		.loc 1 102 6 view .LVU115
 463              	.LBB106:
 464              		.loc 1 104 3 view .LVU116
 465              	.LBE106:
 466              	.LBE105:
 467              	.LBE111:
 468              	.LBE114:
 469              		.loc 1 135 48 is_stmt 0 view .LVU117
 470 0012 10B4     		push	{r4}
 471              		.cfi_def_cfa_offset 4
 472              		.cfi_offset 4, -4
 473              	.LBB115:
 474              	.LBB112:
 475              	.LBB109:
 476              	.LBB107:
 477              		.loc 1 105 24 view .LVU118
 478 0014 0449     		ldr	r1, .L39
 479              	.LVL27:
 480              		.loc 1 104 24 view .LVU119
 481 0016 054C     		ldr	r4, .L39+4
 482              		.loc 1 106 24 view .LVU120
 483 0018 054B     		ldr	r3, .L39+8
 484              		.loc 1 104 24 view .LVU121
 485 001a 0120     		movs	r0, #1
 486 001c 2070     		strb	r0, [r4]
 487              		.loc 1 105 3 is_stmt 1 view .LVU122
 488              		.loc 1 105 24 is_stmt 0 view .LVU123
 489 001e 0870     		strb	r0, [r1]
 490              		.loc 1 106 3 is_stmt 1 view .LVU124
 491              	.LBE107:
 492              	.LBE109:
 493              	.LBE112:
 494              	.LBE115:
 495              		.loc 1 139 1 is_stmt 0 view .LVU125
 496 0020 10BC     		pop	{r4}
 497              		.cfi_restore 4
 498              		.cfi_def_cfa_offset 0
 499              	.LBB116:
 500              	.LBB113:
 501              	.LBB110:
 502              	.LBB108:
 503              		.loc 1 106 24 view .LVU126
 504 0022 1A60     		str	r2, [r3]
 505              		.loc 1 107 3 is_stmt 1 view .LVU127
 506              	.LVL28:
 507              		.loc 1 107 3 is_stmt 0 view .LVU128
 508              	.LBE108:
 509              	.LBE110:
 510              	.LBE113:
 511              	.LBE116:
 512              		.loc 1 139 1 view .LVU129
 513 0024 7047     		bx	lr
ARM GAS  /tmp/ccugwmcB.s 			page 10


 514              	.L40:
 515 0026 00BF     		.align	2
 516              	.L39:
 517 0028 00000000 		.word	.LANCHOR2
 518 002c 00000000 		.word	.LANCHOR1
 519 0030 00000000 		.word	.LANCHOR3
 520              		.cfi_endproc
 521              	.LFE284:
 522              		.size	_test_assert_time_window, .-_test_assert_time_window
 523              		.section	.text.test_printn,"ax",%progbits
 524              		.align	1
 525              		.p2align 4,,15
 526              		.global	test_printn
 527              		.syntax unified
 528              		.thumb
 529              		.thumb_func
 530              		.fpu softvfp
 531              		.type	test_printn, %function
 532              	test_printn:
 533              	.LVL29:
 534              	.LFB285:
 535              		.loc 1 148 30 is_stmt 1 view -0
 536              		.cfi_startproc
 537              		@ args = 0, pretend = 0, frame = 16
 538              		@ frame_needed = 0, uses_anonymous_args = 0
 539              		.loc 1 149 3 view .LVU131
 540              		.loc 1 151 3 view .LVU132
 541              		.loc 1 151 6 is_stmt 0 view .LVU133
 542 0000 28B9     		cbnz	r0, .L45
 543              		.loc 1 152 5 is_stmt 1 view .LVU134
 544 0002 154B     		ldr	r3, .L50
 545 0004 1868     		ldr	r0, [r3]
 546              	.LVL30:
 547              		.loc 1 152 5 is_stmt 0 view .LVU135
 548 0006 0368     		ldr	r3, [r0]
 549 0008 3021     		movs	r1, #48
 550 000a 9B68     		ldr	r3, [r3, #8]
 551 000c 1847     		bx	r3
 552              	.LVL31:
 553              	.L45:
 554              		.loc 1 148 30 view .LVU136
 555 000e 70B5     		push	{r4, r5, r6, lr}
 556              		.cfi_def_cfa_offset 16
 557              		.cfi_offset 4, -16
 558              		.cfi_offset 5, -12
 559              		.cfi_offset 6, -8
 560              		.cfi_offset 14, -4
 561 0010 84B0     		sub	sp, sp, #16
 562              		.cfi_def_cfa_offset 32
 563              	.LBB119:
 564              	.LBB120:
 565              		.loc 1 154 7 view .LVU137
 566 0012 6C46     		mov	r4, sp
 567              		.loc 1 156 17 view .LVU138
 568 0014 114E     		ldr	r6, .L50+4
 569              		.loc 1 154 7 view .LVU139
 570 0016 2246     		mov	r2, r4
ARM GAS  /tmp/ccugwmcB.s 			page 11


 571              	.LVL32:
 572              	.L42:
 573              		.loc 1 156 7 is_stmt 1 view .LVU140
 574              		.loc 1 156 17 is_stmt 0 view .LVU141
 575 0018 A6FB0013 		umull	r1, r3, r6, r0
 576 001c DB08     		lsrs	r3, r3, #3
 577 001e 03EB8301 		add	r1, r3, r3, lsl #2
 578 0022 A0EB4101 		sub	r1, r0, r1, lsl #1
 579 0026 8446     		mov	ip, r0
 580              		.loc 1 156 23 view .LVU142
 581 0028 3031     		adds	r1, r1, #48
 582 002a C9B2     		uxtb	r1, r1
 583              		.loc 1 155 11 view .LVU143
 584 002c BCF1090F 		cmp	ip, #9
 585 0030 1546     		mov	r5, r2
 586              	.LVL33:
 587              		.loc 1 156 32 view .LVU144
 588 0032 1846     		mov	r0, r3
 589              	.LVL34:
 590              		.loc 1 155 11 is_stmt 1 view .LVU145
 591              		.loc 1 156 12 is_stmt 0 view .LVU146
 592 0034 02F8011B 		strb	r1, [r2], #1
 593              	.LVL35:
 594              		.loc 1 155 11 view .LVU147
 595 0038 EED8     		bhi	.L42
 596              		.loc 1 157 11 is_stmt 1 view .LVU148
 597 003a A242     		cmp	r2, r4
 598 003c 09D9     		bls	.L41
 599              		.loc 1 157 11 is_stmt 0 view .LVU149
 600 003e 064E     		ldr	r6, .L50
 601 0040 01E0     		b	.L44
 602              	.LVL36:
 603              	.L49:
 604              		.loc 1 158 7 view .LVU150
 605 0042 15F8011D 		ldrb	r1, [r5, #-1]!	@ zero_extendqisi2
 606              	.LVL37:
 607              	.L44:
 608              		.loc 1 158 7 is_stmt 1 view .LVU151
 609 0046 3068     		ldr	r0, [r6]
 610              	.LVL38:
 611              		.loc 1 158 7 is_stmt 0 view .LVU152
 612 0048 0368     		ldr	r3, [r0]
 613 004a 9B68     		ldr	r3, [r3, #8]
 614 004c 9847     		blx	r3
 615              	.LVL39:
 616              		.loc 1 157 11 is_stmt 1 view .LVU153
 617 004e AC42     		cmp	r4, r5
 618 0050 F7D1     		bne	.L49
 619              	.LVL40:
 620              	.L41:
 621              		.loc 1 157 11 is_stmt 0 view .LVU154
 622              	.LBE120:
 623              	.LBE119:
 624              		.loc 1 160 1 view .LVU155
 625 0052 04B0     		add	sp, sp, #16
 626              		.cfi_def_cfa_offset 16
 627              		@ sp needed
ARM GAS  /tmp/ccugwmcB.s 			page 12


 628 0054 70BD     		pop	{r4, r5, r6, pc}
 629              	.L51:
 630 0056 00BF     		.align	2
 631              	.L50:
 632 0058 00000000 		.word	.LANCHOR0
 633 005c CDCCCCCC 		.word	-858993459
 634              		.cfi_endproc
 635              	.LFE285:
 636              		.size	test_printn, .-test_printn
 637              		.section	.text.test_print,"ax",%progbits
 638              		.align	1
 639              		.p2align 4,,15
 640              		.global	test_print
 641              		.syntax unified
 642              		.thumb
 643              		.thumb_func
 644              		.fpu softvfp
 645              		.type	test_print, %function
 646              	test_print:
 647              	.LVL41:
 648              	.LFB286:
 649              		.loc 1 169 35 is_stmt 1 view -0
 650              		.cfi_startproc
 651              		@ args = 0, pretend = 0, frame = 0
 652              		@ frame_needed = 0, uses_anonymous_args = 0
 653              		.loc 1 171 3 view .LVU157
 654              		.loc 1 171 9 view .LVU158
 655              		.loc 1 171 10 is_stmt 0 view .LVU159
 656 0000 0178     		ldrb	r1, [r0]	@ zero_extendqisi2
 657              		.loc 1 171 9 view .LVU160
 658 0002 59B1     		cbz	r1, .L60
 659              		.loc 1 169 35 view .LVU161
 660 0004 38B5     		push	{r3, r4, r5, lr}
 661              		.cfi_def_cfa_offset 16
 662              		.cfi_offset 3, -16
 663              		.cfi_offset 4, -12
 664              		.cfi_offset 5, -8
 665              		.cfi_offset 14, -4
 666 0006 064D     		ldr	r5, .L63
 667 0008 0446     		mov	r4, r0
 668              	.LVL42:
 669              	.L54:
 670              		.loc 1 172 5 is_stmt 1 view .LVU162
 671 000a 2868     		ldr	r0, [r5]
 672              	.LVL43:
 673              		.loc 1 172 5 is_stmt 0 view .LVU163
 674 000c 0368     		ldr	r3, [r0]
 675 000e 9B68     		ldr	r3, [r3, #8]
 676 0010 9847     		blx	r3
 677              	.LVL44:
 678              		.loc 1 171 9 is_stmt 1 view .LVU164
 679              		.loc 1 171 10 is_stmt 0 view .LVU165
 680 0012 14F8011F 		ldrb	r1, [r4, #1]!	@ zero_extendqisi2
 681              	.LVL45:
 682              		.loc 1 171 9 view .LVU166
 683 0016 0029     		cmp	r1, #0
 684 0018 F7D1     		bne	.L54
ARM GAS  /tmp/ccugwmcB.s 			page 13


 685              		.loc 1 173 1 view .LVU167
 686 001a 38BD     		pop	{r3, r4, r5, pc}
 687              	.LVL46:
 688              	.L60:
 689              		.cfi_def_cfa_offset 0
 690              		.cfi_restore 3
 691              		.cfi_restore 4
 692              		.cfi_restore 5
 693              		.cfi_restore 14
 694              		.loc 1 173 1 view .LVU168
 695 001c 7047     		bx	lr
 696              	.L64:
 697 001e 00BF     		.align	2
 698              	.L63:
 699 0020 00000000 		.word	.LANCHOR0
 700              		.cfi_endproc
 701              	.LFE286:
 702              		.size	test_print, .-test_print
 703              		.section	.text.test_println,"ax",%progbits
 704              		.align	1
 705              		.p2align 4,,15
 706              		.global	test_println
 707              		.syntax unified
 708              		.thumb
 709              		.thumb_func
 710              		.fpu softvfp
 711              		.type	test_println, %function
 712              	test_println:
 713              	.LVL47:
 714              	.LFB287:
 715              		.loc 1 182 37 is_stmt 1 view -0
 716              		.cfi_startproc
 717              		@ args = 0, pretend = 0, frame = 0
 718              		@ frame_needed = 0, uses_anonymous_args = 0
 719              		.loc 1 184 3 view .LVU170
 720              	.LBB123:
 721              	.LBI123:
 722              		.loc 1 169 6 view .LVU171
 723              	.LBB124:
 724              		.loc 1 171 9 view .LVU172
 725              	.LBE124:
 726              	.LBE123:
 727              		.loc 1 182 37 is_stmt 0 view .LVU173
 728 0000 70B5     		push	{r4, r5, r6, lr}
 729              		.cfi_def_cfa_offset 16
 730              		.cfi_offset 4, -16
 731              		.cfi_offset 5, -12
 732              		.cfi_offset 6, -8
 733              		.cfi_offset 14, -4
 734              	.LBB126:
 735              	.LBB125:
 736              		.loc 1 171 10 view .LVU174
 737 0002 0178     		ldrb	r1, [r0]	@ zero_extendqisi2
 738              		.loc 1 171 9 view .LVU175
 739 0004 89B1     		cbz	r1, .L73
 740 0006 0A4D     		ldr	r5, .L74
 741 0008 0446     		mov	r4, r0
ARM GAS  /tmp/ccugwmcB.s 			page 14


 742              	.LVL48:
 743              	.L67:
 744              		.loc 1 172 5 is_stmt 1 view .LVU176
 745 000a 2868     		ldr	r0, [r5]
 746              	.LVL49:
 747              		.loc 1 172 5 is_stmt 0 view .LVU177
 748 000c 0368     		ldr	r3, [r0]
 749 000e 9B68     		ldr	r3, [r3, #8]
 750 0010 9847     		blx	r3
 751              	.LVL50:
 752              		.loc 1 171 9 is_stmt 1 view .LVU178
 753              		.loc 1 171 10 is_stmt 0 view .LVU179
 754 0012 14F8011F 		ldrb	r1, [r4, #1]!	@ zero_extendqisi2
 755              	.LVL51:
 756              		.loc 1 171 9 view .LVU180
 757 0016 0029     		cmp	r1, #0
 758 0018 F7D1     		bne	.L67
 759              	.LVL52:
 760              	.L66:
 761              		.loc 1 171 9 view .LVU181
 762              	.LBE125:
 763              	.LBE126:
 764              		.loc 1 185 3 is_stmt 1 view .LVU182
 765 001a 2868     		ldr	r0, [r5]
 766 001c 0549     		ldr	r1, .L74+4
 767 001e 0368     		ldr	r3, [r0]
 768              		.loc 1 186 1 is_stmt 0 view .LVU183
 769 0020 BDE87040 		pop	{r4, r5, r6, lr}
 770              		.cfi_remember_state
 771              		.cfi_restore 14
 772              		.cfi_restore 6
 773              		.cfi_restore 5
 774              		.cfi_restore 4
 775              		.cfi_def_cfa_offset 0
 776              		.loc 1 185 3 view .LVU184
 777 0024 1B68     		ldr	r3, [r3]
 778 0026 0222     		movs	r2, #2
 779 0028 1847     		bx	r3
 780              	.LVL53:
 781              	.L73:
 782              		.cfi_restore_state
 783              		.loc 1 185 3 view .LVU185
 784 002a 014D     		ldr	r5, .L74
 785 002c F5E7     		b	.L66
 786              	.L75:
 787 002e 00BF     		.align	2
 788              	.L74:
 789 0030 00000000 		.word	.LANCHOR0
 790 0034 00000000 		.word	.LC0
 791              		.cfi_endproc
 792              	.LFE287:
 793              		.size	test_println, .-test_println
 794              		.section	.text.test_emit_token,"ax",%progbits
 795              		.align	1
 796              		.p2align 4,,15
 797              		.global	test_emit_token
 798              		.syntax unified
ARM GAS  /tmp/ccugwmcB.s 			page 15


 799              		.thumb
 800              		.thumb_func
 801              		.fpu softvfp
 802              		.type	test_emit_token, %function
 803              	test_emit_token:
 804              	.LVL54:
 805              	.LFB288:
 806              		.loc 1 195 34 is_stmt 1 view -0
 807              		.cfi_startproc
 808              		@ args = 0, pretend = 0, frame = 0
 809              		@ frame_needed = 0, uses_anonymous_args = 0
 810              		@ link register save eliminated.
 811              		.loc 1 197 3 view .LVU187
 812              	.LBB127:
 813              	.LBI127:
 814              		.loc 2 491 20 view .LVU188
 815              	.LBE127:
 816              		.loc 2 493 3 view .LVU189
 817              	.LBB135:
 818              	.LBB128:
 819              	.LBI128:
 820              		.file 6 "../../../os/rt/include/chsys.h"
 821              		.loc 6 374 20 view .LVU190
 822              	.LBE128:
 823              	.LBE135:
 824              		.loc 6 376 3 view .LVU191
 825              	.LBB136:
 826              	.LBB133:
 827              	.LBB129:
 828              	.LBI129:
 829              		.file 7 "../../../os/common/ports/ARMCMx/chcore_v7m.h"
 830              		.loc 7 594 20 view .LVU192
 831              	.LBE129:
 832              	.LBE133:
 833              	.LBE136:
 834              		.loc 7 602 3 view .LVU193
 835              	.LBB137:
 836              	.LBB134:
 837              	.LBB132:
 838              	.LBB130:
 839              	.LBI130:
 840              		.file 8 "../../../os/common/ext/CMSIS/include/cmsis_gcc.h"
 841              		.loc 8 262 57 view .LVU194
 842              	.LBB131:
 843              		.loc 8 264 3 view .LVU195
 844 0000 2023     		movs	r3, #32
 845              		.syntax unified
 846              	@ 264 "../../../os/common/ext/CMSIS/include/cmsis_gcc.h" 1
 847 0002 83F31188 		MSR basepri, r3
 848              	@ 0 "" 2
 849              	.LVL55:
 850              		.loc 8 264 3 is_stmt 0 view .LVU196
 851              		.thumb
 852              		.syntax unified
 853              	.LBE131:
 854              	.LBE130:
 855              	.LBE132:
ARM GAS  /tmp/ccugwmcB.s 			page 16


 856              	.LBE134:
 857              	.LBE137:
 858              		.loc 6 377 34 is_stmt 1 view .LVU197
 859              		.loc 6 378 20 view .LVU198
 860              		.loc 1 198 3 view .LVU199
 861              		.loc 1 198 17 is_stmt 0 view .LVU200
 862 0006 064A     		ldr	r2, .L78
 863              		.loc 1 198 6 view .LVU201
 864 0008 0649     		ldr	r1, .L78+4
 865              		.loc 1 198 17 view .LVU202
 866 000a 1368     		ldr	r3, [r2]
 867              		.loc 1 198 6 view .LVU203
 868 000c 8B42     		cmp	r3, r1
 869 000e 02D2     		bcs	.L77
 870              		.loc 1 199 5 is_stmt 1 view .LVU204
 871              		.loc 1 199 15 is_stmt 0 view .LVU205
 872 0010 591C     		adds	r1, r3, #1
 873 0012 1160     		str	r1, [r2]
 874              		.loc 1 199 18 view .LVU206
 875 0014 1870     		strb	r0, [r3]
 876              	.L77:
 877              		.loc 1 200 3 is_stmt 1 view .LVU207
 878              	.LBB138:
 879              	.LBI138:
 880              		.loc 2 502 20 view .LVU208
 881              	.LBE138:
 882              		.loc 2 504 3 view .LVU209
 883              	.LBB147:
 884              	.LBB139:
 885              	.LBI139:
 886              		.loc 6 386 20 view .LVU210
 887              	.LBB140:
 888              		.loc 6 388 22 view .LVU211
 889              		.loc 6 389 33 view .LVU212
 890              		.loc 6 395 3 view .LVU213
 891              		.loc 6 395 3 view .LVU214
 892              		.loc 6 395 3 view .LVU215
 893              		.loc 6 399 3 view .LVU216
 894              	.LBB141:
 895              	.LBI141:
 896              		.loc 7 618 20 view .LVU217
 897              	.LBE141:
 898              	.LBE140:
 899              	.LBE139:
 900              	.LBE147:
 901              		.loc 7 621 3 view .LVU218
 902              	.LVL56:
 903              	.LBB148:
 904              	.LBB146:
 905              	.LBB145:
 906              	.LBB144:
 907              	.LBB142:
 908              	.LBI142:
 909              		.loc 8 262 57 view .LVU219
 910              	.LBB143:
 911              		.loc 8 264 3 view .LVU220
 912 0016 0023     		movs	r3, #0
ARM GAS  /tmp/ccugwmcB.s 			page 17


 913              		.syntax unified
 914              	@ 264 "../../../os/common/ext/CMSIS/include/cmsis_gcc.h" 1
 915 0018 83F31188 		MSR basepri, r3
 916              	@ 0 "" 2
 917              	.LVL57:
 918              		.loc 8 264 3 is_stmt 0 view .LVU221
 919              		.thumb
 920              		.syntax unified
 921              	.LBE143:
 922              	.LBE142:
 923              	.LBE144:
 924              	.LBE145:
 925              	.LBE146:
 926              	.LBE148:
 927              		.loc 1 201 1 view .LVU222
 928 001c 7047     		bx	lr
 929              	.L79:
 930 001e 00BF     		.align	2
 931              	.L78:
 932 0020 00000000 		.word	.LANCHOR5
 933 0024 10000000 		.word	.LANCHOR4+16
 934              		.cfi_endproc
 935              	.LFE288:
 936              		.size	test_emit_token, .-test_emit_token
 937              		.section	.text.test_emit_token_i,"ax",%progbits
 938              		.align	1
 939              		.p2align 4,,15
 940              		.global	test_emit_token_i
 941              		.syntax unified
 942              		.thumb
 943              		.thumb_func
 944              		.fpu softvfp
 945              		.type	test_emit_token_i, %function
 946              	test_emit_token_i:
 947              	.LVL58:
 948              	.LFB289:
 949              		.loc 1 210 36 is_stmt 1 view -0
 950              		.cfi_startproc
 951              		@ args = 0, pretend = 0, frame = 0
 952              		@ frame_needed = 0, uses_anonymous_args = 0
 953              		@ link register save eliminated.
 954              		.loc 1 212 3 view .LVU224
 955              		.loc 1 212 17 is_stmt 0 view .LVU225
 956 0000 044A     		ldr	r2, .L82
 957              		.loc 1 212 6 view .LVU226
 958 0002 0549     		ldr	r1, .L82+4
 959              		.loc 1 212 17 view .LVU227
 960 0004 1368     		ldr	r3, [r2]
 961              		.loc 1 212 6 view .LVU228
 962 0006 8B42     		cmp	r3, r1
 963 0008 02D2     		bcs	.L80
 964              		.loc 1 213 5 is_stmt 1 view .LVU229
 965              		.loc 1 213 15 is_stmt 0 view .LVU230
 966 000a 591C     		adds	r1, r3, #1
 967 000c 1160     		str	r1, [r2]
 968              		.loc 1 213 18 view .LVU231
 969 000e 1870     		strb	r0, [r3]
ARM GAS  /tmp/ccugwmcB.s 			page 18


 970              	.L80:
 971              		.loc 1 214 1 view .LVU232
 972 0010 7047     		bx	lr
 973              	.L83:
 974 0012 00BF     		.align	2
 975              	.L82:
 976 0014 00000000 		.word	.LANCHOR5
 977 0018 10000000 		.word	.LANCHOR4+16
 978              		.cfi_endproc
 979              	.LFE289:
 980              		.size	test_emit_token_i, .-test_emit_token_i
 981              		.section	.rodata.test_execute.str1.4,"aMS",%progbits,1
 982              		.align	2
 983              	.LC1:
 984 0000 2A2A2A20 		.ascii	"*** Compiled:     \000"
 984      436F6D70 
 984      696C6564 
 984      3A202020 
 984      202000
 985 0013 00       		.align	2
 986              	.LC2:
 987 0014 2A2A2A20 		.ascii	"*** Platform:     \000"
 987      506C6174 
 987      666F726D 
 987      3A202020 
 987      202000
 988 0027 00       		.align	2
 989              	.LC3:
 990 0028 2A2A2A20 		.ascii	"*** Test Board:   \000"
 990      54657374 
 990      20426F61 
 990      72643A20 
 990      202000
 991 003b 00       		.align	2
 992              	.LC4:
 993 003c 2D2D2D20 		.ascii	"--- Test Case \000"
 993      54657374 
 993      20436173 
 993      652000
 994 004b 00       		.align	2
 995              	.LC5:
 996 004c 202800   		.ascii	" (\000"
 997 004f 00       		.align	2
 998              	.LC6:
 999 0050 2D2D2D20 		.ascii	"--- Result: FAILURE (#\000"
 999      52657375 
 999      6C743A20 
 999      4641494C 
 999      55524520 
 1000 0067 00       		.align	2
 1001              	.LC7:
 1002 0068 205B00   		.ascii	" [\000"
 1003 006b 00       		.align	2
 1004              	.LC8:
 1005 006c 5D202200 		.ascii	"] \"\000"
 1006              		.align	2
 1007              	.LC9:
ARM GAS  /tmp/ccugwmcB.s 			page 19


 1008 0070 222900   		.ascii	"\")\000"
 1009 0073 00       		.align	2
 1010              	.LC10:
 1011 0074 2D2D2D20 		.ascii	"--- Result: SUCCESS\000"
 1011      52657375 
 1011      6C743A20 
 1011      53554343 
 1011      45535300 
 1012              		.align	2
 1013              	.LC11:
 1014 0088 46696E61 		.ascii	"Final result: \000"
 1014      6C207265 
 1014      73756C74 
 1014      3A2000
 1015 0097 00       		.align	2
 1016              	.LC12:
 1017 0098 00       		.ascii	"\000"
 1018 0099 000000   		.align	2
 1019              	.LC13:
 1020 009c 2A2A2A20 		.ascii	"*** ChibiOS/RT Test Suite\000"
 1020      43686962 
 1020      694F532F 
 1020      52542054 
 1020      65737420 
 1021 00b6 0000     		.align	2
 1022              	.LC14:
 1023 00b8 2A2A2A00 		.ascii	"***\000"
 1024              		.align	2
 1025              	.LC15:
 1026 00bc 4A616E20 		.ascii	"Jan 14 2023 - 00:41:22\000"
 1026      31342032 
 1026      30323320 
 1026      2D203030 
 1026      3A34313A 
 1027 00d3 00       		.align	2
 1028              	.LC16:
 1029 00d4 53544D33 		.ascii	"STM32F407 High Performance with DSP and FPU\000"
 1029      32463430 
 1029      37204869 
 1029      67682050 
 1029      6572666F 
 1030              		.align	2
 1031              	.LC17:
 1032 0100 53544D69 		.ascii	"STMicroelectronics STM32F4-Discovery\000"
 1032      63726F65 
 1032      6C656374 
 1032      726F6E69 
 1032      63732053 
 1033 0125 000000   		.align	2
 1034              	.LC18:
 1035 0128 4641494C 		.ascii	"FAILURE\000"
 1035      55524500 
 1036              		.align	2
 1037              	.LC19:
 1038 0130 53554343 		.ascii	"SUCCESS\000"
 1038      45535300 
 1039              		.section	.text.test_execute,"ax",%progbits
ARM GAS  /tmp/ccugwmcB.s 			page 20


 1040              		.align	1
 1041              		.p2align 4,,15
 1042              		.global	test_execute
 1043              		.syntax unified
 1044              		.thumb
 1045              		.thumb_func
 1046              		.fpu softvfp
 1047              		.type	test_execute, %function
 1048              	test_execute:
 1049              	.LVL59:
 1050              	.LFB290:
 1051              		.loc 1 227 50 is_stmt 1 view -0
 1052              		.cfi_startproc
 1053              		@ args = 0, pretend = 0, frame = 8
 1054              		@ frame_needed = 0, uses_anonymous_args = 0
 1055              		.loc 1 228 3 view .LVU234
 1056              		.loc 1 230 3 view .LVU235
 1057              		.loc 1 227 50 is_stmt 0 view .LVU236
 1058 0000 2DE9F04F 		push	{r4, r5, r6, r7, r8, r9, r10, fp, lr}
 1059              		.cfi_def_cfa_offset 36
 1060              		.cfi_offset 4, -36
 1061              		.cfi_offset 5, -32
 1062              		.cfi_offset 6, -28
 1063              		.cfi_offset 7, -24
 1064              		.cfi_offset 8, -20
 1065              		.cfi_offset 9, -16
 1066              		.cfi_offset 10, -12
 1067              		.cfi_offset 11, -8
 1068              		.cfi_offset 14, -4
 1069              		.loc 1 230 12 view .LVU237
 1070 0004 954C     		ldr	r4, .L145
 1071              		.loc 1 237 3 view .LVU238
 1072 0006 964D     		ldr	r5, .L145+4
 1073              		.loc 1 227 50 view .LVU239
 1074 0008 0346     		mov	r3, r0
 1075 000a 83B0     		sub	sp, sp, #12
 1076              		.cfi_def_cfa_offset 48
 1077              		.loc 1 231 3 view .LVU240
 1078 000c 9548     		ldr	r0, .L145+8
 1079              	.LVL60:
 1080              		.loc 1 230 12 view .LVU241
 1081 000e 2360     		str	r3, [r4]
 1082              		.loc 1 231 3 is_stmt 1 view .LVU242
 1083 0010 FFF7FEFF 		bl	test_println
 1084              	.LVL61:
 1085              		.loc 1 233 3 view .LVU243
 1086 0014 9448     		ldr	r0, .L145+12
 1087 0016 FFF7FEFF 		bl	test_println
 1088              	.LVL62:
 1089              		.loc 1 237 3 view .LVU244
 1090 001a 9448     		ldr	r0, .L145+16
 1091 001c FFF7FEFF 		bl	test_println
 1092              	.LVL63:
 1093              		.loc 1 238 3 view .LVU245
 1094              	.LBB193:
 1095              	.LBI193:
 1096              		.loc 1 169 6 view .LVU246
ARM GAS  /tmp/ccugwmcB.s 			page 21


 1097              	.LBB194:
 1098              		.loc 1 171 9 view .LVU247
 1099              		.loc 1 171 10 is_stmt 0 view .LVU248
 1100 0020 2A21     		movs	r1, #42
 1101              	.LVL64:
 1102              	.L85:
 1103              		.loc 1 172 5 is_stmt 1 view .LVU249
 1104 0022 2068     		ldr	r0, [r4]
 1105              	.LVL65:
 1106              		.loc 1 172 5 is_stmt 0 view .LVU250
 1107 0024 0368     		ldr	r3, [r0]
 1108 0026 9B68     		ldr	r3, [r3, #8]
 1109 0028 9847     		blx	r3
 1110              	.LVL66:
 1111              		.loc 1 171 9 is_stmt 1 view .LVU251
 1112              		.loc 1 171 10 is_stmt 0 view .LVU252
 1113 002a 15F8011F 		ldrb	r1, [r5, #1]!	@ zero_extendqisi2
 1114              	.LVL67:
 1115              		.loc 1 171 9 view .LVU253
 1116 002e 0029     		cmp	r1, #0
 1117 0030 F7D1     		bne	.L85
 1118              	.LVL68:
 1119              		.loc 1 171 9 view .LVU254
 1120              	.LBE194:
 1121              	.LBE193:
 1122              		.loc 1 239 3 is_stmt 1 view .LVU255
 1123 0032 8F48     		ldr	r0, .L145+20
 1124 0034 8F4D     		ldr	r5, .L145+24
 1125 0036 FFF7FEFF 		bl	test_println
 1126              	.LVL69:
 1127              		.loc 1 241 3 view .LVU256
 1128              	.LBB195:
 1129              	.LBI195:
 1130              		.loc 1 169 6 view .LVU257
 1131              	.LBB196:
 1132              		.loc 1 171 9 view .LVU258
 1133              		.loc 1 171 10 is_stmt 0 view .LVU259
 1134 003a 2A21     		movs	r1, #42
 1135              	.LVL70:
 1136              	.L86:
 1137              		.loc 1 172 5 is_stmt 1 view .LVU260
 1138 003c 2068     		ldr	r0, [r4]
 1139              	.LVL71:
 1140              		.loc 1 172 5 is_stmt 0 view .LVU261
 1141 003e 0368     		ldr	r3, [r0]
 1142 0040 9B68     		ldr	r3, [r3, #8]
 1143 0042 9847     		blx	r3
 1144              	.LVL72:
 1145              		.loc 1 171 9 is_stmt 1 view .LVU262
 1146              		.loc 1 171 10 is_stmt 0 view .LVU263
 1147 0044 15F8011F 		ldrb	r1, [r5, #1]!	@ zero_extendqisi2
 1148              	.LVL73:
 1149              		.loc 1 171 9 view .LVU264
 1150 0048 0029     		cmp	r1, #0
 1151 004a F7D1     		bne	.L86
 1152              	.LVL74:
 1153              		.loc 1 171 9 view .LVU265
ARM GAS  /tmp/ccugwmcB.s 			page 22


 1154              	.LBE196:
 1155              	.LBE195:
 1156              		.loc 1 242 3 is_stmt 1 view .LVU266
 1157 004c 8A48     		ldr	r0, .L145+28
 1158 004e 8B4D     		ldr	r5, .L145+32
 1159 0050 FFF7FEFF 		bl	test_println
 1160              	.LVL75:
 1161              		.loc 1 245 3 view .LVU267
 1162              	.LBB197:
 1163              	.LBI197:
 1164              		.loc 1 169 6 view .LVU268
 1165              	.LBB198:
 1166              		.loc 1 171 9 view .LVU269
 1167              		.loc 1 171 10 is_stmt 0 view .LVU270
 1168 0054 2A21     		movs	r1, #42
 1169              	.LVL76:
 1170              	.L87:
 1171              		.loc 1 172 5 is_stmt 1 view .LVU271
 1172 0056 2068     		ldr	r0, [r4]
 1173              	.LVL77:
 1174              		.loc 1 172 5 is_stmt 0 view .LVU272
 1175 0058 0368     		ldr	r3, [r0]
 1176 005a 9B68     		ldr	r3, [r3, #8]
 1177 005c 9847     		blx	r3
 1178              	.LVL78:
 1179              		.loc 1 171 9 is_stmt 1 view .LVU273
 1180              		.loc 1 171 10 is_stmt 0 view .LVU274
 1181 005e 15F8011F 		ldrb	r1, [r5, #1]!	@ zero_extendqisi2
 1182              	.LVL79:
 1183              		.loc 1 171 9 view .LVU275
 1184 0062 0029     		cmp	r1, #0
 1185 0064 F7D1     		bne	.L87
 1186              	.LVL80:
 1187              		.loc 1 171 9 view .LVU276
 1188              	.LBE198:
 1189              	.LBE197:
 1190              		.loc 1 246 3 is_stmt 1 view .LVU277
 1191 0066 8648     		ldr	r0, .L145+36
 1192 0068 0191     		str	r1, [sp, #4]
 1193 006a FFF7FEFF 		bl	test_println
 1194              	.LVL81:
 1195              		.loc 1 251 3 view .LVU278
 1196 006e 7D48     		ldr	r0, .L145+8
 1197 0070 FFF7FEFF 		bl	test_println
 1198              	.LVL82:
 1199              		.loc 1 253 3 view .LVU279
 1200              		.loc 1 255 20 is_stmt 0 view .LVU280
 1201 0074 834B     		ldr	r3, .L145+40
 1202              		.loc 1 253 20 view .LVU281
 1203 0076 844A     		ldr	r2, .L145+44
 1204              		.loc 1 255 20 view .LVU282
 1205 0078 1B68     		ldr	r3, [r3]
 1206              		.loc 1 253 20 view .LVU283
 1207 007a 0199     		ldr	r1, [sp, #4]
 1208 007c 1170     		strb	r1, [r2]
 1209              		.loc 1 254 3 is_stmt 1 view .LVU284
 1210              	.LVL83:
ARM GAS  /tmp/ccugwmcB.s 			page 23


 1211              		.loc 1 255 3 view .LVU285
 1212              		.loc 1 255 9 view .LVU286
 1213 007e 002B     		cmp	r3, #0
 1214 0080 00F0BF80 		beq	.L88
 1215 0084 DFF8FC81 		ldr	r8, .L145+40
 1216 0088 804E     		ldr	r6, .L145+48
 1217 008a 4FF0010B 		mov	fp, #1
 1218              	.LVL84:
 1219              	.L89:
 1220              		.loc 1 257 11 view .LVU287
 1221 008e 1B68     		ldr	r3, [r3]
 1222 0090 002B     		cmp	r3, #0
 1223 0092 00F0AC80 		beq	.L109
 1224              		.loc 1 256 7 is_stmt 0 view .LVU288
 1225 0096 4FF00009 		mov	r9, #0
 1226              	.LBB199:
 1227              	.LBB200:
 1228              		.loc 1 185 3 view .LVU289
 1229 009a DFF8F4A1 		ldr	r10, .L145+52
 1230              	.LBE200:
 1231              	.LBE199:
 1232              		.loc 1 257 25 view .LVU290
 1233 009e 4F46     		mov	r7, r9
 1234              	.LVL85:
 1235              	.L107:
 1236              		.loc 1 258 7 is_stmt 1 view .LVU291
 1237 00a0 7C4D     		ldr	r5, .L145+56
 1238 00a2 FFF7FEFF 		bl	print_line
 1239              	.LVL86:
 1240              		.loc 1 259 7 view .LVU292
 1241              	.LBB204:
 1242              	.LBI204:
 1243              		.loc 1 169 6 view .LVU293
 1244              	.LBB205:
 1245              		.loc 1 171 9 view .LVU294
 1246              		.loc 1 171 10 is_stmt 0 view .LVU295
 1247 00a6 2D21     		movs	r1, #45
 1248              	.LVL87:
 1249              	.L90:
 1250              		.loc 1 172 5 is_stmt 1 view .LVU296
 1251 00a8 2068     		ldr	r0, [r4]
 1252              	.LVL88:
 1253              		.loc 1 172 5 is_stmt 0 view .LVU297
 1254 00aa 0368     		ldr	r3, [r0]
 1255 00ac 9B68     		ldr	r3, [r3, #8]
 1256 00ae 9847     		blx	r3
 1257              	.LVL89:
 1258              		.loc 1 171 9 is_stmt 1 view .LVU298
 1259              		.loc 1 171 10 is_stmt 0 view .LVU299
 1260 00b0 15F8011F 		ldrb	r1, [r5, #1]!	@ zero_extendqisi2
 1261              	.LVL90:
 1262              		.loc 1 171 9 view .LVU300
 1263 00b4 0029     		cmp	r1, #0
 1264 00b6 F7D1     		bne	.L90
 1265              	.LVL91:
 1266              		.loc 1 171 9 view .LVU301
 1267              	.LBE205:
ARM GAS  /tmp/ccugwmcB.s 			page 24


 1268              	.LBE204:
 1269              		.loc 1 260 7 is_stmt 1 view .LVU302
 1270 00b8 5846     		mov	r0, fp
 1271 00ba FFF7FEFF 		bl	test_printn
 1272              	.LVL92:
 1273              		.loc 1 261 7 view .LVU303
 1274              	.LBB206:
 1275              	.LBI206:
 1276              		.loc 1 169 6 view .LVU304
 1277              	.LBB207:
 1278              		.loc 1 171 9 view .LVU305
 1279              		.loc 1 172 5 view .LVU306
 1280 00be 2068     		ldr	r0, [r4]
 1281              	.LVL93:
 1282              		.loc 1 172 5 is_stmt 0 view .LVU307
 1283              	.LBE207:
 1284              	.LBE206:
 1285              		.loc 1 262 7 view .LVU308
 1286 00c0 754D     		ldr	r5, .L145+60
 1287              	.LBB210:
 1288              	.LBB208:
 1289              		.loc 1 172 5 view .LVU309
 1290 00c2 0368     		ldr	r3, [r0]
 1291 00c4 2E21     		movs	r1, #46
 1292 00c6 9B68     		ldr	r3, [r3, #8]
 1293              	.LBE208:
 1294              	.LBE210:
 1295              		.loc 1 262 21 view .LVU310
 1296 00c8 09F10109 		add	r9, r9, #1
 1297              	.LVL94:
 1298              	.LBB211:
 1299              	.LBB209:
 1300              		.loc 1 172 5 view .LVU311
 1301 00cc 9847     		blx	r3
 1302              	.LVL95:
 1303              		.loc 1 171 9 is_stmt 1 view .LVU312
 1304              		.loc 1 171 9 is_stmt 0 view .LVU313
 1305              	.LBE209:
 1306              	.LBE211:
 1307              		.loc 1 262 7 is_stmt 1 view .LVU314
 1308 00ce 4846     		mov	r0, r9
 1309 00d0 FFF7FEFF 		bl	test_printn
 1310              	.LVL96:
 1311              		.loc 1 263 7 view .LVU315
 1312              	.LBB212:
 1313              	.LBI212:
 1314              		.loc 1 169 6 view .LVU316
 1315              	.LBB213:
 1316              		.loc 1 171 9 view .LVU317
 1317              		.loc 1 171 10 is_stmt 0 view .LVU318
 1318 00d4 2021     		movs	r1, #32
 1319              	.LVL97:
 1320              	.L91:
 1321              		.loc 1 172 5 is_stmt 1 view .LVU319
 1322 00d6 2068     		ldr	r0, [r4]
 1323              	.LVL98:
 1324              		.loc 1 172 5 is_stmt 0 view .LVU320
ARM GAS  /tmp/ccugwmcB.s 			page 25


 1325 00d8 0368     		ldr	r3, [r0]
 1326 00da 9B68     		ldr	r3, [r3, #8]
 1327 00dc 9847     		blx	r3
 1328              	.LVL99:
 1329              		.loc 1 171 9 is_stmt 1 view .LVU321
 1330              		.loc 1 171 10 is_stmt 0 view .LVU322
 1331 00de 15F8011F 		ldrb	r1, [r5, #1]!	@ zero_extendqisi2
 1332              	.LVL100:
 1333              		.loc 1 171 9 view .LVU323
 1334 00e2 0029     		cmp	r1, #0
 1335 00e4 F7D1     		bne	.L91
 1336              	.LVL101:
 1337              		.loc 1 171 9 view .LVU324
 1338              	.LBE213:
 1339              	.LBE212:
 1340              		.loc 1 264 7 is_stmt 1 view .LVU325
 1341              		.loc 1 264 31 is_stmt 0 view .LVU326
 1342 00e6 D8F80030 		ldr	r3, [r8]
 1343              		.loc 1 264 7 view .LVU327
 1344 00ea DB59     		ldr	r3, [r3, r7]
 1345 00ec 1D68     		ldr	r5, [r3]
 1346              	.LVL102:
 1347              	.LBB214:
 1348              	.LBI214:
 1349              		.loc 1 169 6 is_stmt 1 view .LVU328
 1350              	.LBB215:
 1351              		.loc 1 171 9 view .LVU329
 1352              		.loc 1 171 10 is_stmt 0 view .LVU330
 1353 00ee 2978     		ldrb	r1, [r5]	@ zero_extendqisi2
 1354              		.loc 1 171 9 view .LVU331
 1355 00f0 39B1     		cbz	r1, .L95
 1356              	.L92:
 1357              		.loc 1 172 5 is_stmt 1 view .LVU332
 1358 00f2 2068     		ldr	r0, [r4]
 1359              	.LVL103:
 1360              		.loc 1 172 5 is_stmt 0 view .LVU333
 1361 00f4 0368     		ldr	r3, [r0]
 1362 00f6 9B68     		ldr	r3, [r3, #8]
 1363 00f8 9847     		blx	r3
 1364              	.LVL104:
 1365              		.loc 1 171 9 is_stmt 1 view .LVU334
 1366              		.loc 1 171 10 is_stmt 0 view .LVU335
 1367 00fa 15F8011F 		ldrb	r1, [r5, #1]!	@ zero_extendqisi2
 1368              	.LVL105:
 1369              		.loc 1 171 9 view .LVU336
 1370 00fe 0029     		cmp	r1, #0
 1371 0100 F7D1     		bne	.L92
 1372              	.L95:
 1373              	.LVL106:
 1374              		.loc 1 171 9 view .LVU337
 1375              	.LBE215:
 1376              	.LBE214:
 1377              	.LBB216:
 1378              	.LBB203:
 1379              	.LBB201:
 1380              	.LBB202:
 1381              		.loc 1 171 9 is_stmt 1 view .LVU338
ARM GAS  /tmp/ccugwmcB.s 			page 26


 1382              		.loc 1 172 5 view .LVU339
 1383 0102 2068     		ldr	r0, [r4]
 1384              	.LVL107:
 1385              		.loc 1 172 5 is_stmt 0 view .LVU340
 1386 0104 0368     		ldr	r3, [r0]
 1387 0106 2921     		movs	r1, #41
 1388 0108 9B68     		ldr	r3, [r3, #8]
 1389 010a 9847     		blx	r3
 1390              	.LVL108:
 1391              		.loc 1 171 9 is_stmt 1 view .LVU341
 1392              		.loc 1 171 9 is_stmt 0 view .LVU342
 1393              	.LBE202:
 1394              	.LBE201:
 1395              		.loc 1 185 3 is_stmt 1 view .LVU343
 1396 010c 2068     		ldr	r0, [r4]
 1397 010e 0368     		ldr	r3, [r0]
 1398 0110 0222     		movs	r2, #2
 1399 0112 1B68     		ldr	r3, [r3]
 1400 0114 5146     		mov	r1, r10
 1401 0116 9847     		blx	r3
 1402              	.LVL109:
 1403              	.LBE203:
 1404              	.LBE216:
 1405              		.loc 1 267 7 view .LVU344
 1406              	.LBB217:
 1407              	.LBI217:
 1408              		.loc 2 671 20 view .LVU345
 1409              	.LBB218:
 1410              		.loc 2 673 3 view .LVU346
 1411 0118 4FF4FA60 		mov	r0, #2000
 1412 011c FFF7FEFF 		bl	chThdSleep
 1413              	.LVL110:
 1414              		.loc 2 673 3 is_stmt 0 view .LVU347
 1415              	.LBE218:
 1416              	.LBE217:
 1417              		.loc 1 269 7 is_stmt 1 view .LVU348
 1418              	.LBB219:
 1419              	.LBB220:
 1420              	.LBB221:
 1421              	.LBB222:
 1422              		.loc 1 67 13 is_stmt 0 view .LVU349
 1423 0120 5E4B     		ldr	r3, .L145+64
 1424 0122 3360     		str	r3, [r6]
 1425              	.LBE222:
 1426              	.LBE221:
 1427              	.LBE220:
 1428              	.LBE219:
 1429              		.loc 1 269 7 view .LVU350
 1430 0124 D8F80030 		ldr	r3, [r8]
 1431              	.LBB227:
 1432              	.LBB225:
 1433              		.loc 1 81 19 view .LVU351
 1434 0128 5D4A     		ldr	r2, .L145+68
 1435              	.LBE225:
 1436              	.LBE227:
 1437              		.loc 1 269 7 view .LVU352
 1438 012a DD59     		ldr	r5, [r3, r7]
ARM GAS  /tmp/ccugwmcB.s 			page 27


 1439              	.LVL111:
 1440              	.LBB228:
 1441              	.LBI219:
 1442              		.loc 1 77 13 is_stmt 1 view .LVU353
 1443              	.LBB226:
 1444              		.loc 1 80 3 view .LVU354
 1445              	.LBB224:
 1446              	.LBI221:
 1447              		.loc 1 65 13 view .LVU355
 1448              	.LBB223:
 1449              		.loc 1 67 3 view .LVU356
 1450              	.LBE223:
 1451              	.LBE224:
 1452              		.loc 1 81 3 view .LVU357
 1453              		.loc 1 81 19 is_stmt 0 view .LVU358
 1454 012c 0023     		movs	r3, #0
 1455 012e 1370     		strb	r3, [r2]
 1456              		.loc 1 83 3 is_stmt 1 view .LVU359
 1457              		.loc 1 83 10 is_stmt 0 view .LVU360
 1458 0130 6B68     		ldr	r3, [r5, #4]
 1459              		.loc 1 83 6 view .LVU361
 1460 0132 03B1     		cbz	r3, .L94
 1461              		.loc 1 84 5 is_stmt 1 view .LVU362
 1462 0134 9847     		blx	r3
 1463              	.LVL112:
 1464              	.L94:
 1465              		.loc 1 85 3 view .LVU363
 1466 0136 EB68     		ldr	r3, [r5, #12]
 1467 0138 9847     		blx	r3
 1468              	.LVL113:
 1469              		.loc 1 86 3 view .LVU364
 1470              		.loc 1 86 10 is_stmt 0 view .LVU365
 1471 013a AB68     		ldr	r3, [r5, #8]
 1472              		.loc 1 86 6 view .LVU366
 1473 013c 03B1     		cbz	r3, .L96
 1474              		.loc 1 87 5 is_stmt 1 view .LVU367
 1475 013e 9847     		blx	r3
 1476              	.LVL114:
 1477              	.L96:
 1478              		.loc 1 87 5 is_stmt 0 view .LVU368
 1479              	.LBE226:
 1480              	.LBE228:
 1481              		.loc 1 270 7 is_stmt 1 view .LVU369
 1482              		.loc 1 270 10 is_stmt 0 view .LVU370
 1483 0140 574B     		ldr	r3, .L145+68
 1484 0142 1B78     		ldrb	r3, [r3]	@ zero_extendqisi2
 1485 0144 002B     		cmp	r3, #0
 1486 0146 76D0     		beq	.L113
 1487 0148 564D     		ldr	r5, .L145+72
 1488              	.LBB229:
 1489              	.LBB230:
 1490              		.loc 1 171 10 view .LVU371
 1491 014a 2D21     		movs	r1, #45
 1492              	.L98:
 1493              	.LVL115:
 1494              		.loc 1 172 5 is_stmt 1 view .LVU372
 1495 014c 2068     		ldr	r0, [r4]
ARM GAS  /tmp/ccugwmcB.s 			page 28


 1496              	.LVL116:
 1497              		.loc 1 172 5 is_stmt 0 view .LVU373
 1498 014e 0368     		ldr	r3, [r0]
 1499 0150 9B68     		ldr	r3, [r3, #8]
 1500 0152 9847     		blx	r3
 1501              	.LVL117:
 1502              		.loc 1 171 9 is_stmt 1 view .LVU374
 1503              		.loc 1 171 10 is_stmt 0 view .LVU375
 1504 0154 15F8011F 		ldrb	r1, [r5, #1]!	@ zero_extendqisi2
 1505              	.LVL118:
 1506              		.loc 1 171 9 view .LVU376
 1507 0158 0029     		cmp	r1, #0
 1508 015a F7D1     		bne	.L98
 1509              	.LVL119:
 1510              		.loc 1 171 9 view .LVU377
 1511              	.LBE230:
 1512              	.LBE229:
 1513              		.loc 1 272 9 is_stmt 1 view .LVU378
 1514 015c 524B     		ldr	r3, .L145+76
 1515 015e 534D     		ldr	r5, .L145+80
 1516 0160 1868     		ldr	r0, [r3]
 1517 0162 FFF7FEFF 		bl	test_printn
 1518              	.LVL120:
 1519              		.loc 1 273 9 view .LVU379
 1520              	.LBB231:
 1521              	.LBI231:
 1522              		.loc 1 169 6 view .LVU380
 1523              	.LBB232:
 1524              		.loc 1 171 9 view .LVU381
 1525              		.loc 1 171 10 is_stmt 0 view .LVU382
 1526 0166 2021     		movs	r1, #32
 1527              	.LVL121:
 1528              	.L99:
 1529              		.loc 1 172 5 is_stmt 1 view .LVU383
 1530 0168 2068     		ldr	r0, [r4]
 1531              	.LVL122:
 1532              		.loc 1 172 5 is_stmt 0 view .LVU384
 1533 016a 0368     		ldr	r3, [r0]
 1534 016c 9B68     		ldr	r3, [r3, #8]
 1535 016e 9847     		blx	r3
 1536              	.LVL123:
 1537              		.loc 1 171 9 is_stmt 1 view .LVU385
 1538              		.loc 1 171 10 is_stmt 0 view .LVU386
 1539 0170 15F8011F 		ldrb	r1, [r5, #1]!	@ zero_extendqisi2
 1540              	.LVL124:
 1541              		.loc 1 171 9 view .LVU387
 1542 0174 0029     		cmp	r1, #0
 1543 0176 F7D1     		bne	.L99
 1544              	.LVL125:
 1545              		.loc 1 171 9 view .LVU388
 1546              	.LBE232:
 1547              	.LBE231:
 1548              	.LBB233:
 1549              	.LBB234:
 1550              		.loc 1 73 9 is_stmt 1 view .LVU389
 1551 0178 3368     		ldr	r3, [r6]
 1552 017a 484A     		ldr	r2, .L145+64
ARM GAS  /tmp/ccugwmcB.s 			page 29


 1553 017c 9342     		cmp	r3, r2
 1554 017e 09D9     		bls	.L102
 1555              		.loc 1 71 9 is_stmt 0 view .LVU390
 1556 0180 464D     		ldr	r5, .L145+64
 1557              	.LVL126:
 1558              	.L100:
 1559              		.loc 1 74 5 is_stmt 1 view .LVU391
 1560 0182 2068     		ldr	r0, [r4]
 1561              	.LVL127:
 1562              		.loc 1 74 5 is_stmt 0 view .LVU392
 1563 0184 15F8011B 		ldrb	r1, [r5], #1	@ zero_extendqisi2
 1564              	.LVL128:
 1565              		.loc 1 74 5 view .LVU393
 1566 0188 0368     		ldr	r3, [r0]
 1567 018a 9B68     		ldr	r3, [r3, #8]
 1568 018c 9847     		blx	r3
 1569              	.LVL129:
 1570              		.loc 1 73 9 is_stmt 1 view .LVU394
 1571 018e 3368     		ldr	r3, [r6]
 1572 0190 9D42     		cmp	r5, r3
 1573 0192 F6D3     		bcc	.L100
 1574              	.LVL130:
 1575              	.L102:
 1576              		.loc 1 73 9 is_stmt 0 view .LVU395
 1577              	.LBE234:
 1578              	.LBE233:
 1579              	.LBB235:
 1580              	.LBB236:
 1581              		.loc 1 171 9 is_stmt 1 view .LVU396
 1582              		.loc 1 171 10 is_stmt 0 view .LVU397
 1583 0194 464D     		ldr	r5, .L145+84
 1584 0196 5D21     		movs	r1, #93
 1585              	.LVL131:
 1586              	.L101:
 1587              		.loc 1 172 5 is_stmt 1 view .LVU398
 1588 0198 2068     		ldr	r0, [r4]
 1589              	.LVL132:
 1590              		.loc 1 172 5 is_stmt 0 view .LVU399
 1591 019a 0368     		ldr	r3, [r0]
 1592 019c 9B68     		ldr	r3, [r3, #8]
 1593 019e 9847     		blx	r3
 1594              	.LVL133:
 1595              		.loc 1 171 9 is_stmt 1 view .LVU400
 1596              		.loc 1 171 10 is_stmt 0 view .LVU401
 1597 01a0 15F8011F 		ldrb	r1, [r5, #1]!	@ zero_extendqisi2
 1598              	.LVL134:
 1599              		.loc 1 171 9 view .LVU402
 1600 01a4 0029     		cmp	r1, #0
 1601 01a6 F7D1     		bne	.L101
 1602              	.LVL135:
 1603              		.loc 1 171 9 view .LVU403
 1604              	.LBE236:
 1605              	.LBE235:
 1606              		.loc 1 276 9 is_stmt 1 view .LVU404
 1607 01a8 424B     		ldr	r3, .L145+88
 1608 01aa 1D68     		ldr	r5, [r3]
 1609              	.LVL136:
ARM GAS  /tmp/ccugwmcB.s 			page 30


 1610              	.LBB237:
 1611              	.LBI237:
 1612              		.loc 1 169 6 view .LVU405
 1613              	.LBB238:
 1614              		.loc 1 171 9 view .LVU406
 1615              		.loc 1 171 10 is_stmt 0 view .LVU407
 1616 01ac 2978     		ldrb	r1, [r5]	@ zero_extendqisi2
 1617              		.loc 1 171 9 view .LVU408
 1618 01ae 39B1     		cbz	r1, .L105
 1619              	.L103:
 1620              		.loc 1 172 5 is_stmt 1 view .LVU409
 1621 01b0 2068     		ldr	r0, [r4]
 1622              	.LVL137:
 1623              		.loc 1 172 5 is_stmt 0 view .LVU410
 1624 01b2 0368     		ldr	r3, [r0]
 1625 01b4 9B68     		ldr	r3, [r3, #8]
 1626 01b6 9847     		blx	r3
 1627              	.LVL138:
 1628              		.loc 1 171 9 is_stmt 1 view .LVU411
 1629              		.loc 1 171 10 is_stmt 0 view .LVU412
 1630 01b8 15F8011F 		ldrb	r1, [r5, #1]!	@ zero_extendqisi2
 1631              	.LVL139:
 1632              		.loc 1 171 9 view .LVU413
 1633 01bc 0029     		cmp	r1, #0
 1634 01be F7D1     		bne	.L103
 1635              	.L105:
 1636              	.LVL140:
 1637              		.loc 1 171 9 view .LVU414
 1638              	.LBE238:
 1639              	.LBE237:
 1640              	.LBB239:
 1641              	.LBB240:
 1642              	.LBB241:
 1643              	.LBB242:
 1644              		.loc 1 171 9 is_stmt 1 view .LVU415
 1645              		.loc 1 171 10 is_stmt 0 view .LVU416
 1646 01c0 3D4D     		ldr	r5, .L145+92
 1647 01c2 2221     		movs	r1, #34
 1648              	.LVL141:
 1649              	.L104:
 1650              		.loc 1 172 5 is_stmt 1 view .LVU417
 1651 01c4 2068     		ldr	r0, [r4]
 1652              	.LVL142:
 1653              		.loc 1 172 5 is_stmt 0 view .LVU418
 1654 01c6 0368     		ldr	r3, [r0]
 1655 01c8 9B68     		ldr	r3, [r3, #8]
 1656 01ca 9847     		blx	r3
 1657              	.LVL143:
 1658              		.loc 1 171 9 is_stmt 1 view .LVU419
 1659              		.loc 1 171 10 is_stmt 0 view .LVU420
 1660 01cc 15F8011F 		ldrb	r1, [r5, #1]!	@ zero_extendqisi2
 1661              	.LVL144:
 1662              		.loc 1 171 9 view .LVU421
 1663 01d0 0029     		cmp	r1, #0
 1664 01d2 F7D1     		bne	.L104
 1665              	.LVL145:
 1666              	.L144:
ARM GAS  /tmp/ccugwmcB.s 			page 31


 1667              		.loc 1 171 9 view .LVU422
 1668              	.LBE242:
 1669              	.LBE241:
 1670              	.LBE240:
 1671              	.LBE239:
 1672              	.LBB243:
 1673              	.LBB244:
 1674              		.loc 1 185 3 is_stmt 1 view .LVU423
 1675 01d4 2068     		ldr	r0, [r4]
 1676 01d6 0368     		ldr	r3, [r0]
 1677 01d8 0222     		movs	r2, #2
 1678 01da 1B68     		ldr	r3, [r3]
 1679 01dc 5146     		mov	r1, r10
 1680 01de 9847     		blx	r3
 1681              	.LVL146:
 1682              		.loc 1 185 3 is_stmt 0 view .LVU424
 1683              	.LBE244:
 1684              	.LBE243:
 1685              		.loc 1 257 11 is_stmt 1 view .LVU425
 1686              		.loc 1 257 25 is_stmt 0 view .LVU426
 1687 01e0 0437     		adds	r7, r7, #4
 1688 01e2 D8F80030 		ldr	r3, [r8]
 1689              		.loc 1 257 11 view .LVU427
 1690 01e6 DB59     		ldr	r3, [r3, r7]
 1691 01e8 002B     		cmp	r3, #0
 1692 01ea 7FF459AF 		bne	.L107
 1693              	.LVL147:
 1694              	.L109:
 1695              		.loc 1 283 5 is_stmt 1 view .LVU428
 1696              		.loc 1 255 9 view .LVU429
 1697              		.loc 1 255 20 is_stmt 0 view .LVU430
 1698 01ee 254B     		ldr	r3, .L145+40
 1699 01f0 53F82B30 		ldr	r3, [r3, fp, lsl #2]
 1700              		.loc 1 255 9 view .LVU431
 1701 01f4 08F10408 		add	r8, r8, #4
 1702 01f8 0BF1010B 		add	fp, fp, #1
 1703              	.LVL148:
 1704              		.loc 1 255 9 view .LVU432
 1705 01fc 002B     		cmp	r3, #0
 1706 01fe 7FF446AF 		bne	.L89
 1707              	.LVL149:
 1708              	.L88:
 1709              		.loc 1 285 3 is_stmt 1 view .LVU433
 1710 0202 FFF7FEFF 		bl	print_line
 1711              	.LVL150:
 1712              		.loc 1 286 3 view .LVU434
 1713 0206 2D4D     		ldr	r5, .L145+96
 1714 0208 1648     		ldr	r0, .L145+8
 1715 020a FFF7FEFF 		bl	test_println
 1716              	.LVL151:
 1717              		.loc 1 287 3 view .LVU435
 1718              	.LBB248:
 1719              	.LBI248:
 1720              		.loc 1 169 6 view .LVU436
 1721              	.LBB249:
 1722              		.loc 1 171 9 view .LVU437
 1723              		.loc 1 171 10 is_stmt 0 view .LVU438
ARM GAS  /tmp/ccugwmcB.s 			page 32


 1724 020e 4621     		movs	r1, #70
 1725              	.LVL152:
 1726              	.L110:
 1727              		.loc 1 172 5 is_stmt 1 view .LVU439
 1728 0210 2068     		ldr	r0, [r4]
 1729              	.LVL153:
 1730              		.loc 1 172 5 is_stmt 0 view .LVU440
 1731 0212 0368     		ldr	r3, [r0]
 1732 0214 9B68     		ldr	r3, [r3, #8]
 1733 0216 9847     		blx	r3
 1734              	.LVL154:
 1735              		.loc 1 171 9 is_stmt 1 view .LVU441
 1736              		.loc 1 171 10 is_stmt 0 view .LVU442
 1737 0218 15F8011F 		ldrb	r1, [r5, #1]!	@ zero_extendqisi2
 1738              	.LVL155:
 1739              		.loc 1 171 9 view .LVU443
 1740 021c 0029     		cmp	r1, #0
 1741 021e F7D1     		bne	.L110
 1742              	.LVL156:
 1743              		.loc 1 171 9 view .LVU444
 1744              	.LBE249:
 1745              	.LBE248:
 1746              		.loc 1 288 3 is_stmt 1 view .LVU445
 1747              		.loc 1 288 6 is_stmt 0 view .LVU446
 1748 0220 194B     		ldr	r3, .L145+44
 1749 0222 1B78     		ldrb	r3, [r3]	@ zero_extendqisi2
 1750 0224 93B1     		cbz	r3, .L111
 1751              		.loc 1 289 5 is_stmt 1 view .LVU447
 1752 0226 2648     		ldr	r0, .L145+100
 1753 0228 FFF7FEFF 		bl	test_println
 1754              	.LVL157:
 1755              		.loc 1 297 3 view .LVU448
 1756              		.loc 1 298 1 is_stmt 0 view .LVU449
 1757 022c 164B     		ldr	r3, .L145+44
 1758 022e 1878     		ldrb	r0, [r3]	@ zero_extendqisi2
 1759 0230 03B0     		add	sp, sp, #12
 1760              		.cfi_remember_state
 1761              		.cfi_def_cfa_offset 36
 1762              		@ sp needed
 1763 0232 BDE8F08F 		pop	{r4, r5, r6, r7, r8, r9, r10, fp, pc}
 1764              	.LVL158:
 1765              	.L113:
 1766              		.cfi_restore_state
 1767              		.loc 1 298 1 view .LVU450
 1768 0236 234D     		ldr	r5, .L145+104
 1769              	.LBB250:
 1770              	.LBB247:
 1771              	.LBB245:
 1772              	.LBB246:
 1773              		.loc 1 171 10 view .LVU451
 1774 0238 2D21     		movs	r1, #45
 1775              	.L97:
 1776              	.LVL159:
 1777              		.loc 1 172 5 is_stmt 1 view .LVU452
 1778 023a 2068     		ldr	r0, [r4]
 1779              	.LVL160:
 1780              		.loc 1 172 5 is_stmt 0 view .LVU453
ARM GAS  /tmp/ccugwmcB.s 			page 33


 1781 023c 0368     		ldr	r3, [r0]
 1782 023e 9B68     		ldr	r3, [r3, #8]
 1783 0240 9847     		blx	r3
 1784              	.LVL161:
 1785              		.loc 1 171 9 is_stmt 1 view .LVU454
 1786              		.loc 1 171 10 is_stmt 0 view .LVU455
 1787 0242 15F8011F 		ldrb	r1, [r5, #1]!	@ zero_extendqisi2
 1788              	.LVL162:
 1789              		.loc 1 171 9 view .LVU456
 1790 0246 0029     		cmp	r1, #0
 1791 0248 F7D1     		bne	.L97
 1792 024a C3E7     		b	.L144
 1793              	.LVL163:
 1794              	.L111:
 1795              		.loc 1 171 9 view .LVU457
 1796              	.LBE246:
 1797              	.LBE245:
 1798              	.LBE247:
 1799              	.LBE250:
 1800              		.loc 1 291 5 is_stmt 1 view .LVU458
 1801 024c 1E48     		ldr	r0, .L145+108
 1802 024e FFF7FEFF 		bl	test_println
 1803              	.LVL164:
 1804              		.loc 1 297 3 view .LVU459
 1805              		.loc 1 298 1 is_stmt 0 view .LVU460
 1806 0252 0D4B     		ldr	r3, .L145+44
 1807 0254 1878     		ldrb	r0, [r3]	@ zero_extendqisi2
 1808 0256 03B0     		add	sp, sp, #12
 1809              		.cfi_def_cfa_offset 36
 1810              		@ sp needed
 1811 0258 BDE8F08F 		pop	{r4, r5, r6, r7, r8, r9, r10, fp, pc}
 1812              	.L146:
 1813              		.align	2
 1814              	.L145:
 1815 025c 00000000 		.word	.LANCHOR0
 1816 0260 00000000 		.word	.LC1
 1817 0264 98000000 		.word	.LC12
 1818 0268 9C000000 		.word	.LC13
 1819 026c B8000000 		.word	.LC14
 1820 0270 BC000000 		.word	.LC15
 1821 0274 14000000 		.word	.LC2
 1822 0278 D4000000 		.word	.LC16
 1823 027c 28000000 		.word	.LC3
 1824 0280 00010000 		.word	.LC17
 1825 0284 00000000 		.word	test_suite
 1826 0288 00000000 		.word	.LANCHOR2
 1827 028c 00000000 		.word	.LANCHOR5
 1828 0290 00000000 		.word	.LC0
 1829 0294 3C000000 		.word	.LC4
 1830 0298 4C000000 		.word	.LC5
 1831 029c 00000000 		.word	.LANCHOR4
 1832 02a0 00000000 		.word	.LANCHOR1
 1833 02a4 50000000 		.word	.LC6
 1834 02a8 00000000 		.word	.LANCHOR6
 1835 02ac 68000000 		.word	.LC7
 1836 02b0 6C000000 		.word	.LC8
 1837 02b4 00000000 		.word	.LANCHOR3
ARM GAS  /tmp/ccugwmcB.s 			page 34


 1838 02b8 70000000 		.word	.LC9
 1839 02bc 88000000 		.word	.LC11
 1840 02c0 28010000 		.word	.LC18
 1841 02c4 74000000 		.word	.LC10
 1842 02c8 30010000 		.word	.LC19
 1843              		.cfi_endproc
 1844              	.LFE290:
 1845              		.size	test_execute, .-test_execute
 1846              		.global	test_global_fail
 1847              		.global	test_step
 1848              		.section	.bss.test_chp,"aw",%nobits
 1849              		.align	2
 1850              		.set	.LANCHOR0,. + 0
 1851              		.type	test_chp, %object
 1852              		.size	test_chp, 4
 1853              	test_chp:
 1854 0000 00000000 		.space	4
 1855              		.section	.bss.test_failure_message,"aw",%nobits
 1856              		.align	2
 1857              		.set	.LANCHOR3,. + 0
 1858              		.type	test_failure_message, %object
 1859              		.size	test_failure_message, 4
 1860              	test_failure_message:
 1861 0000 00000000 		.space	4
 1862              		.section	.bss.test_global_fail,"aw",%nobits
 1863              		.set	.LANCHOR2,. + 0
 1864              		.type	test_global_fail, %object
 1865              		.size	test_global_fail, 1
 1866              	test_global_fail:
 1867 0000 00       		.space	1
 1868              		.section	.bss.test_local_fail,"aw",%nobits
 1869              		.set	.LANCHOR1,. + 0
 1870              		.type	test_local_fail, %object
 1871              		.size	test_local_fail, 1
 1872              	test_local_fail:
 1873 0000 00       		.space	1
 1874              		.section	.bss.test_step,"aw",%nobits
 1875              		.align	2
 1876              		.set	.LANCHOR6,. + 0
 1877              		.type	test_step, %object
 1878              		.size	test_step, 4
 1879              	test_step:
 1880 0000 00000000 		.space	4
 1881              		.section	.bss.test_tokens_buffer,"aw",%nobits
 1882              		.align	2
 1883              		.set	.LANCHOR4,. + 0
 1884              		.type	test_tokens_buffer, %object
 1885              		.size	test_tokens_buffer, 16
 1886              	test_tokens_buffer:
 1887 0000 00000000 		.space	16
 1887      00000000 
 1887      00000000 
 1887      00000000 
 1888              		.section	.bss.test_tokp,"aw",%nobits
 1889              		.align	2
 1890              		.set	.LANCHOR5,. + 0
 1891              		.type	test_tokp, %object
ARM GAS  /tmp/ccugwmcB.s 			page 35


 1892              		.size	test_tokp, 4
 1893              	test_tokp:
 1894 0000 00000000 		.space	4
 1895              		.text
 1896              	.Letext0:
 1897              		.file 9 "/usr/lib/gcc/arm-none-eabi/10.3.1/include/stddef.h"
 1898              		.file 10 "/usr/lib/gcc/arm-none-eabi/10.3.1/include/stdint.h"
 1899              		.file 11 "../../../os/common/ports/ARMCMx/compilers/GCC/chtypes.h"
 1900              		.file 12 "../../../os/rt/include/chsystypes.h"
 1901              		.file 13 "../../../os/rt/include/chschd.h"
 1902              		.file 14 "../../../os/common/ports/ARMCMx/chcore.h"
 1903              		.file 15 "../../../os/hal/ports/STM32/LLD/TIMv1/stm32_tim.h"
 1904              		.file 16 "../../../os/rt/include/chsem.h"
 1905              		.file 17 "../../../os/rt/include/chmtx.h"
 1906              		.file 18 "../../../os/hal/include/hal_streams.h"
 1907              		.file 19 "../../../test/lib/ch_test.h"
 1908              		.file 20 "../../../test/rt/source/test/test_root.h"
 1909              		.file 21 "../../../os/rt/include/chthreads.h"