ARM GAS  /tmp/ccdzvlYC.s 			page 1


   1              		.cpu cortex-m4
   2              		.eabi_attribute 20, 1
   3              		.eabi_attribute 21, 1
   4              		.eabi_attribute 23, 3
   5              		.eabi_attribute 24, 1
   6              		.eabi_attribute 25, 1
   7              		.eabi_attribute 26, 1
   8              		.eabi_attribute 30, 2
   9              		.eabi_attribute 34, 1
  10              		.eabi_attribute 18, 4
  11              		.file	"chcond.c"
  12              		.text
  13              	.Ltext0:
  14              		.cfi_sections	.debug_frame
  15              		.section	.text.chCondObjectInit,"ax",%progbits
  16              		.align	1
  17              		.p2align 4,,15
  18              		.global	chCondObjectInit
  19              		.arch armv7e-m
  20              		.syntax unified
  21              		.thumb
  22              		.thumb_func
  23              		.fpu softvfp
  24              		.type	chCondObjectInit, %function
  25              	chCondObjectInit:
  26              	.LVL0:
  27              	.LFB246:
  28              		.file 1 "../../../os/rt/src/chcond.c"
  29              		.loc 1 75 49 view -0
  30              		.cfi_startproc
  31              		@ args = 0, pretend = 0, frame = 0
  32              		@ frame_needed = 0, uses_anonymous_args = 0
  33              		@ link register save eliminated.
  34              		.loc 1 77 3 view .LVU1
  35              		.loc 1 77 3 view .LVU2
  36              		.loc 1 77 3 view .LVU3
  37              		.loc 1 79 3 view .LVU4
  38              	.LBB79:
  39              	.LBI79:
  40              		.file 2 "../../../os/rt/include/chschd.h"
  41              		.loc 2 548 20 view .LVU5
  42              	.LBB80:
  43              		.loc 2 550 3 view .LVU6
  44              		.loc 2 551 13 is_stmt 0 view .LVU7
  45 0000 C0E90000 		strd	r0, r0, [r0]
  46              	.LVL1:
  47              		.loc 2 551 13 view .LVU8
  48              	.LBE80:
  49              	.LBE79:
  50              		.loc 1 80 1 view .LVU9
  51 0004 7047     		bx	lr
  52              		.cfi_endproc
  53              	.LFE246:
  54              		.size	chCondObjectInit, .-chCondObjectInit
  55 0006 00BF     		.section	.text.chCondSignal,"ax",%progbits
  56              		.align	1
  57              		.p2align 4,,15
ARM GAS  /tmp/ccdzvlYC.s 			page 2


  58              		.global	chCondSignal
  59              		.syntax unified
  60              		.thumb
  61              		.thumb_func
  62              		.fpu softvfp
  63              		.type	chCondSignal, %function
  64              	chCondSignal:
  65              	.LVL2:
  66              	.LFB247:
  67              		.loc 1 89 45 is_stmt 1 view -0
  68              		.cfi_startproc
  69              		@ args = 0, pretend = 0, frame = 0
  70              		@ frame_needed = 0, uses_anonymous_args = 0
  71              		.loc 1 91 3 view .LVU11
  72              		.loc 1 91 3 view .LVU12
  73              		.loc 1 91 3 view .LVU13
  74              		.loc 1 93 3 view .LVU14
  75              	.LBB81:
  76              	.LBI81:
  77              		.file 3 "../../../os/rt/include/chsys.h"
  78              		.loc 3 374 20 view .LVU15
  79              	.LBE81:
  80              		.loc 3 376 3 view .LVU16
  81              	.LBB92:
  82              	.LBB82:
  83              	.LBI82:
  84              		.file 4 "../../../os/common/ports/ARMCMx/chcore_v7m.h"
  85              		.loc 4 594 20 view .LVU17
  86              	.LBE82:
  87              	.LBE92:
  88              		.loc 4 602 3 view .LVU18
  89              	.LBB93:
  90              	.LBB89:
  91              	.LBB83:
  92              	.LBI83:
  93              		.file 5 "../../../os/common/ext/CMSIS/include/cmsis_gcc.h"
  94              		.loc 5 262 57 view .LVU19
  95              	.LBB84:
  96              		.loc 5 264 3 view .LVU20
  97              	.LBE84:
  98              	.LBE83:
  99              	.LBE89:
 100              	.LBE93:
 101              		.loc 1 89 45 is_stmt 0 view .LVU21
 102 0000 08B5     		push	{r3, lr}
 103              		.cfi_def_cfa_offset 8
 104              		.cfi_offset 3, -8
 105              		.cfi_offset 14, -4
 106              	.LBB94:
 107              	.LBB90:
 108              	.LBB87:
 109              	.LBB85:
 110              		.loc 5 264 3 view .LVU22
 111 0002 2022     		movs	r2, #32
 112              	.LBE85:
 113              	.LBE87:
 114              	.LBE90:
ARM GAS  /tmp/ccdzvlYC.s 			page 3


 115              	.LBE94:
 116              		.loc 1 89 45 view .LVU23
 117 0004 0346     		mov	r3, r0
 118              	.LBB95:
 119              	.LBB91:
 120              	.LBB88:
 121              	.LBB86:
 122              		.loc 5 264 3 view .LVU24
 123              		.syntax unified
 124              	@ 264 "../../../os/common/ext/CMSIS/include/cmsis_gcc.h" 1
 125 0006 82F31188 		MSR basepri, r2
 126              	@ 0 "" 2
 127              	.LVL3:
 128              		.loc 5 264 3 view .LVU25
 129              		.thumb
 130              		.syntax unified
 131              	.LBE86:
 132              	.LBE88:
 133              	.LBE91:
 134              	.LBE95:
 135              		.loc 3 377 34 is_stmt 1 view .LVU26
 136              		.loc 3 378 20 view .LVU27
 137              		.loc 1 94 3 view .LVU28
 138              	.LBB96:
 139              	.LBI96:
 140              		.loc 2 575 20 view .LVU29
 141              	.LBB97:
 142              		.loc 2 577 3 view .LVU30
 143              		.loc 2 577 20 is_stmt 0 view .LVU31
 144 000a 0068     		ldr	r0, [r0]
 145              	.LVL4:
 146              		.loc 2 577 20 view .LVU32
 147              	.LBE97:
 148              	.LBE96:
 149              		.loc 1 94 6 view .LVU33
 150 000c 8342     		cmp	r3, r0
 151 000e 05D0     		beq	.L4
 152              		.loc 1 95 5 is_stmt 1 view .LVU34
 153              	.LVL5:
 154              	.LBB98:
 155              	.LBI98:
 156              		.loc 2 617 25 view .LVU35
 157              	.LBB99:
 158              		.loc 2 618 3 view .LVU36
 159              		.loc 2 620 3 view .LVU37
 160              		.loc 2 620 36 is_stmt 0 view .LVU38
 161 0010 0268     		ldr	r2, [r0]
 162              		.loc 2 620 25 view .LVU39
 163 0012 1A60     		str	r2, [r3]
 164              		.loc 2 621 3 is_stmt 1 view .LVU40
 165              	.LBE99:
 166              	.LBE98:
 167              		.loc 1 95 5 is_stmt 0 view .LVU41
 168 0014 0021     		movs	r1, #0
 169              	.LBB101:
 170              	.LBB100:
 171              		.loc 2 621 25 view .LVU42
ARM GAS  /tmp/ccdzvlYC.s 			page 4


 172 0016 5360     		str	r3, [r2, #4]
 173              		.loc 2 623 3 is_stmt 1 view .LVU43
 174              	.LVL6:
 175              		.loc 2 623 3 is_stmt 0 view .LVU44
 176              	.LBE100:
 177              	.LBE101:
 178              		.loc 1 95 5 view .LVU45
 179 0018 FFF7FEFF 		bl	chSchWakeupS
 180              	.LVL7:
 181              	.L4:
 182              		.loc 1 97 3 is_stmt 1 view .LVU46
 183              	.LBB102:
 184              	.LBI102:
 185              		.loc 3 386 20 view .LVU47
 186              	.LBB103:
 187              		.loc 3 388 22 view .LVU48
 188              		.loc 3 389 33 view .LVU49
 189              		.loc 3 395 3 view .LVU50
 190              		.loc 3 395 3 view .LVU51
 191              		.loc 3 395 3 view .LVU52
 192              		.loc 3 399 3 view .LVU53
 193              	.LBB104:
 194              	.LBI104:
 195              		.loc 4 618 20 view .LVU54
 196              	.LBE104:
 197              	.LBE103:
 198              	.LBE102:
 199              		.loc 4 621 3 view .LVU55
 200              	.LBB109:
 201              	.LBB108:
 202              	.LBB107:
 203              	.LBB105:
 204              	.LBI105:
 205              		.loc 5 262 57 view .LVU56
 206              	.LBB106:
 207              		.loc 5 264 3 view .LVU57
 208 001c 0023     		movs	r3, #0
 209              		.syntax unified
 210              	@ 264 "../../../os/common/ext/CMSIS/include/cmsis_gcc.h" 1
 211 001e 83F31188 		MSR basepri, r3
 212              	@ 0 "" 2
 213              	.LVL8:
 214              		.loc 5 264 3 is_stmt 0 view .LVU58
 215              		.thumb
 216              		.syntax unified
 217              	.LBE106:
 218              	.LBE105:
 219              	.LBE107:
 220              	.LBE108:
 221              	.LBE109:
 222              		.loc 1 98 1 view .LVU59
 223 0022 08BD     		pop	{r3, pc}
 224              		.cfi_endproc
 225              	.LFE247:
 226              		.size	chCondSignal, .-chCondSignal
 227              		.section	.text.chCondSignalI,"ax",%progbits
 228              		.align	1
ARM GAS  /tmp/ccdzvlYC.s 			page 5


 229              		.p2align 4,,15
 230              		.global	chCondSignalI
 231              		.syntax unified
 232              		.thumb
 233              		.thumb_func
 234              		.fpu softvfp
 235              		.type	chCondSignalI, %function
 236              	chCondSignalI:
 237              	.LVL9:
 238              	.LFB248:
 239              		.loc 1 111 46 is_stmt 1 view -0
 240              		.cfi_startproc
 241              		@ args = 0, pretend = 0, frame = 0
 242              		@ frame_needed = 0, uses_anonymous_args = 0
 243              		@ link register save eliminated.
 244              		.loc 1 113 21 view .LVU61
 245              		.loc 1 114 3 view .LVU62
 246              		.loc 1 114 3 view .LVU63
 247              		.loc 1 114 3 view .LVU64
 248              		.loc 1 116 3 view .LVU65
 249              		.loc 1 111 46 is_stmt 0 view .LVU66
 250 0000 0346     		mov	r3, r0
 251              	.LVL10:
 252              	.LBB110:
 253              	.LBI110:
 254              		.loc 2 575 20 is_stmt 1 view .LVU67
 255              	.LBB111:
 256              		.loc 2 577 3 view .LVU68
 257              		.loc 2 577 20 is_stmt 0 view .LVU69
 258 0002 0068     		ldr	r0, [r0]
 259              	.LVL11:
 260              		.loc 2 577 20 view .LVU70
 261              	.LBE111:
 262              	.LBE110:
 263              		.loc 1 116 6 view .LVU71
 264 0004 8342     		cmp	r3, r0
 265 0006 06D0     		beq	.L6
 266              	.LBB112:
 267              		.loc 1 117 5 is_stmt 1 view .LVU72
 268              	.LVL12:
 269              	.LBB113:
 270              	.LBI113:
 271              		.loc 2 617 25 view .LVU73
 272              	.LBB114:
 273              		.loc 2 618 3 view .LVU74
 274              		.loc 2 620 3 view .LVU75
 275              		.loc 2 620 36 is_stmt 0 view .LVU76
 276 0008 0268     		ldr	r2, [r0]
 277              		.loc 2 620 25 view .LVU77
 278 000a 1A60     		str	r2, [r3]
 279              		.loc 2 621 3 is_stmt 1 view .LVU78
 280              	.LBE114:
 281              	.LBE113:
 282              		.loc 1 118 18 is_stmt 0 view .LVU79
 283 000c 0021     		movs	r1, #0
 284              	.LBB116:
 285              	.LBB115:
ARM GAS  /tmp/ccdzvlYC.s 			page 6


 286              		.loc 2 621 25 view .LVU80
 287 000e 5360     		str	r3, [r2, #4]
 288              		.loc 2 623 3 is_stmt 1 view .LVU81
 289              	.LVL13:
 290              		.loc 2 623 3 is_stmt 0 view .LVU82
 291              	.LBE115:
 292              	.LBE116:
 293              		.loc 1 118 5 is_stmt 1 view .LVU83
 294              		.loc 1 118 18 is_stmt 0 view .LVU84
 295 0010 4162     		str	r1, [r0, #36]
 296              		.loc 1 119 5 is_stmt 1 view .LVU85
 297              		.loc 1 119 12 is_stmt 0 view .LVU86
 298 0012 FFF7FEBF 		b	chSchReadyI
 299              	.LVL14:
 300              	.L6:
 301              		.loc 1 119 12 view .LVU87
 302              	.LBE112:
 303              		.loc 1 121 1 view .LVU88
 304 0016 7047     		bx	lr
 305              		.cfi_endproc
 306              	.LFE248:
 307              		.size	chCondSignalI, .-chCondSignalI
 308              		.section	.text.chCondBroadcast,"ax",%progbits
 309              		.align	1
 310              		.p2align 4,,15
 311              		.global	chCondBroadcast
 312              		.syntax unified
 313              		.thumb
 314              		.thumb_func
 315              		.fpu softvfp
 316              		.type	chCondBroadcast, %function
 317              	chCondBroadcast:
 318              	.LVL15:
 319              	.LFB249:
 320              		.loc 1 130 48 is_stmt 1 view -0
 321              		.cfi_startproc
 322              		@ args = 0, pretend = 0, frame = 0
 323              		@ frame_needed = 0, uses_anonymous_args = 0
 324              		.loc 1 132 3 view .LVU90
 325              	.LBB132:
 326              	.LBI132:
 327              		.loc 3 374 20 view .LVU91
 328              	.LBE132:
 329              		.loc 3 376 3 view .LVU92
 330              	.LBB140:
 331              	.LBB133:
 332              	.LBI133:
 333              		.loc 4 594 20 view .LVU93
 334              	.LBE133:
 335              	.LBE140:
 336              		.loc 4 602 3 view .LVU94
 337              	.LBB141:
 338              	.LBB138:
 339              	.LBB134:
 340              	.LBI134:
 341              		.loc 5 262 57 view .LVU95
 342              	.LBB135:
ARM GAS  /tmp/ccdzvlYC.s 			page 7


 343              		.loc 5 264 3 view .LVU96
 344              	.LBE135:
 345              	.LBE134:
 346              	.LBE138:
 347              	.LBE141:
 348              		.loc 1 130 48 is_stmt 0 view .LVU97
 349 0000 38B5     		push	{r3, r4, r5, lr}
 350              		.cfi_def_cfa_offset 16
 351              		.cfi_offset 3, -16
 352              		.cfi_offset 4, -12
 353              		.cfi_offset 5, -8
 354              		.cfi_offset 14, -4
 355              	.LBB142:
 356              	.LBB139:
 357              	.LBB137:
 358              	.LBB136:
 359              		.loc 5 264 3 view .LVU98
 360 0002 2023     		movs	r3, #32
 361              		.syntax unified
 362              	@ 264 "../../../os/common/ext/CMSIS/include/cmsis_gcc.h" 1
 363 0004 83F31188 		MSR basepri, r3
 364              	@ 0 "" 2
 365              	.LVL16:
 366              		.loc 5 264 3 view .LVU99
 367              		.thumb
 368              		.syntax unified
 369              	.LBE136:
 370              	.LBE137:
 371              	.LBE139:
 372              	.LBE142:
 373              		.loc 3 377 34 is_stmt 1 view .LVU100
 374              		.loc 3 378 20 view .LVU101
 375              		.loc 1 133 3 view .LVU102
 376              	.LBB143:
 377              	.LBI143:
 378              		.loc 1 149 6 view .LVU103
 379              	.LBB144:
 380              		.loc 1 151 21 view .LVU104
 381              		.loc 1 152 3 view .LVU105
 382              		.loc 1 152 3 view .LVU106
 383              		.loc 1 152 3 view .LVU107
 384              		.loc 1 157 3 view .LVU108
 385              		.loc 1 157 9 view .LVU109
 386              	.LBB145:
 387              	.LBI145:
 388              		.loc 2 575 20 view .LVU110
 389              	.LBB146:
 390              		.loc 2 577 3 view .LVU111
 391              		.loc 2 577 20 is_stmt 0 view .LVU112
 392 0008 0368     		ldr	r3, [r0]
 393              	.LVL17:
 394              		.loc 2 577 20 view .LVU113
 395              	.LBE146:
 396              	.LBE145:
 397              		.loc 1 157 9 view .LVU114
 398 000a 9842     		cmp	r0, r3
 399 000c 0CD0     		beq	.L9
ARM GAS  /tmp/ccdzvlYC.s 			page 8


 400 000e 0446     		mov	r4, r0
 401              		.loc 1 158 58 view .LVU115
 402 0010 6FF00105 		mvn	r5, #1
 403              	.LVL18:
 404              	.L10:
 405              		.loc 1 158 5 is_stmt 1 view .LVU116
 406              	.LBB149:
 407              	.LBI149:
 408              		.loc 2 617 25 view .LVU117
 409              	.LBB150:
 410              		.loc 2 618 3 view .LVU118
 411              		.loc 2 620 3 view .LVU119
 412              		.loc 2 620 36 is_stmt 0 view .LVU120
 413 0014 1A68     		ldr	r2, [r3]
 414              		.loc 2 620 25 view .LVU121
 415 0016 2260     		str	r2, [r4]
 416              		.loc 2 621 3 is_stmt 1 view .LVU122
 417              	.LBE150:
 418              	.LBE149:
 419              		.loc 1 158 5 is_stmt 0 view .LVU123
 420 0018 1846     		mov	r0, r3
 421              	.LBB152:
 422              	.LBB151:
 423              		.loc 2 621 25 view .LVU124
 424 001a 5460     		str	r4, [r2, #4]
 425              		.loc 2 623 3 is_stmt 1 view .LVU125
 426              	.LVL19:
 427              		.loc 2 623 3 is_stmt 0 view .LVU126
 428              	.LBE151:
 429              	.LBE152:
 430              		.loc 1 158 5 view .LVU127
 431 001c FFF7FEFF 		bl	chSchReadyI
 432              	.LVL20:
 433              	.LBB153:
 434              	.LBB147:
 435              		.loc 2 577 20 view .LVU128
 436 0020 2368     		ldr	r3, [r4]
 437              	.LBE147:
 438              	.LBE153:
 439              		.loc 1 158 58 view .LVU129
 440 0022 4562     		str	r5, [r0, #36]
 441              		.loc 1 157 9 is_stmt 1 view .LVU130
 442              	.LVL21:
 443              	.LBB154:
 444              		.loc 2 575 20 view .LVU131
 445              	.LBB148:
 446              		.loc 2 577 3 view .LVU132
 447              		.loc 2 577 3 is_stmt 0 view .LVU133
 448              	.LBE148:
 449              	.LBE154:
 450              		.loc 1 157 9 view .LVU134
 451 0024 A342     		cmp	r3, r4
 452 0026 F5D1     		bne	.L10
 453              	.LVL22:
 454              	.L9:
 455              		.loc 1 157 9 view .LVU135
 456              	.LBE144:
ARM GAS  /tmp/ccdzvlYC.s 			page 9


 457              	.LBE143:
 458              		.loc 1 134 3 is_stmt 1 view .LVU136
 459 0028 FFF7FEFF 		bl	chSchRescheduleS
 460              	.LVL23:
 461              		.loc 1 135 3 view .LVU137
 462              	.LBB155:
 463              	.LBI155:
 464              		.loc 3 386 20 view .LVU138
 465              	.LBB156:
 466              		.loc 3 388 22 view .LVU139
 467              		.loc 3 389 33 view .LVU140
 468              		.loc 3 395 3 view .LVU141
 469              		.loc 3 395 3 view .LVU142
 470              		.loc 3 395 3 view .LVU143
 471              		.loc 3 399 3 view .LVU144
 472              	.LBB157:
 473              	.LBI157:
 474              		.loc 4 618 20 view .LVU145
 475              	.LBE157:
 476              	.LBE156:
 477              	.LBE155:
 478              		.loc 4 621 3 view .LVU146
 479              	.LBB162:
 480              	.LBB161:
 481              	.LBB160:
 482              	.LBB158:
 483              	.LBI158:
 484              		.loc 5 262 57 view .LVU147
 485              	.LBB159:
 486              		.loc 5 264 3 view .LVU148
 487 002c 0023     		movs	r3, #0
 488              		.syntax unified
 489              	@ 264 "../../../os/common/ext/CMSIS/include/cmsis_gcc.h" 1
 490 002e 83F31188 		MSR basepri, r3
 491              	@ 0 "" 2
 492              	.LVL24:
 493              		.loc 5 264 3 is_stmt 0 view .LVU149
 494              		.thumb
 495              		.syntax unified
 496              	.LBE159:
 497              	.LBE158:
 498              	.LBE160:
 499              	.LBE161:
 500              	.LBE162:
 501              		.loc 1 136 1 view .LVU150
 502 0032 38BD     		pop	{r3, r4, r5, pc}
 503              		.cfi_endproc
 504              	.LFE249:
 505              		.size	chCondBroadcast, .-chCondBroadcast
 506              		.section	.text.chCondBroadcastI,"ax",%progbits
 507              		.align	1
 508              		.p2align 4,,15
 509              		.global	chCondBroadcastI
 510              		.syntax unified
 511              		.thumb
 512              		.thumb_func
 513              		.fpu softvfp
ARM GAS  /tmp/ccdzvlYC.s 			page 10


 514              		.type	chCondBroadcastI, %function
 515              	chCondBroadcastI:
 516              	.LVL25:
 517              	.LFB250:
 518              		.loc 1 149 49 is_stmt 1 view -0
 519              		.cfi_startproc
 520              		@ args = 0, pretend = 0, frame = 0
 521              		@ frame_needed = 0, uses_anonymous_args = 0
 522              		.loc 1 151 21 view .LVU152
 523              		.loc 1 152 3 view .LVU153
 524              		.loc 1 152 3 view .LVU154
 525              		.loc 1 152 3 view .LVU155
 526              		.loc 1 157 3 view .LVU156
 527              		.loc 1 157 9 view .LVU157
 528              	.LBB163:
 529              	.LBI163:
 530              		.loc 2 575 20 view .LVU158
 531              	.LBB164:
 532              		.loc 2 577 3 view .LVU159
 533              	.LBE164:
 534              	.LBE163:
 535              		.loc 1 149 49 is_stmt 0 view .LVU160
 536 0000 38B5     		push	{r3, r4, r5, lr}
 537              		.cfi_def_cfa_offset 16
 538              		.cfi_offset 3, -16
 539              		.cfi_offset 4, -12
 540              		.cfi_offset 5, -8
 541              		.cfi_offset 14, -4
 542              	.LBB168:
 543              	.LBB165:
 544              		.loc 2 577 20 view .LVU161
 545 0002 0368     		ldr	r3, [r0]
 546              	.LVL26:
 547              		.loc 2 577 20 view .LVU162
 548              	.LBE165:
 549              	.LBE168:
 550              		.loc 1 157 9 view .LVU163
 551 0004 8342     		cmp	r3, r0
 552 0006 0CD0     		beq	.L13
 553 0008 0446     		mov	r4, r0
 554              		.loc 1 158 58 view .LVU164
 555 000a 6FF00105 		mvn	r5, #1
 556              	.LVL27:
 557              	.L15:
 558              		.loc 1 158 5 is_stmt 1 view .LVU165
 559              	.LBB169:
 560              	.LBI169:
 561              		.loc 2 617 25 view .LVU166
 562              	.LBB170:
 563              		.loc 2 618 3 view .LVU167
 564              		.loc 2 620 3 view .LVU168
 565              		.loc 2 620 36 is_stmt 0 view .LVU169
 566 000e 1A68     		ldr	r2, [r3]
 567              		.loc 2 620 25 view .LVU170
 568 0010 2260     		str	r2, [r4]
 569              		.loc 2 621 3 is_stmt 1 view .LVU171
 570              	.LBE170:
ARM GAS  /tmp/ccdzvlYC.s 			page 11


 571              	.LBE169:
 572              		.loc 1 158 5 is_stmt 0 view .LVU172
 573 0012 1846     		mov	r0, r3
 574              	.LBB172:
 575              	.LBB171:
 576              		.loc 2 621 25 view .LVU173
 577 0014 5460     		str	r4, [r2, #4]
 578              		.loc 2 623 3 is_stmt 1 view .LVU174
 579              	.LVL28:
 580              		.loc 2 623 3 is_stmt 0 view .LVU175
 581              	.LBE171:
 582              	.LBE172:
 583              		.loc 1 158 5 view .LVU176
 584 0016 FFF7FEFF 		bl	chSchReadyI
 585              	.LVL29:
 586              	.LBB173:
 587              	.LBB166:
 588              		.loc 2 577 20 view .LVU177
 589 001a 2368     		ldr	r3, [r4]
 590              	.LBE166:
 591              	.LBE173:
 592              		.loc 1 158 58 view .LVU178
 593 001c 4562     		str	r5, [r0, #36]
 594              		.loc 1 157 9 is_stmt 1 view .LVU179
 595              	.LVL30:
 596              	.LBB174:
 597              		.loc 2 575 20 view .LVU180
 598              	.LBB167:
 599              		.loc 2 577 3 view .LVU181
 600              		.loc 2 577 3 is_stmt 0 view .LVU182
 601              	.LBE167:
 602              	.LBE174:
 603              		.loc 1 157 9 view .LVU183
 604 001e A342     		cmp	r3, r4
 605 0020 F5D1     		bne	.L15
 606              	.LVL31:
 607              	.L13:
 608              		.loc 1 160 1 view .LVU184
 609 0022 38BD     		pop	{r3, r4, r5, pc}
 610              		.cfi_endproc
 611              	.LFE250:
 612              		.size	chCondBroadcastI, .-chCondBroadcastI
 613              		.section	.text.chCondWaitS,"ax",%progbits
 614              		.align	1
 615              		.p2align 4,,15
 616              		.global	chCondWaitS
 617              		.syntax unified
 618              		.thumb
 619              		.thumb_func
 620              		.fpu softvfp
 621              		.type	chCondWaitS, %function
 622              	chCondWaitS:
 623              	.LVL32:
 624              	.LFB252:
 625              		.loc 1 205 45 is_stmt 1 view -0
 626              		.cfi_startproc
 627              		@ args = 0, pretend = 0, frame = 0
ARM GAS  /tmp/ccdzvlYC.s 			page 12


 628              		@ frame_needed = 0, uses_anonymous_args = 0
 629              		.loc 1 206 3 view .LVU186
 630              		.loc 1 206 13 is_stmt 0 view .LVU187
 631 0000 0F4B     		ldr	r3, .L24
 632              		.loc 1 205 45 view .LVU188
 633 0002 70B5     		push	{r4, r5, r6, lr}
 634              		.cfi_def_cfa_offset 16
 635              		.cfi_offset 4, -16
 636              		.cfi_offset 5, -12
 637              		.cfi_offset 6, -8
 638              		.cfi_offset 14, -4
 639              		.loc 1 206 13 view .LVU189
 640 0004 9C69     		ldr	r4, [r3, #24]
 641              	.LVL33:
 642              		.loc 1 207 3 is_stmt 1 view .LVU190
 643              		.loc 1 208 3 view .LVU191
 644              		.loc 1 210 21 view .LVU192
 645              		.loc 1 211 3 view .LVU193
 646              		.loc 1 211 3 view .LVU194
 647              		.loc 1 211 3 view .LVU195
 648              		.loc 1 212 3 view .LVU196
 649              		.loc 1 212 3 view .LVU197
 650              		.loc 1 212 3 view .LVU198
 651              		.loc 1 215 3 view .LVU199
 652              	.LBB179:
 653              	.LBI179:
 654              		.file 6 "../../../os/rt/include/chmtx.h"
 655              		.loc 6 144 24 view .LVU200
 656              	.LBB180:
 657              		.loc 6 146 3 view .LVU201
 658              	.LBE180:
 659              	.LBE179:
 660              		.file 7 "../../../os/rt/include/chthreads.h"
 661              		.loc 7 286 3 view .LVU202
 662              	.LBB182:
 663              	.LBB181:
 664              		.loc 6 146 25 is_stmt 0 view .LVU203
 665 0006 A66B     		ldr	r6, [r4, #56]
 666              	.LVL34:
 667              		.loc 6 146 25 view .LVU204
 668              	.LBE181:
 669              	.LBE182:
 670              		.loc 1 216 3 is_stmt 1 view .LVU205
 671              		.loc 1 205 45 is_stmt 0 view .LVU206
 672 0008 0546     		mov	r5, r0
 673              		.loc 1 216 3 view .LVU207
 674 000a 3046     		mov	r0, r6
 675              	.LVL35:
 676              		.loc 1 216 3 view .LVU208
 677 000c FFF7FEFF 		bl	chMtxUnlockS
 678              	.LVL36:
 679              		.loc 1 220 3 is_stmt 1 view .LVU209
 680              		.loc 1 220 17 is_stmt 0 view .LVU210
 681 0010 6562     		str	r5, [r4, #36]
 682              		.loc 1 221 3 is_stmt 1 view .LVU211
 683              	.LVL37:
 684              	.LBB183:
ARM GAS  /tmp/ccdzvlYC.s 			page 13


 685              	.LBI183:
 686              		.loc 2 597 20 view .LVU212
 687              	.LBB184:
 688              		.loc 2 599 3 view .LVU213
 689              		.loc 2 599 13 is_stmt 0 view .LVU214
 690 0012 2B46     		mov	r3, r5
 691 0014 03E0     		b	.L20
 692              	.LVL38:
 693              	.L23:
 694              		.loc 2 602 36 view .LVU215
 695 0016 9968     		ldr	r1, [r3, #8]
 696 0018 A268     		ldr	r2, [r4, #8]
 697 001a 9142     		cmp	r1, r2
 698 001c 02D3     		bcc	.L19
 699              	.L20:
 700              		.loc 2 600 3 is_stmt 1 view .LVU216
 701              		.loc 2 601 5 view .LVU217
 702              		.loc 2 601 8 is_stmt 0 view .LVU218
 703 001e 1B68     		ldr	r3, [r3]
 704              	.LVL39:
 705              		.loc 2 602 11 is_stmt 1 view .LVU219
 706              		.loc 2 602 3 is_stmt 0 view .LVU220
 707 0020 9D42     		cmp	r5, r3
 708 0022 F8D1     		bne	.L23
 709              	.L19:
 710              		.loc 2 603 3 is_stmt 1 view .LVU221
 711              		.loc 2 604 41 is_stmt 0 view .LVU222
 712 0024 5A68     		ldr	r2, [r3, #4]
 713              	.LBE184:
 714              	.LBE183:
 715              		.loc 1 222 3 view .LVU223
 716 0026 0720     		movs	r0, #7
 717              	.LBB186:
 718              	.LBB185:
 719              		.loc 2 604 30 view .LVU224
 720 0028 C4E90032 		strd	r3, r2, [r4]
 721              		.loc 2 605 3 is_stmt 1 view .LVU225
 722              		.loc 2 605 30 is_stmt 0 view .LVU226
 723 002c 1460     		str	r4, [r2]
 724              		.loc 2 606 3 is_stmt 1 view .LVU227
 725              		.loc 2 606 30 is_stmt 0 view .LVU228
 726 002e 5C60     		str	r4, [r3, #4]
 727              	.LVL40:
 728              		.loc 2 606 30 view .LVU229
 729              	.LBE185:
 730              	.LBE186:
 731              		.loc 1 222 3 is_stmt 1 view .LVU230
 732 0030 FFF7FEFF 		bl	chSchGoSleepS
 733              	.LVL41:
 734              		.loc 1 223 3 view .LVU231
 735              		.loc 1 223 7 is_stmt 0 view .LVU232
 736 0034 646A     		ldr	r4, [r4, #36]
 737              	.LVL42:
 738              		.loc 1 224 3 is_stmt 1 view .LVU233
 739 0036 3046     		mov	r0, r6
 740 0038 FFF7FEFF 		bl	chMtxLockS
 741              	.LVL43:
ARM GAS  /tmp/ccdzvlYC.s 			page 14


 742              		.loc 1 226 3 view .LVU234
 743              		.loc 1 227 1 is_stmt 0 view .LVU235
 744 003c 2046     		mov	r0, r4
 745 003e 70BD     		pop	{r4, r5, r6, pc}
 746              	.LVL44:
 747              	.L25:
 748              		.loc 1 227 1 view .LVU236
 749              		.align	2
 750              	.L24:
 751 0040 00000000 		.word	ch
 752              		.cfi_endproc
 753              	.LFE252:
 754              		.size	chCondWaitS, .-chCondWaitS
 755              		.section	.text.chCondWait,"ax",%progbits
 756              		.align	1
 757              		.p2align 4,,15
 758              		.global	chCondWait
 759              		.syntax unified
 760              		.thumb
 761              		.thumb_func
 762              		.fpu softvfp
 763              		.type	chCondWait, %function
 764              	chCondWait:
 765              	.LVL45:
 766              	.LFB251:
 767              		.loc 1 179 44 is_stmt 1 view -0
 768              		.cfi_startproc
 769              		@ args = 0, pretend = 0, frame = 0
 770              		@ frame_needed = 0, uses_anonymous_args = 0
 771              		.loc 1 180 3 view .LVU238
 772              		.loc 1 182 3 view .LVU239
 773              	.LBB187:
 774              	.LBI187:
 775              		.loc 3 374 20 view .LVU240
 776              	.LBE187:
 777              		.loc 3 376 3 view .LVU241
 778              	.LBB195:
 779              	.LBB188:
 780              	.LBI188:
 781              		.loc 4 594 20 view .LVU242
 782              	.LBE188:
 783              	.LBE195:
 784              		.loc 4 602 3 view .LVU243
 785              	.LBB196:
 786              	.LBB193:
 787              	.LBB189:
 788              	.LBI189:
 789              		.loc 5 262 57 view .LVU244
 790              	.LBB190:
 791              		.loc 5 264 3 view .LVU245
 792              	.LBE190:
 793              	.LBE189:
 794              	.LBE193:
 795              	.LBE196:
 796              		.loc 1 179 44 is_stmt 0 view .LVU246
 797 0000 08B5     		push	{r3, lr}
 798              		.cfi_def_cfa_offset 8
ARM GAS  /tmp/ccdzvlYC.s 			page 15


 799              		.cfi_offset 3, -8
 800              		.cfi_offset 14, -4
 801              	.LBB197:
 802              	.LBB194:
 803              	.LBB192:
 804              	.LBB191:
 805              		.loc 5 264 3 view .LVU247
 806 0002 2023     		movs	r3, #32
 807              		.syntax unified
 808              	@ 264 "../../../os/common/ext/CMSIS/include/cmsis_gcc.h" 1
 809 0004 83F31188 		MSR basepri, r3
 810              	@ 0 "" 2
 811              	.LVL46:
 812              		.loc 5 264 3 view .LVU248
 813              		.thumb
 814              		.syntax unified
 815              	.LBE191:
 816              	.LBE192:
 817              	.LBE194:
 818              	.LBE197:
 819              		.loc 3 377 34 is_stmt 1 view .LVU249
 820              		.loc 3 378 20 view .LVU250
 821              		.loc 1 183 3 view .LVU251
 822              		.loc 1 183 9 is_stmt 0 view .LVU252
 823 0008 FFF7FEFF 		bl	chCondWaitS
 824              	.LVL47:
 825              		.loc 1 184 3 is_stmt 1 view .LVU253
 826              	.LBB198:
 827              	.LBI198:
 828              		.loc 3 386 20 view .LVU254
 829              	.LBB199:
 830              		.loc 3 388 22 view .LVU255
 831              		.loc 3 389 33 view .LVU256
 832              		.loc 3 395 3 view .LVU257
 833              		.loc 3 395 3 view .LVU258
 834              		.loc 3 395 3 view .LVU259
 835              		.loc 3 399 3 view .LVU260
 836              	.LBB200:
 837              	.LBI200:
 838              		.loc 4 618 20 view .LVU261
 839              	.LBE200:
 840              	.LBE199:
 841              	.LBE198:
 842              		.loc 4 621 3 view .LVU262
 843              	.LBB205:
 844              	.LBB204:
 845              	.LBB203:
 846              	.LBB201:
 847              	.LBI201:
 848              		.loc 5 262 57 view .LVU263
 849              	.LBB202:
 850              		.loc 5 264 3 view .LVU264
 851 000c 0023     		movs	r3, #0
 852              		.syntax unified
 853              	@ 264 "../../../os/common/ext/CMSIS/include/cmsis_gcc.h" 1
 854 000e 83F31188 		MSR basepri, r3
 855              	@ 0 "" 2
ARM GAS  /tmp/ccdzvlYC.s 			page 16


 856              	.LVL48:
 857              		.loc 5 264 3 is_stmt 0 view .LVU265
 858              		.thumb
 859              		.syntax unified
 860              	.LBE202:
 861              	.LBE201:
 862              	.LBE203:
 863              	.LBE204:
 864              	.LBE205:
 865              		.loc 1 185 3 is_stmt 1 view .LVU266
 866              		.loc 1 186 1 is_stmt 0 view .LVU267
 867 0012 08BD     		pop	{r3, pc}
 868              		.cfi_endproc
 869              	.LFE251:
 870              		.size	chCondWait, .-chCondWait
 871              		.section	.text.chCondWaitTimeoutS,"ax",%progbits
 872              		.align	1
 873              		.p2align 4,,15
 874              		.global	chCondWaitTimeoutS
 875              		.syntax unified
 876              		.thumb
 877              		.thumb_func
 878              		.fpu softvfp
 879              		.type	chCondWaitTimeoutS, %function
 880              	chCondWaitTimeoutS:
 881              	.LVL49:
 882              	.LFB254:
 883              		.loc 1 296 68 is_stmt 1 view -0
 884              		.cfi_startproc
 885              		@ args = 0, pretend = 0, frame = 0
 886              		@ frame_needed = 0, uses_anonymous_args = 0
 887              		.loc 1 297 3 view .LVU269
 888              		.loc 1 298 3 view .LVU270
 889              		.loc 1 300 21 view .LVU271
 890              		.loc 1 301 3 view .LVU272
 891              		.loc 1 301 3 view .LVU273
 892              		.loc 1 301 3 view .LVU274
 893              		.loc 1 302 3 view .LVU275
 894              		.loc 1 302 3 view .LVU276
 895              		.loc 1 302 3 view .LVU277
 896              		.loc 1 305 3 view .LVU278
 897              	.LBB212:
 898              	.LBI212:
 899              		.loc 6 144 24 view .LVU279
 900              	.LBB213:
 901              		.loc 6 146 3 view .LVU280
 902              	.LBB214:
 903              	.LBI214:
 904              		.loc 7 284 25 view .LVU281
 905              	.LBB215:
 906              		.loc 7 286 3 view .LVU282
 907              	.LBE215:
 908              	.LBE214:
 909              	.LBE213:
 910              	.LBE212:
 911              		.loc 1 296 68 is_stmt 0 view .LVU283
 912 0000 F8B5     		push	{r3, r4, r5, r6, r7, lr}
ARM GAS  /tmp/ccdzvlYC.s 			page 17


 913              		.cfi_def_cfa_offset 24
 914              		.cfi_offset 3, -24
 915              		.cfi_offset 4, -20
 916              		.cfi_offset 5, -16
 917              		.cfi_offset 6, -12
 918              		.cfi_offset 7, -8
 919              		.cfi_offset 14, -4
 920              	.LBB219:
 921              	.LBB218:
 922              	.LBB217:
 923              	.LBB216:
 924              		.loc 7 286 18 view .LVU284
 925 0002 124C     		ldr	r4, .L38
 926              	.LBE216:
 927              	.LBE217:
 928              		.loc 6 146 25 view .LVU285
 929 0004 A369     		ldr	r3, [r4, #24]
 930 0006 9E6B     		ldr	r6, [r3, #56]
 931              	.LVL50:
 932              		.loc 6 146 25 view .LVU286
 933              	.LBE218:
 934              	.LBE219:
 935              		.loc 1 306 3 is_stmt 1 view .LVU287
 936              		.loc 1 296 68 is_stmt 0 view .LVU288
 937 0008 0546     		mov	r5, r0
 938              		.loc 1 306 3 view .LVU289
 939 000a 3046     		mov	r0, r6
 940              	.LVL51:
 941              		.loc 1 296 68 view .LVU290
 942 000c 0F46     		mov	r7, r1
 943              		.loc 1 306 3 view .LVU291
 944 000e FFF7FEFF 		bl	chMtxUnlockS
 945              	.LVL52:
 946              		.loc 1 310 3 is_stmt 1 view .LVU292
 947 0012 A469     		ldr	r4, [r4, #24]
 948              	.LBB220:
 949              	.LBB221:
 950              		.loc 2 599 13 is_stmt 0 view .LVU293
 951 0014 2B46     		mov	r3, r5
 952              	.LBE221:
 953              	.LBE220:
 954              		.loc 1 310 19 view .LVU294
 955 0016 6562     		str	r5, [r4, #36]
 956              		.loc 1 311 3 is_stmt 1 view .LVU295
 957              	.LVL53:
 958              	.LBB225:
 959              	.LBI220:
 960              		.loc 2 597 20 view .LVU296
 961              	.LBB222:
 962              		.loc 2 599 3 view .LVU297
 963              		.loc 2 599 3 is_stmt 0 view .LVU298
 964 0018 03E0     		b	.L30
 965              	.LVL54:
 966              	.L37:
 967              		.loc 2 602 36 view .LVU299
 968 001a A268     		ldr	r2, [r4, #8]
 969 001c 9968     		ldr	r1, [r3, #8]
ARM GAS  /tmp/ccdzvlYC.s 			page 18


 970 001e 9142     		cmp	r1, r2
 971 0020 02D3     		bcc	.L29
 972              	.L30:
 973              		.loc 2 600 3 is_stmt 1 view .LVU300
 974              		.loc 2 601 5 view .LVU301
 975              		.loc 2 601 8 is_stmt 0 view .LVU302
 976 0022 1B68     		ldr	r3, [r3]
 977              	.LVL55:
 978              		.loc 2 602 11 is_stmt 1 view .LVU303
 979              		.loc 2 602 3 is_stmt 0 view .LVU304
 980 0024 9D42     		cmp	r5, r3
 981 0026 F8D1     		bne	.L37
 982              	.L29:
 983              		.loc 2 603 3 is_stmt 1 view .LVU305
 984              		.loc 2 604 41 is_stmt 0 view .LVU306
 985 0028 5A68     		ldr	r2, [r3, #4]
 986              	.LBE222:
 987              	.LBE225:
 988              		.loc 1 312 9 view .LVU307
 989 002a 3946     		mov	r1, r7
 990              	.LBB226:
 991              	.LBB223:
 992              		.loc 2 604 30 view .LVU308
 993 002c C4E90032 		strd	r3, r2, [r4]
 994              		.loc 2 605 3 is_stmt 1 view .LVU309
 995              	.LBE223:
 996              	.LBE226:
 997              		.loc 1 312 9 is_stmt 0 view .LVU310
 998 0030 0720     		movs	r0, #7
 999              	.LBB227:
 1000              	.LBB224:
 1001              		.loc 2 605 30 view .LVU311
 1002 0032 1460     		str	r4, [r2]
 1003              		.loc 2 606 3 is_stmt 1 view .LVU312
 1004              		.loc 2 606 30 is_stmt 0 view .LVU313
 1005 0034 5C60     		str	r4, [r3, #4]
 1006              	.LVL56:
 1007              		.loc 2 606 30 view .LVU314
 1008              	.LBE224:
 1009              	.LBE227:
 1010              		.loc 1 312 3 is_stmt 1 view .LVU315
 1011              		.loc 1 312 9 is_stmt 0 view .LVU316
 1012 0036 FFF7FEFF 		bl	chSchGoSleepTimeoutS
 1013              	.LVL57:
 1014              		.loc 1 313 6 view .LVU317
 1015 003a 431C     		adds	r3, r0, #1
 1016              		.loc 1 312 9 view .LVU318
 1017 003c 0446     		mov	r4, r0
 1018              	.LVL58:
 1019              		.loc 1 313 3 is_stmt 1 view .LVU319
 1020              		.loc 1 313 6 is_stmt 0 view .LVU320
 1021 003e 02D0     		beq	.L28
 1022              		.loc 1 314 5 is_stmt 1 view .LVU321
 1023 0040 3046     		mov	r0, r6
 1024              	.LVL59:
 1025              		.loc 1 314 5 is_stmt 0 view .LVU322
 1026 0042 FFF7FEFF 		bl	chMtxLockS
ARM GAS  /tmp/ccdzvlYC.s 			page 19


 1027              	.LVL60:
 1028              		.loc 1 317 3 is_stmt 1 view .LVU323
 1029              	.L28:
 1030              		.loc 1 318 1 is_stmt 0 view .LVU324
 1031 0046 2046     		mov	r0, r4
 1032 0048 F8BD     		pop	{r3, r4, r5, r6, r7, pc}
 1033              	.LVL61:
 1034              	.L39:
 1035              		.loc 1 318 1 view .LVU325
 1036 004a 00BF     		.align	2
 1037              	.L38:
 1038 004c 00000000 		.word	ch
 1039              		.cfi_endproc
 1040              	.LFE254:
 1041              		.size	chCondWaitTimeoutS, .-chCondWaitTimeoutS
 1042              		.section	.text.chCondWaitTimeout,"ax",%progbits
 1043              		.align	1
 1044              		.p2align 4,,15
 1045              		.global	chCondWaitTimeout
 1046              		.syntax unified
 1047              		.thumb
 1048              		.thumb_func
 1049              		.fpu softvfp
 1050              		.type	chCondWaitTimeout, %function
 1051              	chCondWaitTimeout:
 1052              	.LVL62:
 1053              	.LFB253:
 1054              		.loc 1 258 67 is_stmt 1 view -0
 1055              		.cfi_startproc
 1056              		@ args = 0, pretend = 0, frame = 0
 1057              		@ frame_needed = 0, uses_anonymous_args = 0
 1058              		.loc 1 259 3 view .LVU327
 1059              		.loc 1 261 3 view .LVU328
 1060              	.LBB228:
 1061              	.LBI228:
 1062              		.loc 3 374 20 view .LVU329
 1063              	.LBE228:
 1064              		.loc 3 376 3 view .LVU330
 1065              	.LBB236:
 1066              	.LBB229:
 1067              	.LBI229:
 1068              		.loc 4 594 20 view .LVU331
 1069              	.LBE229:
 1070              	.LBE236:
 1071              		.loc 4 602 3 view .LVU332
 1072              	.LBB237:
 1073              	.LBB234:
 1074              	.LBB230:
 1075              	.LBI230:
 1076              		.loc 5 262 57 view .LVU333
 1077              	.LBB231:
 1078              		.loc 5 264 3 view .LVU334
 1079              	.LBE231:
 1080              	.LBE230:
 1081              	.LBE234:
 1082              	.LBE237:
 1083              		.loc 1 258 67 is_stmt 0 view .LVU335
ARM GAS  /tmp/ccdzvlYC.s 			page 20


 1084 0000 08B5     		push	{r3, lr}
 1085              		.cfi_def_cfa_offset 8
 1086              		.cfi_offset 3, -8
 1087              		.cfi_offset 14, -4
 1088              	.LBB238:
 1089              	.LBB235:
 1090              	.LBB233:
 1091              	.LBB232:
 1092              		.loc 5 264 3 view .LVU336
 1093 0002 2023     		movs	r3, #32
 1094              		.syntax unified
 1095              	@ 264 "../../../os/common/ext/CMSIS/include/cmsis_gcc.h" 1
 1096 0004 83F31188 		MSR basepri, r3
 1097              	@ 0 "" 2
 1098              	.LVL63:
 1099              		.loc 5 264 3 view .LVU337
 1100              		.thumb
 1101              		.syntax unified
 1102              	.LBE232:
 1103              	.LBE233:
 1104              	.LBE235:
 1105              	.LBE238:
 1106              		.loc 3 377 34 is_stmt 1 view .LVU338
 1107              		.loc 3 378 20 view .LVU339
 1108              		.loc 1 262 3 view .LVU340
 1109              		.loc 1 262 9 is_stmt 0 view .LVU341
 1110 0008 FFF7FEFF 		bl	chCondWaitTimeoutS
 1111              	.LVL64:
 1112              		.loc 1 263 3 is_stmt 1 view .LVU342
 1113              	.LBB239:
 1114              	.LBI239:
 1115              		.loc 3 386 20 view .LVU343
 1116              	.LBB240:
 1117              		.loc 3 388 22 view .LVU344
 1118              		.loc 3 389 33 view .LVU345
 1119              		.loc 3 395 3 view .LVU346
 1120              		.loc 3 395 3 view .LVU347
 1121              		.loc 3 395 3 view .LVU348
 1122              		.loc 3 399 3 view .LVU349
 1123              	.LBB241:
 1124              	.LBI241:
 1125              		.loc 4 618 20 view .LVU350
 1126              	.LBE241:
 1127              	.LBE240:
 1128              	.LBE239:
 1129              		.loc 4 621 3 view .LVU351
 1130              	.LBB246:
 1131              	.LBB245:
 1132              	.LBB244:
 1133              	.LBB242:
 1134              	.LBI242:
 1135              		.loc 5 262 57 view .LVU352
 1136              	.LBB243:
 1137              		.loc 5 264 3 view .LVU353
 1138 000c 0023     		movs	r3, #0
 1139              		.syntax unified
 1140              	@ 264 "../../../os/common/ext/CMSIS/include/cmsis_gcc.h" 1
ARM GAS  /tmp/ccdzvlYC.s 			page 21


 1141 000e 83F31188 		MSR basepri, r3
 1142              	@ 0 "" 2
 1143              	.LVL65:
 1144              		.loc 5 264 3 is_stmt 0 view .LVU354
 1145              		.thumb
 1146              		.syntax unified
 1147              	.LBE243:
 1148              	.LBE242:
 1149              	.LBE244:
 1150              	.LBE245:
 1151              	.LBE246:
 1152              		.loc 1 265 3 is_stmt 1 view .LVU355
 1153              		.loc 1 266 1 is_stmt 0 view .LVU356
 1154 0012 08BD     		pop	{r3, pc}
 1155              		.cfi_endproc
 1156              	.LFE253:
 1157              		.size	chCondWaitTimeout, .-chCondWaitTimeout
 1158              		.text
 1159              	.Letext0:
 1160              		.file 8 "/usr/lib/gcc/arm-none-eabi/10.3.1/include/stdint.h"
 1161              		.file 9 "../../../os/common/ports/ARMCMx/compilers/GCC/chtypes.h"
 1162              		.file 10 "../../../os/rt/include/chsystypes.h"
 1163              		.file 11 "../../../os/common/ports/ARMCMx/chcore.h"
 1164              		.file 12 "../../../os/rt/include/chtm.h"
 1165              		.file 13 "../../../os/rt/include/chsem.h"
 1166              		.file 14 "../../../os/rt/include/chcond.h"