ARM GAS  /tmp/ccmwlFHJ.s 			page 1


   1              		.cpu cortex-m4
   2              		.eabi_attribute 20, 1
   3              		.eabi_attribute 21, 1
   4              		.eabi_attribute 23, 3
   5              		.eabi_attribute 24, 1
   6              		.eabi_attribute 25, 1
   7              		.eabi_attribute 26, 1
   8              		.eabi_attribute 30, 2
   9              		.eabi_attribute 34, 1
  10              		.eabi_attribute 18, 4
  11              		.file	"chcore_v7m.c"
  12              		.text
  13              	.Ltext0:
  14              		.cfi_sections	.debug_frame
  15              		.section	.text.SVC_Handler,"ax",%progbits
  16              		.align	1
  17              		.p2align 4,,15
  18              		.global	SVC_Handler
  19              		.arch armv7e-m
  20              		.syntax unified
  21              		.thumb
  22              		.thumb_func
  23              		.fpu softvfp
  24              		.type	SVC_Handler, %function
  25              	SVC_Handler:
  26              	.LFB246:
  27              		.file 1 "../../../os/common/ports/ARMCMx/chcore_v7m.c"
  28              		.loc 1 62 24 view -0
  29              		.cfi_startproc
  30              		@ args = 0, pretend = 0, frame = 0
  31              		@ frame_needed = 1, uses_anonymous_args = 0
  32              		@ link register save eliminated.
  33              		.loc 1 64 3 view .LVU1
  34              		.loc 1 72 3 view .LVU2
  35              	.LBB47:
  36              	.LBI47:
  37              		.file 2 "../../../os/common/ext/CMSIS/include/cmsis_gcc.h"
  38              		.loc 2 148 61 view .LVU3
  39              	.LBB48:
  40              		.loc 2 150 3 view .LVU4
  41              		.loc 2 152 3 view .LVU5
  42              	.LBE48:
  43              	.LBE47:
  44              		.loc 1 62 24 is_stmt 0 view .LVU6
  45 0000 80B4     		push	{r7}
  46              		.cfi_def_cfa_offset 4
  47              		.cfi_offset 7, -4
  48 0002 00AF     		add	r7, sp, #0
  49              		.cfi_def_cfa_register 7
  50              	.LBB50:
  51              	.LBB49:
  52              		.loc 2 152 3 view .LVU7
  53              		.syntax unified
  54              	@ 152 "../../../os/common/ext/CMSIS/include/cmsis_gcc.h" 1
  55 0004 EFF30983 		MRS r3, psp
  56              	
  57              	@ 0 "" 2
ARM GAS  /tmp/ccmwlFHJ.s 			page 2


  58              	.LVL0:
  59              		.loc 2 153 3 is_stmt 1 view .LVU8
  60              		.loc 2 153 3 is_stmt 0 view .LVU9
  61              		.thumb
  62              		.syntax unified
  63              	.LBE49:
  64              	.LBE50:
  65              		.loc 1 76 3 is_stmt 1 view .LVU10
  66              		.loc 1 79 3 view .LVU11
  67              	.LBB51:
  68              	.LBI51:
  69              		.loc 2 162 57 view .LVU12
  70              	.LBB52:
  71              		.loc 2 164 3 view .LVU13
  72              	.LBE52:
  73              	.LBE51:
  74              		.loc 1 76 7 is_stmt 0 view .LVU14
  75 0008 2033     		adds	r3, r3, #32
  76              	.LVL1:
  77              	.LBB54:
  78              	.LBB53:
  79              		.loc 2 164 3 view .LVU15
  80              		.syntax unified
  81              	@ 164 "../../../os/common/ext/CMSIS/include/cmsis_gcc.h" 1
  82 000a 83F30988 		MSR psp, r3
  83              	
  84              	@ 0 "" 2
  85              	.LVL2:
  86              		.loc 2 164 3 view .LVU16
  87              		.thumb
  88              		.syntax unified
  89              	.LBE53:
  90              	.LBE54:
  91              		.loc 1 82 3 is_stmt 1 view .LVU17
  92              	.LBB55:
  93              	.LBI55:
  94              		.file 3 "../../../os/common/ports/ARMCMx/chcore_v7m.h"
  95              		.loc 3 644 20 view .LVU18
  96              	.LBE55:
  97              		.loc 3 646 3 view .LVU19
  98              	.LBB60:
  99              	.LBB56:
 100              	.LBI56:
 101              		.loc 3 618 20 view .LVU20
 102              	.LBE56:
 103              	.LBE60:
 104              		.loc 3 621 3 view .LVU21
 105              	.LBB61:
 106              	.LBB59:
 107              	.LBB57:
 108              	.LBI57:
 109              		.loc 2 262 57 view .LVU22
 110              	.LBB58:
 111              		.loc 2 264 3 view .LVU23
 112 000e 0023     		movs	r3, #0
 113              	.LVL3:
 114              		.loc 2 264 3 is_stmt 0 view .LVU24
ARM GAS  /tmp/ccmwlFHJ.s 			page 3


 115              		.syntax unified
 116              	@ 264 "../../../os/common/ext/CMSIS/include/cmsis_gcc.h" 1
 117 0010 83F31188 		MSR basepri, r3
 118              	@ 0 "" 2
 119              	.LVL4:
 120              		.loc 2 264 3 view .LVU25
 121              		.thumb
 122              		.syntax unified
 123              	.LBE58:
 124              	.LBE57:
 125              	.LBE59:
 126              	.LBE61:
 127              		.loc 1 83 1 view .LVU26
 128 0014 BD46     		mov	sp, r7
 129              		.cfi_def_cfa_register 13
 130              		@ sp needed
 131 0016 80BC     		pop	{r7}
 132              		.cfi_restore 7
 133              		.cfi_def_cfa_offset 0
 134 0018 7047     		bx	lr
 135              		.cfi_endproc
 136              	.LFE246:
 137              		.size	SVC_Handler, .-SVC_Handler
 138 001a 00BF     		.section	.text._port_irq_epilogue,"ax",%progbits
 139              		.align	1
 140              		.p2align 4,,15
 141              		.global	_port_irq_epilogue
 142              		.syntax unified
 143              		.thumb
 144              		.thumb_func
 145              		.fpu softvfp
 146              		.type	_port_irq_epilogue, %function
 147              	_port_irq_epilogue:
 148              	.LFB247:
 149              		.loc 1 122 31 is_stmt 1 view -0
 150              		.cfi_startproc
 151              		@ args = 0, pretend = 0, frame = 0
 152              		@ frame_needed = 1, uses_anonymous_args = 0
 153              		.loc 1 124 3 view .LVU28
 154              	.LBB62:
 155              	.LBI62:
 156              		.loc 3 633 20 view .LVU29
 157              	.LBE62:
 158              		.loc 3 635 3 view .LVU30
 159              	.LBB73:
 160              	.LBB63:
 161              	.LBI63:
 162              		.loc 3 594 20 view .LVU31
 163              	.LBE63:
 164              	.LBE73:
 165              		.loc 3 602 3 view .LVU32
 166              	.LVL5:
 167              	.LBB74:
 168              	.LBB70:
 169              	.LBB64:
 170              	.LBI64:
 171              		.loc 2 262 57 view .LVU33
ARM GAS  /tmp/ccmwlFHJ.s 			page 4


 172              	.LBB65:
 173              		.loc 2 264 3 view .LVU34
 174              	.LBE65:
 175              	.LBE64:
 176              	.LBE70:
 177              	.LBE74:
 178              		.loc 1 122 31 is_stmt 0 view .LVU35
 179 0000 98B5     		push	{r3, r4, r7, lr}
 180              		.cfi_def_cfa_offset 16
 181              		.cfi_offset 3, -16
 182              		.cfi_offset 4, -12
 183              		.cfi_offset 7, -8
 184              		.cfi_offset 14, -4
 185              	.LBB75:
 186              	.LBB71:
 187              	.LBB68:
 188              	.LBB66:
 189              		.loc 2 264 3 view .LVU36
 190 0002 2023     		movs	r3, #32
 191              	.LBE66:
 192              	.LBE68:
 193              	.LBE71:
 194              	.LBE75:
 195              		.loc 1 122 31 view .LVU37
 196 0004 00AF     		add	r7, sp, #0
 197              		.cfi_def_cfa_register 7
 198              	.LBB76:
 199              	.LBB72:
 200              	.LBB69:
 201              	.LBB67:
 202              		.loc 2 264 3 view .LVU38
 203              		.syntax unified
 204              	@ 264 "../../../os/common/ext/CMSIS/include/cmsis_gcc.h" 1
 205 0006 83F31188 		MSR basepri, r3
 206              	@ 0 "" 2
 207              	.LVL6:
 208              		.loc 2 264 3 view .LVU39
 209              		.thumb
 210              		.syntax unified
 211              	.LBE67:
 212              	.LBE69:
 213              	.LBE72:
 214              	.LBE76:
 215              		.loc 1 125 3 is_stmt 1 view .LVU40
 216              		.loc 1 125 11 is_stmt 0 view .LVU41
 217 000a 0E4B     		ldr	r3, .L10
 218 000c 5B68     		ldr	r3, [r3, #4]
 219              		.loc 1 125 6 view .LVU42
 220 000e 13F40063 		ands	r3, r3, #2048
 221 0012 02D1     		bne	.L9
 222              		.loc 1 165 3 is_stmt 1 view .LVU43
 223              	.LBB77:
 224              	.LBI77:
 225              		.loc 3 644 20 view .LVU44
 226              	.LBB78:
 227              		.loc 3 646 3 view .LVU45
 228              	.LBB79:
ARM GAS  /tmp/ccmwlFHJ.s 			page 5


 229              	.LBI79:
 230              		.loc 3 618 20 view .LVU46
 231              	.LBE79:
 232              	.LBE78:
 233              	.LBE77:
 234              		.loc 3 621 3 view .LVU47
 235              	.LVL7:
 236              	.LBB84:
 237              	.LBB83:
 238              	.LBB82:
 239              	.LBB80:
 240              	.LBI80:
 241              		.loc 2 262 57 view .LVU48
 242              	.LBB81:
 243              		.loc 2 264 3 view .LVU49
 244              		.syntax unified
 245              	@ 264 "../../../os/common/ext/CMSIS/include/cmsis_gcc.h" 1
 246 0014 83F31188 		MSR basepri, r3
 247              	@ 0 "" 2
 248              	.LVL8:
 249              		.loc 2 264 3 is_stmt 0 view .LVU50
 250              		.thumb
 251              		.syntax unified
 252              	.LBE81:
 253              	.LBE80:
 254              	.LBE82:
 255              	.LBE83:
 256              	.LBE84:
 257              		.loc 1 166 1 view .LVU51
 258 0018 98BD     		pop	{r3, r4, r7, pc}
 259              	.L9:
 260              	.LBB85:
 261              		.loc 1 126 5 is_stmt 1 view .LVU52
 262              		.loc 1 134 5 view .LVU53
 263              	.LBB86:
 264              	.LBI86:
 265              		.loc 2 148 61 view .LVU54
 266              	.LBB87:
 267              		.loc 2 150 3 view .LVU55
 268              		.loc 2 152 3 view .LVU56
 269              		.syntax unified
 270              	@ 152 "../../../os/common/ext/CMSIS/include/cmsis_gcc.h" 1
 271 001a EFF30984 		MRS r4, psp
 272              	
 273              	@ 0 "" 2
 274              	.LVL9:
 275              		.loc 2 153 3 view .LVU57
 276              		.loc 2 153 3 is_stmt 0 view .LVU58
 277              		.thumb
 278              		.syntax unified
 279              	.LBE87:
 280              	.LBE86:
 281              		.loc 1 138 5 is_stmt 1 view .LVU59
 282              		.loc 1 141 5 view .LVU60
 283              		.loc 1 141 16 is_stmt 0 view .LVU61
 284 001e 4FF08073 		mov	r3, #16777216
 285 0022 44F8043C 		str	r3, [r4, #-4]
ARM GAS  /tmp/ccmwlFHJ.s 			page 6


 286              		.loc 1 147 5 is_stmt 1 view .LVU62
 287              	.LVL10:
 288              	.LBB88:
 289              	.LBI88:
 290              		.loc 2 162 57 view .LVU63
 291              	.LBB89:
 292              		.loc 2 164 3 view .LVU64
 293              	.LBE89:
 294              	.LBE88:
 295              		.loc 1 138 9 is_stmt 0 view .LVU65
 296 0026 A4F12003 		sub	r3, r4, #32
 297              	.LVL11:
 298              	.LBB91:
 299              	.LBB90:
 300              		.loc 2 164 3 view .LVU66
 301              		.syntax unified
 302              	@ 164 "../../../os/common/ext/CMSIS/include/cmsis_gcc.h" 1
 303 002a 83F30988 		MSR psp, r3
 304              	
 305              	@ 0 "" 2
 306              	.LVL12:
 307              		.loc 2 164 3 view .LVU67
 308              		.thumb
 309              		.syntax unified
 310              	.LBE90:
 311              	.LBE91:
 312              		.loc 1 151 5 is_stmt 1 view .LVU68
 313              		.loc 1 151 9 is_stmt 0 view .LVU69
 314 002e FFF7FEFF 		bl	chSchIsPreemptionRequired
 315              	.LVL13:
 316              		.loc 1 151 8 view .LVU70
 317 0032 18B1     		cbz	r0, .L6
 318              		.loc 1 153 7 is_stmt 1 view .LVU71
 319              		.loc 1 153 16 is_stmt 0 view .LVU72
 320 0034 044B     		ldr	r3, .L10+4
 321 0036 44F8083C 		str	r3, [r4, #-8]
 322              	.LBE85:
 323              		.loc 1 166 1 view .LVU73
 324 003a 98BD     		pop	{r3, r4, r7, pc}
 325              	.LVL14:
 326              	.L6:
 327              	.LBB92:
 328              		.loc 1 158 7 is_stmt 1 view .LVU74
 329              		.loc 1 158 16 is_stmt 0 view .LVU75
 330 003c 034B     		ldr	r3, .L10+8
 331 003e 44F8083C 		str	r3, [r4, #-8]
 332              	.LBE92:
 333              		.loc 1 166 1 view .LVU76
 334 0042 98BD     		pop	{r3, r4, r7, pc}
 335              	.LVL15:
 336              	.L11:
 337              		.loc 1 166 1 view .LVU77
 338              		.align	2
 339              	.L10:
 340 0044 00ED00E0 		.word	-536810240
 341 0048 00000000 		.word	_port_switch_from_isr
 342 004c 00000000 		.word	_port_exit_from_isr
ARM GAS  /tmp/ccmwlFHJ.s 			page 7


 343              		.cfi_endproc
 344              	.LFE247:
 345              		.size	_port_irq_epilogue, .-_port_irq_epilogue
 346              		.text
 347              	.Letext0:
 348              		.file 4 "/usr/lib/gcc/arm-none-eabi/10.3.1/include/stdint.h"
 349              		.file 5 "../../../os/common/ext/CMSIS/include/core_cm4.h"
 350              		.file 6 "../../../os/common/ports/ARMCMx/chcore.h"
 351              		.file 7 "../../../os/rt/include/chschd.h"
 352              		.section	.debug_info,"",%progbits
 353              	.Ldebug_info0:
 354 0000 46050000 		.4byte	0x546
 355 0004 0400     		.2byte	0x4
 356 0006 00000000 		.4byte	.Ldebug_abbrev0
 357 000a 04       		.byte	0x4
 358 000b 01       		.uleb128 0x1
 359 000c C2010000 		.4byte	.LASF44
 360 0010 0C       		.byte	0xc
 361 0011 75000000 		.4byte	.LASF45
 362 0015 D9000000 		.4byte	.LASF46
 363 0019 E0000000 		.4byte	.Ldebug_ranges0+0xe0
 364 001d 00000000 		.4byte	0
 365 0021 00000000 		.4byte	.Ldebug_line0
 366 0025 02       		.uleb128 0x2
 367 0026 04       		.byte	0x4
 368 0027 05       		.byte	0x5
 369 0028 696E7400 		.ascii	"int\000"
 370 002c 03       		.uleb128 0x3
 371 002d 04       		.byte	0x4
 372 002e 07       		.byte	0x7
 373 002f 16030000 		.4byte	.LASF0
 374 0033 03       		.uleb128 0x3
 375 0034 08       		.byte	0x8
 376 0035 05       		.byte	0x5
 377 0036 67000000 		.4byte	.LASF1
 378 003a 03       		.uleb128 0x3
 379 003b 08       		.byte	0x8
 380 003c 04       		.byte	0x4
 381 003d 56000000 		.4byte	.LASF2
 382 0041 03       		.uleb128 0x3
 383 0042 01       		.byte	0x1
 384 0043 06       		.byte	0x6
 385 0044 6F010000 		.4byte	.LASF3
 386 0048 03       		.uleb128 0x3
 387 0049 02       		.byte	0x2
 388 004a 05       		.byte	0x5
 389 004b 13000000 		.4byte	.LASF4
 390 004f 03       		.uleb128 0x3
 391 0050 04       		.byte	0x4
 392 0051 05       		.byte	0x5
 393 0052 C1000000 		.4byte	.LASF5
 394 0056 04       		.uleb128 0x4
 395 0057 3C000000 		.4byte	.LASF8
 396 005b 04       		.byte	0x4
 397 005c 2E       		.byte	0x2e
 398 005d 18       		.byte	0x18
 399 005e 67000000 		.4byte	0x67
ARM GAS  /tmp/ccmwlFHJ.s 			page 8


 400 0062 05       		.uleb128 0x5
 401 0063 56000000 		.4byte	0x56
 402 0067 03       		.uleb128 0x3
 403 0068 01       		.byte	0x1
 404 0069 08       		.byte	0x8
 405 006a 61010000 		.4byte	.LASF6
 406 006e 03       		.uleb128 0x3
 407 006f 02       		.byte	0x2
 408 0070 07       		.byte	0x7
 409 0071 AA010000 		.4byte	.LASF7
 410 0075 04       		.uleb128 0x4
 411 0076 4D000000 		.4byte	.LASF9
 412 007a 04       		.byte	0x4
 413 007b 34       		.byte	0x34
 414 007c 19       		.byte	0x19
 415 007d 8B000000 		.4byte	0x8b
 416 0081 05       		.uleb128 0x5
 417 0082 75000000 		.4byte	0x75
 418 0086 06       		.uleb128 0x6
 419 0087 81000000 		.4byte	0x81
 420 008b 03       		.uleb128 0x3
 421 008c 04       		.byte	0x4
 422 008d 07       		.byte	0x7
 423 008e D0020000 		.4byte	.LASF10
 424 0092 03       		.uleb128 0x3
 425 0093 08       		.byte	0x8
 426 0094 07       		.byte	0x7
 427 0095 7B010000 		.4byte	.LASF11
 428 0099 07       		.uleb128 0x7
 429 009a 04       		.byte	0x4
 430 009b 08       		.uleb128 0x8
 431 009c 8C       		.byte	0x8c
 432 009d 05       		.byte	0x5
 433 009e E501     		.2byte	0x1e5
 434 00a0 09       		.byte	0x9
 435 00a1 CC010000 		.4byte	0x1cc
 436 00a5 09       		.uleb128 0x9
 437 00a6 27000000 		.4byte	.LASF12
 438 00aa 05       		.byte	0x5
 439 00ab E701     		.2byte	0x1e7
 440 00ad 12       		.byte	0x12
 441 00ae 86000000 		.4byte	0x86
 442 00b2 00       		.byte	0
 443 00b3 09       		.uleb128 0x9
 444 00b4 62000000 		.4byte	.LASF13
 445 00b8 05       		.byte	0x5
 446 00b9 E801     		.2byte	0x1e8
 447 00bb 12       		.byte	0x12
 448 00bc 81000000 		.4byte	0x81
 449 00c0 04       		.byte	0x4
 450 00c1 09       		.uleb128 0x9
 451 00c2 9B020000 		.4byte	.LASF14
 452 00c6 05       		.byte	0x5
 453 00c7 E901     		.2byte	0x1e9
 454 00c9 12       		.byte	0x12
 455 00ca 81000000 		.4byte	0x81
 456 00ce 08       		.byte	0x8
ARM GAS  /tmp/ccmwlFHJ.s 			page 9


 457 00cf 09       		.uleb128 0x9
 458 00d0 5B010000 		.4byte	.LASF15
 459 00d4 05       		.byte	0x5
 460 00d5 EA01     		.2byte	0x1ea
 461 00d7 12       		.byte	0x12
 462 00d8 81000000 		.4byte	0x81
 463 00dc 0C       		.byte	0xc
 464 00dd 0A       		.uleb128 0xa
 465 00de 53435200 		.ascii	"SCR\000"
 466 00e2 05       		.byte	0x5
 467 00e3 EB01     		.2byte	0x1eb
 468 00e5 12       		.byte	0x12
 469 00e6 81000000 		.4byte	0x81
 470 00ea 10       		.byte	0x10
 471 00eb 0A       		.uleb128 0xa
 472 00ec 43435200 		.ascii	"CCR\000"
 473 00f0 05       		.byte	0x5
 474 00f1 EC01     		.2byte	0x1ec
 475 00f3 12       		.byte	0x12
 476 00f4 81000000 		.4byte	0x81
 477 00f8 14       		.byte	0x14
 478 00f9 0A       		.uleb128 0xa
 479 00fa 53485000 		.ascii	"SHP\000"
 480 00fe 05       		.byte	0x5
 481 00ff ED01     		.2byte	0x1ed
 482 0101 12       		.byte	0x12
 483 0102 DC010000 		.4byte	0x1dc
 484 0106 18       		.byte	0x18
 485 0107 09       		.uleb128 0x9
 486 0108 92010000 		.4byte	.LASF16
 487 010c 05       		.byte	0x5
 488 010d EE01     		.2byte	0x1ee
 489 010f 12       		.byte	0x12
 490 0110 81000000 		.4byte	0x81
 491 0114 24       		.byte	0x24
 492 0115 09       		.uleb128 0x9
 493 0116 4A010000 		.4byte	.LASF17
 494 011a 05       		.byte	0x5
 495 011b EF01     		.2byte	0x1ef
 496 011d 12       		.byte	0x12
 497 011e 81000000 		.4byte	0x81
 498 0122 28       		.byte	0x28
 499 0123 09       		.uleb128 0x9
 500 0124 BC020000 		.4byte	.LASF18
 501 0128 05       		.byte	0x5
 502 0129 F001     		.2byte	0x1f0
 503 012b 12       		.byte	0x12
 504 012c 81000000 		.4byte	0x81
 505 0130 2C       		.byte	0x2c
 506 0131 09       		.uleb128 0x9
 507 0132 A5020000 		.4byte	.LASF19
 508 0136 05       		.byte	0x5
 509 0137 F101     		.2byte	0x1f1
 510 0139 12       		.byte	0x12
 511 013a 81000000 		.4byte	0x81
 512 013e 30       		.byte	0x30
 513 013f 09       		.uleb128 0x9
ARM GAS  /tmp/ccmwlFHJ.s 			page 10


 514 0140 A4010000 		.4byte	.LASF20
 515 0144 05       		.byte	0x5
 516 0145 F201     		.2byte	0x1f2
 517 0147 12       		.byte	0x12
 518 0148 81000000 		.4byte	0x81
 519 014c 34       		.byte	0x34
 520 014d 09       		.uleb128 0x9
 521 014e A2000000 		.4byte	.LASF21
 522 0152 05       		.byte	0x5
 523 0153 F301     		.2byte	0x1f3
 524 0155 12       		.byte	0x12
 525 0156 81000000 		.4byte	0x81
 526 015a 38       		.byte	0x38
 527 015b 09       		.uleb128 0x9
 528 015c 11030000 		.4byte	.LASF22
 529 0160 05       		.byte	0x5
 530 0161 F401     		.2byte	0x1f4
 531 0163 12       		.byte	0x12
 532 0164 81000000 		.4byte	0x81
 533 0168 3C       		.byte	0x3c
 534 0169 0A       		.uleb128 0xa
 535 016a 50465200 		.ascii	"PFR\000"
 536 016e 05       		.byte	0x5
 537 016f F501     		.2byte	0x1f5
 538 0171 12       		.byte	0x12
 539 0172 F6010000 		.4byte	0x1f6
 540 0176 40       		.byte	0x40
 541 0177 0A       		.uleb128 0xa
 542 0178 44465200 		.ascii	"DFR\000"
 543 017c 05       		.byte	0x5
 544 017d F601     		.2byte	0x1f6
 545 017f 12       		.byte	0x12
 546 0180 86000000 		.4byte	0x86
 547 0184 48       		.byte	0x48
 548 0185 0A       		.uleb128 0xa
 549 0186 41445200 		.ascii	"ADR\000"
 550 018a 05       		.byte	0x5
 551 018b F701     		.2byte	0x1f7
 552 018d 12       		.byte	0x12
 553 018e 86000000 		.4byte	0x86
 554 0192 4C       		.byte	0x4c
 555 0193 09       		.uleb128 0x9
 556 0194 C1020000 		.4byte	.LASF23
 557 0198 05       		.byte	0x5
 558 0199 F801     		.2byte	0x1f8
 559 019b 12       		.byte	0x12
 560 019c 10020000 		.4byte	0x210
 561 01a0 50       		.byte	0x50
 562 01a1 09       		.uleb128 0x9
 563 01a2 A0020000 		.4byte	.LASF24
 564 01a6 05       		.byte	0x5
 565 01a7 F901     		.2byte	0x1f9
 566 01a9 12       		.byte	0x12
 567 01aa 2A020000 		.4byte	0x22a
 568 01ae 60       		.byte	0x60
 569 01af 09       		.uleb128 0x9
 570 01b0 C6020000 		.4byte	.LASF25
ARM GAS  /tmp/ccmwlFHJ.s 			page 11


 571 01b4 05       		.byte	0x5
 572 01b5 FA01     		.2byte	0x1fa
 573 01b7 12       		.byte	0x12
 574 01b8 2F020000 		.4byte	0x22f
 575 01bc 74       		.byte	0x74
 576 01bd 09       		.uleb128 0x9
 577 01be 23030000 		.4byte	.LASF26
 578 01c2 05       		.byte	0x5
 579 01c3 FB01     		.2byte	0x1fb
 580 01c5 12       		.byte	0x12
 581 01c6 81000000 		.4byte	0x81
 582 01ca 88       		.byte	0x88
 583 01cb 00       		.byte	0
 584 01cc 0B       		.uleb128 0xb
 585 01cd 62000000 		.4byte	0x62
 586 01d1 DC010000 		.4byte	0x1dc
 587 01d5 0C       		.uleb128 0xc
 588 01d6 2C000000 		.4byte	0x2c
 589 01da 0B       		.byte	0xb
 590 01db 00       		.byte	0
 591 01dc 05       		.uleb128 0x5
 592 01dd CC010000 		.4byte	0x1cc
 593 01e1 0B       		.uleb128 0xb
 594 01e2 86000000 		.4byte	0x86
 595 01e6 F1010000 		.4byte	0x1f1
 596 01ea 0C       		.uleb128 0xc
 597 01eb 2C000000 		.4byte	0x2c
 598 01ef 01       		.byte	0x1
 599 01f0 00       		.byte	0
 600 01f1 06       		.uleb128 0x6
 601 01f2 E1010000 		.4byte	0x1e1
 602 01f6 05       		.uleb128 0x5
 603 01f7 F1010000 		.4byte	0x1f1
 604 01fb 0B       		.uleb128 0xb
 605 01fc 86000000 		.4byte	0x86
 606 0200 0B020000 		.4byte	0x20b
 607 0204 0C       		.uleb128 0xc
 608 0205 2C000000 		.4byte	0x2c
 609 0209 03       		.byte	0x3
 610 020a 00       		.byte	0
 611 020b 06       		.uleb128 0x6
 612 020c FB010000 		.4byte	0x1fb
 613 0210 05       		.uleb128 0x5
 614 0211 0B020000 		.4byte	0x20b
 615 0215 0B       		.uleb128 0xb
 616 0216 86000000 		.4byte	0x86
 617 021a 25020000 		.4byte	0x225
 618 021e 0C       		.uleb128 0xc
 619 021f 2C000000 		.4byte	0x2c
 620 0223 04       		.byte	0x4
 621 0224 00       		.byte	0
 622 0225 06       		.uleb128 0x6
 623 0226 15020000 		.4byte	0x215
 624 022a 05       		.uleb128 0x5
 625 022b 25020000 		.4byte	0x225
 626 022f 0B       		.uleb128 0xb
 627 0230 75000000 		.4byte	0x75
ARM GAS  /tmp/ccmwlFHJ.s 			page 12


 628 0234 3F020000 		.4byte	0x23f
 629 0238 0C       		.uleb128 0xc
 630 0239 2C000000 		.4byte	0x2c
 631 023d 04       		.byte	0x4
 632 023e 00       		.byte	0
 633 023f 0D       		.uleb128 0xd
 634 0240 44000000 		.4byte	.LASF27
 635 0244 05       		.byte	0x5
 636 0245 FC01     		.2byte	0x1fc
 637 0247 03       		.byte	0x3
 638 0248 9B000000 		.4byte	0x9b
 639 024c 04       		.uleb128 0x4
 640 024d 33000000 		.4byte	.LASF28
 641 0251 06       		.byte	0x6
 642 0252 65       		.byte	0x65
 643 0253 0F       		.byte	0xf
 644 0254 99000000 		.4byte	0x99
 645 0258 0E       		.uleb128 0xe
 646 0259 05030000 		.4byte	.LASF47
 647 025d 20       		.byte	0x20
 648 025e 03       		.byte	0x3
 649 025f 3A01     		.2byte	0x13a
 650 0261 08       		.byte	0x8
 651 0262 D2020000 		.4byte	0x2d2
 652 0266 0A       		.uleb128 0xa
 653 0267 723000   		.ascii	"r0\000"
 654 026a 03       		.byte	0x3
 655 026b 3B01     		.2byte	0x13b
 656 026d 11       		.byte	0x11
 657 026e 4C020000 		.4byte	0x24c
 658 0272 00       		.byte	0
 659 0273 0A       		.uleb128 0xa
 660 0274 723100   		.ascii	"r1\000"
 661 0277 03       		.byte	0x3
 662 0278 3C01     		.2byte	0x13c
 663 027a 11       		.byte	0x11
 664 027b 4C020000 		.4byte	0x24c
 665 027f 04       		.byte	0x4
 666 0280 0A       		.uleb128 0xa
 667 0281 723200   		.ascii	"r2\000"
 668 0284 03       		.byte	0x3
 669 0285 3D01     		.2byte	0x13d
 670 0287 11       		.byte	0x11
 671 0288 4C020000 		.4byte	0x24c
 672 028c 08       		.byte	0x8
 673 028d 0A       		.uleb128 0xa
 674 028e 723300   		.ascii	"r3\000"
 675 0291 03       		.byte	0x3
 676 0292 3E01     		.2byte	0x13e
 677 0294 11       		.byte	0x11
 678 0295 4C020000 		.4byte	0x24c
 679 0299 0C       		.byte	0xc
 680 029a 0A       		.uleb128 0xa
 681 029b 72313200 		.ascii	"r12\000"
 682 029f 03       		.byte	0x3
 683 02a0 3F01     		.2byte	0x13f
 684 02a2 11       		.byte	0x11
ARM GAS  /tmp/ccmwlFHJ.s 			page 13


 685 02a3 4C020000 		.4byte	0x24c
 686 02a7 10       		.byte	0x10
 687 02a8 09       		.uleb128 0x9
 688 02a9 4F010000 		.4byte	.LASF29
 689 02ad 03       		.byte	0x3
 690 02ae 4001     		.2byte	0x140
 691 02b0 11       		.byte	0x11
 692 02b1 4C020000 		.4byte	0x24c
 693 02b5 14       		.byte	0x14
 694 02b6 0A       		.uleb128 0xa
 695 02b7 706300   		.ascii	"pc\000"
 696 02ba 03       		.byte	0x3
 697 02bb 4101     		.2byte	0x141
 698 02bd 11       		.byte	0x11
 699 02be 4C020000 		.4byte	0x24c
 700 02c2 18       		.byte	0x18
 701 02c3 09       		.uleb128 0x9
 702 02c4 56010000 		.4byte	.LASF30
 703 02c8 03       		.byte	0x3
 704 02c9 4201     		.2byte	0x142
 705 02cb 11       		.byte	0x11
 706 02cc 4C020000 		.4byte	0x24c
 707 02d0 1C       		.byte	0x1c
 708 02d1 00       		.byte	0
 709 02d2 03       		.uleb128 0x3
 710 02d3 01       		.byte	0x1
 711 02d4 08       		.byte	0x8
 712 02d5 96020000 		.4byte	.LASF31
 713 02d9 03       		.uleb128 0x3
 714 02da 01       		.byte	0x1
 715 02db 02       		.byte	0x2
 716 02dc AA020000 		.4byte	.LASF32
 717 02e0 0F       		.uleb128 0xf
 718 02e1 37010000 		.4byte	.LASF33
 719 02e5 01       		.byte	0x1
 720 02e6 7A       		.byte	0x7a
 721 02e7 06       		.byte	0x6
 722 02e8 00000000 		.4byte	.LFB247
 723 02ec 50000000 		.4byte	.LFE247-.LFB247
 724 02f0 01       		.uleb128 0x1
 725 02f1 9C       		.byte	0x9c
 726 02f2 FA030000 		.4byte	0x3fa
 727 02f6 10       		.uleb128 0x10
 728 02f7 B0000000 		.4byte	.Ldebug_ranges0+0xb0
 729 02fb 67030000 		.4byte	0x367
 730 02ff 11       		.uleb128 0x11
 731 0300 BD010000 		.4byte	.LASF35
 732 0304 01       		.byte	0x1
 733 0305 7E       		.byte	0x7e
 734 0306 19       		.byte	0x19
 735 0307 FA030000 		.4byte	0x3fa
 736 030b 08000000 		.4byte	.LLST6
 737 030f 00000000 		.4byte	.LVUS6
 738 0313 12       		.uleb128 0x12
 739 0314 1E050000 		.4byte	0x51e
 740 0318 1A000000 		.4byte	.LBI86
 741 031c 02       		.byte	.LVU54
ARM GAS  /tmp/ccmwlFHJ.s 			page 14


 742 031d 1A000000 		.4byte	.LBB86
 743 0321 04000000 		.4byte	.LBE86-.LBB86
 744 0325 01       		.byte	0x1
 745 0326 86       		.byte	0x86
 746 0327 22       		.byte	0x22
 747 0328 3A030000 		.4byte	0x33a
 748 032c 13       		.uleb128 0x13
 749 032d 2F050000 		.4byte	0x52f
 750 0331 42000000 		.4byte	.LLST7
 751 0335 40000000 		.4byte	.LVUS7
 752 0339 00       		.byte	0
 753 033a 14       		.uleb128 0x14
 754 033b 04050000 		.4byte	0x504
 755 033f 26000000 		.4byte	.LBI88
 756 0343 01       		.byte	.LVU63
 757 0344 C8000000 		.4byte	.Ldebug_ranges0+0xc8
 758 0348 01       		.byte	0x1
 759 0349 93       		.byte	0x93
 760 034a 05       		.byte	0x5
 761 034b 5D030000 		.4byte	0x35d
 762 034f 15       		.uleb128 0x15
 763 0350 11050000 		.4byte	0x511
 764 0354 59000000 		.4byte	.LLST8
 765 0358 55000000 		.4byte	.LVUS8
 766 035c 00       		.byte	0
 767 035d 16       		.uleb128 0x16
 768 035e 32000000 		.4byte	.LVL13
 769 0362 3C050000 		.4byte	0x53c
 770 0366 00       		.byte	0
 771 0367 14       		.uleb128 0x14
 772 0368 CA040000 		.4byte	0x4ca
 773 036c 00000000 		.4byte	.LBI62
 774 0370 02       		.byte	.LVU29
 775 0371 50000000 		.4byte	.Ldebug_ranges0+0x50
 776 0375 01       		.byte	0x1
 777 0376 7C       		.byte	0x7c
 778 0377 03       		.byte	0x3
 779 0378 B0030000 		.4byte	0x3b0
 780 037c 17       		.uleb128 0x17
 781 037d DE040000 		.4byte	0x4de
 782 0381 00000000 		.4byte	.LBI63
 783 0385 04       		.byte	.LVU31
 784 0386 58000000 		.4byte	.Ldebug_ranges0+0x58
 785 038a 03       		.byte	0x3
 786 038b 7B02     		.2byte	0x27b
 787 038d 03       		.byte	0x3
 788 038e 17       		.uleb128 0x17
 789 038f E8040000 		.4byte	0x4e8
 790 0393 00000000 		.4byte	.LBI64
 791 0397 06       		.byte	.LVU33
 792 0398 60000000 		.4byte	.Ldebug_ranges0+0x60
 793 039c 03       		.byte	0x3
 794 039d 5A02     		.2byte	0x25a
 795 039f 03       		.byte	0x3
 796 03a0 15       		.uleb128 0x15
 797 03a1 F6040000 		.4byte	0x4f6
 798 03a5 7B000000 		.4byte	.LLST4
ARM GAS  /tmp/ccmwlFHJ.s 			page 15


 799 03a9 79000000 		.4byte	.LVUS4
 800 03ad 00       		.byte	0
 801 03ae 00       		.byte	0
 802 03af 00       		.byte	0
 803 03b0 18       		.uleb128 0x18
 804 03b1 C0040000 		.4byte	0x4c0
 805 03b5 14000000 		.4byte	.LBI77
 806 03b9 01       		.byte	.LVU44
 807 03ba 80000000 		.4byte	.Ldebug_ranges0+0x80
 808 03be 01       		.byte	0x1
 809 03bf A5       		.byte	0xa5
 810 03c0 03       		.byte	0x3
 811 03c1 17       		.uleb128 0x17
 812 03c2 D4040000 		.4byte	0x4d4
 813 03c6 14000000 		.4byte	.LBI79
 814 03ca 03       		.byte	.LVU46
 815 03cb 98000000 		.4byte	.Ldebug_ranges0+0x98
 816 03cf 03       		.byte	0x3
 817 03d0 8602     		.2byte	0x286
 818 03d2 03       		.byte	0x3
 819 03d3 19       		.uleb128 0x19
 820 03d4 E8040000 		.4byte	0x4e8
 821 03d8 14000000 		.4byte	.LBI80
 822 03dc 05       		.byte	.LVU48
 823 03dd 14000000 		.4byte	.LBB80
 824 03e1 04000000 		.4byte	.LBE80-.LBB80
 825 03e5 03       		.byte	0x3
 826 03e6 6D02     		.2byte	0x26d
 827 03e8 03       		.byte	0x3
 828 03e9 15       		.uleb128 0x15
 829 03ea F6040000 		.4byte	0x4f6
 830 03ee 92000000 		.4byte	.LLST5
 831 03f2 90000000 		.4byte	.LVUS5
 832 03f6 00       		.byte	0
 833 03f7 00       		.byte	0
 834 03f8 00       		.byte	0
 835 03f9 00       		.byte	0
 836 03fa 1A       		.uleb128 0x1a
 837 03fb 04       		.byte	0x4
 838 03fc 58020000 		.4byte	0x258
 839 0400 0F       		.uleb128 0xf
 840 0401 98010000 		.4byte	.LASF34
 841 0405 01       		.byte	0x1
 842 0406 3E       		.byte	0x3e
 843 0407 06       		.byte	0x6
 844 0408 00000000 		.4byte	.LFB246
 845 040c 1A000000 		.4byte	.LFE246-.LFB246
 846 0410 01       		.uleb128 0x1
 847 0411 9C       		.byte	0x9c
 848 0412 C0040000 		.4byte	0x4c0
 849 0416 11       		.uleb128 0x11
 850 0417 BD010000 		.4byte	.LASF35
 851 041b 01       		.byte	0x1
 852 041c 40       		.byte	0x40
 853 041d 17       		.byte	0x17
 854 041e FA030000 		.4byte	0x3fa
 855 0422 AC000000 		.4byte	.LLST0
ARM GAS  /tmp/ccmwlFHJ.s 			page 16


 856 0426 A6000000 		.4byte	.LVUS0
 857 042a 14       		.uleb128 0x14
 858 042b 1E050000 		.4byte	0x51e
 859 042f 00000000 		.4byte	.LBI47
 860 0433 03       		.byte	.LVU3
 861 0434 00000000 		.4byte	.Ldebug_ranges0+0
 862 0438 01       		.byte	0x1
 863 0439 48       		.byte	0x48
 864 043a 20       		.byte	0x20
 865 043b 53040000 		.4byte	0x453
 866 043f 1B       		.uleb128 0x1b
 867 0440 00000000 		.4byte	.Ldebug_ranges0+0
 868 0444 13       		.uleb128 0x13
 869 0445 2F050000 		.4byte	0x52f
 870 0449 D9000000 		.4byte	.LLST1
 871 044d D7000000 		.4byte	.LVUS1
 872 0451 00       		.byte	0
 873 0452 00       		.byte	0
 874 0453 14       		.uleb128 0x14
 875 0454 04050000 		.4byte	0x504
 876 0458 08000000 		.4byte	.LBI51
 877 045c 04       		.byte	.LVU12
 878 045d 18000000 		.4byte	.Ldebug_ranges0+0x18
 879 0461 01       		.byte	0x1
 880 0462 4F       		.byte	0x4f
 881 0463 03       		.byte	0x3
 882 0464 76040000 		.4byte	0x476
 883 0468 15       		.uleb128 0x15
 884 0469 11050000 		.4byte	0x511
 885 046d F0000000 		.4byte	.LLST2
 886 0471 EC000000 		.4byte	.LVUS2
 887 0475 00       		.byte	0
 888 0476 18       		.uleb128 0x18
 889 0477 C0040000 		.4byte	0x4c0
 890 047b 0E000000 		.4byte	.LBI55
 891 047f 02       		.byte	.LVU18
 892 0480 30000000 		.4byte	.Ldebug_ranges0+0x30
 893 0484 01       		.byte	0x1
 894 0485 52       		.byte	0x52
 895 0486 03       		.byte	0x3
 896 0487 17       		.uleb128 0x17
 897 0488 D4040000 		.4byte	0x4d4
 898 048c 0E000000 		.4byte	.LBI56
 899 0490 04       		.byte	.LVU20
 900 0491 38000000 		.4byte	.Ldebug_ranges0+0x38
 901 0495 03       		.byte	0x3
 902 0496 8602     		.2byte	0x286
 903 0498 03       		.byte	0x3
 904 0499 19       		.uleb128 0x19
 905 049a E8040000 		.4byte	0x4e8
 906 049e 0E000000 		.4byte	.LBI57
 907 04a2 06       		.byte	.LVU22
 908 04a3 0E000000 		.4byte	.LBB57
 909 04a7 06000000 		.4byte	.LBE57-.LBB57
 910 04ab 03       		.byte	0x3
 911 04ac 6D02     		.2byte	0x26d
 912 04ae 03       		.byte	0x3
ARM GAS  /tmp/ccmwlFHJ.s 			page 17


 913 04af 15       		.uleb128 0x15
 914 04b0 F6040000 		.4byte	0x4f6
 915 04b4 12010000 		.4byte	.LLST3
 916 04b8 10010000 		.4byte	.LVUS3
 917 04bc 00       		.byte	0
 918 04bd 00       		.byte	0
 919 04be 00       		.byte	0
 920 04bf 00       		.byte	0
 921 04c0 1C       		.uleb128 0x1c
 922 04c1 F0020000 		.4byte	.LASF36
 923 04c5 03       		.byte	0x3
 924 04c6 8402     		.2byte	0x284
 925 04c8 14       		.byte	0x14
 926 04c9 03       		.byte	0x3
 927 04ca 1C       		.uleb128 0x1c
 928 04cb 00000000 		.4byte	.LASF37
 929 04cf 03       		.byte	0x3
 930 04d0 7902     		.2byte	0x279
 931 04d2 14       		.byte	0x14
 932 04d3 03       		.byte	0x3
 933 04d4 1C       		.uleb128 0x1c
 934 04d5 B0020000 		.4byte	.LASF38
 935 04d9 03       		.byte	0x3
 936 04da 6A02     		.2byte	0x26a
 937 04dc 14       		.byte	0x14
 938 04dd 03       		.byte	0x3
 939 04de 1C       		.uleb128 0x1c
 940 04df 1D000000 		.4byte	.LASF39
 941 04e3 03       		.byte	0x3
 942 04e4 5202     		.2byte	0x252
 943 04e6 14       		.byte	0x14
 944 04e7 03       		.byte	0x3
 945 04e8 1D       		.uleb128 0x1d
 946 04e9 E2020000 		.4byte	.LASF40
 947 04ed 02       		.byte	0x2
 948 04ee 0601     		.2byte	0x106
 949 04f0 39       		.byte	0x39
 950 04f1 03       		.byte	0x3
 951 04f2 04050000 		.4byte	0x504
 952 04f6 1E       		.uleb128 0x1e
 953 04f7 2D000000 		.4byte	.LASF42
 954 04fb 02       		.byte	0x2
 955 04fc 0601     		.2byte	0x106
 956 04fe 50       		.byte	0x50
 957 04ff 75000000 		.4byte	0x75
 958 0503 00       		.byte	0
 959 0504 1F       		.uleb128 0x1f
 960 0505 2D010000 		.4byte	.LASF41
 961 0509 02       		.byte	0x2
 962 050a A2       		.byte	0xa2
 963 050b 39       		.byte	0x39
 964 050c 03       		.byte	0x3
 965 050d 1E050000 		.4byte	0x51e
 966 0511 20       		.uleb128 0x20
 967 0512 CA000000 		.4byte	.LASF43
 968 0516 02       		.byte	0x2
 969 0517 A2       		.byte	0xa2
ARM GAS  /tmp/ccmwlFHJ.s 			page 18


 970 0518 4C       		.byte	0x4c
 971 0519 75000000 		.4byte	0x75
 972 051d 00       		.byte	0
 973 051e 21       		.uleb128 0x21
 974 051f 1C010000 		.4byte	.LASF48
 975 0523 02       		.byte	0x2
 976 0524 94       		.byte	0x94
 977 0525 3D       		.byte	0x3d
 978 0526 75000000 		.4byte	0x75
 979 052a 03       		.byte	0x3
 980 052b 3C050000 		.4byte	0x53c
 981 052f 22       		.uleb128 0x22
 982 0530 26010000 		.4byte	.LASF49
 983 0534 02       		.byte	0x2
 984 0535 96       		.byte	0x96
 985 0536 15       		.byte	0x15
 986 0537 75000000 		.4byte	0x75
 987 053b 00       		.byte	0
 988 053c 23       		.uleb128 0x23
 989 053d A7000000 		.4byte	.LASF50
 990 0541 A7000000 		.4byte	.LASF50
 991 0545 07       		.byte	0x7
 992 0546 E201     		.2byte	0x1e2
 993 0548 08       		.byte	0x8
 994 0549 00       		.byte	0
 995              		.section	.debug_abbrev,"",%progbits
 996              	.Ldebug_abbrev0:
 997 0000 01       		.uleb128 0x1
 998 0001 11       		.uleb128 0x11
 999 0002 01       		.byte	0x1
 1000 0003 25       		.uleb128 0x25
 1001 0004 0E       		.uleb128 0xe
 1002 0005 13       		.uleb128 0x13
 1003 0006 0B       		.uleb128 0xb
 1004 0007 03       		.uleb128 0x3
 1005 0008 0E       		.uleb128 0xe
 1006 0009 1B       		.uleb128 0x1b
 1007 000a 0E       		.uleb128 0xe
 1008 000b 55       		.uleb128 0x55
 1009 000c 17       		.uleb128 0x17
 1010 000d 11       		.uleb128 0x11
 1011 000e 01       		.uleb128 0x1
 1012 000f 10       		.uleb128 0x10
 1013 0010 17       		.uleb128 0x17
 1014 0011 00       		.byte	0
 1015 0012 00       		.byte	0
 1016 0013 02       		.uleb128 0x2
 1017 0014 24       		.uleb128 0x24
 1018 0015 00       		.byte	0
 1019 0016 0B       		.uleb128 0xb
 1020 0017 0B       		.uleb128 0xb
 1021 0018 3E       		.uleb128 0x3e
 1022 0019 0B       		.uleb128 0xb
 1023 001a 03       		.uleb128 0x3
 1024 001b 08       		.uleb128 0x8
 1025 001c 00       		.byte	0
 1026 001d 00       		.byte	0
ARM GAS  /tmp/ccmwlFHJ.s 			page 19


 1027 001e 03       		.uleb128 0x3
 1028 001f 24       		.uleb128 0x24
 1029 0020 00       		.byte	0
 1030 0021 0B       		.uleb128 0xb
 1031 0022 0B       		.uleb128 0xb
 1032 0023 3E       		.uleb128 0x3e
 1033 0024 0B       		.uleb128 0xb
 1034 0025 03       		.uleb128 0x3
 1035 0026 0E       		.uleb128 0xe
 1036 0027 00       		.byte	0
 1037 0028 00       		.byte	0
 1038 0029 04       		.uleb128 0x4
 1039 002a 16       		.uleb128 0x16
 1040 002b 00       		.byte	0
 1041 002c 03       		.uleb128 0x3
 1042 002d 0E       		.uleb128 0xe
 1043 002e 3A       		.uleb128 0x3a
 1044 002f 0B       		.uleb128 0xb
 1045 0030 3B       		.uleb128 0x3b
 1046 0031 0B       		.uleb128 0xb
 1047 0032 39       		.uleb128 0x39
 1048 0033 0B       		.uleb128 0xb
 1049 0034 49       		.uleb128 0x49
 1050 0035 13       		.uleb128 0x13
 1051 0036 00       		.byte	0
 1052 0037 00       		.byte	0
 1053 0038 05       		.uleb128 0x5
 1054 0039 35       		.uleb128 0x35
 1055 003a 00       		.byte	0
 1056 003b 49       		.uleb128 0x49
 1057 003c 13       		.uleb128 0x13
 1058 003d 00       		.byte	0
 1059 003e 00       		.byte	0
 1060 003f 06       		.uleb128 0x6
 1061 0040 26       		.uleb128 0x26
 1062 0041 00       		.byte	0
 1063 0042 49       		.uleb128 0x49
 1064 0043 13       		.uleb128 0x13
 1065 0044 00       		.byte	0
 1066 0045 00       		.byte	0
 1067 0046 07       		.uleb128 0x7
 1068 0047 0F       		.uleb128 0xf
 1069 0048 00       		.byte	0
 1070 0049 0B       		.uleb128 0xb
 1071 004a 0B       		.uleb128 0xb
 1072 004b 00       		.byte	0
 1073 004c 00       		.byte	0
 1074 004d 08       		.uleb128 0x8
 1075 004e 13       		.uleb128 0x13
 1076 004f 01       		.byte	0x1
 1077 0050 0B       		.uleb128 0xb
 1078 0051 0B       		.uleb128 0xb
 1079 0052 3A       		.uleb128 0x3a
 1080 0053 0B       		.uleb128 0xb
 1081 0054 3B       		.uleb128 0x3b
 1082 0055 05       		.uleb128 0x5
 1083 0056 39       		.uleb128 0x39
ARM GAS  /tmp/ccmwlFHJ.s 			page 20


 1084 0057 0B       		.uleb128 0xb
 1085 0058 01       		.uleb128 0x1
 1086 0059 13       		.uleb128 0x13
 1087 005a 00       		.byte	0
 1088 005b 00       		.byte	0
 1089 005c 09       		.uleb128 0x9
 1090 005d 0D       		.uleb128 0xd
 1091 005e 00       		.byte	0
 1092 005f 03       		.uleb128 0x3
 1093 0060 0E       		.uleb128 0xe
 1094 0061 3A       		.uleb128 0x3a
 1095 0062 0B       		.uleb128 0xb
 1096 0063 3B       		.uleb128 0x3b
 1097 0064 05       		.uleb128 0x5
 1098 0065 39       		.uleb128 0x39
 1099 0066 0B       		.uleb128 0xb
 1100 0067 49       		.uleb128 0x49
 1101 0068 13       		.uleb128 0x13
 1102 0069 38       		.uleb128 0x38
 1103 006a 0B       		.uleb128 0xb
 1104 006b 00       		.byte	0
 1105 006c 00       		.byte	0
 1106 006d 0A       		.uleb128 0xa
 1107 006e 0D       		.uleb128 0xd
 1108 006f 00       		.byte	0
 1109 0070 03       		.uleb128 0x3
 1110 0071 08       		.uleb128 0x8
 1111 0072 3A       		.uleb128 0x3a
 1112 0073 0B       		.uleb128 0xb
 1113 0074 3B       		.uleb128 0x3b
 1114 0075 05       		.uleb128 0x5
 1115 0076 39       		.uleb128 0x39
 1116 0077 0B       		.uleb128 0xb
 1117 0078 49       		.uleb128 0x49
 1118 0079 13       		.uleb128 0x13
 1119 007a 38       		.uleb128 0x38
 1120 007b 0B       		.uleb128 0xb
 1121 007c 00       		.byte	0
 1122 007d 00       		.byte	0
 1123 007e 0B       		.uleb128 0xb
 1124 007f 01       		.uleb128 0x1
 1125 0080 01       		.byte	0x1
 1126 0081 49       		.uleb128 0x49
 1127 0082 13       		.uleb128 0x13
 1128 0083 01       		.uleb128 0x1
 1129 0084 13       		.uleb128 0x13
 1130 0085 00       		.byte	0
 1131 0086 00       		.byte	0
 1132 0087 0C       		.uleb128 0xc
 1133 0088 21       		.uleb128 0x21
 1134 0089 00       		.byte	0
 1135 008a 49       		.uleb128 0x49
 1136 008b 13       		.uleb128 0x13
 1137 008c 2F       		.uleb128 0x2f
 1138 008d 0B       		.uleb128 0xb
 1139 008e 00       		.byte	0
 1140 008f 00       		.byte	0
ARM GAS  /tmp/ccmwlFHJ.s 			page 21


 1141 0090 0D       		.uleb128 0xd
 1142 0091 16       		.uleb128 0x16
 1143 0092 00       		.byte	0
 1144 0093 03       		.uleb128 0x3
 1145 0094 0E       		.uleb128 0xe
 1146 0095 3A       		.uleb128 0x3a
 1147 0096 0B       		.uleb128 0xb
 1148 0097 3B       		.uleb128 0x3b
 1149 0098 05       		.uleb128 0x5
 1150 0099 39       		.uleb128 0x39
 1151 009a 0B       		.uleb128 0xb
 1152 009b 49       		.uleb128 0x49
 1153 009c 13       		.uleb128 0x13
 1154 009d 00       		.byte	0
 1155 009e 00       		.byte	0
 1156 009f 0E       		.uleb128 0xe
 1157 00a0 13       		.uleb128 0x13
 1158 00a1 01       		.byte	0x1
 1159 00a2 03       		.uleb128 0x3
 1160 00a3 0E       		.uleb128 0xe
 1161 00a4 0B       		.uleb128 0xb
 1162 00a5 0B       		.uleb128 0xb
 1163 00a6 3A       		.uleb128 0x3a
 1164 00a7 0B       		.uleb128 0xb
 1165 00a8 3B       		.uleb128 0x3b
 1166 00a9 05       		.uleb128 0x5
 1167 00aa 39       		.uleb128 0x39
 1168 00ab 0B       		.uleb128 0xb
 1169 00ac 01       		.uleb128 0x1
 1170 00ad 13       		.uleb128 0x13
 1171 00ae 00       		.byte	0
 1172 00af 00       		.byte	0
 1173 00b0 0F       		.uleb128 0xf
 1174 00b1 2E       		.uleb128 0x2e
 1175 00b2 01       		.byte	0x1
 1176 00b3 3F       		.uleb128 0x3f
 1177 00b4 19       		.uleb128 0x19
 1178 00b5 03       		.uleb128 0x3
 1179 00b6 0E       		.uleb128 0xe
 1180 00b7 3A       		.uleb128 0x3a
 1181 00b8 0B       		.uleb128 0xb
 1182 00b9 3B       		.uleb128 0x3b
 1183 00ba 0B       		.uleb128 0xb
 1184 00bb 39       		.uleb128 0x39
 1185 00bc 0B       		.uleb128 0xb
 1186 00bd 27       		.uleb128 0x27
 1187 00be 19       		.uleb128 0x19
 1188 00bf 11       		.uleb128 0x11
 1189 00c0 01       		.uleb128 0x1
 1190 00c1 12       		.uleb128 0x12
 1191 00c2 06       		.uleb128 0x6
 1192 00c3 40       		.uleb128 0x40
 1193 00c4 18       		.uleb128 0x18
 1194 00c5 9742     		.uleb128 0x2117
 1195 00c7 19       		.uleb128 0x19
 1196 00c8 01       		.uleb128 0x1
 1197 00c9 13       		.uleb128 0x13
ARM GAS  /tmp/ccmwlFHJ.s 			page 22


 1198 00ca 00       		.byte	0
 1199 00cb 00       		.byte	0
 1200 00cc 10       		.uleb128 0x10
 1201 00cd 0B       		.uleb128 0xb
 1202 00ce 01       		.byte	0x1
 1203 00cf 55       		.uleb128 0x55
 1204 00d0 17       		.uleb128 0x17
 1205 00d1 01       		.uleb128 0x1
 1206 00d2 13       		.uleb128 0x13
 1207 00d3 00       		.byte	0
 1208 00d4 00       		.byte	0
 1209 00d5 11       		.uleb128 0x11
 1210 00d6 34       		.uleb128 0x34
 1211 00d7 00       		.byte	0
 1212 00d8 03       		.uleb128 0x3
 1213 00d9 0E       		.uleb128 0xe
 1214 00da 3A       		.uleb128 0x3a
 1215 00db 0B       		.uleb128 0xb
 1216 00dc 3B       		.uleb128 0x3b
 1217 00dd 0B       		.uleb128 0xb
 1218 00de 39       		.uleb128 0x39
 1219 00df 0B       		.uleb128 0xb
 1220 00e0 49       		.uleb128 0x49
 1221 00e1 13       		.uleb128 0x13
 1222 00e2 02       		.uleb128 0x2
 1223 00e3 17       		.uleb128 0x17
 1224 00e4 B742     		.uleb128 0x2137
 1225 00e6 17       		.uleb128 0x17
 1226 00e7 00       		.byte	0
 1227 00e8 00       		.byte	0
 1228 00e9 12       		.uleb128 0x12
 1229 00ea 1D       		.uleb128 0x1d
 1230 00eb 01       		.byte	0x1
 1231 00ec 31       		.uleb128 0x31
 1232 00ed 13       		.uleb128 0x13
 1233 00ee 52       		.uleb128 0x52
 1234 00ef 01       		.uleb128 0x1
 1235 00f0 B842     		.uleb128 0x2138
 1236 00f2 0B       		.uleb128 0xb
 1237 00f3 11       		.uleb128 0x11
 1238 00f4 01       		.uleb128 0x1
 1239 00f5 12       		.uleb128 0x12
 1240 00f6 06       		.uleb128 0x6
 1241 00f7 58       		.uleb128 0x58
 1242 00f8 0B       		.uleb128 0xb
 1243 00f9 59       		.uleb128 0x59
 1244 00fa 0B       		.uleb128 0xb
 1245 00fb 57       		.uleb128 0x57
 1246 00fc 0B       		.uleb128 0xb
 1247 00fd 01       		.uleb128 0x1
 1248 00fe 13       		.uleb128 0x13
 1249 00ff 00       		.byte	0
 1250 0100 00       		.byte	0
 1251 0101 13       		.uleb128 0x13
 1252 0102 34       		.uleb128 0x34
 1253 0103 00       		.byte	0
 1254 0104 31       		.uleb128 0x31
ARM GAS  /tmp/ccmwlFHJ.s 			page 23


 1255 0105 13       		.uleb128 0x13
 1256 0106 02       		.uleb128 0x2
 1257 0107 17       		.uleb128 0x17
 1258 0108 B742     		.uleb128 0x2137
 1259 010a 17       		.uleb128 0x17
 1260 010b 00       		.byte	0
 1261 010c 00       		.byte	0
 1262 010d 14       		.uleb128 0x14
 1263 010e 1D       		.uleb128 0x1d
 1264 010f 01       		.byte	0x1
 1265 0110 31       		.uleb128 0x31
 1266 0111 13       		.uleb128 0x13
 1267 0112 52       		.uleb128 0x52
 1268 0113 01       		.uleb128 0x1
 1269 0114 B842     		.uleb128 0x2138
 1270 0116 0B       		.uleb128 0xb
 1271 0117 55       		.uleb128 0x55
 1272 0118 17       		.uleb128 0x17
 1273 0119 58       		.uleb128 0x58
 1274 011a 0B       		.uleb128 0xb
 1275 011b 59       		.uleb128 0x59
 1276 011c 0B       		.uleb128 0xb
 1277 011d 57       		.uleb128 0x57
 1278 011e 0B       		.uleb128 0xb
 1279 011f 01       		.uleb128 0x1
 1280 0120 13       		.uleb128 0x13
 1281 0121 00       		.byte	0
 1282 0122 00       		.byte	0
 1283 0123 15       		.uleb128 0x15
 1284 0124 05       		.uleb128 0x5
 1285 0125 00       		.byte	0
 1286 0126 31       		.uleb128 0x31
 1287 0127 13       		.uleb128 0x13
 1288 0128 02       		.uleb128 0x2
 1289 0129 17       		.uleb128 0x17
 1290 012a B742     		.uleb128 0x2137
 1291 012c 17       		.uleb128 0x17
 1292 012d 00       		.byte	0
 1293 012e 00       		.byte	0
 1294 012f 16       		.uleb128 0x16
 1295 0130 898201   		.uleb128 0x4109
 1296 0133 00       		.byte	0
 1297 0134 11       		.uleb128 0x11
 1298 0135 01       		.uleb128 0x1
 1299 0136 31       		.uleb128 0x31
 1300 0137 13       		.uleb128 0x13
 1301 0138 00       		.byte	0
 1302 0139 00       		.byte	0
 1303 013a 17       		.uleb128 0x17
 1304 013b 1D       		.uleb128 0x1d
 1305 013c 01       		.byte	0x1
 1306 013d 31       		.uleb128 0x31
 1307 013e 13       		.uleb128 0x13
 1308 013f 52       		.uleb128 0x52
 1309 0140 01       		.uleb128 0x1
 1310 0141 B842     		.uleb128 0x2138
 1311 0143 0B       		.uleb128 0xb
ARM GAS  /tmp/ccmwlFHJ.s 			page 24


 1312 0144 55       		.uleb128 0x55
 1313 0145 17       		.uleb128 0x17
 1314 0146 58       		.uleb128 0x58
 1315 0147 0B       		.uleb128 0xb
 1316 0148 59       		.uleb128 0x59
 1317 0149 05       		.uleb128 0x5
 1318 014a 57       		.uleb128 0x57
 1319 014b 0B       		.uleb128 0xb
 1320 014c 00       		.byte	0
 1321 014d 00       		.byte	0
 1322 014e 18       		.uleb128 0x18
 1323 014f 1D       		.uleb128 0x1d
 1324 0150 01       		.byte	0x1
 1325 0151 31       		.uleb128 0x31
 1326 0152 13       		.uleb128 0x13
 1327 0153 52       		.uleb128 0x52
 1328 0154 01       		.uleb128 0x1
 1329 0155 B842     		.uleb128 0x2138
 1330 0157 0B       		.uleb128 0xb
 1331 0158 55       		.uleb128 0x55
 1332 0159 17       		.uleb128 0x17
 1333 015a 58       		.uleb128 0x58
 1334 015b 0B       		.uleb128 0xb
 1335 015c 59       		.uleb128 0x59
 1336 015d 0B       		.uleb128 0xb
 1337 015e 57       		.uleb128 0x57
 1338 015f 0B       		.uleb128 0xb
 1339 0160 00       		.byte	0
 1340 0161 00       		.byte	0
 1341 0162 19       		.uleb128 0x19
 1342 0163 1D       		.uleb128 0x1d
 1343 0164 01       		.byte	0x1
 1344 0165 31       		.uleb128 0x31
 1345 0166 13       		.uleb128 0x13
 1346 0167 52       		.uleb128 0x52
 1347 0168 01       		.uleb128 0x1
 1348 0169 B842     		.uleb128 0x2138
 1349 016b 0B       		.uleb128 0xb
 1350 016c 11       		.uleb128 0x11
 1351 016d 01       		.uleb128 0x1
 1352 016e 12       		.uleb128 0x12
 1353 016f 06       		.uleb128 0x6
 1354 0170 58       		.uleb128 0x58
 1355 0171 0B       		.uleb128 0xb
 1356 0172 59       		.uleb128 0x59
 1357 0173 05       		.uleb128 0x5
 1358 0174 57       		.uleb128 0x57
 1359 0175 0B       		.uleb128 0xb
 1360 0176 00       		.byte	0
 1361 0177 00       		.byte	0
 1362 0178 1A       		.uleb128 0x1a
 1363 0179 0F       		.uleb128 0xf
 1364 017a 00       		.byte	0
 1365 017b 0B       		.uleb128 0xb
 1366 017c 0B       		.uleb128 0xb
 1367 017d 49       		.uleb128 0x49
 1368 017e 13       		.uleb128 0x13
ARM GAS  /tmp/ccmwlFHJ.s 			page 25


 1369 017f 00       		.byte	0
 1370 0180 00       		.byte	0
 1371 0181 1B       		.uleb128 0x1b
 1372 0182 0B       		.uleb128 0xb
 1373 0183 01       		.byte	0x1
 1374 0184 55       		.uleb128 0x55
 1375 0185 17       		.uleb128 0x17
 1376 0186 00       		.byte	0
 1377 0187 00       		.byte	0
 1378 0188 1C       		.uleb128 0x1c
 1379 0189 2E       		.uleb128 0x2e
 1380 018a 00       		.byte	0
 1381 018b 03       		.uleb128 0x3
 1382 018c 0E       		.uleb128 0xe
 1383 018d 3A       		.uleb128 0x3a
 1384 018e 0B       		.uleb128 0xb
 1385 018f 3B       		.uleb128 0x3b
 1386 0190 05       		.uleb128 0x5
 1387 0191 39       		.uleb128 0x39
 1388 0192 0B       		.uleb128 0xb
 1389 0193 27       		.uleb128 0x27
 1390 0194 19       		.uleb128 0x19
 1391 0195 20       		.uleb128 0x20
 1392 0196 0B       		.uleb128 0xb
 1393 0197 00       		.byte	0
 1394 0198 00       		.byte	0
 1395 0199 1D       		.uleb128 0x1d
 1396 019a 2E       		.uleb128 0x2e
 1397 019b 01       		.byte	0x1
 1398 019c 03       		.uleb128 0x3
 1399 019d 0E       		.uleb128 0xe
 1400 019e 3A       		.uleb128 0x3a
 1401 019f 0B       		.uleb128 0xb
 1402 01a0 3B       		.uleb128 0x3b
 1403 01a1 05       		.uleb128 0x5
 1404 01a2 39       		.uleb128 0x39
 1405 01a3 0B       		.uleb128 0xb
 1406 01a4 27       		.uleb128 0x27
 1407 01a5 19       		.uleb128 0x19
 1408 01a6 20       		.uleb128 0x20
 1409 01a7 0B       		.uleb128 0xb
 1410 01a8 01       		.uleb128 0x1
 1411 01a9 13       		.uleb128 0x13
 1412 01aa 00       		.byte	0
 1413 01ab 00       		.byte	0
 1414 01ac 1E       		.uleb128 0x1e
 1415 01ad 05       		.uleb128 0x5
 1416 01ae 00       		.byte	0
 1417 01af 03       		.uleb128 0x3
 1418 01b0 0E       		.uleb128 0xe
 1419 01b1 3A       		.uleb128 0x3a
 1420 01b2 0B       		.uleb128 0xb
 1421 01b3 3B       		.uleb128 0x3b
 1422 01b4 05       		.uleb128 0x5
 1423 01b5 39       		.uleb128 0x39
 1424 01b6 0B       		.uleb128 0xb
 1425 01b7 49       		.uleb128 0x49
ARM GAS  /tmp/ccmwlFHJ.s 			page 26


 1426 01b8 13       		.uleb128 0x13
 1427 01b9 00       		.byte	0
 1428 01ba 00       		.byte	0
 1429 01bb 1F       		.uleb128 0x1f
 1430 01bc 2E       		.uleb128 0x2e
 1431 01bd 01       		.byte	0x1
 1432 01be 03       		.uleb128 0x3
 1433 01bf 0E       		.uleb128 0xe
 1434 01c0 3A       		.uleb128 0x3a
 1435 01c1 0B       		.uleb128 0xb
 1436 01c2 3B       		.uleb128 0x3b
 1437 01c3 0B       		.uleb128 0xb
 1438 01c4 39       		.uleb128 0x39
 1439 01c5 0B       		.uleb128 0xb
 1440 01c6 27       		.uleb128 0x27
 1441 01c7 19       		.uleb128 0x19
 1442 01c8 20       		.uleb128 0x20
 1443 01c9 0B       		.uleb128 0xb
 1444 01ca 01       		.uleb128 0x1
 1445 01cb 13       		.uleb128 0x13
 1446 01cc 00       		.byte	0
 1447 01cd 00       		.byte	0
 1448 01ce 20       		.uleb128 0x20
 1449 01cf 05       		.uleb128 0x5
 1450 01d0 00       		.byte	0
 1451 01d1 03       		.uleb128 0x3
 1452 01d2 0E       		.uleb128 0xe
 1453 01d3 3A       		.uleb128 0x3a
 1454 01d4 0B       		.uleb128 0xb
 1455 01d5 3B       		.uleb128 0x3b
 1456 01d6 0B       		.uleb128 0xb
 1457 01d7 39       		.uleb128 0x39
 1458 01d8 0B       		.uleb128 0xb
 1459 01d9 49       		.uleb128 0x49
 1460 01da 13       		.uleb128 0x13
 1461 01db 00       		.byte	0
 1462 01dc 00       		.byte	0
 1463 01dd 21       		.uleb128 0x21
 1464 01de 2E       		.uleb128 0x2e
 1465 01df 01       		.byte	0x1
 1466 01e0 03       		.uleb128 0x3
 1467 01e1 0E       		.uleb128 0xe
 1468 01e2 3A       		.uleb128 0x3a
 1469 01e3 0B       		.uleb128 0xb
 1470 01e4 3B       		.uleb128 0x3b
 1471 01e5 0B       		.uleb128 0xb
 1472 01e6 39       		.uleb128 0x39
 1473 01e7 0B       		.uleb128 0xb
 1474 01e8 27       		.uleb128 0x27
 1475 01e9 19       		.uleb128 0x19
 1476 01ea 49       		.uleb128 0x49
 1477 01eb 13       		.uleb128 0x13
 1478 01ec 20       		.uleb128 0x20
 1479 01ed 0B       		.uleb128 0xb
 1480 01ee 01       		.uleb128 0x1
 1481 01ef 13       		.uleb128 0x13
 1482 01f0 00       		.byte	0
ARM GAS  /tmp/ccmwlFHJ.s 			page 27


 1483 01f1 00       		.byte	0
 1484 01f2 22       		.uleb128 0x22
 1485 01f3 34       		.uleb128 0x34
 1486 01f4 00       		.byte	0
 1487 01f5 03       		.uleb128 0x3
 1488 01f6 0E       		.uleb128 0xe
 1489 01f7 3A       		.uleb128 0x3a
 1490 01f8 0B       		.uleb128 0xb
 1491 01f9 3B       		.uleb128 0x3b
 1492 01fa 0B       		.uleb128 0xb
 1493 01fb 39       		.uleb128 0x39
 1494 01fc 0B       		.uleb128 0xb
 1495 01fd 49       		.uleb128 0x49
 1496 01fe 13       		.uleb128 0x13
 1497 01ff 00       		.byte	0
 1498 0200 00       		.byte	0
 1499 0201 23       		.uleb128 0x23
 1500 0202 2E       		.uleb128 0x2e
 1501 0203 00       		.byte	0
 1502 0204 3F       		.uleb128 0x3f
 1503 0205 19       		.uleb128 0x19
 1504 0206 3C       		.uleb128 0x3c
 1505 0207 19       		.uleb128 0x19
 1506 0208 6E       		.uleb128 0x6e
 1507 0209 0E       		.uleb128 0xe
 1508 020a 03       		.uleb128 0x3
 1509 020b 0E       		.uleb128 0xe
 1510 020c 3A       		.uleb128 0x3a
 1511 020d 0B       		.uleb128 0xb
 1512 020e 3B       		.uleb128 0x3b
 1513 020f 05       		.uleb128 0x5
 1514 0210 39       		.uleb128 0x39
 1515 0211 0B       		.uleb128 0xb
 1516 0212 00       		.byte	0
 1517 0213 00       		.byte	0
 1518 0214 00       		.byte	0
 1519              		.section	.debug_loc,"",%progbits
 1520              	.Ldebug_loc0:
 1521              	.LVUS6:
 1522 0000 01       		.uleb128 .LVU58
 1523 0001 03       		.uleb128 .LVU60
 1524 0002 03       		.uleb128 .LVU60
 1525 0003 00       		.uleb128 .LVU66
 1526 0004 00       		.uleb128 .LVU66
 1527 0005 00       		.uleb128 .LVU70
 1528 0006 00       		.uleb128 .LVU70
 1529 0007 00       		.uleb128 .LVU77
 1530              	.LLST6:
 1531 0008 1E000000 		.4byte	.LVL9
 1532 000c 1E000000 		.4byte	.LVL9
 1533 0010 0100     		.2byte	0x1
 1534 0012 54       		.byte	0x54
 1535 0013 1E000000 		.4byte	.LVL9
 1536 0017 2A000000 		.4byte	.LVL11
 1537 001b 0300     		.2byte	0x3
 1538 001d 74       		.byte	0x74
 1539 001e 60       		.sleb128 -32
ARM GAS  /tmp/ccmwlFHJ.s 			page 28


 1540 001f 9F       		.byte	0x9f
 1541 0020 2A000000 		.4byte	.LVL11
 1542 0024 31000000 		.4byte	.LVL13-1
 1543 0028 0100     		.2byte	0x1
 1544 002a 53       		.byte	0x53
 1545 002b 31000000 		.4byte	.LVL13-1
 1546 002f 44000000 		.4byte	.LVL15
 1547 0033 0300     		.2byte	0x3
 1548 0035 74       		.byte	0x74
 1549 0036 60       		.sleb128 -32
 1550 0037 9F       		.byte	0x9f
 1551 0038 00000000 		.4byte	0
 1552 003c 00000000 		.4byte	0
 1553              	.LVUS7:
 1554 0040 00       		.uleb128 .LVU57
 1555 0041 01       		.uleb128 .LVU58
 1556              	.LLST7:
 1557 0042 1E000000 		.4byte	.LVL9
 1558 0046 1E000000 		.4byte	.LVL9
 1559 004a 0100     		.2byte	0x1
 1560 004c 54       		.byte	0x54
 1561 004d 00000000 		.4byte	0
 1562 0051 00000000 		.4byte	0
 1563              	.LVUS8:
 1564 0055 01       		.uleb128 .LVU63
 1565 0056 00       		.uleb128 .LVU66
 1566 0057 00       		.uleb128 .LVU66
 1567 0058 00       		.uleb128 .LVU67
 1568              	.LLST8:
 1569 0059 26000000 		.4byte	.LVL10
 1570 005d 2A000000 		.4byte	.LVL11
 1571 0061 0300     		.2byte	0x3
 1572 0063 74       		.byte	0x74
 1573 0064 60       		.sleb128 -32
 1574 0065 9F       		.byte	0x9f
 1575 0066 2A000000 		.4byte	.LVL11
 1576 006a 2E000000 		.4byte	.LVL12
 1577 006e 0100     		.2byte	0x1
 1578 0070 53       		.byte	0x53
 1579 0071 00000000 		.4byte	0
 1580 0075 00000000 		.4byte	0
 1581              	.LVUS4:
 1582 0079 06       		.uleb128 .LVU33
 1583 007a 00       		.uleb128 .LVU39
 1584              	.LLST4:
 1585 007b 00000000 		.4byte	.LVL5
 1586 007f 0A000000 		.4byte	.LVL6
 1587 0083 0300     		.2byte	0x3
 1588 0085 08       		.byte	0x8
 1589 0086 20       		.byte	0x20
 1590 0087 9F       		.byte	0x9f
 1591 0088 00000000 		.4byte	0
 1592 008c 00000000 		.4byte	0
 1593              	.LVUS5:
 1594 0090 05       		.uleb128 .LVU48
 1595 0091 00       		.uleb128 .LVU50
 1596              	.LLST5:
ARM GAS  /tmp/ccmwlFHJ.s 			page 29


 1597 0092 14000000 		.4byte	.LVL7
 1598 0096 18000000 		.4byte	.LVL8
 1599 009a 0200     		.2byte	0x2
 1600 009c 30       		.byte	0x30
 1601 009d 9F       		.byte	0x9f
 1602 009e 00000000 		.4byte	0
 1603 00a2 00000000 		.4byte	0
 1604              	.LVUS0:
 1605 00a6 01       		.uleb128 .LVU9
 1606 00a7 03       		.uleb128 .LVU11
 1607 00a8 03       		.uleb128 .LVU11
 1608 00a9 00       		.uleb128 .LVU15
 1609 00aa 00       		.uleb128 .LVU15
 1610 00ab 00       		.uleb128 .LVU24
 1611              	.LLST0:
 1612 00ac 08000000 		.4byte	.LVL0
 1613 00b0 08000000 		.4byte	.LVL0
 1614 00b4 0100     		.2byte	0x1
 1615 00b6 53       		.byte	0x53
 1616 00b7 08000000 		.4byte	.LVL0
 1617 00bb 0A000000 		.4byte	.LVL1
 1618 00bf 0300     		.2byte	0x3
 1619 00c1 73       		.byte	0x73
 1620 00c2 20       		.sleb128 32
 1621 00c3 9F       		.byte	0x9f
 1622 00c4 0A000000 		.4byte	.LVL1
 1623 00c8 10000000 		.4byte	.LVL3
 1624 00cc 0100     		.2byte	0x1
 1625 00ce 53       		.byte	0x53
 1626 00cf 00000000 		.4byte	0
 1627 00d3 00000000 		.4byte	0
 1628              	.LVUS1:
 1629 00d7 00       		.uleb128 .LVU8
 1630 00d8 01       		.uleb128 .LVU9
 1631              	.LLST1:
 1632 00d9 08000000 		.4byte	.LVL0
 1633 00dd 08000000 		.4byte	.LVL0
 1634 00e1 0100     		.2byte	0x1
 1635 00e3 53       		.byte	0x53
 1636 00e4 00000000 		.4byte	0
 1637 00e8 00000000 		.4byte	0
 1638              	.LVUS2:
 1639 00ec 04       		.uleb128 .LVU12
 1640 00ed 00       		.uleb128 .LVU15
 1641 00ee 00       		.uleb128 .LVU15
 1642 00ef 00       		.uleb128 .LVU16
 1643              	.LLST2:
 1644 00f0 08000000 		.4byte	.LVL0
 1645 00f4 0A000000 		.4byte	.LVL1
 1646 00f8 0300     		.2byte	0x3
 1647 00fa 73       		.byte	0x73
 1648 00fb 20       		.sleb128 32
 1649 00fc 9F       		.byte	0x9f
 1650 00fd 0A000000 		.4byte	.LVL1
 1651 0101 0E000000 		.4byte	.LVL2
 1652 0105 0100     		.2byte	0x1
 1653 0107 53       		.byte	0x53
ARM GAS  /tmp/ccmwlFHJ.s 			page 30


 1654 0108 00000000 		.4byte	0
 1655 010c 00000000 		.4byte	0
 1656              	.LVUS3:
 1657 0110 06       		.uleb128 .LVU22
 1658 0111 00       		.uleb128 .LVU25
 1659              	.LLST3:
 1660 0112 0E000000 		.4byte	.LVL2
 1661 0116 14000000 		.4byte	.LVL4
 1662 011a 0200     		.2byte	0x2
 1663 011c 30       		.byte	0x30
 1664 011d 9F       		.byte	0x9f
 1665 011e 00000000 		.4byte	0
 1666 0122 00000000 		.4byte	0
 1667              		.section	.debug_aranges,"",%progbits
 1668 0000 24000000 		.4byte	0x24
 1669 0004 0200     		.2byte	0x2
 1670 0006 00000000 		.4byte	.Ldebug_info0
 1671 000a 04       		.byte	0x4
 1672 000b 00       		.byte	0
 1673 000c 0000     		.2byte	0
 1674 000e 0000     		.2byte	0
 1675 0010 00000000 		.4byte	.LFB246
 1676 0014 1A000000 		.4byte	.LFE246-.LFB246
 1677 0018 00000000 		.4byte	.LFB247
 1678 001c 50000000 		.4byte	.LFE247-.LFB247
 1679 0020 00000000 		.4byte	0
 1680 0024 00000000 		.4byte	0
 1681              		.section	.debug_ranges,"",%progbits
 1682              	.Ldebug_ranges0:
 1683 0000 00000000 		.4byte	.LBB47
 1684 0004 00000000 		.4byte	.LBE47
 1685 0008 04000000 		.4byte	.LBB50
 1686 000c 08000000 		.4byte	.LBE50
 1687 0010 00000000 		.4byte	0
 1688 0014 00000000 		.4byte	0
 1689 0018 08000000 		.4byte	.LBB51
 1690 001c 08000000 		.4byte	.LBE51
 1691 0020 0A000000 		.4byte	.LBB54
 1692 0024 0E000000 		.4byte	.LBE54
 1693 0028 00000000 		.4byte	0
 1694 002c 00000000 		.4byte	0
 1695 0030 0E000000 		.4byte	.LBB55
 1696 0034 0E000000 		.4byte	.LBE55
 1697 0038 0E000000 		.4byte	.LBB60
 1698 003c 0E000000 		.4byte	.LBE60
 1699 0040 0E000000 		.4byte	.LBB61
 1700 0044 14000000 		.4byte	.LBE61
 1701 0048 00000000 		.4byte	0
 1702 004c 00000000 		.4byte	0
 1703 0050 00000000 		.4byte	.LBB62
 1704 0054 00000000 		.4byte	.LBE62
 1705 0058 00000000 		.4byte	.LBB73
 1706 005c 00000000 		.4byte	.LBE73
 1707 0060 00000000 		.4byte	.LBB74
 1708 0064 00000000 		.4byte	.LBE74
 1709 0068 02000000 		.4byte	.LBB75
 1710 006c 04000000 		.4byte	.LBE75
ARM GAS  /tmp/ccmwlFHJ.s 			page 31


 1711 0070 06000000 		.4byte	.LBB76
 1712 0074 0A000000 		.4byte	.LBE76
 1713 0078 00000000 		.4byte	0
 1714 007c 00000000 		.4byte	0
 1715 0080 14000000 		.4byte	.LBB77
 1716 0084 14000000 		.4byte	.LBE77
 1717 0088 14000000 		.4byte	.LBB84
 1718 008c 18000000 		.4byte	.LBE84
 1719 0090 00000000 		.4byte	0
 1720 0094 00000000 		.4byte	0
 1721 0098 14000000 		.4byte	.LBB79
 1722 009c 14000000 		.4byte	.LBE79
 1723 00a0 14000000 		.4byte	.LBB82
 1724 00a4 18000000 		.4byte	.LBE82
 1725 00a8 00000000 		.4byte	0
 1726 00ac 00000000 		.4byte	0
 1727 00b0 1A000000 		.4byte	.LBB85
 1728 00b4 3A000000 		.4byte	.LBE85
 1729 00b8 3C000000 		.4byte	.LBB92
 1730 00bc 42000000 		.4byte	.LBE92
 1731 00c0 00000000 		.4byte	0
 1732 00c4 00000000 		.4byte	0
 1733 00c8 26000000 		.4byte	.LBB88
 1734 00cc 26000000 		.4byte	.LBE88
 1735 00d0 2A000000 		.4byte	.LBB91
 1736 00d4 2E000000 		.4byte	.LBE91
 1737 00d8 00000000 		.4byte	0
 1738 00dc 00000000 		.4byte	0
 1739 00e0 00000000 		.4byte	.LFB246
 1740 00e4 1A000000 		.4byte	.LFE246
 1741 00e8 00000000 		.4byte	.LFB247
 1742 00ec 50000000 		.4byte	.LFE247
 1743 00f0 00000000 		.4byte	0
 1744 00f4 00000000 		.4byte	0
 1745              		.section	.debug_line,"",%progbits
 1746              	.Ldebug_line0:
 1747 0000 86020000 		.section	.debug_str,"MS",%progbits,1
 1747      0300FA00 
 1747      00000201 
 1747      FB0E0D00 
 1747      01010101 
 1748              	.LASF37:
 1749 0000 706F7274 		.ascii	"port_lock_from_isr\000"
 1749      5F6C6F63 
 1749      6B5F6672 
 1749      6F6D5F69 
 1749      737200
 1750              	.LASF4:
 1751 0013 73686F72 		.ascii	"short int\000"
 1751      7420696E 
 1751      7400
 1752              	.LASF39:
 1753 001d 706F7274 		.ascii	"port_lock\000"
 1753      5F6C6F63 
 1753      6B00
 1754              	.LASF12:
 1755 0027 43505549 		.ascii	"CPUID\000"
ARM GAS  /tmp/ccmwlFHJ.s 			page 32


 1755      4400
 1756              	.LASF42:
 1757 002d 76616C75 		.ascii	"value\000"
 1757      6500
 1758              	.LASF28:
 1759 0033 72656761 		.ascii	"regarm_t\000"
 1759      726D5F74 
 1759      00
 1760              	.LASF8:
 1761 003c 75696E74 		.ascii	"uint8_t\000"
 1761      385F7400 
 1762              	.LASF27:
 1763 0044 5343425F 		.ascii	"SCB_Type\000"
 1763      54797065 
 1763      00
 1764              	.LASF9:
 1765 004d 75696E74 		.ascii	"uint32_t\000"
 1765      33325F74 
 1765      00
 1766              	.LASF2:
 1767 0056 6C6F6E67 		.ascii	"long double\000"
 1767      20646F75 
 1767      626C6500 
 1768              	.LASF13:
 1769 0062 49435352 		.ascii	"ICSR\000"
 1769      00
 1770              	.LASF1:
 1771 0067 6C6F6E67 		.ascii	"long long int\000"
 1771      206C6F6E 
 1771      6720696E 
 1771      7400
 1772              	.LASF45:
 1773 0075 2E2E2F2E 		.ascii	"../../../os/common/ports/ARMCMx/chcore_v7m.c\000"
 1773      2E2F2E2E 
 1773      2F6F732F 
 1773      636F6D6D 
 1773      6F6E2F70 
 1774              	.LASF21:
 1775 00a2 42464152 		.ascii	"BFAR\000"
 1775      00
 1776              	.LASF50:
 1777 00a7 63685363 		.ascii	"chSchIsPreemptionRequired\000"
 1777      68497350 
 1777      7265656D 
 1777      7074696F 
 1777      6E526571 
 1778              	.LASF5:
 1779 00c1 6C6F6E67 		.ascii	"long int\000"
 1779      20696E74 
 1779      00
 1780              	.LASF43:
 1781 00ca 746F704F 		.ascii	"topOfProcStack\000"
 1781      6650726F 
 1781      63537461 
 1781      636B00
 1782              	.LASF46:
 1783 00d9 2F686F6D 		.ascii	"/home/tfateba/nlab/ip/trunk/demos/STM32/RT-STM32F40"
ARM GAS  /tmp/ccmwlFHJ.s 			page 33


 1783      652F7466 
 1783      61746562 
 1783      612F6E6C 
 1783      61622F69 
 1784 010c 372D4449 		.ascii	"7-DISCOVERY-G++\000"
 1784      53434F56 
 1784      4552592D 
 1784      472B2B00 
 1785              	.LASF48:
 1786 011c 5F5F6765 		.ascii	"__get_PSP\000"
 1786      745F5053 
 1786      5000
 1787              	.LASF49:
 1788 0126 72657375 		.ascii	"result\000"
 1788      6C7400
 1789              	.LASF41:
 1790 012d 5F5F7365 		.ascii	"__set_PSP\000"
 1790      745F5053 
 1790      5000
 1791              	.LASF33:
 1792 0137 5F706F72 		.ascii	"_port_irq_epilogue\000"
 1792      745F6972 
 1792      715F6570 
 1792      696C6F67 
 1792      756500
 1793              	.LASF17:
 1794 014a 43465352 		.ascii	"CFSR\000"
 1794      00
 1795              	.LASF29:
 1796 014f 6C725F74 		.ascii	"lr_thd\000"
 1796      686400
 1797              	.LASF30:
 1798 0156 78707372 		.ascii	"xpsr\000"
 1798      00
 1799              	.LASF15:
 1800 015b 41495243 		.ascii	"AIRCR\000"
 1800      5200
 1801              	.LASF6:
 1802 0161 756E7369 		.ascii	"unsigned char\000"
 1802      676E6564 
 1802      20636861 
 1802      7200
 1803              	.LASF3:
 1804 016f 7369676E 		.ascii	"signed char\000"
 1804      65642063 
 1804      68617200 
 1805              	.LASF11:
 1806 017b 6C6F6E67 		.ascii	"long long unsigned int\000"
 1806      206C6F6E 
 1806      6720756E 
 1806      7369676E 
 1806      65642069 
 1807              	.LASF16:
 1808 0192 53484353 		.ascii	"SHCSR\000"
 1808      5200
 1809              	.LASF34:
 1810 0198 5356435F 		.ascii	"SVC_Handler\000"
ARM GAS  /tmp/ccmwlFHJ.s 			page 34


 1810      48616E64 
 1810      6C657200 
 1811              	.LASF20:
 1812 01a4 4D4D4641 		.ascii	"MMFAR\000"
 1812      5200
 1813              	.LASF7:
 1814 01aa 73686F72 		.ascii	"short unsigned int\000"
 1814      7420756E 
 1814      7369676E 
 1814      65642069 
 1814      6E7400
 1815              	.LASF35:
 1816 01bd 63747870 		.ascii	"ctxp\000"
 1816      00
 1817              	.LASF44:
 1818 01c2 474E5520 		.ascii	"GNU C17 10.3.1 20210621 (release) -mcpu=cortex-m4 -"
 1818      43313720 
 1818      31302E33 
 1818      2E312032 
 1818      30323130 
 1819 01f5 6D6E6F2D 		.ascii	"mno-thumb-interwork -mthumb -mfloat-abi=soft -march"
 1819      7468756D 
 1819      622D696E 
 1819      74657277 
 1819      6F726B20 
 1820 0228 3D61726D 		.ascii	"=armv7e-m -ggdb -O2 -fomit-frame-pointer -falign-fu"
 1820      7637652D 
 1820      6D202D67 
 1820      67646220 
 1820      2D4F3220 
 1821 025b 6E637469 		.ascii	"nctions=16 -ffunction-sections -fdata-sections -fno"
 1821      6F6E733D 
 1821      3136202D 
 1821      6666756E 
 1821      6374696F 
 1822 028e 2D636F6D 		.ascii	"-common\000"
 1822      6D6F6E00 
 1823              	.LASF31:
 1824 0296 63686172 		.ascii	"char\000"
 1824      00
 1825              	.LASF14:
 1826 029b 56544F52 		.ascii	"VTOR\000"
 1826      00
 1827              	.LASF24:
 1828 02a0 49534152 		.ascii	"ISAR\000"
 1828      00
 1829              	.LASF19:
 1830 02a5 44465352 		.ascii	"DFSR\000"
 1830      00
 1831              	.LASF32:
 1832 02aa 5F426F6F 		.ascii	"_Bool\000"
 1832      6C00
 1833              	.LASF38:
 1834 02b0 706F7274 		.ascii	"port_unlock\000"
 1834      5F756E6C 
 1834      6F636B00 
 1835              	.LASF18:
ARM GAS  /tmp/ccmwlFHJ.s 			page 35


 1836 02bc 48465352 		.ascii	"HFSR\000"
 1836      00
 1837              	.LASF23:
 1838 02c1 4D4D4652 		.ascii	"MMFR\000"
 1838      00
 1839              	.LASF25:
 1840 02c6 52455345 		.ascii	"RESERVED0\000"
 1840      52564544 
 1840      3000
 1841              	.LASF10:
 1842 02d0 6C6F6E67 		.ascii	"long unsigned int\000"
 1842      20756E73 
 1842      69676E65 
 1842      6420696E 
 1842      7400
 1843              	.LASF40:
 1844 02e2 5F5F7365 		.ascii	"__set_BASEPRI\000"
 1844      745F4241 
 1844      53455052 
 1844      4900
 1845              	.LASF36:
 1846 02f0 706F7274 		.ascii	"port_unlock_from_isr\000"
 1846      5F756E6C 
 1846      6F636B5F 
 1846      66726F6D 
 1846      5F697372 
 1847              	.LASF47:
 1848 0305 706F7274 		.ascii	"port_extctx\000"
 1848      5F657874 
 1848      63747800 
 1849              	.LASF22:
 1850 0311 41465352 		.ascii	"AFSR\000"
 1850      00
 1851              	.LASF0:
 1852 0316 756E7369 		.ascii	"unsigned int\000"
 1852      676E6564 
 1852      20696E74 
 1852      00
 1853              	.LASF26:
 1854 0323 43504143 		.ascii	"CPACR\000"
 1854      5200
 1855              		.ident	"GCC: (15:10.3-2021.07-4) 10.3.1 20210621 (release)"
ARM GAS  /tmp/ccmwlFHJ.s 			page 36


DEFINED SYMBOLS
                            *ABS*:0000000000000000 chcore_v7m.c
     /tmp/ccmwlFHJ.s:16     .text.SVC_Handler:0000000000000000 $t
     /tmp/ccmwlFHJ.s:25     .text.SVC_Handler:0000000000000000 SVC_Handler
     /tmp/ccmwlFHJ.s:139    .text._port_irq_epilogue:0000000000000000 $t
     /tmp/ccmwlFHJ.s:147    .text._port_irq_epilogue:0000000000000000 _port_irq_epilogue
     /tmp/ccmwlFHJ.s:340    .text._port_irq_epilogue:0000000000000044 $d

UNDEFINED SYMBOLS
chSchIsPreemptionRequired
_port_switch_from_isr
_port_exit_from_isr
