ARM GAS  /tmp/ccmwlFHJ.s 			page 1


   1              		.cpu cortex-m4
   2              		.eabi_attribute 20, 1
   3              		.eabi_attribute 21, 1
   4              		.eabi_attribute 23, 3
   5              		.eabi_attribute 24, 1
   6              		.eabi_attribute 25, 1
   7              		.eabi_attribute 26, 1
   8              		.eabi_attribute 30, 2
   9              		.eabi_attribute 34, 1
  10              		.eabi_attribute 18, 4
  11              		.file	"chcore_v7m.c"
  12              		.text
  13              	.Ltext0:
  14              		.cfi_sections	.debug_frame
  15              		.section	.text.SVC_Handler,"ax",%progbits
  16              		.align	1
  17              		.p2align 4,,15
  18              		.global	SVC_Handler
  19              		.arch armv7e-m
  20              		.syntax unified
  21              		.thumb
  22              		.thumb_func
  23              		.fpu softvfp
  24              		.type	SVC_Handler, %function
  25              	SVC_Handler:
  26              	.LFB246:
  27              		.file 1 "../../../os/common/ports/ARMCMx/chcore_v7m.c"
  28              		.loc 1 62 24 view -0
  29              		.cfi_startproc
  30              		@ args = 0, pretend = 0, frame = 0
  31              		@ frame_needed = 1, uses_anonymous_args = 0
  32              		@ link register save eliminated.
  33              		.loc 1 64 3 view .LVU1
  34              		.loc 1 72 3 view .LVU2
  35              	.LBB47:
  36              	.LBI47:
  37              		.file 2 "../../../os/common/ext/CMSIS/include/cmsis_gcc.h"
  38              		.loc 2 148 61 view .LVU3
  39              	.LBB48:
  40              		.loc 2 150 3 view .LVU4
  41              		.loc 2 152 3 view .LVU5
  42              	.LBE48:
  43              	.LBE47:
  44              		.loc 1 62 24 is_stmt 0 view .LVU6
  45 0000 80B4     		push	{r7}
  46              		.cfi_def_cfa_offset 4
  47              		.cfi_offset 7, -4
  48 0002 00AF     		add	r7, sp, #0
  49              		.cfi_def_cfa_register 7
  50              	.LBB50:
  51              	.LBB49:
  52              		.loc 2 152 3 view .LVU7
  53              		.syntax unified
  54              	@ 152 "../../../os/common/ext/CMSIS/include/cmsis_gcc.h" 1
  55 0004 EFF30983 		MRS r3, psp
  56              	
  57              	@ 0 "" 2
ARM GAS  /tmp/ccmwlFHJ.s 			page 2


  58              	.LVL0:
  59              		.loc 2 153 3 is_stmt 1 view .LVU8
  60              		.loc 2 153 3 is_stmt 0 view .LVU9
  61              		.thumb
  62              		.syntax unified
  63              	.LBE49:
  64              	.LBE50:
  65              		.loc 1 76 3 is_stmt 1 view .LVU10
  66              		.loc 1 79 3 view .LVU11
  67              	.LBB51:
  68              	.LBI51:
  69              		.loc 2 162 57 view .LVU12
  70              	.LBB52:
  71              		.loc 2 164 3 view .LVU13
  72              	.LBE52:
  73              	.LBE51:
  74              		.loc 1 76 7 is_stmt 0 view .LVU14
  75 0008 2033     		adds	r3, r3, #32
  76              	.LVL1:
  77              	.LBB54:
  78              	.LBB53:
  79              		.loc 2 164 3 view .LVU15
  80              		.syntax unified
  81              	@ 164 "../../../os/common/ext/CMSIS/include/cmsis_gcc.h" 1
  82 000a 83F30988 		MSR psp, r3
  83              	
  84              	@ 0 "" 2
  85              	.LVL2:
  86              		.loc 2 164 3 view .LVU16
  87              		.thumb
  88              		.syntax unified
  89              	.LBE53:
  90              	.LBE54:
  91              		.loc 1 82 3 is_stmt 1 view .LVU17
  92              	.LBB55:
  93              	.LBI55:
  94              		.file 3 "../../../os/common/ports/ARMCMx/chcore_v7m.h"
  95              		.loc 3 644 20 view .LVU18
  96              	.LBE55:
  97              		.loc 3 646 3 view .LVU19
  98              	.LBB60:
  99              	.LBB56:
 100              	.LBI56:
 101              		.loc 3 618 20 view .LVU20
 102              	.LBE56:
 103              	.LBE60:
 104              		.loc 3 621 3 view .LVU21
 105              	.LBB61:
 106              	.LBB59:
 107              	.LBB57:
 108              	.LBI57:
 109              		.loc 2 262 57 view .LVU22
 110              	.LBB58:
 111              		.loc 2 264 3 view .LVU23
 112 000e 0023     		movs	r3, #0
 113              	.LVL3:
 114              		.loc 2 264 3 is_stmt 0 view .LVU24
ARM GAS  /tmp/ccmwlFHJ.s 			page 3


 115              		.syntax unified
 116              	@ 264 "../../../os/common/ext/CMSIS/include/cmsis_gcc.h" 1
 117 0010 83F31188 		MSR basepri, r3
 118              	@ 0 "" 2
 119              	.LVL4:
 120              		.loc 2 264 3 view .LVU25
 121              		.thumb
 122              		.syntax unified
 123              	.LBE58:
 124              	.LBE57:
 125              	.LBE59:
 126              	.LBE61:
 127              		.loc 1 83 1 view .LVU26
 128 0014 BD46     		mov	sp, r7
 129              		.cfi_def_cfa_register 13
 130              		@ sp needed
 131 0016 80BC     		pop	{r7}
 132              		.cfi_restore 7
 133              		.cfi_def_cfa_offset 0
 134 0018 7047     		bx	lr
 135              		.cfi_endproc
 136              	.LFE246:
 137              		.size	SVC_Handler, .-SVC_Handler
 138 001a 00BF     		.section	.text._port_irq_epilogue,"ax",%progbits
 139              		.align	1
 140              		.p2align 4,,15
 141              		.global	_port_irq_epilogue
 142              		.syntax unified
 143              		.thumb
 144              		.thumb_func
 145              		.fpu softvfp
 146              		.type	_port_irq_epilogue, %function
 147              	_port_irq_epilogue:
 148              	.LFB247:
 149              		.loc 1 122 31 is_stmt 1 view -0
 150              		.cfi_startproc
 151              		@ args = 0, pretend = 0, frame = 0
 152              		@ frame_needed = 1, uses_anonymous_args = 0
 153              		.loc 1 124 3 view .LVU28
 154              	.LBB62:
 155              	.LBI62:
 156              		.loc 3 633 20 view .LVU29
 157              	.LBE62:
 158              		.loc 3 635 3 view .LVU30
 159              	.LBB73:
 160              	.LBB63:
 161              	.LBI63:
 162              		.loc 3 594 20 view .LVU31
 163              	.LBE63:
 164              	.LBE73:
 165              		.loc 3 602 3 view .LVU32
 166              	.LVL5:
 167              	.LBB74:
 168              	.LBB70:
 169              	.LBB64:
 170              	.LBI64:
 171              		.loc 2 262 57 view .LVU33
ARM GAS  /tmp/ccmwlFHJ.s 			page 4


 172              	.LBB65:
 173              		.loc 2 264 3 view .LVU34
 174              	.LBE65:
 175              	.LBE64:
 176              	.LBE70:
 177              	.LBE74:
 178              		.loc 1 122 31 is_stmt 0 view .LVU35
 179 0000 98B5     		push	{r3, r4, r7, lr}
 180              		.cfi_def_cfa_offset 16
 181              		.cfi_offset 3, -16
 182              		.cfi_offset 4, -12
 183              		.cfi_offset 7, -8
 184              		.cfi_offset 14, -4
 185              	.LBB75:
 186              	.LBB71:
 187              	.LBB68:
 188              	.LBB66:
 189              		.loc 2 264 3 view .LVU36
 190 0002 2023     		movs	r3, #32
 191              	.LBE66:
 192              	.LBE68:
 193              	.LBE71:
 194              	.LBE75:
 195              		.loc 1 122 31 view .LVU37
 196 0004 00AF     		add	r7, sp, #0
 197              		.cfi_def_cfa_register 7
 198              	.LBB76:
 199              	.LBB72:
 200              	.LBB69:
 201              	.LBB67:
 202              		.loc 2 264 3 view .LVU38
 203              		.syntax unified
 204              	@ 264 "../../../os/common/ext/CMSIS/include/cmsis_gcc.h" 1
 205 0006 83F31188 		MSR basepri, r3
 206              	@ 0 "" 2
 207              	.LVL6:
 208              		.loc 2 264 3 view .LVU39
 209              		.thumb
 210              		.syntax unified
 211              	.LBE67:
 212              	.LBE69:
 213              	.LBE72:
 214              	.LBE76:
 215              		.loc 1 125 3 is_stmt 1 view .LVU40
 216              		.loc 1 125 11 is_stmt 0 view .LVU41
 217 000a 0E4B     		ldr	r3, .L10
 218 000c 5B68     		ldr	r3, [r3, #4]
 219              		.loc 1 125 6 view .LVU42
 220 000e 13F40063 		ands	r3, r3, #2048
 221 0012 02D1     		bne	.L9
 222              		.loc 1 165 3 is_stmt 1 view .LVU43
 223              	.LBB77:
 224              	.LBI77:
 225              		.loc 3 644 20 view .LVU44
 226              	.LBB78:
 227              		.loc 3 646 3 view .LVU45
 228              	.LBB79:
ARM GAS  /tmp/ccmwlFHJ.s 			page 5


 229              	.LBI79:
 230              		.loc 3 618 20 view .LVU46
 231              	.LBE79:
 232              	.LBE78:
 233              	.LBE77:
 234              		.loc 3 621 3 view .LVU47
 235              	.LVL7:
 236              	.LBB84:
 237              	.LBB83:
 238              	.LBB82:
 239              	.LBB80:
 240              	.LBI80:
 241              		.loc 2 262 57 view .LVU48
 242              	.LBB81:
 243              		.loc 2 264 3 view .LVU49
 244              		.syntax unified
 245              	@ 264 "../../../os/common/ext/CMSIS/include/cmsis_gcc.h" 1
 246 0014 83F31188 		MSR basepri, r3
 247              	@ 0 "" 2
 248              	.LVL8:
 249              		.loc 2 264 3 is_stmt 0 view .LVU50
 250              		.thumb
 251              		.syntax unified
 252              	.LBE81:
 253              	.LBE80:
 254              	.LBE82:
 255              	.LBE83:
 256              	.LBE84:
 257              		.loc 1 166 1 view .LVU51
 258 0018 98BD     		pop	{r3, r4, r7, pc}
 259              	.L9:
 260              	.LBB85:
 261              		.loc 1 126 5 is_stmt 1 view .LVU52
 262              		.loc 1 134 5 view .LVU53
 263              	.LBB86:
 264              	.LBI86:
 265              		.loc 2 148 61 view .LVU54
 266              	.LBB87:
 267              		.loc 2 150 3 view .LVU55
 268              		.loc 2 152 3 view .LVU56
 269              		.syntax unified
 270              	@ 152 "../../../os/common/ext/CMSIS/include/cmsis_gcc.h" 1
 271 001a EFF30984 		MRS r4, psp
 272              	
 273              	@ 0 "" 2
 274              	.LVL9:
 275              		.loc 2 153 3 view .LVU57
 276              		.loc 2 153 3 is_stmt 0 view .LVU58
 277              		.thumb
 278              		.syntax unified
 279              	.LBE87:
 280              	.LBE86:
 281              		.loc 1 138 5 is_stmt 1 view .LVU59
 282              		.loc 1 141 5 view .LVU60
 283              		.loc 1 141 16 is_stmt 0 view .LVU61
 284 001e 4FF08073 		mov	r3, #16777216
 285 0022 44F8043C 		str	r3, [r4, #-4]
ARM GAS  /tmp/ccmwlFHJ.s 			page 6


 286              		.loc 1 147 5 is_stmt 1 view .LVU62
 287              	.LVL10:
 288              	.LBB88:
 289              	.LBI88:
 290              		.loc 2 162 57 view .LVU63
 291              	.LBB89:
 292              		.loc 2 164 3 view .LVU64
 293              	.LBE89:
 294              	.LBE88:
 295              		.loc 1 138 9 is_stmt 0 view .LVU65
 296 0026 A4F12003 		sub	r3, r4, #32
 297              	.LVL11:
 298              	.LBB91:
 299              	.LBB90:
 300              		.loc 2 164 3 view .LVU66
 301              		.syntax unified
 302              	@ 164 "../../../os/common/ext/CMSIS/include/cmsis_gcc.h" 1
 303 002a 83F30988 		MSR psp, r3
 304              	
 305              	@ 0 "" 2
 306              	.LVL12:
 307              		.loc 2 164 3 view .LVU67
 308              		.thumb
 309              		.syntax unified
 310              	.LBE90:
 311              	.LBE91:
 312              		.loc 1 151 5 is_stmt 1 view .LVU68
 313              		.loc 1 151 9 is_stmt 0 view .LVU69
 314 002e FFF7FEFF 		bl	chSchIsPreemptionRequired
 315              	.LVL13:
 316              		.loc 1 151 8 view .LVU70
 317 0032 18B1     		cbz	r0, .L6
 318              		.loc 1 153 7 is_stmt 1 view .LVU71
 319              		.loc 1 153 16 is_stmt 0 view .LVU72
 320 0034 044B     		ldr	r3, .L10+4
 321 0036 44F8083C 		str	r3, [r4, #-8]
 322              	.LBE85:
 323              		.loc 1 166 1 view .LVU73
 324 003a 98BD     		pop	{r3, r4, r7, pc}
 325              	.LVL14:
 326              	.L6:
 327              	.LBB92:
 328              		.loc 1 158 7 is_stmt 1 view .LVU74
 329              		.loc 1 158 16 is_stmt 0 view .LVU75
 330 003c 034B     		ldr	r3, .L10+8
 331 003e 44F8083C 		str	r3, [r4, #-8]
 332              	.LBE92:
 333              		.loc 1 166 1 view .LVU76
 334 0042 98BD     		pop	{r3, r4, r7, pc}
 335              	.LVL15:
 336              	.L11:
 337              		.loc 1 166 1 view .LVU77
 338              		.align	2
 339              	.L10:
 340 0044 00ED00E0 		.word	-536810240
 341 0048 00000000 		.word	_port_switch_from_isr
 342 004c 00000000 		.word	_port_exit_from_isr
ARM GAS  /tmp/ccmwlFHJ.s 			page 7


 343              		.cfi_endproc
 344              	.LFE247:
 345              		.size	_port_irq_epilogue, .-_port_irq_epilogue
 346              		.text
 347              	.Letext0:
 348              		.file 4 "/usr/lib/gcc/arm-none-eabi/10.3.1/include/stdint.h"
 349              		.file 5 "../../../os/common/ext/CMSIS/include/core_cm4.h"
 350              		.file 6 "../../../os/common/ports/ARMCMx/chcore.h"
 351              		.file 7 "../../../os/rt/include/chschd.h"