ARM GAS  /tmp/ccdzvlYC.s 			page 1


   1              		.cpu cortex-m4
   2              		.eabi_attribute 20, 1
   3              		.eabi_attribute 21, 1
   4              		.eabi_attribute 23, 3
   5              		.eabi_attribute 24, 1
   6              		.eabi_attribute 25, 1
   7              		.eabi_attribute 26, 1
   8              		.eabi_attribute 30, 2
   9              		.eabi_attribute 34, 1
  10              		.eabi_attribute 18, 4
  11              		.file	"chcond.c"
  12              		.text
  13              	.Ltext0:
  14              		.cfi_sections	.debug_frame
  15              		.section	.text.chCondObjectInit,"ax",%progbits
  16              		.align	1
  17              		.p2align 4,,15
  18              		.global	chCondObjectInit
  19              		.arch armv7e-m
  20              		.syntax unified
  21              		.thumb
  22              		.thumb_func
  23              		.fpu softvfp
  24              		.type	chCondObjectInit, %function
  25              	chCondObjectInit:
  26              	.LVL0:
  27              	.LFB246:
  28              		.file 1 "../../../os/rt/src/chcond.c"
  29              		.loc 1 75 49 view -0
  30              		.cfi_startproc
  31              		@ args = 0, pretend = 0, frame = 0
  32              		@ frame_needed = 0, uses_anonymous_args = 0
  33              		@ link register save eliminated.
  34              		.loc 1 77 3 view .LVU1
  35              		.loc 1 77 3 view .LVU2
  36              		.loc 1 77 3 view .LVU3
  37              		.loc 1 79 3 view .LVU4
  38              	.LBB79:
  39              	.LBI79:
  40              		.file 2 "../../../os/rt/include/chschd.h"
  41              		.loc 2 548 20 view .LVU5
  42              	.LBB80:
  43              		.loc 2 550 3 view .LVU6
  44              		.loc 2 551 13 is_stmt 0 view .LVU7
  45 0000 C0E90000 		strd	r0, r0, [r0]
  46              	.LVL1:
  47              		.loc 2 551 13 view .LVU8
  48              	.LBE80:
  49              	.LBE79:
  50              		.loc 1 80 1 view .LVU9
  51 0004 7047     		bx	lr
  52              		.cfi_endproc
  53              	.LFE246:
  54              		.size	chCondObjectInit, .-chCondObjectInit
  55 0006 00BF     		.section	.text.chCondSignal,"ax",%progbits
  56              		.align	1
  57              		.p2align 4,,15
ARM GAS  /tmp/ccdzvlYC.s 			page 2


  58              		.global	chCondSignal
  59              		.syntax unified
  60              		.thumb
  61              		.thumb_func
  62              		.fpu softvfp
  63              		.type	chCondSignal, %function
  64              	chCondSignal:
  65              	.LVL2:
  66              	.LFB247:
  67              		.loc 1 89 45 is_stmt 1 view -0
  68              		.cfi_startproc
  69              		@ args = 0, pretend = 0, frame = 0
  70              		@ frame_needed = 0, uses_anonymous_args = 0
  71              		.loc 1 91 3 view .LVU11
  72              		.loc 1 91 3 view .LVU12
  73              		.loc 1 91 3 view .LVU13
  74              		.loc 1 93 3 view .LVU14
  75              	.LBB81:
  76              	.LBI81:
  77              		.file 3 "../../../os/rt/include/chsys.h"
  78              		.loc 3 374 20 view .LVU15
  79              	.LBE81:
  80              		.loc 3 376 3 view .LVU16
  81              	.LBB92:
  82              	.LBB82:
  83              	.LBI82:
  84              		.file 4 "../../../os/common/ports/ARMCMx/chcore_v7m.h"
  85              		.loc 4 594 20 view .LVU17
  86              	.LBE82:
  87              	.LBE92:
  88              		.loc 4 602 3 view .LVU18
  89              	.LBB93:
  90              	.LBB89:
  91              	.LBB83:
  92              	.LBI83:
  93              		.file 5 "../../../os/common/ext/CMSIS/include/cmsis_gcc.h"
  94              		.loc 5 262 57 view .LVU19
  95              	.LBB84:
  96              		.loc 5 264 3 view .LVU20
  97              	.LBE84:
  98              	.LBE83:
  99              	.LBE89:
 100              	.LBE93:
 101              		.loc 1 89 45 is_stmt 0 view .LVU21
 102 0000 08B5     		push	{r3, lr}
 103              		.cfi_def_cfa_offset 8
 104              		.cfi_offset 3, -8
 105              		.cfi_offset 14, -4
 106              	.LBB94:
 107              	.LBB90:
 108              	.LBB87:
 109              	.LBB85:
 110              		.loc 5 264 3 view .LVU22
 111 0002 2022     		movs	r2, #32
 112              	.LBE85:
 113              	.LBE87:
 114              	.LBE90:
ARM GAS  /tmp/ccdzvlYC.s 			page 3


 115              	.LBE94:
 116              		.loc 1 89 45 view .LVU23
 117 0004 0346     		mov	r3, r0
 118              	.LBB95:
 119              	.LBB91:
 120              	.LBB88:
 121              	.LBB86:
 122              		.loc 5 264 3 view .LVU24
 123              		.syntax unified
 124              	@ 264 "../../../os/common/ext/CMSIS/include/cmsis_gcc.h" 1
 125 0006 82F31188 		MSR basepri, r2
 126              	@ 0 "" 2
 127              	.LVL3:
 128              		.loc 5 264 3 view .LVU25
 129              		.thumb
 130              		.syntax unified
 131              	.LBE86:
 132              	.LBE88:
 133              	.LBE91:
 134              	.LBE95:
 135              		.loc 3 377 34 is_stmt 1 view .LVU26
 136              		.loc 3 378 20 view .LVU27
 137              		.loc 1 94 3 view .LVU28
 138              	.LBB96:
 139              	.LBI96:
 140              		.loc 2 575 20 view .LVU29
 141              	.LBB97:
 142              		.loc 2 577 3 view .LVU30
 143              		.loc 2 577 20 is_stmt 0 view .LVU31
 144 000a 0068     		ldr	r0, [r0]
 145              	.LVL4:
 146              		.loc 2 577 20 view .LVU32
 147              	.LBE97:
 148              	.LBE96:
 149              		.loc 1 94 6 view .LVU33
 150 000c 8342     		cmp	r3, r0
 151 000e 05D0     		beq	.L4
 152              		.loc 1 95 5 is_stmt 1 view .LVU34
 153              	.LVL5:
 154              	.LBB98:
 155              	.LBI98:
 156              		.loc 2 617 25 view .LVU35
 157              	.LBB99:
 158              		.loc 2 618 3 view .LVU36
 159              		.loc 2 620 3 view .LVU37
 160              		.loc 2 620 36 is_stmt 0 view .LVU38
 161 0010 0268     		ldr	r2, [r0]
 162              		.loc 2 620 25 view .LVU39
 163 0012 1A60     		str	r2, [r3]
 164              		.loc 2 621 3 is_stmt 1 view .LVU40
 165              	.LBE99:
 166              	.LBE98:
 167              		.loc 1 95 5 is_stmt 0 view .LVU41
 168 0014 0021     		movs	r1, #0
 169              	.LBB101:
 170              	.LBB100:
 171              		.loc 2 621 25 view .LVU42
ARM GAS  /tmp/ccdzvlYC.s 			page 4


 172 0016 5360     		str	r3, [r2, #4]
 173              		.loc 2 623 3 is_stmt 1 view .LVU43
 174              	.LVL6:
 175              		.loc 2 623 3 is_stmt 0 view .LVU44
 176              	.LBE100:
 177              	.LBE101:
 178              		.loc 1 95 5 view .LVU45
 179 0018 FFF7FEFF 		bl	chSchWakeupS
 180              	.LVL7:
 181              	.L4:
 182              		.loc 1 97 3 is_stmt 1 view .LVU46
 183              	.LBB102:
 184              	.LBI102:
 185              		.loc 3 386 20 view .LVU47
 186              	.LBB103:
 187              		.loc 3 388 22 view .LVU48
 188              		.loc 3 389 33 view .LVU49
 189              		.loc 3 395 3 view .LVU50
 190              		.loc 3 395 3 view .LVU51
 191              		.loc 3 395 3 view .LVU52
 192              		.loc 3 399 3 view .LVU53
 193              	.LBB104:
 194              	.LBI104:
 195              		.loc 4 618 20 view .LVU54
 196              	.LBE104:
 197              	.LBE103:
 198              	.LBE102:
 199              		.loc 4 621 3 view .LVU55
 200              	.LBB109:
 201              	.LBB108:
 202              	.LBB107:
 203              	.LBB105:
 204              	.LBI105:
 205              		.loc 5 262 57 view .LVU56
 206              	.LBB106:
 207              		.loc 5 264 3 view .LVU57
 208 001c 0023     		movs	r3, #0
 209              		.syntax unified
 210              	@ 264 "../../../os/common/ext/CMSIS/include/cmsis_gcc.h" 1
 211 001e 83F31188 		MSR basepri, r3
 212              	@ 0 "" 2
 213              	.LVL8:
 214              		.loc 5 264 3 is_stmt 0 view .LVU58
 215              		.thumb
 216              		.syntax unified
 217              	.LBE106:
 218              	.LBE105:
 219              	.LBE107:
 220              	.LBE108:
 221              	.LBE109:
 222              		.loc 1 98 1 view .LVU59
 223 0022 08BD     		pop	{r3, pc}
 224              		.cfi_endproc
 225              	.LFE247:
 226              		.size	chCondSignal, .-chCondSignal
 227              		.section	.text.chCondSignalI,"ax",%progbits
 228              		.align	1
ARM GAS  /tmp/ccdzvlYC.s 			page 5


 229              		.p2align 4,,15
 230              		.global	chCondSignalI
 231              		.syntax unified
 232              		.thumb
 233              		.thumb_func
 234              		.fpu softvfp
 235              		.type	chCondSignalI, %function
 236              	chCondSignalI:
 237              	.LVL9:
 238              	.LFB248:
 239              		.loc 1 111 46 is_stmt 1 view -0
 240              		.cfi_startproc
 241              		@ args = 0, pretend = 0, frame = 0
 242              		@ frame_needed = 0, uses_anonymous_args = 0
 243              		@ link register save eliminated.
 244              		.loc 1 113 21 view .LVU61
 245              		.loc 1 114 3 view .LVU62
 246              		.loc 1 114 3 view .LVU63
 247              		.loc 1 114 3 view .LVU64
 248              		.loc 1 116 3 view .LVU65
 249              		.loc 1 111 46 is_stmt 0 view .LVU66
 250 0000 0346     		mov	r3, r0
 251              	.LVL10:
 252              	.LBB110:
 253              	.LBI110:
 254              		.loc 2 575 20 is_stmt 1 view .LVU67
 255              	.LBB111:
 256              		.loc 2 577 3 view .LVU68
 257              		.loc 2 577 20 is_stmt 0 view .LVU69
 258 0002 0068     		ldr	r0, [r0]
 259              	.LVL11:
 260              		.loc 2 577 20 view .LVU70
 261              	.LBE111:
 262              	.LBE110:
 263              		.loc 1 116 6 view .LVU71
 264 0004 8342     		cmp	r3, r0
 265 0006 06D0     		beq	.L6
 266              	.LBB112:
 267              		.loc 1 117 5 is_stmt 1 view .LVU72
 268              	.LVL12:
 269              	.LBB113:
 270              	.LBI113:
 271              		.loc 2 617 25 view .LVU73
 272              	.LBB114:
 273              		.loc 2 618 3 view .LVU74
 274              		.loc 2 620 3 view .LVU75
 275              		.loc 2 620 36 is_stmt 0 view .LVU76
 276 0008 0268     		ldr	r2, [r0]
 277              		.loc 2 620 25 view .LVU77
 278 000a 1A60     		str	r2, [r3]
 279              		.loc 2 621 3 is_stmt 1 view .LVU78
 280              	.LBE114:
 281              	.LBE113:
 282              		.loc 1 118 18 is_stmt 0 view .LVU79
 283 000c 0021     		movs	r1, #0
 284              	.LBB116:
 285              	.LBB115:
ARM GAS  /tmp/ccdzvlYC.s 			page 6


 286              		.loc 2 621 25 view .LVU80
 287 000e 5360     		str	r3, [r2, #4]
 288              		.loc 2 623 3 is_stmt 1 view .LVU81
 289              	.LVL13:
 290              		.loc 2 623 3 is_stmt 0 view .LVU82
 291              	.LBE115:
 292              	.LBE116:
 293              		.loc 1 118 5 is_stmt 1 view .LVU83
 294              		.loc 1 118 18 is_stmt 0 view .LVU84
 295 0010 4162     		str	r1, [r0, #36]
 296              		.loc 1 119 5 is_stmt 1 view .LVU85
 297              		.loc 1 119 12 is_stmt 0 view .LVU86
 298 0012 FFF7FEBF 		b	chSchReadyI
 299              	.LVL14:
 300              	.L6:
 301              		.loc 1 119 12 view .LVU87
 302              	.LBE112:
 303              		.loc 1 121 1 view .LVU88
 304 0016 7047     		bx	lr
 305              		.cfi_endproc
 306              	.LFE248:
 307              		.size	chCondSignalI, .-chCondSignalI
 308              		.section	.text.chCondBroadcast,"ax",%progbits
 309              		.align	1
 310              		.p2align 4,,15
 311              		.global	chCondBroadcast
 312              		.syntax unified
 313              		.thumb
 314              		.thumb_func
 315              		.fpu softvfp
 316              		.type	chCondBroadcast, %function
 317              	chCondBroadcast:
 318              	.LVL15:
 319              	.LFB249:
 320              		.loc 1 130 48 is_stmt 1 view -0
 321              		.cfi_startproc
 322              		@ args = 0, pretend = 0, frame = 0
 323              		@ frame_needed = 0, uses_anonymous_args = 0
 324              		.loc 1 132 3 view .LVU90
 325              	.LBB132:
 326              	.LBI132:
 327              		.loc 3 374 20 view .LVU91
 328              	.LBE132:
 329              		.loc 3 376 3 view .LVU92
 330              	.LBB140:
 331              	.LBB133:
 332              	.LBI133:
 333              		.loc 4 594 20 view .LVU93
 334              	.LBE133:
 335              	.LBE140:
 336              		.loc 4 602 3 view .LVU94
 337              	.LBB141:
 338              	.LBB138:
 339              	.LBB134:
 340              	.LBI134:
 341              		.loc 5 262 57 view .LVU95
 342              	.LBB135:
ARM GAS  /tmp/ccdzvlYC.s 			page 7


 343              		.loc 5 264 3 view .LVU96
 344              	.LBE135:
 345              	.LBE134:
 346              	.LBE138:
 347              	.LBE141:
 348              		.loc 1 130 48 is_stmt 0 view .LVU97
 349 0000 38B5     		push	{r3, r4, r5, lr}
 350              		.cfi_def_cfa_offset 16
 351              		.cfi_offset 3, -16
 352              		.cfi_offset 4, -12
 353              		.cfi_offset 5, -8
 354              		.cfi_offset 14, -4
 355              	.LBB142:
 356              	.LBB139:
 357              	.LBB137:
 358              	.LBB136:
 359              		.loc 5 264 3 view .LVU98
 360 0002 2023     		movs	r3, #32
 361              		.syntax unified
 362              	@ 264 "../../../os/common/ext/CMSIS/include/cmsis_gcc.h" 1
 363 0004 83F31188 		MSR basepri, r3
 364              	@ 0 "" 2
 365              	.LVL16:
 366              		.loc 5 264 3 view .LVU99
 367              		.thumb
 368              		.syntax unified
 369              	.LBE136:
 370              	.LBE137:
 371              	.LBE139:
 372              	.LBE142:
 373              		.loc 3 377 34 is_stmt 1 view .LVU100
 374              		.loc 3 378 20 view .LVU101
 375              		.loc 1 133 3 view .LVU102
 376              	.LBB143:
 377              	.LBI143:
 378              		.loc 1 149 6 view .LVU103
 379              	.LBB144:
 380              		.loc 1 151 21 view .LVU104
 381              		.loc 1 152 3 view .LVU105
 382              		.loc 1 152 3 view .LVU106
 383              		.loc 1 152 3 view .LVU107
 384              		.loc 1 157 3 view .LVU108
 385              		.loc 1 157 9 view .LVU109
 386              	.LBB145:
 387              	.LBI145:
 388              		.loc 2 575 20 view .LVU110
 389              	.LBB146:
 390              		.loc 2 577 3 view .LVU111
 391              		.loc 2 577 20 is_stmt 0 view .LVU112
 392 0008 0368     		ldr	r3, [r0]
 393              	.LVL17:
 394              		.loc 2 577 20 view .LVU113
 395              	.LBE146:
 396              	.LBE145:
 397              		.loc 1 157 9 view .LVU114
 398 000a 9842     		cmp	r0, r3
 399 000c 0CD0     		beq	.L9
ARM GAS  /tmp/ccdzvlYC.s 			page 8


 400 000e 0446     		mov	r4, r0
 401              		.loc 1 158 58 view .LVU115
 402 0010 6FF00105 		mvn	r5, #1
 403              	.LVL18:
 404              	.L10:
 405              		.loc 1 158 5 is_stmt 1 view .LVU116
 406              	.LBB149:
 407              	.LBI149:
 408              		.loc 2 617 25 view .LVU117
 409              	.LBB150:
 410              		.loc 2 618 3 view .LVU118
 411              		.loc 2 620 3 view .LVU119
 412              		.loc 2 620 36 is_stmt 0 view .LVU120
 413 0014 1A68     		ldr	r2, [r3]
 414              		.loc 2 620 25 view .LVU121
 415 0016 2260     		str	r2, [r4]
 416              		.loc 2 621 3 is_stmt 1 view .LVU122
 417              	.LBE150:
 418              	.LBE149:
 419              		.loc 1 158 5 is_stmt 0 view .LVU123
 420 0018 1846     		mov	r0, r3
 421              	.LBB152:
 422              	.LBB151:
 423              		.loc 2 621 25 view .LVU124
 424 001a 5460     		str	r4, [r2, #4]
 425              		.loc 2 623 3 is_stmt 1 view .LVU125
 426              	.LVL19:
 427              		.loc 2 623 3 is_stmt 0 view .LVU126
 428              	.LBE151:
 429              	.LBE152:
 430              		.loc 1 158 5 view .LVU127
 431 001c FFF7FEFF 		bl	chSchReadyI
 432              	.LVL20:
 433              	.LBB153:
 434              	.LBB147:
 435              		.loc 2 577 20 view .LVU128
 436 0020 2368     		ldr	r3, [r4]
 437              	.LBE147:
 438              	.LBE153:
 439              		.loc 1 158 58 view .LVU129
 440 0022 4562     		str	r5, [r0, #36]
 441              		.loc 1 157 9 is_stmt 1 view .LVU130
 442              	.LVL21:
 443              	.LBB154:
 444              		.loc 2 575 20 view .LVU131
 445              	.LBB148:
 446              		.loc 2 577 3 view .LVU132
 447              		.loc 2 577 3 is_stmt 0 view .LVU133
 448              	.LBE148:
 449              	.LBE154:
 450              		.loc 1 157 9 view .LVU134
 451 0024 A342     		cmp	r3, r4
 452 0026 F5D1     		bne	.L10
 453              	.LVL22:
 454              	.L9:
 455              		.loc 1 157 9 view .LVU135
 456              	.LBE144:
ARM GAS  /tmp/ccdzvlYC.s 			page 9


 457              	.LBE143:
 458              		.loc 1 134 3 is_stmt 1 view .LVU136
 459 0028 FFF7FEFF 		bl	chSchRescheduleS
 460              	.LVL23:
 461              		.loc 1 135 3 view .LVU137
 462              	.LBB155:
 463              	.LBI155:
 464              		.loc 3 386 20 view .LVU138
 465              	.LBB156:
 466              		.loc 3 388 22 view .LVU139
 467              		.loc 3 389 33 view .LVU140
 468              		.loc 3 395 3 view .LVU141
 469              		.loc 3 395 3 view .LVU142
 470              		.loc 3 395 3 view .LVU143
 471              		.loc 3 399 3 view .LVU144
 472              	.LBB157:
 473              	.LBI157:
 474              		.loc 4 618 20 view .LVU145
 475              	.LBE157:
 476              	.LBE156:
 477              	.LBE155:
 478              		.loc 4 621 3 view .LVU146
 479              	.LBB162:
 480              	.LBB161:
 481              	.LBB160:
 482              	.LBB158:
 483              	.LBI158:
 484              		.loc 5 262 57 view .LVU147
 485              	.LBB159:
 486              		.loc 5 264 3 view .LVU148
 487 002c 0023     		movs	r3, #0
 488              		.syntax unified
 489              	@ 264 "../../../os/common/ext/CMSIS/include/cmsis_gcc.h" 1
 490 002e 83F31188 		MSR basepri, r3
 491              	@ 0 "" 2
 492              	.LVL24:
 493              		.loc 5 264 3 is_stmt 0 view .LVU149
 494              		.thumb
 495              		.syntax unified
 496              	.LBE159:
 497              	.LBE158:
 498              	.LBE160:
 499              	.LBE161:
 500              	.LBE162:
 501              		.loc 1 136 1 view .LVU150
 502 0032 38BD     		pop	{r3, r4, r5, pc}
 503              		.cfi_endproc
 504              	.LFE249:
 505              		.size	chCondBroadcast, .-chCondBroadcast
 506              		.section	.text.chCondBroadcastI,"ax",%progbits
 507              		.align	1
 508              		.p2align 4,,15
 509              		.global	chCondBroadcastI
 510              		.syntax unified
 511              		.thumb
 512              		.thumb_func
 513              		.fpu softvfp
ARM GAS  /tmp/ccdzvlYC.s 			page 10


 514              		.type	chCondBroadcastI, %function
 515              	chCondBroadcastI:
 516              	.LVL25:
 517              	.LFB250:
 518              		.loc 1 149 49 is_stmt 1 view -0
 519              		.cfi_startproc
 520              		@ args = 0, pretend = 0, frame = 0
 521              		@ frame_needed = 0, uses_anonymous_args = 0
 522              		.loc 1 151 21 view .LVU152
 523              		.loc 1 152 3 view .LVU153
 524              		.loc 1 152 3 view .LVU154
 525              		.loc 1 152 3 view .LVU155
 526              		.loc 1 157 3 view .LVU156
 527              		.loc 1 157 9 view .LVU157
 528              	.LBB163:
 529              	.LBI163:
 530              		.loc 2 575 20 view .LVU158
 531              	.LBB164:
 532              		.loc 2 577 3 view .LVU159
 533              	.LBE164:
 534              	.LBE163:
 535              		.loc 1 149 49 is_stmt 0 view .LVU160
 536 0000 38B5     		push	{r3, r4, r5, lr}
 537              		.cfi_def_cfa_offset 16
 538              		.cfi_offset 3, -16
 539              		.cfi_offset 4, -12
 540              		.cfi_offset 5, -8
 541              		.cfi_offset 14, -4
 542              	.LBB168:
 543              	.LBB165:
 544              		.loc 2 577 20 view .LVU161
 545 0002 0368     		ldr	r3, [r0]
 546              	.LVL26:
 547              		.loc 2 577 20 view .LVU162
 548              	.LBE165:
 549              	.LBE168:
 550              		.loc 1 157 9 view .LVU163
 551 0004 8342     		cmp	r3, r0
 552 0006 0CD0     		beq	.L13
 553 0008 0446     		mov	r4, r0
 554              		.loc 1 158 58 view .LVU164
 555 000a 6FF00105 		mvn	r5, #1
 556              	.LVL27:
 557              	.L15:
 558              		.loc 1 158 5 is_stmt 1 view .LVU165
 559              	.LBB169:
 560              	.LBI169:
 561              		.loc 2 617 25 view .LVU166
 562              	.LBB170:
 563              		.loc 2 618 3 view .LVU167
 564              		.loc 2 620 3 view .LVU168
 565              		.loc 2 620 36 is_stmt 0 view .LVU169
 566 000e 1A68     		ldr	r2, [r3]
 567              		.loc 2 620 25 view .LVU170
 568 0010 2260     		str	r2, [r4]
 569              		.loc 2 621 3 is_stmt 1 view .LVU171
 570              	.LBE170:
ARM GAS  /tmp/ccdzvlYC.s 			page 11


 571              	.LBE169:
 572              		.loc 1 158 5 is_stmt 0 view .LVU172
 573 0012 1846     		mov	r0, r3
 574              	.LBB172:
 575              	.LBB171:
 576              		.loc 2 621 25 view .LVU173
 577 0014 5460     		str	r4, [r2, #4]
 578              		.loc 2 623 3 is_stmt 1 view .LVU174
 579              	.LVL28:
 580              		.loc 2 623 3 is_stmt 0 view .LVU175
 581              	.LBE171:
 582              	.LBE172:
 583              		.loc 1 158 5 view .LVU176
 584 0016 FFF7FEFF 		bl	chSchReadyI
 585              	.LVL29:
 586              	.LBB173:
 587              	.LBB166:
 588              		.loc 2 577 20 view .LVU177
 589 001a 2368     		ldr	r3, [r4]
 590              	.LBE166:
 591              	.LBE173:
 592              		.loc 1 158 58 view .LVU178
 593 001c 4562     		str	r5, [r0, #36]
 594              		.loc 1 157 9 is_stmt 1 view .LVU179
 595              	.LVL30:
 596              	.LBB174:
 597              		.loc 2 575 20 view .LVU180
 598              	.LBB167:
 599              		.loc 2 577 3 view .LVU181
 600              		.loc 2 577 3 is_stmt 0 view .LVU182
 601              	.LBE167:
 602              	.LBE174:
 603              		.loc 1 157 9 view .LVU183
 604 001e A342     		cmp	r3, r4
 605 0020 F5D1     		bne	.L15
 606              	.LVL31:
 607              	.L13:
 608              		.loc 1 160 1 view .LVU184
 609 0022 38BD     		pop	{r3, r4, r5, pc}
 610              		.cfi_endproc
 611              	.LFE250:
 612              		.size	chCondBroadcastI, .-chCondBroadcastI
 613              		.section	.text.chCondWaitS,"ax",%progbits
 614              		.align	1
 615              		.p2align 4,,15
 616              		.global	chCondWaitS
 617              		.syntax unified
 618              		.thumb
 619              		.thumb_func
 620              		.fpu softvfp
 621              		.type	chCondWaitS, %function
 622              	chCondWaitS:
 623              	.LVL32:
 624              	.LFB252:
 625              		.loc 1 205 45 is_stmt 1 view -0
 626              		.cfi_startproc
 627              		@ args = 0, pretend = 0, frame = 0
ARM GAS  /tmp/ccdzvlYC.s 			page 12


 628              		@ frame_needed = 0, uses_anonymous_args = 0
 629              		.loc 1 206 3 view .LVU186
 630              		.loc 1 206 13 is_stmt 0 view .LVU187
 631 0000 0F4B     		ldr	r3, .L24
 632              		.loc 1 205 45 view .LVU188
 633 0002 70B5     		push	{r4, r5, r6, lr}
 634              		.cfi_def_cfa_offset 16
 635              		.cfi_offset 4, -16
 636              		.cfi_offset 5, -12
 637              		.cfi_offset 6, -8
 638              		.cfi_offset 14, -4
 639              		.loc 1 206 13 view .LVU189
 640 0004 9C69     		ldr	r4, [r3, #24]
 641              	.LVL33:
 642              		.loc 1 207 3 is_stmt 1 view .LVU190
 643              		.loc 1 208 3 view .LVU191
 644              		.loc 1 210 21 view .LVU192
 645              		.loc 1 211 3 view .LVU193
 646              		.loc 1 211 3 view .LVU194
 647              		.loc 1 211 3 view .LVU195
 648              		.loc 1 212 3 view .LVU196
 649              		.loc 1 212 3 view .LVU197
 650              		.loc 1 212 3 view .LVU198
 651              		.loc 1 215 3 view .LVU199
 652              	.LBB179:
 653              	.LBI179:
 654              		.file 6 "../../../os/rt/include/chmtx.h"
 655              		.loc 6 144 24 view .LVU200
 656              	.LBB180:
 657              		.loc 6 146 3 view .LVU201
 658              	.LBE180:
 659              	.LBE179:
 660              		.file 7 "../../../os/rt/include/chthreads.h"
 661              		.loc 7 286 3 view .LVU202
 662              	.LBB182:
 663              	.LBB181:
 664              		.loc 6 146 25 is_stmt 0 view .LVU203
 665 0006 A66B     		ldr	r6, [r4, #56]
 666              	.LVL34:
 667              		.loc 6 146 25 view .LVU204
 668              	.LBE181:
 669              	.LBE182:
 670              		.loc 1 216 3 is_stmt 1 view .LVU205
 671              		.loc 1 205 45 is_stmt 0 view .LVU206
 672 0008 0546     		mov	r5, r0
 673              		.loc 1 216 3 view .LVU207
 674 000a 3046     		mov	r0, r6
 675              	.LVL35:
 676              		.loc 1 216 3 view .LVU208
 677 000c FFF7FEFF 		bl	chMtxUnlockS
 678              	.LVL36:
 679              		.loc 1 220 3 is_stmt 1 view .LVU209
 680              		.loc 1 220 17 is_stmt 0 view .LVU210
 681 0010 6562     		str	r5, [r4, #36]
 682              		.loc 1 221 3 is_stmt 1 view .LVU211
 683              	.LVL37:
 684              	.LBB183:
ARM GAS  /tmp/ccdzvlYC.s 			page 13


 685              	.LBI183:
 686              		.loc 2 597 20 view .LVU212
 687              	.LBB184:
 688              		.loc 2 599 3 view .LVU213
 689              		.loc 2 599 13 is_stmt 0 view .LVU214
 690 0012 2B46     		mov	r3, r5
 691 0014 03E0     		b	.L20
 692              	.LVL38:
 693              	.L23:
 694              		.loc 2 602 36 view .LVU215
 695 0016 9968     		ldr	r1, [r3, #8]
 696 0018 A268     		ldr	r2, [r4, #8]
 697 001a 9142     		cmp	r1, r2
 698 001c 02D3     		bcc	.L19
 699              	.L20:
 700              		.loc 2 600 3 is_stmt 1 view .LVU216
 701              		.loc 2 601 5 view .LVU217
 702              		.loc 2 601 8 is_stmt 0 view .LVU218
 703 001e 1B68     		ldr	r3, [r3]
 704              	.LVL39:
 705              		.loc 2 602 11 is_stmt 1 view .LVU219
 706              		.loc 2 602 3 is_stmt 0 view .LVU220
 707 0020 9D42     		cmp	r5, r3
 708 0022 F8D1     		bne	.L23
 709              	.L19:
 710              		.loc 2 603 3 is_stmt 1 view .LVU221
 711              		.loc 2 604 41 is_stmt 0 view .LVU222
 712 0024 5A68     		ldr	r2, [r3, #4]
 713              	.LBE184:
 714              	.LBE183:
 715              		.loc 1 222 3 view .LVU223
 716 0026 0720     		movs	r0, #7
 717              	.LBB186:
 718              	.LBB185:
 719              		.loc 2 604 30 view .LVU224
 720 0028 C4E90032 		strd	r3, r2, [r4]
 721              		.loc 2 605 3 is_stmt 1 view .LVU225
 722              		.loc 2 605 30 is_stmt 0 view .LVU226
 723 002c 1460     		str	r4, [r2]
 724              		.loc 2 606 3 is_stmt 1 view .LVU227
 725              		.loc 2 606 30 is_stmt 0 view .LVU228
 726 002e 5C60     		str	r4, [r3, #4]
 727              	.LVL40:
 728              		.loc 2 606 30 view .LVU229
 729              	.LBE185:
 730              	.LBE186:
 731              		.loc 1 222 3 is_stmt 1 view .LVU230
 732 0030 FFF7FEFF 		bl	chSchGoSleepS
 733              	.LVL41:
 734              		.loc 1 223 3 view .LVU231
 735              		.loc 1 223 7 is_stmt 0 view .LVU232
 736 0034 646A     		ldr	r4, [r4, #36]
 737              	.LVL42:
 738              		.loc 1 224 3 is_stmt 1 view .LVU233
 739 0036 3046     		mov	r0, r6
 740 0038 FFF7FEFF 		bl	chMtxLockS
 741              	.LVL43:
ARM GAS  /tmp/ccdzvlYC.s 			page 14


 742              		.loc 1 226 3 view .LVU234
 743              		.loc 1 227 1 is_stmt 0 view .LVU235
 744 003c 2046     		mov	r0, r4
 745 003e 70BD     		pop	{r4, r5, r6, pc}
 746              	.LVL44:
 747              	.L25:
 748              		.loc 1 227 1 view .LVU236
 749              		.align	2
 750              	.L24:
 751 0040 00000000 		.word	ch
 752              		.cfi_endproc
 753              	.LFE252:
 754              		.size	chCondWaitS, .-chCondWaitS
 755              		.section	.text.chCondWait,"ax",%progbits
 756              		.align	1
 757              		.p2align 4,,15
 758              		.global	chCondWait
 759              		.syntax unified
 760              		.thumb
 761              		.thumb_func
 762              		.fpu softvfp
 763              		.type	chCondWait, %function
 764              	chCondWait:
 765              	.LVL45:
 766              	.LFB251:
 767              		.loc 1 179 44 is_stmt 1 view -0
 768              		.cfi_startproc
 769              		@ args = 0, pretend = 0, frame = 0
 770              		@ frame_needed = 0, uses_anonymous_args = 0
 771              		.loc 1 180 3 view .LVU238
 772              		.loc 1 182 3 view .LVU239
 773              	.LBB187:
 774              	.LBI187:
 775              		.loc 3 374 20 view .LVU240
 776              	.LBE187:
 777              		.loc 3 376 3 view .LVU241
 778              	.LBB195:
 779              	.LBB188:
 780              	.LBI188:
 781              		.loc 4 594 20 view .LVU242
 782              	.LBE188:
 783              	.LBE195:
 784              		.loc 4 602 3 view .LVU243
 785              	.LBB196:
 786              	.LBB193:
 787              	.LBB189:
 788              	.LBI189:
 789              		.loc 5 262 57 view .LVU244
 790              	.LBB190:
 791              		.loc 5 264 3 view .LVU245
 792              	.LBE190:
 793              	.LBE189:
 794              	.LBE193:
 795              	.LBE196:
 796              		.loc 1 179 44 is_stmt 0 view .LVU246
 797 0000 08B5     		push	{r3, lr}
 798              		.cfi_def_cfa_offset 8
ARM GAS  /tmp/ccdzvlYC.s 			page 15


 799              		.cfi_offset 3, -8
 800              		.cfi_offset 14, -4
 801              	.LBB197:
 802              	.LBB194:
 803              	.LBB192:
 804              	.LBB191:
 805              		.loc 5 264 3 view .LVU247
 806 0002 2023     		movs	r3, #32
 807              		.syntax unified
 808              	@ 264 "../../../os/common/ext/CMSIS/include/cmsis_gcc.h" 1
 809 0004 83F31188 		MSR basepri, r3
 810              	@ 0 "" 2
 811              	.LVL46:
 812              		.loc 5 264 3 view .LVU248
 813              		.thumb
 814              		.syntax unified
 815              	.LBE191:
 816              	.LBE192:
 817              	.LBE194:
 818              	.LBE197:
 819              		.loc 3 377 34 is_stmt 1 view .LVU249
 820              		.loc 3 378 20 view .LVU250
 821              		.loc 1 183 3 view .LVU251
 822              		.loc 1 183 9 is_stmt 0 view .LVU252
 823 0008 FFF7FEFF 		bl	chCondWaitS
 824              	.LVL47:
 825              		.loc 1 184 3 is_stmt 1 view .LVU253
 826              	.LBB198:
 827              	.LBI198:
 828              		.loc 3 386 20 view .LVU254
 829              	.LBB199:
 830              		.loc 3 388 22 view .LVU255
 831              		.loc 3 389 33 view .LVU256
 832              		.loc 3 395 3 view .LVU257
 833              		.loc 3 395 3 view .LVU258
 834              		.loc 3 395 3 view .LVU259
 835              		.loc 3 399 3 view .LVU260
 836              	.LBB200:
 837              	.LBI200:
 838              		.loc 4 618 20 view .LVU261
 839              	.LBE200:
 840              	.LBE199:
 841              	.LBE198:
 842              		.loc 4 621 3 view .LVU262
 843              	.LBB205:
 844              	.LBB204:
 845              	.LBB203:
 846              	.LBB201:
 847              	.LBI201:
 848              		.loc 5 262 57 view .LVU263
 849              	.LBB202:
 850              		.loc 5 264 3 view .LVU264
 851 000c 0023     		movs	r3, #0
 852              		.syntax unified
 853              	@ 264 "../../../os/common/ext/CMSIS/include/cmsis_gcc.h" 1
 854 000e 83F31188 		MSR basepri, r3
 855              	@ 0 "" 2
ARM GAS  /tmp/ccdzvlYC.s 			page 16


 856              	.LVL48:
 857              		.loc 5 264 3 is_stmt 0 view .LVU265
 858              		.thumb
 859              		.syntax unified
 860              	.LBE202:
 861              	.LBE201:
 862              	.LBE203:
 863              	.LBE204:
 864              	.LBE205:
 865              		.loc 1 185 3 is_stmt 1 view .LVU266
 866              		.loc 1 186 1 is_stmt 0 view .LVU267
 867 0012 08BD     		pop	{r3, pc}
 868              		.cfi_endproc
 869              	.LFE251:
 870              		.size	chCondWait, .-chCondWait
 871              		.section	.text.chCondWaitTimeoutS,"ax",%progbits
 872              		.align	1
 873              		.p2align 4,,15
 874              		.global	chCondWaitTimeoutS
 875              		.syntax unified
 876              		.thumb
 877              		.thumb_func
 878              		.fpu softvfp
 879              		.type	chCondWaitTimeoutS, %function
 880              	chCondWaitTimeoutS:
 881              	.LVL49:
 882              	.LFB254:
 883              		.loc 1 296 68 is_stmt 1 view -0
 884              		.cfi_startproc
 885              		@ args = 0, pretend = 0, frame = 0
 886              		@ frame_needed = 0, uses_anonymous_args = 0
 887              		.loc 1 297 3 view .LVU269
 888              		.loc 1 298 3 view .LVU270
 889              		.loc 1 300 21 view .LVU271
 890              		.loc 1 301 3 view .LVU272
 891              		.loc 1 301 3 view .LVU273
 892              		.loc 1 301 3 view .LVU274
 893              		.loc 1 302 3 view .LVU275
 894              		.loc 1 302 3 view .LVU276
 895              		.loc 1 302 3 view .LVU277
 896              		.loc 1 305 3 view .LVU278
 897              	.LBB212:
 898              	.LBI212:
 899              		.loc 6 144 24 view .LVU279
 900              	.LBB213:
 901              		.loc 6 146 3 view .LVU280
 902              	.LBB214:
 903              	.LBI214:
 904              		.loc 7 284 25 view .LVU281
 905              	.LBB215:
 906              		.loc 7 286 3 view .LVU282
 907              	.LBE215:
 908              	.LBE214:
 909              	.LBE213:
 910              	.LBE212:
 911              		.loc 1 296 68 is_stmt 0 view .LVU283
 912 0000 F8B5     		push	{r3, r4, r5, r6, r7, lr}
ARM GAS  /tmp/ccdzvlYC.s 			page 17


 913              		.cfi_def_cfa_offset 24
 914              		.cfi_offset 3, -24
 915              		.cfi_offset 4, -20
 916              		.cfi_offset 5, -16
 917              		.cfi_offset 6, -12
 918              		.cfi_offset 7, -8
 919              		.cfi_offset 14, -4
 920              	.LBB219:
 921              	.LBB218:
 922              	.LBB217:
 923              	.LBB216:
 924              		.loc 7 286 18 view .LVU284
 925 0002 124C     		ldr	r4, .L38
 926              	.LBE216:
 927              	.LBE217:
 928              		.loc 6 146 25 view .LVU285
 929 0004 A369     		ldr	r3, [r4, #24]
 930 0006 9E6B     		ldr	r6, [r3, #56]
 931              	.LVL50:
 932              		.loc 6 146 25 view .LVU286
 933              	.LBE218:
 934              	.LBE219:
 935              		.loc 1 306 3 is_stmt 1 view .LVU287
 936              		.loc 1 296 68 is_stmt 0 view .LVU288
 937 0008 0546     		mov	r5, r0
 938              		.loc 1 306 3 view .LVU289
 939 000a 3046     		mov	r0, r6
 940              	.LVL51:
 941              		.loc 1 296 68 view .LVU290
 942 000c 0F46     		mov	r7, r1
 943              		.loc 1 306 3 view .LVU291
 944 000e FFF7FEFF 		bl	chMtxUnlockS
 945              	.LVL52:
 946              		.loc 1 310 3 is_stmt 1 view .LVU292
 947 0012 A469     		ldr	r4, [r4, #24]
 948              	.LBB220:
 949              	.LBB221:
 950              		.loc 2 599 13 is_stmt 0 view .LVU293
 951 0014 2B46     		mov	r3, r5
 952              	.LBE221:
 953              	.LBE220:
 954              		.loc 1 310 19 view .LVU294
 955 0016 6562     		str	r5, [r4, #36]
 956              		.loc 1 311 3 is_stmt 1 view .LVU295
 957              	.LVL53:
 958              	.LBB225:
 959              	.LBI220:
 960              		.loc 2 597 20 view .LVU296
 961              	.LBB222:
 962              		.loc 2 599 3 view .LVU297
 963              		.loc 2 599 3 is_stmt 0 view .LVU298
 964 0018 03E0     		b	.L30
 965              	.LVL54:
 966              	.L37:
 967              		.loc 2 602 36 view .LVU299
 968 001a A268     		ldr	r2, [r4, #8]
 969 001c 9968     		ldr	r1, [r3, #8]
ARM GAS  /tmp/ccdzvlYC.s 			page 18


 970 001e 9142     		cmp	r1, r2
 971 0020 02D3     		bcc	.L29
 972              	.L30:
 973              		.loc 2 600 3 is_stmt 1 view .LVU300
 974              		.loc 2 601 5 view .LVU301
 975              		.loc 2 601 8 is_stmt 0 view .LVU302
 976 0022 1B68     		ldr	r3, [r3]
 977              	.LVL55:
 978              		.loc 2 602 11 is_stmt 1 view .LVU303
 979              		.loc 2 602 3 is_stmt 0 view .LVU304
 980 0024 9D42     		cmp	r5, r3
 981 0026 F8D1     		bne	.L37
 982              	.L29:
 983              		.loc 2 603 3 is_stmt 1 view .LVU305
 984              		.loc 2 604 41 is_stmt 0 view .LVU306
 985 0028 5A68     		ldr	r2, [r3, #4]
 986              	.LBE222:
 987              	.LBE225:
 988              		.loc 1 312 9 view .LVU307
 989 002a 3946     		mov	r1, r7
 990              	.LBB226:
 991              	.LBB223:
 992              		.loc 2 604 30 view .LVU308
 993 002c C4E90032 		strd	r3, r2, [r4]
 994              		.loc 2 605 3 is_stmt 1 view .LVU309
 995              	.LBE223:
 996              	.LBE226:
 997              		.loc 1 312 9 is_stmt 0 view .LVU310
 998 0030 0720     		movs	r0, #7
 999              	.LBB227:
 1000              	.LBB224:
 1001              		.loc 2 605 30 view .LVU311
 1002 0032 1460     		str	r4, [r2]
 1003              		.loc 2 606 3 is_stmt 1 view .LVU312
 1004              		.loc 2 606 30 is_stmt 0 view .LVU313
 1005 0034 5C60     		str	r4, [r3, #4]
 1006              	.LVL56:
 1007              		.loc 2 606 30 view .LVU314
 1008              	.LBE224:
 1009              	.LBE227:
 1010              		.loc 1 312 3 is_stmt 1 view .LVU315
 1011              		.loc 1 312 9 is_stmt 0 view .LVU316
 1012 0036 FFF7FEFF 		bl	chSchGoSleepTimeoutS
 1013              	.LVL57:
 1014              		.loc 1 313 6 view .LVU317
 1015 003a 431C     		adds	r3, r0, #1
 1016              		.loc 1 312 9 view .LVU318
 1017 003c 0446     		mov	r4, r0
 1018              	.LVL58:
 1019              		.loc 1 313 3 is_stmt 1 view .LVU319
 1020              		.loc 1 313 6 is_stmt 0 view .LVU320
 1021 003e 02D0     		beq	.L28
 1022              		.loc 1 314 5 is_stmt 1 view .LVU321
 1023 0040 3046     		mov	r0, r6
 1024              	.LVL59:
 1025              		.loc 1 314 5 is_stmt 0 view .LVU322
 1026 0042 FFF7FEFF 		bl	chMtxLockS
ARM GAS  /tmp/ccdzvlYC.s 			page 19


 1027              	.LVL60:
 1028              		.loc 1 317 3 is_stmt 1 view .LVU323
 1029              	.L28:
 1030              		.loc 1 318 1 is_stmt 0 view .LVU324
 1031 0046 2046     		mov	r0, r4
 1032 0048 F8BD     		pop	{r3, r4, r5, r6, r7, pc}
 1033              	.LVL61:
 1034              	.L39:
 1035              		.loc 1 318 1 view .LVU325
 1036 004a 00BF     		.align	2
 1037              	.L38:
 1038 004c 00000000 		.word	ch
 1039              		.cfi_endproc
 1040              	.LFE254:
 1041              		.size	chCondWaitTimeoutS, .-chCondWaitTimeoutS
 1042              		.section	.text.chCondWaitTimeout,"ax",%progbits
 1043              		.align	1
 1044              		.p2align 4,,15
 1045              		.global	chCondWaitTimeout
 1046              		.syntax unified
 1047              		.thumb
 1048              		.thumb_func
 1049              		.fpu softvfp
 1050              		.type	chCondWaitTimeout, %function
 1051              	chCondWaitTimeout:
 1052              	.LVL62:
 1053              	.LFB253:
 1054              		.loc 1 258 67 is_stmt 1 view -0
 1055              		.cfi_startproc
 1056              		@ args = 0, pretend = 0, frame = 0
 1057              		@ frame_needed = 0, uses_anonymous_args = 0
 1058              		.loc 1 259 3 view .LVU327
 1059              		.loc 1 261 3 view .LVU328
 1060              	.LBB228:
 1061              	.LBI228:
 1062              		.loc 3 374 20 view .LVU329
 1063              	.LBE228:
 1064              		.loc 3 376 3 view .LVU330
 1065              	.LBB236:
 1066              	.LBB229:
 1067              	.LBI229:
 1068              		.loc 4 594 20 view .LVU331
 1069              	.LBE229:
 1070              	.LBE236:
 1071              		.loc 4 602 3 view .LVU332
 1072              	.LBB237:
 1073              	.LBB234:
 1074              	.LBB230:
 1075              	.LBI230:
 1076              		.loc 5 262 57 view .LVU333
 1077              	.LBB231:
 1078              		.loc 5 264 3 view .LVU334
 1079              	.LBE231:
 1080              	.LBE230:
 1081              	.LBE234:
 1082              	.LBE237:
 1083              		.loc 1 258 67 is_stmt 0 view .LVU335
ARM GAS  /tmp/ccdzvlYC.s 			page 20


 1084 0000 08B5     		push	{r3, lr}
 1085              		.cfi_def_cfa_offset 8
 1086              		.cfi_offset 3, -8
 1087              		.cfi_offset 14, -4
 1088              	.LBB238:
 1089              	.LBB235:
 1090              	.LBB233:
 1091              	.LBB232:
 1092              		.loc 5 264 3 view .LVU336
 1093 0002 2023     		movs	r3, #32
 1094              		.syntax unified
 1095              	@ 264 "../../../os/common/ext/CMSIS/include/cmsis_gcc.h" 1
 1096 0004 83F31188 		MSR basepri, r3
 1097              	@ 0 "" 2
 1098              	.LVL63:
 1099              		.loc 5 264 3 view .LVU337
 1100              		.thumb
 1101              		.syntax unified
 1102              	.LBE232:
 1103              	.LBE233:
 1104              	.LBE235:
 1105              	.LBE238:
 1106              		.loc 3 377 34 is_stmt 1 view .LVU338
 1107              		.loc 3 378 20 view .LVU339
 1108              		.loc 1 262 3 view .LVU340
 1109              		.loc 1 262 9 is_stmt 0 view .LVU341
 1110 0008 FFF7FEFF 		bl	chCondWaitTimeoutS
 1111              	.LVL64:
 1112              		.loc 1 263 3 is_stmt 1 view .LVU342
 1113              	.LBB239:
 1114              	.LBI239:
 1115              		.loc 3 386 20 view .LVU343
 1116              	.LBB240:
 1117              		.loc 3 388 22 view .LVU344
 1118              		.loc 3 389 33 view .LVU345
 1119              		.loc 3 395 3 view .LVU346
 1120              		.loc 3 395 3 view .LVU347
 1121              		.loc 3 395 3 view .LVU348
 1122              		.loc 3 399 3 view .LVU349
 1123              	.LBB241:
 1124              	.LBI241:
 1125              		.loc 4 618 20 view .LVU350
 1126              	.LBE241:
 1127              	.LBE240:
 1128              	.LBE239:
 1129              		.loc 4 621 3 view .LVU351
 1130              	.LBB246:
 1131              	.LBB245:
 1132              	.LBB244:
 1133              	.LBB242:
 1134              	.LBI242:
 1135              		.loc 5 262 57 view .LVU352
 1136              	.LBB243:
 1137              		.loc 5 264 3 view .LVU353
 1138 000c 0023     		movs	r3, #0
 1139              		.syntax unified
 1140              	@ 264 "../../../os/common/ext/CMSIS/include/cmsis_gcc.h" 1
ARM GAS  /tmp/ccdzvlYC.s 			page 21


 1141 000e 83F31188 		MSR basepri, r3
 1142              	@ 0 "" 2
 1143              	.LVL65:
 1144              		.loc 5 264 3 is_stmt 0 view .LVU354
 1145              		.thumb
 1146              		.syntax unified
 1147              	.LBE243:
 1148              	.LBE242:
 1149              	.LBE244:
 1150              	.LBE245:
 1151              	.LBE246:
 1152              		.loc 1 265 3 is_stmt 1 view .LVU355
 1153              		.loc 1 266 1 is_stmt 0 view .LVU356
 1154 0012 08BD     		pop	{r3, pc}
 1155              		.cfi_endproc
 1156              	.LFE253:
 1157              		.size	chCondWaitTimeout, .-chCondWaitTimeout
 1158              		.text
 1159              	.Letext0:
 1160              		.file 8 "/usr/lib/gcc/arm-none-eabi/10.3.1/include/stdint.h"
 1161              		.file 9 "../../../os/common/ports/ARMCMx/compilers/GCC/chtypes.h"
 1162              		.file 10 "../../../os/rt/include/chsystypes.h"
 1163              		.file 11 "../../../os/common/ports/ARMCMx/chcore.h"
 1164              		.file 12 "../../../os/rt/include/chtm.h"
 1165              		.file 13 "../../../os/rt/include/chsem.h"
 1166              		.file 14 "../../../os/rt/include/chcond.h"
 1167              		.section	.debug_info,"",%progbits
 1168              	.Ldebug_info0:
 1169 0000 A6100000 		.4byte	0x10a6
 1170 0004 0400     		.2byte	0x4
 1171 0006 00000000 		.4byte	.Ldebug_abbrev0
 1172 000a 04       		.byte	0x4
 1173 000b 01       		.uleb128 0x1
 1174 000c 12030000 		.4byte	.LASF117
 1175 0010 0C       		.byte	0xc
 1176 0011 1F020000 		.4byte	.LASF118
 1177 0015 00000000 		.4byte	.LASF119
 1178 0019 38020000 		.4byte	.Ldebug_ranges0+0x238
 1179 001d 00000000 		.4byte	0
 1180 0021 00000000 		.4byte	.Ldebug_line0
 1181 0025 02       		.uleb128 0x2
 1182 0026 04       		.byte	0x4
 1183 0027 05       		.byte	0x5
 1184 0028 696E7400 		.ascii	"int\000"
 1185 002c 03       		.uleb128 0x3
 1186 002d 04       		.byte	0x4
 1187 002e 07       		.byte	0x7
 1188 002f F9010000 		.4byte	.LASF0
 1189 0033 03       		.uleb128 0x3
 1190 0034 08       		.byte	0x8
 1191 0035 05       		.byte	0x5
 1192 0036 11010000 		.4byte	.LASF1
 1193 003a 03       		.uleb128 0x3
 1194 003b 08       		.byte	0x8
 1195 003c 04       		.byte	0x4
 1196 003d 1D050000 		.4byte	.LASF2
 1197 0041 03       		.uleb128 0x3
ARM GAS  /tmp/ccdzvlYC.s 			page 22


 1198 0042 01       		.byte	0x1
 1199 0043 06       		.byte	0x6
 1200 0044 1F010000 		.4byte	.LASF3
 1201 0048 03       		.uleb128 0x3
 1202 0049 02       		.byte	0x2
 1203 004a 05       		.byte	0x5
 1204 004b 75040000 		.4byte	.LASF4
 1205 004f 04       		.uleb128 0x4
 1206 0050 5F040000 		.4byte	.LASF6
 1207 0054 08       		.byte	0x8
 1208 0055 28       		.byte	0x28
 1209 0056 18       		.byte	0x18
 1210 0057 5B000000 		.4byte	0x5b
 1211 005b 03       		.uleb128 0x3
 1212 005c 04       		.byte	0x4
 1213 005d 05       		.byte	0x5
 1214 005e 62010000 		.4byte	.LASF5
 1215 0062 04       		.uleb128 0x4
 1216 0063 EA050000 		.4byte	.LASF7
 1217 0067 08       		.byte	0x8
 1218 0068 2E       		.byte	0x2e
 1219 0069 18       		.byte	0x18
 1220 006a 6E000000 		.4byte	0x6e
 1221 006e 03       		.uleb128 0x3
 1222 006f 01       		.byte	0x1
 1223 0070 08       		.byte	0x8
 1224 0071 67040000 		.4byte	.LASF8
 1225 0075 03       		.uleb128 0x3
 1226 0076 02       		.byte	0x2
 1227 0077 07       		.byte	0x7
 1228 0078 46020000 		.4byte	.LASF9
 1229 007c 04       		.uleb128 0x4
 1230 007d EB040000 		.4byte	.LASF10
 1231 0081 08       		.byte	0x8
 1232 0082 34       		.byte	0x34
 1233 0083 19       		.byte	0x19
 1234 0084 88000000 		.4byte	0x88
 1235 0088 03       		.uleb128 0x3
 1236 0089 04       		.byte	0x4
 1237 008a 07       		.byte	0x7
 1238 008b 0D020000 		.4byte	.LASF11
 1239 008f 04       		.uleb128 0x4
 1240 0090 63000000 		.4byte	.LASF12
 1241 0094 08       		.byte	0x8
 1242 0095 37       		.byte	0x37
 1243 0096 19       		.byte	0x19
 1244 0097 9B000000 		.4byte	0x9b
 1245 009b 03       		.uleb128 0x3
 1246 009c 08       		.byte	0x8
 1247 009d 07       		.byte	0x7
 1248 009e B2000000 		.4byte	.LASF13
 1249 00a2 04       		.uleb128 0x4
 1250 00a3 BA020000 		.4byte	.LASF14
 1251 00a7 09       		.byte	0x9
 1252 00a8 39       		.byte	0x39
 1253 00a9 1D       		.byte	0x1d
 1254 00aa 7C000000 		.4byte	0x7c
ARM GAS  /tmp/ccdzvlYC.s 			page 23


 1255 00ae 04       		.uleb128 0x4
 1256 00af 7E020000 		.4byte	.LASF15
 1257 00b3 09       		.byte	0x9
 1258 00b4 3C       		.byte	0x3c
 1259 00b5 1D       		.byte	0x1d
 1260 00b6 62000000 		.4byte	0x62
 1261 00ba 04       		.uleb128 0x4
 1262 00bb 6B010000 		.4byte	.LASF16
 1263 00bf 09       		.byte	0x9
 1264 00c0 3D       		.byte	0x3d
 1265 00c1 1D       		.byte	0x1d
 1266 00c2 62000000 		.4byte	0x62
 1267 00c6 04       		.uleb128 0x4
 1268 00c7 26040000 		.4byte	.LASF17
 1269 00cb 09       		.byte	0x9
 1270 00cc 3E       		.byte	0x3e
 1271 00cd 1D       		.byte	0x1d
 1272 00ce 62000000 		.4byte	0x62
 1273 00d2 04       		.uleb128 0x4
 1274 00d3 43040000 		.4byte	.LASF18
 1275 00d7 09       		.byte	0x9
 1276 00d8 40       		.byte	0x40
 1277 00d9 1D       		.byte	0x1d
 1278 00da 7C000000 		.4byte	0x7c
 1279 00de 04       		.uleb128 0x4
 1280 00df 63020000 		.4byte	.LASF19
 1281 00e3 09       		.byte	0x9
 1282 00e4 41       		.byte	0x41
 1283 00e5 1D       		.byte	0x1d
 1284 00e6 4F000000 		.4byte	0x4f
 1285 00ea 04       		.uleb128 0x4
 1286 00eb 94020000 		.4byte	.LASF20
 1287 00ef 09       		.byte	0x9
 1288 00f0 43       		.byte	0x43
 1289 00f1 1D       		.byte	0x1d
 1290 00f2 7C000000 		.4byte	0x7c
 1291 00f6 04       		.uleb128 0x4
 1292 00f7 E6010000 		.4byte	.LASF21
 1293 00fb 09       		.byte	0x9
 1294 00fc 45       		.byte	0x45
 1295 00fd 1D       		.byte	0x1d
 1296 00fe 4F000000 		.4byte	0x4f
 1297 0102 04       		.uleb128 0x4
 1298 0103 6A050000 		.4byte	.LASF22
 1299 0107 0A       		.byte	0xa
 1300 0108 33       		.byte	0x33
 1301 0109 12       		.byte	0x12
 1302 010a 7C000000 		.4byte	0x7c
 1303 010e 04       		.uleb128 0x4
 1304 010f CD050000 		.4byte	.LASF23
 1305 0113 0A       		.byte	0xa
 1306 0114 3F       		.byte	0x3f
 1307 0115 1A       		.byte	0x1a
 1308 0116 1A010000 		.4byte	0x11a
 1309 011a 05       		.uleb128 0x5
 1310 011b 59020000 		.4byte	.LASF41
 1311 011f 44       		.byte	0x44
ARM GAS  /tmp/ccdzvlYC.s 			page 24


 1312 0120 02       		.byte	0x2
 1313 0121 9A       		.byte	0x9a
 1314 0122 08       		.byte	0x8
 1315 0123 0A020000 		.4byte	0x20a
 1316 0127 06       		.uleb128 0x6
 1317 0128 93010000 		.4byte	.LASF24
 1318 012c 02       		.byte	0x2
 1319 012d 9B       		.byte	0x9b
 1320 012e 19       		.byte	0x19
 1321 012f 43020000 		.4byte	0x243
 1322 0133 00       		.byte	0
 1323 0134 06       		.uleb128 0x6
 1324 0135 09040000 		.4byte	.LASF25
 1325 0139 02       		.byte	0x2
 1326 013a 9C       		.byte	0x9c
 1327 013b 19       		.byte	0x19
 1328 013c D2000000 		.4byte	0xd2
 1329 0140 08       		.byte	0x8
 1330 0141 07       		.uleb128 0x7
 1331 0142 63747800 		.ascii	"ctx\000"
 1332 0146 02       		.byte	0x2
 1333 0147 9D       		.byte	0x9d
 1334 0148 19       		.byte	0x19
 1335 0149 5F040000 		.4byte	0x45f
 1336 014d 0C       		.byte	0xc
 1337 014e 06       		.uleb128 0x6
 1338 014f AB020000 		.4byte	.LASF26
 1339 0153 02       		.byte	0x2
 1340 0154 9F       		.byte	0x9f
 1341 0155 1A       		.byte	0x1a
 1342 0156 16020000 		.4byte	0x216
 1343 015a 10       		.byte	0x10
 1344 015b 06       		.uleb128 0x6
 1345 015c 35050000 		.4byte	.LASF27
 1346 0160 02       		.byte	0x2
 1347 0161 A0       		.byte	0xa0
 1348 0162 1A       		.byte	0x1a
 1349 0163 16020000 		.4byte	0x216
 1350 0167 14       		.byte	0x14
 1351 0168 06       		.uleb128 0x6
 1352 0169 3B020000 		.4byte	.LASF28
 1353 016d 02       		.byte	0x2
 1354 016e A7       		.byte	0xa7
 1355 016f 1A       		.byte	0x1a
 1356 0170 03060000 		.4byte	0x603
 1357 0174 18       		.byte	0x18
 1358 0175 06       		.uleb128 0x6
 1359 0176 29050000 		.4byte	.LASF29
 1360 017a 02       		.byte	0x2
 1361 017b B0       		.byte	0xb0
 1362 017c 1A       		.byte	0x1a
 1363 017d 1A060000 		.4byte	0x61a
 1364 0181 1C       		.byte	0x1c
 1365 0182 06       		.uleb128 0x6
 1366 0183 5C010000 		.4byte	.LASF30
 1367 0187 02       		.byte	0x2
 1368 0188 B5       		.byte	0xb5
ARM GAS  /tmp/ccdzvlYC.s 			page 25


 1369 0189 19       		.byte	0x19
 1370 018a BA000000 		.4byte	0xba
 1371 018e 20       		.byte	0x20
 1372 018f 06       		.uleb128 0x6
 1373 0190 F2050000 		.4byte	.LASF31
 1374 0194 02       		.byte	0x2
 1375 0195 B9       		.byte	0xb9
 1376 0196 19       		.byte	0x19
 1377 0197 AE000000 		.4byte	0xae
 1378 019b 21       		.byte	0x21
 1379 019c 06       		.uleb128 0x6
 1380 019d 2E040000 		.4byte	.LASF32
 1381 01a1 02       		.byte	0x2
 1382 01a2 BE       		.byte	0xbe
 1383 01a3 19       		.byte	0x19
 1384 01a4 C6000000 		.4byte	0xc6
 1385 01a8 22       		.byte	0x22
 1386 01a9 08       		.uleb128 0x8
 1387 01aa 7500     		.ascii	"u\000"
 1388 01ac 02       		.byte	0x2
 1389 01ad 0F01     		.2byte	0x10f
 1390 01af 19       		.byte	0x19
 1391 01b0 28050000 		.4byte	0x528
 1392 01b4 24       		.byte	0x24
 1393 01b5 09       		.uleb128 0x9
 1394 01b6 C3010000 		.4byte	.LASF33
 1395 01ba 02       		.byte	0x2
 1396 01bb 1401     		.2byte	0x114
 1397 01bd 19       		.byte	0x19
 1398 01be 1C020000 		.4byte	0x21c
 1399 01c2 28       		.byte	0x28
 1400 01c3 09       		.uleb128 0x9
 1401 01c4 53010000 		.4byte	.LASF34
 1402 01c8 02       		.byte	0x2
 1403 01c9 1A01     		.2byte	0x11a
 1404 01cb 19       		.byte	0x19
 1405 01cc 43020000 		.4byte	0x243
 1406 01d0 2C       		.byte	0x2c
 1407 01d1 09       		.uleb128 0x9
 1408 01d2 69020000 		.4byte	.LASF35
 1409 01d6 02       		.byte	0x2
 1410 01d7 2001     		.2byte	0x120
 1411 01d9 19       		.byte	0x19
 1412 01da EA000000 		.4byte	0xea
 1413 01de 34       		.byte	0x34
 1414 01df 09       		.uleb128 0x9
 1415 01e0 53060000 		.4byte	.LASF36
 1416 01e4 02       		.byte	0x2
 1417 01e5 2701     		.2byte	0x127
 1418 01e7 1A       		.byte	0x1a
 1419 01e8 FD050000 		.4byte	0x5fd
 1420 01ec 38       		.byte	0x38
 1421 01ed 09       		.uleb128 0x9
 1422 01ee B1020000 		.4byte	.LASF37
 1423 01f2 02       		.byte	0x2
 1424 01f3 2B01     		.2byte	0x12b
 1425 01f5 19       		.byte	0x19
ARM GAS  /tmp/ccdzvlYC.s 			page 26


 1426 01f6 D2000000 		.4byte	0xd2
 1427 01fa 3C       		.byte	0x3c
 1428 01fb 09       		.uleb128 0x9
 1429 01fc 40020000 		.4byte	.LASF38
 1430 0200 02       		.byte	0x2
 1431 0201 3201     		.2byte	0x132
 1432 0203 1A       		.byte	0x1a
 1433 0204 08030000 		.4byte	0x308
 1434 0208 40       		.byte	0x40
 1435 0209 00       		.byte	0
 1436 020a 04       		.uleb128 0x4
 1437 020b C2020000 		.4byte	.LASF39
 1438 020f 0A       		.byte	0xa
 1439 0210 44       		.byte	0x44
 1440 0211 14       		.byte	0x14
 1441 0212 16020000 		.4byte	0x216
 1442 0216 0A       		.uleb128 0xa
 1443 0217 04       		.byte	0x4
 1444 0218 0E010000 		.4byte	0x10e
 1445 021c 04       		.uleb128 0x4
 1446 021d 11060000 		.4byte	.LASF40
 1447 0221 0A       		.byte	0xa
 1448 0222 49       		.byte	0x49
 1449 0223 20       		.byte	0x20
 1450 0224 28020000 		.4byte	0x228
 1451 0228 05       		.uleb128 0x5
 1452 0229 07050000 		.4byte	.LASF42
 1453 022d 04       		.byte	0x4
 1454 022e 02       		.byte	0x2
 1455 022f 88       		.byte	0x88
 1456 0230 08       		.byte	0x8
 1457 0231 43020000 		.4byte	0x243
 1458 0235 06       		.uleb128 0x6
 1459 0236 FB000000 		.4byte	.LASF43
 1460 023a 02       		.byte	0x2
 1461 023b 89       		.byte	0x89
 1462 023c 1A       		.byte	0x1a
 1463 023d 16020000 		.4byte	0x216
 1464 0241 00       		.byte	0
 1465 0242 00       		.byte	0
 1466 0243 04       		.uleb128 0x4
 1467 0244 B4050000 		.4byte	.LASF44
 1468 0248 0A       		.byte	0xa
 1469 0249 50       		.byte	0x50
 1470 024a 21       		.byte	0x21
 1471 024b 54020000 		.4byte	0x254
 1472 024f 0B       		.uleb128 0xb
 1473 0250 43020000 		.4byte	0x243
 1474 0254 05       		.uleb128 0x5
 1475 0255 00010000 		.4byte	.LASF45
 1476 0259 08       		.byte	0x8
 1477 025a 02       		.byte	0x2
 1478 025b 8F       		.byte	0x8f
 1479 025c 08       		.byte	0x8
 1480 025d 7C020000 		.4byte	0x27c
 1481 0261 06       		.uleb128 0x6
 1482 0262 FB000000 		.4byte	.LASF43
ARM GAS  /tmp/ccdzvlYC.s 			page 27


 1483 0266 02       		.byte	0x2
 1484 0267 90       		.byte	0x90
 1485 0268 1A       		.byte	0x1a
 1486 0269 16020000 		.4byte	0x216
 1487 026d 00       		.byte	0
 1488 026e 06       		.uleb128 0x6
 1489 026f 6C000000 		.4byte	.LASF46
 1490 0273 02       		.byte	0x2
 1491 0274 91       		.byte	0x91
 1492 0275 1A       		.byte	0x1a
 1493 0276 16020000 		.4byte	0x216
 1494 027a 04       		.byte	0x4
 1495 027b 00       		.byte	0
 1496 027c 04       		.uleb128 0x4
 1497 027d 43000000 		.4byte	.LASF47
 1498 0281 0A       		.byte	0xa
 1499 0282 57       		.byte	0x57
 1500 0283 1E       		.byte	0x1e
 1501 0284 88020000 		.4byte	0x288
 1502 0288 0C       		.uleb128 0xc
 1503 0289 86020000 		.4byte	.LASF48
 1504 028d 1C       		.byte	0x1c
 1505 028e 02       		.byte	0x2
 1506 028f 6A01     		.2byte	0x16a
 1507 0291 08       		.byte	0x8
 1508 0292 EB020000 		.4byte	0x2eb
 1509 0296 09       		.uleb128 0x9
 1510 0297 93010000 		.4byte	.LASF24
 1511 029b 02       		.byte	0x2
 1512 029c 6B01     		.2byte	0x16b
 1513 029e 19       		.byte	0x19
 1514 029f 43020000 		.4byte	0x243
 1515 02a3 00       		.byte	0
 1516 02a4 09       		.uleb128 0x9
 1517 02a5 09040000 		.4byte	.LASF25
 1518 02a9 02       		.byte	0x2
 1519 02aa 6C01     		.2byte	0x16c
 1520 02ac 19       		.byte	0x19
 1521 02ad D2000000 		.4byte	0xd2
 1522 02b1 08       		.byte	0x8
 1523 02b2 08       		.uleb128 0x8
 1524 02b3 63747800 		.ascii	"ctx\000"
 1525 02b7 02       		.byte	0x2
 1526 02b8 6E01     		.2byte	0x16e
 1527 02ba 19       		.byte	0x19
 1528 02bb 5F040000 		.4byte	0x45f
 1529 02bf 0C       		.byte	0xc
 1530 02c0 09       		.uleb128 0x9
 1531 02c1 AB020000 		.4byte	.LASF26
 1532 02c5 02       		.byte	0x2
 1533 02c6 7101     		.2byte	0x171
 1534 02c8 1A       		.byte	0x1a
 1535 02c9 16020000 		.4byte	0x216
 1536 02cd 10       		.byte	0x10
 1537 02ce 09       		.uleb128 0x9
 1538 02cf 35050000 		.4byte	.LASF27
 1539 02d3 02       		.byte	0x2
ARM GAS  /tmp/ccdzvlYC.s 			page 28


 1540 02d4 7201     		.2byte	0x172
 1541 02d6 1A       		.byte	0x1a
 1542 02d7 16020000 		.4byte	0x216
 1543 02db 14       		.byte	0x14
 1544 02dc 09       		.uleb128 0x9
 1545 02dd 1E040000 		.4byte	.LASF49
 1546 02e1 02       		.byte	0x2
 1547 02e2 7501     		.2byte	0x175
 1548 02e4 1A       		.byte	0x1a
 1549 02e5 16020000 		.4byte	0x216
 1550 02e9 18       		.byte	0x18
 1551 02ea 00       		.byte	0
 1552 02eb 04       		.uleb128 0x4
 1553 02ec 74050000 		.4byte	.LASF50
 1554 02f0 0A       		.byte	0xa
 1555 02f1 5C       		.byte	0x5c
 1556 02f2 10       		.byte	0x10
 1557 02f3 F7020000 		.4byte	0x2f7
 1558 02f7 0A       		.uleb128 0xa
 1559 02f8 04       		.byte	0x4
 1560 02f9 FD020000 		.4byte	0x2fd
 1561 02fd 0D       		.uleb128 0xd
 1562 02fe 08030000 		.4byte	0x308
 1563 0302 0E       		.uleb128 0xe
 1564 0303 08030000 		.4byte	0x308
 1565 0307 00       		.byte	0
 1566 0308 0F       		.uleb128 0xf
 1567 0309 04       		.byte	0x4
 1568 030a 04       		.uleb128 0x4
 1569 030b 33040000 		.4byte	.LASF51
 1570 030f 0A       		.byte	0xa
 1571 0310 61       		.byte	0x61
 1572 0311 21       		.byte	0x21
 1573 0312 16030000 		.4byte	0x316
 1574 0316 0C       		.uleb128 0xc
 1575 0317 AC040000 		.4byte	.LASF52
 1576 031b 14       		.byte	0x14
 1577 031c 02       		.byte	0x2
 1578 031d 4501     		.2byte	0x145
 1579 031f 08       		.byte	0x8
 1580 0320 6B030000 		.4byte	0x36b
 1581 0324 09       		.uleb128 0x9
 1582 0325 FB000000 		.4byte	.LASF43
 1583 0329 02       		.byte	0x2
 1584 032a 4601     		.2byte	0x146
 1585 032c 1A       		.byte	0x1a
 1586 032d 20060000 		.4byte	0x620
 1587 0331 00       		.byte	0
 1588 0332 09       		.uleb128 0x9
 1589 0333 6C000000 		.4byte	.LASF46
 1590 0337 02       		.byte	0x2
 1591 0338 4701     		.2byte	0x147
 1592 033a 1A       		.byte	0x1a
 1593 033b 20060000 		.4byte	0x620
 1594 033f 04       		.byte	0x4
 1595 0340 09       		.uleb128 0x9
 1596 0341 56000000 		.4byte	.LASF53
ARM GAS  /tmp/ccdzvlYC.s 			page 29


 1597 0345 02       		.byte	0x2
 1598 0346 4801     		.2byte	0x148
 1599 0348 19       		.byte	0x19
 1600 0349 02010000 		.4byte	0x102
 1601 034d 08       		.byte	0x8
 1602 034e 09       		.uleb128 0x9
 1603 034f 83010000 		.4byte	.LASF54
 1604 0353 02       		.byte	0x2
 1605 0354 4901     		.2byte	0x149
 1606 0356 19       		.byte	0x19
 1607 0357 EB020000 		.4byte	0x2eb
 1608 035b 0C       		.byte	0xc
 1609 035c 08       		.uleb128 0x8
 1610 035d 70617200 		.ascii	"par\000"
 1611 0361 02       		.byte	0x2
 1612 0362 4B01     		.2byte	0x14b
 1613 0364 1A       		.byte	0x1a
 1614 0365 08030000 		.4byte	0x308
 1615 0369 10       		.byte	0x10
 1616 036a 00       		.byte	0
 1617 036b 04       		.uleb128 0x4
 1618 036c E5000000 		.4byte	.LASF55
 1619 0370 0A       		.byte	0xa
 1620 0371 66       		.byte	0x66
 1621 0372 28       		.byte	0x28
 1622 0373 77030000 		.4byte	0x377
 1623 0377 0C       		.uleb128 0xc
 1624 0378 D5020000 		.4byte	.LASF56
 1625 037c 10       		.byte	0x10
 1626 037d 02       		.byte	0x2
 1627 037e 5501     		.2byte	0x155
 1628 0380 08       		.byte	0x8
 1629 0381 BE030000 		.4byte	0x3be
 1630 0385 09       		.uleb128 0x9
 1631 0386 FB000000 		.4byte	.LASF43
 1632 038a 02       		.byte	0x2
 1633 038b 5601     		.2byte	0x156
 1634 038d 1A       		.byte	0x1a
 1635 038e 20060000 		.4byte	0x620
 1636 0392 00       		.byte	0
 1637 0393 09       		.uleb128 0x9
 1638 0394 6C000000 		.4byte	.LASF46
 1639 0398 02       		.byte	0x2
 1640 0399 5801     		.2byte	0x158
 1641 039b 1A       		.byte	0x1a
 1642 039c 20060000 		.4byte	0x620
 1643 03a0 04       		.byte	0x4
 1644 03a1 09       		.uleb128 0x9
 1645 03a2 56000000 		.4byte	.LASF53
 1646 03a6 02       		.byte	0x2
 1647 03a7 5A01     		.2byte	0x15a
 1648 03a9 19       		.byte	0x19
 1649 03aa 02010000 		.4byte	0x102
 1650 03ae 08       		.byte	0x8
 1651 03af 09       		.uleb128 0x9
 1652 03b0 7F040000 		.4byte	.LASF57
 1653 03b4 02       		.byte	0x2
ARM GAS  /tmp/ccdzvlYC.s 			page 30


 1654 03b5 6201     		.2byte	0x162
 1655 03b7 19       		.byte	0x19
 1656 03b8 02010000 		.4byte	0x102
 1657 03bc 0C       		.byte	0xc
 1658 03bd 00       		.byte	0
 1659 03be 04       		.uleb128 0x4
 1660 03bf 7D000000 		.4byte	.LASF58
 1661 03c3 0A       		.byte	0xa
 1662 03c4 6B       		.byte	0x6b
 1663 03c5 20       		.byte	0x20
 1664 03c6 CA030000 		.4byte	0x3ca
 1665 03ca 0C       		.uleb128 0xc
 1666 03cb B3010000 		.4byte	.LASF59
 1667 03cf 04       		.byte	0x4
 1668 03d0 02       		.byte	0x2
 1669 03d1 7C01     		.2byte	0x17c
 1670 03d3 08       		.byte	0x8
 1671 03d4 E7030000 		.4byte	0x3e7
 1672 03d8 09       		.uleb128 0x9
 1673 03d9 8B050000 		.4byte	.LASF60
 1674 03dd 02       		.byte	0x2
 1675 03de 8401     		.2byte	0x184
 1676 03e0 24       		.byte	0x24
 1677 03e1 09060000 		.4byte	0x609
 1678 03e5 00       		.byte	0
 1679 03e6 00       		.byte	0
 1680 03e7 04       		.uleb128 0x4
 1681 03e8 72020000 		.4byte	.LASF61
 1682 03ec 0A       		.byte	0xa
 1683 03ed 70       		.byte	0x70
 1684 03ee 1A       		.byte	0x1a
 1685 03ef F3030000 		.4byte	0x3f3
 1686 03f3 0C       		.uleb128 0xc
 1687 03f4 8F040000 		.4byte	.LASF62
 1688 03f8 78       		.byte	0x78
 1689 03f9 02       		.byte	0x2
 1690 03fa 9C01     		.2byte	0x19c
 1691 03fc 08       		.byte	0x8
 1692 03fd 47040000 		.4byte	0x447
 1693 0401 09       		.uleb128 0x9
 1694 0402 D6050000 		.4byte	.LASF63
 1695 0406 02       		.byte	0x2
 1696 0407 A001     		.2byte	0x1a0
 1697 0409 19       		.byte	0x19
 1698 040a 7C020000 		.4byte	0x27c
 1699 040e 00       		.byte	0
 1700 040f 09       		.uleb128 0x9
 1701 0410 40010000 		.4byte	.LASF64
 1702 0414 02       		.byte	0x2
 1703 0415 A401     		.2byte	0x1a4
 1704 0417 19       		.byte	0x19
 1705 0418 6B030000 		.4byte	0x36b
 1706 041c 1C       		.byte	0x1c
 1707 041d 08       		.uleb128 0x8
 1708 041e 64626700 		.ascii	"dbg\000"
 1709 0422 02       		.byte	0x2
 1710 0423 A801     		.2byte	0x1a8
ARM GAS  /tmp/ccdzvlYC.s 			page 31


 1711 0425 19       		.byte	0x19
 1712 0426 BE030000 		.4byte	0x3be
 1713 042a 2C       		.byte	0x2c
 1714 042b 09       		.uleb128 0x9
 1715 042c D2000000 		.4byte	.LASF65
 1716 0430 02       		.byte	0x2
 1717 0431 AC01     		.2byte	0x1ac
 1718 0433 19       		.byte	0x19
 1719 0434 0E010000 		.4byte	0x10e
 1720 0438 30       		.byte	0x30
 1721 0439 08       		.uleb128 0x8
 1722 043a 746D00   		.ascii	"tm\000"
 1723 043d 02       		.byte	0x2
 1724 043e B101     		.2byte	0x1b1
 1725 0440 19       		.byte	0x19
 1726 0441 1C050000 		.4byte	0x51c
 1727 0445 74       		.byte	0x74
 1728 0446 00       		.byte	0
 1729 0447 04       		.uleb128 0x4
 1730 0448 AA010000 		.4byte	.LASF66
 1731 044c 0B       		.byte	0xb
 1732 044d 65       		.byte	0x65
 1733 044e 0F       		.byte	0xf
 1734 044f 08030000 		.4byte	0x308
 1735 0453 04       		.uleb128 0x4
 1736 0454 A0020000 		.4byte	.LASF67
 1737 0458 0B       		.byte	0xb
 1738 0459 6D       		.byte	0x6d
 1739 045a 12       		.byte	0x12
 1740 045b 8F000000 		.4byte	0x8f
 1741 045f 05       		.uleb128 0x5
 1742 0460 E6030000 		.4byte	.LASF68
 1743 0464 04       		.byte	0x4
 1744 0465 0B       		.byte	0xb
 1745 0466 89       		.byte	0x89
 1746 0467 08       		.byte	0x8
 1747 0468 79040000 		.4byte	0x479
 1748 046c 07       		.uleb128 0x7
 1749 046d 737000   		.ascii	"sp\000"
 1750 0470 0B       		.byte	0xb
 1751 0471 8A       		.byte	0x8a
 1752 0472 17       		.byte	0x17
 1753 0473 FF040000 		.4byte	0x4ff
 1754 0477 00       		.byte	0
 1755 0478 00       		.byte	0
 1756 0479 0C       		.uleb128 0xc
 1757 047a 71000000 		.4byte	.LASF69
 1758 047e 24       		.byte	0x24
 1759 047f 04       		.byte	0x4
 1760 0480 5901     		.2byte	0x159
 1761 0482 08       		.byte	0x8
 1762 0483 FF040000 		.4byte	0x4ff
 1763 0487 08       		.uleb128 0x8
 1764 0488 723400   		.ascii	"r4\000"
 1765 048b 04       		.byte	0x4
 1766 048c 6C01     		.2byte	0x16c
 1767 048e 11       		.byte	0x11
ARM GAS  /tmp/ccdzvlYC.s 			page 32


 1768 048f 47040000 		.4byte	0x447
 1769 0493 00       		.byte	0
 1770 0494 08       		.uleb128 0x8
 1771 0495 723500   		.ascii	"r5\000"
 1772 0498 04       		.byte	0x4
 1773 0499 6D01     		.2byte	0x16d
 1774 049b 11       		.byte	0x11
 1775 049c 47040000 		.4byte	0x447
 1776 04a0 04       		.byte	0x4
 1777 04a1 08       		.uleb128 0x8
 1778 04a2 723600   		.ascii	"r6\000"
 1779 04a5 04       		.byte	0x4
 1780 04a6 6E01     		.2byte	0x16e
 1781 04a8 11       		.byte	0x11
 1782 04a9 47040000 		.4byte	0x447
 1783 04ad 08       		.byte	0x8
 1784 04ae 08       		.uleb128 0x8
 1785 04af 723700   		.ascii	"r7\000"
 1786 04b2 04       		.byte	0x4
 1787 04b3 6F01     		.2byte	0x16f
 1788 04b5 11       		.byte	0x11
 1789 04b6 47040000 		.4byte	0x447
 1790 04ba 0C       		.byte	0xc
 1791 04bb 08       		.uleb128 0x8
 1792 04bc 723800   		.ascii	"r8\000"
 1793 04bf 04       		.byte	0x4
 1794 04c0 7001     		.2byte	0x170
 1795 04c2 11       		.byte	0x11
 1796 04c3 47040000 		.4byte	0x447
 1797 04c7 10       		.byte	0x10
 1798 04c8 08       		.uleb128 0x8
 1799 04c9 723900   		.ascii	"r9\000"
 1800 04cc 04       		.byte	0x4
 1801 04cd 7101     		.2byte	0x171
 1802 04cf 11       		.byte	0x11
 1803 04d0 47040000 		.4byte	0x447
 1804 04d4 14       		.byte	0x14
 1805 04d5 08       		.uleb128 0x8
 1806 04d6 72313000 		.ascii	"r10\000"
 1807 04da 04       		.byte	0x4
 1808 04db 7201     		.2byte	0x172
 1809 04dd 11       		.byte	0x11
 1810 04de 47040000 		.4byte	0x447
 1811 04e2 18       		.byte	0x18
 1812 04e3 08       		.uleb128 0x8
 1813 04e4 72313100 		.ascii	"r11\000"
 1814 04e8 04       		.byte	0x4
 1815 04e9 7301     		.2byte	0x173
 1816 04eb 11       		.byte	0x11
 1817 04ec 47040000 		.4byte	0x447
 1818 04f0 1C       		.byte	0x1c
 1819 04f1 08       		.uleb128 0x8
 1820 04f2 6C7200   		.ascii	"lr\000"
 1821 04f5 04       		.byte	0x4
 1822 04f6 7401     		.2byte	0x174
 1823 04f8 11       		.byte	0x11
 1824 04f9 47040000 		.4byte	0x447
ARM GAS  /tmp/ccdzvlYC.s 			page 33


 1825 04fd 20       		.byte	0x20
 1826 04fe 00       		.byte	0
 1827 04ff 0A       		.uleb128 0xa
 1828 0500 04       		.byte	0x4
 1829 0501 79040000 		.4byte	0x479
 1830 0505 10       		.uleb128 0x10
 1831 0506 04       		.byte	0x4
 1832 0507 0C       		.byte	0xc
 1833 0508 38       		.byte	0x38
 1834 0509 09       		.byte	0x9
 1835 050a 1C050000 		.4byte	0x51c
 1836 050e 06       		.uleb128 0x6
 1837 050f 95050000 		.4byte	.LASF70
 1838 0513 0C       		.byte	0xc
 1839 0514 3C       		.byte	0x3c
 1840 0515 19       		.byte	0x19
 1841 0516 A2000000 		.4byte	0xa2
 1842 051a 00       		.byte	0
 1843 051b 00       		.byte	0
 1844 051c 04       		.uleb128 0x4
 1845 051d F3030000 		.4byte	.LASF71
 1846 0521 0C       		.byte	0xc
 1847 0522 3D       		.byte	0x3d
 1848 0523 03       		.byte	0x3
 1849 0524 05050000 		.4byte	0x505
 1850 0528 11       		.uleb128 0x11
 1851 0529 04       		.byte	0x4
 1852 052a 02       		.byte	0x2
 1853 052b D2       		.byte	0xd2
 1854 052c 03       		.byte	0x3
 1855 052d 94050000 		.4byte	0x594
 1856 0531 12       		.uleb128 0x12
 1857 0532 5C000000 		.4byte	.LASF72
 1858 0536 02       		.byte	0x2
 1859 0537 D9       		.byte	0xd9
 1860 0538 19       		.byte	0x19
 1861 0539 DE000000 		.4byte	0xde
 1862 053d 12       		.uleb128 0x12
 1863 053e C9000000 		.4byte	.LASF73
 1864 0542 02       		.byte	0x2
 1865 0543 E0       		.byte	0xe0
 1866 0544 19       		.byte	0x19
 1867 0545 DE000000 		.4byte	0xde
 1868 0549 12       		.uleb128 0x12
 1869 054a F8050000 		.4byte	.LASF74
 1870 054e 02       		.byte	0x2
 1871 054f E7       		.byte	0xe7
 1872 0550 1A       		.byte	0x1a
 1873 0551 08030000 		.4byte	0x308
 1874 0555 12       		.uleb128 0x12
 1875 0556 50000000 		.4byte	.LASF75
 1876 055a 02       		.byte	0x2
 1877 055b EE       		.byte	0xee
 1878 055c 1A       		.byte	0x1a
 1879 055d 94050000 		.4byte	0x594
 1880 0561 12       		.uleb128 0x12
 1881 0562 DD000000 		.4byte	.LASF76
ARM GAS  /tmp/ccdzvlYC.s 			page 34


 1882 0566 02       		.byte	0x2
 1883 0567 F3       		.byte	0xf3
 1884 0568 19       		.byte	0x19
 1885 0569 DE000000 		.4byte	0xde
 1886 056d 12       		.uleb128 0x12
 1887 056e 06020000 		.4byte	.LASF77
 1888 0572 02       		.byte	0x2
 1889 0573 FC       		.byte	0xfc
 1890 0574 1A       		.byte	0x1a
 1891 0575 C2050000 		.4byte	0x5c2
 1892 0579 13       		.uleb128 0x13
 1893 057a F4040000 		.4byte	.LASF78
 1894 057e 02       		.byte	0x2
 1895 057f 0501     		.2byte	0x105
 1896 0581 1A       		.byte	0x1a
 1897 0582 FD050000 		.4byte	0x5fd
 1898 0586 13       		.uleb128 0x13
 1899 0587 88040000 		.4byte	.LASF79
 1900 058b 02       		.byte	0x2
 1901 058c 0D01     		.2byte	0x10d
 1902 058e 19       		.byte	0x19
 1903 058f EA000000 		.4byte	0xea
 1904 0593 00       		.byte	0
 1905 0594 0A       		.uleb128 0xa
 1906 0595 04       		.byte	0x4
 1907 0596 0A020000 		.4byte	0x20a
 1908 059a 05       		.uleb128 0x5
 1909 059b BD040000 		.4byte	.LASF80
 1910 059f 0C       		.byte	0xc
 1911 05a0 0D       		.byte	0xd
 1912 05a1 34       		.byte	0x34
 1913 05a2 10       		.byte	0x10
 1914 05a3 C2050000 		.4byte	0x5c2
 1915 05a7 06       		.uleb128 0x6
 1916 05a8 93010000 		.4byte	.LASF24
 1917 05ac 0D       		.byte	0xd
 1918 05ad 35       		.byte	0x35
 1919 05ae 19       		.byte	0x19
 1920 05af 43020000 		.4byte	0x243
 1921 05b3 00       		.byte	0
 1922 05b4 07       		.uleb128 0x7
 1923 05b5 636E7400 		.ascii	"cnt\000"
 1924 05b9 0D       		.byte	0xd
 1925 05ba 37       		.byte	0x37
 1926 05bb 19       		.byte	0x19
 1927 05bc F6000000 		.4byte	0xf6
 1928 05c0 08       		.byte	0x8
 1929 05c1 00       		.byte	0
 1930 05c2 0A       		.uleb128 0xa
 1931 05c3 04       		.byte	0x4
 1932 05c4 9A050000 		.4byte	0x59a
 1933 05c8 05       		.uleb128 0x5
 1934 05c9 C4050000 		.4byte	.LASF81
 1935 05cd 10       		.byte	0x10
 1936 05ce 06       		.byte	0x6
 1937 05cf 39       		.byte	0x39
 1938 05d0 08       		.byte	0x8
ARM GAS  /tmp/ccdzvlYC.s 			page 35


 1939 05d1 FD050000 		.4byte	0x5fd
 1940 05d5 06       		.uleb128 0x6
 1941 05d6 93010000 		.4byte	.LASF24
 1942 05da 06       		.byte	0x6
 1943 05db 3A       		.byte	0x3a
 1944 05dc 19       		.byte	0x19
 1945 05dd 43020000 		.4byte	0x243
 1946 05e1 00       		.byte	0
 1947 05e2 06       		.uleb128 0x6
 1948 05e3 17050000 		.4byte	.LASF82
 1949 05e7 06       		.byte	0x6
 1950 05e8 3C       		.byte	0x3c
 1951 05e9 1A       		.byte	0x1a
 1952 05ea 16020000 		.4byte	0x216
 1953 05ee 08       		.byte	0x8
 1954 05ef 06       		.uleb128 0x6
 1955 05f0 FB000000 		.4byte	.LASF43
 1956 05f4 06       		.byte	0x6
 1957 05f5 3E       		.byte	0x3e
 1958 05f6 1A       		.byte	0x1a
 1959 05f7 3E060000 		.4byte	0x63e
 1960 05fb 0C       		.byte	0xc
 1961 05fc 00       		.byte	0
 1962 05fd 0A       		.uleb128 0xa
 1963 05fe 04       		.byte	0x4
 1964 05ff C8050000 		.4byte	0x5c8
 1965 0603 0A       		.uleb128 0xa
 1966 0604 04       		.byte	0x4
 1967 0605 15060000 		.4byte	0x615
 1968 0609 14       		.uleb128 0x14
 1969 060a 03060000 		.4byte	0x603
 1970 060e 03       		.uleb128 0x3
 1971 060f 01       		.byte	0x1
 1972 0610 08       		.byte	0x8
 1973 0611 30050000 		.4byte	.LASF83
 1974 0615 0B       		.uleb128 0xb
 1975 0616 0E060000 		.4byte	0x60e
 1976 061a 0A       		.uleb128 0xa
 1977 061b 04       		.byte	0x4
 1978 061c 53040000 		.4byte	0x453
 1979 0620 0A       		.uleb128 0xa
 1980 0621 04       		.byte	0x4
 1981 0622 0A030000 		.4byte	0x30a
 1982 0626 15       		.uleb128 0x15
 1983 0627 636800   		.ascii	"ch\000"
 1984 062a 02       		.byte	0x2
 1985 062b D201     		.2byte	0x1d2
 1986 062d 14       		.byte	0x14
 1987 062e E7030000 		.4byte	0x3e7
 1988 0632 04       		.uleb128 0x4
 1989 0633 CB010000 		.4byte	.LASF84
 1990 0637 06       		.byte	0x6
 1991 0638 34       		.byte	0x34
 1992 0639 19       		.byte	0x19
 1993 063a C8050000 		.4byte	0x5c8
 1994 063e 0A       		.uleb128 0xa
 1995 063f 04       		.byte	0x4
ARM GAS  /tmp/ccdzvlYC.s 			page 36


 1996 0640 32060000 		.4byte	0x632
 1997 0644 05       		.uleb128 0x5
 1998 0645 EC020000 		.4byte	.LASF85
 1999 0649 08       		.byte	0x8
 2000 064a 0E       		.byte	0xe
 2001 064b 3B       		.byte	0x3b
 2002 064c 10       		.byte	0x10
 2003 064d 5F060000 		.4byte	0x65f
 2004 0651 06       		.uleb128 0x6
 2005 0652 93010000 		.4byte	.LASF24
 2006 0656 0E       		.byte	0xe
 2007 0657 3C       		.byte	0x3c
 2008 0658 19       		.byte	0x19
 2009 0659 43020000 		.4byte	0x243
 2010 065d 00       		.byte	0
 2011 065e 00       		.byte	0
 2012 065f 04       		.uleb128 0x4
 2013 0660 2B010000 		.4byte	.LASF86
 2014 0664 0E       		.byte	0xe
 2015 0665 3E       		.byte	0x3e
 2016 0666 03       		.byte	0x3
 2017 0667 44060000 		.4byte	0x644
 2018 066b 03       		.uleb128 0x3
 2019 066c 01       		.byte	0x1
 2020 066d 02       		.byte	0x2
 2021 066e 59040000 		.4byte	.LASF87
 2022 0672 16       		.uleb128 0x16
 2023 0673 FF020000 		.4byte	.LASF89
 2024 0677 01       		.byte	0x1
 2025 0678 2801     		.2byte	0x128
 2026 067a 07       		.byte	0x7
 2027 067b DE000000 		.4byte	0xde
 2028 067f 00000000 		.4byte	.LFB254
 2029 0683 50000000 		.4byte	.LFE254-.LFB254
 2030 0687 01       		.uleb128 0x1
 2031 0688 9C       		.byte	0x9c
 2032 0689 92070000 		.4byte	0x792
 2033 068d 17       		.uleb128 0x17
 2034 068e 637000   		.ascii	"cp\000"
 2035 0691 01       		.byte	0x1
 2036 0692 2801     		.2byte	0x128
 2037 0694 30       		.byte	0x30
 2038 0695 92070000 		.4byte	0x792
 2039 0699 06000000 		.4byte	.LLST34
 2040 069d 00000000 		.4byte	.LVUS34
 2041 06a1 18       		.uleb128 0x18
 2042 06a2 04040000 		.4byte	.LASF88
 2043 06a6 01       		.byte	0x1
 2044 06a7 2801     		.2byte	0x128
 2045 06a9 3E       		.byte	0x3e
 2046 06aa 02010000 		.4byte	0x102
 2047 06ae 38000000 		.4byte	.LLST35
 2048 06b2 32000000 		.4byte	.LVUS35
 2049 06b6 19       		.uleb128 0x19
 2050 06b7 6D7000   		.ascii	"mp\000"
 2051 06ba 01       		.byte	0x1
 2052 06bb 2901     		.2byte	0x129
ARM GAS  /tmp/ccdzvlYC.s 			page 37


 2053 06bd 0C       		.byte	0xc
 2054 06be 3E060000 		.4byte	0x63e
 2055 06c2 66000000 		.4byte	.LLST36
 2056 06c6 64000000 		.4byte	.LVUS36
 2057 06ca 19       		.uleb128 0x19
 2058 06cb 6D736700 		.ascii	"msg\000"
 2059 06cf 01       		.byte	0x1
 2060 06d0 2A01     		.2byte	0x12a
 2061 06d2 09       		.byte	0x9
 2062 06d3 DE000000 		.4byte	0xde
 2063 06d7 7F000000 		.4byte	.LLST37
 2064 06db 79000000 		.4byte	.LVUS37
 2065 06df 1A       		.uleb128 0x1a
 2066 06e0 99040000 		.4byte	.LASF92
 2067 06e4 A8070000 		.4byte	0x7a8
 2068 06e8 1B       		.uleb128 0x1b
 2069 06e9 B80E0000 		.4byte	0xeb8
 2070 06ed 00000000 		.4byte	.LBI212
 2071 06f1 0B       		.byte	.LVU279
 2072 06f2 A0010000 		.4byte	.Ldebug_ranges0+0x1a0
 2073 06f6 01       		.byte	0x1
 2074 06f7 3101     		.2byte	0x131
 2075 06f9 08       		.byte	0x8
 2076 06fa 10070000 		.4byte	0x710
 2077 06fe 1C       		.uleb128 0x1c
 2078 06ff C50E0000 		.4byte	0xec5
 2079 0703 00000000 		.4byte	.LBI214
 2080 0707 0D       		.byte	.LVU281
 2081 0708 B8010000 		.4byte	.Ldebug_ranges0+0x1b8
 2082 070c 06       		.byte	0x6
 2083 070d 92       		.byte	0x92
 2084 070e 0A       		.byte	0xa
 2085 070f 00       		.byte	0
 2086 0710 1B       		.uleb128 0x1b
 2087 0711 270F0000 		.4byte	0xf27
 2088 0715 18000000 		.4byte	.LBI220
 2089 0719 01       		.byte	.LVU296
 2090 071a D0010000 		.4byte	.Ldebug_ranges0+0x1d0
 2091 071e 01       		.byte	0x1
 2092 071f 3701     		.2byte	0x137
 2093 0721 03       		.byte	0x3
 2094 0722 54070000 		.4byte	0x754
 2095 0726 1D       		.uleb128 0x1d
 2096 0727 410F0000 		.4byte	0xf41
 2097 072b AA000000 		.4byte	.LLST38
 2098 072f A8000000 		.4byte	.LVUS38
 2099 0733 1D       		.uleb128 0x1d
 2100 0734 350F0000 		.4byte	0xf35
 2101 0738 BF000000 		.4byte	.LLST39
 2102 073c BD000000 		.4byte	.LVUS39
 2103 0740 1E       		.uleb128 0x1e
 2104 0741 D0010000 		.4byte	.Ldebug_ranges0+0x1d0
 2105 0745 1F       		.uleb128 0x1f
 2106 0746 4E0F0000 		.4byte	0xf4e
 2107 074a D6000000 		.4byte	.LLST40
 2108 074e D2000000 		.4byte	.LVUS40
 2109 0752 00       		.byte	0
ARM GAS  /tmp/ccdzvlYC.s 			page 38


 2110 0753 00       		.byte	0
 2111 0754 20       		.uleb128 0x20
 2112 0755 12000000 		.4byte	.LVL52
 2113 0759 50100000 		.4byte	0x1050
 2114 075d 68070000 		.4byte	0x768
 2115 0761 21       		.uleb128 0x21
 2116 0762 01       		.uleb128 0x1
 2117 0763 50       		.byte	0x50
 2118 0764 02       		.uleb128 0x2
 2119 0765 76       		.byte	0x76
 2120 0766 00       		.sleb128 0
 2121 0767 00       		.byte	0
 2122 0768 20       		.uleb128 0x20
 2123 0769 3A000000 		.4byte	.LVL57
 2124 076d 5C100000 		.4byte	0x105c
 2125 0771 81070000 		.4byte	0x781
 2126 0775 21       		.uleb128 0x21
 2127 0776 01       		.uleb128 0x1
 2128 0777 50       		.byte	0x50
 2129 0778 01       		.uleb128 0x1
 2130 0779 37       		.byte	0x37
 2131 077a 21       		.uleb128 0x21
 2132 077b 01       		.uleb128 0x1
 2133 077c 51       		.byte	0x51
 2134 077d 02       		.uleb128 0x2
 2135 077e 77       		.byte	0x77
 2136 077f 00       		.sleb128 0
 2137 0780 00       		.byte	0
 2138 0781 22       		.uleb128 0x22
 2139 0782 46000000 		.4byte	.LVL60
 2140 0786 69100000 		.4byte	0x1069
 2141 078a 21       		.uleb128 0x21
 2142 078b 01       		.uleb128 0x1
 2143 078c 50       		.byte	0x50
 2144 078d 02       		.uleb128 0x2
 2145 078e 76       		.byte	0x76
 2146 078f 00       		.sleb128 0
 2147 0790 00       		.byte	0
 2148 0791 00       		.byte	0
 2149 0792 0A       		.uleb128 0xa
 2150 0793 04       		.byte	0x4
 2151 0794 5F060000 		.4byte	0x65f
 2152 0798 23       		.uleb128 0x23
 2153 0799 15060000 		.4byte	0x615
 2154 079d A8070000 		.4byte	0x7a8
 2155 07a1 24       		.uleb128 0x24
 2156 07a2 2C000000 		.4byte	0x2c
 2157 07a6 12       		.byte	0x12
 2158 07a7 00       		.byte	0
 2159 07a8 0B       		.uleb128 0xb
 2160 07a9 98070000 		.4byte	0x798
 2161 07ad 16       		.uleb128 0x16
 2162 07ae FF050000 		.4byte	.LASF90
 2163 07b2 01       		.byte	0x1
 2164 07b3 0201     		.2byte	0x102
 2165 07b5 07       		.byte	0x7
 2166 07b6 DE000000 		.4byte	0xde
ARM GAS  /tmp/ccdzvlYC.s 			page 39


 2167 07ba 00000000 		.4byte	.LFB253
 2168 07be 14000000 		.4byte	.LFE253-.LFB253
 2169 07c2 01       		.uleb128 0x1
 2170 07c3 9C       		.byte	0x9c
 2171 07c4 BD080000 		.4byte	0x8bd
 2172 07c8 17       		.uleb128 0x17
 2173 07c9 637000   		.ascii	"cp\000"
 2174 07cc 01       		.byte	0x1
 2175 07cd 0201     		.2byte	0x102
 2176 07cf 2F       		.byte	0x2f
 2177 07d0 92070000 		.4byte	0x792
 2178 07d4 F8000000 		.4byte	.LLST41
 2179 07d8 F4000000 		.4byte	.LVUS41
 2180 07dc 18       		.uleb128 0x18
 2181 07dd 04040000 		.4byte	.LASF88
 2182 07e1 01       		.byte	0x1
 2183 07e2 0201     		.2byte	0x102
 2184 07e4 3D       		.byte	0x3d
 2185 07e5 02010000 		.4byte	0x102
 2186 07e9 1D010000 		.4byte	.LLST42
 2187 07ed 19010000 		.4byte	.LVUS42
 2188 07f1 19       		.uleb128 0x19
 2189 07f2 6D736700 		.ascii	"msg\000"
 2190 07f6 01       		.byte	0x1
 2191 07f7 0301     		.2byte	0x103
 2192 07f9 09       		.byte	0x9
 2193 07fa DE000000 		.4byte	0xde
 2194 07fe 40010000 		.4byte	.LLST43
 2195 0802 3E010000 		.4byte	.LVUS43
 2196 0806 1B       		.uleb128 0x1b
 2197 0807 EB0E0000 		.4byte	0xeeb
 2198 080b 00000000 		.4byte	.LBI228
 2199 080f 03       		.byte	.LVU329
 2200 0810 F8010000 		.4byte	.Ldebug_ranges0+0x1f8
 2201 0814 01       		.byte	0x1
 2202 0815 0501     		.2byte	0x105
 2203 0817 03       		.byte	0x3
 2204 0818 50080000 		.4byte	0x850
 2205 081c 25       		.uleb128 0x25
 2206 081d A70F0000 		.4byte	0xfa7
 2207 0821 00000000 		.4byte	.LBI229
 2208 0825 05       		.byte	.LVU331
 2209 0826 00020000 		.4byte	.Ldebug_ranges0+0x200
 2210 082a 03       		.byte	0x3
 2211 082b 7801     		.2byte	0x178
 2212 082d 03       		.byte	0x3
 2213 082e 25       		.uleb128 0x25
 2214 082f B10F0000 		.4byte	0xfb1
 2215 0833 00000000 		.4byte	.LBI230
 2216 0837 07       		.byte	.LVU333
 2217 0838 08020000 		.4byte	.Ldebug_ranges0+0x208
 2218 083c 04       		.byte	0x4
 2219 083d 5A02     		.2byte	0x25a
 2220 083f 03       		.byte	0x3
 2221 0840 1D       		.uleb128 0x1d
 2222 0841 BF0F0000 		.4byte	0xfbf
 2223 0845 55010000 		.4byte	.LLST44
ARM GAS  /tmp/ccdzvlYC.s 			page 40


 2224 0849 53010000 		.4byte	.LVUS44
 2225 084d 00       		.byte	0
 2226 084e 00       		.byte	0
 2227 084f 00       		.byte	0
 2228 0850 1B       		.uleb128 0x1b
 2229 0851 D30E0000 		.4byte	0xed3
 2230 0855 0C000000 		.4byte	.LBI239
 2231 0859 01       		.byte	.LVU343
 2232 085a 20020000 		.4byte	.Ldebug_ranges0+0x220
 2233 085e 01       		.byte	0x1
 2234 085f 0701     		.2byte	0x107
 2235 0861 03       		.byte	0x3
 2236 0862 A4080000 		.4byte	0x8a4
 2237 0866 1E       		.uleb128 0x1e
 2238 0867 20020000 		.4byte	.Ldebug_ranges0+0x220
 2239 086b 25       		.uleb128 0x25
 2240 086c 9D0F0000 		.4byte	0xf9d
 2241 0870 0C000000 		.4byte	.LBI241
 2242 0874 08       		.byte	.LVU350
 2243 0875 20020000 		.4byte	.Ldebug_ranges0+0x220
 2244 0879 03       		.byte	0x3
 2245 087a 8F01     		.2byte	0x18f
 2246 087c 03       		.byte	0x3
 2247 087d 26       		.uleb128 0x26
 2248 087e B10F0000 		.4byte	0xfb1
 2249 0882 0C000000 		.4byte	.LBI242
 2250 0886 0A       		.byte	.LVU352
 2251 0887 0C000000 		.4byte	.LBB242
 2252 088b 06000000 		.4byte	.LBE242-.LBB242
 2253 088f 04       		.byte	0x4
 2254 0890 6D02     		.2byte	0x26d
 2255 0892 03       		.byte	0x3
 2256 0893 1D       		.uleb128 0x1d
 2257 0894 BF0F0000 		.4byte	0xfbf
 2258 0898 6C010000 		.4byte	.LLST45
 2259 089c 6A010000 		.4byte	.LVUS45
 2260 08a0 00       		.byte	0
 2261 08a1 00       		.byte	0
 2262 08a2 00       		.byte	0
 2263 08a3 00       		.byte	0
 2264 08a4 22       		.uleb128 0x22
 2265 08a5 0C000000 		.4byte	.LVL64
 2266 08a9 72060000 		.4byte	0x672
 2267 08ad 21       		.uleb128 0x21
 2268 08ae 01       		.uleb128 0x1
 2269 08af 50       		.byte	0x50
 2270 08b0 03       		.uleb128 0x3
 2271 08b1 F3       		.byte	0xf3
 2272 08b2 01       		.uleb128 0x1
 2273 08b3 50       		.byte	0x50
 2274 08b4 21       		.uleb128 0x21
 2275 08b5 01       		.uleb128 0x1
 2276 08b6 51       		.byte	0x51
 2277 08b7 03       		.uleb128 0x3
 2278 08b8 F3       		.byte	0xf3
 2279 08b9 01       		.uleb128 0x1
 2280 08ba 51       		.byte	0x51
ARM GAS  /tmp/ccdzvlYC.s 			page 41


 2281 08bb 00       		.byte	0
 2282 08bc 00       		.byte	0
 2283 08bd 27       		.uleb128 0x27
 2284 08be 3B050000 		.4byte	.LASF91
 2285 08c2 01       		.byte	0x1
 2286 08c3 CD       		.byte	0xcd
 2287 08c4 07       		.byte	0x7
 2288 08c5 DE000000 		.4byte	0xde
 2289 08c9 00000000 		.4byte	.LFB252
 2290 08cd 44000000 		.4byte	.LFE252-.LFB252
 2291 08d1 01       		.uleb128 0x1
 2292 08d2 9C       		.byte	0x9c
 2293 08d3 BA090000 		.4byte	0x9ba
 2294 08d7 28       		.uleb128 0x28
 2295 08d8 637000   		.ascii	"cp\000"
 2296 08db 01       		.byte	0x1
 2297 08dc CD       		.byte	0xcd
 2298 08dd 29       		.byte	0x29
 2299 08de 92070000 		.4byte	0x792
 2300 08e2 86010000 		.4byte	.LLST23
 2301 08e6 80010000 		.4byte	.LVUS23
 2302 08ea 29       		.uleb128 0x29
 2303 08eb 63747000 		.ascii	"ctp\000"
 2304 08ef 01       		.byte	0x1
 2305 08f0 CE       		.byte	0xce
 2306 08f1 0D       		.byte	0xd
 2307 08f2 16020000 		.4byte	0x216
 2308 08f6 B4010000 		.4byte	.LLST24
 2309 08fa B2010000 		.4byte	.LVUS24
 2310 08fe 29       		.uleb128 0x29
 2311 08ff 6D7000   		.ascii	"mp\000"
 2312 0902 01       		.byte	0x1
 2313 0903 CF       		.byte	0xcf
 2314 0904 0C       		.byte	0xc
 2315 0905 3E060000 		.4byte	0x63e
 2316 0909 C9010000 		.4byte	.LLST25
 2317 090d C7010000 		.4byte	.LVUS25
 2318 0911 29       		.uleb128 0x29
 2319 0912 6D736700 		.ascii	"msg\000"
 2320 0916 01       		.byte	0x1
 2321 0917 D0       		.byte	0xd0
 2322 0918 09       		.byte	0x9
 2323 0919 DE000000 		.4byte	0xde
 2324 091d E0010000 		.4byte	.LLST26
 2325 0921 DC010000 		.4byte	.LVUS26
 2326 0925 1A       		.uleb128 0x1a
 2327 0926 99040000 		.4byte	.LASF92
 2328 092a CA090000 		.4byte	0x9ca
 2329 092e 1C       		.uleb128 0x1c
 2330 092f B80E0000 		.4byte	0xeb8
 2331 0933 06000000 		.4byte	.LBI179
 2332 0937 0A       		.byte	.LVU200
 2333 0938 30010000 		.4byte	.Ldebug_ranges0+0x130
 2334 093c 01       		.byte	0x1
 2335 093d D7       		.byte	0xd7
 2336 093e 08       		.byte	0x8
 2337 093f 2A       		.uleb128 0x2a
ARM GAS  /tmp/ccdzvlYC.s 			page 42


 2338 0940 270F0000 		.4byte	0xf27
 2339 0944 12000000 		.4byte	.LBI183
 2340 0948 01       		.byte	.LVU212
 2341 0949 48010000 		.4byte	.Ldebug_ranges0+0x148
 2342 094d 01       		.byte	0x1
 2343 094e DD       		.byte	0xdd
 2344 094f 03       		.byte	0x3
 2345 0950 82090000 		.4byte	0x982
 2346 0954 1D       		.uleb128 0x1d
 2347 0955 410F0000 		.4byte	0xf41
 2348 0959 00020000 		.4byte	.LLST27
 2349 095d FE010000 		.4byte	.LVUS27
 2350 0961 1D       		.uleb128 0x1d
 2351 0962 350F0000 		.4byte	0xf35
 2352 0966 15020000 		.4byte	.LLST28
 2353 096a 13020000 		.4byte	.LVUS28
 2354 096e 1E       		.uleb128 0x1e
 2355 096f 48010000 		.4byte	.Ldebug_ranges0+0x148
 2356 0973 1F       		.uleb128 0x1f
 2357 0974 4E0F0000 		.4byte	0xf4e
 2358 0978 2C020000 		.4byte	.LLST29
 2359 097c 28020000 		.4byte	.LVUS29
 2360 0980 00       		.byte	0
 2361 0981 00       		.byte	0
 2362 0982 20       		.uleb128 0x20
 2363 0983 10000000 		.4byte	.LVL36
 2364 0987 50100000 		.4byte	0x1050
 2365 098b 96090000 		.4byte	0x996
 2366 098f 21       		.uleb128 0x21
 2367 0990 01       		.uleb128 0x1
 2368 0991 50       		.byte	0x50
 2369 0992 02       		.uleb128 0x2
 2370 0993 76       		.byte	0x76
 2371 0994 00       		.sleb128 0
 2372 0995 00       		.byte	0
 2373 0996 20       		.uleb128 0x20
 2374 0997 34000000 		.4byte	.LVL41
 2375 099b 75100000 		.4byte	0x1075
 2376 099f A9090000 		.4byte	0x9a9
 2377 09a3 21       		.uleb128 0x21
 2378 09a4 01       		.uleb128 0x1
 2379 09a5 50       		.byte	0x50
 2380 09a6 01       		.uleb128 0x1
 2381 09a7 37       		.byte	0x37
 2382 09a8 00       		.byte	0
 2383 09a9 22       		.uleb128 0x22
 2384 09aa 3C000000 		.4byte	.LVL43
 2385 09ae 69100000 		.4byte	0x1069
 2386 09b2 21       		.uleb128 0x21
 2387 09b3 01       		.uleb128 0x1
 2388 09b4 50       		.byte	0x50
 2389 09b5 02       		.uleb128 0x2
 2390 09b6 76       		.byte	0x76
 2391 09b7 00       		.sleb128 0
 2392 09b8 00       		.byte	0
 2393 09b9 00       		.byte	0
 2394 09ba 23       		.uleb128 0x23
ARM GAS  /tmp/ccdzvlYC.s 			page 43


 2395 09bb 15060000 		.4byte	0x615
 2396 09bf CA090000 		.4byte	0x9ca
 2397 09c3 24       		.uleb128 0x24
 2398 09c4 2C000000 		.4byte	0x2c
 2399 09c8 0B       		.byte	0xb
 2400 09c9 00       		.byte	0
 2401 09ca 0B       		.uleb128 0xb
 2402 09cb BA090000 		.4byte	0x9ba
 2403 09cf 27       		.uleb128 0x27
 2404 09d0 9C050000 		.4byte	.LASF93
 2405 09d4 01       		.byte	0x1
 2406 09d5 B3       		.byte	0xb3
 2407 09d6 07       		.byte	0x7
 2408 09d7 DE000000 		.4byte	0xde
 2409 09db 00000000 		.4byte	.LFB251
 2410 09df 14000000 		.4byte	.LFE251-.LFB251
 2411 09e3 01       		.uleb128 0x1
 2412 09e4 9C       		.byte	0x9c
 2413 09e5 BE0A0000 		.4byte	0xabe
 2414 09e9 28       		.uleb128 0x28
 2415 09ea 637000   		.ascii	"cp\000"
 2416 09ed 01       		.byte	0x1
 2417 09ee B3       		.byte	0xb3
 2418 09ef 28       		.byte	0x28
 2419 09f0 92070000 		.4byte	0x792
 2420 09f4 4E020000 		.4byte	.LLST30
 2421 09f8 4A020000 		.4byte	.LVUS30
 2422 09fc 29       		.uleb128 0x29
 2423 09fd 6D736700 		.ascii	"msg\000"
 2424 0a01 01       		.byte	0x1
 2425 0a02 B4       		.byte	0xb4
 2426 0a03 09       		.byte	0x9
 2427 0a04 DE000000 		.4byte	0xde
 2428 0a08 71020000 		.4byte	.LLST31
 2429 0a0c 6F020000 		.4byte	.LVUS31
 2430 0a10 2A       		.uleb128 0x2a
 2431 0a11 EB0E0000 		.4byte	0xeeb
 2432 0a15 00000000 		.4byte	.LBI187
 2433 0a19 03       		.byte	.LVU240
 2434 0a1a 60010000 		.4byte	.Ldebug_ranges0+0x160
 2435 0a1e 01       		.byte	0x1
 2436 0a1f B6       		.byte	0xb6
 2437 0a20 03       		.byte	0x3
 2438 0a21 590A0000 		.4byte	0xa59
 2439 0a25 25       		.uleb128 0x25
 2440 0a26 A70F0000 		.4byte	0xfa7
 2441 0a2a 00000000 		.4byte	.LBI188
 2442 0a2e 05       		.byte	.LVU242
 2443 0a2f 68010000 		.4byte	.Ldebug_ranges0+0x168
 2444 0a33 03       		.byte	0x3
 2445 0a34 7801     		.2byte	0x178
 2446 0a36 03       		.byte	0x3
 2447 0a37 25       		.uleb128 0x25
 2448 0a38 B10F0000 		.4byte	0xfb1
 2449 0a3c 00000000 		.4byte	.LBI189
 2450 0a40 07       		.byte	.LVU244
 2451 0a41 70010000 		.4byte	.Ldebug_ranges0+0x170
ARM GAS  /tmp/ccdzvlYC.s 			page 44


 2452 0a45 04       		.byte	0x4
 2453 0a46 5A02     		.2byte	0x25a
 2454 0a48 03       		.byte	0x3
 2455 0a49 1D       		.uleb128 0x1d
 2456 0a4a BF0F0000 		.4byte	0xfbf
 2457 0a4e 86020000 		.4byte	.LLST32
 2458 0a52 84020000 		.4byte	.LVUS32
 2459 0a56 00       		.byte	0
 2460 0a57 00       		.byte	0
 2461 0a58 00       		.byte	0
 2462 0a59 2A       		.uleb128 0x2a
 2463 0a5a D30E0000 		.4byte	0xed3
 2464 0a5e 0C000000 		.4byte	.LBI198
 2465 0a62 01       		.byte	.LVU254
 2466 0a63 88010000 		.4byte	.Ldebug_ranges0+0x188
 2467 0a67 01       		.byte	0x1
 2468 0a68 B8       		.byte	0xb8
 2469 0a69 03       		.byte	0x3
 2470 0a6a AC0A0000 		.4byte	0xaac
 2471 0a6e 1E       		.uleb128 0x1e
 2472 0a6f 88010000 		.4byte	.Ldebug_ranges0+0x188
 2473 0a73 25       		.uleb128 0x25
 2474 0a74 9D0F0000 		.4byte	0xf9d
 2475 0a78 0C000000 		.4byte	.LBI200
 2476 0a7c 08       		.byte	.LVU261
 2477 0a7d 88010000 		.4byte	.Ldebug_ranges0+0x188
 2478 0a81 03       		.byte	0x3
 2479 0a82 8F01     		.2byte	0x18f
 2480 0a84 03       		.byte	0x3
 2481 0a85 26       		.uleb128 0x26
 2482 0a86 B10F0000 		.4byte	0xfb1
 2483 0a8a 0C000000 		.4byte	.LBI201
 2484 0a8e 0A       		.byte	.LVU263
 2485 0a8f 0C000000 		.4byte	.LBB201
 2486 0a93 06000000 		.4byte	.LBE201-.LBB201
 2487 0a97 04       		.byte	0x4
 2488 0a98 6D02     		.2byte	0x26d
 2489 0a9a 03       		.byte	0x3
 2490 0a9b 1D       		.uleb128 0x1d
 2491 0a9c BF0F0000 		.4byte	0xfbf
 2492 0aa0 9D020000 		.4byte	.LLST33
 2493 0aa4 9B020000 		.4byte	.LVUS33
 2494 0aa8 00       		.byte	0
 2495 0aa9 00       		.byte	0
 2496 0aaa 00       		.byte	0
 2497 0aab 00       		.byte	0
 2498 0aac 22       		.uleb128 0x22
 2499 0aad 0C000000 		.4byte	.LVL47
 2500 0ab1 BD080000 		.4byte	0x8bd
 2501 0ab5 21       		.uleb128 0x21
 2502 0ab6 01       		.uleb128 0x1
 2503 0ab7 50       		.byte	0x50
 2504 0ab8 03       		.uleb128 0x3
 2505 0ab9 F3       		.byte	0xf3
 2506 0aba 01       		.uleb128 0x1
 2507 0abb 50       		.byte	0x50
 2508 0abc 00       		.byte	0
ARM GAS  /tmp/ccdzvlYC.s 			page 45


 2509 0abd 00       		.byte	0
 2510 0abe 2B       		.uleb128 0x2b
 2511 0abf A1000000 		.4byte	.LASF120
 2512 0ac3 01       		.byte	0x1
 2513 0ac4 95       		.byte	0x95
 2514 0ac5 06       		.byte	0x6
 2515 0ac6 01       		.byte	0x1
 2516 0ac7 E00A0000 		.4byte	0xae0
 2517 0acb 2C       		.uleb128 0x2c
 2518 0acc 637000   		.ascii	"cp\000"
 2519 0acf 01       		.byte	0x1
 2520 0ad0 95       		.byte	0x95
 2521 0ad1 2D       		.byte	0x2d
 2522 0ad2 92070000 		.4byte	0x792
 2523 0ad6 1A       		.uleb128 0x1a
 2524 0ad7 99040000 		.4byte	.LASF92
 2525 0adb F00A0000 		.4byte	0xaf0
 2526 0adf 00       		.byte	0
 2527 0ae0 23       		.uleb128 0x23
 2528 0ae1 15060000 		.4byte	0x615
 2529 0ae5 F00A0000 		.4byte	0xaf0
 2530 0ae9 24       		.uleb128 0x24
 2531 0aea 2C000000 		.4byte	0x2c
 2532 0aee 10       		.byte	0x10
 2533 0aef 00       		.byte	0
 2534 0af0 0B       		.uleb128 0xb
 2535 0af1 E00A0000 		.4byte	0xae0
 2536 0af5 2D       		.uleb128 0x2d
 2537 0af6 0E040000 		.4byte	.LASF94
 2538 0afa 01       		.byte	0x1
 2539 0afb 82       		.byte	0x82
 2540 0afc 06       		.byte	0x6
 2541 0afd 00000000 		.4byte	.LFB249
 2542 0b01 34000000 		.4byte	.LFE249-.LFB249
 2543 0b05 01       		.uleb128 0x1
 2544 0b06 9C       		.byte	0x9c
 2545 0b07 4D0C0000 		.4byte	0xc4d
 2546 0b0b 28       		.uleb128 0x28
 2547 0b0c 637000   		.ascii	"cp\000"
 2548 0b0f 01       		.byte	0x1
 2549 0b10 82       		.byte	0x82
 2550 0b11 2C       		.byte	0x2c
 2551 0b12 92070000 		.4byte	0x792
 2552 0b16 B7020000 		.4byte	.LLST12
 2553 0b1a B1020000 		.4byte	.LVUS12
 2554 0b1e 2A       		.uleb128 0x2a
 2555 0b1f EB0E0000 		.4byte	0xeeb
 2556 0b23 00000000 		.4byte	.LBI132
 2557 0b27 02       		.byte	.LVU91
 2558 0b28 78000000 		.4byte	.Ldebug_ranges0+0x78
 2559 0b2c 01       		.byte	0x1
 2560 0b2d 84       		.byte	0x84
 2561 0b2e 03       		.byte	0x3
 2562 0b2f 670B0000 		.4byte	0xb67
 2563 0b33 25       		.uleb128 0x25
 2564 0b34 A70F0000 		.4byte	0xfa7
 2565 0b38 00000000 		.4byte	.LBI133
ARM GAS  /tmp/ccdzvlYC.s 			page 46


 2566 0b3c 04       		.byte	.LVU93
 2567 0b3d 80000000 		.4byte	.Ldebug_ranges0+0x80
 2568 0b41 03       		.byte	0x3
 2569 0b42 7801     		.2byte	0x178
 2570 0b44 03       		.byte	0x3
 2571 0b45 25       		.uleb128 0x25
 2572 0b46 B10F0000 		.4byte	0xfb1
 2573 0b4a 00000000 		.4byte	.LBI134
 2574 0b4e 06       		.byte	.LVU95
 2575 0b4f 88000000 		.4byte	.Ldebug_ranges0+0x88
 2576 0b53 04       		.byte	0x4
 2577 0b54 5A02     		.2byte	0x25a
 2578 0b56 03       		.byte	0x3
 2579 0b57 1D       		.uleb128 0x1d
 2580 0b58 BF0F0000 		.4byte	0xfbf
 2581 0b5c E5020000 		.4byte	.LLST13
 2582 0b60 E3020000 		.4byte	.LVUS13
 2583 0b64 00       		.byte	0
 2584 0b65 00       		.byte	0
 2585 0b66 00       		.byte	0
 2586 0b67 2E       		.uleb128 0x2e
 2587 0b68 BE0A0000 		.4byte	0xabe
 2588 0b6c 08000000 		.4byte	.LBI143
 2589 0b70 04       		.byte	.LVU103
 2590 0b71 08000000 		.4byte	.LBB143
 2591 0b75 20000000 		.4byte	.LBE143-.LBB143
 2592 0b79 01       		.byte	0x1
 2593 0b7a 85       		.byte	0x85
 2594 0b7b 03       		.byte	0x3
 2595 0b7c F00B0000 		.4byte	0xbf0
 2596 0b80 1D       		.uleb128 0x1d
 2597 0b81 CB0A0000 		.4byte	0xacb
 2598 0b85 FE020000 		.4byte	.LLST14
 2599 0b89 FA020000 		.4byte	.LVUS14
 2600 0b8d 2A       		.uleb128 0x2a
 2601 0b8e 5B0F0000 		.4byte	0xf5b
 2602 0b92 08000000 		.4byte	.LBI145
 2603 0b96 0B       		.byte	.LVU110
 2604 0b97 A0000000 		.4byte	.Ldebug_ranges0+0xa0
 2605 0b9b 01       		.byte	0x1
 2606 0b9c 9D       		.byte	0x9d
 2607 0b9d 0A       		.byte	0xa
 2608 0b9e B00B0000 		.4byte	0xbb0
 2609 0ba2 1D       		.uleb128 0x1d
 2610 0ba3 6D0F0000 		.4byte	0xf6d
 2611 0ba7 20030000 		.4byte	.LLST15
 2612 0bab 1C030000 		.4byte	.LVUS15
 2613 0baf 00       		.byte	0
 2614 0bb0 2A       		.uleb128 0x2a
 2615 0bb1 F50E0000 		.4byte	0xef5
 2616 0bb5 14000000 		.4byte	.LBI149
 2617 0bb9 01       		.byte	.LVU117
 2618 0bba C0000000 		.4byte	.Ldebug_ranges0+0xc0
 2619 0bbe 01       		.byte	0x1
 2620 0bbf 9E       		.byte	0x9e
 2621 0bc0 05       		.byte	0x5
 2622 0bc1 E60B0000 		.4byte	0xbe6
ARM GAS  /tmp/ccdzvlYC.s 			page 47


 2623 0bc5 1D       		.uleb128 0x1d
 2624 0bc6 070F0000 		.4byte	0xf07
 2625 0bca 40030000 		.4byte	.LLST16
 2626 0bce 3E030000 		.4byte	.LVUS16
 2627 0bd2 1E       		.uleb128 0x1e
 2628 0bd3 C0000000 		.4byte	.Ldebug_ranges0+0xc0
 2629 0bd7 1F       		.uleb128 0x1f
 2630 0bd8 140F0000 		.4byte	0xf14
 2631 0bdc 55030000 		.4byte	.LLST17
 2632 0be0 53030000 		.4byte	.LVUS17
 2633 0be4 00       		.byte	0
 2634 0be5 00       		.byte	0
 2635 0be6 2F       		.uleb128 0x2f
 2636 0be7 20000000 		.4byte	.LVL20
 2637 0beb 82100000 		.4byte	0x1082
 2638 0bef 00       		.byte	0
 2639 0bf0 2A       		.uleb128 0x2a
 2640 0bf1 D30E0000 		.4byte	0xed3
 2641 0bf5 2C000000 		.4byte	.LBI155
 2642 0bf9 01       		.byte	.LVU138
 2643 0bfa D8000000 		.4byte	.Ldebug_ranges0+0xd8
 2644 0bfe 01       		.byte	0x1
 2645 0bff 87       		.byte	0x87
 2646 0c00 03       		.byte	0x3
 2647 0c01 430C0000 		.4byte	0xc43
 2648 0c05 1E       		.uleb128 0x1e
 2649 0c06 D8000000 		.4byte	.Ldebug_ranges0+0xd8
 2650 0c0a 25       		.uleb128 0x25
 2651 0c0b 9D0F0000 		.4byte	0xf9d
 2652 0c0f 2C000000 		.4byte	.LBI157
 2653 0c13 08       		.byte	.LVU145
 2654 0c14 D8000000 		.4byte	.Ldebug_ranges0+0xd8
 2655 0c18 03       		.byte	0x3
 2656 0c19 8F01     		.2byte	0x18f
 2657 0c1b 03       		.byte	0x3
 2658 0c1c 26       		.uleb128 0x26
 2659 0c1d B10F0000 		.4byte	0xfb1
 2660 0c21 2C000000 		.4byte	.LBI158
 2661 0c25 0A       		.byte	.LVU147
 2662 0c26 2C000000 		.4byte	.LBB158
 2663 0c2a 06000000 		.4byte	.LBE158-.LBB158
 2664 0c2e 04       		.byte	0x4
 2665 0c2f 6D02     		.2byte	0x26d
 2666 0c31 03       		.byte	0x3
 2667 0c32 1D       		.uleb128 0x1d
 2668 0c33 BF0F0000 		.4byte	0xfbf
 2669 0c37 6A030000 		.4byte	.LLST18
 2670 0c3b 68030000 		.4byte	.LVUS18
 2671 0c3f 00       		.byte	0
 2672 0c40 00       		.byte	0
 2673 0c41 00       		.byte	0
 2674 0c42 00       		.byte	0
 2675 0c43 2F       		.uleb128 0x2f
 2676 0c44 2C000000 		.4byte	.LVL23
 2677 0c48 8F100000 		.4byte	0x108f
 2678 0c4c 00       		.byte	0
 2679 0c4d 2D       		.uleb128 0x2d
ARM GAS  /tmp/ccdzvlYC.s 			page 48


 2680 0c4e 4B040000 		.4byte	.LASF95
 2681 0c52 01       		.byte	0x1
 2682 0c53 6F       		.byte	0x6f
 2683 0c54 06       		.byte	0x6
 2684 0c55 00000000 		.4byte	.LFB248
 2685 0c59 18000000 		.4byte	.LFE248-.LFB248
 2686 0c5d 01       		.uleb128 0x1
 2687 0c5e 9C       		.byte	0x9c
 2688 0c5f 030D0000 		.4byte	0xd03
 2689 0c63 28       		.uleb128 0x28
 2690 0c64 637000   		.ascii	"cp\000"
 2691 0c67 01       		.byte	0x1
 2692 0c68 6F       		.byte	0x6f
 2693 0c69 2A       		.byte	0x2a
 2694 0c6a 92070000 		.4byte	0x792
 2695 0c6e 86030000 		.4byte	.LLST7
 2696 0c72 7E030000 		.4byte	.LVUS7
 2697 0c76 1A       		.uleb128 0x1a
 2698 0c77 99040000 		.4byte	.LASF92
 2699 0c7b 130D0000 		.4byte	0xd13
 2700 0c7f 30       		.uleb128 0x30
 2701 0c80 08000000 		.4byte	.LBB112
 2702 0c84 0E000000 		.4byte	.LBE112-.LBB112
 2703 0c88 DF0C0000 		.4byte	0xcdf
 2704 0c8c 29       		.uleb128 0x29
 2705 0c8d 747000   		.ascii	"tp\000"
 2706 0c90 01       		.byte	0x1
 2707 0c91 75       		.byte	0x75
 2708 0c92 0F       		.byte	0xf
 2709 0c93 16020000 		.4byte	0x216
 2710 0c97 BF030000 		.4byte	.LLST9
 2711 0c9b BD030000 		.4byte	.LVUS9
 2712 0c9f 2A       		.uleb128 0x2a
 2713 0ca0 F50E0000 		.4byte	0xef5
 2714 0ca4 08000000 		.4byte	.LBI113
 2715 0ca8 01       		.byte	.LVU73
 2716 0ca9 60000000 		.4byte	.Ldebug_ranges0+0x60
 2717 0cad 01       		.byte	0x1
 2718 0cae 75       		.byte	0x75
 2719 0caf 14       		.byte	0x14
 2720 0cb0 D50C0000 		.4byte	0xcd5
 2721 0cb4 1D       		.uleb128 0x1d
 2722 0cb5 070F0000 		.4byte	0xf07
 2723 0cb9 D4030000 		.4byte	.LLST10
 2724 0cbd D2030000 		.4byte	.LVUS10
 2725 0cc1 1E       		.uleb128 0x1e
 2726 0cc2 60000000 		.4byte	.Ldebug_ranges0+0x60
 2727 0cc6 1F       		.uleb128 0x1f
 2728 0cc7 140F0000 		.4byte	0xf14
 2729 0ccb E9030000 		.4byte	.LLST11
 2730 0ccf E7030000 		.4byte	.LVUS11
 2731 0cd3 00       		.byte	0
 2732 0cd4 00       		.byte	0
 2733 0cd5 31       		.uleb128 0x31
 2734 0cd6 16000000 		.4byte	.LVL14
 2735 0cda 82100000 		.4byte	0x1082
 2736 0cde 00       		.byte	0
ARM GAS  /tmp/ccdzvlYC.s 			page 49


 2737 0cdf 32       		.uleb128 0x32
 2738 0ce0 5B0F0000 		.4byte	0xf5b
 2739 0ce4 02000000 		.4byte	.LBI110
 2740 0ce8 00       		.byte	.LVU67
 2741 0ce9 02000000 		.4byte	.LBB110
 2742 0ced 02000000 		.4byte	.LBE110-.LBB110
 2743 0cf1 01       		.byte	0x1
 2744 0cf2 74       		.byte	0x74
 2745 0cf3 07       		.byte	0x7
 2746 0cf4 1D       		.uleb128 0x1d
 2747 0cf5 6D0F0000 		.4byte	0xf6d
 2748 0cf9 FE030000 		.4byte	.LLST8
 2749 0cfd FC030000 		.4byte	.LVUS8
 2750 0d01 00       		.byte	0
 2751 0d02 00       		.byte	0
 2752 0d03 23       		.uleb128 0x23
 2753 0d04 15060000 		.4byte	0x615
 2754 0d08 130D0000 		.4byte	0xd13
 2755 0d0c 24       		.uleb128 0x24
 2756 0d0d 2C000000 		.4byte	0x2c
 2757 0d11 0D       		.byte	0xd
 2758 0d12 00       		.byte	0
 2759 0d13 0B       		.uleb128 0xb
 2760 0d14 030D0000 		.4byte	0xd03
 2761 0d18 2D       		.uleb128 0x2d
 2762 0d19 D9010000 		.4byte	.LASF96
 2763 0d1d 01       		.byte	0x1
 2764 0d1e 59       		.byte	0x59
 2765 0d1f 06       		.byte	0x6
 2766 0d20 00000000 		.4byte	.LFB247
 2767 0d24 24000000 		.4byte	.LFE247-.LFB247
 2768 0d28 01       		.uleb128 0x1
 2769 0d29 9C       		.byte	0x9c
 2770 0d2a 530E0000 		.4byte	0xe53
 2771 0d2e 28       		.uleb128 0x28
 2772 0d2f 637000   		.ascii	"cp\000"
 2773 0d32 01       		.byte	0x1
 2774 0d33 59       		.byte	0x59
 2775 0d34 29       		.byte	0x29
 2776 0d35 92070000 		.4byte	0x792
 2777 0d39 17040000 		.4byte	.LLST1
 2778 0d3d 11040000 		.4byte	.LVUS1
 2779 0d41 1A       		.uleb128 0x1a
 2780 0d42 99040000 		.4byte	.LASF92
 2781 0d46 630E0000 		.4byte	0xe63
 2782 0d4a 2A       		.uleb128 0x2a
 2783 0d4b EB0E0000 		.4byte	0xeeb
 2784 0d4f 00000000 		.4byte	.LBI81
 2785 0d53 05       		.byte	.LVU15
 2786 0d54 00000000 		.4byte	.Ldebug_ranges0+0
 2787 0d58 01       		.byte	0x1
 2788 0d59 5D       		.byte	0x5d
 2789 0d5a 03       		.byte	0x3
 2790 0d5b 930D0000 		.4byte	0xd93
 2791 0d5f 25       		.uleb128 0x25
 2792 0d60 A70F0000 		.4byte	0xfa7
 2793 0d64 00000000 		.4byte	.LBI82
ARM GAS  /tmp/ccdzvlYC.s 			page 50


 2794 0d68 07       		.byte	.LVU17
 2795 0d69 08000000 		.4byte	.Ldebug_ranges0+0x8
 2796 0d6d 03       		.byte	0x3
 2797 0d6e 7801     		.2byte	0x178
 2798 0d70 03       		.byte	0x3
 2799 0d71 25       		.uleb128 0x25
 2800 0d72 B10F0000 		.4byte	0xfb1
 2801 0d76 00000000 		.4byte	.LBI83
 2802 0d7a 09       		.byte	.LVU19
 2803 0d7b 10000000 		.4byte	.Ldebug_ranges0+0x10
 2804 0d7f 04       		.byte	0x4
 2805 0d80 5A02     		.2byte	0x25a
 2806 0d82 03       		.byte	0x3
 2807 0d83 1D       		.uleb128 0x1d
 2808 0d84 BF0F0000 		.4byte	0xfbf
 2809 0d88 45040000 		.4byte	.LLST2
 2810 0d8c 43040000 		.4byte	.LVUS2
 2811 0d90 00       		.byte	0
 2812 0d91 00       		.byte	0
 2813 0d92 00       		.byte	0
 2814 0d93 2E       		.uleb128 0x2e
 2815 0d94 5B0F0000 		.4byte	0xf5b
 2816 0d98 0A000000 		.4byte	.LBI96
 2817 0d9c 04       		.byte	.LVU29
 2818 0d9d 0A000000 		.4byte	.LBB96
 2819 0da1 02000000 		.4byte	.LBE96-.LBB96
 2820 0da5 01       		.byte	0x1
 2821 0da6 5E       		.byte	0x5e
 2822 0da7 07       		.byte	0x7
 2823 0da8 BA0D0000 		.4byte	0xdba
 2824 0dac 1D       		.uleb128 0x1d
 2825 0dad 6D0F0000 		.4byte	0xf6d
 2826 0db1 5C040000 		.4byte	.LLST3
 2827 0db5 5A040000 		.4byte	.LVUS3
 2828 0db9 00       		.byte	0
 2829 0dba 2A       		.uleb128 0x2a
 2830 0dbb F50E0000 		.4byte	0xef5
 2831 0dbf 10000000 		.4byte	.LBI98
 2832 0dc3 01       		.byte	.LVU35
 2833 0dc4 30000000 		.4byte	.Ldebug_ranges0+0x30
 2834 0dc8 01       		.byte	0x1
 2835 0dc9 5F       		.byte	0x5f
 2836 0dca 05       		.byte	0x5
 2837 0dcb F00D0000 		.4byte	0xdf0
 2838 0dcf 1D       		.uleb128 0x1d
 2839 0dd0 070F0000 		.4byte	0xf07
 2840 0dd4 71040000 		.4byte	.LLST4
 2841 0dd8 6F040000 		.4byte	.LVUS4
 2842 0ddc 1E       		.uleb128 0x1e
 2843 0ddd 30000000 		.4byte	.Ldebug_ranges0+0x30
 2844 0de1 1F       		.uleb128 0x1f
 2845 0de2 140F0000 		.4byte	0xf14
 2846 0de6 86040000 		.4byte	.LLST5
 2847 0dea 84040000 		.4byte	.LVUS5
 2848 0dee 00       		.byte	0
 2849 0def 00       		.byte	0
 2850 0df0 2A       		.uleb128 0x2a
ARM GAS  /tmp/ccdzvlYC.s 			page 51


 2851 0df1 D30E0000 		.4byte	0xed3
 2852 0df5 1C000000 		.4byte	.LBI102
 2853 0df9 01       		.byte	.LVU47
 2854 0dfa 48000000 		.4byte	.Ldebug_ranges0+0x48
 2855 0dfe 01       		.byte	0x1
 2856 0dff 61       		.byte	0x61
 2857 0e00 03       		.byte	0x3
 2858 0e01 430E0000 		.4byte	0xe43
 2859 0e05 1E       		.uleb128 0x1e
 2860 0e06 48000000 		.4byte	.Ldebug_ranges0+0x48
 2861 0e0a 25       		.uleb128 0x25
 2862 0e0b 9D0F0000 		.4byte	0xf9d
 2863 0e0f 1C000000 		.4byte	.LBI104
 2864 0e13 08       		.byte	.LVU54
 2865 0e14 48000000 		.4byte	.Ldebug_ranges0+0x48
 2866 0e18 03       		.byte	0x3
 2867 0e19 8F01     		.2byte	0x18f
 2868 0e1b 03       		.byte	0x3
 2869 0e1c 26       		.uleb128 0x26
 2870 0e1d B10F0000 		.4byte	0xfb1
 2871 0e21 1C000000 		.4byte	.LBI105
 2872 0e25 0A       		.byte	.LVU56
 2873 0e26 1C000000 		.4byte	.LBB105
 2874 0e2a 06000000 		.4byte	.LBE105-.LBB105
 2875 0e2e 04       		.byte	0x4
 2876 0e2f 6D02     		.2byte	0x26d
 2877 0e31 03       		.byte	0x3
 2878 0e32 1D       		.uleb128 0x1d
 2879 0e33 BF0F0000 		.4byte	0xfbf
 2880 0e37 9B040000 		.4byte	.LLST6
 2881 0e3b 99040000 		.4byte	.LVUS6
 2882 0e3f 00       		.byte	0
 2883 0e40 00       		.byte	0
 2884 0e41 00       		.byte	0
 2885 0e42 00       		.byte	0
 2886 0e43 22       		.uleb128 0x22
 2887 0e44 1C000000 		.4byte	.LVL7
 2888 0e48 9C100000 		.4byte	0x109c
 2889 0e4c 21       		.uleb128 0x21
 2890 0e4d 01       		.uleb128 0x1
 2891 0e4e 51       		.byte	0x51
 2892 0e4f 01       		.uleb128 0x1
 2893 0e50 30       		.byte	0x30
 2894 0e51 00       		.byte	0
 2895 0e52 00       		.byte	0
 2896 0e53 23       		.uleb128 0x23
 2897 0e54 15060000 		.4byte	0x615
 2898 0e58 630E0000 		.4byte	0xe63
 2899 0e5c 24       		.uleb128 0x24
 2900 0e5d 2C000000 		.4byte	0x2c
 2901 0e61 0C       		.byte	0xc
 2902 0e62 00       		.byte	0
 2903 0e63 0B       		.uleb128 0xb
 2904 0e64 530E0000 		.4byte	0xe53
 2905 0e68 2D       		.uleb128 0x2d
 2906 0e69 47050000 		.4byte	.LASF97
 2907 0e6d 01       		.byte	0x1
ARM GAS  /tmp/ccdzvlYC.s 			page 52


 2908 0e6e 4B       		.byte	0x4b
 2909 0e6f 06       		.byte	0x6
 2910 0e70 00000000 		.4byte	.LFB246
 2911 0e74 06000000 		.4byte	.LFE246-.LFB246
 2912 0e78 01       		.uleb128 0x1
 2913 0e79 9C       		.byte	0x9c
 2914 0e7a B80E0000 		.4byte	0xeb8
 2915 0e7e 33       		.uleb128 0x33
 2916 0e7f 637000   		.ascii	"cp\000"
 2917 0e82 01       		.byte	0x1
 2918 0e83 4B       		.byte	0x4b
 2919 0e84 2D       		.byte	0x2d
 2920 0e85 92070000 		.4byte	0x792
 2921 0e89 01       		.uleb128 0x1
 2922 0e8a 50       		.byte	0x50
 2923 0e8b 1A       		.uleb128 0x1a
 2924 0e8c 99040000 		.4byte	.LASF92
 2925 0e90 F00A0000 		.4byte	0xaf0
 2926 0e94 32       		.uleb128 0x32
 2927 0e95 810F0000 		.4byte	0xf81
 2928 0e99 00000000 		.4byte	.LBI79
 2929 0e9d 05       		.byte	.LVU5
 2930 0e9e 00000000 		.4byte	.LBB79
 2931 0ea2 04000000 		.4byte	.LBE79-.LBB79
 2932 0ea6 01       		.byte	0x1
 2933 0ea7 4F       		.byte	0x4f
 2934 0ea8 03       		.byte	0x3
 2935 0ea9 1D       		.uleb128 0x1d
 2936 0eaa 8F0F0000 		.4byte	0xf8f
 2937 0eae B1040000 		.4byte	.LLST0
 2938 0eb2 AF040000 		.4byte	.LVUS0
 2939 0eb6 00       		.byte	0
 2940 0eb7 00       		.byte	0
 2941 0eb8 34       		.uleb128 0x34
 2942 0eb9 D8040000 		.4byte	.LASF98
 2943 0ebd 06       		.byte	0x6
 2944 0ebe 90       		.byte	0x90
 2945 0ebf 18       		.byte	0x18
 2946 0ec0 3E060000 		.4byte	0x63e
 2947 0ec4 03       		.byte	0x3
 2948 0ec5 35       		.uleb128 0x35
 2949 0ec6 DC050000 		.4byte	.LASF99
 2950 0eca 07       		.byte	0x7
 2951 0ecb 1C01     		.2byte	0x11c
 2952 0ecd 19       		.byte	0x19
 2953 0ece 16020000 		.4byte	0x216
 2954 0ed2 03       		.byte	0x3
 2955 0ed3 36       		.uleb128 0x36
 2956 0ed4 35060000 		.4byte	.LASF100
 2957 0ed8 03       		.byte	0x3
 2958 0ed9 8201     		.2byte	0x182
 2959 0edb 14       		.byte	0x14
 2960 0edc 03       		.byte	0x3
 2961 0edd EB0E0000 		.4byte	0xeeb
 2962 0ee1 1A       		.uleb128 0x1a
 2963 0ee2 99040000 		.4byte	.LASF92
 2964 0ee6 CA090000 		.4byte	0x9ca
ARM GAS  /tmp/ccdzvlYC.s 			page 53


 2965 0eea 00       		.byte	0
 2966 0eeb 37       		.uleb128 0x37
 2967 0eec A2040000 		.4byte	.LASF105
 2968 0ef0 03       		.byte	0x3
 2969 0ef1 7601     		.2byte	0x176
 2970 0ef3 14       		.byte	0x14
 2971 0ef4 03       		.byte	0x3
 2972 0ef5 38       		.uleb128 0x38
 2973 0ef6 58050000 		.4byte	.LASF102
 2974 0efa 02       		.byte	0x2
 2975 0efb 6902     		.2byte	0x269
 2976 0efd 19       		.byte	0x19
 2977 0efe 16020000 		.4byte	0x216
 2978 0f02 03       		.byte	0x3
 2979 0f03 210F0000 		.4byte	0xf21
 2980 0f07 39       		.uleb128 0x39
 2981 0f08 74717000 		.ascii	"tqp\000"
 2982 0f0c 02       		.byte	0x2
 2983 0f0d 6902     		.2byte	0x269
 2984 0f0f 3C       		.byte	0x3c
 2985 0f10 210F0000 		.4byte	0xf21
 2986 0f14 3A       		.uleb128 0x3a
 2987 0f15 747000   		.ascii	"tp\000"
 2988 0f18 02       		.byte	0x2
 2989 0f19 6A02     		.2byte	0x26a
 2990 0f1b 0D       		.byte	0xd
 2991 0f1c 16020000 		.4byte	0x216
 2992 0f20 00       		.byte	0
 2993 0f21 0A       		.uleb128 0xa
 2994 0f22 04       		.byte	0x4
 2995 0f23 43020000 		.4byte	0x243
 2996 0f27 36       		.uleb128 0x36
 2997 0f28 41060000 		.4byte	.LASF101
 2998 0f2c 02       		.byte	0x2
 2999 0f2d 5502     		.2byte	0x255
 3000 0f2f 14       		.byte	0x14
 3001 0f30 03       		.byte	0x3
 3002 0f31 5B0F0000 		.4byte	0xf5b
 3003 0f35 39       		.uleb128 0x39
 3004 0f36 747000   		.ascii	"tp\000"
 3005 0f39 02       		.byte	0x2
 3006 0f3a 5502     		.2byte	0x255
 3007 0f3c 30       		.byte	0x30
 3008 0f3d 16020000 		.4byte	0x216
 3009 0f41 39       		.uleb128 0x39
 3010 0f42 74717000 		.ascii	"tqp\000"
 3011 0f46 02       		.byte	0x2
 3012 0f47 5502     		.2byte	0x255
 3013 0f49 45       		.byte	0x45
 3014 0f4a 210F0000 		.4byte	0xf21
 3015 0f4e 3A       		.uleb128 0x3a
 3016 0f4f 637000   		.ascii	"cp\000"
 3017 0f52 02       		.byte	0x2
 3018 0f53 5702     		.2byte	0x257
 3019 0f55 0D       		.byte	0xd
 3020 0f56 16020000 		.4byte	0x216
 3021 0f5a 00       		.byte	0
ARM GAS  /tmp/ccdzvlYC.s 			page 54


 3022 0f5b 38       		.uleb128 0x38
 3023 0f5c 74010000 		.4byte	.LASF103
 3024 0f60 02       		.byte	0x2
 3025 0f61 3F02     		.2byte	0x23f
 3026 0f63 14       		.byte	0x14
 3027 0f64 6B060000 		.4byte	0x66b
 3028 0f68 03       		.byte	0x3
 3029 0f69 7B0F0000 		.4byte	0xf7b
 3030 0f6d 39       		.uleb128 0x39
 3031 0f6e 74717000 		.ascii	"tqp\000"
 3032 0f72 02       		.byte	0x2
 3033 0f73 3F02     		.2byte	0x23f
 3034 0f75 3A       		.byte	0x3a
 3035 0f76 7B0F0000 		.4byte	0xf7b
 3036 0f7a 00       		.byte	0
 3037 0f7b 0A       		.uleb128 0xa
 3038 0f7c 04       		.byte	0x4
 3039 0f7d 4F020000 		.4byte	0x24f
 3040 0f81 36       		.uleb128 0x36
 3041 0f82 8C000000 		.4byte	.LASF104
 3042 0f86 02       		.byte	0x2
 3043 0f87 2402     		.2byte	0x224
 3044 0f89 14       		.byte	0x14
 3045 0f8a 03       		.byte	0x3
 3046 0f8b 9D0F0000 		.4byte	0xf9d
 3047 0f8f 39       		.uleb128 0x39
 3048 0f90 74717000 		.ascii	"tqp\000"
 3049 0f94 02       		.byte	0x2
 3050 0f95 2402     		.2byte	0x224
 3051 0f97 30       		.byte	0x30
 3052 0f98 210F0000 		.4byte	0xf21
 3053 0f9c 00       		.byte	0
 3054 0f9d 37       		.uleb128 0x37
 3055 0f9e 47010000 		.4byte	.LASF106
 3056 0fa2 04       		.byte	0x4
 3057 0fa3 6A02     		.2byte	0x26a
 3058 0fa5 14       		.byte	0x14
 3059 0fa6 03       		.byte	0x3
 3060 0fa7 37       		.uleb128 0x37
 3061 0fa8 97000000 		.4byte	.LASF107
 3062 0fac 04       		.byte	0x4
 3063 0fad 5202     		.2byte	0x252
 3064 0faf 14       		.byte	0x14
 3065 0fb0 03       		.byte	0x3
 3066 0fb1 36       		.uleb128 0x36
 3067 0fb2 7D050000 		.4byte	.LASF108
 3068 0fb6 05       		.byte	0x5
 3069 0fb7 0601     		.2byte	0x106
 3070 0fb9 39       		.byte	0x39
 3071 0fba 03       		.byte	0x3
 3072 0fbb CD0F0000 		.4byte	0xfcd
 3073 0fbf 3B       		.uleb128 0x3b
 3074 0fc0 D3010000 		.4byte	.LASF109
 3075 0fc4 05       		.byte	0x5
 3076 0fc5 0601     		.2byte	0x106
 3077 0fc7 50       		.byte	0x50
 3078 0fc8 7C000000 		.4byte	0x7c
ARM GAS  /tmp/ccdzvlYC.s 			page 55


 3079 0fcc 00       		.byte	0
 3080 0fcd 3C       		.uleb128 0x3c
 3081 0fce BE0A0000 		.4byte	0xabe
 3082 0fd2 00000000 		.4byte	.LFB250
 3083 0fd6 24000000 		.4byte	.LFE250-.LFB250
 3084 0fda 01       		.uleb128 0x1
 3085 0fdb 9C       		.byte	0x9c
 3086 0fdc 50100000 		.4byte	0x1050
 3087 0fe0 1D       		.uleb128 0x1d
 3088 0fe1 CB0A0000 		.4byte	0xacb
 3089 0fe5 CA040000 		.4byte	.LLST19
 3090 0fe9 C4040000 		.4byte	.LVUS19
 3091 0fed 2A       		.uleb128 0x2a
 3092 0fee 5B0F0000 		.4byte	0xf5b
 3093 0ff2 00000000 		.4byte	.LBI163
 3094 0ff6 07       		.byte	.LVU158
 3095 0ff7 F0000000 		.4byte	.Ldebug_ranges0+0xf0
 3096 0ffb 01       		.byte	0x1
 3097 0ffc 9D       		.byte	0x9d
 3098 0ffd 0A       		.byte	0xa
 3099 0ffe 10100000 		.4byte	0x1010
 3100 1002 1D       		.uleb128 0x1d
 3101 1003 6D0F0000 		.4byte	0xf6d
 3102 1007 FA040000 		.4byte	.LLST20
 3103 100b F6040000 		.4byte	.LVUS20
 3104 100f 00       		.byte	0
 3105 1010 2A       		.uleb128 0x2a
 3106 1011 F50E0000 		.4byte	0xef5
 3107 1015 0E000000 		.4byte	.LBI169
 3108 1019 01       		.byte	.LVU166
 3109 101a 18010000 		.4byte	.Ldebug_ranges0+0x118
 3110 101e 01       		.byte	0x1
 3111 101f 9E       		.byte	0x9e
 3112 1020 05       		.byte	0x5
 3113 1021 46100000 		.4byte	0x1046
 3114 1025 1D       		.uleb128 0x1d
 3115 1026 070F0000 		.4byte	0xf07
 3116 102a 1A050000 		.4byte	.LLST21
 3117 102e 18050000 		.4byte	.LVUS21
 3118 1032 1E       		.uleb128 0x1e
 3119 1033 18010000 		.4byte	.Ldebug_ranges0+0x118
 3120 1037 1F       		.uleb128 0x1f
 3121 1038 140F0000 		.4byte	0xf14
 3122 103c 2F050000 		.4byte	.LLST22
 3123 1040 2D050000 		.4byte	.LVUS22
 3124 1044 00       		.byte	0
 3125 1045 00       		.byte	0
 3126 1046 2F       		.uleb128 0x2f
 3127 1047 1A000000 		.4byte	.LVL29
 3128 104b 82100000 		.4byte	0x1082
 3129 104f 00       		.byte	0
 3130 1050 3D       		.uleb128 0x3d
 3131 1051 EC010000 		.4byte	.LASF110
 3132 1055 EC010000 		.4byte	.LASF110
 3133 1059 06       		.byte	0x6
 3134 105a 6C       		.byte	0x6c
 3135 105b 08       		.byte	0x8
ARM GAS  /tmp/ccdzvlYC.s 			page 56


 3136 105c 3E       		.uleb128 0x3e
 3137 105d 20060000 		.4byte	.LASF111
 3138 1061 20060000 		.4byte	.LASF111
 3139 1065 02       		.byte	0x2
 3140 1066 DF01     		.2byte	0x1df
 3141 1068 09       		.byte	0x9
 3142 1069 3D       		.uleb128 0x3d
 3143 106a 88010000 		.4byte	.LASF112
 3144 106e 88010000 		.4byte	.LASF112
 3145 1072 06       		.byte	0x6
 3146 1073 68       		.byte	0x68
 3147 1074 08       		.byte	0x8
 3148 1075 3E       		.uleb128 0x3e
 3149 1076 CA040000 		.4byte	.LASF113
 3150 107a CA040000 		.4byte	.LASF113
 3151 107e 02       		.byte	0x2
 3152 107f DE01     		.2byte	0x1de
 3153 1081 08       		.byte	0x8
 3154 1082 3E       		.uleb128 0x3e
 3155 1083 FB040000 		.4byte	.LASF114
 3156 1087 FB040000 		.4byte	.LASF114
 3157 108b 02       		.byte	0x2
 3158 108c DC01     		.2byte	0x1dc
 3159 108e 0D       		.byte	0xd
 3160 108f 3E       		.uleb128 0x3e
 3161 1090 99010000 		.4byte	.LASF115
 3162 1094 99010000 		.4byte	.LASF115
 3163 1098 02       		.byte	0x2
 3164 1099 E101     		.2byte	0x1e1
 3165 109b 08       		.byte	0x8
 3166 109c 3E       		.uleb128 0x3e
 3167 109d A7050000 		.4byte	.LASF116
 3168 10a1 A7050000 		.4byte	.LASF116
 3169 10a5 02       		.byte	0x2
 3170 10a6 E001     		.2byte	0x1e0
 3171 10a8 08       		.byte	0x8
 3172 10a9 00       		.byte	0
 3173              		.section	.debug_abbrev,"",%progbits
 3174              	.Ldebug_abbrev0:
 3175 0000 01       		.uleb128 0x1
 3176 0001 11       		.uleb128 0x11
 3177 0002 01       		.byte	0x1
 3178 0003 25       		.uleb128 0x25
 3179 0004 0E       		.uleb128 0xe
 3180 0005 13       		.uleb128 0x13
 3181 0006 0B       		.uleb128 0xb
 3182 0007 03       		.uleb128 0x3
 3183 0008 0E       		.uleb128 0xe
 3184 0009 1B       		.uleb128 0x1b
 3185 000a 0E       		.uleb128 0xe
 3186 000b 55       		.uleb128 0x55
 3187 000c 17       		.uleb128 0x17
 3188 000d 11       		.uleb128 0x11
 3189 000e 01       		.uleb128 0x1
 3190 000f 10       		.uleb128 0x10
 3191 0010 17       		.uleb128 0x17
 3192 0011 00       		.byte	0
ARM GAS  /tmp/ccdzvlYC.s 			page 57


 3193 0012 00       		.byte	0
 3194 0013 02       		.uleb128 0x2
 3195 0014 24       		.uleb128 0x24
 3196 0015 00       		.byte	0
 3197 0016 0B       		.uleb128 0xb
 3198 0017 0B       		.uleb128 0xb
 3199 0018 3E       		.uleb128 0x3e
 3200 0019 0B       		.uleb128 0xb
 3201 001a 03       		.uleb128 0x3
 3202 001b 08       		.uleb128 0x8
 3203 001c 00       		.byte	0
 3204 001d 00       		.byte	0
 3205 001e 03       		.uleb128 0x3
 3206 001f 24       		.uleb128 0x24
 3207 0020 00       		.byte	0
 3208 0021 0B       		.uleb128 0xb
 3209 0022 0B       		.uleb128 0xb
 3210 0023 3E       		.uleb128 0x3e
 3211 0024 0B       		.uleb128 0xb
 3212 0025 03       		.uleb128 0x3
 3213 0026 0E       		.uleb128 0xe
 3214 0027 00       		.byte	0
 3215 0028 00       		.byte	0
 3216 0029 04       		.uleb128 0x4
 3217 002a 16       		.uleb128 0x16
 3218 002b 00       		.byte	0
 3219 002c 03       		.uleb128 0x3
 3220 002d 0E       		.uleb128 0xe
 3221 002e 3A       		.uleb128 0x3a
 3222 002f 0B       		.uleb128 0xb
 3223 0030 3B       		.uleb128 0x3b
 3224 0031 0B       		.uleb128 0xb
 3225 0032 39       		.uleb128 0x39
 3226 0033 0B       		.uleb128 0xb
 3227 0034 49       		.uleb128 0x49
 3228 0035 13       		.uleb128 0x13
 3229 0036 00       		.byte	0
 3230 0037 00       		.byte	0
 3231 0038 05       		.uleb128 0x5
 3232 0039 13       		.uleb128 0x13
 3233 003a 01       		.byte	0x1
 3234 003b 03       		.uleb128 0x3
 3235 003c 0E       		.uleb128 0xe
 3236 003d 0B       		.uleb128 0xb
 3237 003e 0B       		.uleb128 0xb
 3238 003f 3A       		.uleb128 0x3a
 3239 0040 0B       		.uleb128 0xb
 3240 0041 3B       		.uleb128 0x3b
 3241 0042 0B       		.uleb128 0xb
 3242 0043 39       		.uleb128 0x39
 3243 0044 0B       		.uleb128 0xb
 3244 0045 01       		.uleb128 0x1
 3245 0046 13       		.uleb128 0x13
 3246 0047 00       		.byte	0
 3247 0048 00       		.byte	0
 3248 0049 06       		.uleb128 0x6
 3249 004a 0D       		.uleb128 0xd
ARM GAS  /tmp/ccdzvlYC.s 			page 58


 3250 004b 00       		.byte	0
 3251 004c 03       		.uleb128 0x3
 3252 004d 0E       		.uleb128 0xe
 3253 004e 3A       		.uleb128 0x3a
 3254 004f 0B       		.uleb128 0xb
 3255 0050 3B       		.uleb128 0x3b
 3256 0051 0B       		.uleb128 0xb
 3257 0052 39       		.uleb128 0x39
 3258 0053 0B       		.uleb128 0xb
 3259 0054 49       		.uleb128 0x49
 3260 0055 13       		.uleb128 0x13
 3261 0056 38       		.uleb128 0x38
 3262 0057 0B       		.uleb128 0xb
 3263 0058 00       		.byte	0
 3264 0059 00       		.byte	0
 3265 005a 07       		.uleb128 0x7
 3266 005b 0D       		.uleb128 0xd
 3267 005c 00       		.byte	0
 3268 005d 03       		.uleb128 0x3
 3269 005e 08       		.uleb128 0x8
 3270 005f 3A       		.uleb128 0x3a
 3271 0060 0B       		.uleb128 0xb
 3272 0061 3B       		.uleb128 0x3b
 3273 0062 0B       		.uleb128 0xb
 3274 0063 39       		.uleb128 0x39
 3275 0064 0B       		.uleb128 0xb
 3276 0065 49       		.uleb128 0x49
 3277 0066 13       		.uleb128 0x13
 3278 0067 38       		.uleb128 0x38
 3279 0068 0B       		.uleb128 0xb
 3280 0069 00       		.byte	0
 3281 006a 00       		.byte	0
 3282 006b 08       		.uleb128 0x8
 3283 006c 0D       		.uleb128 0xd
 3284 006d 00       		.byte	0
 3285 006e 03       		.uleb128 0x3
 3286 006f 08       		.uleb128 0x8
 3287 0070 3A       		.uleb128 0x3a
 3288 0071 0B       		.uleb128 0xb
 3289 0072 3B       		.uleb128 0x3b
 3290 0073 05       		.uleb128 0x5
 3291 0074 39       		.uleb128 0x39
 3292 0075 0B       		.uleb128 0xb
 3293 0076 49       		.uleb128 0x49
 3294 0077 13       		.uleb128 0x13
 3295 0078 38       		.uleb128 0x38
 3296 0079 0B       		.uleb128 0xb
 3297 007a 00       		.byte	0
 3298 007b 00       		.byte	0
 3299 007c 09       		.uleb128 0x9
 3300 007d 0D       		.uleb128 0xd
 3301 007e 00       		.byte	0
 3302 007f 03       		.uleb128 0x3
 3303 0080 0E       		.uleb128 0xe
 3304 0081 3A       		.uleb128 0x3a
 3305 0082 0B       		.uleb128 0xb
 3306 0083 3B       		.uleb128 0x3b
ARM GAS  /tmp/ccdzvlYC.s 			page 59


 3307 0084 05       		.uleb128 0x5
 3308 0085 39       		.uleb128 0x39
 3309 0086 0B       		.uleb128 0xb
 3310 0087 49       		.uleb128 0x49
 3311 0088 13       		.uleb128 0x13
 3312 0089 38       		.uleb128 0x38
 3313 008a 0B       		.uleb128 0xb
 3314 008b 00       		.byte	0
 3315 008c 00       		.byte	0
 3316 008d 0A       		.uleb128 0xa
 3317 008e 0F       		.uleb128 0xf
 3318 008f 00       		.byte	0
 3319 0090 0B       		.uleb128 0xb
 3320 0091 0B       		.uleb128 0xb
 3321 0092 49       		.uleb128 0x49
 3322 0093 13       		.uleb128 0x13
 3323 0094 00       		.byte	0
 3324 0095 00       		.byte	0
 3325 0096 0B       		.uleb128 0xb
 3326 0097 26       		.uleb128 0x26
 3327 0098 00       		.byte	0
 3328 0099 49       		.uleb128 0x49
 3329 009a 13       		.uleb128 0x13
 3330 009b 00       		.byte	0
 3331 009c 00       		.byte	0
 3332 009d 0C       		.uleb128 0xc
 3333 009e 13       		.uleb128 0x13
 3334 009f 01       		.byte	0x1
 3335 00a0 03       		.uleb128 0x3
 3336 00a1 0E       		.uleb128 0xe
 3337 00a2 0B       		.uleb128 0xb
 3338 00a3 0B       		.uleb128 0xb
 3339 00a4 3A       		.uleb128 0x3a
 3340 00a5 0B       		.uleb128 0xb
 3341 00a6 3B       		.uleb128 0x3b
 3342 00a7 05       		.uleb128 0x5
 3343 00a8 39       		.uleb128 0x39
 3344 00a9 0B       		.uleb128 0xb
 3345 00aa 01       		.uleb128 0x1
 3346 00ab 13       		.uleb128 0x13
 3347 00ac 00       		.byte	0
 3348 00ad 00       		.byte	0
 3349 00ae 0D       		.uleb128 0xd
 3350 00af 15       		.uleb128 0x15
 3351 00b0 01       		.byte	0x1
 3352 00b1 27       		.uleb128 0x27
 3353 00b2 19       		.uleb128 0x19
 3354 00b3 01       		.uleb128 0x1
 3355 00b4 13       		.uleb128 0x13
 3356 00b5 00       		.byte	0
 3357 00b6 00       		.byte	0
 3358 00b7 0E       		.uleb128 0xe
 3359 00b8 05       		.uleb128 0x5
 3360 00b9 00       		.byte	0
 3361 00ba 49       		.uleb128 0x49
 3362 00bb 13       		.uleb128 0x13
 3363 00bc 00       		.byte	0
ARM GAS  /tmp/ccdzvlYC.s 			page 60


 3364 00bd 00       		.byte	0
 3365 00be 0F       		.uleb128 0xf
 3366 00bf 0F       		.uleb128 0xf
 3367 00c0 00       		.byte	0
 3368 00c1 0B       		.uleb128 0xb
 3369 00c2 0B       		.uleb128 0xb
 3370 00c3 00       		.byte	0
 3371 00c4 00       		.byte	0
 3372 00c5 10       		.uleb128 0x10
 3373 00c6 13       		.uleb128 0x13
 3374 00c7 01       		.byte	0x1
 3375 00c8 0B       		.uleb128 0xb
 3376 00c9 0B       		.uleb128 0xb
 3377 00ca 3A       		.uleb128 0x3a
 3378 00cb 0B       		.uleb128 0xb
 3379 00cc 3B       		.uleb128 0x3b
 3380 00cd 0B       		.uleb128 0xb
 3381 00ce 39       		.uleb128 0x39
 3382 00cf 0B       		.uleb128 0xb
 3383 00d0 01       		.uleb128 0x1
 3384 00d1 13       		.uleb128 0x13
 3385 00d2 00       		.byte	0
 3386 00d3 00       		.byte	0
 3387 00d4 11       		.uleb128 0x11
 3388 00d5 17       		.uleb128 0x17
 3389 00d6 01       		.byte	0x1
 3390 00d7 0B       		.uleb128 0xb
 3391 00d8 0B       		.uleb128 0xb
 3392 00d9 3A       		.uleb128 0x3a
 3393 00da 0B       		.uleb128 0xb
 3394 00db 3B       		.uleb128 0x3b
 3395 00dc 0B       		.uleb128 0xb
 3396 00dd 39       		.uleb128 0x39
 3397 00de 0B       		.uleb128 0xb
 3398 00df 01       		.uleb128 0x1
 3399 00e0 13       		.uleb128 0x13
 3400 00e1 00       		.byte	0
 3401 00e2 00       		.byte	0
 3402 00e3 12       		.uleb128 0x12
 3403 00e4 0D       		.uleb128 0xd
 3404 00e5 00       		.byte	0
 3405 00e6 03       		.uleb128 0x3
 3406 00e7 0E       		.uleb128 0xe
 3407 00e8 3A       		.uleb128 0x3a
 3408 00e9 0B       		.uleb128 0xb
 3409 00ea 3B       		.uleb128 0x3b
 3410 00eb 0B       		.uleb128 0xb
 3411 00ec 39       		.uleb128 0x39
 3412 00ed 0B       		.uleb128 0xb
 3413 00ee 49       		.uleb128 0x49
 3414 00ef 13       		.uleb128 0x13
 3415 00f0 00       		.byte	0
 3416 00f1 00       		.byte	0
 3417 00f2 13       		.uleb128 0x13
 3418 00f3 0D       		.uleb128 0xd
 3419 00f4 00       		.byte	0
 3420 00f5 03       		.uleb128 0x3
ARM GAS  /tmp/ccdzvlYC.s 			page 61


 3421 00f6 0E       		.uleb128 0xe
 3422 00f7 3A       		.uleb128 0x3a
 3423 00f8 0B       		.uleb128 0xb
 3424 00f9 3B       		.uleb128 0x3b
 3425 00fa 05       		.uleb128 0x5
 3426 00fb 39       		.uleb128 0x39
 3427 00fc 0B       		.uleb128 0xb
 3428 00fd 49       		.uleb128 0x49
 3429 00fe 13       		.uleb128 0x13
 3430 00ff 00       		.byte	0
 3431 0100 00       		.byte	0
 3432 0101 14       		.uleb128 0x14
 3433 0102 35       		.uleb128 0x35
 3434 0103 00       		.byte	0
 3435 0104 49       		.uleb128 0x49
 3436 0105 13       		.uleb128 0x13
 3437 0106 00       		.byte	0
 3438 0107 00       		.byte	0
 3439 0108 15       		.uleb128 0x15
 3440 0109 34       		.uleb128 0x34
 3441 010a 00       		.byte	0
 3442 010b 03       		.uleb128 0x3
 3443 010c 08       		.uleb128 0x8
 3444 010d 3A       		.uleb128 0x3a
 3445 010e 0B       		.uleb128 0xb
 3446 010f 3B       		.uleb128 0x3b
 3447 0110 05       		.uleb128 0x5
 3448 0111 39       		.uleb128 0x39
 3449 0112 0B       		.uleb128 0xb
 3450 0113 49       		.uleb128 0x49
 3451 0114 13       		.uleb128 0x13
 3452 0115 3F       		.uleb128 0x3f
 3453 0116 19       		.uleb128 0x19
 3454 0117 3C       		.uleb128 0x3c
 3455 0118 19       		.uleb128 0x19
 3456 0119 00       		.byte	0
 3457 011a 00       		.byte	0
 3458 011b 16       		.uleb128 0x16
 3459 011c 2E       		.uleb128 0x2e
 3460 011d 01       		.byte	0x1
 3461 011e 3F       		.uleb128 0x3f
 3462 011f 19       		.uleb128 0x19
 3463 0120 03       		.uleb128 0x3
 3464 0121 0E       		.uleb128 0xe
 3465 0122 3A       		.uleb128 0x3a
 3466 0123 0B       		.uleb128 0xb
 3467 0124 3B       		.uleb128 0x3b
 3468 0125 05       		.uleb128 0x5
 3469 0126 39       		.uleb128 0x39
 3470 0127 0B       		.uleb128 0xb
 3471 0128 27       		.uleb128 0x27
 3472 0129 19       		.uleb128 0x19
 3473 012a 49       		.uleb128 0x49
 3474 012b 13       		.uleb128 0x13
 3475 012c 11       		.uleb128 0x11
 3476 012d 01       		.uleb128 0x1
 3477 012e 12       		.uleb128 0x12
ARM GAS  /tmp/ccdzvlYC.s 			page 62


 3478 012f 06       		.uleb128 0x6
 3479 0130 40       		.uleb128 0x40
 3480 0131 18       		.uleb128 0x18
 3481 0132 9742     		.uleb128 0x2117
 3482 0134 19       		.uleb128 0x19
 3483 0135 01       		.uleb128 0x1
 3484 0136 13       		.uleb128 0x13
 3485 0137 00       		.byte	0
 3486 0138 00       		.byte	0
 3487 0139 17       		.uleb128 0x17
 3488 013a 05       		.uleb128 0x5
 3489 013b 00       		.byte	0
 3490 013c 03       		.uleb128 0x3
 3491 013d 08       		.uleb128 0x8
 3492 013e 3A       		.uleb128 0x3a
 3493 013f 0B       		.uleb128 0xb
 3494 0140 3B       		.uleb128 0x3b
 3495 0141 05       		.uleb128 0x5
 3496 0142 39       		.uleb128 0x39
 3497 0143 0B       		.uleb128 0xb
 3498 0144 49       		.uleb128 0x49
 3499 0145 13       		.uleb128 0x13
 3500 0146 02       		.uleb128 0x2
 3501 0147 17       		.uleb128 0x17
 3502 0148 B742     		.uleb128 0x2137
 3503 014a 17       		.uleb128 0x17
 3504 014b 00       		.byte	0
 3505 014c 00       		.byte	0
 3506 014d 18       		.uleb128 0x18
 3507 014e 05       		.uleb128 0x5
 3508 014f 00       		.byte	0
 3509 0150 03       		.uleb128 0x3
 3510 0151 0E       		.uleb128 0xe
 3511 0152 3A       		.uleb128 0x3a
 3512 0153 0B       		.uleb128 0xb
 3513 0154 3B       		.uleb128 0x3b
 3514 0155 05       		.uleb128 0x5
 3515 0156 39       		.uleb128 0x39
 3516 0157 0B       		.uleb128 0xb
 3517 0158 49       		.uleb128 0x49
 3518 0159 13       		.uleb128 0x13
 3519 015a 02       		.uleb128 0x2
 3520 015b 17       		.uleb128 0x17
 3521 015c B742     		.uleb128 0x2137
 3522 015e 17       		.uleb128 0x17
 3523 015f 00       		.byte	0
 3524 0160 00       		.byte	0
 3525 0161 19       		.uleb128 0x19
 3526 0162 34       		.uleb128 0x34
 3527 0163 00       		.byte	0
 3528 0164 03       		.uleb128 0x3
 3529 0165 08       		.uleb128 0x8
 3530 0166 3A       		.uleb128 0x3a
 3531 0167 0B       		.uleb128 0xb
 3532 0168 3B       		.uleb128 0x3b
 3533 0169 05       		.uleb128 0x5
 3534 016a 39       		.uleb128 0x39
ARM GAS  /tmp/ccdzvlYC.s 			page 63


 3535 016b 0B       		.uleb128 0xb
 3536 016c 49       		.uleb128 0x49
 3537 016d 13       		.uleb128 0x13
 3538 016e 02       		.uleb128 0x2
 3539 016f 17       		.uleb128 0x17
 3540 0170 B742     		.uleb128 0x2137
 3541 0172 17       		.uleb128 0x17
 3542 0173 00       		.byte	0
 3543 0174 00       		.byte	0
 3544 0175 1A       		.uleb128 0x1a
 3545 0176 34       		.uleb128 0x34
 3546 0177 00       		.byte	0
 3547 0178 03       		.uleb128 0x3
 3548 0179 0E       		.uleb128 0xe
 3549 017a 49       		.uleb128 0x49
 3550 017b 13       		.uleb128 0x13
 3551 017c 34       		.uleb128 0x34
 3552 017d 19       		.uleb128 0x19
 3553 017e 00       		.byte	0
 3554 017f 00       		.byte	0
 3555 0180 1B       		.uleb128 0x1b
 3556 0181 1D       		.uleb128 0x1d
 3557 0182 01       		.byte	0x1
 3558 0183 31       		.uleb128 0x31
 3559 0184 13       		.uleb128 0x13
 3560 0185 52       		.uleb128 0x52
 3561 0186 01       		.uleb128 0x1
 3562 0187 B842     		.uleb128 0x2138
 3563 0189 0B       		.uleb128 0xb
 3564 018a 55       		.uleb128 0x55
 3565 018b 17       		.uleb128 0x17
 3566 018c 58       		.uleb128 0x58
 3567 018d 0B       		.uleb128 0xb
 3568 018e 59       		.uleb128 0x59
 3569 018f 05       		.uleb128 0x5
 3570 0190 57       		.uleb128 0x57
 3571 0191 0B       		.uleb128 0xb
 3572 0192 01       		.uleb128 0x1
 3573 0193 13       		.uleb128 0x13
 3574 0194 00       		.byte	0
 3575 0195 00       		.byte	0
 3576 0196 1C       		.uleb128 0x1c
 3577 0197 1D       		.uleb128 0x1d
 3578 0198 00       		.byte	0
 3579 0199 31       		.uleb128 0x31
 3580 019a 13       		.uleb128 0x13
 3581 019b 52       		.uleb128 0x52
 3582 019c 01       		.uleb128 0x1
 3583 019d B842     		.uleb128 0x2138
 3584 019f 0B       		.uleb128 0xb
 3585 01a0 55       		.uleb128 0x55
 3586 01a1 17       		.uleb128 0x17
 3587 01a2 58       		.uleb128 0x58
 3588 01a3 0B       		.uleb128 0xb
 3589 01a4 59       		.uleb128 0x59
 3590 01a5 0B       		.uleb128 0xb
 3591 01a6 57       		.uleb128 0x57
ARM GAS  /tmp/ccdzvlYC.s 			page 64


 3592 01a7 0B       		.uleb128 0xb
 3593 01a8 00       		.byte	0
 3594 01a9 00       		.byte	0
 3595 01aa 1D       		.uleb128 0x1d
 3596 01ab 05       		.uleb128 0x5
 3597 01ac 00       		.byte	0
 3598 01ad 31       		.uleb128 0x31
 3599 01ae 13       		.uleb128 0x13
 3600 01af 02       		.uleb128 0x2
 3601 01b0 17       		.uleb128 0x17
 3602 01b1 B742     		.uleb128 0x2137
 3603 01b3 17       		.uleb128 0x17
 3604 01b4 00       		.byte	0
 3605 01b5 00       		.byte	0
 3606 01b6 1E       		.uleb128 0x1e
 3607 01b7 0B       		.uleb128 0xb
 3608 01b8 01       		.byte	0x1
 3609 01b9 55       		.uleb128 0x55
 3610 01ba 17       		.uleb128 0x17
 3611 01bb 00       		.byte	0
 3612 01bc 00       		.byte	0
 3613 01bd 1F       		.uleb128 0x1f
 3614 01be 34       		.uleb128 0x34
 3615 01bf 00       		.byte	0
 3616 01c0 31       		.uleb128 0x31
 3617 01c1 13       		.uleb128 0x13
 3618 01c2 02       		.uleb128 0x2
 3619 01c3 17       		.uleb128 0x17
 3620 01c4 B742     		.uleb128 0x2137
 3621 01c6 17       		.uleb128 0x17
 3622 01c7 00       		.byte	0
 3623 01c8 00       		.byte	0
 3624 01c9 20       		.uleb128 0x20
 3625 01ca 898201   		.uleb128 0x4109
 3626 01cd 01       		.byte	0x1
 3627 01ce 11       		.uleb128 0x11
 3628 01cf 01       		.uleb128 0x1
 3629 01d0 31       		.uleb128 0x31
 3630 01d1 13       		.uleb128 0x13
 3631 01d2 01       		.uleb128 0x1
 3632 01d3 13       		.uleb128 0x13
 3633 01d4 00       		.byte	0
 3634 01d5 00       		.byte	0
 3635 01d6 21       		.uleb128 0x21
 3636 01d7 8A8201   		.uleb128 0x410a
 3637 01da 00       		.byte	0
 3638 01db 02       		.uleb128 0x2
 3639 01dc 18       		.uleb128 0x18
 3640 01dd 9142     		.uleb128 0x2111
 3641 01df 18       		.uleb128 0x18
 3642 01e0 00       		.byte	0
 3643 01e1 00       		.byte	0
 3644 01e2 22       		.uleb128 0x22
 3645 01e3 898201   		.uleb128 0x4109
 3646 01e6 01       		.byte	0x1
 3647 01e7 11       		.uleb128 0x11
 3648 01e8 01       		.uleb128 0x1
ARM GAS  /tmp/ccdzvlYC.s 			page 65


 3649 01e9 31       		.uleb128 0x31
 3650 01ea 13       		.uleb128 0x13
 3651 01eb 00       		.byte	0
 3652 01ec 00       		.byte	0
 3653 01ed 23       		.uleb128 0x23
 3654 01ee 01       		.uleb128 0x1
 3655 01ef 01       		.byte	0x1
 3656 01f0 49       		.uleb128 0x49
 3657 01f1 13       		.uleb128 0x13
 3658 01f2 01       		.uleb128 0x1
 3659 01f3 13       		.uleb128 0x13
 3660 01f4 00       		.byte	0
 3661 01f5 00       		.byte	0
 3662 01f6 24       		.uleb128 0x24
 3663 01f7 21       		.uleb128 0x21
 3664 01f8 00       		.byte	0
 3665 01f9 49       		.uleb128 0x49
 3666 01fa 13       		.uleb128 0x13
 3667 01fb 2F       		.uleb128 0x2f
 3668 01fc 0B       		.uleb128 0xb
 3669 01fd 00       		.byte	0
 3670 01fe 00       		.byte	0
 3671 01ff 25       		.uleb128 0x25
 3672 0200 1D       		.uleb128 0x1d
 3673 0201 01       		.byte	0x1
 3674 0202 31       		.uleb128 0x31
 3675 0203 13       		.uleb128 0x13
 3676 0204 52       		.uleb128 0x52
 3677 0205 01       		.uleb128 0x1
 3678 0206 B842     		.uleb128 0x2138
 3679 0208 0B       		.uleb128 0xb
 3680 0209 55       		.uleb128 0x55
 3681 020a 17       		.uleb128 0x17
 3682 020b 58       		.uleb128 0x58
 3683 020c 0B       		.uleb128 0xb
 3684 020d 59       		.uleb128 0x59
 3685 020e 05       		.uleb128 0x5
 3686 020f 57       		.uleb128 0x57
 3687 0210 0B       		.uleb128 0xb
 3688 0211 00       		.byte	0
 3689 0212 00       		.byte	0
 3690 0213 26       		.uleb128 0x26
 3691 0214 1D       		.uleb128 0x1d
 3692 0215 01       		.byte	0x1
 3693 0216 31       		.uleb128 0x31
 3694 0217 13       		.uleb128 0x13
 3695 0218 52       		.uleb128 0x52
 3696 0219 01       		.uleb128 0x1
 3697 021a B842     		.uleb128 0x2138
 3698 021c 0B       		.uleb128 0xb
 3699 021d 11       		.uleb128 0x11
 3700 021e 01       		.uleb128 0x1
 3701 021f 12       		.uleb128 0x12
 3702 0220 06       		.uleb128 0x6
 3703 0221 58       		.uleb128 0x58
 3704 0222 0B       		.uleb128 0xb
 3705 0223 59       		.uleb128 0x59
ARM GAS  /tmp/ccdzvlYC.s 			page 66


 3706 0224 05       		.uleb128 0x5
 3707 0225 57       		.uleb128 0x57
 3708 0226 0B       		.uleb128 0xb
 3709 0227 00       		.byte	0
 3710 0228 00       		.byte	0
 3711 0229 27       		.uleb128 0x27
 3712 022a 2E       		.uleb128 0x2e
 3713 022b 01       		.byte	0x1
 3714 022c 3F       		.uleb128 0x3f
 3715 022d 19       		.uleb128 0x19
 3716 022e 03       		.uleb128 0x3
 3717 022f 0E       		.uleb128 0xe
 3718 0230 3A       		.uleb128 0x3a
 3719 0231 0B       		.uleb128 0xb
 3720 0232 3B       		.uleb128 0x3b
 3721 0233 0B       		.uleb128 0xb
 3722 0234 39       		.uleb128 0x39
 3723 0235 0B       		.uleb128 0xb
 3724 0236 27       		.uleb128 0x27
 3725 0237 19       		.uleb128 0x19
 3726 0238 49       		.uleb128 0x49
 3727 0239 13       		.uleb128 0x13
 3728 023a 11       		.uleb128 0x11
 3729 023b 01       		.uleb128 0x1
 3730 023c 12       		.uleb128 0x12
 3731 023d 06       		.uleb128 0x6
 3732 023e 40       		.uleb128 0x40
 3733 023f 18       		.uleb128 0x18
 3734 0240 9742     		.uleb128 0x2117
 3735 0242 19       		.uleb128 0x19
 3736 0243 01       		.uleb128 0x1
 3737 0244 13       		.uleb128 0x13
 3738 0245 00       		.byte	0
 3739 0246 00       		.byte	0
 3740 0247 28       		.uleb128 0x28
 3741 0248 05       		.uleb128 0x5
 3742 0249 00       		.byte	0
 3743 024a 03       		.uleb128 0x3
 3744 024b 08       		.uleb128 0x8
 3745 024c 3A       		.uleb128 0x3a
 3746 024d 0B       		.uleb128 0xb
 3747 024e 3B       		.uleb128 0x3b
 3748 024f 0B       		.uleb128 0xb
 3749 0250 39       		.uleb128 0x39
 3750 0251 0B       		.uleb128 0xb
 3751 0252 49       		.uleb128 0x49
 3752 0253 13       		.uleb128 0x13
 3753 0254 02       		.uleb128 0x2
 3754 0255 17       		.uleb128 0x17
 3755 0256 B742     		.uleb128 0x2137
 3756 0258 17       		.uleb128 0x17
 3757 0259 00       		.byte	0
 3758 025a 00       		.byte	0
 3759 025b 29       		.uleb128 0x29
 3760 025c 34       		.uleb128 0x34
 3761 025d 00       		.byte	0
 3762 025e 03       		.uleb128 0x3
ARM GAS  /tmp/ccdzvlYC.s 			page 67


 3763 025f 08       		.uleb128 0x8
 3764 0260 3A       		.uleb128 0x3a
 3765 0261 0B       		.uleb128 0xb
 3766 0262 3B       		.uleb128 0x3b
 3767 0263 0B       		.uleb128 0xb
 3768 0264 39       		.uleb128 0x39
 3769 0265 0B       		.uleb128 0xb
 3770 0266 49       		.uleb128 0x49
 3771 0267 13       		.uleb128 0x13
 3772 0268 02       		.uleb128 0x2
 3773 0269 17       		.uleb128 0x17
 3774 026a B742     		.uleb128 0x2137
 3775 026c 17       		.uleb128 0x17
 3776 026d 00       		.byte	0
 3777 026e 00       		.byte	0
 3778 026f 2A       		.uleb128 0x2a
 3779 0270 1D       		.uleb128 0x1d
 3780 0271 01       		.byte	0x1
 3781 0272 31       		.uleb128 0x31
 3782 0273 13       		.uleb128 0x13
 3783 0274 52       		.uleb128 0x52
 3784 0275 01       		.uleb128 0x1
 3785 0276 B842     		.uleb128 0x2138
 3786 0278 0B       		.uleb128 0xb
 3787 0279 55       		.uleb128 0x55
 3788 027a 17       		.uleb128 0x17
 3789 027b 58       		.uleb128 0x58
 3790 027c 0B       		.uleb128 0xb
 3791 027d 59       		.uleb128 0x59
 3792 027e 0B       		.uleb128 0xb
 3793 027f 57       		.uleb128 0x57
 3794 0280 0B       		.uleb128 0xb
 3795 0281 01       		.uleb128 0x1
 3796 0282 13       		.uleb128 0x13
 3797 0283 00       		.byte	0
 3798 0284 00       		.byte	0
 3799 0285 2B       		.uleb128 0x2b
 3800 0286 2E       		.uleb128 0x2e
 3801 0287 01       		.byte	0x1
 3802 0288 3F       		.uleb128 0x3f
 3803 0289 19       		.uleb128 0x19
 3804 028a 03       		.uleb128 0x3
 3805 028b 0E       		.uleb128 0xe
 3806 028c 3A       		.uleb128 0x3a
 3807 028d 0B       		.uleb128 0xb
 3808 028e 3B       		.uleb128 0x3b
 3809 028f 0B       		.uleb128 0xb
 3810 0290 39       		.uleb128 0x39
 3811 0291 0B       		.uleb128 0xb
 3812 0292 27       		.uleb128 0x27
 3813 0293 19       		.uleb128 0x19
 3814 0294 20       		.uleb128 0x20
 3815 0295 0B       		.uleb128 0xb
 3816 0296 01       		.uleb128 0x1
 3817 0297 13       		.uleb128 0x13
 3818 0298 00       		.byte	0
 3819 0299 00       		.byte	0
ARM GAS  /tmp/ccdzvlYC.s 			page 68


 3820 029a 2C       		.uleb128 0x2c
 3821 029b 05       		.uleb128 0x5
 3822 029c 00       		.byte	0
 3823 029d 03       		.uleb128 0x3
 3824 029e 08       		.uleb128 0x8
 3825 029f 3A       		.uleb128 0x3a
 3826 02a0 0B       		.uleb128 0xb
 3827 02a1 3B       		.uleb128 0x3b
 3828 02a2 0B       		.uleb128 0xb
 3829 02a3 39       		.uleb128 0x39
 3830 02a4 0B       		.uleb128 0xb
 3831 02a5 49       		.uleb128 0x49
 3832 02a6 13       		.uleb128 0x13
 3833 02a7 00       		.byte	0
 3834 02a8 00       		.byte	0
 3835 02a9 2D       		.uleb128 0x2d
 3836 02aa 2E       		.uleb128 0x2e
 3837 02ab 01       		.byte	0x1
 3838 02ac 3F       		.uleb128 0x3f
 3839 02ad 19       		.uleb128 0x19
 3840 02ae 03       		.uleb128 0x3
 3841 02af 0E       		.uleb128 0xe
 3842 02b0 3A       		.uleb128 0x3a
 3843 02b1 0B       		.uleb128 0xb
 3844 02b2 3B       		.uleb128 0x3b
 3845 02b3 0B       		.uleb128 0xb
 3846 02b4 39       		.uleb128 0x39
 3847 02b5 0B       		.uleb128 0xb
 3848 02b6 27       		.uleb128 0x27
 3849 02b7 19       		.uleb128 0x19
 3850 02b8 11       		.uleb128 0x11
 3851 02b9 01       		.uleb128 0x1
 3852 02ba 12       		.uleb128 0x12
 3853 02bb 06       		.uleb128 0x6
 3854 02bc 40       		.uleb128 0x40
 3855 02bd 18       		.uleb128 0x18
 3856 02be 9742     		.uleb128 0x2117
 3857 02c0 19       		.uleb128 0x19
 3858 02c1 01       		.uleb128 0x1
 3859 02c2 13       		.uleb128 0x13
 3860 02c3 00       		.byte	0
 3861 02c4 00       		.byte	0
 3862 02c5 2E       		.uleb128 0x2e
 3863 02c6 1D       		.uleb128 0x1d
 3864 02c7 01       		.byte	0x1
 3865 02c8 31       		.uleb128 0x31
 3866 02c9 13       		.uleb128 0x13
 3867 02ca 52       		.uleb128 0x52
 3868 02cb 01       		.uleb128 0x1
 3869 02cc B842     		.uleb128 0x2138
 3870 02ce 0B       		.uleb128 0xb
 3871 02cf 11       		.uleb128 0x11
 3872 02d0 01       		.uleb128 0x1
 3873 02d1 12       		.uleb128 0x12
 3874 02d2 06       		.uleb128 0x6
 3875 02d3 58       		.uleb128 0x58
 3876 02d4 0B       		.uleb128 0xb
ARM GAS  /tmp/ccdzvlYC.s 			page 69


 3877 02d5 59       		.uleb128 0x59
 3878 02d6 0B       		.uleb128 0xb
 3879 02d7 57       		.uleb128 0x57
 3880 02d8 0B       		.uleb128 0xb
 3881 02d9 01       		.uleb128 0x1
 3882 02da 13       		.uleb128 0x13
 3883 02db 00       		.byte	0
 3884 02dc 00       		.byte	0
 3885 02dd 2F       		.uleb128 0x2f
 3886 02de 898201   		.uleb128 0x4109
 3887 02e1 00       		.byte	0
 3888 02e2 11       		.uleb128 0x11
 3889 02e3 01       		.uleb128 0x1
 3890 02e4 31       		.uleb128 0x31
 3891 02e5 13       		.uleb128 0x13
 3892 02e6 00       		.byte	0
 3893 02e7 00       		.byte	0
 3894 02e8 30       		.uleb128 0x30
 3895 02e9 0B       		.uleb128 0xb
 3896 02ea 01       		.byte	0x1
 3897 02eb 11       		.uleb128 0x11
 3898 02ec 01       		.uleb128 0x1
 3899 02ed 12       		.uleb128 0x12
 3900 02ee 06       		.uleb128 0x6
 3901 02ef 01       		.uleb128 0x1
 3902 02f0 13       		.uleb128 0x13
 3903 02f1 00       		.byte	0
 3904 02f2 00       		.byte	0
 3905 02f3 31       		.uleb128 0x31
 3906 02f4 898201   		.uleb128 0x4109
 3907 02f7 00       		.byte	0
 3908 02f8 11       		.uleb128 0x11
 3909 02f9 01       		.uleb128 0x1
 3910 02fa 9542     		.uleb128 0x2115
 3911 02fc 19       		.uleb128 0x19
 3912 02fd 31       		.uleb128 0x31
 3913 02fe 13       		.uleb128 0x13
 3914 02ff 00       		.byte	0
 3915 0300 00       		.byte	0
 3916 0301 32       		.uleb128 0x32
 3917 0302 1D       		.uleb128 0x1d
 3918 0303 01       		.byte	0x1
 3919 0304 31       		.uleb128 0x31
 3920 0305 13       		.uleb128 0x13
 3921 0306 52       		.uleb128 0x52
 3922 0307 01       		.uleb128 0x1
 3923 0308 B842     		.uleb128 0x2138
 3924 030a 0B       		.uleb128 0xb
 3925 030b 11       		.uleb128 0x11
 3926 030c 01       		.uleb128 0x1
 3927 030d 12       		.uleb128 0x12
 3928 030e 06       		.uleb128 0x6
 3929 030f 58       		.uleb128 0x58
 3930 0310 0B       		.uleb128 0xb
 3931 0311 59       		.uleb128 0x59
 3932 0312 0B       		.uleb128 0xb
 3933 0313 57       		.uleb128 0x57
ARM GAS  /tmp/ccdzvlYC.s 			page 70


 3934 0314 0B       		.uleb128 0xb
 3935 0315 00       		.byte	0
 3936 0316 00       		.byte	0
 3937 0317 33       		.uleb128 0x33
 3938 0318 05       		.uleb128 0x5
 3939 0319 00       		.byte	0
 3940 031a 03       		.uleb128 0x3
 3941 031b 08       		.uleb128 0x8
 3942 031c 3A       		.uleb128 0x3a
 3943 031d 0B       		.uleb128 0xb
 3944 031e 3B       		.uleb128 0x3b
 3945 031f 0B       		.uleb128 0xb
 3946 0320 39       		.uleb128 0x39
 3947 0321 0B       		.uleb128 0xb
 3948 0322 49       		.uleb128 0x49
 3949 0323 13       		.uleb128 0x13
 3950 0324 02       		.uleb128 0x2
 3951 0325 18       		.uleb128 0x18
 3952 0326 00       		.byte	0
 3953 0327 00       		.byte	0
 3954 0328 34       		.uleb128 0x34
 3955 0329 2E       		.uleb128 0x2e
 3956 032a 00       		.byte	0
 3957 032b 03       		.uleb128 0x3
 3958 032c 0E       		.uleb128 0xe
 3959 032d 3A       		.uleb128 0x3a
 3960 032e 0B       		.uleb128 0xb
 3961 032f 3B       		.uleb128 0x3b
 3962 0330 0B       		.uleb128 0xb
 3963 0331 39       		.uleb128 0x39
 3964 0332 0B       		.uleb128 0xb
 3965 0333 27       		.uleb128 0x27
 3966 0334 19       		.uleb128 0x19
 3967 0335 49       		.uleb128 0x49
 3968 0336 13       		.uleb128 0x13
 3969 0337 20       		.uleb128 0x20
 3970 0338 0B       		.uleb128 0xb
 3971 0339 00       		.byte	0
 3972 033a 00       		.byte	0
 3973 033b 35       		.uleb128 0x35
 3974 033c 2E       		.uleb128 0x2e
 3975 033d 00       		.byte	0
 3976 033e 03       		.uleb128 0x3
 3977 033f 0E       		.uleb128 0xe
 3978 0340 3A       		.uleb128 0x3a
 3979 0341 0B       		.uleb128 0xb
 3980 0342 3B       		.uleb128 0x3b
 3981 0343 05       		.uleb128 0x5
 3982 0344 39       		.uleb128 0x39
 3983 0345 0B       		.uleb128 0xb
 3984 0346 27       		.uleb128 0x27
 3985 0347 19       		.uleb128 0x19
 3986 0348 49       		.uleb128 0x49
 3987 0349 13       		.uleb128 0x13
 3988 034a 20       		.uleb128 0x20
 3989 034b 0B       		.uleb128 0xb
 3990 034c 00       		.byte	0
ARM GAS  /tmp/ccdzvlYC.s 			page 71


 3991 034d 00       		.byte	0
 3992 034e 36       		.uleb128 0x36
 3993 034f 2E       		.uleb128 0x2e
 3994 0350 01       		.byte	0x1
 3995 0351 03       		.uleb128 0x3
 3996 0352 0E       		.uleb128 0xe
 3997 0353 3A       		.uleb128 0x3a
 3998 0354 0B       		.uleb128 0xb
 3999 0355 3B       		.uleb128 0x3b
 4000 0356 05       		.uleb128 0x5
 4001 0357 39       		.uleb128 0x39
 4002 0358 0B       		.uleb128 0xb
 4003 0359 27       		.uleb128 0x27
 4004 035a 19       		.uleb128 0x19
 4005 035b 20       		.uleb128 0x20
 4006 035c 0B       		.uleb128 0xb
 4007 035d 01       		.uleb128 0x1
 4008 035e 13       		.uleb128 0x13
 4009 035f 00       		.byte	0
 4010 0360 00       		.byte	0
 4011 0361 37       		.uleb128 0x37
 4012 0362 2E       		.uleb128 0x2e
 4013 0363 00       		.byte	0
 4014 0364 03       		.uleb128 0x3
 4015 0365 0E       		.uleb128 0xe
 4016 0366 3A       		.uleb128 0x3a
 4017 0367 0B       		.uleb128 0xb
 4018 0368 3B       		.uleb128 0x3b
 4019 0369 05       		.uleb128 0x5
 4020 036a 39       		.uleb128 0x39
 4021 036b 0B       		.uleb128 0xb
 4022 036c 27       		.uleb128 0x27
 4023 036d 19       		.uleb128 0x19
 4024 036e 20       		.uleb128 0x20
 4025 036f 0B       		.uleb128 0xb
 4026 0370 00       		.byte	0
 4027 0371 00       		.byte	0
 4028 0372 38       		.uleb128 0x38
 4029 0373 2E       		.uleb128 0x2e
 4030 0374 01       		.byte	0x1
 4031 0375 03       		.uleb128 0x3
 4032 0376 0E       		.uleb128 0xe
 4033 0377 3A       		.uleb128 0x3a
 4034 0378 0B       		.uleb128 0xb
 4035 0379 3B       		.uleb128 0x3b
 4036 037a 05       		.uleb128 0x5
 4037 037b 39       		.uleb128 0x39
 4038 037c 0B       		.uleb128 0xb
 4039 037d 27       		.uleb128 0x27
 4040 037e 19       		.uleb128 0x19
 4041 037f 49       		.uleb128 0x49
 4042 0380 13       		.uleb128 0x13
 4043 0381 20       		.uleb128 0x20
 4044 0382 0B       		.uleb128 0xb
 4045 0383 01       		.uleb128 0x1
 4046 0384 13       		.uleb128 0x13
 4047 0385 00       		.byte	0
ARM GAS  /tmp/ccdzvlYC.s 			page 72


 4048 0386 00       		.byte	0
 4049 0387 39       		.uleb128 0x39
 4050 0388 05       		.uleb128 0x5
 4051 0389 00       		.byte	0
 4052 038a 03       		.uleb128 0x3
 4053 038b 08       		.uleb128 0x8
 4054 038c 3A       		.uleb128 0x3a
 4055 038d 0B       		.uleb128 0xb
 4056 038e 3B       		.uleb128 0x3b
 4057 038f 05       		.uleb128 0x5
 4058 0390 39       		.uleb128 0x39
 4059 0391 0B       		.uleb128 0xb
 4060 0392 49       		.uleb128 0x49
 4061 0393 13       		.uleb128 0x13
 4062 0394 00       		.byte	0
 4063 0395 00       		.byte	0
 4064 0396 3A       		.uleb128 0x3a
 4065 0397 34       		.uleb128 0x34
 4066 0398 00       		.byte	0
 4067 0399 03       		.uleb128 0x3
 4068 039a 08       		.uleb128 0x8
 4069 039b 3A       		.uleb128 0x3a
 4070 039c 0B       		.uleb128 0xb
 4071 039d 3B       		.uleb128 0x3b
 4072 039e 05       		.uleb128 0x5
 4073 039f 39       		.uleb128 0x39
 4074 03a0 0B       		.uleb128 0xb
 4075 03a1 49       		.uleb128 0x49
 4076 03a2 13       		.uleb128 0x13
 4077 03a3 00       		.byte	0
 4078 03a4 00       		.byte	0
 4079 03a5 3B       		.uleb128 0x3b
 4080 03a6 05       		.uleb128 0x5
 4081 03a7 00       		.byte	0
 4082 03a8 03       		.uleb128 0x3
 4083 03a9 0E       		.uleb128 0xe
 4084 03aa 3A       		.uleb128 0x3a
 4085 03ab 0B       		.uleb128 0xb
 4086 03ac 3B       		.uleb128 0x3b
 4087 03ad 05       		.uleb128 0x5
 4088 03ae 39       		.uleb128 0x39
 4089 03af 0B       		.uleb128 0xb
 4090 03b0 49       		.uleb128 0x49
 4091 03b1 13       		.uleb128 0x13
 4092 03b2 00       		.byte	0
 4093 03b3 00       		.byte	0
 4094 03b4 3C       		.uleb128 0x3c
 4095 03b5 2E       		.uleb128 0x2e
 4096 03b6 01       		.byte	0x1
 4097 03b7 31       		.uleb128 0x31
 4098 03b8 13       		.uleb128 0x13
 4099 03b9 11       		.uleb128 0x11
 4100 03ba 01       		.uleb128 0x1
 4101 03bb 12       		.uleb128 0x12
 4102 03bc 06       		.uleb128 0x6
 4103 03bd 40       		.uleb128 0x40
 4104 03be 18       		.uleb128 0x18
ARM GAS  /tmp/ccdzvlYC.s 			page 73


 4105 03bf 9742     		.uleb128 0x2117
 4106 03c1 19       		.uleb128 0x19
 4107 03c2 01       		.uleb128 0x1
 4108 03c3 13       		.uleb128 0x13
 4109 03c4 00       		.byte	0
 4110 03c5 00       		.byte	0
 4111 03c6 3D       		.uleb128 0x3d
 4112 03c7 2E       		.uleb128 0x2e
 4113 03c8 00       		.byte	0
 4114 03c9 3F       		.uleb128 0x3f
 4115 03ca 19       		.uleb128 0x19
 4116 03cb 3C       		.uleb128 0x3c
 4117 03cc 19       		.uleb128 0x19
 4118 03cd 6E       		.uleb128 0x6e
 4119 03ce 0E       		.uleb128 0xe
 4120 03cf 03       		.uleb128 0x3
 4121 03d0 0E       		.uleb128 0xe
 4122 03d1 3A       		.uleb128 0x3a
 4123 03d2 0B       		.uleb128 0xb
 4124 03d3 3B       		.uleb128 0x3b
 4125 03d4 0B       		.uleb128 0xb
 4126 03d5 39       		.uleb128 0x39
 4127 03d6 0B       		.uleb128 0xb
 4128 03d7 00       		.byte	0
 4129 03d8 00       		.byte	0
 4130 03d9 3E       		.uleb128 0x3e
 4131 03da 2E       		.uleb128 0x2e
 4132 03db 00       		.byte	0
 4133 03dc 3F       		.uleb128 0x3f
 4134 03dd 19       		.uleb128 0x19
 4135 03de 3C       		.uleb128 0x3c
 4136 03df 19       		.uleb128 0x19
 4137 03e0 6E       		.uleb128 0x6e
 4138 03e1 0E       		.uleb128 0xe
 4139 03e2 03       		.uleb128 0x3
 4140 03e3 0E       		.uleb128 0xe
 4141 03e4 3A       		.uleb128 0x3a
 4142 03e5 0B       		.uleb128 0xb
 4143 03e6 3B       		.uleb128 0x3b
 4144 03e7 05       		.uleb128 0x5
 4145 03e8 39       		.uleb128 0x39
 4146 03e9 0B       		.uleb128 0xb
 4147 03ea 00       		.byte	0
 4148 03eb 00       		.byte	0
 4149 03ec 00       		.byte	0
 4150              		.section	.debug_loc,"",%progbits
 4151              	.Ldebug_loc0:
 4152              	.LVUS34:
 4153 0000 00       		.uleb128 0
 4154 0001 00       		.uleb128 .LVU290
 4155 0002 00       		.uleb128 .LVU290
 4156 0003 00       		.uleb128 .LVU325
 4157 0004 00       		.uleb128 .LVU325
 4158 0005 00       		.uleb128 0
 4159              	.LLST34:
 4160 0006 00000000 		.4byte	.LVL49
 4161 000a 0C000000 		.4byte	.LVL51
ARM GAS  /tmp/ccdzvlYC.s 			page 74


 4162 000e 0100     		.2byte	0x1
 4163 0010 50       		.byte	0x50
 4164 0011 0C000000 		.4byte	.LVL51
 4165 0015 4A000000 		.4byte	.LVL61
 4166 0019 0100     		.2byte	0x1
 4167 001b 55       		.byte	0x55
 4168 001c 4A000000 		.4byte	.LVL61
 4169 0020 50000000 		.4byte	.LFE254
 4170 0024 0400     		.2byte	0x4
 4171 0026 F3       		.byte	0xf3
 4172 0027 01       		.uleb128 0x1
 4173 0028 50       		.byte	0x50
 4174 0029 9F       		.byte	0x9f
 4175 002a 00000000 		.4byte	0
 4176 002e 00000000 		.4byte	0
 4177              	.LVUS35:
 4178 0032 00       		.uleb128 0
 4179 0033 00       		.uleb128 .LVU292
 4180 0034 00       		.uleb128 .LVU292
 4181 0035 00       		.uleb128 .LVU325
 4182 0036 00       		.uleb128 .LVU325
 4183 0037 00       		.uleb128 0
 4184              	.LLST35:
 4185 0038 00000000 		.4byte	.LVL49
 4186 003c 11000000 		.4byte	.LVL52-1
 4187 0040 0100     		.2byte	0x1
 4188 0042 51       		.byte	0x51
 4189 0043 11000000 		.4byte	.LVL52-1
 4190 0047 4A000000 		.4byte	.LVL61
 4191 004b 0100     		.2byte	0x1
 4192 004d 57       		.byte	0x57
 4193 004e 4A000000 		.4byte	.LVL61
 4194 0052 50000000 		.4byte	.LFE254
 4195 0056 0400     		.2byte	0x4
 4196 0058 F3       		.byte	0xf3
 4197 0059 01       		.uleb128 0x1
 4198 005a 51       		.byte	0x51
 4199 005b 9F       		.byte	0x9f
 4200 005c 00000000 		.4byte	0
 4201 0060 00000000 		.4byte	0
 4202              	.LVUS36:
 4203 0064 00       		.uleb128 .LVU286
 4204 0065 00       		.uleb128 .LVU325
 4205              	.LLST36:
 4206 0066 08000000 		.4byte	.LVL50
 4207 006a 4A000000 		.4byte	.LVL61
 4208 006e 0100     		.2byte	0x1
 4209 0070 56       		.byte	0x56
 4210 0071 00000000 		.4byte	0
 4211 0075 00000000 		.4byte	0
 4212              	.LVUS37:
 4213 0079 00       		.uleb128 .LVU319
 4214 007a 00       		.uleb128 .LVU322
 4215 007b 00       		.uleb128 .LVU322
 4216 007c 00       		.uleb128 .LVU325
 4217 007d 00       		.uleb128 .LVU325
 4218 007e 00       		.uleb128 0
ARM GAS  /tmp/ccdzvlYC.s 			page 75


 4219              	.LLST37:
 4220 007f 3E000000 		.4byte	.LVL58
 4221 0083 42000000 		.4byte	.LVL59
 4222 0087 0100     		.2byte	0x1
 4223 0089 50       		.byte	0x50
 4224 008a 42000000 		.4byte	.LVL59
 4225 008e 4A000000 		.4byte	.LVL61
 4226 0092 0100     		.2byte	0x1
 4227 0094 54       		.byte	0x54
 4228 0095 4A000000 		.4byte	.LVL61
 4229 0099 50000000 		.4byte	.LFE254
 4230 009d 0100     		.2byte	0x1
 4231 009f 50       		.byte	0x50
 4232 00a0 00000000 		.4byte	0
 4233 00a4 00000000 		.4byte	0
 4234              	.LVUS38:
 4235 00a8 01       		.uleb128 .LVU296
 4236 00a9 00       		.uleb128 .LVU314
 4237              	.LLST38:
 4238 00aa 18000000 		.4byte	.LVL53
 4239 00ae 36000000 		.4byte	.LVL56
 4240 00b2 0100     		.2byte	0x1
 4241 00b4 55       		.byte	0x55
 4242 00b5 00000000 		.4byte	0
 4243 00b9 00000000 		.4byte	0
 4244              	.LVUS39:
 4245 00bd 01       		.uleb128 .LVU296
 4246 00be 00       		.uleb128 .LVU314
 4247              	.LLST39:
 4248 00bf 18000000 		.4byte	.LVL53
 4249 00c3 36000000 		.4byte	.LVL56
 4250 00c7 0100     		.2byte	0x1
 4251 00c9 54       		.byte	0x54
 4252 00ca 00000000 		.4byte	0
 4253 00ce 00000000 		.4byte	0
 4254              	.LVUS40:
 4255 00d2 03       		.uleb128 .LVU298
 4256 00d3 00       		.uleb128 .LVU299
 4257 00d4 00       		.uleb128 .LVU299
 4258 00d5 00       		.uleb128 .LVU314
 4259              	.LLST40:
 4260 00d6 18000000 		.4byte	.LVL53
 4261 00da 1A000000 		.4byte	.LVL54
 4262 00de 0100     		.2byte	0x1
 4263 00e0 55       		.byte	0x55
 4264 00e1 1A000000 		.4byte	.LVL54
 4265 00e5 36000000 		.4byte	.LVL56
 4266 00e9 0100     		.2byte	0x1
 4267 00eb 53       		.byte	0x53
 4268 00ec 00000000 		.4byte	0
 4269 00f0 00000000 		.4byte	0
 4270              	.LVUS41:
 4271 00f4 00       		.uleb128 0
 4272 00f5 00       		.uleb128 .LVU342
 4273 00f6 00       		.uleb128 .LVU342
 4274 00f7 00       		.uleb128 0
 4275              	.LLST41:
ARM GAS  /tmp/ccdzvlYC.s 			page 76


 4276 00f8 00000000 		.4byte	.LVL62
 4277 00fc 0B000000 		.4byte	.LVL64-1
 4278 0100 0100     		.2byte	0x1
 4279 0102 50       		.byte	0x50
 4280 0103 0B000000 		.4byte	.LVL64-1
 4281 0107 14000000 		.4byte	.LFE253
 4282 010b 0400     		.2byte	0x4
 4283 010d F3       		.byte	0xf3
 4284 010e 01       		.uleb128 0x1
 4285 010f 50       		.byte	0x50
 4286 0110 9F       		.byte	0x9f
 4287 0111 00000000 		.4byte	0
 4288 0115 00000000 		.4byte	0
 4289              	.LVUS42:
 4290 0119 00       		.uleb128 0
 4291 011a 00       		.uleb128 .LVU342
 4292 011b 00       		.uleb128 .LVU342
 4293 011c 00       		.uleb128 0
 4294              	.LLST42:
 4295 011d 00000000 		.4byte	.LVL62
 4296 0121 0B000000 		.4byte	.LVL64-1
 4297 0125 0100     		.2byte	0x1
 4298 0127 51       		.byte	0x51
 4299 0128 0B000000 		.4byte	.LVL64-1
 4300 012c 14000000 		.4byte	.LFE253
 4301 0130 0400     		.2byte	0x4
 4302 0132 F3       		.byte	0xf3
 4303 0133 01       		.uleb128 0x1
 4304 0134 51       		.byte	0x51
 4305 0135 9F       		.byte	0x9f
 4306 0136 00000000 		.4byte	0
 4307 013a 00000000 		.4byte	0
 4308              	.LVUS43:
 4309 013e 00       		.uleb128 .LVU342
 4310 013f 00       		.uleb128 0
 4311              	.LLST43:
 4312 0140 0C000000 		.4byte	.LVL64
 4313 0144 14000000 		.4byte	.LFE253
 4314 0148 0100     		.2byte	0x1
 4315 014a 50       		.byte	0x50
 4316 014b 00000000 		.4byte	0
 4317 014f 00000000 		.4byte	0
 4318              	.LVUS44:
 4319 0153 07       		.uleb128 .LVU333
 4320 0154 00       		.uleb128 .LVU337
 4321              	.LLST44:
 4322 0155 00000000 		.4byte	.LVL62
 4323 0159 08000000 		.4byte	.LVL63
 4324 015d 0300     		.2byte	0x3
 4325 015f 08       		.byte	0x8
 4326 0160 20       		.byte	0x20
 4327 0161 9F       		.byte	0x9f
 4328 0162 00000000 		.4byte	0
 4329 0166 00000000 		.4byte	0
 4330              	.LVUS45:
 4331 016a 0A       		.uleb128 .LVU352
 4332 016b 00       		.uleb128 .LVU354
ARM GAS  /tmp/ccdzvlYC.s 			page 77


 4333              	.LLST45:
 4334 016c 0C000000 		.4byte	.LVL64
 4335 0170 12000000 		.4byte	.LVL65
 4336 0174 0200     		.2byte	0x2
 4337 0176 30       		.byte	0x30
 4338 0177 9F       		.byte	0x9f
 4339 0178 00000000 		.4byte	0
 4340 017c 00000000 		.4byte	0
 4341              	.LVUS23:
 4342 0180 00       		.uleb128 0
 4343 0181 00       		.uleb128 .LVU208
 4344 0182 00       		.uleb128 .LVU208
 4345 0183 00       		.uleb128 .LVU236
 4346 0184 00       		.uleb128 .LVU236
 4347 0185 00       		.uleb128 0
 4348              	.LLST23:
 4349 0186 00000000 		.4byte	.LVL32
 4350 018a 0C000000 		.4byte	.LVL35
 4351 018e 0100     		.2byte	0x1
 4352 0190 50       		.byte	0x50
 4353 0191 0C000000 		.4byte	.LVL35
 4354 0195 40000000 		.4byte	.LVL44
 4355 0199 0100     		.2byte	0x1
 4356 019b 55       		.byte	0x55
 4357 019c 40000000 		.4byte	.LVL44
 4358 01a0 44000000 		.4byte	.LFE252
 4359 01a4 0400     		.2byte	0x4
 4360 01a6 F3       		.byte	0xf3
 4361 01a7 01       		.uleb128 0x1
 4362 01a8 50       		.byte	0x50
 4363 01a9 9F       		.byte	0x9f
 4364 01aa 00000000 		.4byte	0
 4365 01ae 00000000 		.4byte	0
 4366              	.LVUS24:
 4367 01b2 00       		.uleb128 .LVU190
 4368 01b3 00       		.uleb128 .LVU233
 4369              	.LLST24:
 4370 01b4 06000000 		.4byte	.LVL33
 4371 01b8 36000000 		.4byte	.LVL42
 4372 01bc 0100     		.2byte	0x1
 4373 01be 54       		.byte	0x54
 4374 01bf 00000000 		.4byte	0
 4375 01c3 00000000 		.4byte	0
 4376              	.LVUS25:
 4377 01c7 00       		.uleb128 .LVU204
 4378 01c8 00       		.uleb128 .LVU236
 4379              	.LLST25:
 4380 01c9 08000000 		.4byte	.LVL34
 4381 01cd 40000000 		.4byte	.LVL44
 4382 01d1 0100     		.2byte	0x1
 4383 01d3 56       		.byte	0x56
 4384 01d4 00000000 		.4byte	0
 4385 01d8 00000000 		.4byte	0
 4386              	.LVUS26:
 4387 01dc 00       		.uleb128 .LVU233
 4388 01dd 00       		.uleb128 .LVU236
 4389 01de 00       		.uleb128 .LVU236
ARM GAS  /tmp/ccdzvlYC.s 			page 78


 4390 01df 00       		.uleb128 0
 4391              	.LLST26:
 4392 01e0 36000000 		.4byte	.LVL42
 4393 01e4 40000000 		.4byte	.LVL44
 4394 01e8 0100     		.2byte	0x1
 4395 01ea 54       		.byte	0x54
 4396 01eb 40000000 		.4byte	.LVL44
 4397 01ef 44000000 		.4byte	.LFE252
 4398 01f3 0100     		.2byte	0x1
 4399 01f5 50       		.byte	0x50
 4400 01f6 00000000 		.4byte	0
 4401 01fa 00000000 		.4byte	0
 4402              	.LVUS27:
 4403 01fe 01       		.uleb128 .LVU212
 4404 01ff 00       		.uleb128 .LVU229
 4405              	.LLST27:
 4406 0200 12000000 		.4byte	.LVL37
 4407 0204 30000000 		.4byte	.LVL40
 4408 0208 0100     		.2byte	0x1
 4409 020a 55       		.byte	0x55
 4410 020b 00000000 		.4byte	0
 4411 020f 00000000 		.4byte	0
 4412              	.LVUS28:
 4413 0213 01       		.uleb128 .LVU212
 4414 0214 00       		.uleb128 .LVU229
 4415              	.LLST28:
 4416 0215 12000000 		.4byte	.LVL37
 4417 0219 30000000 		.4byte	.LVL40
 4418 021d 0100     		.2byte	0x1
 4419 021f 54       		.byte	0x54
 4420 0220 00000000 		.4byte	0
 4421 0224 00000000 		.4byte	0
 4422              	.LVUS29:
 4423 0228 03       		.uleb128 .LVU214
 4424 0229 00       		.uleb128 .LVU215
 4425 022a 00       		.uleb128 .LVU215
 4426 022b 00       		.uleb128 .LVU229
 4427              	.LLST29:
 4428 022c 12000000 		.4byte	.LVL37
 4429 0230 16000000 		.4byte	.LVL38
 4430 0234 0100     		.2byte	0x1
 4431 0236 55       		.byte	0x55
 4432 0237 16000000 		.4byte	.LVL38
 4433 023b 30000000 		.4byte	.LVL40
 4434 023f 0100     		.2byte	0x1
 4435 0241 53       		.byte	0x53
 4436 0242 00000000 		.4byte	0
 4437 0246 00000000 		.4byte	0
 4438              	.LVUS30:
 4439 024a 00       		.uleb128 0
 4440 024b 00       		.uleb128 .LVU253
 4441 024c 00       		.uleb128 .LVU253
 4442 024d 00       		.uleb128 0
 4443              	.LLST30:
 4444 024e 00000000 		.4byte	.LVL45
 4445 0252 0B000000 		.4byte	.LVL47-1
 4446 0256 0100     		.2byte	0x1
ARM GAS  /tmp/ccdzvlYC.s 			page 79


 4447 0258 50       		.byte	0x50
 4448 0259 0B000000 		.4byte	.LVL47-1
 4449 025d 14000000 		.4byte	.LFE251
 4450 0261 0400     		.2byte	0x4
 4451 0263 F3       		.byte	0xf3
 4452 0264 01       		.uleb128 0x1
 4453 0265 50       		.byte	0x50
 4454 0266 9F       		.byte	0x9f
 4455 0267 00000000 		.4byte	0
 4456 026b 00000000 		.4byte	0
 4457              	.LVUS31:
 4458 026f 00       		.uleb128 .LVU253
 4459 0270 00       		.uleb128 0
 4460              	.LLST31:
 4461 0271 0C000000 		.4byte	.LVL47
 4462 0275 14000000 		.4byte	.LFE251
 4463 0279 0100     		.2byte	0x1
 4464 027b 50       		.byte	0x50
 4465 027c 00000000 		.4byte	0
 4466 0280 00000000 		.4byte	0
 4467              	.LVUS32:
 4468 0284 07       		.uleb128 .LVU244
 4469 0285 00       		.uleb128 .LVU248
 4470              	.LLST32:
 4471 0286 00000000 		.4byte	.LVL45
 4472 028a 08000000 		.4byte	.LVL46
 4473 028e 0300     		.2byte	0x3
 4474 0290 08       		.byte	0x8
 4475 0291 20       		.byte	0x20
 4476 0292 9F       		.byte	0x9f
 4477 0293 00000000 		.4byte	0
 4478 0297 00000000 		.4byte	0
 4479              	.LVUS33:
 4480 029b 0A       		.uleb128 .LVU263
 4481 029c 00       		.uleb128 .LVU265
 4482              	.LLST33:
 4483 029d 0C000000 		.4byte	.LVL47
 4484 02a1 12000000 		.4byte	.LVL48
 4485 02a5 0200     		.2byte	0x2
 4486 02a7 30       		.byte	0x30
 4487 02a8 9F       		.byte	0x9f
 4488 02a9 00000000 		.4byte	0
 4489 02ad 00000000 		.4byte	0
 4490              	.LVUS12:
 4491 02b1 00       		.uleb128 0
 4492 02b2 00       		.uleb128 .LVU116
 4493 02b3 00       		.uleb128 .LVU116
 4494 02b4 00       		.uleb128 .LVU135
 4495 02b5 00       		.uleb128 .LVU135
 4496 02b6 00       		.uleb128 0
 4497              	.LLST12:
 4498 02b7 00000000 		.4byte	.LVL15
 4499 02bb 14000000 		.4byte	.LVL18
 4500 02bf 0100     		.2byte	0x1
 4501 02c1 50       		.byte	0x50
 4502 02c2 14000000 		.4byte	.LVL18
 4503 02c6 28000000 		.4byte	.LVL22
ARM GAS  /tmp/ccdzvlYC.s 			page 80


 4504 02ca 0100     		.2byte	0x1
 4505 02cc 54       		.byte	0x54
 4506 02cd 28000000 		.4byte	.LVL22
 4507 02d1 34000000 		.4byte	.LFE249
 4508 02d5 0400     		.2byte	0x4
 4509 02d7 F3       		.byte	0xf3
 4510 02d8 01       		.uleb128 0x1
 4511 02d9 50       		.byte	0x50
 4512 02da 9F       		.byte	0x9f
 4513 02db 00000000 		.4byte	0
 4514 02df 00000000 		.4byte	0
 4515              	.LVUS13:
 4516 02e3 06       		.uleb128 .LVU95
 4517 02e4 00       		.uleb128 .LVU99
 4518              	.LLST13:
 4519 02e5 00000000 		.4byte	.LVL15
 4520 02e9 08000000 		.4byte	.LVL16
 4521 02ed 0300     		.2byte	0x3
 4522 02ef 08       		.byte	0x8
 4523 02f0 20       		.byte	0x20
 4524 02f1 9F       		.byte	0x9f
 4525 02f2 00000000 		.4byte	0
 4526 02f6 00000000 		.4byte	0
 4527              	.LVUS14:
 4528 02fa 04       		.uleb128 .LVU103
 4529 02fb 00       		.uleb128 .LVU116
 4530 02fc 00       		.uleb128 .LVU116
 4531 02fd 00       		.uleb128 .LVU135
 4532              	.LLST14:
 4533 02fe 08000000 		.4byte	.LVL16
 4534 0302 14000000 		.4byte	.LVL18
 4535 0306 0100     		.2byte	0x1
 4536 0308 50       		.byte	0x50
 4537 0309 14000000 		.4byte	.LVL18
 4538 030d 28000000 		.4byte	.LVL22
 4539 0311 0100     		.2byte	0x1
 4540 0313 54       		.byte	0x54
 4541 0314 00000000 		.4byte	0
 4542 0318 00000000 		.4byte	0
 4543              	.LVUS15:
 4544 031c 0B       		.uleb128 .LVU110
 4545 031d 00       		.uleb128 .LVU113
 4546 031e 01       		.uleb128 .LVU131
 4547 031f 03       		.uleb128 .LVU133
 4548              	.LLST15:
 4549 0320 08000000 		.4byte	.LVL16
 4550 0324 0A000000 		.4byte	.LVL17
 4551 0328 0100     		.2byte	0x1
 4552 032a 50       		.byte	0x50
 4553 032b 24000000 		.4byte	.LVL21
 4554 032f 24000000 		.4byte	.LVL21
 4555 0333 0100     		.2byte	0x1
 4556 0335 54       		.byte	0x54
 4557 0336 00000000 		.4byte	0
 4558 033a 00000000 		.4byte	0
 4559              	.LVUS16:
 4560 033e 01       		.uleb128 .LVU117
ARM GAS  /tmp/ccdzvlYC.s 			page 81


 4561 033f 01       		.uleb128 .LVU126
 4562              	.LLST16:
 4563 0340 14000000 		.4byte	.LVL18
 4564 0344 1C000000 		.4byte	.LVL19
 4565 0348 0100     		.2byte	0x1
 4566 034a 54       		.byte	0x54
 4567 034b 00000000 		.4byte	0
 4568 034f 00000000 		.4byte	0
 4569              	.LVUS17:
 4570 0353 03       		.uleb128 .LVU119
 4571 0354 01       		.uleb128 .LVU126
 4572              	.LLST17:
 4573 0355 14000000 		.4byte	.LVL18
 4574 0359 1C000000 		.4byte	.LVL19
 4575 035d 0100     		.2byte	0x1
 4576 035f 53       		.byte	0x53
 4577 0360 00000000 		.4byte	0
 4578 0364 00000000 		.4byte	0
 4579              	.LVUS18:
 4580 0368 0A       		.uleb128 .LVU147
 4581 0369 00       		.uleb128 .LVU149
 4582              	.LLST18:
 4583 036a 2C000000 		.4byte	.LVL23
 4584 036e 32000000 		.4byte	.LVL24
 4585 0372 0200     		.2byte	0x2
 4586 0374 30       		.byte	0x30
 4587 0375 9F       		.byte	0x9f
 4588 0376 00000000 		.4byte	0
 4589 037a 00000000 		.4byte	0
 4590              	.LVUS7:
 4591 037e 00       		.uleb128 0
 4592 037f 00       		.uleb128 .LVU70
 4593 0380 00       		.uleb128 .LVU70
 4594 0381 00       		.uleb128 .LVU87
 4595 0382 00       		.uleb128 .LVU87
 4596 0383 00       		.uleb128 .LVU87
 4597 0384 00       		.uleb128 .LVU87
 4598 0385 00       		.uleb128 0
 4599              	.LLST7:
 4600 0386 00000000 		.4byte	.LVL9
 4601 038a 04000000 		.4byte	.LVL11
 4602 038e 0100     		.2byte	0x1
 4603 0390 50       		.byte	0x50
 4604 0391 04000000 		.4byte	.LVL11
 4605 0395 15000000 		.4byte	.LVL14-1
 4606 0399 0100     		.2byte	0x1
 4607 039b 53       		.byte	0x53
 4608 039c 15000000 		.4byte	.LVL14-1
 4609 03a0 16000000 		.4byte	.LVL14
 4610 03a4 0400     		.2byte	0x4
 4611 03a6 F3       		.byte	0xf3
 4612 03a7 01       		.uleb128 0x1
 4613 03a8 50       		.byte	0x50
 4614 03a9 9F       		.byte	0x9f
 4615 03aa 16000000 		.4byte	.LVL14
 4616 03ae 18000000 		.4byte	.LFE248
 4617 03b2 0100     		.2byte	0x1
ARM GAS  /tmp/ccdzvlYC.s 			page 82


 4618 03b4 53       		.byte	0x53
 4619 03b5 00000000 		.4byte	0
 4620 03b9 00000000 		.4byte	0
 4621              	.LVUS9:
 4622 03bd 01       		.uleb128 .LVU82
 4623 03be 00       		.uleb128 .LVU87
 4624              	.LLST9:
 4625 03bf 10000000 		.4byte	.LVL13
 4626 03c3 15000000 		.4byte	.LVL14-1
 4627 03c7 0100     		.2byte	0x1
 4628 03c9 50       		.byte	0x50
 4629 03ca 00000000 		.4byte	0
 4630 03ce 00000000 		.4byte	0
 4631              	.LVUS10:
 4632 03d2 01       		.uleb128 .LVU73
 4633 03d3 01       		.uleb128 .LVU82
 4634              	.LLST10:
 4635 03d4 08000000 		.4byte	.LVL12
 4636 03d8 10000000 		.4byte	.LVL13
 4637 03dc 0100     		.2byte	0x1
 4638 03de 53       		.byte	0x53
 4639 03df 00000000 		.4byte	0
 4640 03e3 00000000 		.4byte	0
 4641              	.LVUS11:
 4642 03e7 03       		.uleb128 .LVU75
 4643 03e8 01       		.uleb128 .LVU82
 4644              	.LLST11:
 4645 03e9 08000000 		.4byte	.LVL12
 4646 03ed 10000000 		.4byte	.LVL13
 4647 03f1 0100     		.2byte	0x1
 4648 03f3 50       		.byte	0x50
 4649 03f4 00000000 		.4byte	0
 4650 03f8 00000000 		.4byte	0
 4651              	.LVUS8:
 4652 03fc 00       		.uleb128 .LVU67
 4653 03fd 00       		.uleb128 .LVU70
 4654              	.LLST8:
 4655 03fe 02000000 		.4byte	.LVL10
 4656 0402 04000000 		.4byte	.LVL11
 4657 0406 0100     		.2byte	0x1
 4658 0408 50       		.byte	0x50
 4659 0409 00000000 		.4byte	0
 4660 040d 00000000 		.4byte	0
 4661              	.LVUS1:
 4662 0411 00       		.uleb128 0
 4663 0412 00       		.uleb128 .LVU32
 4664 0413 00       		.uleb128 .LVU32
 4665 0414 00       		.uleb128 .LVU46
 4666 0415 00       		.uleb128 .LVU46
 4667 0416 00       		.uleb128 0
 4668              	.LLST1:
 4669 0417 00000000 		.4byte	.LVL2
 4670 041b 0C000000 		.4byte	.LVL4
 4671 041f 0100     		.2byte	0x1
 4672 0421 50       		.byte	0x50
 4673 0422 0C000000 		.4byte	.LVL4
 4674 0426 1B000000 		.4byte	.LVL7-1
ARM GAS  /tmp/ccdzvlYC.s 			page 83


 4675 042a 0100     		.2byte	0x1
 4676 042c 53       		.byte	0x53
 4677 042d 1B000000 		.4byte	.LVL7-1
 4678 0431 24000000 		.4byte	.LFE247
 4679 0435 0400     		.2byte	0x4
 4680 0437 F3       		.byte	0xf3
 4681 0438 01       		.uleb128 0x1
 4682 0439 50       		.byte	0x50
 4683 043a 9F       		.byte	0x9f
 4684 043b 00000000 		.4byte	0
 4685 043f 00000000 		.4byte	0
 4686              	.LVUS2:
 4687 0443 09       		.uleb128 .LVU19
 4688 0444 00       		.uleb128 .LVU25
 4689              	.LLST2:
 4690 0445 00000000 		.4byte	.LVL2
 4691 0449 0A000000 		.4byte	.LVL3
 4692 044d 0300     		.2byte	0x3
 4693 044f 08       		.byte	0x8
 4694 0450 20       		.byte	0x20
 4695 0451 9F       		.byte	0x9f
 4696 0452 00000000 		.4byte	0
 4697 0456 00000000 		.4byte	0
 4698              	.LVUS3:
 4699 045a 04       		.uleb128 .LVU29
 4700 045b 00       		.uleb128 .LVU32
 4701              	.LLST3:
 4702 045c 0A000000 		.4byte	.LVL3
 4703 0460 0C000000 		.4byte	.LVL4
 4704 0464 0100     		.2byte	0x1
 4705 0466 50       		.byte	0x50
 4706 0467 00000000 		.4byte	0
 4707 046b 00000000 		.4byte	0
 4708              	.LVUS4:
 4709 046f 01       		.uleb128 .LVU35
 4710 0470 01       		.uleb128 .LVU44
 4711              	.LLST4:
 4712 0471 10000000 		.4byte	.LVL5
 4713 0475 18000000 		.4byte	.LVL6
 4714 0479 0100     		.2byte	0x1
 4715 047b 53       		.byte	0x53
 4716 047c 00000000 		.4byte	0
 4717 0480 00000000 		.4byte	0
 4718              	.LVUS5:
 4719 0484 03       		.uleb128 .LVU37
 4720 0485 01       		.uleb128 .LVU44
 4721              	.LLST5:
 4722 0486 10000000 		.4byte	.LVL5
 4723 048a 18000000 		.4byte	.LVL6
 4724 048e 0100     		.2byte	0x1
 4725 0490 50       		.byte	0x50
 4726 0491 00000000 		.4byte	0
 4727 0495 00000000 		.4byte	0
 4728              	.LVUS6:
 4729 0499 0A       		.uleb128 .LVU56
 4730 049a 00       		.uleb128 .LVU58
 4731              	.LLST6:
ARM GAS  /tmp/ccdzvlYC.s 			page 84


 4732 049b 1C000000 		.4byte	.LVL7
 4733 049f 22000000 		.4byte	.LVL8
 4734 04a3 0200     		.2byte	0x2
 4735 04a5 30       		.byte	0x30
 4736 04a6 9F       		.byte	0x9f
 4737 04a7 00000000 		.4byte	0
 4738 04ab 00000000 		.4byte	0
 4739              	.LVUS0:
 4740 04af 05       		.uleb128 .LVU5
 4741 04b0 00       		.uleb128 .LVU8
 4742              	.LLST0:
 4743 04b1 00000000 		.4byte	.LVL0
 4744 04b5 04000000 		.4byte	.LVL1
 4745 04b9 0100     		.2byte	0x1
 4746 04bb 50       		.byte	0x50
 4747 04bc 00000000 		.4byte	0
 4748 04c0 00000000 		.4byte	0
 4749              	.LVUS19:
 4750 04c4 00       		.uleb128 0
 4751 04c5 00       		.uleb128 .LVU165
 4752 04c6 00       		.uleb128 .LVU165
 4753 04c7 00       		.uleb128 .LVU184
 4754 04c8 00       		.uleb128 .LVU184
 4755 04c9 00       		.uleb128 0
 4756              	.LLST19:
 4757 04ca 00000000 		.4byte	.LVL25
 4758 04ce 0E000000 		.4byte	.LVL27
 4759 04d2 0100     		.2byte	0x1
 4760 04d4 50       		.byte	0x50
 4761 04d5 0E000000 		.4byte	.LVL27
 4762 04d9 22000000 		.4byte	.LVL31
 4763 04dd 0100     		.2byte	0x1
 4764 04df 54       		.byte	0x54
 4765 04e0 22000000 		.4byte	.LVL31
 4766 04e4 24000000 		.4byte	.LFE250
 4767 04e8 0400     		.2byte	0x4
 4768 04ea F3       		.byte	0xf3
 4769 04eb 01       		.uleb128 0x1
 4770 04ec 50       		.byte	0x50
 4771 04ed 9F       		.byte	0x9f
 4772 04ee 00000000 		.4byte	0
 4773 04f2 00000000 		.4byte	0
 4774              	.LVUS20:
 4775 04f6 07       		.uleb128 .LVU158
 4776 04f7 00       		.uleb128 .LVU162
 4777 04f8 01       		.uleb128 .LVU180
 4778 04f9 03       		.uleb128 .LVU182
 4779              	.LLST20:
 4780 04fa 00000000 		.4byte	.LVL25
 4781 04fe 04000000 		.4byte	.LVL26
 4782 0502 0100     		.2byte	0x1
 4783 0504 50       		.byte	0x50
 4784 0505 1E000000 		.4byte	.LVL30
 4785 0509 1E000000 		.4byte	.LVL30
 4786 050d 0100     		.2byte	0x1
 4787 050f 54       		.byte	0x54
 4788 0510 00000000 		.4byte	0
ARM GAS  /tmp/ccdzvlYC.s 			page 85


 4789 0514 00000000 		.4byte	0
 4790              	.LVUS21:
 4791 0518 01       		.uleb128 .LVU166
 4792 0519 01       		.uleb128 .LVU175
 4793              	.LLST21:
 4794 051a 0E000000 		.4byte	.LVL27
 4795 051e 16000000 		.4byte	.LVL28
 4796 0522 0100     		.2byte	0x1
 4797 0524 54       		.byte	0x54
 4798 0525 00000000 		.4byte	0
 4799 0529 00000000 		.4byte	0
 4800              	.LVUS22:
 4801 052d 03       		.uleb128 .LVU168
 4802 052e 01       		.uleb128 .LVU175
 4803              	.LLST22:
 4804 052f 0E000000 		.4byte	.LVL27
 4805 0533 16000000 		.4byte	.LVL28
 4806 0537 0100     		.2byte	0x1
 4807 0539 53       		.byte	0x53
 4808 053a 00000000 		.4byte	0
 4809 053e 00000000 		.4byte	0
 4810              		.section	.debug_aranges,"",%progbits
 4811 0000 5C000000 		.4byte	0x5c
 4812 0004 0200     		.2byte	0x2
 4813 0006 00000000 		.4byte	.Ldebug_info0
 4814 000a 04       		.byte	0x4
 4815 000b 00       		.byte	0
 4816 000c 0000     		.2byte	0
 4817 000e 0000     		.2byte	0
 4818 0010 00000000 		.4byte	.LFB246
 4819 0014 06000000 		.4byte	.LFE246-.LFB246
 4820 0018 00000000 		.4byte	.LFB247
 4821 001c 24000000 		.4byte	.LFE247-.LFB247
 4822 0020 00000000 		.4byte	.LFB248
 4823 0024 18000000 		.4byte	.LFE248-.LFB248
 4824 0028 00000000 		.4byte	.LFB249
 4825 002c 34000000 		.4byte	.LFE249-.LFB249
 4826 0030 00000000 		.4byte	.LFB250
 4827 0034 24000000 		.4byte	.LFE250-.LFB250
 4828 0038 00000000 		.4byte	.LFB252
 4829 003c 44000000 		.4byte	.LFE252-.LFB252
 4830 0040 00000000 		.4byte	.LFB251
 4831 0044 14000000 		.4byte	.LFE251-.LFB251
 4832 0048 00000000 		.4byte	.LFB254
 4833 004c 50000000 		.4byte	.LFE254-.LFB254
 4834 0050 00000000 		.4byte	.LFB253
 4835 0054 14000000 		.4byte	.LFE253-.LFB253
 4836 0058 00000000 		.4byte	0
 4837 005c 00000000 		.4byte	0
 4838              		.section	.debug_ranges,"",%progbits
 4839              	.Ldebug_ranges0:
 4840 0000 00000000 		.4byte	.LBB81
 4841 0004 00000000 		.4byte	.LBE81
 4842 0008 00000000 		.4byte	.LBB92
 4843 000c 00000000 		.4byte	.LBE92
 4844 0010 00000000 		.4byte	.LBB93
 4845 0014 00000000 		.4byte	.LBE93
ARM GAS  /tmp/ccdzvlYC.s 			page 86


 4846 0018 02000000 		.4byte	.LBB94
 4847 001c 04000000 		.4byte	.LBE94
 4848 0020 06000000 		.4byte	.LBB95
 4849 0024 0A000000 		.4byte	.LBE95
 4850 0028 00000000 		.4byte	0
 4851 002c 00000000 		.4byte	0
 4852 0030 10000000 		.4byte	.LBB98
 4853 0034 14000000 		.4byte	.LBE98
 4854 0038 16000000 		.4byte	.LBB101
 4855 003c 18000000 		.4byte	.LBE101
 4856 0040 00000000 		.4byte	0
 4857 0044 00000000 		.4byte	0
 4858 0048 1C000000 		.4byte	.LBB102
 4859 004c 1C000000 		.4byte	.LBE102
 4860 0050 1C000000 		.4byte	.LBB109
 4861 0054 22000000 		.4byte	.LBE109
 4862 0058 00000000 		.4byte	0
 4863 005c 00000000 		.4byte	0
 4864 0060 08000000 		.4byte	.LBB113
 4865 0064 0C000000 		.4byte	.LBE113
 4866 0068 0E000000 		.4byte	.LBB116
 4867 006c 10000000 		.4byte	.LBE116
 4868 0070 00000000 		.4byte	0
 4869 0074 00000000 		.4byte	0
 4870 0078 00000000 		.4byte	.LBB132
 4871 007c 00000000 		.4byte	.LBE132
 4872 0080 00000000 		.4byte	.LBB140
 4873 0084 00000000 		.4byte	.LBE140
 4874 0088 00000000 		.4byte	.LBB141
 4875 008c 00000000 		.4byte	.LBE141
 4876 0090 02000000 		.4byte	.LBB142
 4877 0094 08000000 		.4byte	.LBE142
 4878 0098 00000000 		.4byte	0
 4879 009c 00000000 		.4byte	0
 4880 00a0 08000000 		.4byte	.LBB145
 4881 00a4 0A000000 		.4byte	.LBE145
 4882 00a8 20000000 		.4byte	.LBB153
 4883 00ac 22000000 		.4byte	.LBE153
 4884 00b0 24000000 		.4byte	.LBB154
 4885 00b4 24000000 		.4byte	.LBE154
 4886 00b8 00000000 		.4byte	0
 4887 00bc 00000000 		.4byte	0
 4888 00c0 14000000 		.4byte	.LBB149
 4889 00c4 18000000 		.4byte	.LBE149
 4890 00c8 1A000000 		.4byte	.LBB152
 4891 00cc 1C000000 		.4byte	.LBE152
 4892 00d0 00000000 		.4byte	0
 4893 00d4 00000000 		.4byte	0
 4894 00d8 2C000000 		.4byte	.LBB155
 4895 00dc 2C000000 		.4byte	.LBE155
 4896 00e0 2C000000 		.4byte	.LBB162
 4897 00e4 32000000 		.4byte	.LBE162
 4898 00e8 00000000 		.4byte	0
 4899 00ec 00000000 		.4byte	0
 4900 00f0 00000000 		.4byte	.LBB163
 4901 00f4 00000000 		.4byte	.LBE163
 4902 00f8 02000000 		.4byte	.LBB168
ARM GAS  /tmp/ccdzvlYC.s 			page 87


 4903 00fc 04000000 		.4byte	.LBE168
 4904 0100 1A000000 		.4byte	.LBB173
 4905 0104 1C000000 		.4byte	.LBE173
 4906 0108 1E000000 		.4byte	.LBB174
 4907 010c 1E000000 		.4byte	.LBE174
 4908 0110 00000000 		.4byte	0
 4909 0114 00000000 		.4byte	0
 4910 0118 0E000000 		.4byte	.LBB169
 4911 011c 12000000 		.4byte	.LBE169
 4912 0120 14000000 		.4byte	.LBB172
 4913 0124 16000000 		.4byte	.LBE172
 4914 0128 00000000 		.4byte	0
 4915 012c 00000000 		.4byte	0
 4916 0130 06000000 		.4byte	.LBB179
 4917 0134 06000000 		.4byte	.LBE179
 4918 0138 06000000 		.4byte	.LBB182
 4919 013c 08000000 		.4byte	.LBE182
 4920 0140 00000000 		.4byte	0
 4921 0144 00000000 		.4byte	0
 4922 0148 12000000 		.4byte	.LBB183
 4923 014c 26000000 		.4byte	.LBE183
 4924 0150 28000000 		.4byte	.LBB186
 4925 0154 30000000 		.4byte	.LBE186
 4926 0158 00000000 		.4byte	0
 4927 015c 00000000 		.4byte	0
 4928 0160 00000000 		.4byte	.LBB187
 4929 0164 00000000 		.4byte	.LBE187
 4930 0168 00000000 		.4byte	.LBB195
 4931 016c 00000000 		.4byte	.LBE195
 4932 0170 00000000 		.4byte	.LBB196
 4933 0174 00000000 		.4byte	.LBE196
 4934 0178 02000000 		.4byte	.LBB197
 4935 017c 08000000 		.4byte	.LBE197
 4936 0180 00000000 		.4byte	0
 4937 0184 00000000 		.4byte	0
 4938 0188 0C000000 		.4byte	.LBB198
 4939 018c 0C000000 		.4byte	.LBE198
 4940 0190 0C000000 		.4byte	.LBB205
 4941 0194 12000000 		.4byte	.LBE205
 4942 0198 00000000 		.4byte	0
 4943 019c 00000000 		.4byte	0
 4944 01a0 00000000 		.4byte	.LBB212
 4945 01a4 00000000 		.4byte	.LBE212
 4946 01a8 02000000 		.4byte	.LBB219
 4947 01ac 08000000 		.4byte	.LBE219
 4948 01b0 00000000 		.4byte	0
 4949 01b4 00000000 		.4byte	0
 4950 01b8 00000000 		.4byte	.LBB214
 4951 01bc 00000000 		.4byte	.LBE214
 4952 01c0 02000000 		.4byte	.LBB217
 4953 01c4 04000000 		.4byte	.LBE217
 4954 01c8 00000000 		.4byte	0
 4955 01cc 00000000 		.4byte	0
 4956 01d0 14000000 		.4byte	.LBB220
 4957 01d4 16000000 		.4byte	.LBE220
 4958 01d8 18000000 		.4byte	.LBB225
 4959 01dc 2A000000 		.4byte	.LBE225
ARM GAS  /tmp/ccdzvlYC.s 			page 88


 4960 01e0 2C000000 		.4byte	.LBB226
 4961 01e4 30000000 		.4byte	.LBE226
 4962 01e8 32000000 		.4byte	.LBB227
 4963 01ec 36000000 		.4byte	.LBE227
 4964 01f0 00000000 		.4byte	0
 4965 01f4 00000000 		.4byte	0
 4966 01f8 00000000 		.4byte	.LBB228
 4967 01fc 00000000 		.4byte	.LBE228
 4968 0200 00000000 		.4byte	.LBB236
 4969 0204 00000000 		.4byte	.LBE236
 4970 0208 00000000 		.4byte	.LBB237
 4971 020c 00000000 		.4byte	.LBE237
 4972 0210 02000000 		.4byte	.LBB238
 4973 0214 08000000 		.4byte	.LBE238
 4974 0218 00000000 		.4byte	0
 4975 021c 00000000 		.4byte	0
 4976 0220 0C000000 		.4byte	.LBB239
 4977 0224 0C000000 		.4byte	.LBE239
 4978 0228 0C000000 		.4byte	.LBB246
 4979 022c 12000000 		.4byte	.LBE246
 4980 0230 00000000 		.4byte	0
 4981 0234 00000000 		.4byte	0
 4982 0238 00000000 		.4byte	.LFB246
 4983 023c 06000000 		.4byte	.LFE246
 4984 0240 00000000 		.4byte	.LFB247
 4985 0244 24000000 		.4byte	.LFE247
 4986 0248 00000000 		.4byte	.LFB248
 4987 024c 18000000 		.4byte	.LFE248
 4988 0250 00000000 		.4byte	.LFB249
 4989 0254 34000000 		.4byte	.LFE249
 4990 0258 00000000 		.4byte	.LFB250
 4991 025c 24000000 		.4byte	.LFE250
 4992 0260 00000000 		.4byte	.LFB252
 4993 0264 44000000 		.4byte	.LFE252
 4994 0268 00000000 		.4byte	.LFB251
 4995 026c 14000000 		.4byte	.LFE251
 4996 0270 00000000 		.4byte	.LFB254
 4997 0274 50000000 		.4byte	.LFE254
 4998 0278 00000000 		.4byte	.LFB253
 4999 027c 14000000 		.4byte	.LFE253
 5000 0280 00000000 		.4byte	0
 5001 0284 00000000 		.4byte	0
 5002              		.section	.debug_line,"",%progbits
 5003              	.Ldebug_line0:
 5004 0000 16080000 		.section	.debug_str,"MS",%progbits,1
 5004      03008C01 
 5004      00000201 
 5004      FB0E0D00 
 5004      01010101 
 5005              	.LASF119:
 5006 0000 2F686F6D 		.ascii	"/home/tfateba/nlab/ip/trunk/demos/STM32/RT-STM32F40"
 5006      652F7466 
 5006      61746562 
 5006      612F6E6C 
 5006      61622F69 
 5007 0033 372D4449 		.ascii	"7-DISCOVERY-G++\000"
 5007      53434F56 
ARM GAS  /tmp/ccdzvlYC.s 			page 89


 5007      4552592D 
 5007      472B2B00 
 5008              	.LASF47:
 5009 0043 72656164 		.ascii	"ready_list_t\000"
 5009      795F6C69 
 5009      73745F74 
 5009      00
 5010              	.LASF75:
 5011 0050 77747472 		.ascii	"wttrp\000"
 5011      7000
 5012              	.LASF53:
 5013 0056 64656C74 		.ascii	"delta\000"
 5013      6100
 5014              	.LASF72:
 5015 005c 7264796D 		.ascii	"rdymsg\000"
 5015      736700
 5016              	.LASF12:
 5017 0063 75696E74 		.ascii	"uint64_t\000"
 5017      36345F74 
 5017      00
 5018              	.LASF46:
 5019 006c 70726576 		.ascii	"prev\000"
 5019      00
 5020              	.LASF69:
 5021 0071 706F7274 		.ascii	"port_intctx\000"
 5021      5F696E74 
 5021      63747800 
 5022              	.LASF58:
 5023 007d 73797374 		.ascii	"system_debug_t\000"
 5023      656D5F64 
 5023      65627567 
 5023      5F7400
 5024              	.LASF104:
 5025 008c 71756575 		.ascii	"queue_init\000"
 5025      655F696E 
 5025      697400
 5026              	.LASF107:
 5027 0097 706F7274 		.ascii	"port_lock\000"
 5027      5F6C6F63 
 5027      6B00
 5028              	.LASF120:
 5029 00a1 6368436F 		.ascii	"chCondBroadcastI\000"
 5029      6E644272 
 5029      6F616463 
 5029      61737449 
 5029      00
 5030              	.LASF13:
 5031 00b2 6C6F6E67 		.ascii	"long long unsigned int\000"
 5031      206C6F6E 
 5031      6720756E 
 5031      7369676E 
 5031      65642069 
 5032              	.LASF73:
 5033 00c9 65786974 		.ascii	"exitcode\000"
 5033      636F6465 
 5033      00
 5034              	.LASF65:
ARM GAS  /tmp/ccdzvlYC.s 			page 90


 5035 00d2 6D61696E 		.ascii	"mainthread\000"
 5035      74687265 
 5035      616400
 5036              	.LASF76:
 5037 00dd 73656E74 		.ascii	"sentmsg\000"
 5037      6D736700 
 5038              	.LASF55:
 5039 00e5 76697274 		.ascii	"virtual_timers_list_t\000"
 5039      75616C5F 
 5039      74696D65 
 5039      72735F6C 
 5039      6973745F 
 5040              	.LASF43:
 5041 00fb 6E657874 		.ascii	"next\000"
 5041      00
 5042              	.LASF45:
 5043 0100 63685F74 		.ascii	"ch_threads_queue\000"
 5043      68726561 
 5043      64735F71 
 5043      75657565 
 5043      00
 5044              	.LASF1:
 5045 0111 6C6F6E67 		.ascii	"long long int\000"
 5045      206C6F6E 
 5045      6720696E 
 5045      7400
 5046              	.LASF3:
 5047 011f 7369676E 		.ascii	"signed char\000"
 5047      65642063 
 5047      68617200 
 5048              	.LASF86:
 5049 012b 636F6E64 		.ascii	"condition_variable_t\000"
 5049      6974696F 
 5049      6E5F7661 
 5049      72696162 
 5049      6C655F74 
 5050              	.LASF64:
 5051 0140 76746C69 		.ascii	"vtlist\000"
 5051      737400
 5052              	.LASF106:
 5053 0147 706F7274 		.ascii	"port_unlock\000"
 5053      5F756E6C 
 5053      6F636B00 
 5054              	.LASF34:
 5055 0153 6D736771 		.ascii	"msgqueue\000"
 5055      75657565 
 5055      00
 5056              	.LASF30:
 5057 015c 73746174 		.ascii	"state\000"
 5057      6500
 5058              	.LASF5:
 5059 0162 6C6F6E67 		.ascii	"long int\000"
 5059      20696E74 
 5059      00
 5060              	.LASF16:
 5061 016b 74737461 		.ascii	"tstate_t\000"
 5061      74655F74 
ARM GAS  /tmp/ccdzvlYC.s 			page 91


 5061      00
 5062              	.LASF103:
 5063 0174 71756575 		.ascii	"queue_notempty\000"
 5063      655F6E6F 
 5063      74656D70 
 5063      747900
 5064              	.LASF54:
 5065 0183 66756E63 		.ascii	"func\000"
 5065      00
 5066              	.LASF112:
 5067 0188 63684D74 		.ascii	"chMtxLockS\000"
 5067      784C6F63 
 5067      6B5300
 5068              	.LASF24:
 5069 0193 71756575 		.ascii	"queue\000"
 5069      6500
 5070              	.LASF115:
 5071 0199 63685363 		.ascii	"chSchRescheduleS\000"
 5071      68526573 
 5071      63686564 
 5071      756C6553 
 5071      00
 5072              	.LASF66:
 5073 01aa 72656761 		.ascii	"regarm_t\000"
 5073      726D5F74 
 5073      00
 5074              	.LASF59:
 5075 01b3 63685F73 		.ascii	"ch_system_debug\000"
 5075      79737465 
 5075      6D5F6465 
 5075      62756700 
 5076              	.LASF33:
 5077 01c3 77616974 		.ascii	"waiting\000"
 5077      696E6700 
 5078              	.LASF84:
 5079 01cb 6D757465 		.ascii	"mutex_t\000"
 5079      785F7400 
 5080              	.LASF109:
 5081 01d3 76616C75 		.ascii	"value\000"
 5081      6500
 5082              	.LASF96:
 5083 01d9 6368436F 		.ascii	"chCondSignal\000"
 5083      6E645369 
 5083      676E616C 
 5083      00
 5084              	.LASF21:
 5085 01e6 636E745F 		.ascii	"cnt_t\000"
 5085      7400
 5086              	.LASF110:
 5087 01ec 63684D74 		.ascii	"chMtxUnlockS\000"
 5087      78556E6C 
 5087      6F636B53 
 5087      00
 5088              	.LASF0:
 5089 01f9 756E7369 		.ascii	"unsigned int\000"
 5089      676E6564 
 5089      20696E74 
ARM GAS  /tmp/ccdzvlYC.s 			page 92


 5089      00
 5090              	.LASF77:
 5091 0206 77747365 		.ascii	"wtsemp\000"
 5091      6D7000
 5092              	.LASF11:
 5093 020d 6C6F6E67 		.ascii	"long unsigned int\000"
 5093      20756E73 
 5093      69676E65 
 5093      6420696E 
 5093      7400
 5094              	.LASF118:
 5095 021f 2E2E2F2E 		.ascii	"../../../os/rt/src/chcond.c\000"
 5095      2E2F2E2E 
 5095      2F6F732F 
 5095      72742F73 
 5095      72632F63 
 5096              	.LASF28:
 5097 023b 6E616D65 		.ascii	"name\000"
 5097      00
 5098              	.LASF38:
 5099 0240 6D706F6F 		.ascii	"mpool\000"
 5099      6C00
 5100              	.LASF9:
 5101 0246 73686F72 		.ascii	"short unsigned int\000"
 5101      7420756E 
 5101      7369676E 
 5101      65642069 
 5101      6E7400
 5102              	.LASF41:
 5103 0259 63685F74 		.ascii	"ch_thread\000"
 5103      68726561 
 5103      6400
 5104              	.LASF19:
 5105 0263 6D73675F 		.ascii	"msg_t\000"
 5105      7400
 5106              	.LASF35:
 5107 0269 6570656E 		.ascii	"epending\000"
 5107      64696E67 
 5107      00
 5108              	.LASF61:
 5109 0272 63685F73 		.ascii	"ch_system_t\000"
 5109      79737465 
 5109      6D5F7400 
 5110              	.LASF15:
 5111 027e 746D6F64 		.ascii	"tmode_t\000"
 5111      655F7400 
 5112              	.LASF48:
 5113 0286 63685F72 		.ascii	"ch_ready_list\000"
 5113      65616479 
 5113      5F6C6973 
 5113      7400
 5114              	.LASF20:
 5115 0294 6576656E 		.ascii	"eventmask_t\000"
 5115      746D6173 
 5115      6B5F7400 
 5116              	.LASF67:
 5117 02a0 73746B61 		.ascii	"stkalign_t\000"
ARM GAS  /tmp/ccdzvlYC.s 			page 93


 5117      6C69676E 
 5117      5F7400
 5118              	.LASF26:
 5119 02ab 6E657765 		.ascii	"newer\000"
 5119      7200
 5120              	.LASF37:
 5121 02b1 7265616C 		.ascii	"realprio\000"
 5121      7072696F 
 5121      00
 5122              	.LASF14:
 5123 02ba 7274636E 		.ascii	"rtcnt_t\000"
 5123      745F7400 
 5124              	.LASF39:
 5125 02c2 74687265 		.ascii	"thread_reference_t\000"
 5125      61645F72 
 5125      65666572 
 5125      656E6365 
 5125      5F7400
 5126              	.LASF56:
 5127 02d5 63685F76 		.ascii	"ch_virtual_timers_list\000"
 5127      69727475 
 5127      616C5F74 
 5127      696D6572 
 5127      735F6C69 
 5128              	.LASF85:
 5129 02ec 636F6E64 		.ascii	"condition_variable\000"
 5129      6974696F 
 5129      6E5F7661 
 5129      72696162 
 5129      6C6500
 5130              	.LASF89:
 5131 02ff 6368436F 		.ascii	"chCondWaitTimeoutS\000"
 5131      6E645761 
 5131      69745469 
 5131      6D656F75 
 5131      745300
 5132              	.LASF117:
 5133 0312 474E5520 		.ascii	"GNU C17 10.3.1 20210621 (release) -mcpu=cortex-m4 -"
 5133      43313720 
 5133      31302E33 
 5133      2E312032 
 5133      30323130 
 5134 0345 6D6E6F2D 		.ascii	"mno-thumb-interwork -mthumb -mfloat-abi=soft -march"
 5134      7468756D 
 5134      622D696E 
 5134      74657277 
 5134      6F726B20 
 5135 0378 3D61726D 		.ascii	"=armv7e-m -ggdb -O2 -fomit-frame-pointer -falign-fu"
 5135      7637652D 
 5135      6D202D67 
 5135      67646220 
 5135      2D4F3220 
 5136 03ab 6E637469 		.ascii	"nctions=16 -ffunction-sections -fdata-sections -fno"
 5136      6F6E733D 
 5136      3136202D 
 5136      6666756E 
 5136      6374696F 
ARM GAS  /tmp/ccdzvlYC.s 			page 94


 5137 03de 2D636F6D 		.ascii	"-common\000"
 5137      6D6F6E00 
 5138              	.LASF68:
 5139 03e6 706F7274 		.ascii	"port_context\000"
 5139      5F636F6E 
 5139      74657874 
 5139      00
 5140              	.LASF71:
 5141 03f3 746D5F63 		.ascii	"tm_calibration_t\000"
 5141      616C6962 
 5141      72617469 
 5141      6F6E5F74 
 5141      00
 5142              	.LASF88:
 5143 0404 74696D65 		.ascii	"time\000"
 5143      00
 5144              	.LASF25:
 5145 0409 7072696F 		.ascii	"prio\000"
 5145      00
 5146              	.LASF94:
 5147 040e 6368436F 		.ascii	"chCondBroadcast\000"
 5147      6E644272 
 5147      6F616463 
 5147      61737400 
 5148              	.LASF49:
 5149 041e 63757272 		.ascii	"current\000"
 5149      656E7400 
 5150              	.LASF17:
 5151 0426 74726566 		.ascii	"trefs_t\000"
 5151      735F7400 
 5152              	.LASF32:
 5153 042e 72656673 		.ascii	"refs\000"
 5153      00
 5154              	.LASF51:
 5155 0433 76697274 		.ascii	"virtual_timer_t\000"
 5155      75616C5F 
 5155      74696D65 
 5155      725F7400 
 5156              	.LASF18:
 5157 0443 74707269 		.ascii	"tprio_t\000"
 5157      6F5F7400 
 5158              	.LASF95:
 5159 044b 6368436F 		.ascii	"chCondSignalI\000"
 5159      6E645369 
 5159      676E616C 
 5159      4900
 5160              	.LASF87:
 5161 0459 5F426F6F 		.ascii	"_Bool\000"
 5161      6C00
 5162              	.LASF6:
 5163 045f 696E7433 		.ascii	"int32_t\000"
 5163      325F7400 
 5164              	.LASF8:
 5165 0467 756E7369 		.ascii	"unsigned char\000"
 5165      676E6564 
 5165      20636861 
 5165      7200
ARM GAS  /tmp/ccdzvlYC.s 			page 95


 5166              	.LASF4:
 5167 0475 73686F72 		.ascii	"short int\000"
 5167      7420696E 
 5167      7400
 5168              	.LASF57:
 5169 047f 6C617374 		.ascii	"lasttime\000"
 5169      74696D65 
 5169      00
 5170              	.LASF79:
 5171 0488 65776D61 		.ascii	"ewmask\000"
 5171      736B00
 5172              	.LASF62:
 5173 048f 63685F73 		.ascii	"ch_system\000"
 5173      79737465 
 5173      6D00
 5174              	.LASF92:
 5175 0499 5F5F6675 		.ascii	"__func__\000"
 5175      6E635F5F 
 5175      00
 5176              	.LASF105:
 5177 04a2 63685379 		.ascii	"chSysLock\000"
 5177      734C6F63 
 5177      6B00
 5178              	.LASF52:
 5179 04ac 63685F76 		.ascii	"ch_virtual_timer\000"
 5179      69727475 
 5179      616C5F74 
 5179      696D6572 
 5179      00
 5180              	.LASF80:
 5181 04bd 63685F73 		.ascii	"ch_semaphore\000"
 5181      656D6170 
 5181      686F7265 
 5181      00
 5182              	.LASF113:
 5183 04ca 63685363 		.ascii	"chSchGoSleepS\000"
 5183      68476F53 
 5183      6C656570 
 5183      5300
 5184              	.LASF98:
 5185 04d8 63684D74 		.ascii	"chMtxGetNextMutexS\000"
 5185      78476574 
 5185      4E657874 
 5185      4D757465 
 5185      785300
 5186              	.LASF10:
 5187 04eb 75696E74 		.ascii	"uint32_t\000"
 5187      33325F74 
 5187      00
 5188              	.LASF78:
 5189 04f4 77746D74 		.ascii	"wtmtxp\000"
 5189      787000
 5190              	.LASF114:
 5191 04fb 63685363 		.ascii	"chSchReadyI\000"
 5191      68526561 
 5191      64794900 
 5192              	.LASF42:
ARM GAS  /tmp/ccdzvlYC.s 			page 96


 5193 0507 63685F74 		.ascii	"ch_threads_list\000"
 5193      68726561 
 5193      64735F6C 
 5193      69737400 
 5194              	.LASF82:
 5195 0517 6F776E65 		.ascii	"owner\000"
 5195      7200
 5196              	.LASF2:
 5197 051d 6C6F6E67 		.ascii	"long double\000"
 5197      20646F75 
 5197      626C6500 
 5198              	.LASF29:
 5199 0529 77616261 		.ascii	"wabase\000"
 5199      736500
 5200              	.LASF83:
 5201 0530 63686172 		.ascii	"char\000"
 5201      00
 5202              	.LASF27:
 5203 0535 6F6C6465 		.ascii	"older\000"
 5203      7200
 5204              	.LASF91:
 5205 053b 6368436F 		.ascii	"chCondWaitS\000"
 5205      6E645761 
 5205      69745300 
 5206              	.LASF97:
 5207 0547 6368436F 		.ascii	"chCondObjectInit\000"
 5207      6E644F62 
 5207      6A656374 
 5207      496E6974 
 5207      00
 5208              	.LASF102:
 5209 0558 71756575 		.ascii	"queue_fifo_remove\000"
 5209      655F6669 
 5209      666F5F72 
 5209      656D6F76 
 5209      6500
 5210              	.LASF22:
 5211 056a 73797374 		.ascii	"systime_t\000"
 5211      696D655F 
 5211      7400
 5212              	.LASF50:
 5213 0574 76746675 		.ascii	"vtfunc_t\000"
 5213      6E635F74 
 5213      00
 5214              	.LASF108:
 5215 057d 5F5F7365 		.ascii	"__set_BASEPRI\000"
 5215      745F4241 
 5215      53455052 
 5215      4900
 5216              	.LASF60:
 5217 058b 70616E69 		.ascii	"panic_msg\000"
 5217      635F6D73 
 5217      6700
 5218              	.LASF70:
 5219 0595 6F666673 		.ascii	"offset\000"
 5219      657400
 5220              	.LASF93:
ARM GAS  /tmp/ccdzvlYC.s 			page 97


 5221 059c 6368436F 		.ascii	"chCondWait\000"
 5221      6E645761 
 5221      697400
 5222              	.LASF116:
 5223 05a7 63685363 		.ascii	"chSchWakeupS\000"
 5223      6857616B 
 5223      65757053 
 5223      00
 5224              	.LASF44:
 5225 05b4 74687265 		.ascii	"threads_queue_t\000"
 5225      6164735F 
 5225      71756575 
 5225      655F7400 
 5226              	.LASF81:
 5227 05c4 63685F6D 		.ascii	"ch_mutex\000"
 5227      75746578 
 5227      00
 5228              	.LASF23:
 5229 05cd 74687265 		.ascii	"thread_t\000"
 5229      61645F74 
 5229      00
 5230              	.LASF63:
 5231 05d6 726C6973 		.ascii	"rlist\000"
 5231      7400
 5232              	.LASF99:
 5233 05dc 63685468 		.ascii	"chThdGetSelfX\000"
 5233      64476574 
 5233      53656C66 
 5233      5800
 5234              	.LASF7:
 5235 05ea 75696E74 		.ascii	"uint8_t\000"
 5235      385F7400 
 5236              	.LASF31:
 5237 05f2 666C6167 		.ascii	"flags\000"
 5237      7300
 5238              	.LASF74:
 5239 05f8 77746F62 		.ascii	"wtobjp\000"
 5239      6A7000
 5240              	.LASF90:
 5241 05ff 6368436F 		.ascii	"chCondWaitTimeout\000"
 5241      6E645761 
 5241      69745469 
 5241      6D656F75 
 5241      7400
 5242              	.LASF40:
 5243 0611 74687265 		.ascii	"threads_list_t\000"
 5243      6164735F 
 5243      6C697374 
 5243      5F7400
 5244              	.LASF111:
 5245 0620 63685363 		.ascii	"chSchGoSleepTimeoutS\000"
 5245      68476F53 
 5245      6C656570 
 5245      54696D65 
 5245      6F757453 
 5246              	.LASF100:
 5247 0635 63685379 		.ascii	"chSysUnlock\000"
ARM GAS  /tmp/ccdzvlYC.s 			page 98


 5247      73556E6C 
 5247      6F636B00 
 5248              	.LASF101:
 5249 0641 71756575 		.ascii	"queue_prio_insert\000"
 5249      655F7072 
 5249      696F5F69 
 5249      6E736572 
 5249      7400
 5250              	.LASF36:
 5251 0653 6D74786C 		.ascii	"mtxlist\000"
 5251      69737400 
 5252              		.ident	"GCC: (15:10.3-2021.07-4) 10.3.1 20210621 (release)"
ARM GAS  /tmp/ccdzvlYC.s 			page 99


DEFINED SYMBOLS
                            *ABS*:0000000000000000 chcond.c
     /tmp/ccdzvlYC.s:16     .text.chCondObjectInit:0000000000000000 $t
     /tmp/ccdzvlYC.s:25     .text.chCondObjectInit:0000000000000000 chCondObjectInit
     /tmp/ccdzvlYC.s:56     .text.chCondSignal:0000000000000000 $t
     /tmp/ccdzvlYC.s:64     .text.chCondSignal:0000000000000000 chCondSignal
     /tmp/ccdzvlYC.s:228    .text.chCondSignalI:0000000000000000 $t
     /tmp/ccdzvlYC.s:236    .text.chCondSignalI:0000000000000000 chCondSignalI
     /tmp/ccdzvlYC.s:309    .text.chCondBroadcast:0000000000000000 $t
     /tmp/ccdzvlYC.s:317    .text.chCondBroadcast:0000000000000000 chCondBroadcast
     /tmp/ccdzvlYC.s:507    .text.chCondBroadcastI:0000000000000000 $t
     /tmp/ccdzvlYC.s:515    .text.chCondBroadcastI:0000000000000000 chCondBroadcastI
     /tmp/ccdzvlYC.s:614    .text.chCondWaitS:0000000000000000 $t
     /tmp/ccdzvlYC.s:622    .text.chCondWaitS:0000000000000000 chCondWaitS
     /tmp/ccdzvlYC.s:751    .text.chCondWaitS:0000000000000040 $d
     /tmp/ccdzvlYC.s:756    .text.chCondWait:0000000000000000 $t
     /tmp/ccdzvlYC.s:764    .text.chCondWait:0000000000000000 chCondWait
     /tmp/ccdzvlYC.s:872    .text.chCondWaitTimeoutS:0000000000000000 $t
     /tmp/ccdzvlYC.s:880    .text.chCondWaitTimeoutS:0000000000000000 chCondWaitTimeoutS
     /tmp/ccdzvlYC.s:1038   .text.chCondWaitTimeoutS:000000000000004c $d
     /tmp/ccdzvlYC.s:1043   .text.chCondWaitTimeout:0000000000000000 $t
     /tmp/ccdzvlYC.s:1051   .text.chCondWaitTimeout:0000000000000000 chCondWaitTimeout

UNDEFINED SYMBOLS
chSchWakeupS
chSchReadyI
chSchRescheduleS
chMtxUnlockS
chSchGoSleepS
chMtxLockS
ch
chSchGoSleepTimeoutS
