ARM GAS  /tmp/ccGXnhJg.s 			page 1


   1              		.cpu cortex-m4
   2              		.eabi_attribute 20, 1
   3              		.eabi_attribute 21, 1
   4              		.eabi_attribute 23, 3
   5              		.eabi_attribute 24, 1
   6              		.eabi_attribute 25, 1
   7              		.eabi_attribute 26, 1
   8              		.eabi_attribute 30, 2
   9              		.eabi_attribute 34, 1
  10              		.eabi_attribute 18, 4
  11              		.file	"chdynamic.c"
  12              		.text
  13              	.Ltext0:
  14              		.cfi_sections	.debug_frame
  15              		.section	.text.chThdCreateFromHeap,"ax",%progbits
  16              		.align	1
  17              		.p2align 4,,15
  18              		.global	chThdCreateFromHeap
  19              		.arch armv7e-m
  20              		.syntax unified
  21              		.thumb
  22              		.thumb_func
  23              		.fpu softvfp
  24              		.type	chThdCreateFromHeap, %function
  25              	chThdCreateFromHeap:
  26              	.LVL0:
  27              	.LFB246:
  28              		.file 1 "../../../os/rt/src/chdynamic.c"
  29              		.loc 1 84 54 view -0
  30              		.cfi_startproc
  31              		@ args = 8, pretend = 0, frame = 24
  32              		@ frame_needed = 0, uses_anonymous_args = 0
  33              		.loc 1 85 3 view .LVU1
  34              		.loc 1 86 3 view .LVU2
  35              		.loc 1 88 3 view .LVU3
  36              		.loc 1 84 54 is_stmt 0 view .LVU4
  37 0000 F0B5     		push	{r4, r5, r6, r7, lr}
  38              		.cfi_def_cfa_offset 20
  39              		.cfi_offset 4, -20
  40              		.cfi_offset 5, -16
  41              		.cfi_offset 6, -12
  42              		.cfi_offset 7, -8
  43              		.cfi_offset 14, -4
  44 0002 1746     		mov	r7, r2
  45 0004 87B0     		sub	sp, sp, #28
  46              		.cfi_def_cfa_offset 48
  47              		.loc 1 88 9 view .LVU5
  48 0006 0822     		movs	r2, #8
  49              	.LVL1:
  50              		.loc 1 84 54 view .LVU6
  51 0008 0D46     		mov	r5, r1
  52 000a 1E46     		mov	r6, r3
  53              		.loc 1 88 9 view .LVU7
  54 000c FFF7FEFF 		bl	chHeapAllocAligned
  55              	.LVL2:
  56              		.loc 1 89 3 is_stmt 1 view .LVU8
  57              		.loc 1 89 6 is_stmt 0 view .LVU9
ARM GAS  /tmp/ccGXnhJg.s 			page 2


  58 0010 0446     		mov	r4, r0
  59 0012 C0B1     		cbz	r0, .L1
  60              		.loc 1 93 3 is_stmt 1 view .LVU10
  61              		.loc 1 93 23 is_stmt 0 view .LVU11
  62 0014 0C9B     		ldr	r3, [sp, #48]
  63 0016 0493     		str	r3, [sp, #16]
  64              		.loc 1 96 5 view .LVU12
  65 0018 0544     		add	r5, r5, r0
  66              	.LVL3:
  67              		.loc 1 93 23 view .LVU13
  68 001a 0D9B     		ldr	r3, [sp, #52]
  69 001c 0593     		str	r3, [sp, #20]
  70              		.loc 1 108 3 is_stmt 1 view .LVU14
  71              	.LBB34:
  72              	.LBI34:
  73              		.file 2 "../../../os/rt/include/chsys.h"
  74              		.loc 2 374 20 view .LVU15
  75              	.LBE34:
  76              		.loc 2 376 3 view .LVU16
  77              	.LBB42:
  78              	.LBB35:
  79              	.LBI35:
  80              		.file 3 "../../../os/common/ports/ARMCMx/chcore_v7m.h"
  81              		.loc 3 594 20 view .LVU17
  82              	.LBE35:
  83              	.LBE42:
  84              		.loc 3 602 3 view .LVU18
  85              	.LVL4:
  86              	.LBB43:
  87              	.LBB40:
  88              	.LBB36:
  89              	.LBI36:
  90              		.file 4 "../../../os/common/ext/CMSIS/include/cmsis_gcc.h"
  91              		.loc 4 262 57 view .LVU19
  92              	.LBB37:
  93              		.loc 4 264 3 view .LVU20
  94              	.LBE37:
  95              	.LBE36:
  96              	.LBE40:
  97              	.LBE43:
  98              		.loc 1 93 23 is_stmt 0 view .LVU21
  99 001e 0295     		str	r5, [sp, #8]
 100 0020 CDE90070 		strd	r7, r0, [sp]
 101 0024 0396     		str	r6, [sp, #12]
 102              	.LBB44:
 103              	.LBB41:
 104              	.LBB39:
 105              	.LBB38:
 106              		.loc 4 264 3 view .LVU22
 107 0026 2023     		movs	r3, #32
 108              		.syntax unified
 109              	@ 264 "../../../os/common/ext/CMSIS/include/cmsis_gcc.h" 1
 110 0028 83F31188 		MSR basepri, r3
 111              	@ 0 "" 2
 112              	.LVL5:
 113              		.loc 4 264 3 view .LVU23
 114              		.thumb
ARM GAS  /tmp/ccGXnhJg.s 			page 3


 115              		.syntax unified
 116              	.LBE38:
 117              	.LBE39:
 118              	.LBE41:
 119              	.LBE44:
 120              		.loc 2 377 34 is_stmt 1 view .LVU24
 121              		.loc 2 378 20 view .LVU25
 122              		.loc 1 109 3 view .LVU26
 123              		.loc 1 109 8 is_stmt 0 view .LVU27
 124 002c 6846     		mov	r0, sp
 125              	.LVL6:
 126              		.loc 1 109 8 view .LVU28
 127 002e FFF7FEFF 		bl	chThdCreateSuspendedI
 128              	.LVL7:
 129              		.loc 1 110 13 view .LVU29
 130 0032 0123     		movs	r3, #1
 131 0034 80F82130 		strb	r3, [r0, #33]
 132              		.loc 1 111 3 view .LVU30
 133 0038 0021     		movs	r1, #0
 134              		.loc 1 109 8 view .LVU31
 135 003a 0446     		mov	r4, r0
 136              	.LVL8:
 137              		.loc 1 110 3 is_stmt 1 view .LVU32
 138              		.loc 1 111 3 view .LVU33
 139 003c FFF7FEFF 		bl	chSchWakeupS
 140              	.LVL9:
 141              		.loc 1 112 3 view .LVU34
 142              	.LBB45:
 143              	.LBI45:
 144              		.loc 2 386 20 view .LVU35
 145              	.LBB46:
 146              		.loc 2 388 22 view .LVU36
 147              		.loc 2 389 33 view .LVU37
 148              		.loc 2 395 3 view .LVU38
 149              		.loc 2 395 3 view .LVU39
 150              		.loc 2 395 3 view .LVU40
 151              		.loc 2 399 3 view .LVU41
 152              	.LBB47:
 153              	.LBI47:
 154              		.loc 3 618 20 view .LVU42
 155              	.LBE47:
 156              	.LBE46:
 157              	.LBE45:
 158              		.loc 3 621 3 view .LVU43
 159              	.LBB52:
 160              	.LBB51:
 161              	.LBB50:
 162              	.LBB48:
 163              	.LBI48:
 164              		.loc 4 262 57 view .LVU44
 165              	.LBB49:
 166              		.loc 4 264 3 view .LVU45
 167 0040 0023     		movs	r3, #0
 168              		.syntax unified
 169              	@ 264 "../../../os/common/ext/CMSIS/include/cmsis_gcc.h" 1
 170 0042 83F31188 		MSR basepri, r3
 171              	@ 0 "" 2
ARM GAS  /tmp/ccGXnhJg.s 			page 4


 172              	.LVL10:
 173              		.loc 4 264 3 is_stmt 0 view .LVU46
 174              		.thumb
 175              		.syntax unified
 176              	.LBE49:
 177              	.LBE48:
 178              	.LBE50:
 179              	.LBE51:
 180              	.LBE52:
 181              		.loc 1 114 3 is_stmt 1 view .LVU47
 182              	.L1:
 183              		.loc 1 115 1 is_stmt 0 view .LVU48
 184 0046 2046     		mov	r0, r4
 185 0048 07B0     		add	sp, sp, #28
 186              		.cfi_def_cfa_offset 20
 187              		@ sp needed
 188 004a F0BD     		pop	{r4, r5, r6, r7, pc}
 189              		.loc 1 115 1 view .LVU49
 190              		.cfi_endproc
 191              	.LFE246:
 192              		.size	chThdCreateFromHeap, .-chThdCreateFromHeap
 193              		.section	.text.chThdCreateFromMemoryPool,"ax",%progbits
 194              		.align	1
 195              		.p2align 4,,15
 196              		.global	chThdCreateFromMemoryPool
 197              		.syntax unified
 198              		.thumb
 199              		.thumb_func
 200              		.fpu softvfp
 201              		.type	chThdCreateFromMemoryPool, %function
 202              	chThdCreateFromMemoryPool:
 203              	.LVL11:
 204              	.LFB247:
 205              		.loc 1 146 74 is_stmt 1 view -0
 206              		.cfi_startproc
 207              		@ args = 4, pretend = 0, frame = 24
 208              		@ frame_needed = 0, uses_anonymous_args = 0
 209              		.loc 1 147 3 view .LVU51
 210              		.loc 1 148 3 view .LVU52
 211              		.loc 1 150 3 view .LVU53
 212              		.loc 1 150 3 view .LVU54
 213              		.loc 1 150 3 view .LVU55
 214              		.loc 1 152 3 view .LVU56
 215              		.loc 1 146 74 is_stmt 0 view .LVU57
 216 0000 2DE9F041 		push	{r4, r5, r6, r7, r8, lr}
 217              		.cfi_def_cfa_offset 24
 218              		.cfi_offset 4, -24
 219              		.cfi_offset 5, -20
 220              		.cfi_offset 6, -16
 221              		.cfi_offset 7, -12
 222              		.cfi_offset 8, -8
 223              		.cfi_offset 14, -4
 224 0004 86B0     		sub	sp, sp, #24
 225              		.cfi_def_cfa_offset 48
 226              		.loc 1 146 74 view .LVU58
 227 0006 0546     		mov	r5, r0
 228 0008 0F46     		mov	r7, r1
ARM GAS  /tmp/ccGXnhJg.s 			page 5


 229 000a 9046     		mov	r8, r2
 230 000c 1E46     		mov	r6, r3
 231              		.loc 1 152 9 view .LVU59
 232 000e FFF7FEFF 		bl	chPoolAlloc
 233              	.LVL12:
 234              		.loc 1 153 3 is_stmt 1 view .LVU60
 235              		.loc 1 153 6 is_stmt 0 view .LVU61
 236 0012 0446     		mov	r4, r0
 237 0014 C8B1     		cbz	r0, .L8
 238              		.loc 1 157 3 is_stmt 1 view .LVU62
 239              		.loc 1 160 5 is_stmt 0 view .LVU63
 240 0016 6868     		ldr	r0, [r5, #4]
 241              	.LVL13:
 242              		.loc 1 157 23 view .LVU64
 243 0018 0C9B     		ldr	r3, [sp, #48]
 244 001a 0194     		str	r4, [sp, #4]
 245              		.loc 1 160 5 view .LVU65
 246 001c 0444     		add	r4, r4, r0
 247              	.LVL14:
 248              		.loc 1 157 23 view .LVU66
 249 001e 0593     		str	r3, [sp, #20]
 250              		.loc 1 172 3 is_stmt 1 view .LVU67
 251              	.LBB53:
 252              	.LBI53:
 253              		.loc 2 374 20 view .LVU68
 254              	.LBE53:
 255              		.loc 2 376 3 view .LVU69
 256              	.LBB61:
 257              	.LBB54:
 258              	.LBI54:
 259              		.loc 3 594 20 view .LVU70
 260              	.LBE54:
 261              	.LBE61:
 262              		.loc 3 602 3 view .LVU71
 263              	.LVL15:
 264              	.LBB62:
 265              	.LBB59:
 266              	.LBB55:
 267              	.LBI55:
 268              		.loc 4 262 57 view .LVU72
 269              	.LBB56:
 270              		.loc 4 264 3 view .LVU73
 271              	.LBE56:
 272              	.LBE55:
 273              	.LBE59:
 274              	.LBE62:
 275              		.loc 1 157 23 is_stmt 0 view .LVU74
 276 0020 0097     		str	r7, [sp]
 277 0022 CDE90248 		strd	r4, r8, [sp, #8]
 278 0026 0496     		str	r6, [sp, #16]
 279              	.LBB63:
 280              	.LBB60:
 281              	.LBB58:
 282              	.LBB57:
 283              		.loc 4 264 3 view .LVU75
 284 0028 2023     		movs	r3, #32
 285              		.syntax unified
ARM GAS  /tmp/ccGXnhJg.s 			page 6


 286              	@ 264 "../../../os/common/ext/CMSIS/include/cmsis_gcc.h" 1
 287 002a 83F31188 		MSR basepri, r3
 288              	@ 0 "" 2
 289              	.LVL16:
 290              		.loc 4 264 3 view .LVU76
 291              		.thumb
 292              		.syntax unified
 293              	.LBE57:
 294              	.LBE58:
 295              	.LBE60:
 296              	.LBE63:
 297              		.loc 2 377 34 is_stmt 1 view .LVU77
 298              		.loc 2 378 20 view .LVU78
 299              		.loc 1 173 3 view .LVU79
 300              		.loc 1 173 8 is_stmt 0 view .LVU80
 301 002e 6846     		mov	r0, sp
 302 0030 FFF7FEFF 		bl	chThdCreateSuspendedI
 303              	.LVL17:
 304              		.loc 1 174 13 view .LVU81
 305 0034 0223     		movs	r3, #2
 306 0036 80F82130 		strb	r3, [r0, #33]
 307              		.loc 1 175 13 view .LVU82
 308 003a 0564     		str	r5, [r0, #64]
 309              		.loc 1 176 3 view .LVU83
 310 003c 0021     		movs	r1, #0
 311              		.loc 1 173 8 view .LVU84
 312 003e 0446     		mov	r4, r0
 313              	.LVL18:
 314              		.loc 1 174 3 is_stmt 1 view .LVU85
 315              		.loc 1 175 3 view .LVU86
 316              		.loc 1 176 3 view .LVU87
 317 0040 FFF7FEFF 		bl	chSchWakeupS
 318              	.LVL19:
 319              		.loc 1 177 3 view .LVU88
 320              	.LBB64:
 321              	.LBI64:
 322              		.loc 2 386 20 view .LVU89
 323              	.LBB65:
 324              		.loc 2 388 22 view .LVU90
 325              		.loc 2 389 33 view .LVU91
 326              		.loc 2 395 3 view .LVU92
 327              		.loc 2 395 3 view .LVU93
 328              		.loc 2 395 3 view .LVU94
 329              		.loc 2 399 3 view .LVU95
 330              	.LBB66:
 331              	.LBI66:
 332              		.loc 3 618 20 view .LVU96
 333              	.LBE66:
 334              	.LBE65:
 335              	.LBE64:
 336              		.loc 3 621 3 view .LVU97
 337              	.LBB71:
 338              	.LBB70:
 339              	.LBB69:
 340              	.LBB67:
 341              	.LBI67:
 342              		.loc 4 262 57 view .LVU98
ARM GAS  /tmp/ccGXnhJg.s 			page 7


 343              	.LBB68:
 344              		.loc 4 264 3 view .LVU99
 345 0044 0023     		movs	r3, #0
 346              		.syntax unified
 347              	@ 264 "../../../os/common/ext/CMSIS/include/cmsis_gcc.h" 1
 348 0046 83F31188 		MSR basepri, r3
 349              	@ 0 "" 2
 350              	.LVL20:
 351              		.loc 4 264 3 is_stmt 0 view .LVU100
 352              		.thumb
 353              		.syntax unified
 354              	.LBE68:
 355              	.LBE67:
 356              	.LBE69:
 357              	.LBE70:
 358              	.LBE71:
 359              		.loc 1 179 3 is_stmt 1 view .LVU101
 360              	.L8:
 361              		.loc 1 180 1 is_stmt 0 view .LVU102
 362 004a 2046     		mov	r0, r4
 363 004c 06B0     		add	sp, sp, #24
 364              		.cfi_def_cfa_offset 24
 365              		@ sp needed
 366 004e BDE8F081 		pop	{r4, r5, r6, r7, r8, pc}
 367              		.loc 1 180 1 view .LVU103
 368              		.cfi_endproc
 369              	.LFE247:
 370              		.size	chThdCreateFromMemoryPool, .-chThdCreateFromMemoryPool
 371 0052 00BF     		.text
 372              	.Letext0:
 373              		.file 5 "/usr/lib/gcc/arm-none-eabi/10.3.1/include/stddef.h"
 374              		.file 6 "/usr/lib/gcc/arm-none-eabi/10.3.1/include/stdint.h"
 375              		.file 7 "../../../os/common/ports/ARMCMx/compilers/GCC/chtypes.h"
 376              		.file 8 "../../../os/rt/include/chsystypes.h"
 377              		.file 9 "../../../os/rt/include/chschd.h"
 378              		.file 10 "../../../os/common/ports/ARMCMx/chcore.h"
 379              		.file 11 "../../../os/rt/include/chsem.h"
 380              		.file 12 "../../../os/rt/include/chmtx.h"
 381              		.file 13 "../../../os/rt/include/chthreads.h"
 382              		.file 14 "../../../os/common/oslib/include/chmemcore.h"
 383              		.file 15 "../../../os/common/oslib/include/chheap.h"
 384              		.file 16 "../../../os/common/oslib/include/chmempools.h"
 385              		.section	.debug_info,"",%progbits
 386              	.Ldebug_info0:
 387 0000 F0090000 		.4byte	0x9f0
 388 0004 0400     		.2byte	0x4
 389 0006 00000000 		.4byte	.Ldebug_abbrev0
 390 000a 04       		.byte	0x4
 391 000b 01       		.uleb128 0x1
 392 000c D1020000 		.4byte	.LASF97
 393 0010 0C       		.byte	0xc
 394 0011 22010000 		.4byte	.LASF98
 395 0015 81010000 		.4byte	.LASF99
 396 0019 80000000 		.4byte	.Ldebug_ranges0+0x80
 397 001d 00000000 		.4byte	0
 398 0021 00000000 		.4byte	.Ldebug_line0
 399 0025 02       		.uleb128 0x2
ARM GAS  /tmp/ccGXnhJg.s 			page 8


 400 0026 04       		.byte	0x4
 401 0027 05       		.byte	0x5
 402 0028 696E7400 		.ascii	"int\000"
 403 002c 03       		.uleb128 0x3
 404 002d 36000000 		.4byte	.LASF5
 405 0031 05       		.byte	0x5
 406 0032 D1       		.byte	0xd1
 407 0033 17       		.byte	0x17
 408 0034 38000000 		.4byte	0x38
 409 0038 04       		.uleb128 0x4
 410 0039 04       		.byte	0x4
 411 003a 07       		.byte	0x7
 412 003b 81020000 		.4byte	.LASF0
 413 003f 04       		.uleb128 0x4
 414 0040 08       		.byte	0x8
 415 0041 05       		.byte	0x5
 416 0042 55010000 		.4byte	.LASF1
 417 0046 04       		.uleb128 0x4
 418 0047 08       		.byte	0x8
 419 0048 04       		.byte	0x4
 420 0049 41010000 		.4byte	.LASF2
 421 004d 04       		.uleb128 0x4
 422 004e 01       		.byte	0x1
 423 004f 06       		.byte	0x6
 424 0050 59020000 		.4byte	.LASF3
 425 0054 04       		.uleb128 0x4
 426 0055 02       		.byte	0x2
 427 0056 05       		.byte	0x5
 428 0057 A3000000 		.4byte	.LASF4
 429 005b 03       		.uleb128 0x3
 430 005c B2030000 		.4byte	.LASF6
 431 0060 06       		.byte	0x6
 432 0061 28       		.byte	0x28
 433 0062 18       		.byte	0x18
 434 0063 67000000 		.4byte	0x67
 435 0067 04       		.uleb128 0x4
 436 0068 04       		.byte	0x4
 437 0069 05       		.byte	0x5
 438 006a 78010000 		.4byte	.LASF7
 439 006e 03       		.uleb128 0x3
 440 006f D9000000 		.4byte	.LASF8
 441 0073 06       		.byte	0x6
 442 0074 2E       		.byte	0x2e
 443 0075 18       		.byte	0x18
 444 0076 7A000000 		.4byte	0x7a
 445 007a 04       		.uleb128 0x4
 446 007b 01       		.byte	0x1
 447 007c 08       		.byte	0x8
 448 007d 26020000 		.4byte	.LASF9
 449 0081 04       		.uleb128 0x4
 450 0082 02       		.byte	0x2
 451 0083 07       		.byte	0x7
 452 0084 B9020000 		.4byte	.LASF10
 453 0088 03       		.uleb128 0x3
 454 0089 09000000 		.4byte	.LASF11
 455 008d 06       		.byte	0x6
 456 008e 34       		.byte	0x34
ARM GAS  /tmp/ccGXnhJg.s 			page 9


 457 008f 19       		.byte	0x19
 458 0090 94000000 		.4byte	0x94
 459 0094 04       		.uleb128 0x4
 460 0095 04       		.byte	0x4
 461 0096 07       		.byte	0x7
 462 0097 0B040000 		.4byte	.LASF12
 463 009b 03       		.uleb128 0x3
 464 009c 28000000 		.4byte	.LASF13
 465 00a0 06       		.byte	0x6
 466 00a1 37       		.byte	0x37
 467 00a2 19       		.byte	0x19
 468 00a3 A7000000 		.4byte	0xa7
 469 00a7 04       		.uleb128 0x4
 470 00a8 08       		.byte	0x8
 471 00a9 07       		.byte	0x7
 472 00aa 4B000000 		.4byte	.LASF14
 473 00ae 03       		.uleb128 0x3
 474 00af 4D010000 		.4byte	.LASF15
 475 00b3 07       		.byte	0x7
 476 00b4 3C       		.byte	0x3c
 477 00b5 1D       		.byte	0x1d
 478 00b6 6E000000 		.4byte	0x6e
 479 00ba 03       		.uleb128 0x3
 480 00bb 83040000 		.4byte	.LASF16
 481 00bf 07       		.byte	0x7
 482 00c0 3D       		.byte	0x3d
 483 00c1 1D       		.byte	0x1d
 484 00c2 6E000000 		.4byte	0x6e
 485 00c6 03       		.uleb128 0x3
 486 00c7 00050000 		.4byte	.LASF17
 487 00cb 07       		.byte	0x7
 488 00cc 3E       		.byte	0x3e
 489 00cd 1D       		.byte	0x1d
 490 00ce 6E000000 		.4byte	0x6e
 491 00d2 03       		.uleb128 0x3
 492 00d3 6A010000 		.4byte	.LASF18
 493 00d7 07       		.byte	0x7
 494 00d8 40       		.byte	0x40
 495 00d9 1D       		.byte	0x1d
 496 00da 88000000 		.4byte	0x88
 497 00de 03       		.uleb128 0x3
 498 00df E0040000 		.4byte	.LASF19
 499 00e3 07       		.byte	0x7
 500 00e4 41       		.byte	0x41
 501 00e5 1D       		.byte	0x1d
 502 00e6 5B000000 		.4byte	0x5b
 503 00ea 03       		.uleb128 0x3
 504 00eb 76000000 		.4byte	.LASF20
 505 00ef 07       		.byte	0x7
 506 00f0 43       		.byte	0x43
 507 00f1 1D       		.byte	0x1d
 508 00f2 88000000 		.4byte	0x88
 509 00f6 03       		.uleb128 0x3
 510 00f7 C6030000 		.4byte	.LASF21
 511 00fb 07       		.byte	0x7
 512 00fc 45       		.byte	0x45
 513 00fd 1D       		.byte	0x1d
ARM GAS  /tmp/ccGXnhJg.s 			page 10


 514 00fe 5B000000 		.4byte	0x5b
 515 0102 03       		.uleb128 0x3
 516 0103 00000000 		.4byte	.LASF22
 517 0107 08       		.byte	0x8
 518 0108 3F       		.byte	0x3f
 519 0109 1A       		.byte	0x1a
 520 010a 0E010000 		.4byte	0x10e
 521 010e 05       		.uleb128 0x5
 522 010f 0B010000 		.4byte	.LASF40
 523 0113 44       		.byte	0x44
 524 0114 09       		.byte	0x9
 525 0115 9A       		.byte	0x9a
 526 0116 08       		.byte	0x8
 527 0117 FE010000 		.4byte	0x1fe
 528 011b 06       		.uleb128 0x6
 529 011c 05020000 		.4byte	.LASF23
 530 0120 09       		.byte	0x9
 531 0121 9B       		.byte	0x9b
 532 0122 19       		.byte	0x19
 533 0123 37020000 		.4byte	0x237
 534 0127 00       		.byte	0
 535 0128 06       		.uleb128 0x6
 536 0129 E6040000 		.4byte	.LASF24
 537 012d 09       		.byte	0x9
 538 012e 9C       		.byte	0x9c
 539 012f 19       		.byte	0x19
 540 0130 D2000000 		.4byte	0xd2
 541 0134 08       		.byte	0x8
 542 0135 07       		.uleb128 0x7
 543 0136 63747800 		.ascii	"ctx\000"
 544 013a 09       		.byte	0x9
 545 013b 9D       		.byte	0x9d
 546 013c 19       		.byte	0x19
 547 013d 96020000 		.4byte	0x296
 548 0141 0C       		.byte	0xc
 549 0142 06       		.uleb128 0x6
 550 0143 FF010000 		.4byte	.LASF25
 551 0147 09       		.byte	0x9
 552 0148 9F       		.byte	0x9f
 553 0149 1A       		.byte	0x1a
 554 014a 0A020000 		.4byte	0x20a
 555 014e 10       		.byte	0x10
 556 014f 06       		.uleb128 0x6
 557 0150 15010000 		.4byte	.LASF26
 558 0154 09       		.byte	0x9
 559 0155 A0       		.byte	0xa0
 560 0156 1A       		.byte	0x1a
 561 0157 0A020000 		.4byte	0x20a
 562 015b 14       		.byte	0x14
 563 015c 06       		.uleb128 0x6
 564 015d 0B020000 		.4byte	.LASF27
 565 0161 09       		.byte	0x9
 566 0162 A7       		.byte	0xa7
 567 0163 1A       		.byte	0x1a
 568 0164 17040000 		.4byte	0x417
 569 0168 18       		.byte	0x18
 570 0169 06       		.uleb128 0x6
ARM GAS  /tmp/ccGXnhJg.s 			page 11


 571 016a 1B010000 		.4byte	.LASF28
 572 016e 09       		.byte	0x9
 573 016f B0       		.byte	0xb0
 574 0170 1A       		.byte	0x1a
 575 0171 29040000 		.4byte	0x429
 576 0175 1C       		.byte	0x1c
 577 0176 06       		.uleb128 0x6
 578 0177 22000000 		.4byte	.LASF29
 579 017b 09       		.byte	0x9
 580 017c B5       		.byte	0xb5
 581 017d 19       		.byte	0x19
 582 017e BA000000 		.4byte	0xba
 583 0182 20       		.byte	0x20
 584 0183 06       		.uleb128 0x6
 585 0184 65020000 		.4byte	.LASF30
 586 0188 09       		.byte	0x9
 587 0189 B9       		.byte	0xb9
 588 018a 19       		.byte	0x19
 589 018b AE000000 		.4byte	0xae
 590 018f 21       		.byte	0x21
 591 0190 06       		.uleb128 0x6
 592 0191 06040000 		.4byte	.LASF31
 593 0195 09       		.byte	0x9
 594 0196 BE       		.byte	0xbe
 595 0197 19       		.byte	0x19
 596 0198 C6000000 		.4byte	0xc6
 597 019c 22       		.byte	0x22
 598 019d 08       		.uleb128 0x8
 599 019e 7500     		.ascii	"u\000"
 600 01a0 09       		.byte	0x9
 601 01a1 0F01     		.2byte	0x10f
 602 01a3 19       		.byte	0x19
 603 01a4 3C030000 		.4byte	0x33c
 604 01a8 24       		.byte	0x24
 605 01a9 09       		.uleb128 0x9
 606 01aa BE040000 		.4byte	.LASF32
 607 01ae 09       		.byte	0x9
 608 01af 1401     		.2byte	0x114
 609 01b1 19       		.byte	0x19
 610 01b2 10020000 		.4byte	0x210
 611 01b6 28       		.byte	0x28
 612 01b7 09       		.uleb128 0x9
 613 01b8 B3000000 		.4byte	.LASF33
 614 01bc 09       		.byte	0x9
 615 01bd 1A01     		.2byte	0x11a
 616 01bf 19       		.byte	0x19
 617 01c0 37020000 		.4byte	0x237
 618 01c4 2C       		.byte	0x2c
 619 01c5 09       		.uleb128 0x9
 620 01c6 19000000 		.4byte	.LASF34
 621 01ca 09       		.byte	0x9
 622 01cb 2001     		.2byte	0x120
 623 01cd 19       		.byte	0x19
 624 01ce EA000000 		.4byte	0xea
 625 01d2 34       		.byte	0x34
 626 01d3 09       		.uleb128 0x9
 627 01d4 C6040000 		.4byte	.LASF35
ARM GAS  /tmp/ccGXnhJg.s 			page 12


 628 01d8 09       		.byte	0x9
 629 01d9 2701     		.2byte	0x127
 630 01db 1A       		.byte	0x1a
 631 01dc 11040000 		.4byte	0x411
 632 01e0 38       		.byte	0x38
 633 01e1 09       		.uleb128 0x9
 634 01e2 CC030000 		.4byte	.LASF36
 635 01e6 09       		.byte	0x9
 636 01e7 2B01     		.2byte	0x12b
 637 01e9 19       		.byte	0x19
 638 01ea D2000000 		.4byte	0xd2
 639 01ee 3C       		.byte	0x3c
 640 01ef 09       		.uleb128 0x9
 641 01f0 A0040000 		.4byte	.LASF37
 642 01f4 09       		.byte	0x9
 643 01f5 3201     		.2byte	0x132
 644 01f7 1A       		.byte	0x1a
 645 01f8 7C020000 		.4byte	0x27c
 646 01fc 40       		.byte	0x40
 647 01fd 00       		.byte	0
 648 01fe 03       		.uleb128 0x3
 649 01ff 69040000 		.4byte	.LASF38
 650 0203 08       		.byte	0x8
 651 0204 44       		.byte	0x44
 652 0205 14       		.byte	0x14
 653 0206 0A020000 		.4byte	0x20a
 654 020a 0A       		.uleb128 0xa
 655 020b 04       		.byte	0x4
 656 020c 02010000 		.4byte	0x102
 657 0210 03       		.uleb128 0x3
 658 0211 43020000 		.4byte	.LASF39
 659 0215 08       		.byte	0x8
 660 0216 49       		.byte	0x49
 661 0217 20       		.byte	0x20
 662 0218 1C020000 		.4byte	0x21c
 663 021c 05       		.uleb128 0x5
 664 021d 93000000 		.4byte	.LASF41
 665 0221 04       		.byte	0x4
 666 0222 09       		.byte	0x9
 667 0223 88       		.byte	0x88
 668 0224 08       		.byte	0x8
 669 0225 37020000 		.4byte	0x237
 670 0229 06       		.uleb128 0x6
 671 022a CC020000 		.4byte	.LASF42
 672 022e 09       		.byte	0x9
 673 022f 89       		.byte	0x89
 674 0230 1A       		.byte	0x1a
 675 0231 0A020000 		.4byte	0x20a
 676 0235 00       		.byte	0
 677 0236 00       		.byte	0
 678 0237 03       		.uleb128 0x3
 679 0238 A9020000 		.4byte	.LASF43
 680 023c 08       		.byte	0x8
 681 023d 50       		.byte	0x50
 682 023e 21       		.byte	0x21
 683 023f 43020000 		.4byte	0x243
 684 0243 05       		.uleb128 0x5
ARM GAS  /tmp/ccGXnhJg.s 			page 13


 685 0244 E1000000 		.4byte	.LASF44
 686 0248 08       		.byte	0x8
 687 0249 09       		.byte	0x9
 688 024a 8F       		.byte	0x8f
 689 024b 08       		.byte	0x8
 690 024c 6B020000 		.4byte	0x26b
 691 0250 06       		.uleb128 0x6
 692 0251 CC020000 		.4byte	.LASF42
 693 0255 09       		.byte	0x9
 694 0256 90       		.byte	0x90
 695 0257 1A       		.byte	0x1a
 696 0258 0A020000 		.4byte	0x20a
 697 025c 00       		.byte	0
 698 025d 06       		.uleb128 0x6
 699 025e F2000000 		.4byte	.LASF45
 700 0262 09       		.byte	0x9
 701 0263 91       		.byte	0x91
 702 0264 1A       		.byte	0x1a
 703 0265 0A020000 		.4byte	0x20a
 704 0269 04       		.byte	0x4
 705 026a 00       		.byte	0
 706 026b 0A       		.uleb128 0xa
 707 026c 04       		.byte	0x4
 708 026d 71020000 		.4byte	0x271
 709 0271 0B       		.uleb128 0xb
 710 0272 7C020000 		.4byte	0x27c
 711 0276 0C       		.uleb128 0xc
 712 0277 7C020000 		.4byte	0x27c
 713 027b 00       		.byte	0
 714 027c 0D       		.uleb128 0xd
 715 027d 04       		.byte	0x4
 716 027e 03       		.uleb128 0x3
 717 027f BC000000 		.4byte	.LASF46
 718 0283 0A       		.byte	0xa
 719 0284 65       		.byte	0x65
 720 0285 0F       		.byte	0xf
 721 0286 7C020000 		.4byte	0x27c
 722 028a 03       		.uleb128 0x3
 723 028b 8C040000 		.4byte	.LASF47
 724 028f 0A       		.byte	0xa
 725 0290 6D       		.byte	0x6d
 726 0291 12       		.byte	0x12
 727 0292 9B000000 		.4byte	0x9b
 728 0296 05       		.uleb128 0x5
 729 0297 C4010000 		.4byte	.LASF48
 730 029b 04       		.byte	0x4
 731 029c 0A       		.byte	0xa
 732 029d 89       		.byte	0x89
 733 029e 08       		.byte	0x8
 734 029f B0020000 		.4byte	0x2b0
 735 02a3 07       		.uleb128 0x7
 736 02a4 737000   		.ascii	"sp\000"
 737 02a7 0A       		.byte	0xa
 738 02a8 8A       		.byte	0x8a
 739 02a9 17       		.byte	0x17
 740 02aa 36030000 		.4byte	0x336
 741 02ae 00       		.byte	0
ARM GAS  /tmp/ccGXnhJg.s 			page 14


 742 02af 00       		.byte	0
 743 02b0 0E       		.uleb128 0xe
 744 02b1 57040000 		.4byte	.LASF49
 745 02b5 24       		.byte	0x24
 746 02b6 03       		.byte	0x3
 747 02b7 5901     		.2byte	0x159
 748 02b9 08       		.byte	0x8
 749 02ba 36030000 		.4byte	0x336
 750 02be 08       		.uleb128 0x8
 751 02bf 723400   		.ascii	"r4\000"
 752 02c2 03       		.byte	0x3
 753 02c3 6C01     		.2byte	0x16c
 754 02c5 11       		.byte	0x11
 755 02c6 7E020000 		.4byte	0x27e
 756 02ca 00       		.byte	0
 757 02cb 08       		.uleb128 0x8
 758 02cc 723500   		.ascii	"r5\000"
 759 02cf 03       		.byte	0x3
 760 02d0 6D01     		.2byte	0x16d
 761 02d2 11       		.byte	0x11
 762 02d3 7E020000 		.4byte	0x27e
 763 02d7 04       		.byte	0x4
 764 02d8 08       		.uleb128 0x8
 765 02d9 723600   		.ascii	"r6\000"
 766 02dc 03       		.byte	0x3
 767 02dd 6E01     		.2byte	0x16e
 768 02df 11       		.byte	0x11
 769 02e0 7E020000 		.4byte	0x27e
 770 02e4 08       		.byte	0x8
 771 02e5 08       		.uleb128 0x8
 772 02e6 723700   		.ascii	"r7\000"
 773 02e9 03       		.byte	0x3
 774 02ea 6F01     		.2byte	0x16f
 775 02ec 11       		.byte	0x11
 776 02ed 7E020000 		.4byte	0x27e
 777 02f1 0C       		.byte	0xc
 778 02f2 08       		.uleb128 0x8
 779 02f3 723800   		.ascii	"r8\000"
 780 02f6 03       		.byte	0x3
 781 02f7 7001     		.2byte	0x170
 782 02f9 11       		.byte	0x11
 783 02fa 7E020000 		.4byte	0x27e
 784 02fe 10       		.byte	0x10
 785 02ff 08       		.uleb128 0x8
 786 0300 723900   		.ascii	"r9\000"
 787 0303 03       		.byte	0x3
 788 0304 7101     		.2byte	0x171
 789 0306 11       		.byte	0x11
 790 0307 7E020000 		.4byte	0x27e
 791 030b 14       		.byte	0x14
 792 030c 08       		.uleb128 0x8
 793 030d 72313000 		.ascii	"r10\000"
 794 0311 03       		.byte	0x3
 795 0312 7201     		.2byte	0x172
 796 0314 11       		.byte	0x11
 797 0315 7E020000 		.4byte	0x27e
 798 0319 18       		.byte	0x18
ARM GAS  /tmp/ccGXnhJg.s 			page 15


 799 031a 08       		.uleb128 0x8
 800 031b 72313100 		.ascii	"r11\000"
 801 031f 03       		.byte	0x3
 802 0320 7301     		.2byte	0x173
 803 0322 11       		.byte	0x11
 804 0323 7E020000 		.4byte	0x27e
 805 0327 1C       		.byte	0x1c
 806 0328 08       		.uleb128 0x8
 807 0329 6C7200   		.ascii	"lr\000"
 808 032c 03       		.byte	0x3
 809 032d 7401     		.2byte	0x174
 810 032f 11       		.byte	0x11
 811 0330 7E020000 		.4byte	0x27e
 812 0334 20       		.byte	0x20
 813 0335 00       		.byte	0
 814 0336 0A       		.uleb128 0xa
 815 0337 04       		.byte	0x4
 816 0338 B0020000 		.4byte	0x2b0
 817 033c 0F       		.uleb128 0xf
 818 033d 04       		.byte	0x4
 819 033e 09       		.byte	0x9
 820 033f D2       		.byte	0xd2
 821 0340 03       		.byte	0x3
 822 0341 A8030000 		.4byte	0x3a8
 823 0345 10       		.uleb128 0x10
 824 0346 D9040000 		.4byte	.LASF50
 825 034a 09       		.byte	0x9
 826 034b D9       		.byte	0xd9
 827 034c 19       		.byte	0x19
 828 034d DE000000 		.4byte	0xde
 829 0351 10       		.uleb128 0x10
 830 0352 97040000 		.4byte	.LASF51
 831 0356 09       		.byte	0x9
 832 0357 E0       		.byte	0xe0
 833 0358 19       		.byte	0x19
 834 0359 DE000000 		.4byte	0xde
 835 035d 10       		.uleb128 0x10
 836 035e 7C040000 		.4byte	.LASF52
 837 0362 09       		.byte	0x9
 838 0363 E7       		.byte	0xe7
 839 0364 1A       		.byte	0x1a
 840 0365 7C020000 		.4byte	0x27c
 841 0369 10       		.uleb128 0x10
 842 036a F3040000 		.4byte	.LASF53
 843 036e 09       		.byte	0x9
 844 036f EE       		.byte	0xee
 845 0370 1A       		.byte	0x1a
 846 0371 A8030000 		.4byte	0x3a8
 847 0375 10       		.uleb128 0x10
 848 0376 EB040000 		.4byte	.LASF54
 849 037a 09       		.byte	0x9
 850 037b F3       		.byte	0xf3
 851 037c 19       		.byte	0x19
 852 037d DE000000 		.4byte	0xde
 853 0381 10       		.uleb128 0x10
 854 0382 63010000 		.4byte	.LASF55
 855 0386 09       		.byte	0x9
ARM GAS  /tmp/ccGXnhJg.s 			page 16


 856 0387 FC       		.byte	0xfc
 857 0388 1A       		.byte	0x1a
 858 0389 D6030000 		.4byte	0x3d6
 859 038d 11       		.uleb128 0x11
 860 038e F9040000 		.4byte	.LASF56
 861 0392 09       		.byte	0x9
 862 0393 0501     		.2byte	0x105
 863 0395 1A       		.byte	0x1a
 864 0396 11040000 		.4byte	0x411
 865 039a 11       		.uleb128 0x11
 866 039b 52020000 		.4byte	.LASF57
 867 039f 09       		.byte	0x9
 868 03a0 0D01     		.2byte	0x10d
 869 03a2 19       		.byte	0x19
 870 03a3 EA000000 		.4byte	0xea
 871 03a7 00       		.byte	0
 872 03a8 0A       		.uleb128 0xa
 873 03a9 04       		.byte	0x4
 874 03aa FE010000 		.4byte	0x1fe
 875 03ae 05       		.uleb128 0x5
 876 03af 4A040000 		.4byte	.LASF58
 877 03b3 0C       		.byte	0xc
 878 03b4 0B       		.byte	0xb
 879 03b5 34       		.byte	0x34
 880 03b6 10       		.byte	0x10
 881 03b7 D6030000 		.4byte	0x3d6
 882 03bb 06       		.uleb128 0x6
 883 03bc 05020000 		.4byte	.LASF23
 884 03c0 0B       		.byte	0xb
 885 03c1 35       		.byte	0x35
 886 03c2 19       		.byte	0x19
 887 03c3 37020000 		.4byte	0x237
 888 03c7 00       		.byte	0
 889 03c8 07       		.uleb128 0x7
 890 03c9 636E7400 		.ascii	"cnt\000"
 891 03cd 0B       		.byte	0xb
 892 03ce 37       		.byte	0x37
 893 03cf 19       		.byte	0x19
 894 03d0 F6000000 		.4byte	0xf6
 895 03d4 08       		.byte	0x8
 896 03d5 00       		.byte	0
 897 03d6 0A       		.uleb128 0xa
 898 03d7 04       		.byte	0x4
 899 03d8 AE030000 		.4byte	0x3ae
 900 03dc 05       		.uleb128 0x5
 901 03dd F7000000 		.4byte	.LASF59
 902 03e1 10       		.byte	0x10
 903 03e2 0C       		.byte	0xc
 904 03e3 39       		.byte	0x39
 905 03e4 08       		.byte	0x8
 906 03e5 11040000 		.4byte	0x411
 907 03e9 06       		.uleb128 0x6
 908 03ea 05020000 		.4byte	.LASF23
 909 03ee 0C       		.byte	0xc
 910 03ef 3A       		.byte	0x3a
 911 03f0 19       		.byte	0x19
 912 03f1 37020000 		.4byte	0x237
ARM GAS  /tmp/ccGXnhJg.s 			page 17


 913 03f5 00       		.byte	0
 914 03f6 06       		.uleb128 0x6
 915 03f7 3D020000 		.4byte	.LASF60
 916 03fb 0C       		.byte	0xc
 917 03fc 3C       		.byte	0x3c
 918 03fd 1A       		.byte	0x1a
 919 03fe 0A020000 		.4byte	0x20a
 920 0402 08       		.byte	0x8
 921 0403 06       		.uleb128 0x6
 922 0404 CC020000 		.4byte	.LASF42
 923 0408 0C       		.byte	0xc
 924 0409 3E       		.byte	0x3e
 925 040a 1A       		.byte	0x1a
 926 040b AB040000 		.4byte	0x4ab
 927 040f 0C       		.byte	0xc
 928 0410 00       		.byte	0
 929 0411 0A       		.uleb128 0xa
 930 0412 04       		.byte	0x4
 931 0413 DC030000 		.4byte	0x3dc
 932 0417 0A       		.uleb128 0xa
 933 0418 04       		.byte	0x4
 934 0419 24040000 		.4byte	0x424
 935 041d 04       		.uleb128 0x4
 936 041e 01       		.byte	0x1
 937 041f 08       		.byte	0x8
 938 0420 A5030000 		.4byte	.LASF61
 939 0424 12       		.uleb128 0x12
 940 0425 1D040000 		.4byte	0x41d
 941 0429 0A       		.uleb128 0xa
 942 042a 04       		.byte	0x4
 943 042b 8A020000 		.4byte	0x28a
 944 042f 03       		.uleb128 0x3
 945 0430 AA030000 		.4byte	.LASF62
 946 0434 0D       		.byte	0xd
 947 0435 40       		.byte	0x40
 948 0436 10       		.byte	0x10
 949 0437 6B020000 		.4byte	0x26b
 950 043b 13       		.uleb128 0x13
 951 043c 18       		.byte	0x18
 952 043d 0D       		.byte	0xd
 953 043e 45       		.byte	0x45
 954 043f 09       		.byte	0x9
 955 0440 93040000 		.4byte	0x493
 956 0444 06       		.uleb128 0x6
 957 0445 0B020000 		.4byte	.LASF27
 958 0449 0D       		.byte	0xd
 959 044a 49       		.byte	0x49
 960 044b 16       		.byte	0x16
 961 044c 17040000 		.4byte	0x417
 962 0450 00       		.byte	0
 963 0451 06       		.uleb128 0x6
 964 0452 8E020000 		.4byte	.LASF63
 965 0456 0D       		.byte	0xd
 966 0457 4D       		.byte	0x4d
 967 0458 16       		.byte	0x16
 968 0459 29040000 		.4byte	0x429
 969 045d 04       		.byte	0x4
ARM GAS  /tmp/ccGXnhJg.s 			page 18


 970 045e 06       		.uleb128 0x6
 971 045f 31000000 		.4byte	.LASF64
 972 0463 0D       		.byte	0xd
 973 0464 51       		.byte	0x51
 974 0465 16       		.byte	0x16
 975 0466 29040000 		.4byte	0x429
 976 046a 08       		.byte	0x8
 977 046b 06       		.uleb128 0x6
 978 046c E6040000 		.4byte	.LASF24
 979 0470 0D       		.byte	0xd
 980 0471 55       		.byte	0x55
 981 0472 15       		.byte	0x15
 982 0473 D2000000 		.4byte	0xd2
 983 0477 0C       		.byte	0xc
 984 0478 06       		.uleb128 0x6
 985 0479 05010000 		.4byte	.LASF65
 986 047d 0D       		.byte	0xd
 987 047e 59       		.byte	0x59
 988 047f 15       		.byte	0x15
 989 0480 2F040000 		.4byte	0x42f
 990 0484 10       		.byte	0x10
 991 0485 07       		.uleb128 0x7
 992 0486 61726700 		.ascii	"arg\000"
 993 048a 0D       		.byte	0xd
 994 048b 5D       		.byte	0x5d
 995 048c 16       		.byte	0x16
 996 048d 7C020000 		.4byte	0x27c
 997 0491 14       		.byte	0x14
 998 0492 00       		.byte	0
 999 0493 03       		.uleb128 0x3
 1000 0494 EB010000 		.4byte	.LASF66
 1001 0498 0D       		.byte	0xd
 1002 0499 5E       		.byte	0x5e
 1003 049a 03       		.byte	0x3
 1004 049b 3B040000 		.4byte	0x43b
 1005 049f 03       		.uleb128 0x3
 1006 04a0 94020000 		.4byte	.LASF67
 1007 04a4 0C       		.byte	0xc
 1008 04a5 34       		.byte	0x34
 1009 04a6 19       		.byte	0x19
 1010 04a7 DC030000 		.4byte	0x3dc
 1011 04ab 0A       		.uleb128 0xa
 1012 04ac 04       		.byte	0x4
 1013 04ad 9F040000 		.4byte	0x49f
 1014 04b1 04       		.uleb128 0x4
 1015 04b2 01       		.byte	0x1
 1016 04b3 02       		.byte	0x2
 1017 04b4 D5030000 		.4byte	.LASF68
 1018 04b8 03       		.uleb128 0x3
 1019 04b9 9C020000 		.4byte	.LASF69
 1020 04bd 0E       		.byte	0xe
 1021 04be 47       		.byte	0x47
 1022 04bf 11       		.byte	0x11
 1023 04c0 C4040000 		.4byte	0x4c4
 1024 04c4 0A       		.uleb128 0xa
 1025 04c5 04       		.byte	0x4
 1026 04c6 CA040000 		.4byte	0x4ca
ARM GAS  /tmp/ccGXnhJg.s 			page 19


 1027 04ca 14       		.uleb128 0x14
 1028 04cb 7C020000 		.4byte	0x27c
 1029 04cf DE040000 		.4byte	0x4de
 1030 04d3 0C       		.uleb128 0xc
 1031 04d4 2C000000 		.4byte	0x2c
 1032 04d8 0C       		.uleb128 0xc
 1033 04d9 38000000 		.4byte	0x38
 1034 04dd 00       		.byte	0
 1035 04de 03       		.uleb128 0x3
 1036 04df 08050000 		.4byte	.LASF70
 1037 04e3 0F       		.byte	0xf
 1038 04e4 48       		.byte	0x48
 1039 04e5 1C       		.byte	0x1c
 1040 04e6 EA040000 		.4byte	0x4ea
 1041 04ea 05       		.uleb128 0x5
 1042 04eb E7030000 		.4byte	.LASF71
 1043 04ef 20       		.byte	0x20
 1044 04f0 0F       		.byte	0xf
 1045 04f1 61       		.byte	0x61
 1046 04f2 08       		.byte	0x8
 1047 04f3 1F050000 		.4byte	0x51f
 1048 04f7 06       		.uleb128 0x6
 1049 04f8 78020000 		.4byte	.LASF72
 1050 04fc 0F       		.byte	0xf
 1051 04fd 62       		.byte	0x62
 1052 04fe 19       		.byte	0x19
 1053 04ff B8040000 		.4byte	0x4b8
 1054 0503 00       		.byte	0
 1055 0504 06       		.uleb128 0x6
 1056 0505 12000000 		.4byte	.LASF73
 1057 0509 0F       		.byte	0xf
 1058 050a 64       		.byte	0x64
 1059 050b 19       		.byte	0x19
 1060 050c 1F050000 		.4byte	0x51f
 1061 0510 08       		.byte	0x8
 1062 0511 07       		.uleb128 0x7
 1063 0512 6D747800 		.ascii	"mtx\000"
 1064 0516 0F       		.byte	0xf
 1065 0517 66       		.byte	0x66
 1066 0518 19       		.byte	0x19
 1067 0519 9F040000 		.4byte	0x49f
 1068 051d 10       		.byte	0x10
 1069 051e 00       		.byte	0
 1070 051f 03       		.uleb128 0x3
 1071 0520 3D000000 		.4byte	.LASF74
 1072 0524 0F       		.byte	0xf
 1073 0525 4D       		.byte	0x4d
 1074 0526 1B       		.byte	0x1b
 1075 0527 2B050000 		.4byte	0x52b
 1076 052b 15       		.uleb128 0x15
 1077 052c B2040000 		.4byte	.LASF100
 1078 0530 08       		.byte	0x8
 1079 0531 0F       		.byte	0xf
 1080 0532 52       		.byte	0x52
 1081 0533 07       		.byte	0x7
 1082 0534 5D050000 		.4byte	0x55d
 1083 0538 10       		.uleb128 0x10
ARM GAS  /tmp/ccGXnhJg.s 			page 20


 1084 0539 63040000 		.4byte	.LASF75
 1085 053d 0F       		.byte	0xf
 1086 053e 53       		.byte	0x53
 1087 053f 0E       		.byte	0xe
 1088 0540 8A020000 		.4byte	0x28a
 1089 0544 10       		.uleb128 0x10
 1090 0545 CE040000 		.4byte	.LASF76
 1091 0549 0F       		.byte	0xf
 1092 054a 57       		.byte	0x57
 1093 054b 05       		.byte	0x5
 1094 054c 5D050000 		.4byte	0x55d
 1095 0550 10       		.uleb128 0x10
 1096 0551 82000000 		.4byte	.LASF77
 1097 0555 0F       		.byte	0xf
 1098 0556 5B       		.byte	0x5b
 1099 0557 05       		.byte	0x5
 1100 0558 87050000 		.4byte	0x587
 1101 055c 00       		.byte	0
 1102 055d 13       		.uleb128 0x13
 1103 055e 08       		.byte	0x8
 1104 055f 0F       		.byte	0xf
 1105 0560 54       		.byte	0x54
 1106 0561 03       		.byte	0x3
 1107 0562 81050000 		.4byte	0x581
 1108 0566 06       		.uleb128 0x6
 1109 0567 CC020000 		.4byte	.LASF42
 1110 056b 0F       		.byte	0xf
 1111 056c 55       		.byte	0x55
 1112 056d 1A       		.byte	0x1a
 1113 056e 81050000 		.4byte	0x581
 1114 0572 00       		.byte	0
 1115 0573 06       		.uleb128 0x6
 1116 0574 D3040000 		.4byte	.LASF78
 1117 0578 0F       		.byte	0xf
 1118 0579 56       		.byte	0x56
 1119 057a 19       		.byte	0x19
 1120 057b 2C000000 		.4byte	0x2c
 1121 057f 04       		.byte	0x4
 1122 0580 00       		.byte	0
 1123 0581 0A       		.uleb128 0xa
 1124 0582 04       		.byte	0x4
 1125 0583 1F050000 		.4byte	0x51f
 1126 0587 13       		.uleb128 0x13
 1127 0588 08       		.byte	0x8
 1128 0589 0F       		.byte	0xf
 1129 058a 58       		.byte	0x58
 1130 058b 03       		.byte	0x3
 1131 058c AB050000 		.4byte	0x5ab
 1132 0590 06       		.uleb128 0x6
 1133 0591 00010000 		.4byte	.LASF79
 1134 0595 0F       		.byte	0xf
 1135 0596 59       		.byte	0x59
 1136 0597 1A       		.byte	0x1a
 1137 0598 AB050000 		.4byte	0x5ab
 1138 059c 00       		.byte	0
 1139 059d 06       		.uleb128 0x6
 1140 059e 01040000 		.4byte	.LASF80
ARM GAS  /tmp/ccGXnhJg.s 			page 21


 1141 05a2 0F       		.byte	0xf
 1142 05a3 5A       		.byte	0x5a
 1143 05a4 19       		.byte	0x19
 1144 05a5 2C000000 		.4byte	0x2c
 1145 05a9 04       		.byte	0x4
 1146 05aa 00       		.byte	0
 1147 05ab 0A       		.uleb128 0xa
 1148 05ac 04       		.byte	0x4
 1149 05ad DE040000 		.4byte	0x4de
 1150 05b1 05       		.uleb128 0x5
 1151 05b2 A6040000 		.4byte	.LASF81
 1152 05b6 04       		.byte	0x4
 1153 05b7 10       		.byte	0x10
 1154 05b8 38       		.byte	0x38
 1155 05b9 08       		.byte	0x8
 1156 05ba CC050000 		.4byte	0x5cc
 1157 05be 06       		.uleb128 0x6
 1158 05bf CC020000 		.4byte	.LASF42
 1159 05c3 10       		.byte	0x10
 1160 05c4 39       		.byte	0x39
 1161 05c5 1A       		.byte	0x1a
 1162 05c6 CC050000 		.4byte	0x5cc
 1163 05ca 00       		.byte	0
 1164 05cb 00       		.byte	0
 1165 05cc 0A       		.uleb128 0xa
 1166 05cd 04       		.byte	0x4
 1167 05ce B1050000 		.4byte	0x5b1
 1168 05d2 13       		.uleb128 0x13
 1169 05d3 0C       		.byte	0xc
 1170 05d4 10       		.byte	0x10
 1171 05d5 40       		.byte	0x40
 1172 05d6 09       		.byte	0x9
 1173 05d7 03060000 		.4byte	0x603
 1174 05db 06       		.uleb128 0x6
 1175 05dc CC020000 		.4byte	.LASF42
 1176 05e0 10       		.byte	0x10
 1177 05e1 41       		.byte	0x41
 1178 05e2 1A       		.byte	0x1a
 1179 05e3 CC050000 		.4byte	0x5cc
 1180 05e7 00       		.byte	0
 1181 05e8 06       		.uleb128 0x6
 1182 05e9 BA030000 		.4byte	.LASF82
 1183 05ed 10       		.byte	0x10
 1184 05ee 42       		.byte	0x42
 1185 05ef 19       		.byte	0x19
 1186 05f0 2C000000 		.4byte	0x2c
 1187 05f4 04       		.byte	0x4
 1188 05f5 06       		.uleb128 0x6
 1189 05f6 78020000 		.4byte	.LASF72
 1190 05fa 10       		.byte	0x10
 1191 05fb 44       		.byte	0x44
 1192 05fc 19       		.byte	0x19
 1193 05fd B8040000 		.4byte	0x4b8
 1194 0601 08       		.byte	0x8
 1195 0602 00       		.byte	0
 1196 0603 03       		.uleb128 0x3
 1197 0604 F3030000 		.4byte	.LASF83
ARM GAS  /tmp/ccGXnhJg.s 			page 22


 1198 0608 10       		.byte	0x10
 1199 0609 46       		.byte	0x46
 1200 060a 03       		.byte	0x3
 1201 060b D2050000 		.4byte	0x5d2
 1202 060f 16       		.uleb128 0x16
 1203 0610 D1010000 		.4byte	.LASF84
 1204 0614 01       		.byte	0x1
 1205 0615 91       		.byte	0x91
 1206 0616 0B       		.byte	0xb
 1207 0617 0A020000 		.4byte	0x20a
 1208 061b 00000000 		.4byte	.LFB247
 1209 061f 52000000 		.4byte	.LFE247-.LFB247
 1210 0623 01       		.uleb128 0x1
 1211 0624 9C       		.byte	0x9c
 1212 0625 9E070000 		.4byte	0x79e
 1213 0629 17       		.uleb128 0x17
 1214 062a 6D7000   		.ascii	"mp\000"
 1215 062d 01       		.byte	0x1
 1216 062e 91       		.byte	0x91
 1217 062f 34       		.byte	0x34
 1218 0630 9E070000 		.4byte	0x79e
 1219 0634 04000000 		.4byte	.LLST8
 1220 0638 00000000 		.4byte	.LVUS8
 1221 063c 18       		.uleb128 0x18
 1222 063d 0B020000 		.4byte	.LASF27
 1223 0641 01       		.byte	0x1
 1224 0642 91       		.byte	0x91
 1225 0643 44       		.byte	0x44
 1226 0644 17040000 		.4byte	0x417
 1227 0648 26000000 		.4byte	.LLST9
 1228 064c 22000000 		.4byte	.LVUS9
 1229 0650 18       		.uleb128 0x18
 1230 0651 E6040000 		.4byte	.LASF24
 1231 0655 01       		.byte	0x1
 1232 0656 92       		.byte	0x92
 1233 0657 2D       		.byte	0x2d
 1234 0658 D2000000 		.4byte	0xd2
 1235 065c 48000000 		.4byte	.LLST10
 1236 0660 44000000 		.4byte	.LVUS10
 1237 0664 17       		.uleb128 0x17
 1238 0665 706600   		.ascii	"pf\000"
 1239 0668 01       		.byte	0x1
 1240 0669 92       		.byte	0x92
 1241 066a 3B       		.byte	0x3b
 1242 066b 2F040000 		.4byte	0x42f
 1243 066f 6A000000 		.4byte	.LLST11
 1244 0673 66000000 		.4byte	.LVUS11
 1245 0677 19       		.uleb128 0x19
 1246 0678 61726700 		.ascii	"arg\000"
 1247 067c 01       		.byte	0x1
 1248 067d 92       		.byte	0x92
 1249 067e 45       		.byte	0x45
 1250 067f 7C020000 		.4byte	0x27c
 1251 0683 02       		.uleb128 0x2
 1252 0684 91       		.byte	0x91
 1253 0685 00       		.sleb128 0
 1254 0686 1A       		.uleb128 0x1a
ARM GAS  /tmp/ccGXnhJg.s 			page 23


 1255 0687 747000   		.ascii	"tp\000"
 1256 068a 01       		.byte	0x1
 1257 068b 93       		.byte	0x93
 1258 068c 0D       		.byte	0xd
 1259 068d 0A020000 		.4byte	0x20a
 1260 0691 8C000000 		.4byte	.LLST12
 1261 0695 88000000 		.4byte	.LVUS12
 1262 0699 1A       		.uleb128 0x1a
 1263 069a 77737000 		.ascii	"wsp\000"
 1264 069e 01       		.byte	0x1
 1265 069f 94       		.byte	0x94
 1266 06a0 09       		.byte	0x9
 1267 06a1 7C020000 		.4byte	0x27c
 1268 06a5 B0000000 		.4byte	.LLST13
 1269 06a9 AA000000 		.4byte	.LVUS13
 1270 06ad 1B       		.uleb128 0x1b
 1271 06ae 34020000 		.4byte	.LASF87
 1272 06b2 B4070000 		.4byte	0x7b4
 1273 06b6 1C       		.uleb128 0x1c
 1274 06b7 746400   		.ascii	"td\000"
 1275 06ba 01       		.byte	0x1
 1276 06bb 9D       		.byte	0x9d
 1277 06bc 17       		.byte	0x17
 1278 06bd 93040000 		.4byte	0x493
 1279 06c1 02       		.uleb128 0x2
 1280 06c2 91       		.byte	0x91
 1281 06c3 50       		.sleb128 -48
 1282 06c4 1D       		.uleb128 0x1d
 1283 06c5 88090000 		.4byte	0x988
 1284 06c9 20000000 		.4byte	.LBI53
 1285 06cd 01       		.byte	.LVU68
 1286 06ce 40000000 		.4byte	.Ldebug_ranges0+0x40
 1287 06d2 01       		.byte	0x1
 1288 06d3 AC       		.byte	0xac
 1289 06d4 03       		.byte	0x3
 1290 06d5 0D070000 		.4byte	0x70d
 1291 06d9 1E       		.uleb128 0x1e
 1292 06da 9C090000 		.4byte	0x99c
 1293 06de 20000000 		.4byte	.LBI54
 1294 06e2 03       		.byte	.LVU70
 1295 06e3 48000000 		.4byte	.Ldebug_ranges0+0x48
 1296 06e7 02       		.byte	0x2
 1297 06e8 7801     		.2byte	0x178
 1298 06ea 03       		.byte	0x3
 1299 06eb 1E       		.uleb128 0x1e
 1300 06ec A6090000 		.4byte	0x9a6
 1301 06f0 20000000 		.4byte	.LBI55
 1302 06f4 05       		.byte	.LVU72
 1303 06f5 50000000 		.4byte	.Ldebug_ranges0+0x50
 1304 06f9 03       		.byte	0x3
 1305 06fa 5A02     		.2byte	0x25a
 1306 06fc 03       		.byte	0x3
 1307 06fd 1F       		.uleb128 0x1f
 1308 06fe B4090000 		.4byte	0x9b4
 1309 0702 DC000000 		.4byte	.LLST14
 1310 0706 DA000000 		.4byte	.LVUS14
 1311 070a 00       		.byte	0
ARM GAS  /tmp/ccGXnhJg.s 			page 24


 1312 070b 00       		.byte	0
 1313 070c 00       		.byte	0
 1314 070d 1D       		.uleb128 0x1d
 1315 070e 5B090000 		.4byte	0x95b
 1316 0712 44000000 		.4byte	.LBI64
 1317 0716 01       		.byte	.LVU89
 1318 0717 68000000 		.4byte	.Ldebug_ranges0+0x68
 1319 071b 01       		.byte	0x1
 1320 071c B1       		.byte	0xb1
 1321 071d 03       		.byte	0x3
 1322 071e 60070000 		.4byte	0x760
 1323 0722 20       		.uleb128 0x20
 1324 0723 68000000 		.4byte	.Ldebug_ranges0+0x68
 1325 0727 1E       		.uleb128 0x1e
 1326 0728 92090000 		.4byte	0x992
 1327 072c 44000000 		.4byte	.LBI66
 1328 0730 08       		.byte	.LVU96
 1329 0731 68000000 		.4byte	.Ldebug_ranges0+0x68
 1330 0735 02       		.byte	0x2
 1331 0736 8F01     		.2byte	0x18f
 1332 0738 03       		.byte	0x3
 1333 0739 21       		.uleb128 0x21
 1334 073a A6090000 		.4byte	0x9a6
 1335 073e 44000000 		.4byte	.LBI67
 1336 0742 0A       		.byte	.LVU98
 1337 0743 44000000 		.4byte	.LBB67
 1338 0747 06000000 		.4byte	.LBE67-.LBB67
 1339 074b 03       		.byte	0x3
 1340 074c 6D02     		.2byte	0x26d
 1341 074e 03       		.byte	0x3
 1342 074f 1F       		.uleb128 0x1f
 1343 0750 B4090000 		.4byte	0x9b4
 1344 0754 F3000000 		.4byte	.LLST15
 1345 0758 F1000000 		.4byte	.LVUS15
 1346 075c 00       		.byte	0
 1347 075d 00       		.byte	0
 1348 075e 00       		.byte	0
 1349 075f 00       		.byte	0
 1350 0760 22       		.uleb128 0x22
 1351 0761 12000000 		.4byte	.LVL12
 1352 0765 C2090000 		.4byte	0x9c2
 1353 0769 74070000 		.4byte	0x774
 1354 076d 23       		.uleb128 0x23
 1355 076e 01       		.uleb128 0x1
 1356 076f 50       		.byte	0x50
 1357 0770 02       		.uleb128 0x2
 1358 0771 75       		.byte	0x75
 1359 0772 00       		.sleb128 0
 1360 0773 00       		.byte	0
 1361 0774 22       		.uleb128 0x22
 1362 0775 34000000 		.4byte	.LVL17
 1363 0779 CE090000 		.4byte	0x9ce
 1364 077d 88070000 		.4byte	0x788
 1365 0781 23       		.uleb128 0x23
 1366 0782 01       		.uleb128 0x1
 1367 0783 50       		.byte	0x50
 1368 0784 02       		.uleb128 0x2
ARM GAS  /tmp/ccGXnhJg.s 			page 25


 1369 0785 7D       		.byte	0x7d
 1370 0786 00       		.sleb128 0
 1371 0787 00       		.byte	0
 1372 0788 24       		.uleb128 0x24
 1373 0789 44000000 		.4byte	.LVL19
 1374 078d DA090000 		.4byte	0x9da
 1375 0791 23       		.uleb128 0x23
 1376 0792 01       		.uleb128 0x1
 1377 0793 50       		.byte	0x50
 1378 0794 02       		.uleb128 0x2
 1379 0795 74       		.byte	0x74
 1380 0796 00       		.sleb128 0
 1381 0797 23       		.uleb128 0x23
 1382 0798 01       		.uleb128 0x1
 1383 0799 51       		.byte	0x51
 1384 079a 01       		.uleb128 0x1
 1385 079b 30       		.byte	0x30
 1386 079c 00       		.byte	0
 1387 079d 00       		.byte	0
 1388 079e 0A       		.uleb128 0xa
 1389 079f 04       		.byte	0x4
 1390 07a0 03060000 		.4byte	0x603
 1391 07a4 25       		.uleb128 0x25
 1392 07a5 24040000 		.4byte	0x424
 1393 07a9 B4070000 		.4byte	0x7b4
 1394 07ad 26       		.uleb128 0x26
 1395 07ae 38000000 		.4byte	0x38
 1396 07b2 19       		.byte	0x19
 1397 07b3 00       		.byte	0
 1398 07b4 12       		.uleb128 0x12
 1399 07b5 A4070000 		.4byte	0x7a4
 1400 07b9 16       		.uleb128 0x16
 1401 07ba C5000000 		.4byte	.LASF85
 1402 07be 01       		.byte	0x1
 1403 07bf 52       		.byte	0x52
 1404 07c0 0B       		.byte	0xb
 1405 07c1 0A020000 		.4byte	0x20a
 1406 07c5 00000000 		.4byte	.LFB246
 1407 07c9 4C000000 		.4byte	.LFE246-.LFB246
 1408 07cd 01       		.uleb128 0x1
 1409 07ce 9C       		.byte	0x9c
 1410 07cf 5B090000 		.4byte	0x95b
 1411 07d3 18       		.uleb128 0x18
 1412 07d4 72010000 		.4byte	.LASF86
 1413 07d8 01       		.byte	0x1
 1414 07d9 52       		.byte	0x52
 1415 07da 2E       		.byte	0x2e
 1416 07db AB050000 		.4byte	0x5ab
 1417 07df 0B010000 		.4byte	.LLST0
 1418 07e3 07010000 		.4byte	.LVUS0
 1419 07e7 18       		.uleb128 0x18
 1420 07e8 01040000 		.4byte	.LASF80
 1421 07ec 01       		.byte	0x1
 1422 07ed 52       		.byte	0x52
 1423 07ee 3C       		.byte	0x3c
 1424 07ef 2C000000 		.4byte	0x2c
 1425 07f3 32010000 		.4byte	.LLST1
ARM GAS  /tmp/ccGXnhJg.s 			page 26


 1426 07f7 2C010000 		.4byte	.LVUS1
 1427 07fb 18       		.uleb128 0x18
 1428 07fc 0B020000 		.4byte	.LASF27
 1429 0800 01       		.byte	0x1
 1430 0801 53       		.byte	0x53
 1431 0802 2B       		.byte	0x2b
 1432 0803 17040000 		.4byte	0x417
 1433 0807 62010000 		.4byte	.LLST2
 1434 080b 5E010000 		.4byte	.LVUS2
 1435 080f 18       		.uleb128 0x18
 1436 0810 E6040000 		.4byte	.LASF24
 1437 0814 01       		.byte	0x1
 1438 0815 53       		.byte	0x53
 1439 0816 39       		.byte	0x39
 1440 0817 D2000000 		.4byte	0xd2
 1441 081b 84010000 		.4byte	.LLST3
 1442 081f 80010000 		.4byte	.LVUS3
 1443 0823 19       		.uleb128 0x19
 1444 0824 706600   		.ascii	"pf\000"
 1445 0827 01       		.byte	0x1
 1446 0828 54       		.byte	0x54
 1447 0829 27       		.byte	0x27
 1448 082a 2F040000 		.4byte	0x42f
 1449 082e 02       		.uleb128 0x2
 1450 082f 91       		.byte	0x91
 1451 0830 00       		.sleb128 0
 1452 0831 19       		.uleb128 0x19
 1453 0832 61726700 		.ascii	"arg\000"
 1454 0836 01       		.byte	0x1
 1455 0837 54       		.byte	0x54
 1456 0838 31       		.byte	0x31
 1457 0839 7C020000 		.4byte	0x27c
 1458 083d 02       		.uleb128 0x2
 1459 083e 91       		.byte	0x91
 1460 083f 04       		.sleb128 4
 1461 0840 1A       		.uleb128 0x1a
 1462 0841 747000   		.ascii	"tp\000"
 1463 0844 01       		.byte	0x1
 1464 0845 55       		.byte	0x55
 1465 0846 0D       		.byte	0xd
 1466 0847 0A020000 		.4byte	0x20a
 1467 084b A6010000 		.4byte	.LLST4
 1468 084f A2010000 		.4byte	.LVUS4
 1469 0853 1A       		.uleb128 0x1a
 1470 0854 77737000 		.ascii	"wsp\000"
 1471 0858 01       		.byte	0x1
 1472 0859 56       		.byte	0x56
 1473 085a 09       		.byte	0x9
 1474 085b 7C020000 		.4byte	0x27c
 1475 085f C8010000 		.4byte	.LLST5
 1476 0863 C4010000 		.4byte	.LVUS5
 1477 0867 1C       		.uleb128 0x1c
 1478 0868 746400   		.ascii	"td\000"
 1479 086b 01       		.byte	0x1
 1480 086c 5D       		.byte	0x5d
 1481 086d 17       		.byte	0x17
 1482 086e 93040000 		.4byte	0x493
ARM GAS  /tmp/ccGXnhJg.s 			page 27


 1483 0872 02       		.uleb128 0x2
 1484 0873 91       		.byte	0x91
 1485 0874 50       		.sleb128 -48
 1486 0875 1D       		.uleb128 0x1d
 1487 0876 88090000 		.4byte	0x988
 1488 087a 1E000000 		.4byte	.LBI34
 1489 087e 01       		.byte	.LVU15
 1490 087f 00000000 		.4byte	.Ldebug_ranges0+0
 1491 0883 01       		.byte	0x1
 1492 0884 6C       		.byte	0x6c
 1493 0885 03       		.byte	0x3
 1494 0886 BE080000 		.4byte	0x8be
 1495 088a 1E       		.uleb128 0x1e
 1496 088b 9C090000 		.4byte	0x99c
 1497 088f 1E000000 		.4byte	.LBI35
 1498 0893 03       		.byte	.LVU17
 1499 0894 08000000 		.4byte	.Ldebug_ranges0+0x8
 1500 0898 02       		.byte	0x2
 1501 0899 7801     		.2byte	0x178
 1502 089b 03       		.byte	0x3
 1503 089c 1E       		.uleb128 0x1e
 1504 089d A6090000 		.4byte	0x9a6
 1505 08a1 1E000000 		.4byte	.LBI36
 1506 08a5 05       		.byte	.LVU19
 1507 08a6 10000000 		.4byte	.Ldebug_ranges0+0x10
 1508 08aa 03       		.byte	0x3
 1509 08ab 5A02     		.2byte	0x25a
 1510 08ad 03       		.byte	0x3
 1511 08ae 1F       		.uleb128 0x1f
 1512 08af B4090000 		.4byte	0x9b4
 1513 08b3 E8010000 		.4byte	.LLST6
 1514 08b7 E6010000 		.4byte	.LVUS6
 1515 08bb 00       		.byte	0
 1516 08bc 00       		.byte	0
 1517 08bd 00       		.byte	0
 1518 08be 1D       		.uleb128 0x1d
 1519 08bf 5B090000 		.4byte	0x95b
 1520 08c3 40000000 		.4byte	.LBI45
 1521 08c7 01       		.byte	.LVU35
 1522 08c8 28000000 		.4byte	.Ldebug_ranges0+0x28
 1523 08cc 01       		.byte	0x1
 1524 08cd 70       		.byte	0x70
 1525 08ce 03       		.byte	0x3
 1526 08cf 11090000 		.4byte	0x911
 1527 08d3 20       		.uleb128 0x20
 1528 08d4 28000000 		.4byte	.Ldebug_ranges0+0x28
 1529 08d8 1E       		.uleb128 0x1e
 1530 08d9 92090000 		.4byte	0x992
 1531 08dd 40000000 		.4byte	.LBI47
 1532 08e1 08       		.byte	.LVU42
 1533 08e2 28000000 		.4byte	.Ldebug_ranges0+0x28
 1534 08e6 02       		.byte	0x2
 1535 08e7 8F01     		.2byte	0x18f
 1536 08e9 03       		.byte	0x3
 1537 08ea 21       		.uleb128 0x21
 1538 08eb A6090000 		.4byte	0x9a6
 1539 08ef 40000000 		.4byte	.LBI48
ARM GAS  /tmp/ccGXnhJg.s 			page 28


 1540 08f3 0A       		.byte	.LVU44
 1541 08f4 40000000 		.4byte	.LBB48
 1542 08f8 06000000 		.4byte	.LBE48-.LBB48
 1543 08fc 03       		.byte	0x3
 1544 08fd 6D02     		.2byte	0x26d
 1545 08ff 03       		.byte	0x3
 1546 0900 1F       		.uleb128 0x1f
 1547 0901 B4090000 		.4byte	0x9b4
 1548 0905 FF010000 		.4byte	.LLST7
 1549 0909 FD010000 		.4byte	.LVUS7
 1550 090d 00       		.byte	0
 1551 090e 00       		.byte	0
 1552 090f 00       		.byte	0
 1553 0910 00       		.byte	0
 1554 0911 22       		.uleb128 0x22
 1555 0912 10000000 		.4byte	.LVL2
 1556 0916 E7090000 		.4byte	0x9e7
 1557 091a 31090000 		.4byte	0x931
 1558 091e 23       		.uleb128 0x23
 1559 091f 01       		.uleb128 0x1
 1560 0920 50       		.byte	0x50
 1561 0921 03       		.uleb128 0x3
 1562 0922 F3       		.byte	0xf3
 1563 0923 01       		.uleb128 0x1
 1564 0924 50       		.byte	0x50
 1565 0925 23       		.uleb128 0x23
 1566 0926 01       		.uleb128 0x1
 1567 0927 51       		.byte	0x51
 1568 0928 02       		.uleb128 0x2
 1569 0929 75       		.byte	0x75
 1570 092a 00       		.sleb128 0
 1571 092b 23       		.uleb128 0x23
 1572 092c 01       		.uleb128 0x1
 1573 092d 52       		.byte	0x52
 1574 092e 01       		.uleb128 0x1
 1575 092f 38       		.byte	0x38
 1576 0930 00       		.byte	0
 1577 0931 22       		.uleb128 0x22
 1578 0932 32000000 		.4byte	.LVL7
 1579 0936 CE090000 		.4byte	0x9ce
 1580 093a 45090000 		.4byte	0x945
 1581 093e 23       		.uleb128 0x23
 1582 093f 01       		.uleb128 0x1
 1583 0940 50       		.byte	0x50
 1584 0941 02       		.uleb128 0x2
 1585 0942 7D       		.byte	0x7d
 1586 0943 00       		.sleb128 0
 1587 0944 00       		.byte	0
 1588 0945 24       		.uleb128 0x24
 1589 0946 40000000 		.4byte	.LVL9
 1590 094a DA090000 		.4byte	0x9da
 1591 094e 23       		.uleb128 0x23
 1592 094f 01       		.uleb128 0x1
 1593 0950 50       		.byte	0x50
 1594 0951 02       		.uleb128 0x2
 1595 0952 74       		.byte	0x74
 1596 0953 00       		.sleb128 0
ARM GAS  /tmp/ccGXnhJg.s 			page 29


 1597 0954 23       		.uleb128 0x23
 1598 0955 01       		.uleb128 0x1
 1599 0956 51       		.byte	0x51
 1600 0957 01       		.uleb128 0x1
 1601 0958 30       		.byte	0x30
 1602 0959 00       		.byte	0
 1603 095a 00       		.byte	0
 1604 095b 27       		.uleb128 0x27
 1605 095c 3E040000 		.4byte	.LASF91
 1606 0960 02       		.byte	0x2
 1607 0961 8201     		.2byte	0x182
 1608 0963 14       		.byte	0x14
 1609 0964 03       		.byte	0x3
 1610 0965 73090000 		.4byte	0x973
 1611 0969 1B       		.uleb128 0x1b
 1612 096a 34020000 		.4byte	.LASF87
 1613 096e 83090000 		.4byte	0x983
 1614 0972 00       		.byte	0
 1615 0973 25       		.uleb128 0x25
 1616 0974 24040000 		.4byte	0x424
 1617 0978 83090000 		.4byte	0x983
 1618 097c 26       		.uleb128 0x26
 1619 097d 38000000 		.4byte	0x38
 1620 0981 0B       		.byte	0xb
 1621 0982 00       		.byte	0
 1622 0983 12       		.uleb128 0x12
 1623 0984 73090000 		.4byte	0x973
 1624 0988 28       		.uleb128 0x28
 1625 0989 6C000000 		.4byte	.LASF88
 1626 098d 02       		.byte	0x2
 1627 098e 7601     		.2byte	0x176
 1628 0990 14       		.byte	0x14
 1629 0991 03       		.byte	0x3
 1630 0992 28       		.uleb128 0x28
 1631 0993 DB030000 		.4byte	.LASF89
 1632 0997 03       		.byte	0x3
 1633 0998 6A02     		.2byte	0x26a
 1634 099a 14       		.byte	0x14
 1635 099b 03       		.byte	0x3
 1636 099c 28       		.uleb128 0x28
 1637 099d 62000000 		.4byte	.LASF90
 1638 09a1 03       		.byte	0x3
 1639 09a2 5202     		.2byte	0x252
 1640 09a4 14       		.byte	0x14
 1641 09a5 03       		.byte	0x3
 1642 09a6 27       		.uleb128 0x27
 1643 09a7 30040000 		.4byte	.LASF92
 1644 09ab 04       		.byte	0x4
 1645 09ac 0601     		.2byte	0x106
 1646 09ae 39       		.byte	0x39
 1647 09af 03       		.byte	0x3
 1648 09b0 C2090000 		.4byte	0x9c2
 1649 09b4 29       		.uleb128 0x29
 1650 09b5 AD000000 		.4byte	.LASF101
 1651 09b9 04       		.byte	0x4
 1652 09ba 0601     		.2byte	0x106
 1653 09bc 50       		.byte	0x50
ARM GAS  /tmp/ccGXnhJg.s 			page 30


 1654 09bd 88000000 		.4byte	0x88
 1655 09c1 00       		.byte	0
 1656 09c2 2A       		.uleb128 0x2a
 1657 09c3 87000000 		.4byte	.LASF93
 1658 09c7 87000000 		.4byte	.LASF93
 1659 09cb 10       		.byte	0x10
 1660 09cc 94       		.byte	0x94
 1661 09cd 09       		.byte	0x9
 1662 09ce 2A       		.uleb128 0x2a
 1663 09cf 10020000 		.4byte	.LASF94
 1664 09d3 10020000 		.4byte	.LASF94
 1665 09d7 0D       		.byte	0xd
 1666 09d8 EF       		.byte	0xef
 1667 09d9 0D       		.byte	0xd
 1668 09da 2B       		.uleb128 0x2b
 1669 09db 6B020000 		.4byte	.LASF95
 1670 09df 6B020000 		.4byte	.LASF95
 1671 09e3 09       		.byte	0x9
 1672 09e4 E001     		.2byte	0x1e0
 1673 09e6 08       		.byte	0x8
 1674 09e7 2A       		.uleb128 0x2a
 1675 09e8 1D040000 		.4byte	.LASF96
 1676 09ec 1D040000 		.4byte	.LASF96
 1677 09f0 0F       		.byte	0xf
 1678 09f1 80       		.byte	0x80
 1679 09f2 09       		.byte	0x9
 1680 09f3 00       		.byte	0
 1681              		.section	.debug_abbrev,"",%progbits
 1682              	.Ldebug_abbrev0:
 1683 0000 01       		.uleb128 0x1
 1684 0001 11       		.uleb128 0x11
 1685 0002 01       		.byte	0x1
 1686 0003 25       		.uleb128 0x25
 1687 0004 0E       		.uleb128 0xe
 1688 0005 13       		.uleb128 0x13
 1689 0006 0B       		.uleb128 0xb
 1690 0007 03       		.uleb128 0x3
 1691 0008 0E       		.uleb128 0xe
 1692 0009 1B       		.uleb128 0x1b
 1693 000a 0E       		.uleb128 0xe
 1694 000b 55       		.uleb128 0x55
 1695 000c 17       		.uleb128 0x17
 1696 000d 11       		.uleb128 0x11
 1697 000e 01       		.uleb128 0x1
 1698 000f 10       		.uleb128 0x10
 1699 0010 17       		.uleb128 0x17
 1700 0011 00       		.byte	0
 1701 0012 00       		.byte	0
 1702 0013 02       		.uleb128 0x2
 1703 0014 24       		.uleb128 0x24
 1704 0015 00       		.byte	0
 1705 0016 0B       		.uleb128 0xb
 1706 0017 0B       		.uleb128 0xb
 1707 0018 3E       		.uleb128 0x3e
 1708 0019 0B       		.uleb128 0xb
 1709 001a 03       		.uleb128 0x3
 1710 001b 08       		.uleb128 0x8
ARM GAS  /tmp/ccGXnhJg.s 			page 31


 1711 001c 00       		.byte	0
 1712 001d 00       		.byte	0
 1713 001e 03       		.uleb128 0x3
 1714 001f 16       		.uleb128 0x16
 1715 0020 00       		.byte	0
 1716 0021 03       		.uleb128 0x3
 1717 0022 0E       		.uleb128 0xe
 1718 0023 3A       		.uleb128 0x3a
 1719 0024 0B       		.uleb128 0xb
 1720 0025 3B       		.uleb128 0x3b
 1721 0026 0B       		.uleb128 0xb
 1722 0027 39       		.uleb128 0x39
 1723 0028 0B       		.uleb128 0xb
 1724 0029 49       		.uleb128 0x49
 1725 002a 13       		.uleb128 0x13
 1726 002b 00       		.byte	0
 1727 002c 00       		.byte	0
 1728 002d 04       		.uleb128 0x4
 1729 002e 24       		.uleb128 0x24
 1730 002f 00       		.byte	0
 1731 0030 0B       		.uleb128 0xb
 1732 0031 0B       		.uleb128 0xb
 1733 0032 3E       		.uleb128 0x3e
 1734 0033 0B       		.uleb128 0xb
 1735 0034 03       		.uleb128 0x3
 1736 0035 0E       		.uleb128 0xe
 1737 0036 00       		.byte	0
 1738 0037 00       		.byte	0
 1739 0038 05       		.uleb128 0x5
 1740 0039 13       		.uleb128 0x13
 1741 003a 01       		.byte	0x1
 1742 003b 03       		.uleb128 0x3
 1743 003c 0E       		.uleb128 0xe
 1744 003d 0B       		.uleb128 0xb
 1745 003e 0B       		.uleb128 0xb
 1746 003f 3A       		.uleb128 0x3a
 1747 0040 0B       		.uleb128 0xb
 1748 0041 3B       		.uleb128 0x3b
 1749 0042 0B       		.uleb128 0xb
 1750 0043 39       		.uleb128 0x39
 1751 0044 0B       		.uleb128 0xb
 1752 0045 01       		.uleb128 0x1
 1753 0046 13       		.uleb128 0x13
 1754 0047 00       		.byte	0
 1755 0048 00       		.byte	0
 1756 0049 06       		.uleb128 0x6
 1757 004a 0D       		.uleb128 0xd
 1758 004b 00       		.byte	0
 1759 004c 03       		.uleb128 0x3
 1760 004d 0E       		.uleb128 0xe
 1761 004e 3A       		.uleb128 0x3a
 1762 004f 0B       		.uleb128 0xb
 1763 0050 3B       		.uleb128 0x3b
 1764 0051 0B       		.uleb128 0xb
 1765 0052 39       		.uleb128 0x39
 1766 0053 0B       		.uleb128 0xb
 1767 0054 49       		.uleb128 0x49
ARM GAS  /tmp/ccGXnhJg.s 			page 32


 1768 0055 13       		.uleb128 0x13
 1769 0056 38       		.uleb128 0x38
 1770 0057 0B       		.uleb128 0xb
 1771 0058 00       		.byte	0
 1772 0059 00       		.byte	0
 1773 005a 07       		.uleb128 0x7
 1774 005b 0D       		.uleb128 0xd
 1775 005c 00       		.byte	0
 1776 005d 03       		.uleb128 0x3
 1777 005e 08       		.uleb128 0x8
 1778 005f 3A       		.uleb128 0x3a
 1779 0060 0B       		.uleb128 0xb
 1780 0061 3B       		.uleb128 0x3b
 1781 0062 0B       		.uleb128 0xb
 1782 0063 39       		.uleb128 0x39
 1783 0064 0B       		.uleb128 0xb
 1784 0065 49       		.uleb128 0x49
 1785 0066 13       		.uleb128 0x13
 1786 0067 38       		.uleb128 0x38
 1787 0068 0B       		.uleb128 0xb
 1788 0069 00       		.byte	0
 1789 006a 00       		.byte	0
 1790 006b 08       		.uleb128 0x8
 1791 006c 0D       		.uleb128 0xd
 1792 006d 00       		.byte	0
 1793 006e 03       		.uleb128 0x3
 1794 006f 08       		.uleb128 0x8
 1795 0070 3A       		.uleb128 0x3a
 1796 0071 0B       		.uleb128 0xb
 1797 0072 3B       		.uleb128 0x3b
 1798 0073 05       		.uleb128 0x5
 1799 0074 39       		.uleb128 0x39
 1800 0075 0B       		.uleb128 0xb
 1801 0076 49       		.uleb128 0x49
 1802 0077 13       		.uleb128 0x13
 1803 0078 38       		.uleb128 0x38
 1804 0079 0B       		.uleb128 0xb
 1805 007a 00       		.byte	0
 1806 007b 00       		.byte	0
 1807 007c 09       		.uleb128 0x9
 1808 007d 0D       		.uleb128 0xd
 1809 007e 00       		.byte	0
 1810 007f 03       		.uleb128 0x3
 1811 0080 0E       		.uleb128 0xe
 1812 0081 3A       		.uleb128 0x3a
 1813 0082 0B       		.uleb128 0xb
 1814 0083 3B       		.uleb128 0x3b
 1815 0084 05       		.uleb128 0x5
 1816 0085 39       		.uleb128 0x39
 1817 0086 0B       		.uleb128 0xb
 1818 0087 49       		.uleb128 0x49
 1819 0088 13       		.uleb128 0x13
 1820 0089 38       		.uleb128 0x38
 1821 008a 0B       		.uleb128 0xb
 1822 008b 00       		.byte	0
 1823 008c 00       		.byte	0
 1824 008d 0A       		.uleb128 0xa
ARM GAS  /tmp/ccGXnhJg.s 			page 33


 1825 008e 0F       		.uleb128 0xf
 1826 008f 00       		.byte	0
 1827 0090 0B       		.uleb128 0xb
 1828 0091 0B       		.uleb128 0xb
 1829 0092 49       		.uleb128 0x49
 1830 0093 13       		.uleb128 0x13
 1831 0094 00       		.byte	0
 1832 0095 00       		.byte	0
 1833 0096 0B       		.uleb128 0xb
 1834 0097 15       		.uleb128 0x15
 1835 0098 01       		.byte	0x1
 1836 0099 27       		.uleb128 0x27
 1837 009a 19       		.uleb128 0x19
 1838 009b 01       		.uleb128 0x1
 1839 009c 13       		.uleb128 0x13
 1840 009d 00       		.byte	0
 1841 009e 00       		.byte	0
 1842 009f 0C       		.uleb128 0xc
 1843 00a0 05       		.uleb128 0x5
 1844 00a1 00       		.byte	0
 1845 00a2 49       		.uleb128 0x49
 1846 00a3 13       		.uleb128 0x13
 1847 00a4 00       		.byte	0
 1848 00a5 00       		.byte	0
 1849 00a6 0D       		.uleb128 0xd
 1850 00a7 0F       		.uleb128 0xf
 1851 00a8 00       		.byte	0
 1852 00a9 0B       		.uleb128 0xb
 1853 00aa 0B       		.uleb128 0xb
 1854 00ab 00       		.byte	0
 1855 00ac 00       		.byte	0
 1856 00ad 0E       		.uleb128 0xe
 1857 00ae 13       		.uleb128 0x13
 1858 00af 01       		.byte	0x1
 1859 00b0 03       		.uleb128 0x3
 1860 00b1 0E       		.uleb128 0xe
 1861 00b2 0B       		.uleb128 0xb
 1862 00b3 0B       		.uleb128 0xb
 1863 00b4 3A       		.uleb128 0x3a
 1864 00b5 0B       		.uleb128 0xb
 1865 00b6 3B       		.uleb128 0x3b
 1866 00b7 05       		.uleb128 0x5
 1867 00b8 39       		.uleb128 0x39
 1868 00b9 0B       		.uleb128 0xb
 1869 00ba 01       		.uleb128 0x1
 1870 00bb 13       		.uleb128 0x13
 1871 00bc 00       		.byte	0
 1872 00bd 00       		.byte	0
 1873 00be 0F       		.uleb128 0xf
 1874 00bf 17       		.uleb128 0x17
 1875 00c0 01       		.byte	0x1
 1876 00c1 0B       		.uleb128 0xb
 1877 00c2 0B       		.uleb128 0xb
 1878 00c3 3A       		.uleb128 0x3a
 1879 00c4 0B       		.uleb128 0xb
 1880 00c5 3B       		.uleb128 0x3b
 1881 00c6 0B       		.uleb128 0xb
ARM GAS  /tmp/ccGXnhJg.s 			page 34


 1882 00c7 39       		.uleb128 0x39
 1883 00c8 0B       		.uleb128 0xb
 1884 00c9 01       		.uleb128 0x1
 1885 00ca 13       		.uleb128 0x13
 1886 00cb 00       		.byte	0
 1887 00cc 00       		.byte	0
 1888 00cd 10       		.uleb128 0x10
 1889 00ce 0D       		.uleb128 0xd
 1890 00cf 00       		.byte	0
 1891 00d0 03       		.uleb128 0x3
 1892 00d1 0E       		.uleb128 0xe
 1893 00d2 3A       		.uleb128 0x3a
 1894 00d3 0B       		.uleb128 0xb
 1895 00d4 3B       		.uleb128 0x3b
 1896 00d5 0B       		.uleb128 0xb
 1897 00d6 39       		.uleb128 0x39
 1898 00d7 0B       		.uleb128 0xb
 1899 00d8 49       		.uleb128 0x49
 1900 00d9 13       		.uleb128 0x13
 1901 00da 00       		.byte	0
 1902 00db 00       		.byte	0
 1903 00dc 11       		.uleb128 0x11
 1904 00dd 0D       		.uleb128 0xd
 1905 00de 00       		.byte	0
 1906 00df 03       		.uleb128 0x3
 1907 00e0 0E       		.uleb128 0xe
 1908 00e1 3A       		.uleb128 0x3a
 1909 00e2 0B       		.uleb128 0xb
 1910 00e3 3B       		.uleb128 0x3b
 1911 00e4 05       		.uleb128 0x5
 1912 00e5 39       		.uleb128 0x39
 1913 00e6 0B       		.uleb128 0xb
 1914 00e7 49       		.uleb128 0x49
 1915 00e8 13       		.uleb128 0x13
 1916 00e9 00       		.byte	0
 1917 00ea 00       		.byte	0
 1918 00eb 12       		.uleb128 0x12
 1919 00ec 26       		.uleb128 0x26
 1920 00ed 00       		.byte	0
 1921 00ee 49       		.uleb128 0x49
 1922 00ef 13       		.uleb128 0x13
 1923 00f0 00       		.byte	0
 1924 00f1 00       		.byte	0
 1925 00f2 13       		.uleb128 0x13
 1926 00f3 13       		.uleb128 0x13
 1927 00f4 01       		.byte	0x1
 1928 00f5 0B       		.uleb128 0xb
 1929 00f6 0B       		.uleb128 0xb
 1930 00f7 3A       		.uleb128 0x3a
 1931 00f8 0B       		.uleb128 0xb
 1932 00f9 3B       		.uleb128 0x3b
 1933 00fa 0B       		.uleb128 0xb
 1934 00fb 39       		.uleb128 0x39
 1935 00fc 0B       		.uleb128 0xb
 1936 00fd 01       		.uleb128 0x1
 1937 00fe 13       		.uleb128 0x13
 1938 00ff 00       		.byte	0
ARM GAS  /tmp/ccGXnhJg.s 			page 35


 1939 0100 00       		.byte	0
 1940 0101 14       		.uleb128 0x14
 1941 0102 15       		.uleb128 0x15
 1942 0103 01       		.byte	0x1
 1943 0104 27       		.uleb128 0x27
 1944 0105 19       		.uleb128 0x19
 1945 0106 49       		.uleb128 0x49
 1946 0107 13       		.uleb128 0x13
 1947 0108 01       		.uleb128 0x1
 1948 0109 13       		.uleb128 0x13
 1949 010a 00       		.byte	0
 1950 010b 00       		.byte	0
 1951 010c 15       		.uleb128 0x15
 1952 010d 17       		.uleb128 0x17
 1953 010e 01       		.byte	0x1
 1954 010f 03       		.uleb128 0x3
 1955 0110 0E       		.uleb128 0xe
 1956 0111 0B       		.uleb128 0xb
 1957 0112 0B       		.uleb128 0xb
 1958 0113 3A       		.uleb128 0x3a
 1959 0114 0B       		.uleb128 0xb
 1960 0115 3B       		.uleb128 0x3b
 1961 0116 0B       		.uleb128 0xb
 1962 0117 39       		.uleb128 0x39
 1963 0118 0B       		.uleb128 0xb
 1964 0119 01       		.uleb128 0x1
 1965 011a 13       		.uleb128 0x13
 1966 011b 00       		.byte	0
 1967 011c 00       		.byte	0
 1968 011d 16       		.uleb128 0x16
 1969 011e 2E       		.uleb128 0x2e
 1970 011f 01       		.byte	0x1
 1971 0120 3F       		.uleb128 0x3f
 1972 0121 19       		.uleb128 0x19
 1973 0122 03       		.uleb128 0x3
 1974 0123 0E       		.uleb128 0xe
 1975 0124 3A       		.uleb128 0x3a
 1976 0125 0B       		.uleb128 0xb
 1977 0126 3B       		.uleb128 0x3b
 1978 0127 0B       		.uleb128 0xb
 1979 0128 39       		.uleb128 0x39
 1980 0129 0B       		.uleb128 0xb
 1981 012a 27       		.uleb128 0x27
 1982 012b 19       		.uleb128 0x19
 1983 012c 49       		.uleb128 0x49
 1984 012d 13       		.uleb128 0x13
 1985 012e 11       		.uleb128 0x11
 1986 012f 01       		.uleb128 0x1
 1987 0130 12       		.uleb128 0x12
 1988 0131 06       		.uleb128 0x6
 1989 0132 40       		.uleb128 0x40
 1990 0133 18       		.uleb128 0x18
 1991 0134 9742     		.uleb128 0x2117
 1992 0136 19       		.uleb128 0x19
 1993 0137 01       		.uleb128 0x1
 1994 0138 13       		.uleb128 0x13
 1995 0139 00       		.byte	0
ARM GAS  /tmp/ccGXnhJg.s 			page 36


 1996 013a 00       		.byte	0
 1997 013b 17       		.uleb128 0x17
 1998 013c 05       		.uleb128 0x5
 1999 013d 00       		.byte	0
 2000 013e 03       		.uleb128 0x3
 2001 013f 08       		.uleb128 0x8
 2002 0140 3A       		.uleb128 0x3a
 2003 0141 0B       		.uleb128 0xb
 2004 0142 3B       		.uleb128 0x3b
 2005 0143 0B       		.uleb128 0xb
 2006 0144 39       		.uleb128 0x39
 2007 0145 0B       		.uleb128 0xb
 2008 0146 49       		.uleb128 0x49
 2009 0147 13       		.uleb128 0x13
 2010 0148 02       		.uleb128 0x2
 2011 0149 17       		.uleb128 0x17
 2012 014a B742     		.uleb128 0x2137
 2013 014c 17       		.uleb128 0x17
 2014 014d 00       		.byte	0
 2015 014e 00       		.byte	0
 2016 014f 18       		.uleb128 0x18
 2017 0150 05       		.uleb128 0x5
 2018 0151 00       		.byte	0
 2019 0152 03       		.uleb128 0x3
 2020 0153 0E       		.uleb128 0xe
 2021 0154 3A       		.uleb128 0x3a
 2022 0155 0B       		.uleb128 0xb
 2023 0156 3B       		.uleb128 0x3b
 2024 0157 0B       		.uleb128 0xb
 2025 0158 39       		.uleb128 0x39
 2026 0159 0B       		.uleb128 0xb
 2027 015a 49       		.uleb128 0x49
 2028 015b 13       		.uleb128 0x13
 2029 015c 02       		.uleb128 0x2
 2030 015d 17       		.uleb128 0x17
 2031 015e B742     		.uleb128 0x2137
 2032 0160 17       		.uleb128 0x17
 2033 0161 00       		.byte	0
 2034 0162 00       		.byte	0
 2035 0163 19       		.uleb128 0x19
 2036 0164 05       		.uleb128 0x5
 2037 0165 00       		.byte	0
 2038 0166 03       		.uleb128 0x3
 2039 0167 08       		.uleb128 0x8
 2040 0168 3A       		.uleb128 0x3a
 2041 0169 0B       		.uleb128 0xb
 2042 016a 3B       		.uleb128 0x3b
 2043 016b 0B       		.uleb128 0xb
 2044 016c 39       		.uleb128 0x39
 2045 016d 0B       		.uleb128 0xb
 2046 016e 49       		.uleb128 0x49
 2047 016f 13       		.uleb128 0x13
 2048 0170 02       		.uleb128 0x2
 2049 0171 18       		.uleb128 0x18
 2050 0172 00       		.byte	0
 2051 0173 00       		.byte	0
 2052 0174 1A       		.uleb128 0x1a
ARM GAS  /tmp/ccGXnhJg.s 			page 37


 2053 0175 34       		.uleb128 0x34
 2054 0176 00       		.byte	0
 2055 0177 03       		.uleb128 0x3
 2056 0178 08       		.uleb128 0x8
 2057 0179 3A       		.uleb128 0x3a
 2058 017a 0B       		.uleb128 0xb
 2059 017b 3B       		.uleb128 0x3b
 2060 017c 0B       		.uleb128 0xb
 2061 017d 39       		.uleb128 0x39
 2062 017e 0B       		.uleb128 0xb
 2063 017f 49       		.uleb128 0x49
 2064 0180 13       		.uleb128 0x13
 2065 0181 02       		.uleb128 0x2
 2066 0182 17       		.uleb128 0x17
 2067 0183 B742     		.uleb128 0x2137
 2068 0185 17       		.uleb128 0x17
 2069 0186 00       		.byte	0
 2070 0187 00       		.byte	0
 2071 0188 1B       		.uleb128 0x1b
 2072 0189 34       		.uleb128 0x34
 2073 018a 00       		.byte	0
 2074 018b 03       		.uleb128 0x3
 2075 018c 0E       		.uleb128 0xe
 2076 018d 49       		.uleb128 0x49
 2077 018e 13       		.uleb128 0x13
 2078 018f 34       		.uleb128 0x34
 2079 0190 19       		.uleb128 0x19
 2080 0191 00       		.byte	0
 2081 0192 00       		.byte	0
 2082 0193 1C       		.uleb128 0x1c
 2083 0194 34       		.uleb128 0x34
 2084 0195 00       		.byte	0
 2085 0196 03       		.uleb128 0x3
 2086 0197 08       		.uleb128 0x8
 2087 0198 3A       		.uleb128 0x3a
 2088 0199 0B       		.uleb128 0xb
 2089 019a 3B       		.uleb128 0x3b
 2090 019b 0B       		.uleb128 0xb
 2091 019c 39       		.uleb128 0x39
 2092 019d 0B       		.uleb128 0xb
 2093 019e 49       		.uleb128 0x49
 2094 019f 13       		.uleb128 0x13
 2095 01a0 02       		.uleb128 0x2
 2096 01a1 18       		.uleb128 0x18
 2097 01a2 00       		.byte	0
 2098 01a3 00       		.byte	0
 2099 01a4 1D       		.uleb128 0x1d
 2100 01a5 1D       		.uleb128 0x1d
 2101 01a6 01       		.byte	0x1
 2102 01a7 31       		.uleb128 0x31
 2103 01a8 13       		.uleb128 0x13
 2104 01a9 52       		.uleb128 0x52
 2105 01aa 01       		.uleb128 0x1
 2106 01ab B842     		.uleb128 0x2138
 2107 01ad 0B       		.uleb128 0xb
 2108 01ae 55       		.uleb128 0x55
 2109 01af 17       		.uleb128 0x17
ARM GAS  /tmp/ccGXnhJg.s 			page 38


 2110 01b0 58       		.uleb128 0x58
 2111 01b1 0B       		.uleb128 0xb
 2112 01b2 59       		.uleb128 0x59
 2113 01b3 0B       		.uleb128 0xb
 2114 01b4 57       		.uleb128 0x57
 2115 01b5 0B       		.uleb128 0xb
 2116 01b6 01       		.uleb128 0x1
 2117 01b7 13       		.uleb128 0x13
 2118 01b8 00       		.byte	0
 2119 01b9 00       		.byte	0
 2120 01ba 1E       		.uleb128 0x1e
 2121 01bb 1D       		.uleb128 0x1d
 2122 01bc 01       		.byte	0x1
 2123 01bd 31       		.uleb128 0x31
 2124 01be 13       		.uleb128 0x13
 2125 01bf 52       		.uleb128 0x52
 2126 01c0 01       		.uleb128 0x1
 2127 01c1 B842     		.uleb128 0x2138
 2128 01c3 0B       		.uleb128 0xb
 2129 01c4 55       		.uleb128 0x55
 2130 01c5 17       		.uleb128 0x17
 2131 01c6 58       		.uleb128 0x58
 2132 01c7 0B       		.uleb128 0xb
 2133 01c8 59       		.uleb128 0x59
 2134 01c9 05       		.uleb128 0x5
 2135 01ca 57       		.uleb128 0x57
 2136 01cb 0B       		.uleb128 0xb
 2137 01cc 00       		.byte	0
 2138 01cd 00       		.byte	0
 2139 01ce 1F       		.uleb128 0x1f
 2140 01cf 05       		.uleb128 0x5
 2141 01d0 00       		.byte	0
 2142 01d1 31       		.uleb128 0x31
 2143 01d2 13       		.uleb128 0x13
 2144 01d3 02       		.uleb128 0x2
 2145 01d4 17       		.uleb128 0x17
 2146 01d5 B742     		.uleb128 0x2137
 2147 01d7 17       		.uleb128 0x17
 2148 01d8 00       		.byte	0
 2149 01d9 00       		.byte	0
 2150 01da 20       		.uleb128 0x20
 2151 01db 0B       		.uleb128 0xb
 2152 01dc 01       		.byte	0x1
 2153 01dd 55       		.uleb128 0x55
 2154 01de 17       		.uleb128 0x17
 2155 01df 00       		.byte	0
 2156 01e0 00       		.byte	0
 2157 01e1 21       		.uleb128 0x21
 2158 01e2 1D       		.uleb128 0x1d
 2159 01e3 01       		.byte	0x1
 2160 01e4 31       		.uleb128 0x31
 2161 01e5 13       		.uleb128 0x13
 2162 01e6 52       		.uleb128 0x52
 2163 01e7 01       		.uleb128 0x1
 2164 01e8 B842     		.uleb128 0x2138
 2165 01ea 0B       		.uleb128 0xb
 2166 01eb 11       		.uleb128 0x11
ARM GAS  /tmp/ccGXnhJg.s 			page 39


 2167 01ec 01       		.uleb128 0x1
 2168 01ed 12       		.uleb128 0x12
 2169 01ee 06       		.uleb128 0x6
 2170 01ef 58       		.uleb128 0x58
 2171 01f0 0B       		.uleb128 0xb
 2172 01f1 59       		.uleb128 0x59
 2173 01f2 05       		.uleb128 0x5
 2174 01f3 57       		.uleb128 0x57
 2175 01f4 0B       		.uleb128 0xb
 2176 01f5 00       		.byte	0
 2177 01f6 00       		.byte	0
 2178 01f7 22       		.uleb128 0x22
 2179 01f8 898201   		.uleb128 0x4109
 2180 01fb 01       		.byte	0x1
 2181 01fc 11       		.uleb128 0x11
 2182 01fd 01       		.uleb128 0x1
 2183 01fe 31       		.uleb128 0x31
 2184 01ff 13       		.uleb128 0x13
 2185 0200 01       		.uleb128 0x1
 2186 0201 13       		.uleb128 0x13
 2187 0202 00       		.byte	0
 2188 0203 00       		.byte	0
 2189 0204 23       		.uleb128 0x23
 2190 0205 8A8201   		.uleb128 0x410a
 2191 0208 00       		.byte	0
 2192 0209 02       		.uleb128 0x2
 2193 020a 18       		.uleb128 0x18
 2194 020b 9142     		.uleb128 0x2111
 2195 020d 18       		.uleb128 0x18
 2196 020e 00       		.byte	0
 2197 020f 00       		.byte	0
 2198 0210 24       		.uleb128 0x24
 2199 0211 898201   		.uleb128 0x4109
 2200 0214 01       		.byte	0x1
 2201 0215 11       		.uleb128 0x11
 2202 0216 01       		.uleb128 0x1
 2203 0217 31       		.uleb128 0x31
 2204 0218 13       		.uleb128 0x13
 2205 0219 00       		.byte	0
 2206 021a 00       		.byte	0
 2207 021b 25       		.uleb128 0x25
 2208 021c 01       		.uleb128 0x1
 2209 021d 01       		.byte	0x1
 2210 021e 49       		.uleb128 0x49
 2211 021f 13       		.uleb128 0x13
 2212 0220 01       		.uleb128 0x1
 2213 0221 13       		.uleb128 0x13
 2214 0222 00       		.byte	0
 2215 0223 00       		.byte	0
 2216 0224 26       		.uleb128 0x26
 2217 0225 21       		.uleb128 0x21
 2218 0226 00       		.byte	0
 2219 0227 49       		.uleb128 0x49
 2220 0228 13       		.uleb128 0x13
 2221 0229 2F       		.uleb128 0x2f
 2222 022a 0B       		.uleb128 0xb
 2223 022b 00       		.byte	0
ARM GAS  /tmp/ccGXnhJg.s 			page 40


 2224 022c 00       		.byte	0
 2225 022d 27       		.uleb128 0x27
 2226 022e 2E       		.uleb128 0x2e
 2227 022f 01       		.byte	0x1
 2228 0230 03       		.uleb128 0x3
 2229 0231 0E       		.uleb128 0xe
 2230 0232 3A       		.uleb128 0x3a
 2231 0233 0B       		.uleb128 0xb
 2232 0234 3B       		.uleb128 0x3b
 2233 0235 05       		.uleb128 0x5
 2234 0236 39       		.uleb128 0x39
 2235 0237 0B       		.uleb128 0xb
 2236 0238 27       		.uleb128 0x27
 2237 0239 19       		.uleb128 0x19
 2238 023a 20       		.uleb128 0x20
 2239 023b 0B       		.uleb128 0xb
 2240 023c 01       		.uleb128 0x1
 2241 023d 13       		.uleb128 0x13
 2242 023e 00       		.byte	0
 2243 023f 00       		.byte	0
 2244 0240 28       		.uleb128 0x28
 2245 0241 2E       		.uleb128 0x2e
 2246 0242 00       		.byte	0
 2247 0243 03       		.uleb128 0x3
 2248 0244 0E       		.uleb128 0xe
 2249 0245 3A       		.uleb128 0x3a
 2250 0246 0B       		.uleb128 0xb
 2251 0247 3B       		.uleb128 0x3b
 2252 0248 05       		.uleb128 0x5
 2253 0249 39       		.uleb128 0x39
 2254 024a 0B       		.uleb128 0xb
 2255 024b 27       		.uleb128 0x27
 2256 024c 19       		.uleb128 0x19
 2257 024d 20       		.uleb128 0x20
 2258 024e 0B       		.uleb128 0xb
 2259 024f 00       		.byte	0
 2260 0250 00       		.byte	0
 2261 0251 29       		.uleb128 0x29
 2262 0252 05       		.uleb128 0x5
 2263 0253 00       		.byte	0
 2264 0254 03       		.uleb128 0x3
 2265 0255 0E       		.uleb128 0xe
 2266 0256 3A       		.uleb128 0x3a
 2267 0257 0B       		.uleb128 0xb
 2268 0258 3B       		.uleb128 0x3b
 2269 0259 05       		.uleb128 0x5
 2270 025a 39       		.uleb128 0x39
 2271 025b 0B       		.uleb128 0xb
 2272 025c 49       		.uleb128 0x49
 2273 025d 13       		.uleb128 0x13
 2274 025e 00       		.byte	0
 2275 025f 00       		.byte	0
 2276 0260 2A       		.uleb128 0x2a
 2277 0261 2E       		.uleb128 0x2e
 2278 0262 00       		.byte	0
 2279 0263 3F       		.uleb128 0x3f
 2280 0264 19       		.uleb128 0x19
ARM GAS  /tmp/ccGXnhJg.s 			page 41


 2281 0265 3C       		.uleb128 0x3c
 2282 0266 19       		.uleb128 0x19
 2283 0267 6E       		.uleb128 0x6e
 2284 0268 0E       		.uleb128 0xe
 2285 0269 03       		.uleb128 0x3
 2286 026a 0E       		.uleb128 0xe
 2287 026b 3A       		.uleb128 0x3a
 2288 026c 0B       		.uleb128 0xb
 2289 026d 3B       		.uleb128 0x3b
 2290 026e 0B       		.uleb128 0xb
 2291 026f 39       		.uleb128 0x39
 2292 0270 0B       		.uleb128 0xb
 2293 0271 00       		.byte	0
 2294 0272 00       		.byte	0
 2295 0273 2B       		.uleb128 0x2b
 2296 0274 2E       		.uleb128 0x2e
 2297 0275 00       		.byte	0
 2298 0276 3F       		.uleb128 0x3f
 2299 0277 19       		.uleb128 0x19
 2300 0278 3C       		.uleb128 0x3c
 2301 0279 19       		.uleb128 0x19
 2302 027a 6E       		.uleb128 0x6e
 2303 027b 0E       		.uleb128 0xe
 2304 027c 03       		.uleb128 0x3
 2305 027d 0E       		.uleb128 0xe
 2306 027e 3A       		.uleb128 0x3a
 2307 027f 0B       		.uleb128 0xb
 2308 0280 3B       		.uleb128 0x3b
 2309 0281 05       		.uleb128 0x5
 2310 0282 39       		.uleb128 0x39
 2311 0283 0B       		.uleb128 0xb
 2312 0284 00       		.byte	0
 2313 0285 00       		.byte	0
 2314 0286 00       		.byte	0
 2315              		.section	.debug_loc,"",%progbits
 2316              	.Ldebug_loc0:
 2317              	.LVUS8:
 2318 0000 00       		.uleb128 0
 2319 0001 00       		.uleb128 .LVU60
 2320 0002 00       		.uleb128 .LVU60
 2321 0003 00       		.uleb128 0
 2322              	.LLST8:
 2323 0004 00000000 		.4byte	.LVL11
 2324 0008 11000000 		.4byte	.LVL12-1
 2325 000c 0100     		.2byte	0x1
 2326 000e 50       		.byte	0x50
 2327 000f 11000000 		.4byte	.LVL12-1
 2328 0013 52000000 		.4byte	.LFE247
 2329 0017 0100     		.2byte	0x1
 2330 0019 55       		.byte	0x55
 2331 001a 00000000 		.4byte	0
 2332 001e 00000000 		.4byte	0
 2333              	.LVUS9:
 2334 0022 00       		.uleb128 0
 2335 0023 00       		.uleb128 .LVU60
 2336 0024 00       		.uleb128 .LVU60
 2337 0025 00       		.uleb128 0
ARM GAS  /tmp/ccGXnhJg.s 			page 42


 2338              	.LLST9:
 2339 0026 00000000 		.4byte	.LVL11
 2340 002a 11000000 		.4byte	.LVL12-1
 2341 002e 0100     		.2byte	0x1
 2342 0030 51       		.byte	0x51
 2343 0031 11000000 		.4byte	.LVL12-1
 2344 0035 52000000 		.4byte	.LFE247
 2345 0039 0100     		.2byte	0x1
 2346 003b 57       		.byte	0x57
 2347 003c 00000000 		.4byte	0
 2348 0040 00000000 		.4byte	0
 2349              	.LVUS10:
 2350 0044 00       		.uleb128 0
 2351 0045 00       		.uleb128 .LVU60
 2352 0046 00       		.uleb128 .LVU60
 2353 0047 00       		.uleb128 0
 2354              	.LLST10:
 2355 0048 00000000 		.4byte	.LVL11
 2356 004c 11000000 		.4byte	.LVL12-1
 2357 0050 0100     		.2byte	0x1
 2358 0052 52       		.byte	0x52
 2359 0053 11000000 		.4byte	.LVL12-1
 2360 0057 52000000 		.4byte	.LFE247
 2361 005b 0100     		.2byte	0x1
 2362 005d 58       		.byte	0x58
 2363 005e 00000000 		.4byte	0
 2364 0062 00000000 		.4byte	0
 2365              	.LVUS11:
 2366 0066 00       		.uleb128 0
 2367 0067 00       		.uleb128 .LVU60
 2368 0068 00       		.uleb128 .LVU60
 2369 0069 00       		.uleb128 0
 2370              	.LLST11:
 2371 006a 00000000 		.4byte	.LVL11
 2372 006e 11000000 		.4byte	.LVL12-1
 2373 0072 0100     		.2byte	0x1
 2374 0074 53       		.byte	0x53
 2375 0075 11000000 		.4byte	.LVL12-1
 2376 0079 52000000 		.4byte	.LFE247
 2377 007d 0100     		.2byte	0x1
 2378 007f 56       		.byte	0x56
 2379 0080 00000000 		.4byte	0
 2380 0084 00000000 		.4byte	0
 2381              	.LVUS12:
 2382 0088 00       		.uleb128 .LVU85
 2383 0089 00       		.uleb128 .LVU88
 2384 008a 00       		.uleb128 .LVU88
 2385 008b 02       		.uleb128 .LVU102
 2386              	.LLST12:
 2387 008c 40000000 		.4byte	.LVL18
 2388 0090 43000000 		.4byte	.LVL19-1
 2389 0094 0100     		.2byte	0x1
 2390 0096 50       		.byte	0x50
 2391 0097 43000000 		.4byte	.LVL19-1
 2392 009b 4A000000 		.4byte	.LVL20
 2393 009f 0100     		.2byte	0x1
 2394 00a1 54       		.byte	0x54
ARM GAS  /tmp/ccGXnhJg.s 			page 43


 2395 00a2 00000000 		.4byte	0
 2396 00a6 00000000 		.4byte	0
 2397              	.LVUS13:
 2398 00aa 00       		.uleb128 .LVU60
 2399 00ab 00       		.uleb128 .LVU64
 2400 00ac 00       		.uleb128 .LVU64
 2401 00ad 00       		.uleb128 .LVU66
 2402 00ae 00       		.uleb128 .LVU66
 2403 00af 00       		.uleb128 .LVU81
 2404              	.LLST13:
 2405 00b0 12000000 		.4byte	.LVL12
 2406 00b4 18000000 		.4byte	.LVL13
 2407 00b8 0100     		.2byte	0x1
 2408 00ba 50       		.byte	0x50
 2409 00bb 18000000 		.4byte	.LVL13
 2410 00bf 1E000000 		.4byte	.LVL14
 2411 00c3 0100     		.2byte	0x1
 2412 00c5 54       		.byte	0x54
 2413 00c6 1E000000 		.4byte	.LVL14
 2414 00ca 33000000 		.4byte	.LVL17-1
 2415 00ce 0200     		.2byte	0x2
 2416 00d0 91       		.byte	0x91
 2417 00d1 54       		.sleb128 -44
 2418 00d2 00000000 		.4byte	0
 2419 00d6 00000000 		.4byte	0
 2420              	.LVUS14:
 2421 00da 05       		.uleb128 .LVU72
 2422 00db 00       		.uleb128 .LVU76
 2423              	.LLST14:
 2424 00dc 20000000 		.4byte	.LVL15
 2425 00e0 2E000000 		.4byte	.LVL16
 2426 00e4 0300     		.2byte	0x3
 2427 00e6 08       		.byte	0x8
 2428 00e7 20       		.byte	0x20
 2429 00e8 9F       		.byte	0x9f
 2430 00e9 00000000 		.4byte	0
 2431 00ed 00000000 		.4byte	0
 2432              	.LVUS15:
 2433 00f1 0A       		.uleb128 .LVU98
 2434 00f2 00       		.uleb128 .LVU100
 2435              	.LLST15:
 2436 00f3 44000000 		.4byte	.LVL19
 2437 00f7 4A000000 		.4byte	.LVL20
 2438 00fb 0200     		.2byte	0x2
 2439 00fd 30       		.byte	0x30
 2440 00fe 9F       		.byte	0x9f
 2441 00ff 00000000 		.4byte	0
 2442 0103 00000000 		.4byte	0
 2443              	.LVUS0:
 2444 0107 00       		.uleb128 0
 2445 0108 00       		.uleb128 .LVU8
 2446 0109 00       		.uleb128 .LVU8
 2447 010a 00       		.uleb128 0
 2448              	.LLST0:
 2449 010b 00000000 		.4byte	.LVL0
 2450 010f 0F000000 		.4byte	.LVL2-1
 2451 0113 0100     		.2byte	0x1
ARM GAS  /tmp/ccGXnhJg.s 			page 44


 2452 0115 50       		.byte	0x50
 2453 0116 0F000000 		.4byte	.LVL2-1
 2454 011a 4C000000 		.4byte	.LFE246
 2455 011e 0400     		.2byte	0x4
 2456 0120 F3       		.byte	0xf3
 2457 0121 01       		.uleb128 0x1
 2458 0122 50       		.byte	0x50
 2459 0123 9F       		.byte	0x9f
 2460 0124 00000000 		.4byte	0
 2461 0128 00000000 		.4byte	0
 2462              	.LVUS1:
 2463 012c 00       		.uleb128 0
 2464 012d 00       		.uleb128 .LVU8
 2465 012e 00       		.uleb128 .LVU8
 2466 012f 00       		.uleb128 .LVU13
 2467 0130 00       		.uleb128 .LVU13
 2468 0131 00       		.uleb128 0
 2469              	.LLST1:
 2470 0132 00000000 		.4byte	.LVL0
 2471 0136 0F000000 		.4byte	.LVL2-1
 2472 013a 0100     		.2byte	0x1
 2473 013c 51       		.byte	0x51
 2474 013d 0F000000 		.4byte	.LVL2-1
 2475 0141 1A000000 		.4byte	.LVL3
 2476 0145 0100     		.2byte	0x1
 2477 0147 55       		.byte	0x55
 2478 0148 1A000000 		.4byte	.LVL3
 2479 014c 4C000000 		.4byte	.LFE246
 2480 0150 0400     		.2byte	0x4
 2481 0152 F3       		.byte	0xf3
 2482 0153 01       		.uleb128 0x1
 2483 0154 51       		.byte	0x51
 2484 0155 9F       		.byte	0x9f
 2485 0156 00000000 		.4byte	0
 2486 015a 00000000 		.4byte	0
 2487              	.LVUS2:
 2488 015e 00       		.uleb128 0
 2489 015f 00       		.uleb128 .LVU6
 2490 0160 00       		.uleb128 .LVU6
 2491 0161 00       		.uleb128 0
 2492              	.LLST2:
 2493 0162 00000000 		.4byte	.LVL0
 2494 0166 08000000 		.4byte	.LVL1
 2495 016a 0100     		.2byte	0x1
 2496 016c 52       		.byte	0x52
 2497 016d 08000000 		.4byte	.LVL1
 2498 0171 4C000000 		.4byte	.LFE246
 2499 0175 0100     		.2byte	0x1
 2500 0177 57       		.byte	0x57
 2501 0178 00000000 		.4byte	0
 2502 017c 00000000 		.4byte	0
 2503              	.LVUS3:
 2504 0180 00       		.uleb128 0
 2505 0181 00       		.uleb128 .LVU8
 2506 0182 00       		.uleb128 .LVU8
 2507 0183 00       		.uleb128 0
 2508              	.LLST3:
ARM GAS  /tmp/ccGXnhJg.s 			page 45


 2509 0184 00000000 		.4byte	.LVL0
 2510 0188 0F000000 		.4byte	.LVL2-1
 2511 018c 0100     		.2byte	0x1
 2512 018e 53       		.byte	0x53
 2513 018f 0F000000 		.4byte	.LVL2-1
 2514 0193 4C000000 		.4byte	.LFE246
 2515 0197 0100     		.2byte	0x1
 2516 0199 56       		.byte	0x56
 2517 019a 00000000 		.4byte	0
 2518 019e 00000000 		.4byte	0
 2519              	.LVUS4:
 2520 01a2 00       		.uleb128 .LVU32
 2521 01a3 00       		.uleb128 .LVU34
 2522 01a4 00       		.uleb128 .LVU34
 2523 01a5 02       		.uleb128 .LVU48
 2524              	.LLST4:
 2525 01a6 3C000000 		.4byte	.LVL8
 2526 01aa 3F000000 		.4byte	.LVL9-1
 2527 01ae 0100     		.2byte	0x1
 2528 01b0 50       		.byte	0x50
 2529 01b1 3F000000 		.4byte	.LVL9-1
 2530 01b5 46000000 		.4byte	.LVL10
 2531 01b9 0100     		.2byte	0x1
 2532 01bb 54       		.byte	0x54
 2533 01bc 00000000 		.4byte	0
 2534 01c0 00000000 		.4byte	0
 2535              	.LVUS5:
 2536 01c4 00       		.uleb128 .LVU8
 2537 01c5 00       		.uleb128 .LVU28
 2538 01c6 00       		.uleb128 .LVU28
 2539 01c7 00       		.uleb128 .LVU32
 2540              	.LLST5:
 2541 01c8 10000000 		.4byte	.LVL2
 2542 01cc 2E000000 		.4byte	.LVL6
 2543 01d0 0100     		.2byte	0x1
 2544 01d2 50       		.byte	0x50
 2545 01d3 2E000000 		.4byte	.LVL6
 2546 01d7 3C000000 		.4byte	.LVL8
 2547 01db 0100     		.2byte	0x1
 2548 01dd 54       		.byte	0x54
 2549 01de 00000000 		.4byte	0
 2550 01e2 00000000 		.4byte	0
 2551              	.LVUS6:
 2552 01e6 05       		.uleb128 .LVU19
 2553 01e7 00       		.uleb128 .LVU23
 2554              	.LLST6:
 2555 01e8 1E000000 		.4byte	.LVL4
 2556 01ec 2C000000 		.4byte	.LVL5
 2557 01f0 0300     		.2byte	0x3
 2558 01f2 08       		.byte	0x8
 2559 01f3 20       		.byte	0x20
 2560 01f4 9F       		.byte	0x9f
 2561 01f5 00000000 		.4byte	0
 2562 01f9 00000000 		.4byte	0
 2563              	.LVUS7:
 2564 01fd 0A       		.uleb128 .LVU44
 2565 01fe 00       		.uleb128 .LVU46
ARM GAS  /tmp/ccGXnhJg.s 			page 46


 2566              	.LLST7:
 2567 01ff 40000000 		.4byte	.LVL9
 2568 0203 46000000 		.4byte	.LVL10
 2569 0207 0200     		.2byte	0x2
 2570 0209 30       		.byte	0x30
 2571 020a 9F       		.byte	0x9f
 2572 020b 00000000 		.4byte	0
 2573 020f 00000000 		.4byte	0
 2574              		.section	.debug_aranges,"",%progbits
 2575 0000 24000000 		.4byte	0x24
 2576 0004 0200     		.2byte	0x2
 2577 0006 00000000 		.4byte	.Ldebug_info0
 2578 000a 04       		.byte	0x4
 2579 000b 00       		.byte	0
 2580 000c 0000     		.2byte	0
 2581 000e 0000     		.2byte	0
 2582 0010 00000000 		.4byte	.LFB246
 2583 0014 4C000000 		.4byte	.LFE246-.LFB246
 2584 0018 00000000 		.4byte	.LFB247
 2585 001c 52000000 		.4byte	.LFE247-.LFB247
 2586 0020 00000000 		.4byte	0
 2587 0024 00000000 		.4byte	0
 2588              		.section	.debug_ranges,"",%progbits
 2589              	.Ldebug_ranges0:
 2590 0000 1E000000 		.4byte	.LBB34
 2591 0004 1E000000 		.4byte	.LBE34
 2592 0008 1E000000 		.4byte	.LBB42
 2593 000c 1E000000 		.4byte	.LBE42
 2594 0010 1E000000 		.4byte	.LBB43
 2595 0014 1E000000 		.4byte	.LBE43
 2596 0018 26000000 		.4byte	.LBB44
 2597 001c 2C000000 		.4byte	.LBE44
 2598 0020 00000000 		.4byte	0
 2599 0024 00000000 		.4byte	0
 2600 0028 40000000 		.4byte	.LBB45
 2601 002c 40000000 		.4byte	.LBE45
 2602 0030 40000000 		.4byte	.LBB52
 2603 0034 46000000 		.4byte	.LBE52
 2604 0038 00000000 		.4byte	0
 2605 003c 00000000 		.4byte	0
 2606 0040 20000000 		.4byte	.LBB53
 2607 0044 20000000 		.4byte	.LBE53
 2608 0048 20000000 		.4byte	.LBB61
 2609 004c 20000000 		.4byte	.LBE61
 2610 0050 20000000 		.4byte	.LBB62
 2611 0054 20000000 		.4byte	.LBE62
 2612 0058 28000000 		.4byte	.LBB63
 2613 005c 2E000000 		.4byte	.LBE63
 2614 0060 00000000 		.4byte	0
 2615 0064 00000000 		.4byte	0
 2616 0068 44000000 		.4byte	.LBB64
 2617 006c 44000000 		.4byte	.LBE64
 2618 0070 44000000 		.4byte	.LBB71
 2619 0074 4A000000 		.4byte	.LBE71
 2620 0078 00000000 		.4byte	0
 2621 007c 00000000 		.4byte	0
 2622 0080 00000000 		.4byte	.LFB246
ARM GAS  /tmp/ccGXnhJg.s 			page 47


 2623 0084 4C000000 		.4byte	.LFE246
 2624 0088 00000000 		.4byte	.LFB247
 2625 008c 52000000 		.4byte	.LFE247
 2626 0090 00000000 		.4byte	0
 2627 0094 00000000 		.4byte	0
 2628              		.section	.debug_line,"",%progbits
 2629              	.Ldebug_line0:
 2630 0000 7D030000 		.section	.debug_str,"MS",%progbits,1
 2630      0300D101 
 2630      00000201 
 2630      FB0E0D00 
 2630      01010101 
 2631              	.LASF22:
 2632 0000 74687265 		.ascii	"thread_t\000"
 2632      61645F74 
 2632      00
 2633              	.LASF11:
 2634 0009 75696E74 		.ascii	"uint32_t\000"
 2634      33325F74 
 2634      00
 2635              	.LASF73:
 2636 0012 68656164 		.ascii	"header\000"
 2636      657200
 2637              	.LASF34:
 2638 0019 6570656E 		.ascii	"epending\000"
 2638      64696E67 
 2638      00
 2639              	.LASF29:
 2640 0022 73746174 		.ascii	"state\000"
 2640      6500
 2641              	.LASF13:
 2642 0028 75696E74 		.ascii	"uint64_t\000"
 2642      36345F74 
 2642      00
 2643              	.LASF64:
 2644 0031 77656E64 		.ascii	"wend\000"
 2644      00
 2645              	.LASF5:
 2646 0036 73697A65 		.ascii	"size_t\000"
 2646      5F7400
 2647              	.LASF74:
 2648 003d 68656170 		.ascii	"heap_header_t\000"
 2648      5F686561 
 2648      6465725F 
 2648      7400
 2649              	.LASF14:
 2650 004b 6C6F6E67 		.ascii	"long long unsigned int\000"
 2650      206C6F6E 
 2650      6720756E 
 2650      7369676E 
 2650      65642069 
 2651              	.LASF90:
 2652 0062 706F7274 		.ascii	"port_lock\000"
 2652      5F6C6F63 
 2652      6B00
 2653              	.LASF88:
 2654 006c 63685379 		.ascii	"chSysLock\000"
ARM GAS  /tmp/ccGXnhJg.s 			page 48


 2654      734C6F63 
 2654      6B00
 2655              	.LASF20:
 2656 0076 6576656E 		.ascii	"eventmask_t\000"
 2656      746D6173 
 2656      6B5F7400 
 2657              	.LASF77:
 2658 0082 75736564 		.ascii	"used\000"
 2658      00
 2659              	.LASF93:
 2660 0087 6368506F 		.ascii	"chPoolAlloc\000"
 2660      6F6C416C 
 2660      6C6F6300 
 2661              	.LASF41:
 2662 0093 63685F74 		.ascii	"ch_threads_list\000"
 2662      68726561 
 2662      64735F6C 
 2662      69737400 
 2663              	.LASF4:
 2664 00a3 73686F72 		.ascii	"short int\000"
 2664      7420696E 
 2664      7400
 2665              	.LASF101:
 2666 00ad 76616C75 		.ascii	"value\000"
 2666      6500
 2667              	.LASF33:
 2668 00b3 6D736771 		.ascii	"msgqueue\000"
 2668      75657565 
 2668      00
 2669              	.LASF46:
 2670 00bc 72656761 		.ascii	"regarm_t\000"
 2670      726D5F74 
 2670      00
 2671              	.LASF85:
 2672 00c5 63685468 		.ascii	"chThdCreateFromHeap\000"
 2672      64437265 
 2672      61746546 
 2672      726F6D48 
 2672      65617000 
 2673              	.LASF8:
 2674 00d9 75696E74 		.ascii	"uint8_t\000"
 2674      385F7400 
 2675              	.LASF44:
 2676 00e1 63685F74 		.ascii	"ch_threads_queue\000"
 2676      68726561 
 2676      64735F71 
 2676      75657565 
 2676      00
 2677              	.LASF45:
 2678 00f2 70726576 		.ascii	"prev\000"
 2678      00
 2679              	.LASF59:
 2680 00f7 63685F6D 		.ascii	"ch_mutex\000"
 2680      75746578 
 2680      00
 2681              	.LASF79:
 2682 0100 68656170 		.ascii	"heap\000"
ARM GAS  /tmp/ccGXnhJg.s 			page 49


 2682      00
 2683              	.LASF65:
 2684 0105 66756E63 		.ascii	"funcp\000"
 2684      7000
 2685              	.LASF40:
 2686 010b 63685F74 		.ascii	"ch_thread\000"
 2686      68726561 
 2686      6400
 2687              	.LASF26:
 2688 0115 6F6C6465 		.ascii	"older\000"
 2688      7200
 2689              	.LASF28:
 2690 011b 77616261 		.ascii	"wabase\000"
 2690      736500
 2691              	.LASF98:
 2692 0122 2E2E2F2E 		.ascii	"../../../os/rt/src/chdynamic.c\000"
 2692      2E2F2E2E 
 2692      2F6F732F 
 2692      72742F73 
 2692      72632F63 
 2693              	.LASF2:
 2694 0141 6C6F6E67 		.ascii	"long double\000"
 2694      20646F75 
 2694      626C6500 
 2695              	.LASF15:
 2696 014d 746D6F64 		.ascii	"tmode_t\000"
 2696      655F7400 
 2697              	.LASF1:
 2698 0155 6C6F6E67 		.ascii	"long long int\000"
 2698      206C6F6E 
 2698      6720696E 
 2698      7400
 2699              	.LASF55:
 2700 0163 77747365 		.ascii	"wtsemp\000"
 2700      6D7000
 2701              	.LASF18:
 2702 016a 74707269 		.ascii	"tprio_t\000"
 2702      6F5F7400 
 2703              	.LASF86:
 2704 0172 68656170 		.ascii	"heapp\000"
 2704      7000
 2705              	.LASF7:
 2706 0178 6C6F6E67 		.ascii	"long int\000"
 2706      20696E74 
 2706      00
 2707              	.LASF99:
 2708 0181 2F686F6D 		.ascii	"/home/tfateba/nlab/ip/trunk/demos/STM32/RT-STM32F40"
 2708      652F7466 
 2708      61746562 
 2708      612F6E6C 
 2708      61622F69 
 2709 01b4 372D4449 		.ascii	"7-DISCOVERY-G++\000"
 2709      53434F56 
 2709      4552592D 
 2709      472B2B00 
 2710              	.LASF48:
 2711 01c4 706F7274 		.ascii	"port_context\000"
ARM GAS  /tmp/ccGXnhJg.s 			page 50


 2711      5F636F6E 
 2711      74657874 
 2711      00
 2712              	.LASF84:
 2713 01d1 63685468 		.ascii	"chThdCreateFromMemoryPool\000"
 2713      64437265 
 2713      61746546 
 2713      726F6D4D 
 2713      656D6F72 
 2714              	.LASF66:
 2715 01eb 74687265 		.ascii	"thread_descriptor_t\000"
 2715      61645F64 
 2715      65736372 
 2715      6970746F 
 2715      725F7400 
 2716              	.LASF25:
 2717 01ff 6E657765 		.ascii	"newer\000"
 2717      7200
 2718              	.LASF23:
 2719 0205 71756575 		.ascii	"queue\000"
 2719      6500
 2720              	.LASF27:
 2721 020b 6E616D65 		.ascii	"name\000"
 2721      00
 2722              	.LASF94:
 2723 0210 63685468 		.ascii	"chThdCreateSuspendedI\000"
 2723      64437265 
 2723      61746553 
 2723      75737065 
 2723      6E646564 
 2724              	.LASF9:
 2725 0226 756E7369 		.ascii	"unsigned char\000"
 2725      676E6564 
 2725      20636861 
 2725      7200
 2726              	.LASF87:
 2727 0234 5F5F6675 		.ascii	"__func__\000"
 2727      6E635F5F 
 2727      00
 2728              	.LASF60:
 2729 023d 6F776E65 		.ascii	"owner\000"
 2729      7200
 2730              	.LASF39:
 2731 0243 74687265 		.ascii	"threads_list_t\000"
 2731      6164735F 
 2731      6C697374 
 2731      5F7400
 2732              	.LASF57:
 2733 0252 65776D61 		.ascii	"ewmask\000"
 2733      736B00
 2734              	.LASF3:
 2735 0259 7369676E 		.ascii	"signed char\000"
 2735      65642063 
 2735      68617200 
 2736              	.LASF30:
 2737 0265 666C6167 		.ascii	"flags\000"
 2737      7300
ARM GAS  /tmp/ccGXnhJg.s 			page 51


 2738              	.LASF95:
 2739 026b 63685363 		.ascii	"chSchWakeupS\000"
 2739      6857616B 
 2739      65757053 
 2739      00
 2740              	.LASF72:
 2741 0278 70726F76 		.ascii	"provider\000"
 2741      69646572 
 2741      00
 2742              	.LASF0:
 2743 0281 756E7369 		.ascii	"unsigned int\000"
 2743      676E6564 
 2743      20696E74 
 2743      00
 2744              	.LASF63:
 2745 028e 77626173 		.ascii	"wbase\000"
 2745      6500
 2746              	.LASF67:
 2747 0294 6D757465 		.ascii	"mutex_t\000"
 2747      785F7400 
 2748              	.LASF69:
 2749 029c 6D656D67 		.ascii	"memgetfunc_t\000"
 2749      65746675 
 2749      6E635F74 
 2749      00
 2750              	.LASF43:
 2751 02a9 74687265 		.ascii	"threads_queue_t\000"
 2751      6164735F 
 2751      71756575 
 2751      655F7400 
 2752              	.LASF10:
 2753 02b9 73686F72 		.ascii	"short unsigned int\000"
 2753      7420756E 
 2753      7369676E 
 2753      65642069 
 2753      6E7400
 2754              	.LASF42:
 2755 02cc 6E657874 		.ascii	"next\000"
 2755      00
 2756              	.LASF97:
 2757 02d1 474E5520 		.ascii	"GNU C17 10.3.1 20210621 (release) -mcpu=cortex-m4 -"
 2757      43313720 
 2757      31302E33 
 2757      2E312032 
 2757      30323130 
 2758 0304 6D6E6F2D 		.ascii	"mno-thumb-interwork -mthumb -mfloat-abi=soft -march"
 2758      7468756D 
 2758      622D696E 
 2758      74657277 
 2758      6F726B20 
 2759 0337 3D61726D 		.ascii	"=armv7e-m -ggdb -O2 -fomit-frame-pointer -falign-fu"
 2759      7637652D 
 2759      6D202D67 
 2759      67646220 
 2759      2D4F3220 
 2760 036a 6E637469 		.ascii	"nctions=16 -ffunction-sections -fdata-sections -fno"
 2760      6F6E733D 
ARM GAS  /tmp/ccGXnhJg.s 			page 52


 2760      3136202D 
 2760      6666756E 
 2760      6374696F 
 2761 039d 2D636F6D 		.ascii	"-common\000"
 2761      6D6F6E00 
 2762              	.LASF61:
 2763 03a5 63686172 		.ascii	"char\000"
 2763      00
 2764              	.LASF62:
 2765 03aa 7466756E 		.ascii	"tfunc_t\000"
 2765      635F7400 
 2766              	.LASF6:
 2767 03b2 696E7433 		.ascii	"int32_t\000"
 2767      325F7400 
 2768              	.LASF82:
 2769 03ba 6F626A65 		.ascii	"object_size\000"
 2769      63745F73 
 2769      697A6500 
 2770              	.LASF21:
 2771 03c6 636E745F 		.ascii	"cnt_t\000"
 2771      7400
 2772              	.LASF36:
 2773 03cc 7265616C 		.ascii	"realprio\000"
 2773      7072696F 
 2773      00
 2774              	.LASF68:
 2775 03d5 5F426F6F 		.ascii	"_Bool\000"
 2775      6C00
 2776              	.LASF89:
 2777 03db 706F7274 		.ascii	"port_unlock\000"
 2777      5F756E6C 
 2777      6F636B00 
 2778              	.LASF71:
 2779 03e7 6D656D6F 		.ascii	"memory_heap\000"
 2779      72795F68 
 2779      65617000 
 2780              	.LASF83:
 2781 03f3 6D656D6F 		.ascii	"memory_pool_t\000"
 2781      72795F70 
 2781      6F6F6C5F 
 2781      7400
 2782              	.LASF80:
 2783 0401 73697A65 		.ascii	"size\000"
 2783      00
 2784              	.LASF31:
 2785 0406 72656673 		.ascii	"refs\000"
 2785      00
 2786              	.LASF12:
 2787 040b 6C6F6E67 		.ascii	"long unsigned int\000"
 2787      20756E73 
 2787      69676E65 
 2787      6420696E 
 2787      7400
 2788              	.LASF96:
 2789 041d 63684865 		.ascii	"chHeapAllocAligned\000"
 2789      6170416C 
 2789      6C6F6341 
ARM GAS  /tmp/ccGXnhJg.s 			page 53


 2789      6C69676E 
 2789      656400
 2790              	.LASF92:
 2791 0430 5F5F7365 		.ascii	"__set_BASEPRI\000"
 2791      745F4241 
 2791      53455052 
 2791      4900
 2792              	.LASF91:
 2793 043e 63685379 		.ascii	"chSysUnlock\000"
 2793      73556E6C 
 2793      6F636B00 
 2794              	.LASF58:
 2795 044a 63685F73 		.ascii	"ch_semaphore\000"
 2795      656D6170 
 2795      686F7265 
 2795      00
 2796              	.LASF49:
 2797 0457 706F7274 		.ascii	"port_intctx\000"
 2797      5F696E74 
 2797      63747800 
 2798              	.LASF75:
 2799 0463 616C6967 		.ascii	"align\000"
 2799      6E00
 2800              	.LASF38:
 2801 0469 74687265 		.ascii	"thread_reference_t\000"
 2801      61645F72 
 2801      65666572 
 2801      656E6365 
 2801      5F7400
 2802              	.LASF52:
 2803 047c 77746F62 		.ascii	"wtobjp\000"
 2803      6A7000
 2804              	.LASF16:
 2805 0483 74737461 		.ascii	"tstate_t\000"
 2805      74655F74 
 2805      00
 2806              	.LASF47:
 2807 048c 73746B61 		.ascii	"stkalign_t\000"
 2807      6C69676E 
 2807      5F7400
 2808              	.LASF51:
 2809 0497 65786974 		.ascii	"exitcode\000"
 2809      636F6465 
 2809      00
 2810              	.LASF37:
 2811 04a0 6D706F6F 		.ascii	"mpool\000"
 2811      6C00
 2812              	.LASF81:
 2813 04a6 706F6F6C 		.ascii	"pool_header\000"
 2813      5F686561 
 2813      64657200 
 2814              	.LASF100:
 2815 04b2 68656170 		.ascii	"heap_header\000"
 2815      5F686561 
 2815      64657200 
 2816              	.LASF32:
 2817 04be 77616974 		.ascii	"waiting\000"
ARM GAS  /tmp/ccGXnhJg.s 			page 54


 2817      696E6700 
 2818              	.LASF35:
 2819 04c6 6D74786C 		.ascii	"mtxlist\000"
 2819      69737400 
 2820              	.LASF76:
 2821 04ce 66726565 		.ascii	"free\000"
 2821      00
 2822              	.LASF78:
 2823 04d3 70616765 		.ascii	"pages\000"
 2823      7300
 2824              	.LASF50:
 2825 04d9 7264796D 		.ascii	"rdymsg\000"
 2825      736700
 2826              	.LASF19:
 2827 04e0 6D73675F 		.ascii	"msg_t\000"
 2827      7400
 2828              	.LASF24:
 2829 04e6 7072696F 		.ascii	"prio\000"
 2829      00
 2830              	.LASF54:
 2831 04eb 73656E74 		.ascii	"sentmsg\000"
 2831      6D736700 
 2832              	.LASF53:
 2833 04f3 77747472 		.ascii	"wttrp\000"
 2833      7000
 2834              	.LASF56:
 2835 04f9 77746D74 		.ascii	"wtmtxp\000"
 2835      787000
 2836              	.LASF17:
 2837 0500 74726566 		.ascii	"trefs_t\000"
 2837      735F7400 
 2838              	.LASF70:
 2839 0508 6D656D6F 		.ascii	"memory_heap_t\000"
 2839      72795F68 
 2839      6561705F 
 2839      7400
 2840              		.ident	"GCC: (15:10.3-2021.07-4) 10.3.1 20210621 (release)"
ARM GAS  /tmp/ccGXnhJg.s 			page 55


DEFINED SYMBOLS
                            *ABS*:0000000000000000 chdynamic.c
     /tmp/ccGXnhJg.s:16     .text.chThdCreateFromHeap:0000000000000000 $t
     /tmp/ccGXnhJg.s:25     .text.chThdCreateFromHeap:0000000000000000 chThdCreateFromHeap
     /tmp/ccGXnhJg.s:194    .text.chThdCreateFromMemoryPool:0000000000000000 $t
     /tmp/ccGXnhJg.s:202    .text.chThdCreateFromMemoryPool:0000000000000000 chThdCreateFromMemoryPool

UNDEFINED SYMBOLS
chHeapAllocAligned
chThdCreateSuspendedI
chSchWakeupS
chPoolAlloc
