ARM GAS  /tmp/ccGXnhJg.s 			page 1


   1              		.cpu cortex-m4
   2              		.eabi_attribute 20, 1
   3              		.eabi_attribute 21, 1
   4              		.eabi_attribute 23, 3
   5              		.eabi_attribute 24, 1
   6              		.eabi_attribute 25, 1
   7              		.eabi_attribute 26, 1
   8              		.eabi_attribute 30, 2
   9              		.eabi_attribute 34, 1
  10              		.eabi_attribute 18, 4
  11              		.file	"chdynamic.c"
  12              		.text
  13              	.Ltext0:
  14              		.cfi_sections	.debug_frame
  15              		.section	.text.chThdCreateFromHeap,"ax",%progbits
  16              		.align	1
  17              		.p2align 4,,15
  18              		.global	chThdCreateFromHeap
  19              		.arch armv7e-m
  20              		.syntax unified
  21              		.thumb
  22              		.thumb_func
  23              		.fpu softvfp
  24              		.type	chThdCreateFromHeap, %function
  25              	chThdCreateFromHeap:
  26              	.LVL0:
  27              	.LFB246:
  28              		.file 1 "../../../os/rt/src/chdynamic.c"
  29              		.loc 1 84 54 view -0
  30              		.cfi_startproc
  31              		@ args = 8, pretend = 0, frame = 24
  32              		@ frame_needed = 0, uses_anonymous_args = 0
  33              		.loc 1 85 3 view .LVU1
  34              		.loc 1 86 3 view .LVU2
  35              		.loc 1 88 3 view .LVU3
  36              		.loc 1 84 54 is_stmt 0 view .LVU4
  37 0000 F0B5     		push	{r4, r5, r6, r7, lr}
  38              		.cfi_def_cfa_offset 20
  39              		.cfi_offset 4, -20
  40              		.cfi_offset 5, -16
  41              		.cfi_offset 6, -12
  42              		.cfi_offset 7, -8
  43              		.cfi_offset 14, -4
  44 0002 1746     		mov	r7, r2
  45 0004 87B0     		sub	sp, sp, #28
  46              		.cfi_def_cfa_offset 48
  47              		.loc 1 88 9 view .LVU5
  48 0006 0822     		movs	r2, #8
  49              	.LVL1:
  50              		.loc 1 84 54 view .LVU6
  51 0008 0D46     		mov	r5, r1
  52 000a 1E46     		mov	r6, r3
  53              		.loc 1 88 9 view .LVU7
  54 000c FFF7FEFF 		bl	chHeapAllocAligned
  55              	.LVL2:
  56              		.loc 1 89 3 is_stmt 1 view .LVU8
  57              		.loc 1 89 6 is_stmt 0 view .LVU9
ARM GAS  /tmp/ccGXnhJg.s 			page 2


  58 0010 0446     		mov	r4, r0
  59 0012 C0B1     		cbz	r0, .L1
  60              		.loc 1 93 3 is_stmt 1 view .LVU10
  61              		.loc 1 93 23 is_stmt 0 view .LVU11
  62 0014 0C9B     		ldr	r3, [sp, #48]
  63 0016 0493     		str	r3, [sp, #16]
  64              		.loc 1 96 5 view .LVU12
  65 0018 0544     		add	r5, r5, r0
  66              	.LVL3:
  67              		.loc 1 93 23 view .LVU13
  68 001a 0D9B     		ldr	r3, [sp, #52]
  69 001c 0593     		str	r3, [sp, #20]
  70              		.loc 1 108 3 is_stmt 1 view .LVU14
  71              	.LBB34:
  72              	.LBI34:
  73              		.file 2 "../../../os/rt/include/chsys.h"
  74              		.loc 2 374 20 view .LVU15
  75              	.LBE34:
  76              		.loc 2 376 3 view .LVU16
  77              	.LBB42:
  78              	.LBB35:
  79              	.LBI35:
  80              		.file 3 "../../../os/common/ports/ARMCMx/chcore_v7m.h"
  81              		.loc 3 594 20 view .LVU17
  82              	.LBE35:
  83              	.LBE42:
  84              		.loc 3 602 3 view .LVU18
  85              	.LVL4:
  86              	.LBB43:
  87              	.LBB40:
  88              	.LBB36:
  89              	.LBI36:
  90              		.file 4 "../../../os/common/ext/CMSIS/include/cmsis_gcc.h"
  91              		.loc 4 262 57 view .LVU19
  92              	.LBB37:
  93              		.loc 4 264 3 view .LVU20
  94              	.LBE37:
  95              	.LBE36:
  96              	.LBE40:
  97              	.LBE43:
  98              		.loc 1 93 23 is_stmt 0 view .LVU21
  99 001e 0295     		str	r5, [sp, #8]
 100 0020 CDE90070 		strd	r7, r0, [sp]
 101 0024 0396     		str	r6, [sp, #12]
 102              	.LBB44:
 103              	.LBB41:
 104              	.LBB39:
 105              	.LBB38:
 106              		.loc 4 264 3 view .LVU22
 107 0026 2023     		movs	r3, #32
 108              		.syntax unified
 109              	@ 264 "../../../os/common/ext/CMSIS/include/cmsis_gcc.h" 1
 110 0028 83F31188 		MSR basepri, r3
 111              	@ 0 "" 2
 112              	.LVL5:
 113              		.loc 4 264 3 view .LVU23
 114              		.thumb
ARM GAS  /tmp/ccGXnhJg.s 			page 3


 115              		.syntax unified
 116              	.LBE38:
 117              	.LBE39:
 118              	.LBE41:
 119              	.LBE44:
 120              		.loc 2 377 34 is_stmt 1 view .LVU24
 121              		.loc 2 378 20 view .LVU25
 122              		.loc 1 109 3 view .LVU26
 123              		.loc 1 109 8 is_stmt 0 view .LVU27
 124 002c 6846     		mov	r0, sp
 125              	.LVL6:
 126              		.loc 1 109 8 view .LVU28
 127 002e FFF7FEFF 		bl	chThdCreateSuspendedI
 128              	.LVL7:
 129              		.loc 1 110 13 view .LVU29
 130 0032 0123     		movs	r3, #1
 131 0034 80F82130 		strb	r3, [r0, #33]
 132              		.loc 1 111 3 view .LVU30
 133 0038 0021     		movs	r1, #0
 134              		.loc 1 109 8 view .LVU31
 135 003a 0446     		mov	r4, r0
 136              	.LVL8:
 137              		.loc 1 110 3 is_stmt 1 view .LVU32
 138              		.loc 1 111 3 view .LVU33
 139 003c FFF7FEFF 		bl	chSchWakeupS
 140              	.LVL9:
 141              		.loc 1 112 3 view .LVU34
 142              	.LBB45:
 143              	.LBI45:
 144              		.loc 2 386 20 view .LVU35
 145              	.LBB46:
 146              		.loc 2 388 22 view .LVU36
 147              		.loc 2 389 33 view .LVU37
 148              		.loc 2 395 3 view .LVU38
 149              		.loc 2 395 3 view .LVU39
 150              		.loc 2 395 3 view .LVU40
 151              		.loc 2 399 3 view .LVU41
 152              	.LBB47:
 153              	.LBI47:
 154              		.loc 3 618 20 view .LVU42
 155              	.LBE47:
 156              	.LBE46:
 157              	.LBE45:
 158              		.loc 3 621 3 view .LVU43
 159              	.LBB52:
 160              	.LBB51:
 161              	.LBB50:
 162              	.LBB48:
 163              	.LBI48:
 164              		.loc 4 262 57 view .LVU44
 165              	.LBB49:
 166              		.loc 4 264 3 view .LVU45
 167 0040 0023     		movs	r3, #0
 168              		.syntax unified
 169              	@ 264 "../../../os/common/ext/CMSIS/include/cmsis_gcc.h" 1
 170 0042 83F31188 		MSR basepri, r3
 171              	@ 0 "" 2
ARM GAS  /tmp/ccGXnhJg.s 			page 4


 172              	.LVL10:
 173              		.loc 4 264 3 is_stmt 0 view .LVU46
 174              		.thumb
 175              		.syntax unified
 176              	.LBE49:
 177              	.LBE48:
 178              	.LBE50:
 179              	.LBE51:
 180              	.LBE52:
 181              		.loc 1 114 3 is_stmt 1 view .LVU47
 182              	.L1:
 183              		.loc 1 115 1 is_stmt 0 view .LVU48
 184 0046 2046     		mov	r0, r4
 185 0048 07B0     		add	sp, sp, #28
 186              		.cfi_def_cfa_offset 20
 187              		@ sp needed
 188 004a F0BD     		pop	{r4, r5, r6, r7, pc}
 189              		.loc 1 115 1 view .LVU49
 190              		.cfi_endproc
 191              	.LFE246:
 192              		.size	chThdCreateFromHeap, .-chThdCreateFromHeap
 193              		.section	.text.chThdCreateFromMemoryPool,"ax",%progbits
 194              		.align	1
 195              		.p2align 4,,15
 196              		.global	chThdCreateFromMemoryPool
 197              		.syntax unified
 198              		.thumb
 199              		.thumb_func
 200              		.fpu softvfp
 201              		.type	chThdCreateFromMemoryPool, %function
 202              	chThdCreateFromMemoryPool:
 203              	.LVL11:
 204              	.LFB247:
 205              		.loc 1 146 74 is_stmt 1 view -0
 206              		.cfi_startproc
 207              		@ args = 4, pretend = 0, frame = 24
 208              		@ frame_needed = 0, uses_anonymous_args = 0
 209              		.loc 1 147 3 view .LVU51
 210              		.loc 1 148 3 view .LVU52
 211              		.loc 1 150 3 view .LVU53
 212              		.loc 1 150 3 view .LVU54
 213              		.loc 1 150 3 view .LVU55
 214              		.loc 1 152 3 view .LVU56
 215              		.loc 1 146 74 is_stmt 0 view .LVU57
 216 0000 2DE9F041 		push	{r4, r5, r6, r7, r8, lr}
 217              		.cfi_def_cfa_offset 24
 218              		.cfi_offset 4, -24
 219              		.cfi_offset 5, -20
 220              		.cfi_offset 6, -16
 221              		.cfi_offset 7, -12
 222              		.cfi_offset 8, -8
 223              		.cfi_offset 14, -4
 224 0004 86B0     		sub	sp, sp, #24
 225              		.cfi_def_cfa_offset 48
 226              		.loc 1 146 74 view .LVU58
 227 0006 0546     		mov	r5, r0
 228 0008 0F46     		mov	r7, r1
ARM GAS  /tmp/ccGXnhJg.s 			page 5


 229 000a 9046     		mov	r8, r2
 230 000c 1E46     		mov	r6, r3
 231              		.loc 1 152 9 view .LVU59
 232 000e FFF7FEFF 		bl	chPoolAlloc
 233              	.LVL12:
 234              		.loc 1 153 3 is_stmt 1 view .LVU60
 235              		.loc 1 153 6 is_stmt 0 view .LVU61
 236 0012 0446     		mov	r4, r0
 237 0014 C8B1     		cbz	r0, .L8
 238              		.loc 1 157 3 is_stmt 1 view .LVU62
 239              		.loc 1 160 5 is_stmt 0 view .LVU63
 240 0016 6868     		ldr	r0, [r5, #4]
 241              	.LVL13:
 242              		.loc 1 157 23 view .LVU64
 243 0018 0C9B     		ldr	r3, [sp, #48]
 244 001a 0194     		str	r4, [sp, #4]
 245              		.loc 1 160 5 view .LVU65
 246 001c 0444     		add	r4, r4, r0
 247              	.LVL14:
 248              		.loc 1 157 23 view .LVU66
 249 001e 0593     		str	r3, [sp, #20]
 250              		.loc 1 172 3 is_stmt 1 view .LVU67
 251              	.LBB53:
 252              	.LBI53:
 253              		.loc 2 374 20 view .LVU68
 254              	.LBE53:
 255              		.loc 2 376 3 view .LVU69
 256              	.LBB61:
 257              	.LBB54:
 258              	.LBI54:
 259              		.loc 3 594 20 view .LVU70
 260              	.LBE54:
 261              	.LBE61:
 262              		.loc 3 602 3 view .LVU71
 263              	.LVL15:
 264              	.LBB62:
 265              	.LBB59:
 266              	.LBB55:
 267              	.LBI55:
 268              		.loc 4 262 57 view .LVU72
 269              	.LBB56:
 270              		.loc 4 264 3 view .LVU73
 271              	.LBE56:
 272              	.LBE55:
 273              	.LBE59:
 274              	.LBE62:
 275              		.loc 1 157 23 is_stmt 0 view .LVU74
 276 0020 0097     		str	r7, [sp]
 277 0022 CDE90248 		strd	r4, r8, [sp, #8]
 278 0026 0496     		str	r6, [sp, #16]
 279              	.LBB63:
 280              	.LBB60:
 281              	.LBB58:
 282              	.LBB57:
 283              		.loc 4 264 3 view .LVU75
 284 0028 2023     		movs	r3, #32
 285              		.syntax unified
ARM GAS  /tmp/ccGXnhJg.s 			page 6


 286              	@ 264 "../../../os/common/ext/CMSIS/include/cmsis_gcc.h" 1
 287 002a 83F31188 		MSR basepri, r3
 288              	@ 0 "" 2
 289              	.LVL16:
 290              		.loc 4 264 3 view .LVU76
 291              		.thumb
 292              		.syntax unified
 293              	.LBE57:
 294              	.LBE58:
 295              	.LBE60:
 296              	.LBE63:
 297              		.loc 2 377 34 is_stmt 1 view .LVU77
 298              		.loc 2 378 20 view .LVU78
 299              		.loc 1 173 3 view .LVU79
 300              		.loc 1 173 8 is_stmt 0 view .LVU80
 301 002e 6846     		mov	r0, sp
 302 0030 FFF7FEFF 		bl	chThdCreateSuspendedI
 303              	.LVL17:
 304              		.loc 1 174 13 view .LVU81
 305 0034 0223     		movs	r3, #2
 306 0036 80F82130 		strb	r3, [r0, #33]
 307              		.loc 1 175 13 view .LVU82
 308 003a 0564     		str	r5, [r0, #64]
 309              		.loc 1 176 3 view .LVU83
 310 003c 0021     		movs	r1, #0
 311              		.loc 1 173 8 view .LVU84
 312 003e 0446     		mov	r4, r0
 313              	.LVL18:
 314              		.loc 1 174 3 is_stmt 1 view .LVU85
 315              		.loc 1 175 3 view .LVU86
 316              		.loc 1 176 3 view .LVU87
 317 0040 FFF7FEFF 		bl	chSchWakeupS
 318              	.LVL19:
 319              		.loc 1 177 3 view .LVU88
 320              	.LBB64:
 321              	.LBI64:
 322              		.loc 2 386 20 view .LVU89
 323              	.LBB65:
 324              		.loc 2 388 22 view .LVU90
 325              		.loc 2 389 33 view .LVU91
 326              		.loc 2 395 3 view .LVU92
 327              		.loc 2 395 3 view .LVU93
 328              		.loc 2 395 3 view .LVU94
 329              		.loc 2 399 3 view .LVU95
 330              	.LBB66:
 331              	.LBI66:
 332              		.loc 3 618 20 view .LVU96
 333              	.LBE66:
 334              	.LBE65:
 335              	.LBE64:
 336              		.loc 3 621 3 view .LVU97
 337              	.LBB71:
 338              	.LBB70:
 339              	.LBB69:
 340              	.LBB67:
 341              	.LBI67:
 342              		.loc 4 262 57 view .LVU98
ARM GAS  /tmp/ccGXnhJg.s 			page 7


 343              	.LBB68:
 344              		.loc 4 264 3 view .LVU99
 345 0044 0023     		movs	r3, #0
 346              		.syntax unified
 347              	@ 264 "../../../os/common/ext/CMSIS/include/cmsis_gcc.h" 1
 348 0046 83F31188 		MSR basepri, r3
 349              	@ 0 "" 2
 350              	.LVL20:
 351              		.loc 4 264 3 is_stmt 0 view .LVU100
 352              		.thumb
 353              		.syntax unified
 354              	.LBE68:
 355              	.LBE67:
 356              	.LBE69:
 357              	.LBE70:
 358              	.LBE71:
 359              		.loc 1 179 3 is_stmt 1 view .LVU101
 360              	.L8:
 361              		.loc 1 180 1 is_stmt 0 view .LVU102
 362 004a 2046     		mov	r0, r4
 363 004c 06B0     		add	sp, sp, #24
 364              		.cfi_def_cfa_offset 24
 365              		@ sp needed
 366 004e BDE8F081 		pop	{r4, r5, r6, r7, r8, pc}
 367              		.loc 1 180 1 view .LVU103
 368              		.cfi_endproc
 369              	.LFE247:
 370              		.size	chThdCreateFromMemoryPool, .-chThdCreateFromMemoryPool
 371 0052 00BF     		.text
 372              	.Letext0:
 373              		.file 5 "/usr/lib/gcc/arm-none-eabi/10.3.1/include/stddef.h"
 374              		.file 6 "/usr/lib/gcc/arm-none-eabi/10.3.1/include/stdint.h"
 375              		.file 7 "../../../os/common/ports/ARMCMx/compilers/GCC/chtypes.h"
 376              		.file 8 "../../../os/rt/include/chsystypes.h"
 377              		.file 9 "../../../os/rt/include/chschd.h"
 378              		.file 10 "../../../os/common/ports/ARMCMx/chcore.h"
 379              		.file 11 "../../../os/rt/include/chsem.h"
 380              		.file 12 "../../../os/rt/include/chmtx.h"
 381              		.file 13 "../../../os/rt/include/chthreads.h"
 382              		.file 14 "../../../os/common/oslib/include/chmemcore.h"
 383              		.file 15 "../../../os/common/oslib/include/chheap.h"
 384              		.file 16 "../../../os/common/oslib/include/chmempools.h"