ARM GAS  /tmp/ccPZZrVn.s 			page 1


   1              		.cpu cortex-m4
   2              		.eabi_attribute 20, 1
   3              		.eabi_attribute 21, 1
   4              		.eabi_attribute 23, 3
   5              		.eabi_attribute 24, 1
   6              		.eabi_attribute 25, 1
   7              		.eabi_attribute 26, 1
   8              		.eabi_attribute 30, 2
   9              		.eabi_attribute 34, 1
  10              		.eabi_attribute 18, 4
  11              		.file	"chevents.c"
  12              		.text
  13              	.Ltext0:
  14              		.cfi_sections	.debug_frame
  15              		.section	.text.chEvtRegisterMaskWithFlags,"ax",%progbits
  16              		.align	1
  17              		.p2align 4,,15
  18              		.global	chEvtRegisterMaskWithFlags
  19              		.arch armv7e-m
  20              		.syntax unified
  21              		.thumb
  22              		.thumb_func
  23              		.fpu softvfp
  24              		.type	chEvtRegisterMaskWithFlags, %function
  25              	chEvtRegisterMaskWithFlags:
  26              	.LVL0:
  27              	.LFB246:
  28              		.file 1 "../../../os/rt/src/chevents.c"
  29              		.loc 1 106 54 view -0
  30              		.cfi_startproc
  31              		@ args = 0, pretend = 0, frame = 0
  32              		@ frame_needed = 0, uses_anonymous_args = 0
  33              		@ link register save eliminated.
  34              		.loc 1 108 3 view .LVU1
  35              		.loc 1 108 3 view .LVU2
  36              		.loc 1 108 3 view .LVU3
  37              		.loc 1 110 3 view .LVU4
  38              	.LBB174:
  39              	.LBI174:
  40              		.file 2 "../../../os/rt/include/chsys.h"
  41              		.loc 2 374 20 view .LVU5
  42              	.LBE174:
  43              		.loc 2 376 3 view .LVU6
  44              	.LBB182:
  45              	.LBB175:
  46              	.LBI175:
  47              		.file 3 "../../../os/common/ports/ARMCMx/chcore_v7m.h"
  48              		.loc 3 594 20 view .LVU7
  49              	.LBE175:
  50              	.LBE182:
  51              		.loc 3 602 3 view .LVU8
  52              	.LBB183:
  53              	.LBB180:
  54              	.LBB176:
  55              	.LBI176:
  56              		.file 4 "../../../os/common/ext/CMSIS/include/cmsis_gcc.h"
  57              		.loc 4 262 57 view .LVU9
ARM GAS  /tmp/ccPZZrVn.s 			page 2


  58              	.LBB177:
  59              		.loc 4 264 3 view .LVU10
  60              	.LBE177:
  61              	.LBE176:
  62              	.LBE180:
  63              	.LBE183:
  64              		.loc 1 106 54 is_stmt 0 view .LVU11
  65 0000 10B4     		push	{r4}
  66              		.cfi_def_cfa_offset 4
  67              		.cfi_offset 4, -4
  68              	.LBB184:
  69              	.LBB181:
  70              	.LBB179:
  71              	.LBB178:
  72              		.loc 4 264 3 view .LVU12
  73 0002 2024     		movs	r4, #32
  74              		.syntax unified
  75              	@ 264 "../../../os/common/ext/CMSIS/include/cmsis_gcc.h" 1
  76 0004 84F31188 		MSR basepri, r4
  77              	@ 0 "" 2
  78              	.LVL1:
  79              		.loc 4 264 3 view .LVU13
  80              		.thumb
  81              		.syntax unified
  82              	.LBE178:
  83              	.LBE179:
  84              	.LBE181:
  85              	.LBE184:
  86              		.loc 2 377 34 is_stmt 1 view .LVU14
  87              		.loc 2 378 20 view .LVU15
  88              		.loc 1 111 3 view .LVU16
  89              		.loc 1 111 17 is_stmt 0 view .LVU17
  90 0008 0468     		ldr	r4, [r0]
  91 000a 0C60     		str	r4, [r1]
  92              		.loc 1 112 3 is_stmt 1 view .LVU18
  93              		.loc 1 113 19 is_stmt 0 view .LVU19
  94 000c 054C     		ldr	r4, .L4
  95              		.loc 1 112 17 view .LVU20
  96 000e 0160     		str	r1, [r0]
  97              		.loc 1 113 3 is_stmt 1 view .LVU21
  98              		.loc 1 113 17 is_stmt 0 view .LVU22
  99 0010 A069     		ldr	r0, [r4, #24]
 100              	.LVL2:
 101              		.loc 1 113 17 view .LVU23
 102 0012 4860     		str	r0, [r1, #4]
 103              		.loc 1 114 3 is_stmt 1 view .LVU24
 104              		.loc 1 115 17 is_stmt 0 view .LVU25
 105 0014 0020     		movs	r0, #0
 106 0016 C1E90220 		strd	r2, r0, [r1, #8]
 107              		.loc 1 116 3 is_stmt 1 view .LVU26
 108              		.loc 1 116 17 is_stmt 0 view .LVU27
 109 001a 0B61     		str	r3, [r1, #16]
 110              		.loc 1 117 3 is_stmt 1 view .LVU28
 111              	.LBB185:
 112              	.LBI185:
 113              		.loc 2 386 20 view .LVU29
 114              	.LBB186:
ARM GAS  /tmp/ccPZZrVn.s 			page 3


 115              		.loc 2 388 22 view .LVU30
 116              		.loc 2 389 33 view .LVU31
 117              		.loc 2 395 3 view .LVU32
 118              		.loc 2 395 3 view .LVU33
 119              		.loc 2 395 3 view .LVU34
 120              		.loc 2 399 3 view .LVU35
 121              	.LBB187:
 122              	.LBI187:
 123              		.loc 3 618 20 view .LVU36
 124              	.LBE187:
 125              	.LBE186:
 126              	.LBE185:
 127              		.loc 3 621 3 view .LVU37
 128              	.LVL3:
 129              	.LBB192:
 130              	.LBB191:
 131              	.LBB190:
 132              	.LBB188:
 133              	.LBI188:
 134              		.loc 4 262 57 view .LVU38
 135              	.LBB189:
 136              		.loc 4 264 3 view .LVU39
 137              		.syntax unified
 138              	@ 264 "../../../os/common/ext/CMSIS/include/cmsis_gcc.h" 1
 139 001c 80F31188 		MSR basepri, r0
 140              	@ 0 "" 2
 141              	.LVL4:
 142              		.loc 4 264 3 is_stmt 0 view .LVU40
 143              		.thumb
 144              		.syntax unified
 145              	.LBE189:
 146              	.LBE188:
 147              	.LBE190:
 148              	.LBE191:
 149              	.LBE192:
 150              		.loc 1 118 1 view .LVU41
 151 0020 10BC     		pop	{r4}
 152              		.cfi_restore 4
 153              		.cfi_def_cfa_offset 0
 154 0022 7047     		bx	lr
 155              	.L5:
 156              		.align	2
 157              	.L4:
 158 0024 00000000 		.word	ch
 159              		.cfi_endproc
 160              	.LFE246:
 161              		.size	chEvtRegisterMaskWithFlags, .-chEvtRegisterMaskWithFlags
 162              		.section	.text.chEvtUnregister,"ax",%progbits
 163              		.align	1
 164              		.p2align 4,,15
 165              		.global	chEvtUnregister
 166              		.syntax unified
 167              		.thumb
 168              		.thumb_func
 169              		.fpu softvfp
 170              		.type	chEvtUnregister, %function
 171              	chEvtUnregister:
ARM GAS  /tmp/ccPZZrVn.s 			page 4


 172              	.LVL5:
 173              	.LFB247:
 174              		.loc 1 133 66 is_stmt 1 view -0
 175              		.cfi_startproc
 176              		@ args = 0, pretend = 0, frame = 0
 177              		@ frame_needed = 0, uses_anonymous_args = 0
 178              		@ link register save eliminated.
 179              		.loc 1 134 3 view .LVU43
 180              		.loc 1 136 3 view .LVU44
 181              		.loc 1 136 3 view .LVU45
 182              		.loc 1 136 3 view .LVU46
 183              		.loc 1 139 3 view .LVU47
 184              		.loc 1 141 3 view .LVU48
 185              	.LBB193:
 186              	.LBI193:
 187              		.loc 2 374 20 view .LVU49
 188              	.LBB194:
 189              		.loc 2 376 3 view .LVU50
 190              	.LBB195:
 191              	.LBI195:
 192              		.loc 3 594 20 view .LVU51
 193              	.LBE195:
 194              	.LBE194:
 195              	.LBE193:
 196              		.loc 3 602 3 view .LVU52
 197              	.LBB201:
 198              	.LBB199:
 199              	.LBB198:
 200              	.LBB196:
 201              	.LBI196:
 202              		.loc 4 262 57 view .LVU53
 203              	.LBB197:
 204              		.loc 4 264 3 view .LVU54
 205 0000 2023     		movs	r3, #32
 206              		.syntax unified
 207              	@ 264 "../../../os/common/ext/CMSIS/include/cmsis_gcc.h" 1
 208 0002 83F31188 		MSR basepri, r3
 209              	@ 0 "" 2
 210              	.LVL6:
 211              		.loc 4 264 3 is_stmt 0 view .LVU55
 212              		.thumb
 213              		.syntax unified
 214              	.LBE197:
 215              	.LBE196:
 216              	.LBE198:
 217              		.loc 2 377 34 is_stmt 1 view .LVU56
 218              		.loc 2 378 20 view .LVU57
 219              	.LBE199:
 220              	.LBE201:
 221              		.loc 1 139 5 is_stmt 0 view .LVU58
 222 0006 0346     		mov	r3, r0
 223              	.LBB202:
 224              	.LBB200:
 225              		.loc 2 379 1 view .LVU59
 226 0008 01E0     		b	.L7
 227              	.LVL7:
 228              	.L9:
ARM GAS  /tmp/ccPZZrVn.s 			page 5


 229              		.loc 2 379 1 view .LVU60
 230              	.LBE200:
 231              	.LBE202:
 232              		.loc 1 145 8 view .LVU61
 233 000a 8B42     		cmp	r3, r1
 234 000c 07D0     		beq	.L11
 235              	.LVL8:
 236              	.L7:
 237              		.loc 1 145 5 is_stmt 1 view .LVU62
 238              		.loc 1 143 9 view .LVU63
 239 000e 1A46     		mov	r2, r3
 240              		.loc 1 143 11 is_stmt 0 view .LVU64
 241 0010 1B68     		ldr	r3, [r3]
 242              	.LVL9:
 243              		.loc 1 143 9 view .LVU65
 244 0012 8342     		cmp	r3, r0
 245 0014 F9D1     		bne	.L9
 246              		.loc 1 151 3 is_stmt 1 view .LVU66
 247              	.LBB203:
 248              	.LBI203:
 249              		.loc 2 386 20 view .LVU67
 250              	.LBB204:
 251              		.loc 2 388 22 view .LVU68
 252              		.loc 2 389 33 view .LVU69
 253              		.loc 2 395 3 view .LVU70
 254              		.loc 2 395 3 view .LVU71
 255              		.loc 2 395 3 view .LVU72
 256              		.loc 2 399 3 view .LVU73
 257              	.LBB205:
 258              	.LBI205:
 259              		.loc 3 618 20 view .LVU74
 260              	.LBE205:
 261              	.LBE204:
 262              	.LBE203:
 263              		.loc 3 621 3 view .LVU75
 264              	.LVL10:
 265              	.LBB216:
 266              	.LBB213:
 267              	.LBB210:
 268              	.LBB206:
 269              	.LBI206:
 270              		.loc 4 262 57 view .LVU76
 271              	.LBB207:
 272              		.loc 4 264 3 view .LVU77
 273 0016 0023     		movs	r3, #0
 274              		.syntax unified
 275              	@ 264 "../../../os/common/ext/CMSIS/include/cmsis_gcc.h" 1
 276 0018 83F31188 		MSR basepri, r3
 277              	@ 0 "" 2
 278              	.LVL11:
 279              		.loc 4 264 3 is_stmt 0 view .LVU78
 280              		.thumb
 281              		.syntax unified
 282              	.LBE207:
 283              	.LBE206:
 284              	.LBE210:
 285              	.LBE213:
ARM GAS  /tmp/ccPZZrVn.s 			page 6


 286              	.LBE216:
 287              		.loc 1 152 1 view .LVU79
 288 001c 7047     		bx	lr
 289              	.L11:
 290              		.loc 1 146 7 is_stmt 1 view .LVU80
 291              		.loc 1 146 20 is_stmt 0 view .LVU81
 292 001e 1B68     		ldr	r3, [r3]
 293              		.loc 1 146 15 view .LVU82
 294 0020 1360     		str	r3, [r2]
 295              		.loc 1 147 7 is_stmt 1 view .LVU83
 296              		.loc 1 151 3 view .LVU84
 297              	.LBB217:
 298              		.loc 2 386 20 view .LVU85
 299              	.LBB214:
 300              		.loc 2 388 22 view .LVU86
 301              		.loc 2 389 33 view .LVU87
 302              		.loc 2 395 3 view .LVU88
 303              		.loc 2 395 3 view .LVU89
 304              		.loc 2 395 3 view .LVU90
 305              		.loc 2 399 3 view .LVU91
 306              	.LBB211:
 307              		.loc 3 618 20 view .LVU92
 308              	.LBE211:
 309              	.LBE214:
 310              	.LBE217:
 311              		.loc 3 621 3 view .LVU93
 312              	.LVL12:
 313              	.LBB218:
 314              	.LBB215:
 315              	.LBB212:
 316              	.LBB209:
 317              		.loc 4 262 57 view .LVU94
 318              	.LBB208:
 319              		.loc 4 264 3 view .LVU95
 320 0022 0023     		movs	r3, #0
 321              		.syntax unified
 322              	@ 264 "../../../os/common/ext/CMSIS/include/cmsis_gcc.h" 1
 323 0024 83F31188 		MSR basepri, r3
 324              	@ 0 "" 2
 325              	.LVL13:
 326              		.loc 4 264 3 is_stmt 0 view .LVU96
 327              		.thumb
 328              		.syntax unified
 329              	.LBE208:
 330              	.LBE209:
 331              	.LBE212:
 332              	.LBE215:
 333              	.LBE218:
 334              		.loc 1 152 1 view .LVU97
 335 0028 7047     		bx	lr
 336              		.cfi_endproc
 337              	.LFE247:
 338              		.size	chEvtUnregister, .-chEvtUnregister
 339 002a 00BF     		.section	.text.chEvtGetAndClearEvents,"ax",%progbits
 340              		.align	1
 341              		.p2align 4,,15
 342              		.global	chEvtGetAndClearEvents
ARM GAS  /tmp/ccPZZrVn.s 			page 7


 343              		.syntax unified
 344              		.thumb
 345              		.thumb_func
 346              		.fpu softvfp
 347              		.type	chEvtGetAndClearEvents, %function
 348              	chEvtGetAndClearEvents:
 349              	.LVL14:
 350              	.LFB248:
 351              		.loc 1 162 56 is_stmt 1 view -0
 352              		.cfi_startproc
 353              		@ args = 0, pretend = 0, frame = 0
 354              		@ frame_needed = 0, uses_anonymous_args = 0
 355              		@ link register save eliminated.
 356              		.loc 1 163 3 view .LVU99
 357              		.loc 1 165 3 view .LVU100
 358              	.LBB219:
 359              	.LBI219:
 360              		.loc 2 374 20 view .LVU101
 361              	.LBE219:
 362              		.loc 2 376 3 view .LVU102
 363              	.LBB227:
 364              	.LBB220:
 365              	.LBI220:
 366              		.loc 3 594 20 view .LVU103
 367              	.LBE220:
 368              	.LBE227:
 369              		.loc 3 602 3 view .LVU104
 370              	.LBB228:
 371              	.LBB225:
 372              	.LBB221:
 373              	.LBI221:
 374              		.loc 4 262 57 view .LVU105
 375              	.LBB222:
 376              		.loc 4 264 3 view .LVU106
 377              	.LBE222:
 378              	.LBE221:
 379              	.LBE225:
 380              	.LBE228:
 381              		.loc 1 162 56 is_stmt 0 view .LVU107
 382 0000 10B4     		push	{r4}
 383              		.cfi_def_cfa_offset 4
 384              		.cfi_offset 4, -4
 385              	.LBB229:
 386              	.LBB226:
 387              	.LBB224:
 388              	.LBB223:
 389              		.loc 4 264 3 view .LVU108
 390 0002 2023     		movs	r3, #32
 391              		.syntax unified
 392              	@ 264 "../../../os/common/ext/CMSIS/include/cmsis_gcc.h" 1
 393 0004 83F31188 		MSR basepri, r3
 394              	@ 0 "" 2
 395              	.LVL15:
 396              		.loc 4 264 3 view .LVU109
 397              		.thumb
 398              		.syntax unified
 399              	.LBE223:
ARM GAS  /tmp/ccPZZrVn.s 			page 8


 400              	.LBE224:
 401              	.LBE226:
 402              	.LBE229:
 403              		.loc 2 377 34 is_stmt 1 view .LVU110
 404              		.loc 2 378 20 view .LVU111
 405              		.loc 1 166 3 view .LVU112
 406              		.loc 1 166 7 is_stmt 0 view .LVU113
 407 0008 054B     		ldr	r3, .L14
 408 000a 9A69     		ldr	r2, [r3, #24]
 409              		.loc 1 166 12 view .LVU114
 410 000c 536B     		ldr	r3, [r2, #52]
 411              	.LVL16:
 412              		.loc 1 167 3 is_stmt 1 view .LVU115
 413              		.loc 1 167 19 is_stmt 0 view .LVU116
 414 000e 23EA0004 		bic	r4, r3, r0
 415              	.LBB230:
 416              	.LBB231:
 417              	.LBB232:
 418              	.LBB233:
 419              	.LBB234:
 420              		.loc 4 264 3 view .LVU117
 421 0012 0021     		movs	r1, #0
 422              	.LBE234:
 423              	.LBE233:
 424              	.LBE232:
 425              	.LBE231:
 426              	.LBE230:
 427              		.loc 1 167 19 view .LVU118
 428 0014 5463     		str	r4, [r2, #52]
 429              		.loc 1 168 3 is_stmt 1 view .LVU119
 430              	.LBB241:
 431              	.LBI230:
 432              		.loc 2 386 20 view .LVU120
 433              	.LBB239:
 434              		.loc 2 388 22 view .LVU121
 435              		.loc 2 389 33 view .LVU122
 436              		.loc 2 395 3 view .LVU123
 437              		.loc 2 395 3 view .LVU124
 438              		.loc 2 395 3 view .LVU125
 439              		.loc 2 399 3 view .LVU126
 440              	.LBB237:
 441              	.LBI232:
 442              		.loc 3 618 20 view .LVU127
 443              	.LBE237:
 444              	.LBE239:
 445              	.LBE241:
 446              		.loc 3 621 3 view .LVU128
 447              	.LVL17:
 448              	.LBB242:
 449              	.LBB240:
 450              	.LBB238:
 451              	.LBB236:
 452              	.LBI233:
 453              		.loc 4 262 57 view .LVU129
 454              	.LBB235:
 455              		.loc 4 264 3 view .LVU130
 456              		.syntax unified
ARM GAS  /tmp/ccPZZrVn.s 			page 9


 457              	@ 264 "../../../os/common/ext/CMSIS/include/cmsis_gcc.h" 1
 458 0016 81F31188 		MSR basepri, r1
 459              	@ 0 "" 2
 460              	.LVL18:
 461              		.loc 4 264 3 is_stmt 0 view .LVU131
 462              		.thumb
 463              		.syntax unified
 464              	.LBE235:
 465              	.LBE236:
 466              	.LBE238:
 467              	.LBE240:
 468              	.LBE242:
 469              		.loc 1 170 3 is_stmt 1 view .LVU132
 470              		.loc 1 171 1 is_stmt 0 view .LVU133
 471 001a 1840     		ands	r0, r0, r3
 472              	.LVL19:
 473              		.loc 1 171 1 view .LVU134
 474 001c 10BC     		pop	{r4}
 475              		.cfi_restore 4
 476              		.cfi_def_cfa_offset 0
 477 001e 7047     		bx	lr
 478              	.L15:
 479              		.align	2
 480              	.L14:
 481 0020 00000000 		.word	ch
 482              		.cfi_endproc
 483              	.LFE248:
 484              		.size	chEvtGetAndClearEvents, .-chEvtGetAndClearEvents
 485              		.section	.text.chEvtAddEvents,"ax",%progbits
 486              		.align	1
 487              		.p2align 4,,15
 488              		.global	chEvtAddEvents
 489              		.syntax unified
 490              		.thumb
 491              		.thumb_func
 492              		.fpu softvfp
 493              		.type	chEvtAddEvents, %function
 494              	chEvtAddEvents:
 495              	.LVL20:
 496              	.LFB249:
 497              		.loc 1 182 48 is_stmt 1 view -0
 498              		.cfi_startproc
 499              		@ args = 0, pretend = 0, frame = 0
 500              		@ frame_needed = 0, uses_anonymous_args = 0
 501              		@ link register save eliminated.
 502              		.loc 1 184 3 view .LVU136
 503              	.LBB243:
 504              	.LBI243:
 505              		.loc 2 374 20 view .LVU137
 506              	.LBE243:
 507              		.loc 2 376 3 view .LVU138
 508              	.LBB248:
 509              	.LBB244:
 510              	.LBI244:
 511              		.loc 3 594 20 view .LVU139
 512              	.LBE244:
 513              	.LBE248:
ARM GAS  /tmp/ccPZZrVn.s 			page 10


 514              		.loc 3 602 3 view .LVU140
 515              	.LBB249:
 516              	.LBB247:
 517              	.LBB245:
 518              	.LBI245:
 519              		.loc 4 262 57 view .LVU141
 520              	.LBB246:
 521              		.loc 4 264 3 view .LVU142
 522 0000 2023     		movs	r3, #32
 523              		.syntax unified
 524              	@ 264 "../../../os/common/ext/CMSIS/include/cmsis_gcc.h" 1
 525 0002 83F31188 		MSR basepri, r3
 526              	@ 0 "" 2
 527              	.LVL21:
 528              		.loc 4 264 3 is_stmt 0 view .LVU143
 529              		.thumb
 530              		.syntax unified
 531              	.LBE246:
 532              	.LBE245:
 533              	.LBE247:
 534              	.LBE249:
 535              		.loc 2 377 34 is_stmt 1 view .LVU144
 536              		.loc 2 378 20 view .LVU145
 537              		.loc 1 185 3 view .LVU146
 538 0006 044B     		ldr	r3, .L17
 539 0008 9B69     		ldr	r3, [r3, #24]
 540              		.loc 1 185 19 is_stmt 0 view .LVU147
 541 000a 596B     		ldr	r1, [r3, #52]
 542 000c 0843     		orrs	r0, r0, r1
 543              	.LVL22:
 544              	.LBB250:
 545              	.LBB251:
 546              	.LBB252:
 547              	.LBB253:
 548              	.LBB254:
 549              		.loc 4 264 3 view .LVU148
 550 000e 0022     		movs	r2, #0
 551              	.LBE254:
 552              	.LBE253:
 553              	.LBE252:
 554              	.LBE251:
 555              	.LBE250:
 556              		.loc 1 185 19 view .LVU149
 557 0010 5863     		str	r0, [r3, #52]
 558              		.loc 1 186 3 is_stmt 1 view .LVU150
 559              	.LVL23:
 560              		.loc 1 187 3 view .LVU151
 561              	.LBB261:
 562              	.LBI250:
 563              		.loc 2 386 20 view .LVU152
 564              	.LBB259:
 565              		.loc 2 388 22 view .LVU153
 566              		.loc 2 389 33 view .LVU154
 567              		.loc 2 395 3 view .LVU155
 568              		.loc 2 395 3 view .LVU156
 569              		.loc 2 395 3 view .LVU157
 570              		.loc 2 399 3 view .LVU158
ARM GAS  /tmp/ccPZZrVn.s 			page 11


 571              	.LBB257:
 572              	.LBI252:
 573              		.loc 3 618 20 view .LVU159
 574              	.LBE257:
 575              	.LBE259:
 576              	.LBE261:
 577              		.loc 3 621 3 view .LVU160
 578              	.LBB262:
 579              	.LBB260:
 580              	.LBB258:
 581              	.LBB256:
 582              	.LBI253:
 583              		.loc 4 262 57 view .LVU161
 584              	.LBB255:
 585              		.loc 4 264 3 view .LVU162
 586              		.syntax unified
 587              	@ 264 "../../../os/common/ext/CMSIS/include/cmsis_gcc.h" 1
 588 0012 82F31188 		MSR basepri, r2
 589              	@ 0 "" 2
 590              	.LVL24:
 591              		.loc 4 264 3 is_stmt 0 view .LVU163
 592              		.thumb
 593              		.syntax unified
 594              	.LBE255:
 595              	.LBE256:
 596              	.LBE258:
 597              	.LBE260:
 598              	.LBE262:
 599              		.loc 1 189 3 is_stmt 1 view .LVU164
 600              		.loc 1 190 1 is_stmt 0 view .LVU165
 601 0016 7047     		bx	lr
 602              	.L18:
 603              		.align	2
 604              	.L17:
 605 0018 00000000 		.word	ch
 606              		.cfi_endproc
 607              	.LFE249:
 608              		.size	chEvtAddEvents, .-chEvtAddEvents
 609              		.section	.text.chEvtBroadcastFlagsI,"ax",%progbits
 610              		.align	1
 611              		.p2align 4,,15
 612              		.global	chEvtBroadcastFlagsI
 613              		.syntax unified
 614              		.thumb
 615              		.thumb_func
 616              		.fpu softvfp
 617              		.type	chEvtBroadcastFlagsI, %function
 618              	chEvtBroadcastFlagsI:
 619              	.LVL25:
 620              	.LFB250:
 621              		.loc 1 209 68 is_stmt 1 view -0
 622              		.cfi_startproc
 623              		@ args = 0, pretend = 0, frame = 0
 624              		@ frame_needed = 0, uses_anonymous_args = 0
 625              		.loc 1 210 3 view .LVU167
 626              		.loc 1 212 21 view .LVU168
 627              		.loc 1 213 3 view .LVU169
ARM GAS  /tmp/ccPZZrVn.s 			page 12


 628              		.loc 1 213 3 view .LVU170
 629              		.loc 1 213 3 view .LVU171
 630              		.loc 1 215 3 view .LVU172
 631              		.loc 1 209 68 is_stmt 0 view .LVU173
 632 0000 F8B5     		push	{r3, r4, r5, r6, r7, lr}
 633              		.cfi_def_cfa_offset 24
 634              		.cfi_offset 3, -24
 635              		.cfi_offset 4, -20
 636              		.cfi_offset 5, -16
 637              		.cfi_offset 6, -12
 638              		.cfi_offset 7, -8
 639              		.cfi_offset 14, -4
 640              		.loc 1 215 7 view .LVU174
 641 0002 0468     		ldr	r4, [r0]
 642              	.LVL26:
 643              		.loc 1 217 3 is_stmt 1 view .LVU175
 644              		.loc 1 217 9 view .LVU176
 645 0004 A042     		cmp	r0, r4
 646 0006 21D0     		beq	.L19
 647 0008 0746     		mov	r7, r0
 648 000a 0D46     		mov	r5, r1
 649              	.LBB265:
 650              	.LBB266:
 651              		.loc 1 293 18 is_stmt 0 view .LVU177
 652 000c 0026     		movs	r6, #0
 653 000e 04E0     		b	.L26
 654              	.LVL27:
 655              	.L23:
 656              		.loc 1 290 59 view .LVU178
 657 0010 0B2A     		cmp	r2, #11
 658 0012 1CD0     		beq	.L32
 659              	.L22:
 660              		.loc 1 290 59 view .LVU179
 661              	.LBE266:
 662              	.LBE265:
 663              		.loc 1 226 5 is_stmt 1 view .LVU180
 664              		.loc 1 226 9 is_stmt 0 view .LVU181
 665 0014 2468     		ldr	r4, [r4]
 666              	.LVL28:
 667              		.loc 1 217 9 is_stmt 1 view .LVU182
 668 0016 A742     		cmp	r7, r4
 669 0018 18D0     		beq	.L19
 670              	.L26:
 671              		.loc 1 219 5 view .LVU183
 672              		.loc 1 224 7 view .LVU184
 673              		.loc 1 219 16 is_stmt 0 view .LVU185
 674 001a E368     		ldr	r3, [r4, #12]
 675 001c 2B43     		orrs	r3, r3, r5
 676 001e E360     		str	r3, [r4, #12]
 677              		.loc 1 222 5 is_stmt 1 view .LVU186
 678              		.loc 1 222 8 is_stmt 0 view .LVU187
 679 0020 15B1     		cbz	r5, .L21
 680              		.loc 1 223 22 discriminator 1 view .LVU188
 681 0022 2269     		ldr	r2, [r4, #16]
 682              		.loc 1 222 36 discriminator 1 view .LVU189
 683 0024 1342     		tst	r3, r2
 684 0026 F5D0     		beq	.L22
ARM GAS  /tmp/ccPZZrVn.s 			page 13


 685              	.L21:
 686              	.LBB269:
 687              	.LBB267:
 688              		.loc 1 287 16 view .LVU190
 689 0028 D4E90103 		ldrd	r0, r3, [r4, #4]
 690 002c 416B     		ldr	r1, [r0, #52]
 691              		.loc 1 289 11 view .LVU191
 692 002e 90F82020 		ldrb	r2, [r0, #32]	@ zero_extendqisi2
 693              		.loc 1 287 16 view .LVU192
 694 0032 0B43     		orrs	r3, r3, r1
 695              		.loc 1 289 6 view .LVU193
 696 0034 0A2A     		cmp	r2, #10
 697              		.loc 1 287 16 view .LVU194
 698 0036 4363     		str	r3, [r0, #52]
 699              		.loc 1 289 3 is_stmt 1 view .LVU195
 700              		.loc 1 289 6 is_stmt 0 view .LVU196
 701 0038 EAD1     		bne	.L23
 702              		.loc 1 290 23 view .LVU197
 703 003a 426A     		ldr	r2, [r0, #36]
 704              		.loc 1 289 40 view .LVU198
 705 003c 1342     		tst	r3, r2
 706 003e E9D0     		beq	.L22
 707              	.L24:
 708              		.loc 1 293 5 is_stmt 1 view .LVU199
 709              		.loc 1 293 18 is_stmt 0 view .LVU200
 710 0040 4662     		str	r6, [r0, #36]
 711              		.loc 1 294 5 is_stmt 1 view .LVU201
 712              		.loc 1 294 12 is_stmt 0 view .LVU202
 713 0042 FFF7FEFF 		bl	chSchReadyI
 714              	.LVL29:
 715              	.LBE267:
 716              	.LBE269:
 717              		.loc 1 226 5 is_stmt 1 view .LVU203
 718              		.loc 1 226 9 is_stmt 0 view .LVU204
 719 0046 2468     		ldr	r4, [r4]
 720              	.LVL30:
 721              		.loc 1 217 9 is_stmt 1 view .LVU205
 722 0048 A742     		cmp	r7, r4
 723 004a E6D1     		bne	.L26
 724              	.LVL31:
 725              	.L19:
 726              		.loc 1 228 1 is_stmt 0 view .LVU206
 727 004c F8BD     		pop	{r3, r4, r5, r6, r7, pc}
 728              	.LVL32:
 729              	.L32:
 730              	.LBB270:
 731              	.LBB268:
 732              		.loc 1 292 30 view .LVU207
 733 004e 426A     		ldr	r2, [r0, #36]
 734              		.loc 1 291 41 view .LVU208
 735 0050 32EA0303 		bics	r3, r2, r3
 736 0054 DED1     		bne	.L22
 737 0056 F3E7     		b	.L24
 738              	.LBE268:
 739              	.LBE270:
 740              		.cfi_endproc
 741              	.LFE250:
ARM GAS  /tmp/ccPZZrVn.s 			page 14


 742              		.size	chEvtBroadcastFlagsI, .-chEvtBroadcastFlagsI
 743              		.section	.text.chEvtGetAndClearFlags,"ax",%progbits
 744              		.align	1
 745              		.p2align 4,,15
 746              		.global	chEvtGetAndClearFlags
 747              		.syntax unified
 748              		.thumb
 749              		.thumb_func
 750              		.fpu softvfp
 751              		.type	chEvtGetAndClearFlags, %function
 752              	chEvtGetAndClearFlags:
 753              	.LVL33:
 754              	.LFB251:
 755              		.loc 1 241 59 is_stmt 1 view -0
 756              		.cfi_startproc
 757              		@ args = 0, pretend = 0, frame = 0
 758              		@ frame_needed = 0, uses_anonymous_args = 0
 759              		@ link register save eliminated.
 760              		.loc 1 242 3 view .LVU210
 761              		.loc 1 244 3 view .LVU211
 762              	.LBB271:
 763              	.LBI271:
 764              		.loc 2 374 20 view .LVU212
 765              	.LBE271:
 766              		.loc 2 376 3 view .LVU213
 767              	.LBB279:
 768              	.LBB272:
 769              	.LBI272:
 770              		.loc 3 594 20 view .LVU214
 771              	.LBE272:
 772              	.LBE279:
 773              		.loc 3 602 3 view .LVU215
 774              	.LBB280:
 775              	.LBB277:
 776              	.LBB273:
 777              	.LBI273:
 778              		.loc 4 262 57 view .LVU216
 779              	.LBB274:
 780              		.loc 4 264 3 view .LVU217
 781              	.LBE274:
 782              	.LBE273:
 783              	.LBE277:
 784              	.LBE280:
 785              		.loc 1 241 59 is_stmt 0 view .LVU218
 786 0000 0346     		mov	r3, r0
 787              	.LBB281:
 788              	.LBB278:
 789              	.LBB276:
 790              	.LBB275:
 791              		.loc 4 264 3 view .LVU219
 792 0002 2022     		movs	r2, #32
 793              		.syntax unified
 794              	@ 264 "../../../os/common/ext/CMSIS/include/cmsis_gcc.h" 1
 795 0004 82F31188 		MSR basepri, r2
 796              	@ 0 "" 2
 797              	.LVL34:
 798              		.loc 4 264 3 view .LVU220
ARM GAS  /tmp/ccPZZrVn.s 			page 15


 799              		.thumb
 800              		.syntax unified
 801              	.LBE275:
 802              	.LBE276:
 803              	.LBE278:
 804              	.LBE281:
 805              		.loc 2 377 34 is_stmt 1 view .LVU221
 806              		.loc 2 378 20 view .LVU222
 807              		.loc 1 245 3 view .LVU223
 808              		.loc 1 246 14 is_stmt 0 view .LVU224
 809 0008 0022     		movs	r2, #0
 810              		.loc 1 245 9 view .LVU225
 811 000a C068     		ldr	r0, [r0, #12]
 812              	.LVL35:
 813              		.loc 1 246 3 is_stmt 1 view .LVU226
 814              		.loc 1 246 14 is_stmt 0 view .LVU227
 815 000c DA60     		str	r2, [r3, #12]
 816              		.loc 1 247 3 is_stmt 1 view .LVU228
 817              	.LBB282:
 818              	.LBI282:
 819              		.loc 2 386 20 view .LVU229
 820              	.LBB283:
 821              		.loc 2 388 22 view .LVU230
 822              		.loc 2 389 33 view .LVU231
 823              		.loc 2 395 3 view .LVU232
 824              		.loc 2 395 3 view .LVU233
 825              		.loc 2 395 3 view .LVU234
 826              		.loc 2 399 3 view .LVU235
 827              	.LBB284:
 828              	.LBI284:
 829              		.loc 3 618 20 view .LVU236
 830              	.LBE284:
 831              	.LBE283:
 832              	.LBE282:
 833              		.loc 3 621 3 view .LVU237
 834              	.LVL36:
 835              	.LBB289:
 836              	.LBB288:
 837              	.LBB287:
 838              	.LBB285:
 839              	.LBI285:
 840              		.loc 4 262 57 view .LVU238
 841              	.LBB286:
 842              		.loc 4 264 3 view .LVU239
 843              		.syntax unified
 844              	@ 264 "../../../os/common/ext/CMSIS/include/cmsis_gcc.h" 1
 845 000e 82F31188 		MSR basepri, r2
 846              	@ 0 "" 2
 847              	.LVL37:
 848              		.loc 4 264 3 is_stmt 0 view .LVU240
 849              		.thumb
 850              		.syntax unified
 851              	.LBE286:
 852              	.LBE285:
 853              	.LBE287:
 854              	.LBE288:
 855              	.LBE289:
ARM GAS  /tmp/ccPZZrVn.s 			page 16


 856              		.loc 1 249 3 is_stmt 1 view .LVU241
 857              		.loc 1 250 1 is_stmt 0 view .LVU242
 858 0012 7047     		bx	lr
 859              		.cfi_endproc
 860              	.LFE251:
 861              		.size	chEvtGetAndClearFlags, .-chEvtGetAndClearFlags
 862              		.section	.text.chEvtSignal,"ax",%progbits
 863              		.align	1
 864              		.p2align 4,,15
 865              		.global	chEvtSignal
 866              		.syntax unified
 867              		.thumb
 868              		.thumb_func
 869              		.fpu softvfp
 870              		.type	chEvtSignal, %function
 871              	chEvtSignal:
 872              	.LVL38:
 873              	.LFB252:
 874              		.loc 1 260 52 is_stmt 1 view -0
 875              		.cfi_startproc
 876              		@ args = 0, pretend = 0, frame = 0
 877              		@ frame_needed = 0, uses_anonymous_args = 0
 878              		.loc 1 262 3 view .LVU244
 879              		.loc 1 262 3 view .LVU245
 880              		.loc 1 262 3 view .LVU246
 881              		.loc 1 264 3 view .LVU247
 882              	.LBB301:
 883              	.LBI301:
 884              		.loc 2 374 20 view .LVU248
 885              	.LBE301:
 886              		.loc 2 376 3 view .LVU249
 887              	.LBB309:
 888              	.LBB302:
 889              	.LBI302:
 890              		.loc 3 594 20 view .LVU250
 891              	.LBE302:
 892              	.LBE309:
 893              		.loc 3 602 3 view .LVU251
 894              	.LBB310:
 895              	.LBB307:
 896              	.LBB303:
 897              	.LBI303:
 898              		.loc 4 262 57 view .LVU252
 899              	.LBB304:
 900              		.loc 4 264 3 view .LVU253
 901              	.LBE304:
 902              	.LBE303:
 903              	.LBE307:
 904              	.LBE310:
 905              		.loc 1 260 52 is_stmt 0 view .LVU254
 906 0000 08B5     		push	{r3, lr}
 907              		.cfi_def_cfa_offset 8
 908              		.cfi_offset 3, -8
 909              		.cfi_offset 14, -4
 910              	.LBB311:
 911              	.LBB308:
 912              	.LBB306:
ARM GAS  /tmp/ccPZZrVn.s 			page 17


 913              	.LBB305:
 914              		.loc 4 264 3 view .LVU255
 915 0002 2023     		movs	r3, #32
 916              		.syntax unified
 917              	@ 264 "../../../os/common/ext/CMSIS/include/cmsis_gcc.h" 1
 918 0004 83F31188 		MSR basepri, r3
 919              	@ 0 "" 2
 920              	.LVL39:
 921              		.loc 4 264 3 view .LVU256
 922              		.thumb
 923              		.syntax unified
 924              	.LBE305:
 925              	.LBE306:
 926              	.LBE308:
 927              	.LBE311:
 928              		.loc 2 377 34 is_stmt 1 view .LVU257
 929              		.loc 2 378 20 view .LVU258
 930              		.loc 1 265 3 view .LVU259
 931              	.LBB312:
 932              	.LBI312:
 933              		.loc 1 282 6 view .LVU260
 934              	.LBB313:
 935              		.loc 1 284 21 view .LVU261
 936              		.loc 1 285 3 view .LVU262
 937              		.loc 1 285 3 view .LVU263
 938              		.loc 1 285 3 view .LVU264
 939              		.loc 1 287 3 view .LVU265
 940              		.loc 1 287 16 is_stmt 0 view .LVU266
 941 0008 426B     		ldr	r2, [r0, #52]
 942              		.loc 1 289 11 view .LVU267
 943 000a 90F82030 		ldrb	r3, [r0, #32]	@ zero_extendqisi2
 944              		.loc 1 287 16 view .LVU268
 945 000e 1143     		orrs	r1, r1, r2
 946              	.LVL40:
 947              		.loc 1 289 6 view .LVU269
 948 0010 0A2B     		cmp	r3, #10
 949              		.loc 1 287 16 view .LVU270
 950 0012 4163     		str	r1, [r0, #52]
 951              		.loc 1 289 3 is_stmt 1 view .LVU271
 952              		.loc 1 289 6 is_stmt 0 view .LVU272
 953 0014 14D0     		beq	.L40
 954              		.loc 1 290 59 view .LVU273
 955 0016 0B2B     		cmp	r3, #11
 956 0018 05D0     		beq	.L41
 957              	.L37:
 958              	.LVL41:
 959              		.loc 1 290 59 view .LVU274
 960              	.LBE313:
 961              	.LBE312:
 962              		.loc 1 266 3 is_stmt 1 view .LVU275
 963 001a FFF7FEFF 		bl	chSchRescheduleS
 964              	.LVL42:
 965              		.loc 1 267 3 view .LVU276
 966              	.LBB316:
 967              	.LBI316:
 968              		.loc 2 386 20 view .LVU277
 969              	.LBB317:
ARM GAS  /tmp/ccPZZrVn.s 			page 18


 970              		.loc 2 388 22 view .LVU278
 971              		.loc 2 389 33 view .LVU279
 972              		.loc 2 395 3 view .LVU280
 973              		.loc 2 395 3 view .LVU281
 974              		.loc 2 395 3 view .LVU282
 975              		.loc 2 399 3 view .LVU283
 976              	.LBB318:
 977              	.LBI318:
 978              		.loc 3 618 20 view .LVU284
 979              	.LBE318:
 980              	.LBE317:
 981              	.LBE316:
 982              		.loc 3 621 3 view .LVU285
 983              	.LBB329:
 984              	.LBB326:
 985              	.LBB323:
 986              	.LBB319:
 987              	.LBI319:
 988              		.loc 4 262 57 view .LVU286
 989              	.LBB320:
 990              		.loc 4 264 3 view .LVU287
 991 001e 0023     		movs	r3, #0
 992              		.syntax unified
 993              	@ 264 "../../../os/common/ext/CMSIS/include/cmsis_gcc.h" 1
 994 0020 83F31188 		MSR basepri, r3
 995              	@ 0 "" 2
 996              	.LVL43:
 997              		.loc 4 264 3 is_stmt 0 view .LVU288
 998              		.thumb
 999              		.syntax unified
 1000              	.LBE320:
 1001              	.LBE319:
 1002              	.LBE323:
 1003              	.LBE326:
 1004              	.LBE329:
 1005              		.loc 1 268 1 view .LVU289
 1006 0024 08BD     		pop	{r3, pc}
 1007              	.LVL44:
 1008              	.L41:
 1009              	.LBB330:
 1010              	.LBB314:
 1011              		.loc 1 292 30 view .LVU290
 1012 0026 436A     		ldr	r3, [r0, #36]
 1013              		.loc 1 291 41 view .LVU291
 1014 0028 8B43     		bics	r3, r3, r1
 1015 002a F6D1     		bne	.L37
 1016              		.loc 1 293 5 is_stmt 1 view .LVU292
 1017              		.loc 1 293 18 is_stmt 0 view .LVU293
 1018 002c 0023     		movs	r3, #0
 1019 002e 4362     		str	r3, [r0, #36]
 1020              		.loc 1 294 5 is_stmt 1 view .LVU294
 1021              		.loc 1 294 12 is_stmt 0 view .LVU295
 1022 0030 FFF7FEFF 		bl	chSchReadyI
 1023              	.LVL45:
 1024              	.L42:
 1025              		.loc 1 294 12 view .LVU296
 1026              	.LBE314:
ARM GAS  /tmp/ccPZZrVn.s 			page 19


 1027              	.LBE330:
 1028              		.loc 1 266 3 is_stmt 1 view .LVU297
 1029 0034 FFF7FEFF 		bl	chSchRescheduleS
 1030              	.LVL46:
 1031              		.loc 1 267 3 view .LVU298
 1032              	.LBB331:
 1033              		.loc 2 386 20 view .LVU299
 1034              	.LBB327:
 1035              		.loc 2 388 22 view .LVU300
 1036              		.loc 2 389 33 view .LVU301
 1037              		.loc 2 395 3 view .LVU302
 1038              		.loc 2 395 3 view .LVU303
 1039              		.loc 2 395 3 view .LVU304
 1040              		.loc 2 399 3 view .LVU305
 1041              	.LBB324:
 1042              		.loc 3 618 20 view .LVU306
 1043              	.LBE324:
 1044              	.LBE327:
 1045              	.LBE331:
 1046              		.loc 3 621 3 view .LVU307
 1047              	.LBB332:
 1048              	.LBB328:
 1049              	.LBB325:
 1050              	.LBB322:
 1051              		.loc 4 262 57 view .LVU308
 1052              	.LBB321:
 1053              		.loc 4 264 3 view .LVU309
 1054 0038 0023     		movs	r3, #0
 1055              		.syntax unified
 1056              	@ 264 "../../../os/common/ext/CMSIS/include/cmsis_gcc.h" 1
 1057 003a 83F31188 		MSR basepri, r3
 1058              	@ 0 "" 2
 1059              	.LVL47:
 1060              		.loc 4 264 3 is_stmt 0 view .LVU310
 1061              		.thumb
 1062              		.syntax unified
 1063              	.LBE321:
 1064              	.LBE322:
 1065              	.LBE325:
 1066              	.LBE328:
 1067              	.LBE332:
 1068              		.loc 1 268 1 view .LVU311
 1069 003e 08BD     		pop	{r3, pc}
 1070              	.LVL48:
 1071              	.L40:
 1072              	.LBB333:
 1073              	.LBB315:
 1074              		.loc 1 290 23 view .LVU312
 1075 0040 436A     		ldr	r3, [r0, #36]
 1076              		.loc 1 289 40 view .LVU313
 1077 0042 1942     		tst	r1, r3
 1078 0044 E9D0     		beq	.L37
 1079              		.loc 1 293 5 is_stmt 1 view .LVU314
 1080              		.loc 1 293 18 is_stmt 0 view .LVU315
 1081 0046 0023     		movs	r3, #0
 1082 0048 4362     		str	r3, [r0, #36]
 1083              		.loc 1 294 5 is_stmt 1 view .LVU316
ARM GAS  /tmp/ccPZZrVn.s 			page 20


 1084              		.loc 1 294 12 is_stmt 0 view .LVU317
 1085 004a FFF7FEFF 		bl	chSchReadyI
 1086              	.LVL49:
 1087              		.loc 1 294 12 view .LVU318
 1088 004e F1E7     		b	.L42
 1089              	.LBE315:
 1090              	.LBE333:
 1091              		.cfi_endproc
 1092              	.LFE252:
 1093              		.size	chEvtSignal, .-chEvtSignal
 1094              		.section	.text.chEvtSignalI,"ax",%progbits
 1095              		.align	1
 1096              		.p2align 4,,15
 1097              		.global	chEvtSignalI
 1098              		.syntax unified
 1099              		.thumb
 1100              		.thumb_func
 1101              		.fpu softvfp
 1102              		.type	chEvtSignalI, %function
 1103              	chEvtSignalI:
 1104              	.LVL50:
 1105              	.LFB253:
 1106              		.loc 1 282 53 is_stmt 1 view -0
 1107              		.cfi_startproc
 1108              		@ args = 0, pretend = 0, frame = 0
 1109              		@ frame_needed = 0, uses_anonymous_args = 0
 1110              		@ link register save eliminated.
 1111              		.loc 1 284 21 view .LVU320
 1112              		.loc 1 285 3 view .LVU321
 1113              		.loc 1 285 3 view .LVU322
 1114              		.loc 1 285 3 view .LVU323
 1115              		.loc 1 287 3 view .LVU324
 1116              		.loc 1 287 16 is_stmt 0 view .LVU325
 1117 0000 426B     		ldr	r2, [r0, #52]
 1118              		.loc 1 289 11 view .LVU326
 1119 0002 90F82030 		ldrb	r3, [r0, #32]	@ zero_extendqisi2
 1120              		.loc 1 287 16 view .LVU327
 1121 0006 1143     		orrs	r1, r1, r2
 1122              	.LVL51:
 1123              		.loc 1 289 6 view .LVU328
 1124 0008 0A2B     		cmp	r3, #10
 1125              		.loc 1 287 16 view .LVU329
 1126 000a 4163     		str	r1, [r0, #52]
 1127              		.loc 1 289 3 is_stmt 1 view .LVU330
 1128              		.loc 1 289 6 is_stmt 0 view .LVU331
 1129 000c 09D0     		beq	.L47
 1130              		.loc 1 290 59 view .LVU332
 1131 000e 0B2B     		cmp	r3, #11
 1132 0010 00D0     		beq	.L48
 1133              	.L43:
 1134              		.loc 1 296 1 view .LVU333
 1135 0012 7047     		bx	lr
 1136              	.L48:
 1137              		.loc 1 292 30 view .LVU334
 1138 0014 436A     		ldr	r3, [r0, #36]
 1139              		.loc 1 291 41 view .LVU335
 1140 0016 8B43     		bics	r3, r3, r1
ARM GAS  /tmp/ccPZZrVn.s 			page 21


 1141 0018 FBD1     		bne	.L43
 1142              	.L45:
 1143              		.loc 1 293 5 is_stmt 1 view .LVU336
 1144              		.loc 1 293 18 is_stmt 0 view .LVU337
 1145 001a 0023     		movs	r3, #0
 1146 001c 4362     		str	r3, [r0, #36]
 1147              		.loc 1 294 5 is_stmt 1 view .LVU338
 1148              		.loc 1 294 12 is_stmt 0 view .LVU339
 1149 001e FFF7FEBF 		b	chSchReadyI
 1150              	.LVL52:
 1151              	.L47:
 1152              		.loc 1 290 23 discriminator 1 view .LVU340
 1153 0022 436A     		ldr	r3, [r0, #36]
 1154              		.loc 1 289 40 discriminator 1 view .LVU341
 1155 0024 1942     		tst	r1, r3
 1156 0026 F8D1     		bne	.L45
 1157 0028 7047     		bx	lr
 1158              		.cfi_endproc
 1159              	.LFE253:
 1160              		.size	chEvtSignalI, .-chEvtSignalI
 1161 002a 00BF     		.section	.text.chEvtBroadcastFlags,"ax",%progbits
 1162              		.align	1
 1163              		.p2align 4,,15
 1164              		.global	chEvtBroadcastFlags
 1165              		.syntax unified
 1166              		.thumb
 1167              		.thumb_func
 1168              		.fpu softvfp
 1169              		.type	chEvtBroadcastFlags, %function
 1170              	chEvtBroadcastFlags:
 1171              	.LVL53:
 1172              	.LFB254:
 1173              		.loc 1 311 67 is_stmt 1 view -0
 1174              		.cfi_startproc
 1175              		@ args = 0, pretend = 0, frame = 0
 1176              		@ frame_needed = 0, uses_anonymous_args = 0
 1177              		.loc 1 313 3 view .LVU343
 1178              	.LBB334:
 1179              	.LBI334:
 1180              		.loc 2 374 20 view .LVU344
 1181              	.LBE334:
 1182              		.loc 2 376 3 view .LVU345
 1183              	.LBB342:
 1184              	.LBB335:
 1185              	.LBI335:
 1186              		.loc 3 594 20 view .LVU346
 1187              	.LBE335:
 1188              	.LBE342:
 1189              		.loc 3 602 3 view .LVU347
 1190              	.LBB343:
 1191              	.LBB340:
 1192              	.LBB336:
 1193              	.LBI336:
 1194              		.loc 4 262 57 view .LVU348
 1195              	.LBB337:
 1196              		.loc 4 264 3 view .LVU349
 1197              	.LBE337:
ARM GAS  /tmp/ccPZZrVn.s 			page 22


 1198              	.LBE336:
 1199              	.LBE340:
 1200              	.LBE343:
 1201              		.loc 1 311 67 is_stmt 0 view .LVU350
 1202 0000 08B5     		push	{r3, lr}
 1203              		.cfi_def_cfa_offset 8
 1204              		.cfi_offset 3, -8
 1205              		.cfi_offset 14, -4
 1206              	.LBB344:
 1207              	.LBB341:
 1208              	.LBB339:
 1209              	.LBB338:
 1210              		.loc 4 264 3 view .LVU351
 1211 0002 2023     		movs	r3, #32
 1212              		.syntax unified
 1213              	@ 264 "../../../os/common/ext/CMSIS/include/cmsis_gcc.h" 1
 1214 0004 83F31188 		MSR basepri, r3
 1215              	@ 0 "" 2
 1216              	.LVL54:
 1217              		.loc 4 264 3 view .LVU352
 1218              		.thumb
 1219              		.syntax unified
 1220              	.LBE338:
 1221              	.LBE339:
 1222              	.LBE341:
 1223              	.LBE344:
 1224              		.loc 2 377 34 is_stmt 1 view .LVU353
 1225              		.loc 2 378 20 view .LVU354
 1226              		.loc 1 314 3 view .LVU355
 1227 0008 FFF7FEFF 		bl	chEvtBroadcastFlagsI
 1228              	.LVL55:
 1229              		.loc 1 315 3 view .LVU356
 1230 000c FFF7FEFF 		bl	chSchRescheduleS
 1231              	.LVL56:
 1232              		.loc 1 316 3 view .LVU357
 1233              	.LBB345:
 1234              	.LBI345:
 1235              		.loc 2 386 20 view .LVU358
 1236              	.LBB346:
 1237              		.loc 2 388 22 view .LVU359
 1238              		.loc 2 389 33 view .LVU360
 1239              		.loc 2 395 3 view .LVU361
 1240              		.loc 2 395 3 view .LVU362
 1241              		.loc 2 395 3 view .LVU363
 1242              		.loc 2 399 3 view .LVU364
 1243              	.LBB347:
 1244              	.LBI347:
 1245              		.loc 3 618 20 view .LVU365
 1246              	.LBE347:
 1247              	.LBE346:
 1248              	.LBE345:
 1249              		.loc 3 621 3 view .LVU366
 1250              	.LBB352:
 1251              	.LBB351:
 1252              	.LBB350:
 1253              	.LBB348:
 1254              	.LBI348:
ARM GAS  /tmp/ccPZZrVn.s 			page 23


 1255              		.loc 4 262 57 view .LVU367
 1256              	.LBB349:
 1257              		.loc 4 264 3 view .LVU368
 1258 0010 0023     		movs	r3, #0
 1259              		.syntax unified
 1260              	@ 264 "../../../os/common/ext/CMSIS/include/cmsis_gcc.h" 1
 1261 0012 83F31188 		MSR basepri, r3
 1262              	@ 0 "" 2
 1263              	.LVL57:
 1264              		.loc 4 264 3 is_stmt 0 view .LVU369
 1265              		.thumb
 1266              		.syntax unified
 1267              	.LBE349:
 1268              	.LBE348:
 1269              	.LBE350:
 1270              	.LBE351:
 1271              	.LBE352:
 1272              		.loc 1 317 1 view .LVU370
 1273 0016 08BD     		pop	{r3, pc}
 1274              		.cfi_endproc
 1275              	.LFE254:
 1276              		.size	chEvtBroadcastFlags, .-chEvtBroadcastFlags
 1277              		.section	.text.chEvtGetAndClearFlagsI,"ax",%progbits
 1278              		.align	1
 1279              		.p2align 4,,15
 1280              		.global	chEvtGetAndClearFlagsI
 1281              		.syntax unified
 1282              		.thumb
 1283              		.thumb_func
 1284              		.fpu softvfp
 1285              		.type	chEvtGetAndClearFlagsI, %function
 1286              	chEvtGetAndClearFlagsI:
 1287              	.LVL58:
 1288              	.LFB255:
 1289              		.loc 1 330 60 is_stmt 1 view -0
 1290              		.cfi_startproc
 1291              		@ args = 0, pretend = 0, frame = 0
 1292              		@ frame_needed = 0, uses_anonymous_args = 0
 1293              		@ link register save eliminated.
 1294              		.loc 1 331 3 view .LVU372
 1295              		.loc 1 333 3 view .LVU373
 1296              		.loc 1 330 60 is_stmt 0 view .LVU374
 1297 0000 0346     		mov	r3, r0
 1298              		.loc 1 334 14 view .LVU375
 1299 0002 0022     		movs	r2, #0
 1300              		.loc 1 333 9 view .LVU376
 1301 0004 C068     		ldr	r0, [r0, #12]
 1302              	.LVL59:
 1303              		.loc 1 334 3 is_stmt 1 view .LVU377
 1304              		.loc 1 334 14 is_stmt 0 view .LVU378
 1305 0006 DA60     		str	r2, [r3, #12]
 1306              		.loc 1 336 3 is_stmt 1 view .LVU379
 1307              		.loc 1 337 1 is_stmt 0 view .LVU380
 1308 0008 7047     		bx	lr
 1309              		.cfi_endproc
 1310              	.LFE255:
 1311              		.size	chEvtGetAndClearFlagsI, .-chEvtGetAndClearFlagsI
ARM GAS  /tmp/ccPZZrVn.s 			page 24


 1312 000a 00BF     		.section	.text.chEvtDispatch,"ax",%progbits
 1313              		.align	1
 1314              		.p2align 4,,15
 1315              		.global	chEvtDispatch
 1316              		.syntax unified
 1317              		.thumb
 1318              		.thumb_func
 1319              		.fpu softvfp
 1320              		.type	chEvtDispatch, %function
 1321              	chEvtDispatch:
 1322              	.LVL60:
 1323              	.LFB256:
 1324              		.loc 1 348 69 is_stmt 1 view -0
 1325              		.cfi_startproc
 1326              		@ args = 0, pretend = 0, frame = 0
 1327              		@ frame_needed = 0, uses_anonymous_args = 0
 1328              		.loc 1 349 3 view .LVU382
 1329              		.loc 1 351 3 view .LVU383
 1330              		.loc 1 351 3 view .LVU384
 1331              		.loc 1 351 3 view .LVU385
 1332              		.loc 1 353 3 view .LVU386
 1333              		.loc 1 354 3 view .LVU387
 1334              		.loc 1 354 9 view .LVU388
 1335 0000 B9B1     		cbz	r1, .L64
 1336              		.loc 1 348 69 is_stmt 0 view .LVU389
 1337 0002 F8B5     		push	{r3, r4, r5, r6, r7, lr}
 1338              		.cfi_def_cfa_offset 24
 1339              		.cfi_offset 3, -24
 1340              		.cfi_offset 4, -20
 1341              		.cfi_offset 5, -16
 1342              		.cfi_offset 6, -12
 1343              		.cfi_offset 7, -8
 1344              		.cfi_offset 14, -4
 1345 0004 0746     		mov	r7, r0
 1346 0006 0D46     		mov	r5, r1
 1347              		.loc 1 353 7 view .LVU390
 1348 0008 0024     		movs	r4, #0
 1349              		.loc 1 357 18 view .LVU391
 1350 000a 0126     		movs	r6, #1
 1351              	.LVL61:
 1352              	.L55:
 1353              		.loc 1 355 5 is_stmt 1 view .LVU392
 1354              		.loc 1 356 7 view .LVU393
 1355              		.loc 1 356 7 view .LVU394
 1356              		.loc 1 356 7 view .LVU395
 1357              		.loc 1 357 7 view .LVU396
 1358              		.loc 1 360 5 view .LVU397
 1359              		.loc 1 355 36 is_stmt 0 view .LVU398
 1360 000c 25FA04F3 		lsr	r3, r5, r4
 1361              		.loc 1 355 8 view .LVU399
 1362 0010 13F0010F 		tst	r3, #1
 1363              		.loc 1 357 18 view .LVU400
 1364 0014 06FA04F2 		lsl	r2, r6, r4
 1365              		.loc 1 358 7 view .LVU401
 1366 0018 2046     		mov	r0, r4
 1367              		.loc 1 355 8 view .LVU402
 1368 001a 08D0     		beq	.L54
ARM GAS  /tmp/ccPZZrVn.s 			page 25


 1369              		.loc 1 358 7 discriminator 5 view .LVU403
 1370 001c 57F82430 		ldr	r3, [r7, r4, lsl #2]
 1371              		.loc 1 357 14 discriminator 5 view .LVU404
 1372 0020 25EA0205 		bic	r5, r5, r2
 1373              	.LVL62:
 1374              		.loc 1 358 7 is_stmt 1 discriminator 5 view .LVU405
 1375              		.loc 1 360 8 is_stmt 0 discriminator 5 view .LVU406
 1376 0024 0134     		adds	r4, r4, #1
 1377              	.LVL63:
 1378              		.loc 1 358 7 discriminator 5 view .LVU407
 1379 0026 9847     		blx	r3
 1380              	.LVL64:
 1381              		.loc 1 360 5 is_stmt 1 discriminator 5 view .LVU408
 1382              		.loc 1 354 9 discriminator 5 view .LVU409
 1383 0028 002D     		cmp	r5, #0
 1384 002a EFD1     		bne	.L55
 1385              		.loc 1 362 1 is_stmt 0 view .LVU410
 1386 002c F8BD     		pop	{r3, r4, r5, r6, r7, pc}
 1387              	.LVL65:
 1388              	.L54:
 1389              		.loc 1 360 8 view .LVU411
 1390 002e 0134     		adds	r4, r4, #1
 1391              	.LVL66:
 1392              		.loc 1 354 9 is_stmt 1 view .LVU412
 1393              		.loc 1 354 9 is_stmt 0 view .LVU413
 1394 0030 ECE7     		b	.L55
 1395              	.LVL67:
 1396              	.L64:
 1397              		.cfi_def_cfa_offset 0
 1398              		.cfi_restore 3
 1399              		.cfi_restore 4
 1400              		.cfi_restore 5
 1401              		.cfi_restore 6
 1402              		.cfi_restore 7
 1403              		.cfi_restore 14
 1404              		.loc 1 354 9 view .LVU414
 1405 0032 7047     		bx	lr
 1406              		.cfi_endproc
 1407              	.LFE256:
 1408              		.size	chEvtDispatch, .-chEvtDispatch
 1409              		.section	.text.chEvtWaitOne,"ax",%progbits
 1410              		.align	1
 1411              		.p2align 4,,15
 1412              		.global	chEvtWaitOne
 1413              		.syntax unified
 1414              		.thumb
 1415              		.thumb_func
 1416              		.fpu softvfp
 1417              		.type	chEvtWaitOne, %function
 1418              	chEvtWaitOne:
 1419              	.LVL68:
 1420              	.LFB257:
 1421              		.loc 1 383 46 is_stmt 1 view -0
 1422              		.cfi_startproc
 1423              		@ args = 0, pretend = 0, frame = 0
 1424              		@ frame_needed = 0, uses_anonymous_args = 0
 1425              		.loc 1 384 3 view .LVU416
ARM GAS  /tmp/ccPZZrVn.s 			page 26


 1426              		.loc 1 383 46 is_stmt 0 view .LVU417
 1427 0000 38B5     		push	{r3, r4, r5, lr}
 1428              		.cfi_def_cfa_offset 16
 1429              		.cfi_offset 3, -16
 1430              		.cfi_offset 4, -12
 1431              		.cfi_offset 5, -8
 1432              		.cfi_offset 14, -4
 1433              		.loc 1 384 13 view .LVU418
 1434 0002 0D4B     		ldr	r3, .L71
 1435 0004 9D69     		ldr	r5, [r3, #24]
 1436              	.LVL69:
 1437              		.loc 1 385 3 is_stmt 1 view .LVU419
 1438              		.loc 1 387 3 view .LVU420
 1439              	.LBB353:
 1440              	.LBI353:
 1441              		.loc 2 374 20 view .LVU421
 1442              	.LBE353:
 1443              		.loc 2 376 3 view .LVU422
 1444              	.LBB358:
 1445              	.LBB354:
 1446              	.LBI354:
 1447              		.loc 3 594 20 view .LVU423
 1448              	.LBE354:
 1449              	.LBE358:
 1450              		.loc 3 602 3 view .LVU424
 1451              	.LBB359:
 1452              	.LBB357:
 1453              	.LBB355:
 1454              	.LBI355:
 1455              		.loc 4 262 57 view .LVU425
 1456              	.LBB356:
 1457              		.loc 4 264 3 view .LVU426
 1458 0006 2023     		movs	r3, #32
 1459              		.syntax unified
 1460              	@ 264 "../../../os/common/ext/CMSIS/include/cmsis_gcc.h" 1
 1461 0008 83F31188 		MSR basepri, r3
 1462              	@ 0 "" 2
 1463              	.LVL70:
 1464              		.loc 4 264 3 is_stmt 0 view .LVU427
 1465              		.thumb
 1466              		.syntax unified
 1467              	.LBE356:
 1468              	.LBE355:
 1469              	.LBE357:
 1470              	.LBE359:
 1471              		.loc 2 377 34 is_stmt 1 view .LVU428
 1472              		.loc 2 378 20 view .LVU429
 1473              		.loc 1 388 3 view .LVU430
 1474              		.loc 1 388 10 is_stmt 0 view .LVU431
 1475 000c 6B6B     		ldr	r3, [r5, #52]
 1476              	.LVL71:
 1477              		.loc 1 389 3 is_stmt 1 view .LVU432
 1478              		.loc 1 389 6 is_stmt 0 view .LVU433
 1479 000e 13EA0002 		ands	r2, r3, r0
 1480 0012 08D0     		beq	.L70
 1481              	.LVL72:
 1482              	.L68:
ARM GAS  /tmp/ccPZZrVn.s 			page 27


 1483              		.loc 1 394 3 is_stmt 1 view .LVU434
 1484              		.loc 1 394 5 is_stmt 0 view .LVU435
 1485 0014 5042     		rsbs	r0, r2, #0
 1486 0016 1040     		ands	r0, r0, r2
 1487              	.LVL73:
 1488              		.loc 1 395 3 is_stmt 1 view .LVU436
 1489              		.loc 1 395 17 is_stmt 0 view .LVU437
 1490 0018 23EA0003 		bic	r3, r3, r0
 1491 001c 6B63     		str	r3, [r5, #52]
 1492              		.loc 1 396 3 is_stmt 1 view .LVU438
 1493              	.LBB360:
 1494              	.LBI360:
 1495              		.loc 2 386 20 view .LVU439
 1496              	.LBB361:
 1497              		.loc 2 388 22 view .LVU440
 1498              		.loc 2 389 33 view .LVU441
 1499              		.loc 2 395 3 view .LVU442
 1500              		.loc 2 395 3 view .LVU443
 1501              		.loc 2 395 3 view .LVU444
 1502              		.loc 2 399 3 view .LVU445
 1503              	.LBB362:
 1504              	.LBI362:
 1505              		.loc 3 618 20 view .LVU446
 1506              	.LBE362:
 1507              	.LBE361:
 1508              	.LBE360:
 1509              		.loc 3 621 3 view .LVU447
 1510              	.LVL74:
 1511              	.LBB367:
 1512              	.LBB366:
 1513              	.LBB365:
 1514              	.LBB363:
 1515              	.LBI363:
 1516              		.loc 4 262 57 view .LVU448
 1517              	.LBB364:
 1518              		.loc 4 264 3 view .LVU449
 1519 001e 0023     		movs	r3, #0
 1520              		.syntax unified
 1521              	@ 264 "../../../os/common/ext/CMSIS/include/cmsis_gcc.h" 1
 1522 0020 83F31188 		MSR basepri, r3
 1523              	@ 0 "" 2
 1524              	.LVL75:
 1525              		.loc 4 264 3 is_stmt 0 view .LVU450
 1526              		.thumb
 1527              		.syntax unified
 1528              	.LBE364:
 1529              	.LBE363:
 1530              	.LBE365:
 1531              	.LBE366:
 1532              	.LBE367:
 1533              		.loc 1 398 3 is_stmt 1 view .LVU451
 1534              		.loc 1 399 1 is_stmt 0 view .LVU452
 1535 0024 38BD     		pop	{r3, r4, r5, pc}
 1536              	.LVL76:
 1537              	.L70:
 1538              		.loc 1 399 1 view .LVU453
 1539 0026 0446     		mov	r4, r0
ARM GAS  /tmp/ccPZZrVn.s 			page 28


 1540              		.loc 1 390 5 is_stmt 1 view .LVU454
 1541              		.loc 1 390 19 is_stmt 0 view .LVU455
 1542 0028 6862     		str	r0, [r5, #36]
 1543              		.loc 1 391 5 is_stmt 1 view .LVU456
 1544 002a 0A20     		movs	r0, #10
 1545              	.LVL77:
 1546              		.loc 1 391 5 is_stmt 0 view .LVU457
 1547 002c FFF7FEFF 		bl	chSchGoSleepS
 1548              	.LVL78:
 1549              		.loc 1 392 5 is_stmt 1 view .LVU458
 1550              		.loc 1 392 12 is_stmt 0 view .LVU459
 1551 0030 6B6B     		ldr	r3, [r5, #52]
 1552              		.loc 1 392 7 view .LVU460
 1553 0032 03EA0402 		and	r2, r3, r4
 1554              	.LVL79:
 1555              		.loc 1 392 7 view .LVU461
 1556 0036 EDE7     		b	.L68
 1557              	.L72:
 1558              		.align	2
 1559              	.L71:
 1560 0038 00000000 		.word	ch
 1561              		.cfi_endproc
 1562              	.LFE257:
 1563              		.size	chEvtWaitOne, .-chEvtWaitOne
 1564              		.section	.text.chEvtWaitAny,"ax",%progbits
 1565              		.align	1
 1566              		.p2align 4,,15
 1567              		.global	chEvtWaitAny
 1568              		.syntax unified
 1569              		.thumb
 1570              		.thumb_func
 1571              		.fpu softvfp
 1572              		.type	chEvtWaitAny, %function
 1573              	chEvtWaitAny:
 1574              	.LVL80:
 1575              	.LFB258:
 1576              		.loc 1 413 46 is_stmt 1 view -0
 1577              		.cfi_startproc
 1578              		@ args = 0, pretend = 0, frame = 0
 1579              		@ frame_needed = 0, uses_anonymous_args = 0
 1580              		.loc 1 414 3 view .LVU463
 1581              		.loc 1 413 46 is_stmt 0 view .LVU464
 1582 0000 38B5     		push	{r3, r4, r5, lr}
 1583              		.cfi_def_cfa_offset 16
 1584              		.cfi_offset 3, -16
 1585              		.cfi_offset 4, -12
 1586              		.cfi_offset 5, -8
 1587              		.cfi_offset 14, -4
 1588              		.loc 1 414 13 view .LVU465
 1589 0002 0C4B     		ldr	r3, .L77
 1590              		.loc 1 413 46 view .LVU466
 1591 0004 0446     		mov	r4, r0
 1592              		.loc 1 414 13 view .LVU467
 1593 0006 9D69     		ldr	r5, [r3, #24]
 1594              	.LVL81:
 1595              		.loc 1 415 3 is_stmt 1 view .LVU468
 1596              		.loc 1 417 3 view .LVU469
ARM GAS  /tmp/ccPZZrVn.s 			page 29


 1597              	.LBB368:
 1598              	.LBI368:
 1599              		.loc 2 374 20 view .LVU470
 1600              	.LBE368:
 1601              		.loc 2 376 3 view .LVU471
 1602              	.LBB373:
 1603              	.LBB369:
 1604              	.LBI369:
 1605              		.loc 3 594 20 view .LVU472
 1606              	.LBE369:
 1607              	.LBE373:
 1608              		.loc 3 602 3 view .LVU473
 1609              	.LBB374:
 1610              	.LBB372:
 1611              	.LBB370:
 1612              	.LBI370:
 1613              		.loc 4 262 57 view .LVU474
 1614              	.LBB371:
 1615              		.loc 4 264 3 view .LVU475
 1616 0008 2023     		movs	r3, #32
 1617              		.syntax unified
 1618              	@ 264 "../../../os/common/ext/CMSIS/include/cmsis_gcc.h" 1
 1619 000a 83F31188 		MSR basepri, r3
 1620              	@ 0 "" 2
 1621              	.LVL82:
 1622              		.loc 4 264 3 is_stmt 0 view .LVU476
 1623              		.thumb
 1624              		.syntax unified
 1625              	.LBE371:
 1626              	.LBE370:
 1627              	.LBE372:
 1628              	.LBE374:
 1629              		.loc 2 377 34 is_stmt 1 view .LVU477
 1630              		.loc 2 378 20 view .LVU478
 1631              		.loc 1 418 3 view .LVU479
 1632              		.loc 1 418 10 is_stmt 0 view .LVU480
 1633 000e 6B6B     		ldr	r3, [r5, #52]
 1634              	.LVL83:
 1635              		.loc 1 419 3 is_stmt 1 view .LVU481
 1636              		.loc 1 419 6 is_stmt 0 view .LVU482
 1637 0010 1840     		ands	r0, r3, r0
 1638              	.LVL84:
 1639              		.loc 1 419 6 view .LVU483
 1640 0012 06D0     		beq	.L76
 1641              	.LVL85:
 1642              	.L74:
 1643              		.loc 1 424 3 is_stmt 1 view .LVU484
 1644              		.loc 1 424 17 is_stmt 0 view .LVU485
 1645 0014 23EA0003 		bic	r3, r3, r0
 1646 0018 6B63     		str	r3, [r5, #52]
 1647              		.loc 1 425 3 is_stmt 1 view .LVU486
 1648              	.LBB375:
 1649              	.LBI375:
 1650              		.loc 2 386 20 view .LVU487
 1651              	.LBB376:
 1652              		.loc 2 388 22 view .LVU488
 1653              		.loc 2 389 33 view .LVU489
ARM GAS  /tmp/ccPZZrVn.s 			page 30


 1654              		.loc 2 395 3 view .LVU490
 1655              		.loc 2 395 3 view .LVU491
 1656              		.loc 2 395 3 view .LVU492
 1657              		.loc 2 399 3 view .LVU493
 1658              	.LBB377:
 1659              	.LBI377:
 1660              		.loc 3 618 20 view .LVU494
 1661              	.LBE377:
 1662              	.LBE376:
 1663              	.LBE375:
 1664              		.loc 3 621 3 view .LVU495
 1665              	.LVL86:
 1666              	.LBB382:
 1667              	.LBB381:
 1668              	.LBB380:
 1669              	.LBB378:
 1670              	.LBI378:
 1671              		.loc 4 262 57 view .LVU496
 1672              	.LBB379:
 1673              		.loc 4 264 3 view .LVU497
 1674 001a 0023     		movs	r3, #0
 1675              		.syntax unified
 1676              	@ 264 "../../../os/common/ext/CMSIS/include/cmsis_gcc.h" 1
 1677 001c 83F31188 		MSR basepri, r3
 1678              	@ 0 "" 2
 1679              	.LVL87:
 1680              		.loc 4 264 3 is_stmt 0 view .LVU498
 1681              		.thumb
 1682              		.syntax unified
 1683              	.LBE379:
 1684              	.LBE378:
 1685              	.LBE380:
 1686              	.LBE381:
 1687              	.LBE382:
 1688              		.loc 1 427 3 is_stmt 1 view .LVU499
 1689              		.loc 1 428 1 is_stmt 0 view .LVU500
 1690 0020 38BD     		pop	{r3, r4, r5, pc}
 1691              	.LVL88:
 1692              	.L76:
 1693              		.loc 1 420 5 is_stmt 1 view .LVU501
 1694              		.loc 1 421 5 is_stmt 0 view .LVU502
 1695 0022 0A20     		movs	r0, #10
 1696              	.LVL89:
 1697              		.loc 1 420 19 view .LVU503
 1698 0024 6C62     		str	r4, [r5, #36]
 1699              		.loc 1 421 5 is_stmt 1 view .LVU504
 1700 0026 FFF7FEFF 		bl	chSchGoSleepS
 1701              	.LVL90:
 1702              		.loc 1 422 5 view .LVU505
 1703              		.loc 1 422 12 is_stmt 0 view .LVU506
 1704 002a 6B6B     		ldr	r3, [r5, #52]
 1705              		.loc 1 422 7 view .LVU507
 1706 002c 03EA0400 		and	r0, r3, r4
 1707              	.LVL91:
 1708              		.loc 1 422 7 view .LVU508
 1709 0030 F0E7     		b	.L74
 1710              	.L78:
ARM GAS  /tmp/ccPZZrVn.s 			page 31


 1711 0032 00BF     		.align	2
 1712              	.L77:
 1713 0034 00000000 		.word	ch
 1714              		.cfi_endproc
 1715              	.LFE258:
 1716              		.size	chEvtWaitAny, .-chEvtWaitAny
 1717              		.section	.text.chEvtWaitAll,"ax",%progbits
 1718              		.align	1
 1719              		.p2align 4,,15
 1720              		.global	chEvtWaitAll
 1721              		.syntax unified
 1722              		.thumb
 1723              		.thumb_func
 1724              		.fpu softvfp
 1725              		.type	chEvtWaitAll, %function
 1726              	chEvtWaitAll:
 1727              	.LVL92:
 1728              	.LFB259:
 1729              		.loc 1 441 46 is_stmt 1 view -0
 1730              		.cfi_startproc
 1731              		@ args = 0, pretend = 0, frame = 0
 1732              		@ frame_needed = 0, uses_anonymous_args = 0
 1733              		.loc 1 442 3 view .LVU510
 1734              		.loc 1 441 46 is_stmt 0 view .LVU511
 1735 0000 38B5     		push	{r3, r4, r5, lr}
 1736              		.cfi_def_cfa_offset 16
 1737              		.cfi_offset 3, -16
 1738              		.cfi_offset 4, -12
 1739              		.cfi_offset 5, -8
 1740              		.cfi_offset 14, -4
 1741              		.loc 1 442 13 view .LVU512
 1742 0002 0B4B     		ldr	r3, .L82
 1743              		.loc 1 441 46 view .LVU513
 1744 0004 0446     		mov	r4, r0
 1745              		.loc 1 442 13 view .LVU514
 1746 0006 9D69     		ldr	r5, [r3, #24]
 1747              	.LVL93:
 1748              		.loc 1 444 3 is_stmt 1 view .LVU515
 1749              	.LBB383:
 1750              	.LBI383:
 1751              		.loc 2 374 20 view .LVU516
 1752              	.LBE383:
 1753              		.loc 2 376 3 view .LVU517
 1754              	.LBB388:
 1755              	.LBB384:
 1756              	.LBI384:
 1757              		.loc 3 594 20 view .LVU518
 1758              	.LBE384:
 1759              	.LBE388:
 1760              		.loc 3 602 3 view .LVU519
 1761              	.LBB389:
 1762              	.LBB387:
 1763              	.LBB385:
 1764              	.LBI385:
 1765              		.loc 4 262 57 view .LVU520
 1766              	.LBB386:
 1767              		.loc 4 264 3 view .LVU521
ARM GAS  /tmp/ccPZZrVn.s 			page 32


 1768 0008 2023     		movs	r3, #32
 1769              		.syntax unified
 1770              	@ 264 "../../../os/common/ext/CMSIS/include/cmsis_gcc.h" 1
 1771 000a 83F31188 		MSR basepri, r3
 1772              	@ 0 "" 2
 1773              	.LVL94:
 1774              		.loc 4 264 3 is_stmt 0 view .LVU522
 1775              		.thumb
 1776              		.syntax unified
 1777              	.LBE386:
 1778              	.LBE385:
 1779              	.LBE387:
 1780              	.LBE389:
 1781              		.loc 2 377 34 is_stmt 1 view .LVU523
 1782              		.loc 2 378 20 view .LVU524
 1783              		.loc 1 445 3 view .LVU525
 1784              		.loc 1 445 11 is_stmt 0 view .LVU526
 1785 000e 6B6B     		ldr	r3, [r5, #52]
 1786              		.loc 1 445 6 view .LVU527
 1787 0010 30EA0302 		bics	r2, r0, r3
 1788 0014 04D0     		beq	.L80
 1789              		.loc 1 446 5 is_stmt 1 view .LVU528
 1790              		.loc 1 446 19 is_stmt 0 view .LVU529
 1791 0016 6862     		str	r0, [r5, #36]
 1792              		.loc 1 447 5 is_stmt 1 view .LVU530
 1793 0018 0B20     		movs	r0, #11
 1794              	.LVL95:
 1795              		.loc 1 447 5 is_stmt 0 view .LVU531
 1796 001a FFF7FEFF 		bl	chSchGoSleepS
 1797              	.LVL96:
 1798              		.loc 1 449 17 view .LVU532
 1799 001e 6B6B     		ldr	r3, [r5, #52]
 1800              	.L80:
 1801              		.loc 1 449 3 is_stmt 1 view .LVU533
 1802              		.loc 1 449 17 is_stmt 0 view .LVU534
 1803 0020 23EA0403 		bic	r3, r3, r4
 1804 0024 6B63     		str	r3, [r5, #52]
 1805              		.loc 1 450 3 is_stmt 1 view .LVU535
 1806              	.LBB390:
 1807              	.LBI390:
 1808              		.loc 2 386 20 view .LVU536
 1809              	.LBB391:
 1810              		.loc 2 388 22 view .LVU537
 1811              		.loc 2 389 33 view .LVU538
 1812              		.loc 2 395 3 view .LVU539
 1813              		.loc 2 395 3 view .LVU540
 1814              		.loc 2 395 3 view .LVU541
 1815              		.loc 2 399 3 view .LVU542
 1816              	.LBB392:
 1817              	.LBI392:
 1818              		.loc 3 618 20 view .LVU543
 1819              	.LBE392:
 1820              	.LBE391:
 1821              	.LBE390:
 1822              		.loc 3 621 3 view .LVU544
 1823              	.LVL97:
 1824              	.LBB397:
ARM GAS  /tmp/ccPZZrVn.s 			page 33


 1825              	.LBB396:
 1826              	.LBB395:
 1827              	.LBB393:
 1828              	.LBI393:
 1829              		.loc 4 262 57 view .LVU545
 1830              	.LBB394:
 1831              		.loc 4 264 3 view .LVU546
 1832 0026 0023     		movs	r3, #0
 1833              		.syntax unified
 1834              	@ 264 "../../../os/common/ext/CMSIS/include/cmsis_gcc.h" 1
 1835 0028 83F31188 		MSR basepri, r3
 1836              	@ 0 "" 2
 1837              	.LVL98:
 1838              		.loc 4 264 3 is_stmt 0 view .LVU547
 1839              		.thumb
 1840              		.syntax unified
 1841              	.LBE394:
 1842              	.LBE393:
 1843              	.LBE395:
 1844              	.LBE396:
 1845              	.LBE397:
 1846              		.loc 1 452 3 is_stmt 1 view .LVU548
 1847              		.loc 1 453 1 is_stmt 0 view .LVU549
 1848 002c 2046     		mov	r0, r4
 1849 002e 38BD     		pop	{r3, r4, r5, pc}
 1850              	.LVL99:
 1851              	.L83:
 1852              		.loc 1 453 1 view .LVU550
 1853              		.align	2
 1854              	.L82:
 1855 0030 00000000 		.word	ch
 1856              		.cfi_endproc
 1857              	.LFE259:
 1858              		.size	chEvtWaitAll, .-chEvtWaitAll
 1859              		.section	.text.chEvtWaitOneTimeout,"ax",%progbits
 1860              		.align	1
 1861              		.p2align 4,,15
 1862              		.global	chEvtWaitOneTimeout
 1863              		.syntax unified
 1864              		.thumb
 1865              		.thumb_func
 1866              		.fpu softvfp
 1867              		.type	chEvtWaitOneTimeout, %function
 1868              	chEvtWaitOneTimeout:
 1869              	.LVL100:
 1870              	.LFB260:
 1871              		.loc 1 479 69 is_stmt 1 view -0
 1872              		.cfi_startproc
 1873              		@ args = 0, pretend = 0, frame = 0
 1874              		@ frame_needed = 0, uses_anonymous_args = 0
 1875              		.loc 1 480 3 view .LVU552
 1876              		.loc 1 480 13 is_stmt 0 view .LVU553
 1877 0000 114B     		ldr	r3, .L91
 1878              		.loc 1 479 69 view .LVU554
 1879 0002 70B5     		push	{r4, r5, r6, lr}
 1880              		.cfi_def_cfa_offset 16
 1881              		.cfi_offset 4, -16
ARM GAS  /tmp/ccPZZrVn.s 			page 34


 1882              		.cfi_offset 5, -12
 1883              		.cfi_offset 6, -8
 1884              		.cfi_offset 14, -4
 1885              		.loc 1 480 13 view .LVU555
 1886 0004 9E69     		ldr	r6, [r3, #24]
 1887              	.LVL101:
 1888              		.loc 1 481 3 is_stmt 1 view .LVU556
 1889              		.loc 1 483 3 view .LVU557
 1890              	.LBB398:
 1891              	.LBI398:
 1892              		.loc 2 374 20 view .LVU558
 1893              	.LBE398:
 1894              		.loc 2 376 3 view .LVU559
 1895              	.LBB403:
 1896              	.LBB399:
 1897              	.LBI399:
 1898              		.loc 3 594 20 view .LVU560
 1899              	.LBE399:
 1900              	.LBE403:
 1901              		.loc 3 602 3 view .LVU561
 1902              	.LBB404:
 1903              	.LBB402:
 1904              	.LBB400:
 1905              	.LBI400:
 1906              		.loc 4 262 57 view .LVU562
 1907              	.LBB401:
 1908              		.loc 4 264 3 view .LVU563
 1909 0006 2023     		movs	r3, #32
 1910              		.syntax unified
 1911              	@ 264 "../../../os/common/ext/CMSIS/include/cmsis_gcc.h" 1
 1912 0008 83F31188 		MSR basepri, r3
 1913              	@ 0 "" 2
 1914              	.LVL102:
 1915              		.loc 4 264 3 is_stmt 0 view .LVU564
 1916              		.thumb
 1917              		.syntax unified
 1918              	.LBE401:
 1919              	.LBE400:
 1920              	.LBE402:
 1921              	.LBE404:
 1922              		.loc 2 377 34 is_stmt 1 view .LVU565
 1923              		.loc 2 378 20 view .LVU566
 1924              		.loc 1 484 3 view .LVU567
 1925              		.loc 1 484 10 is_stmt 0 view .LVU568
 1926 000c 736B     		ldr	r3, [r6, #52]
 1927              	.LVL103:
 1928              		.loc 1 485 3 is_stmt 1 view .LVU569
 1929              		.loc 1 485 6 is_stmt 0 view .LVU570
 1930 000e 13EA0005 		ands	r5, r3, r0
 1931 0012 0ED1     		bne	.L85
 1932              		.loc 1 486 5 is_stmt 1 view .LVU571
 1933              		.loc 1 486 8 is_stmt 0 view .LVU572
 1934 0014 19B9     		cbnz	r1, .L86
 1935              	.LVL104:
 1936              	.L90:
 1937              		.loc 1 492 7 is_stmt 1 view .LVU573
 1938              	.LBB405:
ARM GAS  /tmp/ccPZZrVn.s 			page 35


 1939              	.LBI405:
 1940              		.loc 2 386 20 view .LVU574
 1941              	.LBB406:
 1942              		.loc 2 388 22 view .LVU575
 1943              		.loc 2 389 33 view .LVU576
 1944              		.loc 2 395 3 view .LVU577
 1945              		.loc 2 395 3 view .LVU578
 1946              		.loc 2 395 3 view .LVU579
 1947              		.loc 2 399 3 view .LVU580
 1948              	.LBB407:
 1949              	.LBI407:
 1950              		.loc 3 618 20 view .LVU581
 1951              	.LBE407:
 1952              	.LBE406:
 1953              	.LBE405:
 1954              		.loc 3 621 3 view .LVU582
 1955              	.LBB412:
 1956              	.LBB411:
 1957              	.LBB410:
 1958              	.LBB408:
 1959              	.LBI408:
 1960              		.loc 4 262 57 view .LVU583
 1961              	.LBB409:
 1962              		.loc 4 264 3 view .LVU584
 1963              		.syntax unified
 1964              	@ 264 "../../../os/common/ext/CMSIS/include/cmsis_gcc.h" 1
 1965 0016 85F31188 		MSR basepri, r5
 1966              	@ 0 "" 2
 1967              	.LVL105:
 1968              		.loc 4 264 3 is_stmt 0 view .LVU585
 1969              		.thumb
 1970              		.syntax unified
 1971              	.LBE409:
 1972              	.LBE408:
 1973              	.LBE410:
 1974              	.LBE411:
 1975              	.LBE412:
 1976              		.loc 1 493 7 is_stmt 1 view .LVU586
 1977              		.loc 1 502 1 is_stmt 0 view .LVU587
 1978 001a 2846     		mov	r0, r5
 1979 001c 70BD     		pop	{r4, r5, r6, pc}
 1980              	.LVL106:
 1981              	.L86:
 1982              		.loc 1 490 5 is_stmt 1 view .LVU588
 1983              		.loc 1 490 19 is_stmt 0 view .LVU589
 1984 001e 7062     		str	r0, [r6, #36]
 1985              		.loc 1 491 5 is_stmt 1 view .LVU590
 1986 0020 0446     		mov	r4, r0
 1987              		.loc 1 491 9 is_stmt 0 view .LVU591
 1988 0022 0A20     		movs	r0, #10
 1989              	.LVL107:
 1990              		.loc 1 491 9 view .LVU592
 1991 0024 FFF7FEFF 		bl	chSchGoSleepTimeoutS
 1992              	.LVL108:
 1993              		.loc 1 491 8 view .LVU593
 1994 0028 0028     		cmp	r0, #0
 1995 002a F4DB     		blt	.L90
ARM GAS  /tmp/ccPZZrVn.s 			page 36


 1996              		.loc 1 495 5 is_stmt 1 view .LVU594
 1997              		.loc 1 495 12 is_stmt 0 view .LVU595
 1998 002c 736B     		ldr	r3, [r6, #52]
 1999              		.loc 1 495 7 view .LVU596
 2000 002e 03EA0405 		and	r5, r3, r4
 2001              	.LVL109:
 2002              	.L85:
 2003              		.loc 1 497 3 is_stmt 1 view .LVU597
 2004              		.loc 1 497 5 is_stmt 0 view .LVU598
 2005 0032 6A42     		rsbs	r2, r5, #0
 2006 0034 1540     		ands	r5, r5, r2
 2007              	.LVL110:
 2008              		.loc 1 498 3 is_stmt 1 view .LVU599
 2009              		.loc 1 498 17 is_stmt 0 view .LVU600
 2010 0036 23EA0503 		bic	r3, r3, r5
 2011 003a 7363     		str	r3, [r6, #52]
 2012              		.loc 1 499 3 is_stmt 1 view .LVU601
 2013              	.LBB413:
 2014              	.LBI413:
 2015              		.loc 2 386 20 view .LVU602
 2016              	.LBB414:
 2017              		.loc 2 388 22 view .LVU603
 2018              		.loc 2 389 33 view .LVU604
 2019              		.loc 2 395 3 view .LVU605
 2020              		.loc 2 395 3 view .LVU606
 2021              		.loc 2 395 3 view .LVU607
 2022              		.loc 2 399 3 view .LVU608
 2023              	.LBB415:
 2024              	.LBI415:
 2025              		.loc 3 618 20 view .LVU609
 2026              	.LBE415:
 2027              	.LBE414:
 2028              	.LBE413:
 2029              		.loc 3 621 3 view .LVU610
 2030              	.LVL111:
 2031              	.LBB420:
 2032              	.LBB419:
 2033              	.LBB418:
 2034              	.LBB416:
 2035              	.LBI416:
 2036              		.loc 4 262 57 view .LVU611
 2037              	.LBB417:
 2038              		.loc 4 264 3 view .LVU612
 2039 003c 0023     		movs	r3, #0
 2040              		.syntax unified
 2041              	@ 264 "../../../os/common/ext/CMSIS/include/cmsis_gcc.h" 1
 2042 003e 83F31188 		MSR basepri, r3
 2043              	@ 0 "" 2
 2044              	.LVL112:
 2045              		.loc 4 264 3 is_stmt 0 view .LVU613
 2046              		.thumb
 2047              		.syntax unified
 2048              	.LBE417:
 2049              	.LBE416:
 2050              	.LBE418:
 2051              	.LBE419:
 2052              	.LBE420:
ARM GAS  /tmp/ccPZZrVn.s 			page 37


 2053              		.loc 1 501 3 is_stmt 1 view .LVU614
 2054              		.loc 1 502 1 is_stmt 0 view .LVU615
 2055 0042 2846     		mov	r0, r5
 2056 0044 70BD     		pop	{r4, r5, r6, pc}
 2057              	.LVL113:
 2058              	.L92:
 2059              		.loc 1 502 1 view .LVU616
 2060 0046 00BF     		.align	2
 2061              	.L91:
 2062 0048 00000000 		.word	ch
 2063              		.cfi_endproc
 2064              	.LFE260:
 2065              		.size	chEvtWaitOneTimeout, .-chEvtWaitOneTimeout
 2066              		.section	.text.chEvtWaitAnyTimeout,"ax",%progbits
 2067              		.align	1
 2068              		.p2align 4,,15
 2069              		.global	chEvtWaitAnyTimeout
 2070              		.syntax unified
 2071              		.thumb
 2072              		.thumb_func
 2073              		.fpu softvfp
 2074              		.type	chEvtWaitAnyTimeout, %function
 2075              	chEvtWaitAnyTimeout:
 2076              	.LVL114:
 2077              	.LFB261:
 2078              		.loc 1 522 69 is_stmt 1 view -0
 2079              		.cfi_startproc
 2080              		@ args = 0, pretend = 0, frame = 0
 2081              		@ frame_needed = 0, uses_anonymous_args = 0
 2082              		.loc 1 523 3 view .LVU618
 2083              		.loc 1 523 13 is_stmt 0 view .LVU619
 2084 0000 104B     		ldr	r3, .L100
 2085              		.loc 1 522 69 view .LVU620
 2086 0002 70B5     		push	{r4, r5, r6, lr}
 2087              		.cfi_def_cfa_offset 16
 2088              		.cfi_offset 4, -16
 2089              		.cfi_offset 5, -12
 2090              		.cfi_offset 6, -8
 2091              		.cfi_offset 14, -4
 2092              		.loc 1 523 13 view .LVU621
 2093 0004 9E69     		ldr	r6, [r3, #24]
 2094              	.LVL115:
 2095              		.loc 1 524 3 is_stmt 1 view .LVU622
 2096              		.loc 1 526 3 view .LVU623
 2097              	.LBB421:
 2098              	.LBI421:
 2099              		.loc 2 374 20 view .LVU624
 2100              	.LBE421:
 2101              		.loc 2 376 3 view .LVU625
 2102              	.LBB426:
 2103              	.LBB422:
 2104              	.LBI422:
 2105              		.loc 3 594 20 view .LVU626
 2106              	.LBE422:
 2107              	.LBE426:
 2108              		.loc 3 602 3 view .LVU627
 2109              	.LBB427:
ARM GAS  /tmp/ccPZZrVn.s 			page 38


 2110              	.LBB425:
 2111              	.LBB423:
 2112              	.LBI423:
 2113              		.loc 4 262 57 view .LVU628
 2114              	.LBB424:
 2115              		.loc 4 264 3 view .LVU629
 2116 0006 2023     		movs	r3, #32
 2117              		.syntax unified
 2118              	@ 264 "../../../os/common/ext/CMSIS/include/cmsis_gcc.h" 1
 2119 0008 83F31188 		MSR basepri, r3
 2120              	@ 0 "" 2
 2121              	.LVL116:
 2122              		.loc 4 264 3 is_stmt 0 view .LVU630
 2123              		.thumb
 2124              		.syntax unified
 2125              	.LBE424:
 2126              	.LBE423:
 2127              	.LBE425:
 2128              	.LBE427:
 2129              		.loc 2 377 34 is_stmt 1 view .LVU631
 2130              		.loc 2 378 20 view .LVU632
 2131              		.loc 1 527 3 view .LVU633
 2132              		.loc 1 527 10 is_stmt 0 view .LVU634
 2133 000c 736B     		ldr	r3, [r6, #52]
 2134              	.LVL117:
 2135              		.loc 1 528 3 is_stmt 1 view .LVU635
 2136              		.loc 1 528 6 is_stmt 0 view .LVU636
 2137 000e 13EA0005 		ands	r5, r3, r0
 2138 0012 0ED1     		bne	.L94
 2139              		.loc 1 529 5 is_stmt 1 view .LVU637
 2140              		.loc 1 529 8 is_stmt 0 view .LVU638
 2141 0014 19B9     		cbnz	r1, .L95
 2142              	.LVL118:
 2143              	.L99:
 2144              		.loc 1 535 7 is_stmt 1 view .LVU639
 2145              	.LBB428:
 2146              	.LBI428:
 2147              		.loc 2 386 20 view .LVU640
 2148              	.LBB429:
 2149              		.loc 2 388 22 view .LVU641
 2150              		.loc 2 389 33 view .LVU642
 2151              		.loc 2 395 3 view .LVU643
 2152              		.loc 2 395 3 view .LVU644
 2153              		.loc 2 395 3 view .LVU645
 2154              		.loc 2 399 3 view .LVU646
 2155              	.LBB430:
 2156              	.LBI430:
 2157              		.loc 3 618 20 view .LVU647
 2158              	.LBE430:
 2159              	.LBE429:
 2160              	.LBE428:
 2161              		.loc 3 621 3 view .LVU648
 2162              	.LBB435:
 2163              	.LBB434:
 2164              	.LBB433:
 2165              	.LBB431:
 2166              	.LBI431:
ARM GAS  /tmp/ccPZZrVn.s 			page 39


 2167              		.loc 4 262 57 view .LVU649
 2168              	.LBB432:
 2169              		.loc 4 264 3 view .LVU650
 2170              		.syntax unified
 2171              	@ 264 "../../../os/common/ext/CMSIS/include/cmsis_gcc.h" 1
 2172 0016 85F31188 		MSR basepri, r5
 2173              	@ 0 "" 2
 2174              	.LVL119:
 2175              		.loc 4 264 3 is_stmt 0 view .LVU651
 2176              		.thumb
 2177              		.syntax unified
 2178              	.LBE432:
 2179              	.LBE431:
 2180              	.LBE433:
 2181              	.LBE434:
 2182              	.LBE435:
 2183              		.loc 1 536 7 is_stmt 1 view .LVU652
 2184              		.loc 1 544 1 is_stmt 0 view .LVU653
 2185 001a 2846     		mov	r0, r5
 2186 001c 70BD     		pop	{r4, r5, r6, pc}
 2187              	.LVL120:
 2188              	.L95:
 2189              		.loc 1 533 5 is_stmt 1 view .LVU654
 2190              		.loc 1 533 19 is_stmt 0 view .LVU655
 2191 001e 7062     		str	r0, [r6, #36]
 2192              		.loc 1 534 5 is_stmt 1 view .LVU656
 2193 0020 0446     		mov	r4, r0
 2194              		.loc 1 534 9 is_stmt 0 view .LVU657
 2195 0022 0A20     		movs	r0, #10
 2196              	.LVL121:
 2197              		.loc 1 534 9 view .LVU658
 2198 0024 FFF7FEFF 		bl	chSchGoSleepTimeoutS
 2199              	.LVL122:
 2200              		.loc 1 534 8 view .LVU659
 2201 0028 0028     		cmp	r0, #0
 2202 002a F4DB     		blt	.L99
 2203              		.loc 1 538 5 is_stmt 1 view .LVU660
 2204              		.loc 1 538 12 is_stmt 0 view .LVU661
 2205 002c 736B     		ldr	r3, [r6, #52]
 2206              		.loc 1 538 7 view .LVU662
 2207 002e 03EA0405 		and	r5, r3, r4
 2208              	.LVL123:
 2209              	.L94:
 2210              		.loc 1 540 3 is_stmt 1 view .LVU663
 2211              		.loc 1 540 17 is_stmt 0 view .LVU664
 2212 0032 23EA0503 		bic	r3, r3, r5
 2213 0036 7363     		str	r3, [r6, #52]
 2214              		.loc 1 541 3 is_stmt 1 view .LVU665
 2215              	.LBB436:
 2216              	.LBI436:
 2217              		.loc 2 386 20 view .LVU666
 2218              	.LBB437:
 2219              		.loc 2 388 22 view .LVU667
 2220              		.loc 2 389 33 view .LVU668
 2221              		.loc 2 395 3 view .LVU669
 2222              		.loc 2 395 3 view .LVU670
 2223              		.loc 2 395 3 view .LVU671
ARM GAS  /tmp/ccPZZrVn.s 			page 40


 2224              		.loc 2 399 3 view .LVU672
 2225              	.LBB438:
 2226              	.LBI438:
 2227              		.loc 3 618 20 view .LVU673
 2228              	.LBE438:
 2229              	.LBE437:
 2230              	.LBE436:
 2231              		.loc 3 621 3 view .LVU674
 2232              	.LVL124:
 2233              	.LBB443:
 2234              	.LBB442:
 2235              	.LBB441:
 2236              	.LBB439:
 2237              	.LBI439:
 2238              		.loc 4 262 57 view .LVU675
 2239              	.LBB440:
 2240              		.loc 4 264 3 view .LVU676
 2241 0038 0023     		movs	r3, #0
 2242              		.syntax unified
 2243              	@ 264 "../../../os/common/ext/CMSIS/include/cmsis_gcc.h" 1
 2244 003a 83F31188 		MSR basepri, r3
 2245              	@ 0 "" 2
 2246              	.LVL125:
 2247              		.loc 4 264 3 is_stmt 0 view .LVU677
 2248              		.thumb
 2249              		.syntax unified
 2250              	.LBE440:
 2251              	.LBE439:
 2252              	.LBE441:
 2253              	.LBE442:
 2254              	.LBE443:
 2255              		.loc 1 543 3 is_stmt 1 view .LVU678
 2256              		.loc 1 544 1 is_stmt 0 view .LVU679
 2257 003e 2846     		mov	r0, r5
 2258 0040 70BD     		pop	{r4, r5, r6, pc}
 2259              	.LVL126:
 2260              	.L101:
 2261              		.loc 1 544 1 view .LVU680
 2262 0042 00BF     		.align	2
 2263              	.L100:
 2264 0044 00000000 		.word	ch
 2265              		.cfi_endproc
 2266              	.LFE261:
 2267              		.size	chEvtWaitAnyTimeout, .-chEvtWaitAnyTimeout
 2268              		.section	.text.chEvtWaitAllTimeout,"ax",%progbits
 2269              		.align	1
 2270              		.p2align 4,,15
 2271              		.global	chEvtWaitAllTimeout
 2272              		.syntax unified
 2273              		.thumb
 2274              		.thumb_func
 2275              		.fpu softvfp
 2276              		.type	chEvtWaitAllTimeout, %function
 2277              	chEvtWaitAllTimeout:
 2278              	.LVL127:
 2279              	.LFB262:
 2280              		.loc 1 563 69 is_stmt 1 view -0
ARM GAS  /tmp/ccPZZrVn.s 			page 41


 2281              		.cfi_startproc
 2282              		@ args = 0, pretend = 0, frame = 0
 2283              		@ frame_needed = 0, uses_anonymous_args = 0
 2284              		.loc 1 564 3 view .LVU682
 2285              		.loc 1 563 69 is_stmt 0 view .LVU683
 2286 0000 38B5     		push	{r3, r4, r5, lr}
 2287              		.cfi_def_cfa_offset 16
 2288              		.cfi_offset 3, -16
 2289              		.cfi_offset 4, -12
 2290              		.cfi_offset 5, -8
 2291              		.cfi_offset 14, -4
 2292              		.loc 1 564 13 view .LVU684
 2293 0002 104B     		ldr	r3, .L109
 2294              		.loc 1 563 69 view .LVU685
 2295 0004 0446     		mov	r4, r0
 2296              		.loc 1 564 13 view .LVU686
 2297 0006 9D69     		ldr	r5, [r3, #24]
 2298              	.LVL128:
 2299              		.loc 1 566 3 is_stmt 1 view .LVU687
 2300              	.LBB444:
 2301              	.LBI444:
 2302              		.loc 2 374 20 view .LVU688
 2303              	.LBE444:
 2304              		.loc 2 376 3 view .LVU689
 2305              	.LBB449:
 2306              	.LBB445:
 2307              	.LBI445:
 2308              		.loc 3 594 20 view .LVU690
 2309              	.LBE445:
 2310              	.LBE449:
 2311              		.loc 3 602 3 view .LVU691
 2312              	.LBB450:
 2313              	.LBB448:
 2314              	.LBB446:
 2315              	.LBI446:
 2316              		.loc 4 262 57 view .LVU692
 2317              	.LBB447:
 2318              		.loc 4 264 3 view .LVU693
 2319 0008 2023     		movs	r3, #32
 2320              		.syntax unified
 2321              	@ 264 "../../../os/common/ext/CMSIS/include/cmsis_gcc.h" 1
 2322 000a 83F31188 		MSR basepri, r3
 2323              	@ 0 "" 2
 2324              	.LVL129:
 2325              		.loc 4 264 3 is_stmt 0 view .LVU694
 2326              		.thumb
 2327              		.syntax unified
 2328              	.LBE447:
 2329              	.LBE446:
 2330              	.LBE448:
 2331              	.LBE450:
 2332              		.loc 2 377 34 is_stmt 1 view .LVU695
 2333              		.loc 2 378 20 view .LVU696
 2334              		.loc 1 567 3 view .LVU697
 2335              		.loc 1 567 11 is_stmt 0 view .LVU698
 2336 000e 6B6B     		ldr	r3, [r5, #52]
 2337              		.loc 1 567 6 view .LVU699
ARM GAS  /tmp/ccPZZrVn.s 			page 42


 2338 0010 30EA0302 		bics	r2, r0, r3
 2339 0014 0BD0     		beq	.L103
 2340              		.loc 1 568 5 is_stmt 1 view .LVU700
 2341 0016 0846     		mov	r0, r1
 2342              	.LVL130:
 2343              		.loc 1 568 8 is_stmt 0 view .LVU701
 2344 0018 11B9     		cbnz	r1, .L104
 2345              	.LVL131:
 2346              	.L108:
 2347              	.LBB451:
 2348              	.LBB452:
 2349              	.LBB453:
 2350              	.LBB454:
 2351              	.LBB455:
 2352              		.loc 4 264 3 view .LVU702
 2353              		.syntax unified
 2354              	@ 264 "../../../os/common/ext/CMSIS/include/cmsis_gcc.h" 1
 2355 001a 80F31188 		MSR basepri, r0
 2356              	@ 0 "" 2
 2357              		.thumb
 2358              		.syntax unified
 2359              	.LBE455:
 2360              	.LBE454:
 2361              	.LBE453:
 2362              	.LBE452:
 2363              	.LBE451:
 2364              		.loc 1 575 7 is_stmt 1 view .LVU703
 2365              		.loc 1 582 1 is_stmt 0 view .LVU704
 2366 001e 38BD     		pop	{r3, r4, r5, pc}
 2367              	.LVL132:
 2368              	.L104:
 2369              		.loc 1 572 5 is_stmt 1 view .LVU705
 2370              		.loc 1 572 19 is_stmt 0 view .LVU706
 2371 0020 6C62     		str	r4, [r5, #36]
 2372              		.loc 1 573 5 is_stmt 1 view .LVU707
 2373              		.loc 1 573 9 is_stmt 0 view .LVU708
 2374 0022 0B20     		movs	r0, #11
 2375              	.LVL133:
 2376              		.loc 1 573 9 view .LVU709
 2377 0024 FFF7FEFF 		bl	chSchGoSleepTimeoutS
 2378              	.LVL134:
 2379              		.loc 1 573 8 view .LVU710
 2380 0028 0028     		cmp	r0, #0
 2381 002a 08DB     		blt	.L106
 2382              		.loc 1 578 17 view .LVU711
 2383 002c 6B6B     		ldr	r3, [r5, #52]
 2384              	.L103:
 2385              		.loc 1 578 3 is_stmt 1 view .LVU712
 2386              		.loc 1 578 17 is_stmt 0 view .LVU713
 2387 002e 23EA0403 		bic	r3, r3, r4
 2388 0032 6B63     		str	r3, [r5, #52]
 2389              		.loc 1 579 3 is_stmt 1 view .LVU714
 2390              	.LBB462:
 2391              	.LBI462:
 2392              		.loc 2 386 20 view .LVU715
 2393              	.LBB463:
 2394              		.loc 2 388 22 view .LVU716
ARM GAS  /tmp/ccPZZrVn.s 			page 43


 2395              		.loc 2 389 33 view .LVU717
 2396              		.loc 2 395 3 view .LVU718
 2397              		.loc 2 395 3 view .LVU719
 2398              		.loc 2 395 3 view .LVU720
 2399              		.loc 2 399 3 view .LVU721
 2400              	.LBB464:
 2401              	.LBI464:
 2402              		.loc 3 618 20 view .LVU722
 2403              	.LBE464:
 2404              	.LBE463:
 2405              	.LBE462:
 2406              		.loc 3 621 3 view .LVU723
 2407              	.LVL135:
 2408              	.LBB469:
 2409              	.LBB468:
 2410              	.LBB467:
 2411              	.LBB465:
 2412              	.LBI465:
 2413              		.loc 4 262 57 view .LVU724
 2414              	.LBB466:
 2415              		.loc 4 264 3 view .LVU725
 2416 0034 0023     		movs	r3, #0
 2417              		.syntax unified
 2418              	@ 264 "../../../os/common/ext/CMSIS/include/cmsis_gcc.h" 1
 2419 0036 83F31188 		MSR basepri, r3
 2420              	@ 0 "" 2
 2421              	.LVL136:
 2422              		.loc 4 264 3 is_stmt 0 view .LVU726
 2423              		.thumb
 2424              		.syntax unified
 2425              	.LBE466:
 2426              	.LBE465:
 2427              	.LBE467:
 2428              	.LBE468:
 2429              	.LBE469:
 2430              		.loc 1 581 3 is_stmt 1 view .LVU727
 2431              		.loc 1 581 10 is_stmt 0 view .LVU728
 2432 003a 2046     		mov	r0, r4
 2433              		.loc 1 582 1 view .LVU729
 2434 003c 38BD     		pop	{r3, r4, r5, pc}
 2435              	.LVL137:
 2436              	.L106:
 2437              		.loc 1 574 7 is_stmt 1 view .LVU730
 2438              	.LBB470:
 2439              	.LBI451:
 2440              		.loc 2 386 20 view .LVU731
 2441              	.LBB460:
 2442              		.loc 2 388 22 view .LVU732
 2443              		.loc 2 389 33 view .LVU733
 2444              		.loc 2 395 3 view .LVU734
 2445              		.loc 2 395 3 view .LVU735
 2446              		.loc 2 395 3 view .LVU736
 2447              		.loc 2 399 3 view .LVU737
 2448              	.LBB458:
 2449              	.LBI453:
 2450              		.loc 3 618 20 view .LVU738
 2451              	.LBE458:
ARM GAS  /tmp/ccPZZrVn.s 			page 44


 2452              	.LBE460:
 2453              	.LBE470:
 2454              		.loc 3 621 3 view .LVU739
 2455              	.LBB471:
 2456              	.LBB461:
 2457              	.LBB459:
 2458              	.LBB457:
 2459              	.LBI454:
 2460              		.loc 4 262 57 view .LVU740
 2461              	.LBB456:
 2462              		.loc 4 264 3 view .LVU741
 2463 003e 0020     		movs	r0, #0
 2464 0040 EBE7     		b	.L108
 2465              	.L110:
 2466 0042 00BF     		.align	2
 2467              	.L109:
 2468 0044 00000000 		.word	ch
 2469              	.LBE456:
 2470              	.LBE457:
 2471              	.LBE459:
 2472              	.LBE461:
 2473              	.LBE471:
 2474              		.cfi_endproc
 2475              	.LFE262:
 2476              		.size	chEvtWaitAllTimeout, .-chEvtWaitAllTimeout
 2477              		.text
 2478              	.Letext0:
 2479              		.file 5 "/usr/lib/gcc/arm-none-eabi/10.3.1/include/stdint.h"
 2480              		.file 6 "../../../os/common/ports/ARMCMx/compilers/GCC/chtypes.h"
 2481              		.file 7 "../../../os/rt/include/chsystypes.h"
 2482              		.file 8 "../../../os/rt/include/chschd.h"
 2483              		.file 9 "../../../os/common/ports/ARMCMx/chcore.h"
 2484              		.file 10 "../../../os/rt/include/chtm.h"
 2485              		.file 11 "../../../os/rt/include/chsem.h"
 2486              		.file 12 "../../../os/rt/include/chmtx.h"
 2487              		.file 13 "../../../os/rt/include/chevents.h"