ARM GAS  /tmp/ccZrGikl.s 			page 1


   1              		.cpu cortex-m4
   2              		.eabi_attribute 20, 1
   3              		.eabi_attribute 21, 1
   4              		.eabi_attribute 23, 3
   5              		.eabi_attribute 24, 1
   6              		.eabi_attribute 25, 1
   7              		.eabi_attribute 26, 1
   8              		.eabi_attribute 30, 2
   9              		.eabi_attribute 34, 1
  10              		.eabi_attribute 18, 4
  11              		.file	"chheap.c"
  12              		.text
  13              	.Ltext0:
  14              		.cfi_sections	.debug_frame
  15              		.section	.text._heap_init,"ax",%progbits
  16              		.align	1
  17              		.p2align 4,,15
  18              		.global	_heap_init
  19              		.arch armv7e-m
  20              		.syntax unified
  21              		.thumb
  22              		.thumb_func
  23              		.fpu softvfp
  24              		.type	_heap_init, %function
  25              	_heap_init:
  26              	.LFB246:
  27              		.file 1 "../../../os/common/oslib/src/chheap.c"
  28              		.loc 1 107 23 view -0
  29              		.cfi_startproc
  30              		@ args = 0, pretend = 0, frame = 0
  31              		@ frame_needed = 0, uses_anonymous_args = 0
  32              		@ link register save eliminated.
  33              		.loc 1 109 3 view .LVU1
  34              		.loc 1 109 25 is_stmt 0 view .LVU2
  35 0000 044B     		ldr	r3, .L3
  36 0002 0549     		ldr	r1, .L3+4
  37 0004 1960     		str	r1, [r3]
  38              		.loc 1 110 3 is_stmt 1 view .LVU3
  39              		.loc 1 110 32 is_stmt 0 view .LVU4
  40 0006 0022     		movs	r2, #0
  41              		.loc 1 113 3 view .LVU5
  42 0008 03F11000 		add	r0, r3, #16
  43              		.loc 1 111 33 view .LVU6
  44 000c C3E90222 		strd	r2, r2, [r3, #8]
  45              		.loc 1 113 3 is_stmt 1 view .LVU7
  46 0010 FFF7FEBF 		b	chMtxObjectInit
  47              	.LVL0:
  48              	.L4:
  49              		.align	2
  50              	.L3:
  51 0014 00000000 		.word	.LANCHOR0
  52 0018 00000000 		.word	chCoreAllocAligned
  53              		.cfi_endproc
  54              	.LFE246:
  55              		.size	_heap_init, .-_heap_init
  56              		.section	.text.chHeapObjectInit,"ax",%progbits
  57              		.align	1
ARM GAS  /tmp/ccZrGikl.s 			page 2


  58              		.p2align 4,,15
  59              		.global	chHeapObjectInit
  60              		.syntax unified
  61              		.thumb
  62              		.thumb_func
  63              		.fpu softvfp
  64              		.type	chHeapObjectInit, %function
  65              	chHeapObjectInit:
  66              	.LVL1:
  67              	.LFB247:
  68              		.loc 1 130 69 view -0
  69              		.cfi_startproc
  70              		@ args = 0, pretend = 0, frame = 0
  71              		@ frame_needed = 0, uses_anonymous_args = 0
  72              		@ link register save eliminated.
  73              		.loc 1 131 3 view .LVU9
  74              		.loc 1 133 3 view .LVU10
  75              		.loc 1 133 3 view .LVU11
  76              		.loc 1 133 3 view .LVU12
  77              		.loc 1 137 3 view .LVU13
  78              		.loc 1 141 23 is_stmt 0 view .LVU14
  79 0000 083A     		subs	r2, r2, #8
  80              	.LVL2:
  81              		.loc 1 137 19 view .LVU15
  82 0002 0023     		movs	r3, #0
  83              		.loc 1 141 49 view .LVU16
  84 0004 D208     		lsrs	r2, r2, #3
  85              	.LVL3:
  86              		.loc 1 139 27 view .LVU17
  87 0006 C0E90213 		strd	r1, r3, [r0, #8]
  88              		.loc 1 137 19 view .LVU18
  89 000a 0360     		str	r3, [r0]
  90              		.loc 1 138 3 is_stmt 1 view .LVU19
  91              		.loc 1 140 3 view .LVU20
  92              		.loc 1 141 15 is_stmt 0 view .LVU21
  93 000c C1E90032 		strd	r3, r2, [r1]
  94              		.loc 1 143 3 is_stmt 1 view .LVU22
  95 0010 1030     		adds	r0, r0, #16
  96              	.LVL4:
  97              		.loc 1 143 3 is_stmt 0 view .LVU23
  98 0012 FFF7FEBF 		b	chMtxObjectInit
  99              	.LVL5:
 100              		.loc 1 143 3 view .LVU24
 101              		.cfi_endproc
 102              	.LFE247:
 103              		.size	chHeapObjectInit, .-chHeapObjectInit
 104 0016 00BF     		.section	.text.chHeapAllocAligned,"ax",%progbits
 105              		.align	1
 106              		.p2align 4,,15
 107              		.global	chHeapAllocAligned
 108              		.syntax unified
 109              		.thumb
 110              		.thumb_func
 111              		.fpu softvfp
 112              		.type	chHeapAllocAligned, %function
 113              	chHeapAllocAligned:
 114              	.LVL6:
ARM GAS  /tmp/ccZrGikl.s 			page 3


 115              	.LFB248:
 116              		.loc 1 166 77 is_stmt 1 view -0
 117              		.cfi_startproc
 118              		@ args = 0, pretend = 0, frame = 8
 119              		@ frame_needed = 0, uses_anonymous_args = 0
 120              		.loc 1 167 3 view .LVU26
 121              		.loc 1 168 3 view .LVU27
 122              		.loc 1 170 3 view .LVU28
 123              		.loc 1 170 3 view .LVU29
 124              		.loc 1 170 3 view .LVU30
 125              		.loc 1 173 3 view .LVU31
 126              		.loc 1 166 77 is_stmt 0 view .LVU32
 127 0000 2DE9F04F 		push	{r4, r5, r6, r7, r8, r9, r10, fp, lr}
 128              		.cfi_def_cfa_offset 36
 129              		.cfi_offset 4, -36
 130              		.cfi_offset 5, -32
 131              		.cfi_offset 6, -28
 132              		.cfi_offset 7, -24
 133              		.cfi_offset 8, -20
 134              		.cfi_offset 9, -16
 135              		.cfi_offset 10, -12
 136              		.cfi_offset 11, -8
 137              		.cfi_offset 14, -4
 138              		.loc 1 174 11 view .LVU33
 139 0004 444B     		ldr	r3, .L28
 140 0006 0028     		cmp	r0, #0
 141 0008 14BF     		ite	ne
 142 000a 8146     		movne	r9, r0
 143 000c 9946     		moveq	r9, r3
 144              	.LVL7:
 145              		.loc 1 178 3 is_stmt 1 view .LVU34
 146              		.loc 1 166 77 is_stmt 0 view .LVU35
 147 000e 83B0     		sub	sp, sp, #12
 148              		.cfi_def_cfa_offset 48
 149 0010 082A     		cmp	r2, #8
 150              		.loc 1 186 3 view .LVU36
 151 0012 09F1100B 		add	fp, r9, #16
 152 0016 38BF     		it	cc
 153 0018 0822     		movcc	r2, #8
 154              	.LVL8:
 155              		.loc 1 186 3 view .LVU37
 156 001a 5846     		mov	r0, fp
 157              		.loc 1 183 11 view .LVU38
 158 001c 01F10708 		add	r8, r1, #7
 159              		.loc 1 166 77 view .LVU39
 160 0020 0191     		str	r1, [sp, #4]
 161 0022 9246     		mov	r10, r2
 162              	.LVL9:
 163              		.loc 1 183 3 is_stmt 1 view .LVU40
 164              		.loc 1 186 3 is_stmt 0 view .LVU41
 165 0024 FFF7FEFF 		bl	chMtxLock
 166              	.LVL10:
 167              		.loc 1 190 10 view .LVU42
 168 0028 D9F80840 		ldr	r4, [r9, #8]
 169              		.loc 1 183 9 view .LVU43
 170 002c 4FEAD808 		lsr	r8, r8, #3
 171              	.LVL11:
ARM GAS  /tmp/ccZrGikl.s 			page 4


 172              		.loc 1 186 3 is_stmt 1 view .LVU44
 173              		.loc 1 189 3 view .LVU45
 174              		.loc 1 190 3 view .LVU46
 175              		.loc 1 190 9 view .LVU47
 176 0030 ECB1     		cbz	r4, .L8
 177 0032 09F10801 		add	r1, r9, #8
 178              	.LVL12:
 179              	.LBB2:
 180              		.loc 1 197 28 is_stmt 0 view .LVU48
 181 0036 CAF10002 		rsb	r2, r10, #0
 182 003a 0AF10707 		add	r7, r10, #7
 183 003e 00E0     		b	.L14
 184              	.LVL13:
 185              	.L17:
 186              		.loc 1 197 28 view .LVU49
 187              	.LBE2:
 188 0040 1C46     		mov	r4, r3
 189              	.LVL14:
 190              	.L14:
 191              	.LBB7:
 192              		.loc 1 191 5 is_stmt 1 view .LVU50
 193              		.loc 1 194 5 view .LVU51
 194              		.loc 1 197 5 view .LVU52
 195              		.loc 1 197 5 is_stmt 0 view .LVU53
 196              	.LBE7:
 197              		.loc 1 190 9 is_stmt 1 view .LVU54
 198              	.LBB8:
 199              		.loc 1 199 16 is_stmt 0 view .LVU55
 200 0042 6668     		ldr	r6, [r4, #4]
 201              		.loc 1 197 28 view .LVU56
 202 0044 E319     		adds	r3, r4, r7
 203 0046 1340     		ands	r3, r3, r2
 204              		.loc 1 199 16 view .LVU57
 205 0048 06F1010C 		add	ip, r6, #1
 206              		.loc 1 199 42 view .LVU58
 207 004c 1D46     		mov	r5, r3
 208              		.loc 1 199 16 view .LVU59
 209 004e 04EBCC0C 		add	ip, r4, ip, lsl #3
 210              		.loc 1 197 63 view .LVU60
 211 0052 083B     		subs	r3, r3, #8
 212              	.LVL15:
 213              		.loc 1 199 5 is_stmt 1 view .LVU61
 214              		.loc 1 199 42 is_stmt 0 view .LVU62
 215 0054 ACEB050E 		sub	lr, ip, r5
 216              		.loc 1 199 8 view .LVU63
 217 0058 9C45     		cmp	ip, r3
 218              		.loc 1 199 42 view .LVU64
 219 005a 4FEAEE00 		asr	r0, lr, #3
 220              		.loc 1 199 8 view .LVU65
 221 005e 02D9     		bls	.L9
 222              		.loc 1 199 29 discriminator 1 view .LVU66
 223 0060 B8EBEE0F 		cmp	r8, lr, asr #3
 224 0064 1ED9     		bls	.L25
 225              	.L9:
 226              		.loc 1 199 29 discriminator 1 view .LVU67
 227              	.LBE8:
 228              		.loc 1 190 10 view .LVU68
ARM GAS  /tmp/ccZrGikl.s 			page 5


 229 0066 2368     		ldr	r3, [r4]
 230              	.LVL16:
 231              		.loc 1 190 10 view .LVU69
 232 0068 2146     		mov	r1, r4
 233              		.loc 1 190 9 view .LVU70
 234 006a 002B     		cmp	r3, #0
 235 006c E8D1     		bne	.L17
 236              	.LVL17:
 237              	.L8:
 238              		.loc 1 259 3 is_stmt 1 view .LVU71
 239 006e 5846     		mov	r0, fp
 240 0070 FFF7FEFF 		bl	chMtxUnlock
 241              	.LVL18:
 242              		.loc 1 263 3 view .LVU72
 243              		.loc 1 263 12 is_stmt 0 view .LVU73
 244 0074 D9F80030 		ldr	r3, [r9]
 245              		.loc 1 263 6 view .LVU74
 246 0078 7BB1     		cbz	r3, .L16
 247              		.loc 1 264 5 is_stmt 1 view .LVU75
 248              		.loc 1 264 33 is_stmt 0 view .LVU76
 249 007a 08F10100 		add	r0, r8, #1
 250              		.loc 1 264 10 view .LVU77
 251 007e 5146     		mov	r1, r10
 252 0080 C000     		lsls	r0, r0, #3
 253 0082 9847     		blx	r3
 254              	.LVL19:
 255              		.loc 1 265 5 is_stmt 1 view .LVU78
 256              		.loc 1 265 8 is_stmt 0 view .LVU79
 257 0084 48B1     		cbz	r0, .L16
 258              		.loc 1 266 7 is_stmt 1 view .LVU80
 259              		.loc 1 267 18 is_stmt 0 view .LVU81
 260 0086 019B     		ldr	r3, [sp, #4]
 261              		.loc 1 266 18 view .LVU82
 262 0088 C0F80090 		str	r9, [r0]
 263              		.loc 1 267 7 is_stmt 1 view .LVU83
 264              		.loc 1 270 14 is_stmt 0 view .LVU84
 265 008c 00F10805 		add	r5, r0, #8
 266              		.loc 1 267 18 view .LVU85
 267 0090 4360     		str	r3, [r0, #4]
 268              		.loc 1 270 7 is_stmt 1 view .LVU86
 269              		.loc 1 276 1 is_stmt 0 view .LVU87
 270 0092 2846     		mov	r0, r5
 271              	.LVL20:
 272              		.loc 1 276 1 view .LVU88
 273 0094 03B0     		add	sp, sp, #12
 274              		.cfi_remember_state
 275              		.cfi_def_cfa_offset 36
 276              		@ sp needed
 277 0096 BDE8F08F 		pop	{r4, r5, r6, r7, r8, r9, r10, fp, pc}
 278              	.LVL21:
 279              	.L16:
 280              		.cfi_restore_state
 281              		.loc 1 275 10 view .LVU89
 282 009a 0025     		movs	r5, #0
 283              		.loc 1 276 1 view .LVU90
 284 009c 2846     		mov	r0, r5
 285 009e 03B0     		add	sp, sp, #12
ARM GAS  /tmp/ccZrGikl.s 			page 6


 286              		.cfi_remember_state
 287              		.cfi_def_cfa_offset 36
 288              		@ sp needed
 289 00a0 BDE8F08F 		pop	{r4, r5, r6, r7, r8, r9, r10, fp, pc}
 290              	.LVL22:
 291              	.L25:
 292              		.cfi_restore_state
 293              	.LBB9:
 294              		.loc 1 203 7 is_stmt 1 view .LVU91
 295              		.loc 1 203 10 is_stmt 0 view .LVU92
 296 00a4 9C42     		cmp	r4, r3
 297 00a6 1CD3     		bcc	.L26
 298              		.loc 1 227 9 is_stmt 1 view .LVU93
 299              		.loc 1 227 12 is_stmt 0 view .LVU94
 300 00a8 4645     		cmp	r6, r8
 301 00aa 2ED0     		beq	.L27
 302              	.LBB3:
 303              		.loc 1 233 11 is_stmt 1 view .LVU95
 304              		.loc 1 235 11 view .LVU96
 305              		.loc 1 235 28 is_stmt 0 view .LVU97
 306 00ac 08F10108 		add	r8, r8, #1
 307              	.LVL23:
 308              		.loc 1 235 14 view .LVU98
 309 00b0 04EBC802 		add	r2, r4, r8, lsl #3
 310              	.LVL24:
 311              		.loc 1 236 11 is_stmt 1 view .LVU99
 312              		.loc 1 237 25 is_stmt 0 view .LVU100
 313 00b4 02F10803 		add	r3, r2, #8
 314              	.LVL25:
 315              		.loc 1 237 25 view .LVU101
 316 00b8 ACEB0303 		sub	r3, ip, r3
 317              		.loc 1 236 24 view .LVU102
 318 00bc 2068     		ldr	r0, [r4]
 319              		.loc 1 236 22 view .LVU103
 320 00be 44F83800 		str	r0, [r4, r8, lsl #3]
 321              		.loc 1 237 11 is_stmt 1 view .LVU104
 322              		.loc 1 237 25 is_stmt 0 view .LVU105
 323 00c2 DB10     		asrs	r3, r3, #3
 324              		.loc 1 237 23 view .LVU106
 325 00c4 5360     		str	r3, [r2, #4]
 326              		.loc 1 238 11 is_stmt 1 view .LVU107
 327              	.LBE3:
 328              		.loc 1 250 14 is_stmt 0 view .LVU108
 329 00c6 04F10805 		add	r5, r4, #8
 330              	.LVL26:
 331              	.LBB4:
 332              		.loc 1 238 22 view .LVU109
 333 00ca 0A60     		str	r2, [r1]
 334              	.LBE4:
 335              		.loc 1 250 14 view .LVU110
 336 00cc 2346     		mov	r3, r4
 337              	.LVL27:
 338              	.L11:
 339              		.loc 1 243 7 is_stmt 1 view .LVU111
 340              		.loc 1 243 18 is_stmt 0 view .LVU112
 341 00ce 019A     		ldr	r2, [sp, #4]
 342              		.loc 1 247 7 view .LVU113
ARM GAS  /tmp/ccZrGikl.s 			page 7


 343 00d0 5846     		mov	r0, fp
 344              		.loc 1 244 18 view .LVU114
 345 00d2 C3E90092 		strd	r9, r2, [r3]
 346              		.loc 1 247 7 is_stmt 1 view .LVU115
 347 00d6 FFF7FEFF 		bl	chMtxUnlock
 348              	.LVL28:
 349              		.loc 1 250 7 view .LVU116
 350              	.LBE9:
 351              		.loc 1 276 1 is_stmt 0 view .LVU117
 352 00da 2846     		mov	r0, r5
 353 00dc 03B0     		add	sp, sp, #12
 354              		.cfi_remember_state
 355              		.cfi_def_cfa_offset 36
 356              		@ sp needed
 357 00de BDE8F08F 		pop	{r4, r5, r6, r7, r8, r9, r10, fp, pc}
 358              	.LVL29:
 359              	.L26:
 360              		.cfi_restore_state
 361              	.LBB10:
 362              	.LBB5:
 363              		.loc 1 205 9 is_stmt 1 view .LVU118
 364              		.loc 1 207 9 view .LVU119
 365              		.loc 1 208 9 view .LVU120
 366              		.loc 1 208 23 is_stmt 0 view .LVU121
 367 00e2 04F10802 		add	r2, r4, #8
 368 00e6 9A1A     		subs	r2, r3, r2
 369 00e8 D210     		asrs	r2, r2, #3
 370              		.loc 1 209 12 view .LVU122
 371 00ea 4045     		cmp	r0, r8
 372              		.loc 1 208 21 view .LVU123
 373 00ec 6260     		str	r2, [r4, #4]
 374              		.loc 1 209 9 is_stmt 1 view .LVU124
 375              		.loc 1 209 12 is_stmt 0 view .LVU125
 376 00ee EED9     		bls	.L11
 377              	.LBB6:
 378              		.loc 1 211 11 is_stmt 1 view .LVU126
 379              		.loc 1 214 11 view .LVU127
 380              		.loc 1 214 29 is_stmt 0 view .LVU128
 381 00f0 08F10106 		add	r6, r8, #1
 382              		.loc 1 214 14 view .LVU129
 383 00f4 03EBC602 		add	r2, r3, r6, lsl #3
 384              	.LVL30:
 385              		.loc 1 215 11 is_stmt 1 view .LVU130
 386              		.loc 1 215 42 is_stmt 0 view .LVU131
 387 00f8 6FEA0808 		mvn	r8, r8
 388              	.LVL31:
 389              		.loc 1 218 24 view .LVU132
 390 00fc 2168     		ldr	r1, [r4]
 391              		.loc 1 215 42 view .LVU133
 392 00fe 4044     		add	r0, r0, r8
 393              	.LVL32:
 394              		.loc 1 215 23 view .LVU134
 395 0100 5060     		str	r0, [r2, #4]
 396              		.loc 1 218 11 is_stmt 1 view .LVU135
 397              		.loc 1 218 22 is_stmt 0 view .LVU136
 398 0102 43F83610 		str	r1, [r3, r6, lsl #3]
 399              		.loc 1 219 11 is_stmt 1 view .LVU137
ARM GAS  /tmp/ccZrGikl.s 			page 8


 400              		.loc 1 219 22 is_stmt 0 view .LVU138
 401 0106 2260     		str	r2, [r4]
 402 0108 E1E7     		b	.L11
 403              	.LVL33:
 404              	.L27:
 405              		.loc 1 219 22 view .LVU139
 406              	.LBE6:
 407              	.LBE5:
 408              		.loc 1 229 11 is_stmt 1 view .LVU140
 409              		.loc 1 229 24 is_stmt 0 view .LVU141
 410 010a 2546     		mov	r5, r4
 411 010c 2346     		mov	r3, r4
 412              	.LVL34:
 413              		.loc 1 229 24 view .LVU142
 414 010e 55F8082B 		ldr	r2, [r5], #8
 415              	.LVL35:
 416              		.loc 1 229 22 view .LVU143
 417 0112 0A60     		str	r2, [r1]
 418 0114 DBE7     		b	.L11
 419              	.L29:
 420 0116 00BF     		.align	2
 421              	.L28:
 422 0118 00000000 		.word	.LANCHOR0
 423              	.LBE10:
 424              		.cfi_endproc
 425              	.LFE248:
 426              		.size	chHeapAllocAligned, .-chHeapAllocAligned
 427              		.section	.text.chHeapFree,"ax",%progbits
 428              		.align	1
 429              		.p2align 4,,15
 430              		.global	chHeapFree
 431              		.syntax unified
 432              		.thumb
 433              		.thumb_func
 434              		.fpu softvfp
 435              		.type	chHeapFree, %function
 436              	chHeapFree:
 437              	.LVL36:
 438              	.LFB249:
 439              		.loc 1 285 26 is_stmt 1 view -0
 440              		.cfi_startproc
 441              		@ args = 0, pretend = 0, frame = 0
 442              		@ frame_needed = 0, uses_anonymous_args = 0
 443              		.loc 1 286 3 view .LVU145
 444              		.loc 1 287 3 view .LVU146
 445              		.loc 1 289 3 view .LVU147
 446              		.loc 1 289 3 view .LVU148
 447              		.loc 1 289 3 view .LVU149
 448              		.loc 1 292 3 view .LVU150
 449              		.loc 1 285 26 is_stmt 0 view .LVU151
 450 0000 F8B5     		push	{r3, r4, r5, r6, r7, lr}
 451              		.cfi_def_cfa_offset 24
 452              		.cfi_offset 3, -24
 453              		.cfi_offset 4, -20
 454              		.cfi_offset 5, -16
 455              		.cfi_offset 6, -12
 456              		.cfi_offset 7, -8
ARM GAS  /tmp/ccZrGikl.s 			page 9


 457              		.cfi_offset 14, -4
 458              		.loc 1 294 9 view .LVU152
 459 0002 50E90273 		ldrd	r7, r3, [r0, #-8]
 460              		.loc 1 298 17 view .LVU153
 461 0006 0733     		adds	r3, r3, #7
 462              		.loc 1 299 51 view .LVU154
 463 0008 DB08     		lsrs	r3, r3, #3
 464              		.loc 1 295 6 view .LVU155
 465 000a 07F10805 		add	r5, r7, #8
 466              		.loc 1 302 3 view .LVU156
 467 000e 1037     		adds	r7, r7, #16
 468              		.loc 1 298 15 view .LVU157
 469 0010 40F8043C 		str	r3, [r0, #-4]
 470              		.loc 1 285 26 view .LVU158
 471 0014 0646     		mov	r6, r0
 472              		.loc 1 292 6 view .LVU159
 473 0016 A0F10804 		sub	r4, r0, #8
 474              	.LVL37:
 475              		.loc 1 294 3 is_stmt 1 view .LVU160
 476              		.loc 1 295 3 view .LVU161
 477              		.loc 1 298 3 view .LVU162
 478              		.loc 1 302 3 view .LVU163
 479 001a 3846     		mov	r0, r7
 480              	.LVL38:
 481              		.loc 1 302 3 is_stmt 0 view .LVU164
 482 001c FFF7FEFF 		bl	chMtxLock
 483              	.LVL39:
 484              		.loc 1 295 6 view .LVU165
 485 0020 2B46     		mov	r3, r5
 486              	.LVL40:
 487              	.L37:
 488              		.loc 1 304 3 is_stmt 1 discriminator 7 view .LVU166
 489              		.loc 1 305 5 discriminator 7 view .LVU167
 490              		.loc 1 305 5 discriminator 7 view .LVU168
 491              		.loc 1 305 5 discriminator 7 view .LVU169
 492              		.loc 1 307 5 discriminator 7 view .LVU170
 493              		.loc 1 325 5 discriminator 7 view .LVU171
 494              		.loc 1 304 9 discriminator 7 view .LVU172
 495              		.loc 1 307 8 is_stmt 0 discriminator 7 view .LVU173
 496 0022 AB42     		cmp	r3, r5
 497              		.loc 1 308 11 discriminator 7 view .LVU174
 498 0024 1A68     		ldr	r2, [r3]
 499              		.loc 1 307 8 discriminator 7 view .LVU175
 500 0026 01D0     		beq	.L31
 501              		.loc 1 307 33 discriminator 2 view .LVU176
 502 0028 9C42     		cmp	r4, r3
 503 002a 02D9     		bls	.L34
 504              	.L31:
 505              		.loc 1 307 47 discriminator 3 view .LVU177
 506 002c 1AB1     		cbz	r2, .L33
 507              		.loc 1 308 31 view .LVU178
 508 002e 9442     		cmp	r4, r2
 509 0030 01D3     		bcc	.L33
 510              	.L34:
 511              	.LVL41:
 512              		.loc 1 325 8 view .LVU179
 513 0032 1346     		mov	r3, r2
ARM GAS  /tmp/ccZrGikl.s 			page 10


 514              		.loc 1 305 5 view .LVU180
 515 0034 F5E7     		b	.L37
 516              	.LVL42:
 517              	.L33:
 518              		.loc 1 310 7 is_stmt 1 view .LVU181
 519              		.loc 1 310 18 is_stmt 0 view .LVU182
 520 0036 46F8082C 		str	r2, [r6, #-8]
 521              	.LVL43:
 522              		.loc 1 311 7 is_stmt 1 view .LVU183
 523              		.loc 1 313 11 is_stmt 0 view .LVU184
 524 003a 56F8042C 		ldr	r2, [r6, #-4]
 525              		.loc 1 311 18 view .LVU185
 526 003e 1C60     		str	r4, [r3]
 527              		.loc 1 313 7 is_stmt 1 view .LVU186
 528              		.loc 1 313 26 is_stmt 0 view .LVU187
 529 0040 56F8081C 		ldr	r1, [r6, #-8]
 530              		.loc 1 313 11 view .LVU188
 531 0044 0132     		adds	r2, r2, #1
 532 0046 04EBC200 		add	r0, r4, r2, lsl #3
 533              		.loc 1 313 10 view .LVU189
 534 004a 8142     		cmp	r1, r0
 535 004c 0AD0     		beq	.L42
 536              		.loc 1 318 7 is_stmt 1 view .LVU190
 537              		.loc 1 318 12 is_stmt 0 view .LVU191
 538 004e 5968     		ldr	r1, [r3, #4]
 539 0050 4A1C     		adds	r2, r1, #1
 540 0052 03EBC202 		add	r2, r3, r2, lsl #3
 541              		.loc 1 318 10 view .LVU192
 542 0056 9442     		cmp	r4, r2
 543 0058 11D0     		beq	.L43
 544              	.L36:
 545              		.loc 1 323 7 is_stmt 1 view .LVU193
 546              		.loc 1 329 3 view .LVU194
 547 005a 3846     		mov	r0, r7
 548              		.loc 1 332 1 is_stmt 0 view .LVU195
 549 005c BDE8F840 		pop	{r3, r4, r5, r6, r7, lr}
 550              		.cfi_remember_state
 551              		.cfi_restore 14
 552              		.cfi_restore 7
 553              		.cfi_restore 6
 554              		.cfi_restore 5
 555              		.cfi_restore 4
 556              		.cfi_restore 3
 557              		.cfi_def_cfa_offset 0
 558              	.LVL44:
 559              		.loc 1 329 3 view .LVU196
 560 0060 FFF7FEBF 		b	chMtxUnlock
 561              	.LVL45:
 562              	.L42:
 563              		.cfi_restore_state
 564              		.loc 1 315 9 is_stmt 1 view .LVU197
 565              		.loc 1 315 21 is_stmt 0 view .LVU198
 566 0064 4868     		ldr	r0, [r1, #4]
 567 0066 0244     		add	r2, r2, r0
 568 0068 46F8042C 		str	r2, [r6, #-4]
 569              		.loc 1 316 9 is_stmt 1 view .LVU199
 570              		.loc 1 316 22 is_stmt 0 view .LVU200
ARM GAS  /tmp/ccZrGikl.s 			page 11


 571 006c 0A68     		ldr	r2, [r1]
 572              		.loc 1 318 12 view .LVU201
 573 006e 5968     		ldr	r1, [r3, #4]
 574              		.loc 1 316 20 view .LVU202
 575 0070 46F8082C 		str	r2, [r6, #-8]
 576              		.loc 1 318 7 is_stmt 1 view .LVU203
 577              		.loc 1 318 12 is_stmt 0 view .LVU204
 578 0074 4A1C     		adds	r2, r1, #1
 579 0076 03EBC202 		add	r2, r3, r2, lsl #3
 580              		.loc 1 318 10 view .LVU205
 581 007a 9442     		cmp	r4, r2
 582 007c EDD1     		bne	.L36
 583              	.L43:
 584              		.loc 1 320 9 is_stmt 1 view .LVU206
 585              		.loc 1 321 22 is_stmt 0 view .LVU207
 586 007e 56E90202 		ldrd	r0, r2, [r6, #-8]
 587              		.loc 1 320 21 view .LVU208
 588 0082 0132     		adds	r2, r2, #1
 589 0084 1144     		add	r1, r1, r2
 590              		.loc 1 321 20 view .LVU209
 591 0086 C3E90001 		strd	r0, r1, [r3]
 592              		.loc 1 323 7 is_stmt 1 view .LVU210
 593              		.loc 1 329 3 view .LVU211
 594 008a 3846     		mov	r0, r7
 595              		.loc 1 332 1 is_stmt 0 view .LVU212
 596 008c BDE8F840 		pop	{r3, r4, r5, r6, r7, lr}
 597              		.cfi_restore 14
 598              		.cfi_restore 7
 599              		.cfi_restore 6
 600              		.cfi_restore 5
 601              		.cfi_restore 4
 602              		.cfi_restore 3
 603              		.cfi_def_cfa_offset 0
 604              	.LVL46:
 605              		.loc 1 329 3 view .LVU213
 606 0090 FFF7FEBF 		b	chMtxUnlock
 607              	.LVL47:
 608              		.cfi_endproc
 609              	.LFE249:
 610              		.size	chHeapFree, .-chHeapFree
 611              		.section	.text.chHeapStatus,"ax",%progbits
 612              		.align	1
 613              		.p2align 4,,15
 614              		.global	chHeapStatus
 615              		.syntax unified
 616              		.thumb
 617              		.thumb_func
 618              		.fpu softvfp
 619              		.type	chHeapStatus, %function
 620              	chHeapStatus:
 621              	.LVL48:
 622              	.LFB250:
 623              		.loc 1 349 77 is_stmt 1 view -0
 624              		.cfi_startproc
 625              		@ args = 0, pretend = 0, frame = 0
 626              		@ frame_needed = 0, uses_anonymous_args = 0
 627              		.loc 1 350 3 view .LVU215
ARM GAS  /tmp/ccZrGikl.s 			page 12


 628              		.loc 1 351 3 view .LVU216
 629              		.loc 1 353 3 view .LVU217
 630              		.loc 1 349 77 is_stmt 0 view .LVU218
 631 0000 2DE9F041 		push	{r4, r5, r6, r7, r8, lr}
 632              		.cfi_def_cfa_offset 24
 633              		.cfi_offset 4, -24
 634              		.cfi_offset 5, -20
 635              		.cfi_offset 6, -16
 636              		.cfi_offset 7, -12
 637              		.cfi_offset 8, -8
 638              		.cfi_offset 14, -4
 639              		.loc 1 354 11 view .LVU219
 640 0004 174C     		ldr	r4, .L59
 641 0006 0028     		cmp	r0, #0
 642 0008 18BF     		it	ne
 643 000a 0446     		movne	r4, r0
 644              	.LVL49:
 645              		.loc 1 357 3 is_stmt 1 view .LVU220
 646 000c 04F11007 		add	r7, r4, #16
 647 0010 3846     		mov	r0, r7
 648              		.loc 1 349 77 is_stmt 0 view .LVU221
 649 0012 8846     		mov	r8, r1
 650 0014 1646     		mov	r6, r2
 651              		.loc 1 357 3 view .LVU222
 652 0016 FFF7FEFF 		bl	chMtxLock
 653              	.LVL50:
 654              		.loc 1 358 3 is_stmt 1 view .LVU223
 655              		.loc 1 359 3 view .LVU224
 656              		.loc 1 360 3 view .LVU225
 657              		.loc 1 361 3 view .LVU226
 658              		.loc 1 362 3 view .LVU227
 659              		.loc 1 362 9 view .LVU228
 660              		.loc 1 362 10 is_stmt 0 view .LVU229
 661 001a A368     		ldr	r3, [r4, #8]
 662              		.loc 1 362 9 view .LVU230
 663 001c F3B1     		cbz	r3, .L50
 664              		.loc 1 359 10 view .LVU231
 665 001e 4FF0000C 		mov	ip, #0
 666              		.loc 1 358 10 view .LVU232
 667 0022 E646     		mov	lr, ip
 668              		.loc 1 360 5 view .LVU233
 669 0024 6546     		mov	r5, ip
 670              	.LVL51:
 671              	.L47:
 672              	.LBB11:
 673              		.loc 1 363 5 is_stmt 1 view .LVU234
 674              	.LBE11:
 675              		.loc 1 362 10 is_stmt 0 view .LVU235
 676 0026 D3E90034 		ldrd	r3, r4, [r3]
 677 002a A445     		cmp	ip, r4
 678              	.LBB12:
 679              		.loc 1 366 6 view .LVU236
 680 002c 05F10105 		add	r5, r5, #1
 681              	.LVL52:
 682              		.loc 1 367 5 is_stmt 1 view .LVU237
 683              		.loc 1 367 12 is_stmt 0 view .LVU238
 684 0030 A644     		add	lr, lr, r4
ARM GAS  /tmp/ccZrGikl.s 			page 13


 685              	.LVL53:
 686              		.loc 1 368 5 is_stmt 1 view .LVU239
 687 0032 38BF     		it	cc
 688 0034 A446     		movcc	ip, r4
 689              	.LVL54:
 690              		.loc 1 368 5 is_stmt 0 view .LVU240
 691              	.LBE12:
 692              		.loc 1 362 9 is_stmt 1 view .LVU241
 693 0036 002B     		cmp	r3, #0
 694 0038 F5D1     		bne	.L47
 695              	.LVL55:
 696              	.L46:
 697              		.loc 1 376 3 view .LVU242
 698              		.loc 1 376 6 is_stmt 0 view .LVU243
 699 003a B8F1000F 		cmp	r8, #0
 700 003e 03D0     		beq	.L48
 701              		.loc 1 377 5 is_stmt 1 view .LVU244
 702              		.loc 1 377 22 is_stmt 0 view .LVU245
 703 0040 4FEACE03 		lsl	r3, lr, #3
 704              		.loc 1 377 13 view .LVU246
 705 0044 C8F80030 		str	r3, [r8]
 706              	.L48:
 707              		.loc 1 381 3 is_stmt 1 view .LVU247
 708              		.loc 1 381 6 is_stmt 0 view .LVU248
 709 0048 16B1     		cbz	r6, .L49
 710              		.loc 1 382 5 is_stmt 1 view .LVU249
 711              		.loc 1 382 24 is_stmt 0 view .LVU250
 712 004a 4FEACC03 		lsl	r3, ip, #3
 713              		.loc 1 382 15 view .LVU251
 714 004e 3360     		str	r3, [r6]
 715              	.L49:
 716              		.loc 1 384 3 is_stmt 1 view .LVU252
 717 0050 3846     		mov	r0, r7
 718 0052 FFF7FEFF 		bl	chMtxUnlock
 719              	.LVL56:
 720              		.loc 1 386 3 view .LVU253
 721              		.loc 1 387 1 is_stmt 0 view .LVU254
 722 0056 2846     		mov	r0, r5
 723 0058 BDE8F081 		pop	{r4, r5, r6, r7, r8, pc}
 724              	.LVL57:
 725              	.L50:
 726              		.loc 1 359 10 view .LVU255
 727 005c 9C46     		mov	ip, r3
 728              		.loc 1 358 10 view .LVU256
 729 005e 9E46     		mov	lr, r3
 730              		.loc 1 360 5 view .LVU257
 731 0060 1D46     		mov	r5, r3
 732 0062 EAE7     		b	.L46
 733              	.L60:
 734              		.align	2
 735              	.L59:
 736 0064 00000000 		.word	.LANCHOR0
 737              		.cfi_endproc
 738              	.LFE250:
 739              		.size	chHeapStatus, .-chHeapStatus
 740              		.section	.bss.default_heap,"aw",%nobits
 741              		.align	3
ARM GAS  /tmp/ccZrGikl.s 			page 14


 742              		.set	.LANCHOR0,. + 0
 743              		.type	default_heap, %object
 744              		.size	default_heap, 32
 745              	default_heap:
 746 0000 00000000 		.space	32
 746      00000000 
 746      00000000 
 746      00000000 
 746      00000000 
 747              		.text
 748              	.Letext0:
 749              		.file 2 "/usr/lib/gcc/arm-none-eabi/10.3.1/include/stddef.h"
 750              		.file 3 "/usr/lib/gcc/arm-none-eabi/10.3.1/include/stdint.h"
 751              		.file 4 "../../../os/common/ports/ARMCMx/compilers/GCC/chtypes.h"
 752              		.file 5 "../../../os/rt/include/chsystypes.h"
 753              		.file 6 "../../../os/rt/include/chschd.h"
 754              		.file 7 "../../../os/common/ports/ARMCMx/chcore.h"
 755              		.file 8 "../../../os/common/ports/ARMCMx/chcore_v7m.h"
 756              		.file 9 "../../../os/rt/include/chsem.h"
 757              		.file 10 "../../../os/rt/include/chmtx.h"
 758              		.file 11 "../../../os/common/oslib/include/chmemcore.h"
 759              		.file 12 "../../../os/common/oslib/include/chheap.h"