ARM GAS  /tmp/ccGzWvR3.s 			page 1


   1              		.cpu cortex-m4
   2              		.eabi_attribute 20, 1
   3              		.eabi_attribute 21, 1
   4              		.eabi_attribute 23, 3
   5              		.eabi_attribute 24, 1
   6              		.eabi_attribute 25, 1
   7              		.eabi_attribute 26, 1
   8              		.eabi_attribute 30, 2
   9              		.eabi_attribute 34, 1
  10              		.eabi_attribute 18, 4
  11              		.file	"chmboxes.c"
  12              		.text
  13              	.Ltext0:
  14              		.cfi_sections	.debug_frame
  15              		.section	.text.chMBObjectInit,"ax",%progbits
  16              		.align	1
  17              		.p2align 4,,15
  18              		.global	chMBObjectInit
  19              		.arch armv7e-m
  20              		.syntax unified
  21              		.thumb
  22              		.thumb_func
  23              		.fpu softvfp
  24              		.type	chMBObjectInit, %function
  25              	chMBObjectInit:
  26              	.LVL0:
  27              	.LFB246:
  28              		.file 1 "../../../os/common/oslib/src/chmboxes.c"
  29              		.loc 1 87 58 view -0
  30              		.cfi_startproc
  31              		@ args = 0, pretend = 0, frame = 0
  32              		@ frame_needed = 0, uses_anonymous_args = 0
  33              		@ link register save eliminated.
  34              		.loc 1 89 3 view .LVU1
  35              		.loc 1 89 3 view .LVU2
  36              		.loc 1 89 3 view .LVU3
  37              		.loc 1 91 3 view .LVU4
  38              		.loc 1 87 58 is_stmt 0 view .LVU5
  39 0000 30B4     		push	{r4, r5}
  40              		.cfi_def_cfa_offset 8
  41              		.cfi_offset 4, -8
  42              		.cfi_offset 5, -4
  43              		.loc 1 94 17 view .LVU6
  44 0002 01EB8202 		add	r2, r1, r2, lsl #2
  45              	.LVL1:
  46              		.loc 1 95 15 view .LVU7
  47 0006 0025     		movs	r5, #0
  48              		.loc 1 97 3 view .LVU8
  49 0008 00F11804 		add	r4, r0, #24
  50              		.loc 1 98 3 view .LVU9
  51 000c 00F12003 		add	r3, r0, #32
  52              	.LBB98:
  53              	.LBB99:
  54              	.LBB100:
  55              		.file 2 "../../../os/rt/include/chschd.h"
  56              		.loc 2 551 13 view .LVU10
  57 0010 C0E90644 		strd	r4, r4, [r0, #24]
ARM GAS  /tmp/ccGzWvR3.s 			page 2


  58              	.LBE100:
  59              	.LBE99:
  60              	.LBE98:
  61              		.loc 1 95 15 view .LVU11
  62 0014 0561     		str	r5, [r0, #16]
  63              		.loc 1 96 15 view .LVU12
  64 0016 0575     		strb	r5, [r0, #20]
  65              		.loc 1 93 15 view .LVU13
  66 0018 C0E90211 		strd	r1, r1, [r0, #8]
  67              		.loc 1 99 1 view .LVU14
  68 001c 30BC     		pop	{r4, r5}
  69              		.cfi_restore 5
  70              		.cfi_restore 4
  71              		.cfi_def_cfa_offset 0
  72              	.LBB103:
  73              	.LBB104:
  74              	.LBB105:
  75              		.loc 2 551 13 view .LVU15
  76 001e C0E90833 		strd	r3, r3, [r0, #32]
  77              	.LBE105:
  78              	.LBE104:
  79              	.LBE103:
  80              		.loc 1 91 15 view .LVU16
  81 0022 0160     		str	r1, [r0]
  82              		.loc 1 92 3 is_stmt 1 view .LVU17
  83              		.loc 1 94 3 view .LVU18
  84              		.loc 1 94 15 is_stmt 0 view .LVU19
  85 0024 4260     		str	r2, [r0, #4]
  86              		.loc 1 95 3 is_stmt 1 view .LVU20
  87              		.loc 1 96 3 view .LVU21
  88              		.loc 1 97 3 view .LVU22
  89              	.LBB108:
  90              	.LBI98:
  91              		.file 3 "../../../os/rt/include/chthreads.h"
  92              		.loc 3 404 20 view .LVU23
  93              	.LBE108:
  94              		.loc 3 406 3 view .LVU24
  95              	.LBB109:
  96              	.LBB102:
  97              	.LBI99:
  98              		.loc 2 548 20 view .LVU25
  99              	.LBB101:
 100              		.loc 2 550 3 view .LVU26
 101              	.LBE101:
 102              	.LBE102:
 103              	.LBE109:
 104              		.loc 1 98 3 view .LVU27
 105              	.LVL2:
 106              	.LBB110:
 107              	.LBI103:
 108              		.loc 3 404 20 view .LVU28
 109              	.LBE110:
 110              		.loc 3 406 3 view .LVU29
 111              	.LBB111:
 112              	.LBB107:
 113              	.LBI104:
 114              		.loc 2 548 20 view .LVU30
ARM GAS  /tmp/ccGzWvR3.s 			page 3


 115              	.LBB106:
 116              		.loc 2 550 3 view .LVU31
 117              		.loc 2 550 3 is_stmt 0 view .LVU32
 118              	.LBE106:
 119              	.LBE107:
 120              	.LBE111:
 121              		.loc 1 99 1 view .LVU33
 122 0026 7047     		bx	lr
 123              		.cfi_endproc
 124              	.LFE246:
 125              		.size	chMBObjectInit, .-chMBObjectInit
 126              		.section	.text.chMBReset,"ax",%progbits
 127              		.align	1
 128              		.p2align 4,,15
 129              		.global	chMBReset
 130              		.syntax unified
 131              		.thumb
 132              		.thumb_func
 133              		.fpu softvfp
 134              		.type	chMBReset, %function
 135              	chMBReset:
 136              	.LVL3:
 137              	.LFB247:
 138              		.loc 1 113 32 is_stmt 1 view -0
 139              		.cfi_startproc
 140              		@ args = 0, pretend = 0, frame = 0
 141              		@ frame_needed = 0, uses_anonymous_args = 0
 142              		.loc 1 115 3 view .LVU35
 143              	.LBB123:
 144              	.LBI123:
 145              		.file 4 "../../../os/rt/include/chsys.h"
 146              		.loc 4 374 20 view .LVU36
 147              	.LBE123:
 148              		.loc 4 376 3 view .LVU37
 149              	.LBB131:
 150              	.LBB124:
 151              	.LBI124:
 152              		.file 5 "../../../os/common/ports/ARMCMx/chcore_v7m.h"
 153              		.loc 5 594 20 view .LVU38
 154              	.LBE124:
 155              	.LBE131:
 156              		.loc 5 602 3 view .LVU39
 157              	.LBB132:
 158              	.LBB129:
 159              	.LBB125:
 160              	.LBI125:
 161              		.file 6 "../../../os/common/ext/CMSIS/include/cmsis_gcc.h"
 162              		.loc 6 262 57 view .LVU40
 163              	.LBB126:
 164              		.loc 6 264 3 view .LVU41
 165              	.LBE126:
 166              	.LBE125:
 167              	.LBE129:
 168              	.LBE132:
 169              		.loc 1 113 32 is_stmt 0 view .LVU42
 170 0000 38B5     		push	{r3, r4, r5, lr}
 171              		.cfi_def_cfa_offset 16
ARM GAS  /tmp/ccGzWvR3.s 			page 4


 172              		.cfi_offset 3, -16
 173              		.cfi_offset 4, -12
 174              		.cfi_offset 5, -8
 175              		.cfi_offset 14, -4
 176              		.loc 1 113 32 view .LVU43
 177 0002 0446     		mov	r4, r0
 178              	.LBB133:
 179              	.LBB130:
 180              	.LBB128:
 181              	.LBB127:
 182              		.loc 6 264 3 view .LVU44
 183 0004 2023     		movs	r3, #32
 184              		.syntax unified
 185              	@ 264 "../../../os/common/ext/CMSIS/include/cmsis_gcc.h" 1
 186 0006 83F31188 		MSR basepri, r3
 187              	@ 0 "" 2
 188              	.LVL4:
 189              		.loc 6 264 3 view .LVU45
 190              		.thumb
 191              		.syntax unified
 192              	.LBE127:
 193              	.LBE128:
 194              	.LBE130:
 195              	.LBE133:
 196              		.loc 4 377 34 is_stmt 1 view .LVU46
 197              		.loc 4 378 20 view .LVU47
 198              		.loc 1 116 3 view .LVU48
 199              	.LBB134:
 200              	.LBI134:
 201              		.loc 1 133 6 view .LVU49
 202              	.LBB135:
 203              		.loc 1 135 21 view .LVU50
 204              		.loc 1 136 3 view .LVU51
 205              		.loc 1 136 3 view .LVU52
 206              		.loc 1 136 3 view .LVU53
 207              		.loc 1 138 3 view .LVU54
 208              		.loc 1 138 19 is_stmt 0 view .LVU55
 209 000a 0368     		ldr	r3, [r0]
 210              		.loc 1 141 14 view .LVU56
 211 000c 0122     		movs	r2, #1
 212              		.loc 1 140 14 view .LVU57
 213 000e 0025     		movs	r5, #0
 214              		.loc 1 139 14 view .LVU58
 215 0010 C4E90233 		strd	r3, r3, [r4, #8]
 216              		.loc 1 140 3 is_stmt 1 view .LVU59
 217              		.loc 1 141 14 is_stmt 0 view .LVU60
 218 0014 2275     		strb	r2, [r4, #20]
 219              		.loc 1 142 3 view .LVU61
 220 0016 1830     		adds	r0, r0, #24
 221              	.LVL5:
 222              		.loc 1 140 14 view .LVU62
 223 0018 2561     		str	r5, [r4, #16]
 224              		.loc 1 141 3 is_stmt 1 view .LVU63
 225              		.loc 1 142 3 view .LVU64
 226 001a 6FF00101 		mvn	r1, #1
 227 001e FFF7FEFF 		bl	chThdDequeueAllI
 228              	.LVL6:
ARM GAS  /tmp/ccGzWvR3.s 			page 5


 229              		.loc 1 143 3 view .LVU65
 230 0022 6FF00101 		mvn	r1, #1
 231 0026 04F12000 		add	r0, r4, #32
 232 002a FFF7FEFF 		bl	chThdDequeueAllI
 233              	.LVL7:
 234              		.loc 1 143 3 is_stmt 0 view .LVU66
 235              	.LBE135:
 236              	.LBE134:
 237              		.loc 1 117 3 is_stmt 1 view .LVU67
 238 002e FFF7FEFF 		bl	chSchRescheduleS
 239              	.LVL8:
 240              		.loc 1 118 3 view .LVU68
 241              	.LBB136:
 242              	.LBI136:
 243              		.loc 4 386 20 view .LVU69
 244              	.LBB137:
 245              		.loc 4 388 22 view .LVU70
 246              		.loc 4 389 33 view .LVU71
 247              		.loc 4 395 3 view .LVU72
 248              		.loc 4 395 3 view .LVU73
 249              		.loc 4 395 3 view .LVU74
 250              		.loc 4 399 3 view .LVU75
 251              	.LBB138:
 252              	.LBI138:
 253              		.loc 5 618 20 view .LVU76
 254              	.LBE138:
 255              	.LBE137:
 256              	.LBE136:
 257              		.loc 5 621 3 view .LVU77
 258              	.LBB143:
 259              	.LBB142:
 260              	.LBB141:
 261              	.LBB139:
 262              	.LBI139:
 263              		.loc 6 262 57 view .LVU78
 264              	.LBB140:
 265              		.loc 6 264 3 view .LVU79
 266              		.syntax unified
 267              	@ 264 "../../../os/common/ext/CMSIS/include/cmsis_gcc.h" 1
 268 0032 85F31188 		MSR basepri, r5
 269              	@ 0 "" 2
 270              	.LVL9:
 271              		.loc 6 264 3 is_stmt 0 view .LVU80
 272              		.thumb
 273              		.syntax unified
 274              	.LBE140:
 275              	.LBE139:
 276              	.LBE141:
 277              	.LBE142:
 278              	.LBE143:
 279              		.loc 1 119 1 view .LVU81
 280 0036 38BD     		pop	{r3, r4, r5, pc}
 281              		.loc 1 119 1 view .LVU82
 282              		.cfi_endproc
 283              	.LFE247:
 284              		.size	chMBReset, .-chMBReset
 285              		.section	.text.chMBResetI,"ax",%progbits
ARM GAS  /tmp/ccGzWvR3.s 			page 6


 286              		.align	1
 287              		.p2align 4,,15
 288              		.global	chMBResetI
 289              		.syntax unified
 290              		.thumb
 291              		.thumb_func
 292              		.fpu softvfp
 293              		.type	chMBResetI, %function
 294              	chMBResetI:
 295              	.LVL10:
 296              	.LFB248:
 297              		.loc 1 133 33 is_stmt 1 view -0
 298              		.cfi_startproc
 299              		@ args = 0, pretend = 0, frame = 0
 300              		@ frame_needed = 0, uses_anonymous_args = 0
 301              		.loc 1 135 21 view .LVU84
 302              		.loc 1 136 3 view .LVU85
 303              		.loc 1 136 3 view .LVU86
 304              		.loc 1 136 3 view .LVU87
 305              		.loc 1 138 3 view .LVU88
 306              		.loc 1 133 33 is_stmt 0 view .LVU89
 307 0000 10B5     		push	{r4, lr}
 308              		.cfi_def_cfa_offset 8
 309              		.cfi_offset 4, -8
 310              		.cfi_offset 14, -4
 311              		.loc 1 133 33 view .LVU90
 312 0002 0446     		mov	r4, r0
 313              		.loc 1 141 14 view .LVU91
 314 0004 0122     		movs	r2, #1
 315              		.loc 1 138 19 view .LVU92
 316 0006 2368     		ldr	r3, [r4]
 317              		.loc 1 141 14 view .LVU93
 318 0008 2275     		strb	r2, [r4, #20]
 319              		.loc 1 140 14 view .LVU94
 320 000a 0020     		movs	r0, #0
 321              	.LVL11:
 322              		.loc 1 140 14 view .LVU95
 323 000c 2061     		str	r0, [r4, #16]
 324              		.loc 1 139 14 view .LVU96
 325 000e C4E90233 		strd	r3, r3, [r4, #8]
 326              		.loc 1 140 3 is_stmt 1 view .LVU97
 327              		.loc 1 141 3 view .LVU98
 328              		.loc 1 142 3 view .LVU99
 329 0012 04F11800 		add	r0, r4, #24
 330 0016 6FF00101 		mvn	r1, #1
 331 001a FFF7FEFF 		bl	chThdDequeueAllI
 332              	.LVL12:
 333              		.loc 1 143 3 view .LVU100
 334 001e 04F12000 		add	r0, r4, #32
 335 0022 6FF00101 		mvn	r1, #1
 336              		.loc 1 144 1 is_stmt 0 view .LVU101
 337 0026 BDE81040 		pop	{r4, lr}
 338              		.cfi_restore 14
 339              		.cfi_restore 4
 340              		.cfi_def_cfa_offset 0
 341              	.LVL13:
 342              		.loc 1 143 3 view .LVU102
ARM GAS  /tmp/ccGzWvR3.s 			page 7


 343 002a FFF7FEBF 		b	chThdDequeueAllI
 344              	.LVL14:
 345              		.loc 1 143 3 view .LVU103
 346              		.cfi_endproc
 347              	.LFE248:
 348              		.size	chMBResetI, .-chMBResetI
 349 002e 00BF     		.section	.text.chMBPostS,"ax",%progbits
 350              		.align	1
 351              		.p2align 4,,15
 352              		.global	chMBPostS
 353              		.syntax unified
 354              		.thumb
 355              		.thumb_func
 356              		.fpu softvfp
 357              		.type	chMBPostS, %function
 358              	chMBPostS:
 359              	.LVL15:
 360              	.LFB250:
 361              		.loc 1 194 63 is_stmt 1 view -0
 362              		.cfi_startproc
 363              		@ args = 0, pretend = 0, frame = 0
 364              		@ frame_needed = 0, uses_anonymous_args = 0
 365              		.loc 1 195 3 view .LVU105
 366              		.loc 1 197 21 view .LVU106
 367              		.loc 1 198 3 view .LVU107
 368              		.loc 1 198 3 view .LVU108
 369              		.loc 1 194 63 is_stmt 0 view .LVU109
 370 0000 2DE9F041 		push	{r4, r5, r6, r7, r8, lr}
 371              		.cfi_def_cfa_offset 24
 372              		.cfi_offset 4, -24
 373              		.cfi_offset 5, -20
 374              		.cfi_offset 6, -16
 375              		.cfi_offset 7, -12
 376              		.cfi_offset 8, -8
 377              		.cfi_offset 14, -4
 378              		.loc 1 194 63 view .LVU110
 379 0004 0446     		mov	r4, r0
 380 0006 0E46     		mov	r6, r1
 381 0008 1746     		mov	r7, r2
 382              		.loc 1 222 14 view .LVU111
 383 000a 00F11808 		add	r8, r0, #24
 384 000e 0BE0     		b	.L12
 385              	.LVL16:
 386              	.L18:
 387              	.LBB144:
 388              	.LBB145:
 389              	.LBB146:
 390              	.LBB147:
 391              		.file 7 "../../../os/common/oslib/include/chmboxes.h"
 392              		.loc 7 140 32 view .LVU112
 393 0010 D4E90025 		ldrd	r2, r5, [r4]
 394              	.LVL17:
 395              		.loc 7 140 32 view .LVU113
 396              	.LBE147:
 397              	.LBE146:
 398              	.LBB150:
 399              	.LBI150:
ARM GAS  /tmp/ccGzWvR3.s 			page 8


 400              		.loc 7 153 21 is_stmt 1 view .LVU114
 401              	.LBB151:
 402              		.loc 7 155 21 view .LVU115
 403              		.loc 7 157 3 view .LVU116
 404              		.loc 7 157 3 is_stmt 0 view .LVU117
 405              	.LBE151:
 406              	.LBE150:
 407              		.loc 7 172 28 view .LVU118
 408 0014 2369     		ldr	r3, [r4, #16]
 409              	.LBB152:
 410              	.LBB148:
 411              		.loc 7 140 27 view .LVU119
 412 0016 A5EB020C 		sub	ip, r5, r2
 413              	.LBE148:
 414              	.LBE152:
 415              		.loc 7 172 28 view .LVU120
 416 001a C3EBAC03 		rsb	r3, r3, ip, asr #2
 417              	.LBE145:
 418              	.LBE144:
 419              		.loc 1 207 8 view .LVU121
 420 001e 002B     		cmp	r3, #0
 421 0020 0BDC     		bgt	.L17
 422              		.loc 1 222 14 view .LVU122
 423 0022 FFF7FEFF 		bl	chThdEnqueueTimeoutS
 424              	.LVL18:
 425              		.loc 1 223 11 is_stmt 1 view .LVU123
 426              		.loc 1 223 3 is_stmt 0 view .LVU124
 427 0026 30B9     		cbnz	r0, .L8
 428              	.LVL19:
 429              	.L12:
 430              		.loc 1 198 3 is_stmt 1 discriminator 5 view .LVU125
 431              		.loc 1 200 3 discriminator 5 view .LVU126
 432              		.loc 1 202 5 discriminator 5 view .LVU127
 433              		.loc 1 207 5 discriminator 5 view .LVU128
 434              	.LBB155:
 435              	.LBI144:
 436              		.loc 7 168 21 discriminator 5 view .LVU129
 437              	.LBB154:
 438              		.loc 7 170 21 discriminator 5 view .LVU130
 439              		.loc 7 172 3 discriminator 5 view .LVU131
 440              	.LBB153:
 441              	.LBI146:
 442              		.loc 7 136 21 discriminator 5 view .LVU132
 443              	.LBB149:
 444              		.loc 7 140 3 discriminator 5 view .LVU133
 445              	.LBE149:
 446              	.LBE153:
 447              	.LBE154:
 448              	.LBE155:
 449              		.loc 1 222 5 discriminator 5 view .LVU134
 450              		.loc 1 202 8 is_stmt 0 discriminator 5 view .LVU135
 451 0028 237D     		ldrb	r3, [r4, #20]	@ zero_extendqisi2
 452              		.loc 1 222 14 discriminator 5 view .LVU136
 453 002a 3946     		mov	r1, r7
 454 002c 4046     		mov	r0, r8
 455              		.loc 1 202 8 discriminator 5 view .LVU137
 456 002e 002B     		cmp	r3, #0
ARM GAS  /tmp/ccGzWvR3.s 			page 9


 457 0030 EED0     		beq	.L18
 458              	.LVL20:
 459              		.loc 1 203 14 view .LVU138
 460 0032 6FF00100 		mvn	r0, #1
 461              	.LVL21:
 462              	.L8:
 463              		.loc 1 226 1 view .LVU139
 464 0036 BDE8F081 		pop	{r4, r5, r6, r7, r8, pc}
 465              	.LVL22:
 466              	.L17:
 467              		.loc 1 208 7 is_stmt 1 view .LVU140
 468              		.loc 1 208 11 is_stmt 0 view .LVU141
 469 003a A168     		ldr	r1, [r4, #8]
 470              	.LVL23:
 471              		.loc 1 208 18 view .LVU142
 472 003c 0B1D     		adds	r3, r1, #4
 473 003e A360     		str	r3, [r4, #8]
 474              		.loc 1 208 21 view .LVU143
 475 0040 0E60     		str	r6, [r1]
 476              		.loc 1 209 7 is_stmt 1 view .LVU144
 477              		.loc 1 209 10 is_stmt 0 view .LVU145
 478 0042 AB42     		cmp	r3, r5
 479              		.loc 1 210 9 is_stmt 1 view .LVU146
 480              		.loc 1 212 7 view .LVU147
 481              		.loc 1 212 15 is_stmt 0 view .LVU148
 482 0044 2369     		ldr	r3, [r4, #16]
 483              		.loc 1 210 20 view .LVU149
 484 0046 28BF     		it	cs
 485 0048 A260     		strcs	r2, [r4, #8]
 486              		.loc 1 212 15 view .LVU150
 487 004a 0133     		adds	r3, r3, #1
 488              		.loc 1 215 7 view .LVU151
 489 004c 04F12000 		add	r0, r4, #32
 490 0050 0021     		movs	r1, #0
 491              		.loc 1 212 15 view .LVU152
 492 0052 2361     		str	r3, [r4, #16]
 493              		.loc 1 215 7 is_stmt 1 view .LVU153
 494 0054 FFF7FEFF 		bl	chThdDequeueNextI
 495              	.LVL24:
 496              		.loc 1 216 7 view .LVU154
 497 0058 FFF7FEFF 		bl	chSchRescheduleS
 498              	.LVL25:
 499              		.loc 1 218 7 view .LVU155
 500              		.loc 1 218 14 is_stmt 0 view .LVU156
 501 005c 0020     		movs	r0, #0
 502              		.loc 1 226 1 view .LVU157
 503 005e BDE8F081 		pop	{r4, r5, r6, r7, r8, pc}
 504              		.loc 1 226 1 view .LVU158
 505              		.cfi_endproc
 506              	.LFE250:
 507              		.size	chMBPostS, .-chMBPostS
 508 0062 00BF     		.section	.text.chMBPost,"ax",%progbits
 509              		.align	1
 510              		.p2align 4,,15
 511              		.global	chMBPost
 512              		.syntax unified
 513              		.thumb
ARM GAS  /tmp/ccGzWvR3.s 			page 10


 514              		.thumb_func
 515              		.fpu softvfp
 516              		.type	chMBPost, %function
 517              	chMBPost:
 518              	.LVL26:
 519              	.LFB249:
 520              		.loc 1 165 62 is_stmt 1 view -0
 521              		.cfi_startproc
 522              		@ args = 0, pretend = 0, frame = 0
 523              		@ frame_needed = 0, uses_anonymous_args = 0
 524              		.loc 1 166 3 view .LVU160
 525              		.loc 1 168 3 view .LVU161
 526              	.LBB156:
 527              	.LBI156:
 528              		.loc 4 374 20 view .LVU162
 529              	.LBE156:
 530              		.loc 4 376 3 view .LVU163
 531              	.LBB164:
 532              	.LBB157:
 533              	.LBI157:
 534              		.loc 5 594 20 view .LVU164
 535              	.LBE157:
 536              	.LBE164:
 537              		.loc 5 602 3 view .LVU165
 538              	.LBB165:
 539              	.LBB162:
 540              	.LBB158:
 541              	.LBI158:
 542              		.loc 6 262 57 view .LVU166
 543              	.LBB159:
 544              		.loc 6 264 3 view .LVU167
 545              	.LBE159:
 546              	.LBE158:
 547              	.LBE162:
 548              	.LBE165:
 549              		.loc 1 165 62 is_stmt 0 view .LVU168
 550 0000 08B5     		push	{r3, lr}
 551              		.cfi_def_cfa_offset 8
 552              		.cfi_offset 3, -8
 553              		.cfi_offset 14, -4
 554              	.LBB166:
 555              	.LBB163:
 556              	.LBB161:
 557              	.LBB160:
 558              		.loc 6 264 3 view .LVU169
 559 0002 2023     		movs	r3, #32
 560              		.syntax unified
 561              	@ 264 "../../../os/common/ext/CMSIS/include/cmsis_gcc.h" 1
 562 0004 83F31188 		MSR basepri, r3
 563              	@ 0 "" 2
 564              	.LVL27:
 565              		.loc 6 264 3 view .LVU170
 566              		.thumb
 567              		.syntax unified
 568              	.LBE160:
 569              	.LBE161:
 570              	.LBE163:
ARM GAS  /tmp/ccGzWvR3.s 			page 11


 571              	.LBE166:
 572              		.loc 4 377 34 is_stmt 1 view .LVU171
 573              		.loc 4 378 20 view .LVU172
 574              		.loc 1 169 3 view .LVU173
 575              		.loc 1 169 12 is_stmt 0 view .LVU174
 576 0008 FFF7FEFF 		bl	chMBPostS
 577              	.LVL28:
 578              		.loc 1 170 3 is_stmt 1 view .LVU175
 579              	.LBB167:
 580              	.LBI167:
 581              		.loc 4 386 20 view .LVU176
 582              	.LBB168:
 583              		.loc 4 388 22 view .LVU177
 584              		.loc 4 389 33 view .LVU178
 585              		.loc 4 395 3 view .LVU179
 586              		.loc 4 395 3 view .LVU180
 587              		.loc 4 395 3 view .LVU181
 588              		.loc 4 399 3 view .LVU182
 589              	.LBB169:
 590              	.LBI169:
 591              		.loc 5 618 20 view .LVU183
 592              	.LBE169:
 593              	.LBE168:
 594              	.LBE167:
 595              		.loc 5 621 3 view .LVU184
 596              	.LBB174:
 597              	.LBB173:
 598              	.LBB172:
 599              	.LBB170:
 600              	.LBI170:
 601              		.loc 6 262 57 view .LVU185
 602              	.LBB171:
 603              		.loc 6 264 3 view .LVU186
 604 000c 0023     		movs	r3, #0
 605              		.syntax unified
 606              	@ 264 "../../../os/common/ext/CMSIS/include/cmsis_gcc.h" 1
 607 000e 83F31188 		MSR basepri, r3
 608              	@ 0 "" 2
 609              	.LVL29:
 610              		.loc 6 264 3 is_stmt 0 view .LVU187
 611              		.thumb
 612              		.syntax unified
 613              	.LBE171:
 614              	.LBE170:
 615              	.LBE172:
 616              	.LBE173:
 617              	.LBE174:
 618              		.loc 1 172 3 is_stmt 1 view .LVU188
 619              		.loc 1 173 1 is_stmt 0 view .LVU189
 620 0012 08BD     		pop	{r3, pc}
 621              		.cfi_endproc
 622              	.LFE249:
 623              		.size	chMBPost, .-chMBPost
 624              		.section	.text.chMBPostI,"ax",%progbits
 625              		.align	1
 626              		.p2align 4,,15
 627              		.global	chMBPostI
ARM GAS  /tmp/ccGzWvR3.s 			page 12


 628              		.syntax unified
 629              		.thumb
 630              		.thumb_func
 631              		.fpu softvfp
 632              		.type	chMBPostI, %function
 633              	chMBPostI:
 634              	.LVL30:
 635              	.LFB251:
 636              		.loc 1 243 44 is_stmt 1 view -0
 637              		.cfi_startproc
 638              		@ args = 0, pretend = 0, frame = 0
 639              		@ frame_needed = 0, uses_anonymous_args = 0
 640              		.loc 1 245 21 view .LVU191
 641              		.loc 1 246 3 view .LVU192
 642              		.loc 1 246 3 view .LVU193
 643              		.loc 1 246 3 view .LVU194
 644              		.loc 1 249 3 view .LVU195
 645              		.loc 1 243 44 is_stmt 0 view .LVU196
 646 0000 38B5     		push	{r3, r4, r5, lr}
 647              		.cfi_def_cfa_offset 16
 648              		.cfi_offset 3, -16
 649              		.cfi_offset 4, -12
 650              		.cfi_offset 5, -8
 651              		.cfi_offset 14, -4
 652              		.loc 1 249 6 view .LVU197
 653 0002 037D     		ldrb	r3, [r0, #20]	@ zero_extendqisi2
 654 0004 D3B9     		cbnz	r3, .L24
 655              		.loc 1 254 3 is_stmt 1 view .LVU198
 656              	.LVL31:
 657              	.LBB175:
 658              	.LBI175:
 659              		.loc 7 168 21 view .LVU199
 660              	.LBB176:
 661              		.loc 7 170 21 view .LVU200
 662              		.loc 7 172 3 view .LVU201
 663              	.LBB177:
 664              	.LBI177:
 665              		.loc 7 136 21 view .LVU202
 666              	.LBB178:
 667              		.loc 7 140 3 view .LVU203
 668              		.loc 7 140 32 is_stmt 0 view .LVU204
 669 0006 D0E90052 		ldrd	r5, r2, [r0]
 670              	.LVL32:
 671              		.loc 7 140 32 view .LVU205
 672              	.LBE178:
 673              	.LBE177:
 674              	.LBB180:
 675              	.LBI180:
 676              		.loc 7 153 21 is_stmt 1 view .LVU206
 677              	.LBB181:
 678              		.loc 7 155 21 view .LVU207
 679              		.loc 7 157 3 view .LVU208
 680              		.loc 7 157 3 is_stmt 0 view .LVU209
 681              	.LBE181:
 682              	.LBE180:
 683              		.loc 7 172 28 view .LVU210
 684 000a 0369     		ldr	r3, [r0, #16]
ARM GAS  /tmp/ccGzWvR3.s 			page 13


 685              	.LBB182:
 686              	.LBB179:
 687              		.loc 7 140 27 view .LVU211
 688 000c 541B     		subs	r4, r2, r5
 689              	.LBE179:
 690              	.LBE182:
 691              		.loc 7 172 28 view .LVU212
 692 000e C3EBA403 		rsb	r3, r3, r4, asr #2
 693              	.LBE176:
 694              	.LBE175:
 695              		.loc 1 254 6 view .LVU213
 696 0012 002B     		cmp	r3, #0
 697 0014 0FDD     		ble	.L25
 698              		.loc 1 255 5 is_stmt 1 view .LVU214
 699              		.loc 1 255 9 is_stmt 0 view .LVU215
 700 0016 8468     		ldr	r4, [r0, #8]
 701              		.loc 1 255 16 view .LVU216
 702 0018 231D     		adds	r3, r4, #4
 703 001a 8360     		str	r3, [r0, #8]
 704              		.loc 1 255 19 view .LVU217
 705 001c 2160     		str	r1, [r4]
 706              		.loc 1 256 5 is_stmt 1 view .LVU218
 707              		.loc 1 256 8 is_stmt 0 view .LVU219
 708 001e 9342     		cmp	r3, r2
 709              		.loc 1 257 7 is_stmt 1 view .LVU220
 710              		.loc 1 259 5 view .LVU221
 711              		.loc 1 259 13 is_stmt 0 view .LVU222
 712 0020 0369     		ldr	r3, [r0, #16]
 713              		.loc 1 257 18 view .LVU223
 714 0022 28BF     		it	cs
 715 0024 8560     		strcs	r5, [r0, #8]
 716              		.loc 1 259 13 view .LVU224
 717 0026 0133     		adds	r3, r3, #1
 718 0028 0361     		str	r3, [r0, #16]
 719              		.loc 1 262 5 is_stmt 1 view .LVU225
 720 002a 0021     		movs	r1, #0
 721              	.LVL33:
 722              		.loc 1 262 5 is_stmt 0 view .LVU226
 723 002c 2030     		adds	r0, r0, #32
 724              	.LVL34:
 725              		.loc 1 262 5 view .LVU227
 726 002e FFF7FEFF 		bl	chThdDequeueNextI
 727              	.LVL35:
 728              		.loc 1 264 5 is_stmt 1 view .LVU228
 729              		.loc 1 264 12 is_stmt 0 view .LVU229
 730 0032 0020     		movs	r0, #0
 731              		.loc 1 269 1 view .LVU230
 732 0034 38BD     		pop	{r3, r4, r5, pc}
 733              	.LVL36:
 734              	.L25:
 735              		.loc 1 268 10 view .LVU231
 736 0036 4FF0FF30 		mov	r0, #-1
 737              	.LVL37:
 738              		.loc 1 269 1 view .LVU232
 739 003a 38BD     		pop	{r3, r4, r5, pc}
 740              	.LVL38:
 741              	.L24:
ARM GAS  /tmp/ccGzWvR3.s 			page 14


 742              		.loc 1 250 12 view .LVU233
 743 003c 6FF00100 		mvn	r0, #1
 744              	.LVL39:
 745              		.loc 1 269 1 view .LVU234
 746 0040 38BD     		pop	{r3, r4, r5, pc}
 747              		.cfi_endproc
 748              	.LFE251:
 749              		.size	chMBPostI, .-chMBPostI
 750 0042 00BF     		.section	.text.chMBPostAheadS,"ax",%progbits
 751              		.align	1
 752              		.p2align 4,,15
 753              		.global	chMBPostAheadS
 754              		.syntax unified
 755              		.thumb
 756              		.thumb_func
 757              		.fpu softvfp
 758              		.type	chMBPostAheadS, %function
 759              	chMBPostAheadS:
 760              	.LVL40:
 761              	.LFB253:
 762              		.loc 1 319 68 is_stmt 1 view -0
 763              		.cfi_startproc
 764              		@ args = 0, pretend = 0, frame = 0
 765              		@ frame_needed = 0, uses_anonymous_args = 0
 766              		.loc 1 320 3 view .LVU236
 767              		.loc 1 322 21 view .LVU237
 768              		.loc 1 323 3 view .LVU238
 769              		.loc 1 323 3 view .LVU239
 770              		.loc 1 319 68 is_stmt 0 view .LVU240
 771 0000 2DE9F041 		push	{r4, r5, r6, r7, r8, lr}
 772              		.cfi_def_cfa_offset 24
 773              		.cfi_offset 4, -24
 774              		.cfi_offset 5, -20
 775              		.cfi_offset 6, -16
 776              		.cfi_offset 7, -12
 777              		.cfi_offset 8, -8
 778              		.cfi_offset 14, -4
 779              		.loc 1 319 68 view .LVU241
 780 0004 0446     		mov	r4, r0
 781 0006 0E46     		mov	r6, r1
 782 0008 1746     		mov	r7, r2
 783              		.loc 1 347 14 view .LVU242
 784 000a 00F11808 		add	r8, r0, #24
 785 000e 0BE0     		b	.L32
 786              	.LVL41:
 787              	.L39:
 788              	.LBB183:
 789              	.LBB184:
 790              	.LBB185:
 791              	.LBB186:
 792              		.loc 7 140 32 view .LVU243
 793 0010 D4E90052 		ldrd	r5, r2, [r4]
 794              	.LVL42:
 795              		.loc 7 140 32 view .LVU244
 796              	.LBE186:
 797              	.LBE185:
 798              	.LBB189:
ARM GAS  /tmp/ccGzWvR3.s 			page 15


 799              	.LBI189:
 800              		.loc 7 153 21 is_stmt 1 view .LVU245
 801              	.LBB190:
 802              		.loc 7 155 21 view .LVU246
 803              		.loc 7 157 3 view .LVU247
 804              		.loc 7 157 3 is_stmt 0 view .LVU248
 805              	.LBE190:
 806              	.LBE189:
 807              		.loc 7 172 28 view .LVU249
 808 0014 2369     		ldr	r3, [r4, #16]
 809              	.LBB191:
 810              	.LBB187:
 811              		.loc 7 140 27 view .LVU250
 812 0016 A2EB050C 		sub	ip, r2, r5
 813              	.LBE187:
 814              	.LBE191:
 815              		.loc 7 172 28 view .LVU251
 816 001a C3EBAC03 		rsb	r3, r3, ip, asr #2
 817              	.LBE184:
 818              	.LBE183:
 819              		.loc 1 332 8 view .LVU252
 820 001e 002B     		cmp	r3, #0
 821 0020 0BDC     		bgt	.L38
 822              		.loc 1 347 14 view .LVU253
 823 0022 FFF7FEFF 		bl	chThdEnqueueTimeoutS
 824              	.LVL43:
 825              		.loc 1 348 11 is_stmt 1 view .LVU254
 826              		.loc 1 348 3 is_stmt 0 view .LVU255
 827 0026 30B9     		cbnz	r0, .L27
 828              	.LVL44:
 829              	.L32:
 830              		.loc 1 323 3 is_stmt 1 discriminator 5 view .LVU256
 831              		.loc 1 325 3 discriminator 5 view .LVU257
 832              		.loc 1 327 5 discriminator 5 view .LVU258
 833              		.loc 1 332 5 discriminator 5 view .LVU259
 834              	.LBB194:
 835              	.LBI183:
 836              		.loc 7 168 21 discriminator 5 view .LVU260
 837              	.LBB193:
 838              		.loc 7 170 21 discriminator 5 view .LVU261
 839              		.loc 7 172 3 discriminator 5 view .LVU262
 840              	.LBB192:
 841              	.LBI185:
 842              		.loc 7 136 21 discriminator 5 view .LVU263
 843              	.LBB188:
 844              		.loc 7 140 3 discriminator 5 view .LVU264
 845              	.LBE188:
 846              	.LBE192:
 847              	.LBE193:
 848              	.LBE194:
 849              		.loc 1 347 5 discriminator 5 view .LVU265
 850              		.loc 1 327 8 is_stmt 0 discriminator 5 view .LVU266
 851 0028 237D     		ldrb	r3, [r4, #20]	@ zero_extendqisi2
 852              		.loc 1 347 14 discriminator 5 view .LVU267
 853 002a 3946     		mov	r1, r7
 854 002c 4046     		mov	r0, r8
 855              		.loc 1 327 8 discriminator 5 view .LVU268
ARM GAS  /tmp/ccGzWvR3.s 			page 16


 856 002e 002B     		cmp	r3, #0
 857 0030 EED0     		beq	.L39
 858              	.LVL45:
 859              		.loc 1 328 14 view .LVU269
 860 0032 6FF00100 		mvn	r0, #1
 861              	.LVL46:
 862              	.L27:
 863              		.loc 1 351 1 view .LVU270
 864 0036 BDE8F081 		pop	{r4, r5, r6, r7, r8, pc}
 865              	.LVL47:
 866              	.L38:
 867              		.loc 1 333 7 is_stmt 1 view .LVU271
 868              		.loc 1 333 11 is_stmt 0 view .LVU272
 869 003a E368     		ldr	r3, [r4, #12]
 870 003c 043B     		subs	r3, r3, #4
 871              		.loc 1 333 10 view .LVU273
 872 003e AB42     		cmp	r3, r5
 873              		.loc 1 334 9 is_stmt 1 view .LVU274
 874              		.loc 1 336 7 view .LVU275
 875              		.loc 1 334 31 is_stmt 0 view .LVU276
 876 0040 38BF     		it	cc
 877 0042 131F     		subcc	r3, r2, #4
 878              		.loc 1 334 20 view .LVU277
 879 0044 E360     		str	r3, [r4, #12]
 880              		.loc 1 336 19 view .LVU278
 881 0046 1E60     		str	r6, [r3]
 882              		.loc 1 337 7 is_stmt 1 view .LVU279
 883              		.loc 1 337 15 is_stmt 0 view .LVU280
 884 0048 2369     		ldr	r3, [r4, #16]
 885 004a 0133     		adds	r3, r3, #1
 886              		.loc 1 340 7 view .LVU281
 887 004c 04F12000 		add	r0, r4, #32
 888 0050 0021     		movs	r1, #0
 889              	.LVL48:
 890              		.loc 1 337 15 view .LVU282
 891 0052 2361     		str	r3, [r4, #16]
 892              		.loc 1 340 7 is_stmt 1 view .LVU283
 893 0054 FFF7FEFF 		bl	chThdDequeueNextI
 894              	.LVL49:
 895              		.loc 1 341 7 view .LVU284
 896 0058 FFF7FEFF 		bl	chSchRescheduleS
 897              	.LVL50:
 898              		.loc 1 343 7 view .LVU285
 899              		.loc 1 343 14 is_stmt 0 view .LVU286
 900 005c 0020     		movs	r0, #0
 901              		.loc 1 351 1 view .LVU287
 902 005e BDE8F081 		pop	{r4, r5, r6, r7, r8, pc}
 903              		.loc 1 351 1 view .LVU288
 904              		.cfi_endproc
 905              	.LFE253:
 906              		.size	chMBPostAheadS, .-chMBPostAheadS
 907 0062 00BF     		.section	.text.chMBPostAhead,"ax",%progbits
 908              		.align	1
 909              		.p2align 4,,15
 910              		.global	chMBPostAhead
 911              		.syntax unified
 912              		.thumb
ARM GAS  /tmp/ccGzWvR3.s 			page 17


 913              		.thumb_func
 914              		.fpu softvfp
 915              		.type	chMBPostAhead, %function
 916              	chMBPostAhead:
 917              	.LVL51:
 918              	.LFB252:
 919              		.loc 1 290 67 is_stmt 1 view -0
 920              		.cfi_startproc
 921              		@ args = 0, pretend = 0, frame = 0
 922              		@ frame_needed = 0, uses_anonymous_args = 0
 923              		.loc 1 291 3 view .LVU290
 924              		.loc 1 293 3 view .LVU291
 925              	.LBB195:
 926              	.LBI195:
 927              		.loc 4 374 20 view .LVU292
 928              	.LBE195:
 929              		.loc 4 376 3 view .LVU293
 930              	.LBB203:
 931              	.LBB196:
 932              	.LBI196:
 933              		.loc 5 594 20 view .LVU294
 934              	.LBE196:
 935              	.LBE203:
 936              		.loc 5 602 3 view .LVU295
 937              	.LBB204:
 938              	.LBB201:
 939              	.LBB197:
 940              	.LBI197:
 941              		.loc 6 262 57 view .LVU296
 942              	.LBB198:
 943              		.loc 6 264 3 view .LVU297
 944              	.LBE198:
 945              	.LBE197:
 946              	.LBE201:
 947              	.LBE204:
 948              		.loc 1 290 67 is_stmt 0 view .LVU298
 949 0000 08B5     		push	{r3, lr}
 950              		.cfi_def_cfa_offset 8
 951              		.cfi_offset 3, -8
 952              		.cfi_offset 14, -4
 953              	.LBB205:
 954              	.LBB202:
 955              	.LBB200:
 956              	.LBB199:
 957              		.loc 6 264 3 view .LVU299
 958 0002 2023     		movs	r3, #32
 959              		.syntax unified
 960              	@ 264 "../../../os/common/ext/CMSIS/include/cmsis_gcc.h" 1
 961 0004 83F31188 		MSR basepri, r3
 962              	@ 0 "" 2
 963              	.LVL52:
 964              		.loc 6 264 3 view .LVU300
 965              		.thumb
 966              		.syntax unified
 967              	.LBE199:
 968              	.LBE200:
 969              	.LBE202:
ARM GAS  /tmp/ccGzWvR3.s 			page 18


 970              	.LBE205:
 971              		.loc 4 377 34 is_stmt 1 view .LVU301
 972              		.loc 4 378 20 view .LVU302
 973              		.loc 1 294 3 view .LVU303
 974              		.loc 1 294 12 is_stmt 0 view .LVU304
 975 0008 FFF7FEFF 		bl	chMBPostAheadS
 976              	.LVL53:
 977              		.loc 1 295 3 is_stmt 1 view .LVU305
 978              	.LBB206:
 979              	.LBI206:
 980              		.loc 4 386 20 view .LVU306
 981              	.LBB207:
 982              		.loc 4 388 22 view .LVU307
 983              		.loc 4 389 33 view .LVU308
 984              		.loc 4 395 3 view .LVU309
 985              		.loc 4 395 3 view .LVU310
 986              		.loc 4 395 3 view .LVU311
 987              		.loc 4 399 3 view .LVU312
 988              	.LBB208:
 989              	.LBI208:
 990              		.loc 5 618 20 view .LVU313
 991              	.LBE208:
 992              	.LBE207:
 993              	.LBE206:
 994              		.loc 5 621 3 view .LVU314
 995              	.LBB213:
 996              	.LBB212:
 997              	.LBB211:
 998              	.LBB209:
 999              	.LBI209:
 1000              		.loc 6 262 57 view .LVU315
 1001              	.LBB210:
 1002              		.loc 6 264 3 view .LVU316
 1003 000c 0023     		movs	r3, #0
 1004              		.syntax unified
 1005              	@ 264 "../../../os/common/ext/CMSIS/include/cmsis_gcc.h" 1
 1006 000e 83F31188 		MSR basepri, r3
 1007              	@ 0 "" 2
 1008              	.LVL54:
 1009              		.loc 6 264 3 is_stmt 0 view .LVU317
 1010              		.thumb
 1011              		.syntax unified
 1012              	.LBE210:
 1013              	.LBE209:
 1014              	.LBE211:
 1015              	.LBE212:
 1016              	.LBE213:
 1017              		.loc 1 297 3 is_stmt 1 view .LVU318
 1018              		.loc 1 298 1 is_stmt 0 view .LVU319
 1019 0012 08BD     		pop	{r3, pc}
 1020              		.cfi_endproc
 1021              	.LFE252:
 1022              		.size	chMBPostAhead, .-chMBPostAhead
 1023              		.section	.text.chMBPostAheadI,"ax",%progbits
 1024              		.align	1
 1025              		.p2align 4,,15
 1026              		.global	chMBPostAheadI
ARM GAS  /tmp/ccGzWvR3.s 			page 19


 1027              		.syntax unified
 1028              		.thumb
 1029              		.thumb_func
 1030              		.fpu softvfp
 1031              		.type	chMBPostAheadI, %function
 1032              	chMBPostAheadI:
 1033              	.LVL55:
 1034              	.LFB254:
 1035              		.loc 1 368 49 is_stmt 1 view -0
 1036              		.cfi_startproc
 1037              		@ args = 0, pretend = 0, frame = 0
 1038              		@ frame_needed = 0, uses_anonymous_args = 0
 1039              		.loc 1 370 21 view .LVU321
 1040              		.loc 1 371 3 view .LVU322
 1041              		.loc 1 371 3 view .LVU323
 1042              		.loc 1 371 3 view .LVU324
 1043              		.loc 1 374 3 view .LVU325
 1044              		.loc 1 374 6 is_stmt 0 view .LVU326
 1045 0000 037D     		ldrb	r3, [r0, #20]	@ zero_extendqisi2
 1046 0002 E3B9     		cbnz	r3, .L46
 1047              		.loc 1 379 3 is_stmt 1 view .LVU327
 1048              	.LVL56:
 1049              	.LBB214:
 1050              	.LBI214:
 1051              		.loc 7 168 21 view .LVU328
 1052              	.LBB215:
 1053              		.loc 7 170 21 view .LVU329
 1054              		.loc 7 172 3 view .LVU330
 1055              	.LBB216:
 1056              	.LBI216:
 1057              		.loc 7 136 21 view .LVU331
 1058              	.LBB217:
 1059              		.loc 7 140 3 view .LVU332
 1060              	.LBE217:
 1061              	.LBE216:
 1062              	.LBE215:
 1063              	.LBE214:
 1064              		.loc 1 368 49 is_stmt 0 view .LVU333
 1065 0004 10B5     		push	{r4, lr}
 1066              		.cfi_def_cfa_offset 8
 1067              		.cfi_offset 4, -8
 1068              		.cfi_offset 14, -4
 1069              	.LBB225:
 1070              	.LBB224:
 1071              	.LBB220:
 1072              	.LBB218:
 1073              		.loc 7 140 32 view .LVU334
 1074 0006 D0E90024 		ldrd	r2, r4, [r0]
 1075              	.LVL57:
 1076              		.loc 7 140 32 view .LVU335
 1077              	.LBE218:
 1078              	.LBE220:
 1079              	.LBB221:
 1080              	.LBI221:
 1081              		.loc 7 153 21 is_stmt 1 view .LVU336
 1082              	.LBB222:
 1083              		.loc 7 155 21 view .LVU337
ARM GAS  /tmp/ccGzWvR3.s 			page 20


 1084              		.loc 7 157 3 view .LVU338
 1085              		.loc 7 157 3 is_stmt 0 view .LVU339
 1086              	.LBE222:
 1087              	.LBE221:
 1088              		.loc 7 172 28 view .LVU340
 1089 000a 0369     		ldr	r3, [r0, #16]
 1090              	.LBB223:
 1091              	.LBB219:
 1092              		.loc 7 140 27 view .LVU341
 1093 000c A4EB020C 		sub	ip, r4, r2
 1094              	.LBE219:
 1095              	.LBE223:
 1096              		.loc 7 172 28 view .LVU342
 1097 0010 C3EBAC03 		rsb	r3, r3, ip, asr #2
 1098              	.LBE224:
 1099              	.LBE225:
 1100              		.loc 1 379 6 view .LVU343
 1101 0014 002B     		cmp	r3, #0
 1102 0016 0FDD     		ble	.L47
 1103              		.loc 1 380 5 is_stmt 1 view .LVU344
 1104              		.loc 1 380 9 is_stmt 0 view .LVU345
 1105 0018 C368     		ldr	r3, [r0, #12]
 1106 001a 043B     		subs	r3, r3, #4
 1107              		.loc 1 380 8 view .LVU346
 1108 001c 9342     		cmp	r3, r2
 1109              		.loc 1 381 7 is_stmt 1 view .LVU347
 1110              		.loc 1 383 5 view .LVU348
 1111              		.loc 1 381 29 is_stmt 0 view .LVU349
 1112 001e 38BF     		it	cc
 1113 0020 231F     		subcc	r3, r4, #4
 1114              		.loc 1 381 18 view .LVU350
 1115 0022 C360     		str	r3, [r0, #12]
 1116              		.loc 1 383 17 view .LVU351
 1117 0024 1960     		str	r1, [r3]
 1118              		.loc 1 384 5 is_stmt 1 view .LVU352
 1119              		.loc 1 384 13 is_stmt 0 view .LVU353
 1120 0026 0369     		ldr	r3, [r0, #16]
 1121 0028 0133     		adds	r3, r3, #1
 1122 002a 0361     		str	r3, [r0, #16]
 1123              		.loc 1 387 5 is_stmt 1 view .LVU354
 1124 002c 0021     		movs	r1, #0
 1125              	.LVL58:
 1126              		.loc 1 387 5 is_stmt 0 view .LVU355
 1127 002e 2030     		adds	r0, r0, #32
 1128              	.LVL59:
 1129              		.loc 1 387 5 view .LVU356
 1130 0030 FFF7FEFF 		bl	chThdDequeueNextI
 1131              	.LVL60:
 1132              		.loc 1 389 5 is_stmt 1 view .LVU357
 1133              		.loc 1 389 12 is_stmt 0 view .LVU358
 1134 0034 0020     		movs	r0, #0
 1135              		.loc 1 394 1 view .LVU359
 1136 0036 10BD     		pop	{r4, pc}
 1137              	.LVL61:
 1138              	.L47:
 1139              		.loc 1 393 10 view .LVU360
 1140 0038 4FF0FF30 		mov	r0, #-1
ARM GAS  /tmp/ccGzWvR3.s 			page 21


 1141              	.LVL62:
 1142              		.loc 1 394 1 view .LVU361
 1143 003c 10BD     		pop	{r4, pc}
 1144              	.LVL63:
 1145              	.L46:
 1146              		.cfi_def_cfa_offset 0
 1147              		.cfi_restore 4
 1148              		.cfi_restore 14
 1149              		.loc 1 375 12 view .LVU362
 1150 003e 6FF00100 		mvn	r0, #1
 1151              	.LVL64:
 1152              		.loc 1 394 1 view .LVU363
 1153 0042 7047     		bx	lr
 1154              		.cfi_endproc
 1155              	.LFE254:
 1156              		.size	chMBPostAheadI, .-chMBPostAheadI
 1157              		.section	.text.chMBFetchS,"ax",%progbits
 1158              		.align	1
 1159              		.p2align 4,,15
 1160              		.global	chMBFetchS
 1161              		.syntax unified
 1162              		.thumb
 1163              		.thumb_func
 1164              		.fpu softvfp
 1165              		.type	chMBFetchS, %function
 1166              	chMBFetchS:
 1167              	.LVL65:
 1168              	.LFB256:
 1169              		.loc 1 444 66 is_stmt 1 view -0
 1170              		.cfi_startproc
 1171              		@ args = 0, pretend = 0, frame = 0
 1172              		@ frame_needed = 0, uses_anonymous_args = 0
 1173              		.loc 1 444 66 is_stmt 0 view .LVU365
 1174 0000 F8B5     		push	{r3, r4, r5, r6, r7, lr}
 1175              		.cfi_def_cfa_offset 24
 1176              		.cfi_offset 3, -24
 1177              		.cfi_offset 4, -20
 1178              		.cfi_offset 5, -16
 1179              		.cfi_offset 6, -12
 1180              		.cfi_offset 7, -8
 1181              		.cfi_offset 14, -4
 1182              		.loc 1 444 66 view .LVU366
 1183 0002 0446     		mov	r4, r0
 1184 0004 0E46     		mov	r6, r1
 1185              		.loc 1 445 3 is_stmt 1 view .LVU367
 1186              		.loc 1 447 21 view .LVU368
 1187              		.loc 1 448 3 view .LVU369
 1188              		.loc 1 448 3 view .LVU370
 1189              		.loc 1 444 66 is_stmt 0 view .LVU371
 1190 0006 1546     		mov	r5, r2
 1191              		.loc 1 472 14 view .LVU372
 1192 0008 00F12007 		add	r7, r0, #32
 1193 000c 05E0     		b	.L57
 1194              	.LVL66:
 1195              	.L63:
 1196              		.loc 1 457 8 view .LVU373
 1197 000e 2369     		ldr	r3, [r4, #16]
ARM GAS  /tmp/ccGzWvR3.s 			page 22


 1198 0010 002B     		cmp	r3, #0
 1199 0012 0ADC     		bgt	.L62
 1200              		.loc 1 472 14 view .LVU374
 1201 0014 FFF7FEFF 		bl	chThdEnqueueTimeoutS
 1202              	.LVL67:
 1203              		.loc 1 473 11 is_stmt 1 view .LVU375
 1204              		.loc 1 473 3 is_stmt 0 view .LVU376
 1205 0018 30B9     		cbnz	r0, .L53
 1206              	.LVL68:
 1207              	.L57:
 1208              		.loc 1 448 3 is_stmt 1 discriminator 7 view .LVU377
 1209              		.loc 1 450 3 discriminator 7 view .LVU378
 1210              		.loc 1 452 5 discriminator 7 view .LVU379
 1211              		.loc 1 457 5 discriminator 7 view .LVU380
 1212              	.LBB232:
 1213              	.LBI232:
 1214              		.loc 7 153 21 discriminator 7 view .LVU381
 1215              	.LBB233:
 1216              		.loc 7 155 21 discriminator 7 view .LVU382
 1217              		.loc 7 157 3 discriminator 7 view .LVU383
 1218              		.loc 7 157 3 is_stmt 0 discriminator 7 view .LVU384
 1219              	.LBE233:
 1220              	.LBE232:
 1221              		.loc 1 472 5 is_stmt 1 discriminator 7 view .LVU385
 1222              		.loc 1 452 8 is_stmt 0 discriminator 7 view .LVU386
 1223 001a 237D     		ldrb	r3, [r4, #20]	@ zero_extendqisi2
 1224              		.loc 1 472 14 discriminator 7 view .LVU387
 1225 001c 2946     		mov	r1, r5
 1226 001e 3846     		mov	r0, r7
 1227              		.loc 1 452 8 discriminator 7 view .LVU388
 1228 0020 002B     		cmp	r3, #0
 1229 0022 F4D0     		beq	.L63
 1230              	.LVL69:
 1231              		.loc 1 453 14 view .LVU389
 1232 0024 6FF00100 		mvn	r0, #1
 1233              	.LVL70:
 1234              	.L53:
 1235              		.loc 1 476 1 view .LVU390
 1236 0028 F8BD     		pop	{r3, r4, r5, r6, r7, pc}
 1237              	.LVL71:
 1238              	.L62:
 1239              	.LBB234:
 1240              	.LBI234:
 1241              		.loc 1 444 7 is_stmt 1 view .LVU391
 1242              	.LBB235:
 1243              		.loc 1 458 7 view .LVU392
 1244              		.loc 1 458 19 is_stmt 0 view .LVU393
 1245 002a E368     		ldr	r3, [r4, #12]
 1246              		.loc 1 459 10 view .LVU394
 1247 002c 6268     		ldr	r2, [r4, #4]
 1248              		.loc 1 458 15 view .LVU395
 1249 002e 1968     		ldr	r1, [r3]
 1250              	.LVL72:
 1251              		.loc 1 458 26 view .LVU396
 1252 0030 0433     		adds	r3, r3, #4
 1253              		.loc 1 459 10 view .LVU397
 1254 0032 9342     		cmp	r3, r2
ARM GAS  /tmp/ccGzWvR3.s 			page 23


 1255              		.loc 1 458 26 view .LVU398
 1256 0034 E360     		str	r3, [r4, #12]
 1257              		.loc 1 458 13 view .LVU399
 1258 0036 3160     		str	r1, [r6]
 1259              		.loc 1 459 7 is_stmt 1 view .LVU400
 1260              		.loc 1 460 9 view .LVU401
 1261              		.loc 1 462 7 view .LVU402
 1262              		.loc 1 460 20 is_stmt 0 view .LVU403
 1263 0038 24BF     		itt	cs
 1264 003a 2368     		ldrcs	r3, [r4]
 1265 003c E360     		strcs	r3, [r4, #12]
 1266              		.loc 1 462 15 view .LVU404
 1267 003e 2369     		ldr	r3, [r4, #16]
 1268 0040 013B     		subs	r3, r3, #1
 1269              		.loc 1 465 7 view .LVU405
 1270 0042 04F11800 		add	r0, r4, #24
 1271 0046 0021     		movs	r1, #0
 1272              		.loc 1 462 15 view .LVU406
 1273 0048 2361     		str	r3, [r4, #16]
 1274              		.loc 1 465 7 is_stmt 1 view .LVU407
 1275 004a FFF7FEFF 		bl	chThdDequeueNextI
 1276              	.LVL73:
 1277              		.loc 1 466 7 view .LVU408
 1278 004e FFF7FEFF 		bl	chSchRescheduleS
 1279              	.LVL74:
 1280              		.loc 1 468 7 view .LVU409
 1281              		.loc 1 466 7 is_stmt 0 view .LVU410
 1282 0052 0020     		movs	r0, #0
 1283              	.LBE235:
 1284              	.LBE234:
 1285              		.loc 1 476 1 view .LVU411
 1286 0054 F8BD     		pop	{r3, r4, r5, r6, r7, pc}
 1287              		.loc 1 476 1 view .LVU412
 1288              		.cfi_endproc
 1289              	.LFE256:
 1290              		.size	chMBFetchS, .-chMBFetchS
 1291 0056 00BF     		.section	.text.chMBFetch,"ax",%progbits
 1292              		.align	1
 1293              		.p2align 4,,15
 1294              		.global	chMBFetch
 1295              		.syntax unified
 1296              		.thumb
 1297              		.thumb_func
 1298              		.fpu softvfp
 1299              		.type	chMBFetch, %function
 1300              	chMBFetch:
 1301              	.LVL75:
 1302              	.LFB255:
 1303              		.loc 1 415 65 is_stmt 1 view -0
 1304              		.cfi_startproc
 1305              		@ args = 0, pretend = 0, frame = 0
 1306              		@ frame_needed = 0, uses_anonymous_args = 0
 1307              		.loc 1 416 3 view .LVU414
 1308              		.loc 1 418 3 view .LVU415
 1309              	.LBB236:
 1310              	.LBI236:
 1311              		.loc 4 374 20 view .LVU416
ARM GAS  /tmp/ccGzWvR3.s 			page 24


 1312              	.LBE236:
 1313              		.loc 4 376 3 view .LVU417
 1314              	.LBB244:
 1315              	.LBB237:
 1316              	.LBI237:
 1317              		.loc 5 594 20 view .LVU418
 1318              	.LBE237:
 1319              	.LBE244:
 1320              		.loc 5 602 3 view .LVU419
 1321              	.LBB245:
 1322              	.LBB242:
 1323              	.LBB238:
 1324              	.LBI238:
 1325              		.loc 6 262 57 view .LVU420
 1326              	.LBB239:
 1327              		.loc 6 264 3 view .LVU421
 1328              	.LBE239:
 1329              	.LBE238:
 1330              	.LBE242:
 1331              	.LBE245:
 1332              		.loc 1 415 65 is_stmt 0 view .LVU422
 1333 0000 08B5     		push	{r3, lr}
 1334              		.cfi_def_cfa_offset 8
 1335              		.cfi_offset 3, -8
 1336              		.cfi_offset 14, -4
 1337              	.LBB246:
 1338              	.LBB243:
 1339              	.LBB241:
 1340              	.LBB240:
 1341              		.loc 6 264 3 view .LVU423
 1342 0002 2023     		movs	r3, #32
 1343              		.syntax unified
 1344              	@ 264 "../../../os/common/ext/CMSIS/include/cmsis_gcc.h" 1
 1345 0004 83F31188 		MSR basepri, r3
 1346              	@ 0 "" 2
 1347              	.LVL76:
 1348              		.loc 6 264 3 view .LVU424
 1349              		.thumb
 1350              		.syntax unified
 1351              	.LBE240:
 1352              	.LBE241:
 1353              	.LBE243:
 1354              	.LBE246:
 1355              		.loc 4 377 34 is_stmt 1 view .LVU425
 1356              		.loc 4 378 20 view .LVU426
 1357              		.loc 1 419 3 view .LVU427
 1358              		.loc 1 419 12 is_stmt 0 view .LVU428
 1359 0008 FFF7FEFF 		bl	chMBFetchS
 1360              	.LVL77:
 1361              		.loc 1 420 3 is_stmt 1 view .LVU429
 1362              	.LBB247:
 1363              	.LBI247:
 1364              		.loc 4 386 20 view .LVU430
 1365              	.LBB248:
 1366              		.loc 4 388 22 view .LVU431
 1367              		.loc 4 389 33 view .LVU432
 1368              		.loc 4 395 3 view .LVU433
ARM GAS  /tmp/ccGzWvR3.s 			page 25


 1369              		.loc 4 395 3 view .LVU434
 1370              		.loc 4 395 3 view .LVU435
 1371              		.loc 4 399 3 view .LVU436
 1372              	.LBB249:
 1373              	.LBI249:
 1374              		.loc 5 618 20 view .LVU437
 1375              	.LBE249:
 1376              	.LBE248:
 1377              	.LBE247:
 1378              		.loc 5 621 3 view .LVU438
 1379              	.LBB254:
 1380              	.LBB253:
 1381              	.LBB252:
 1382              	.LBB250:
 1383              	.LBI250:
 1384              		.loc 6 262 57 view .LVU439
 1385              	.LBB251:
 1386              		.loc 6 264 3 view .LVU440
 1387 000c 0023     		movs	r3, #0
 1388              		.syntax unified
 1389              	@ 264 "../../../os/common/ext/CMSIS/include/cmsis_gcc.h" 1
 1390 000e 83F31188 		MSR basepri, r3
 1391              	@ 0 "" 2
 1392              	.LVL78:
 1393              		.loc 6 264 3 is_stmt 0 view .LVU441
 1394              		.thumb
 1395              		.syntax unified
 1396              	.LBE251:
 1397              	.LBE250:
 1398              	.LBE252:
 1399              	.LBE253:
 1400              	.LBE254:
 1401              		.loc 1 422 3 is_stmt 1 view .LVU442
 1402              		.loc 1 423 1 is_stmt 0 view .LVU443
 1403 0012 08BD     		pop	{r3, pc}
 1404              		.cfi_endproc
 1405              	.LFE255:
 1406              		.size	chMBFetch, .-chMBFetch
 1407              		.section	.text.chMBFetchI,"ax",%progbits
 1408              		.align	1
 1409              		.p2align 4,,15
 1410              		.global	chMBFetchI
 1411              		.syntax unified
 1412              		.thumb
 1413              		.thumb_func
 1414              		.fpu softvfp
 1415              		.type	chMBFetchI, %function
 1416              	chMBFetchI:
 1417              	.LVL79:
 1418              	.LFB257:
 1419              		.loc 1 493 47 is_stmt 1 view -0
 1420              		.cfi_startproc
 1421              		@ args = 0, pretend = 0, frame = 0
 1422              		@ frame_needed = 0, uses_anonymous_args = 0
 1423              		.loc 1 495 21 view .LVU445
 1424              		.loc 1 496 3 view .LVU446
 1425              		.loc 1 496 3 view .LVU447
ARM GAS  /tmp/ccGzWvR3.s 			page 26


 1426              		.loc 1 496 3 view .LVU448
 1427              		.loc 1 499 3 view .LVU449
 1428              		.loc 1 499 6 is_stmt 0 view .LVU450
 1429 0000 037D     		ldrb	r3, [r0, #20]	@ zero_extendqisi2
 1430 0002 DBB9     		cbnz	r3, .L69
 1431              		.loc 1 504 3 is_stmt 1 view .LVU451
 1432              	.LVL80:
 1433              	.LBB255:
 1434              	.LBI255:
 1435              		.loc 7 153 21 view .LVU452
 1436              	.LBB256:
 1437              		.loc 7 155 21 view .LVU453
 1438              		.loc 7 157 3 view .LVU454
 1439              		.loc 7 157 3 is_stmt 0 view .LVU455
 1440              	.LBE256:
 1441              	.LBE255:
 1442              		.loc 1 504 6 view .LVU456
 1443 0004 0369     		ldr	r3, [r0, #16]
 1444 0006 002B     		cmp	r3, #0
 1445 0008 15DD     		ble	.L70
 1446              		.loc 1 505 5 is_stmt 1 view .LVU457
 1447              		.loc 1 505 17 is_stmt 0 view .LVU458
 1448 000a C368     		ldr	r3, [r0, #12]
 1449              		.loc 1 506 8 view .LVU459
 1450 000c 4268     		ldr	r2, [r0, #4]
 1451              		.loc 1 493 47 view .LVU460
 1452 000e 10B5     		push	{r4, lr}
 1453              		.cfi_def_cfa_offset 8
 1454              		.cfi_offset 4, -8
 1455              		.cfi_offset 14, -4
 1456              		.loc 1 505 24 view .LVU461
 1457 0010 0433     		adds	r3, r3, #4
 1458              		.loc 1 505 13 view .LVU462
 1459 0012 53F8044C 		ldr	r4, [r3, #-4]
 1460              		.loc 1 505 24 view .LVU463
 1461 0016 C360     		str	r3, [r0, #12]
 1462              		.loc 1 506 8 view .LVU464
 1463 0018 9342     		cmp	r3, r2
 1464              		.loc 1 507 18 view .LVU465
 1465 001a 28BF     		it	cs
 1466 001c 0368     		ldrcs	r3, [r0]
 1467              		.loc 1 505 11 view .LVU466
 1468 001e 0C60     		str	r4, [r1]
 1469              		.loc 1 506 5 is_stmt 1 view .LVU467
 1470              		.loc 1 507 7 view .LVU468
 1471              		.loc 1 509 5 view .LVU469
 1472              		.loc 1 507 18 is_stmt 0 view .LVU470
 1473 0020 28BF     		it	cs
 1474 0022 C360     		strcs	r3, [r0, #12]
 1475              		.loc 1 509 13 view .LVU471
 1476 0024 0369     		ldr	r3, [r0, #16]
 1477 0026 013B     		subs	r3, r3, #1
 1478 0028 0361     		str	r3, [r0, #16]
 1479              		.loc 1 512 5 is_stmt 1 view .LVU472
 1480 002a 0021     		movs	r1, #0
 1481              	.LVL81:
 1482              		.loc 1 512 5 is_stmt 0 view .LVU473
ARM GAS  /tmp/ccGzWvR3.s 			page 27


 1483 002c 1830     		adds	r0, r0, #24
 1484              	.LVL82:
 1485              		.loc 1 512 5 view .LVU474
 1486 002e FFF7FEFF 		bl	chThdDequeueNextI
 1487              	.LVL83:
 1488              		.loc 1 514 5 is_stmt 1 view .LVU475
 1489              		.loc 1 514 12 is_stmt 0 view .LVU476
 1490 0032 0020     		movs	r0, #0
 1491              		.loc 1 519 1 view .LVU477
 1492 0034 10BD     		pop	{r4, pc}
 1493              	.LVL84:
 1494              	.L70:
 1495              		.cfi_def_cfa_offset 0
 1496              		.cfi_restore 4
 1497              		.cfi_restore 14
 1498              		.loc 1 518 10 view .LVU478
 1499 0036 4FF0FF30 		mov	r0, #-1
 1500              	.LVL85:
 1501              		.loc 1 519 1 view .LVU479
 1502 003a 7047     		bx	lr
 1503              	.LVL86:
 1504              	.L69:
 1505              		.loc 1 500 12 view .LVU480
 1506 003c 6FF00100 		mvn	r0, #1
 1507              	.LVL87:
 1508              		.loc 1 500 12 view .LVU481
 1509 0040 7047     		bx	lr
 1510              		.cfi_endproc
 1511              	.LFE257:
 1512              		.size	chMBFetchI, .-chMBFetchI
 1513              		.text
 1514              	.Letext0:
 1515              		.file 8 "/usr/lib/gcc/arm-none-eabi/10.3.1/include/stdint.h"
 1516              		.file 9 "../../../os/common/ports/ARMCMx/compilers/GCC/chtypes.h"
 1517              		.file 10 "../../../os/rt/include/chsystypes.h"
 1518              		.file 11 "../../../os/common/ports/ARMCMx/chcore.h"
 1519              		.file 12 "../../../os/rt/include/chsem.h"
 1520              		.file 13 "../../../os/rt/include/chmtx.h"