ARM GAS  /tmp/cc0rRrPC.s 			page 1


   1              		.cpu cortex-m4
   2              		.eabi_attribute 20, 1
   3              		.eabi_attribute 21, 1
   4              		.eabi_attribute 23, 3
   5              		.eabi_attribute 24, 1
   6              		.eabi_attribute 25, 1
   7              		.eabi_attribute 26, 1
   8              		.eabi_attribute 30, 2
   9              		.eabi_attribute 34, 1
  10              		.eabi_attribute 18, 4
  11              		.file	"chmemcore.c"
  12              		.text
  13              	.Ltext0:
  14              		.cfi_sections	.debug_frame
  15              		.section	.text._core_init,"ax",%progbits
  16              		.align	1
  17              		.p2align 4,,15
  18              		.global	_core_init
  19              		.arch armv7e-m
  20              		.syntax unified
  21              		.thumb
  22              		.thumb_func
  23              		.fpu softvfp
  24              		.type	_core_init, %function
  25              	_core_init:
  26              	.LFB246:
  27              		.file 1 "../../../os/common/oslib/src/chmemcore.c"
  28              		.loc 1 79 23 view -0
  29              		.cfi_startproc
  30              		@ args = 0, pretend = 0, frame = 0
  31              		@ frame_needed = 0, uses_anonymous_args = 0
  32              		@ link register save eliminated.
  33              		.loc 1 81 3 view .LVU1
  34              		.loc 1 82 3 view .LVU2
  35              		.loc 1 85 3 view .LVU3
  36              		.loc 1 85 11 is_stmt 0 view .LVU4
  37 0000 0349     		ldr	r1, .L3
  38              		.loc 1 86 11 view .LVU5
  39 0002 044B     		ldr	r3, .L3+4
  40              		.loc 1 85 11 view .LVU6
  41 0004 0448     		ldr	r0, .L3+8
  42              		.loc 1 86 11 view .LVU7
  43 0006 054A     		ldr	r2, .L3+12
  44              		.loc 1 85 11 view .LVU8
  45 0008 0860     		str	r0, [r1]
  46              		.loc 1 86 3 is_stmt 1 view .LVU9
  47              		.loc 1 86 11 is_stmt 0 view .LVU10
  48 000a 1A60     		str	r2, [r3]
  49              		.loc 1 94 1 view .LVU11
  50 000c 7047     		bx	lr
  51              	.L4:
  52 000e 00BF     		.align	2
  53              	.L3:
  54 0010 00000000 		.word	.LANCHOR0
  55 0014 00000000 		.word	.LANCHOR1
  56 0018 00000000 		.word	__heap_base__
  57 001c 00000000 		.word	__heap_end__
ARM GAS  /tmp/cc0rRrPC.s 			page 2


  58              		.cfi_endproc
  59              	.LFE246:
  60              		.size	_core_init, .-_core_init
  61              		.section	.text.chCoreAllocAlignedI,"ax",%progbits
  62              		.align	1
  63              		.p2align 4,,15
  64              		.global	chCoreAllocAlignedI
  65              		.syntax unified
  66              		.thumb
  67              		.thumb_func
  68              		.fpu softvfp
  69              		.type	chCoreAllocAlignedI, %function
  70              	chCoreAllocAlignedI:
  71              	.LVL0:
  72              	.LFB247:
  73              		.loc 1 108 56 is_stmt 1 view -0
  74              		.cfi_startproc
  75              		@ args = 0, pretend = 0, frame = 0
  76              		@ frame_needed = 0, uses_anonymous_args = 0
  77              		@ link register save eliminated.
  78              		.loc 1 109 3 view .LVU13
  79              		.loc 1 111 21 view .LVU14
  80              		.loc 1 112 3 view .LVU15
  81              		.loc 1 112 3 view .LVU16
  82              		.loc 1 112 3 view .LVU17
  83              		.loc 1 114 3 view .LVU18
  84              		.loc 1 115 18 is_stmt 0 view .LVU19
  85 0000 0B4A     		ldr	r2, .L9
  86 0002 1368     		ldr	r3, [r2]
  87              		.loc 1 108 56 view .LVU20
  88 0004 10B4     		push	{r4}
  89              		.cfi_def_cfa_offset 4
  90              		.cfi_offset 4, -4
  91              		.loc 1 117 8 view .LVU21
  92 0006 0B4C     		ldr	r4, .L9+4
  93              		.loc 1 115 18 view .LVU22
  94 0008 013B     		subs	r3, r3, #1
  95              		.loc 1 114 10 view .LVU23
  96 000a C1F1000C 		rsb	ip, r1, #0
  97 000e 0138     		subs	r0, r0, #1
  98              	.LVL1:
  99              		.loc 1 115 18 view .LVU24
 100 0010 0B44     		add	r3, r3, r1
 101              		.loc 1 117 23 view .LVU25
 102 0012 2468     		ldr	r4, [r4]
 103              		.loc 1 114 10 view .LVU26
 104 0014 0144     		add	r1, r1, r0
 105              	.LVL2:
 106              		.loc 1 115 18 view .LVU27
 107 0016 03EA0C00 		and	r0, r3, ip
 108              	.LVL3:
 109              		.loc 1 114 8 view .LVU28
 110 001a 01EA0C01 		and	r1, r1, ip
 111              	.LVL4:
 112              		.loc 1 115 3 is_stmt 1 view .LVU29
 113              		.loc 1 117 3 view .LVU30
 114              		.loc 1 117 23 is_stmt 0 view .LVU31
ARM GAS  /tmp/cc0rRrPC.s 			page 3


 115 001e 241A     		subs	r4, r4, r0
 116              		.loc 1 117 6 view .LVU32
 117 0020 8C42     		cmp	r4, r1
 118              		.loc 1 120 3 is_stmt 1 view .LVU33
 119              		.loc 1 120 15 is_stmt 0 view .LVU34
 120 0022 2CBF     		ite	cs
 121 0024 0918     		addcs	r1, r1, r0
 122              	.LVL5:
 123              		.loc 1 118 12 view .LVU35
 124 0026 0020     		movcc	r0, #0
 125              	.LVL6:
 126              		.loc 1 123 1 view .LVU36
 127 0028 10BC     		pop	{r4}
 128              		.cfi_restore 4
 129              		.cfi_def_cfa_offset 0
 130              		.loc 1 120 11 view .LVU37
 131 002a 28BF     		it	cs
 132 002c 1160     		strcs	r1, [r2]
 133              		.loc 1 122 3 is_stmt 1 view .LVU38
 134              		.loc 1 123 1 is_stmt 0 view .LVU39
 135 002e 7047     		bx	lr
 136              	.L10:
 137              		.align	2
 138              	.L9:
 139 0030 00000000 		.word	.LANCHOR0
 140 0034 00000000 		.word	.LANCHOR1
 141              		.cfi_endproc
 142              	.LFE247:
 143              		.size	chCoreAllocAlignedI, .-chCoreAllocAlignedI
 144              		.section	.text.chCoreAllocAligned,"ax",%progbits
 145              		.align	1
 146              		.p2align 4,,15
 147              		.global	chCoreAllocAligned
 148              		.syntax unified
 149              		.thumb
 150              		.thumb_func
 151              		.fpu softvfp
 152              		.type	chCoreAllocAligned, %function
 153              	chCoreAllocAligned:
 154              	.LVL7:
 155              	.LFB248:
 156              		.loc 1 137 55 is_stmt 1 view -0
 157              		.cfi_startproc
 158              		@ args = 0, pretend = 0, frame = 0
 159              		@ frame_needed = 0, uses_anonymous_args = 0
 160              		@ link register save eliminated.
 161              		.loc 1 138 3 view .LVU41
 162              		.loc 1 140 3 view .LVU42
 163              	.LBB35:
 164              	.LBI35:
 165              		.file 2 "../../../os/rt/include/chsys.h"
 166              		.loc 2 374 20 view .LVU43
 167              	.LBE35:
 168              		.loc 2 376 3 view .LVU44
 169              	.LBB43:
 170              	.LBB36:
 171              	.LBI36:
ARM GAS  /tmp/cc0rRrPC.s 			page 4


 172              		.file 3 "../../../os/common/ports/ARMCMx/chcore_v7m.h"
 173              		.loc 3 594 20 view .LVU45
 174              	.LBE36:
 175              	.LBE43:
 176              		.loc 3 602 3 view .LVU46
 177              	.LBB44:
 178              	.LBB41:
 179              	.LBB37:
 180              	.LBI37:
 181              		.file 4 "../../../os/common/ext/CMSIS/include/cmsis_gcc.h"
 182              		.loc 4 262 57 view .LVU47
 183              	.LBB38:
 184              		.loc 4 264 3 view .LVU48
 185              	.LBE38:
 186              	.LBE37:
 187              	.LBE41:
 188              	.LBE44:
 189              		.loc 1 137 55 is_stmt 0 view .LVU49
 190 0000 10B4     		push	{r4}
 191              		.cfi_def_cfa_offset 4
 192              		.cfi_offset 4, -4
 193              	.LBB45:
 194              	.LBB42:
 195              	.LBB40:
 196              	.LBB39:
 197              		.loc 4 264 3 view .LVU50
 198 0002 2023     		movs	r3, #32
 199              		.syntax unified
 200              	@ 264 "../../../os/common/ext/CMSIS/include/cmsis_gcc.h" 1
 201 0004 83F31188 		MSR basepri, r3
 202              	@ 0 "" 2
 203              	.LVL8:
 204              		.loc 4 264 3 view .LVU51
 205              		.thumb
 206              		.syntax unified
 207              	.LBE39:
 208              	.LBE40:
 209              	.LBE42:
 210              	.LBE45:
 211              		.loc 2 377 34 is_stmt 1 view .LVU52
 212              		.loc 2 378 20 view .LVU53
 213              		.loc 1 141 3 view .LVU54
 214              	.LBB46:
 215              	.LBI46:
 216              		.loc 1 108 7 view .LVU55
 217              	.LBB47:
 218              		.loc 1 109 3 view .LVU56
 219              		.loc 1 111 21 view .LVU57
 220              		.loc 1 112 3 view .LVU58
 221              		.loc 1 112 3 view .LVU59
 222              		.loc 1 112 3 view .LVU60
 223              		.loc 1 114 3 view .LVU61
 224              		.loc 1 115 18 is_stmt 0 view .LVU62
 225 0008 0C4C     		ldr	r4, .L15
 226              		.loc 1 117 8 view .LVU63
 227 000a 0D4A     		ldr	r2, .L15+4
 228              		.loc 1 115 18 view .LVU64
ARM GAS  /tmp/cc0rRrPC.s 			page 5


 229 000c 2368     		ldr	r3, [r4]
 230              		.loc 1 117 23 view .LVU65
 231 000e 1268     		ldr	r2, [r2]
 232              		.loc 1 115 18 view .LVU66
 233 0010 013B     		subs	r3, r3, #1
 234              		.loc 1 114 10 view .LVU67
 235 0012 C1F1000C 		rsb	ip, r1, #0
 236              		.loc 1 115 18 view .LVU68
 237 0016 0B44     		add	r3, r3, r1
 238              		.loc 1 114 10 view .LVU69
 239 0018 0139     		subs	r1, r1, #1
 240              	.LVL9:
 241              		.loc 1 114 10 view .LVU70
 242 001a 0144     		add	r1, r1, r0
 243              	.LVL10:
 244              		.loc 1 115 18 view .LVU71
 245 001c 03EA0C00 		and	r0, r3, ip
 246              	.LVL11:
 247              		.loc 1 114 8 view .LVU72
 248 0020 01EA0C01 		and	r1, r1, ip
 249              	.LVL12:
 250              		.loc 1 115 3 is_stmt 1 view .LVU73
 251              		.loc 1 117 3 view .LVU74
 252              		.loc 1 117 23 is_stmt 0 view .LVU75
 253 0024 131A     		subs	r3, r2, r0
 254              		.loc 1 117 6 view .LVU76
 255 0026 9942     		cmp	r1, r3
 256              		.loc 1 120 3 is_stmt 1 view .LVU77
 257              		.loc 1 120 15 is_stmt 0 view .LVU78
 258 0028 9ABF     		itte	ls
 259 002a 0918     		addls	r1, r1, r0
 260              	.LVL13:
 261              		.loc 1 120 11 view .LVU79
 262 002c 2160     		strls	r1, [r4]
 263              		.loc 1 122 3 is_stmt 1 view .LVU80
 264              		.loc 1 118 12 is_stmt 0 view .LVU81
 265 002e 0020     		movhi	r0, #0
 266              	.LVL14:
 267              		.loc 1 118 12 view .LVU82
 268              	.LBE47:
 269              	.LBE46:
 270              		.loc 1 142 3 is_stmt 1 view .LVU83
 271              	.LBB48:
 272              	.LBI48:
 273              		.loc 2 386 20 view .LVU84
 274              	.LBB49:
 275              		.loc 2 388 22 view .LVU85
 276              		.loc 2 389 33 view .LVU86
 277              		.loc 2 395 3 view .LVU87
 278              		.loc 2 395 3 view .LVU88
 279              		.loc 2 395 3 view .LVU89
 280              		.loc 2 399 3 view .LVU90
 281              	.LBB50:
 282              	.LBI50:
 283              		.loc 3 618 20 view .LVU91
 284              	.LBE50:
 285              	.LBE49:
ARM GAS  /tmp/cc0rRrPC.s 			page 6


 286              	.LBE48:
 287              		.loc 3 621 3 view .LVU92
 288              	.LBB55:
 289              	.LBB54:
 290              	.LBB53:
 291              	.LBB51:
 292              	.LBI51:
 293              		.loc 4 262 57 view .LVU93
 294              	.LBB52:
 295              		.loc 4 264 3 view .LVU94
 296 0030 0023     		movs	r3, #0
 297              		.syntax unified
 298              	@ 264 "../../../os/common/ext/CMSIS/include/cmsis_gcc.h" 1
 299 0032 83F31188 		MSR basepri, r3
 300              	@ 0 "" 2
 301              	.LVL15:
 302              		.loc 4 264 3 is_stmt 0 view .LVU95
 303              		.thumb
 304              		.syntax unified
 305              	.LBE52:
 306              	.LBE51:
 307              	.LBE53:
 308              	.LBE54:
 309              	.LBE55:
 310              		.loc 1 144 3 is_stmt 1 view .LVU96
 311              		.loc 1 145 1 is_stmt 0 view .LVU97
 312 0036 10BC     		pop	{r4}
 313              		.cfi_restore 4
 314              		.cfi_def_cfa_offset 0
 315 0038 7047     		bx	lr
 316              	.L16:
 317 003a 00BF     		.align	2
 318              	.L15:
 319 003c 00000000 		.word	.LANCHOR0
 320 0040 00000000 		.word	.LANCHOR1
 321              		.cfi_endproc
 322              	.LFE248:
 323              		.size	chCoreAllocAligned, .-chCoreAllocAligned
 324              		.section	.text.chCoreGetStatusX,"ax",%progbits
 325              		.align	1
 326              		.p2align 4,,15
 327              		.global	chCoreGetStatusX
 328              		.syntax unified
 329              		.thumb
 330              		.thumb_func
 331              		.fpu softvfp
 332              		.type	chCoreGetStatusX, %function
 333              	chCoreGetStatusX:
 334              	.LFB249:
 335              		.loc 1 154 31 is_stmt 1 view -0
 336              		.cfi_startproc
 337              		@ args = 0, pretend = 0, frame = 0
 338              		@ frame_needed = 0, uses_anonymous_args = 0
 339              		@ link register save eliminated.
 340              		.loc 1 157 3 view .LVU99
 341              		.loc 1 157 26 is_stmt 0 view .LVU100
 342 0000 024A     		ldr	r2, .L18
ARM GAS  /tmp/cc0rRrPC.s 			page 7


 343 0002 034B     		ldr	r3, .L18+4
 344 0004 1068     		ldr	r0, [r2]
 345 0006 1B68     		ldr	r3, [r3]
 346              		.loc 1 159 1 view .LVU101
 347 0008 C01A     		subs	r0, r0, r3
 348 000a 7047     		bx	lr
 349              	.L19:
 350              		.align	2
 351              	.L18:
 352 000c 00000000 		.word	.LANCHOR1
 353 0010 00000000 		.word	.LANCHOR0
 354              		.cfi_endproc
 355              	.LFE249:
 356              		.size	chCoreGetStatusX, .-chCoreGetStatusX
 357              		.section	.bss.endmem,"aw",%nobits
 358              		.align	2
 359              		.set	.LANCHOR1,. + 0
 360              		.type	endmem, %object
 361              		.size	endmem, 4
 362              	endmem:
 363 0000 00000000 		.space	4
 364              		.section	.bss.nextmem,"aw",%nobits
 365              		.align	2
 366              		.set	.LANCHOR0,. + 0
 367              		.type	nextmem, %object
 368              		.size	nextmem, 4
 369              	nextmem:
 370 0000 00000000 		.space	4
 371              		.text
 372              	.Letext0:
 373              		.file 5 "/usr/lib/gcc/arm-none-eabi/10.3.1/include/stddef.h"
 374              		.file 6 "/usr/lib/gcc/arm-none-eabi/10.3.1/include/stdint.h"
 375              		.file 7 "../../../os/common/ports/ARMCMx/compilers/GCC/chtypes.h"
 376              		.file 8 "../../../os/rt/include/chsystypes.h"
 377              		.file 9 "../../../os/rt/include/chschd.h"
 378              		.file 10 "../../../os/common/ports/ARMCMx/chcore.h"
 379              		.file 11 "../../../os/rt/include/chsem.h"
 380              		.file 12 "../../../os/rt/include/chmtx.h"