ARM GAS  /tmp/ccTkb9tP.s 			page 1


   1              		.cpu cortex-m4
   2              		.eabi_attribute 20, 1
   3              		.eabi_attribute 21, 1
   4              		.eabi_attribute 23, 3
   5              		.eabi_attribute 24, 1
   6              		.eabi_attribute 25, 1
   7              		.eabi_attribute 26, 1
   8              		.eabi_attribute 30, 2
   9              		.eabi_attribute 34, 1
  10              		.eabi_attribute 18, 4
  11              		.file	"chmempools.c"
  12              		.text
  13              	.Ltext0:
  14              		.cfi_sections	.debug_frame
  15              		.section	.text.chPoolObjectInit,"ax",%progbits
  16              		.align	1
  17              		.p2align 4,,15
  18              		.global	chPoolObjectInit
  19              		.arch armv7e-m
  20              		.syntax unified
  21              		.thumb
  22              		.thumb_func
  23              		.fpu softvfp
  24              		.type	chPoolObjectInit, %function
  25              	chPoolObjectInit:
  26              	.LVL0:
  27              	.LFB246:
  28              		.file 1 "../../../os/common/oslib/src/chmempools.c"
  29              		.loc 1 76 78 view -0
  30              		.cfi_startproc
  31              		@ args = 0, pretend = 0, frame = 0
  32              		@ frame_needed = 0, uses_anonymous_args = 0
  33              		@ link register save eliminated.
  34              		.loc 1 78 3 view .LVU1
  35              		.loc 1 78 3 view .LVU2
  36              		.loc 1 78 3 view .LVU3
  37              		.loc 1 80 3 view .LVU4
  38              		.loc 1 80 12 is_stmt 0 view .LVU5
  39 0000 0023     		movs	r3, #0
  40              		.loc 1 81 19 view .LVU6
  41 0002 C0E90031 		strd	r3, r1, [r0]
  42              		.loc 1 82 3 is_stmt 1 view .LVU7
  43              		.loc 1 82 16 is_stmt 0 view .LVU8
  44 0006 8260     		str	r2, [r0, #8]
  45              		.loc 1 83 1 view .LVU9
  46 0008 7047     		bx	lr
  47              		.cfi_endproc
  48              	.LFE246:
  49              		.size	chPoolObjectInit, .-chPoolObjectInit
  50 000a 00BF     		.section	.text.chPoolLoadArray,"ax",%progbits
  51              		.align	1
  52              		.p2align 4,,15
  53              		.global	chPoolLoadArray
  54              		.syntax unified
  55              		.thumb
  56              		.thumb_func
  57              		.fpu softvfp
ARM GAS  /tmp/ccTkb9tP.s 			page 2


  58              		.type	chPoolLoadArray, %function
  59              	chPoolLoadArray:
  60              	.LVL1:
  61              	.LFB247:
  62              		.loc 1 98 60 is_stmt 1 view -0
  63              		.cfi_startproc
  64              		@ args = 0, pretend = 0, frame = 0
  65              		@ frame_needed = 0, uses_anonymous_args = 0
  66              		.loc 1 100 3 view .LVU11
  67              		.loc 1 100 3 view .LVU12
  68              		.loc 1 100 3 view .LVU13
  69              		.loc 1 102 3 view .LVU14
  70              		.loc 1 102 9 view .LVU15
  71 0000 8AB1     		cbz	r2, .L11
  72              		.loc 1 98 60 is_stmt 0 view .LVU16
  73 0002 00B5     		push	{lr}
  74              		.cfi_def_cfa_offset 4
  75              		.cfi_offset 14, -4
  76              	.LBB93:
  77              	.LBB94:
  78              	.LBB95:
  79              	.LBB96:
  80              	.LBB97:
  81              	.LBB98:
  82              	.LBB99:
  83              		.file 2 "../../../os/common/ext/CMSIS/include/cmsis_gcc.h"
  84              		.loc 2 264 3 view .LVU17
  85 0004 4FF0000C 		mov	ip, #0
  86              	.LBE99:
  87              	.LBE98:
  88              	.LBE97:
  89              	.LBE96:
  90              	.LBE95:
  91              	.LBB106:
  92              	.LBB107:
  93              	.LBB108:
  94              	.LBB109:
  95 0008 4FF0200E 		mov	lr, #32
  96              	.LVL2:
  97              	.L5:
  98              		.loc 2 264 3 view .LVU18
  99              	.LBE109:
 100              	.LBE108:
 101              	.LBE107:
 102              	.LBE106:
 103              	.LBE94:
 104              	.LBE93:
 105              		.loc 1 103 5 is_stmt 1 view .LVU19
 106              	.LBB128:
 107              	.LBI93:
 108              		.file 3 "../../../os/common/oslib/include/chmempools.h"
 109              		.loc 3 184 20 view .LVU20
 110              	.LBE128:
 111              		.loc 3 186 3 view .LVU21
 112              	.LBB129:
 113              	.LBB121:
 114              	.LBI94:
ARM GAS  /tmp/ccTkb9tP.s 			page 3


 115              		.loc 1 194 6 view .LVU22
 116              	.LBE121:
 117              	.LBE129:
 118              		.loc 1 196 3 view .LVU23
 119              	.LBB130:
 120              	.LBB122:
 121              	.LBB114:
 122              	.LBI106:
 123              		.file 4 "../../../os/rt/include/chsys.h"
 124              		.loc 4 374 20 view .LVU24
 125              	.LBE114:
 126              	.LBE122:
 127              	.LBE130:
 128              		.loc 4 376 3 view .LVU25
 129              	.LBB131:
 130              	.LBB123:
 131              	.LBB115:
 132              	.LBB112:
 133              	.LBI107:
 134              		.file 5 "../../../os/common/ports/ARMCMx/chcore_v7m.h"
 135              		.loc 5 594 20 view .LVU26
 136              	.LBE112:
 137              	.LBE115:
 138              	.LBE123:
 139              	.LBE131:
 140              		.loc 5 602 3 view .LVU27
 141              	.LBB132:
 142              	.LBB124:
 143              	.LBB116:
 144              	.LBB113:
 145              	.LBB111:
 146              	.LBI108:
 147              		.loc 2 262 57 view .LVU28
 148              	.LBB110:
 149              		.loc 2 264 3 view .LVU29
 150              		.syntax unified
 151              	@ 264 "../../../os/common/ext/CMSIS/include/cmsis_gcc.h" 1
 152 000c 8EF31188 		MSR basepri, lr
 153              	@ 0 "" 2
 154              	.LVL3:
 155              		.loc 2 264 3 is_stmt 0 view .LVU30
 156              		.thumb
 157              		.syntax unified
 158              	.LBE110:
 159              	.LBE111:
 160              	.LBE113:
 161              	.LBE116:
 162              	.LBE124:
 163              	.LBE132:
 164              		.loc 4 377 34 is_stmt 1 view .LVU31
 165              		.loc 4 378 20 view .LVU32
 166              		.loc 1 197 3 view .LVU33
 167              	.LBB133:
 168              	.LBB125:
 169              	.LBB117:
 170              	.LBI117:
 171              		.loc 1 172 6 view .LVU34
ARM GAS  /tmp/ccTkb9tP.s 			page 4


 172              	.LBB118:
 173              		.loc 1 173 3 view .LVU35
 174              		.loc 1 175 21 view .LVU36
 175              		.loc 1 176 3 view .LVU37
 176              		.loc 1 176 3 view .LVU38
 177              		.loc 1 176 3 view .LVU39
 178              		.loc 1 178 3 view .LVU40
 179              		.loc 1 178 13 is_stmt 0 view .LVU41
 180 0010 0368     		ldr	r3, [r0]
 181 0012 0B60     		str	r3, [r1]
 182              		.loc 1 179 3 is_stmt 1 view .LVU42
 183              		.loc 1 179 12 is_stmt 0 view .LVU43
 184 0014 0160     		str	r1, [r0]
 185              	.LVL4:
 186              		.loc 1 179 12 view .LVU44
 187              	.LBE118:
 188              	.LBE117:
 189              	.LBE125:
 190              	.LBE133:
 191              		.loc 1 198 3 is_stmt 1 view .LVU45
 192              	.LBB134:
 193              	.LBB126:
 194              	.LBB119:
 195              	.LBI95:
 196              		.loc 4 386 20 view .LVU46
 197              	.LBB104:
 198              		.loc 4 388 22 view .LVU47
 199              		.loc 4 389 33 view .LVU48
 200              		.loc 4 395 3 view .LVU49
 201              		.loc 4 395 3 view .LVU50
 202              		.loc 4 395 3 view .LVU51
 203              		.loc 4 399 3 view .LVU52
 204              	.LBB102:
 205              	.LBI97:
 206              		.loc 5 618 20 view .LVU53
 207              	.LBE102:
 208              	.LBE104:
 209              	.LBE119:
 210              	.LBE126:
 211              	.LBE134:
 212              		.loc 5 621 3 view .LVU54
 213              	.LBB135:
 214              	.LBB127:
 215              	.LBB120:
 216              	.LBB105:
 217              	.LBB103:
 218              	.LBB101:
 219              	.LBI98:
 220              		.loc 2 262 57 view .LVU55
 221              	.LBB100:
 222              		.loc 2 264 3 view .LVU56
 223              		.syntax unified
 224              	@ 264 "../../../os/common/ext/CMSIS/include/cmsis_gcc.h" 1
 225 0016 8CF31188 		MSR basepri, ip
 226              	@ 0 "" 2
 227              	.LVL5:
 228              		.loc 2 264 3 is_stmt 0 view .LVU57
ARM GAS  /tmp/ccTkb9tP.s 			page 5


 229              		.thumb
 230              		.syntax unified
 231              	.LBE100:
 232              	.LBE101:
 233              	.LBE103:
 234              	.LBE105:
 235              	.LBE120:
 236              	.LBE127:
 237              	.LBE135:
 238              		.loc 1 105 5 is_stmt 1 view .LVU58
 239              		.loc 1 105 7 is_stmt 0 view .LVU59
 240 001a 4368     		ldr	r3, [r0, #4]
 241              		.loc 1 102 9 view .LVU60
 242 001c 013A     		subs	r2, r2, #1
 243              	.LVL6:
 244              		.loc 1 105 7 view .LVU61
 245 001e 1944     		add	r1, r1, r3
 246              	.LVL7:
 247              		.loc 1 107 5 is_stmt 1 view .LVU62
 248              		.loc 1 102 9 view .LVU63
 249 0020 F4D1     		bne	.L5
 250              		.loc 1 109 1 is_stmt 0 view .LVU64
 251 0022 5DF804FB 		ldr	pc, [sp], #4
 252              	.LVL8:
 253              	.L11:
 254              		.cfi_def_cfa_offset 0
 255              		.cfi_restore 14
 256              		.loc 1 109 1 view .LVU65
 257 0026 7047     		bx	lr
 258              		.cfi_endproc
 259              	.LFE247:
 260              		.size	chPoolLoadArray, .-chPoolLoadArray
 261              		.section	.text.chPoolAllocI,"ax",%progbits
 262              		.align	1
 263              		.p2align 4,,15
 264              		.global	chPoolAllocI
 265              		.syntax unified
 266              		.thumb
 267              		.thumb_func
 268              		.fpu softvfp
 269              		.type	chPoolAllocI, %function
 270              	chPoolAllocI:
 271              	.LVL9:
 272              	.LFB248:
 273              		.loc 1 121 39 is_stmt 1 view -0
 274              		.cfi_startproc
 275              		@ args = 0, pretend = 0, frame = 0
 276              		@ frame_needed = 0, uses_anonymous_args = 0
 277              		@ link register save eliminated.
 278              		.loc 1 122 3 view .LVU67
 279              		.loc 1 124 21 view .LVU68
 280              		.loc 1 125 3 view .LVU69
 281              		.loc 1 125 3 view .LVU70
 282              		.loc 1 125 3 view .LVU71
 283              		.loc 1 127 3 view .LVU72
 284              		.loc 1 121 39 is_stmt 0 view .LVU73
 285 0000 0346     		mov	r3, r0
ARM GAS  /tmp/ccTkb9tP.s 			page 6


 286              		.loc 1 127 8 view .LVU74
 287 0002 0068     		ldr	r0, [r0]
 288              	.LVL10:
 289              		.loc 1 129 3 is_stmt 1 view .LVU75
 290              		.loc 1 129 6 is_stmt 0 view .LVU76
 291 0004 10B1     		cbz	r0, .L15
 292              		.loc 1 130 5 is_stmt 1 view .LVU77
 293              		.loc 1 130 14 is_stmt 0 view .LVU78
 294 0006 0268     		ldr	r2, [r0]
 295 0008 1A60     		str	r2, [r3]
 296 000a 7047     		bx	lr
 297              	.L15:
 298              		.loc 1 130 14 view .LVU79
 299 000c D3E90132 		ldrd	r3, r2, [r3, #4]
 300              	.LVL11:
 301              	.LBB138:
 302              	.LBB139:
 303              		.loc 1 132 11 view .LVU80
 304 0010 12B1     		cbz	r2, .L14
 305              		.loc 1 133 5 is_stmt 1 view .LVU81
 306              		.loc 1 133 12 is_stmt 0 view .LVU82
 307 0012 0421     		movs	r1, #4
 308 0014 1846     		mov	r0, r3
 309              	.LVL12:
 310              		.loc 1 133 12 view .LVU83
 311 0016 1047     		bx	r2
 312              	.LVL13:
 313              	.L14:
 314              		.loc 1 133 12 view .LVU84
 315              	.LBE139:
 316              	.LBE138:
 317              		.loc 1 138 1 view .LVU85
 318 0018 7047     		bx	lr
 319              		.cfi_endproc
 320              	.LFE248:
 321              		.size	chPoolAllocI, .-chPoolAllocI
 322 001a 00BF     		.section	.text.chPoolAlloc,"ax",%progbits
 323              		.align	1
 324              		.p2align 4,,15
 325              		.global	chPoolAlloc
 326              		.syntax unified
 327              		.thumb
 328              		.thumb_func
 329              		.fpu softvfp
 330              		.type	chPoolAlloc, %function
 331              	chPoolAlloc:
 332              	.LVL14:
 333              	.LFB249:
 334              		.loc 1 150 38 is_stmt 1 view -0
 335              		.cfi_startproc
 336              		@ args = 0, pretend = 0, frame = 0
 337              		@ frame_needed = 0, uses_anonymous_args = 0
 338              		.loc 1 151 3 view .LVU87
 339              		.loc 1 153 3 view .LVU88
 340              	.LBB153:
 341              	.LBI153:
 342              		.loc 4 374 20 view .LVU89
ARM GAS  /tmp/ccTkb9tP.s 			page 7


 343              	.LBE153:
 344              		.loc 4 376 3 view .LVU90
 345              	.LBB164:
 346              	.LBB154:
 347              	.LBI154:
 348              		.loc 5 594 20 view .LVU91
 349              	.LBE154:
 350              	.LBE164:
 351              		.loc 5 602 3 view .LVU92
 352              	.LBB165:
 353              	.LBB161:
 354              	.LBB155:
 355              	.LBI155:
 356              		.loc 2 262 57 view .LVU93
 357              	.LBB156:
 358              		.loc 2 264 3 view .LVU94
 359              	.LBE156:
 360              	.LBE155:
 361              	.LBE161:
 362              	.LBE165:
 363              		.loc 1 150 38 is_stmt 0 view .LVU95
 364 0000 08B5     		push	{r3, lr}
 365              		.cfi_def_cfa_offset 8
 366              		.cfi_offset 3, -8
 367              		.cfi_offset 14, -4
 368              	.LBB166:
 369              	.LBB162:
 370              	.LBB159:
 371              	.LBB157:
 372              		.loc 2 264 3 view .LVU96
 373 0002 2022     		movs	r2, #32
 374              	.LBE157:
 375              	.LBE159:
 376              	.LBE162:
 377              	.LBE166:
 378              		.loc 1 150 38 view .LVU97
 379 0004 0346     		mov	r3, r0
 380              	.LBB167:
 381              	.LBB163:
 382              	.LBB160:
 383              	.LBB158:
 384              		.loc 2 264 3 view .LVU98
 385              		.syntax unified
 386              	@ 264 "../../../os/common/ext/CMSIS/include/cmsis_gcc.h" 1
 387 0006 82F31188 		MSR basepri, r2
 388              	@ 0 "" 2
 389              	.LVL15:
 390              		.loc 2 264 3 view .LVU99
 391              		.thumb
 392              		.syntax unified
 393              	.LBE158:
 394              	.LBE160:
 395              	.LBE163:
 396              	.LBE167:
 397              		.loc 4 377 34 is_stmt 1 view .LVU100
 398              		.loc 4 378 20 view .LVU101
 399              		.loc 1 154 3 view .LVU102
ARM GAS  /tmp/ccTkb9tP.s 			page 8


 400              	.LBB168:
 401              	.LBI168:
 402              		.loc 1 121 7 view .LVU103
 403              	.LBB169:
 404              		.loc 1 122 3 view .LVU104
 405              		.loc 1 124 21 view .LVU105
 406              		.loc 1 125 3 view .LVU106
 407              		.loc 1 125 3 view .LVU107
 408              		.loc 1 125 3 view .LVU108
 409              		.loc 1 127 3 view .LVU109
 410              		.loc 1 127 8 is_stmt 0 view .LVU110
 411 000a 0068     		ldr	r0, [r0]
 412              	.LVL16:
 413              		.loc 1 129 3 is_stmt 1 view .LVU111
 414              		.loc 1 129 6 is_stmt 0 view .LVU112
 415 000c 28B1     		cbz	r0, .L21
 416              		.loc 1 130 5 is_stmt 1 view .LVU113
 417              		.loc 1 130 14 is_stmt 0 view .LVU114
 418 000e 0268     		ldr	r2, [r0]
 419 0010 1A60     		str	r2, [r3]
 420              	.LVL17:
 421              	.L22:
 422              		.loc 1 137 3 is_stmt 1 view .LVU115
 423              		.loc 1 137 3 is_stmt 0 view .LVU116
 424              	.LBE169:
 425              	.LBE168:
 426              		.loc 1 155 3 is_stmt 1 view .LVU117
 427              	.LBB173:
 428              	.LBI173:
 429              		.loc 4 386 20 view .LVU118
 430              	.LBB174:
 431              		.loc 4 388 22 view .LVU119
 432              		.loc 4 389 33 view .LVU120
 433              		.loc 4 395 3 view .LVU121
 434              		.loc 4 395 3 view .LVU122
 435              		.loc 4 395 3 view .LVU123
 436              		.loc 4 399 3 view .LVU124
 437              	.LBB175:
 438              	.LBI175:
 439              		.loc 5 618 20 view .LVU125
 440              	.LBE175:
 441              	.LBE174:
 442              	.LBE173:
 443              		.loc 5 621 3 view .LVU126
 444              	.LBB186:
 445              	.LBB183:
 446              	.LBB180:
 447              	.LBB176:
 448              	.LBI176:
 449              		.loc 2 262 57 view .LVU127
 450              	.LBB177:
 451              		.loc 2 264 3 view .LVU128
 452 0012 0023     		movs	r3, #0
 453              		.syntax unified
 454              	@ 264 "../../../os/common/ext/CMSIS/include/cmsis_gcc.h" 1
 455 0014 83F31188 		MSR basepri, r3
 456              	@ 0 "" 2
ARM GAS  /tmp/ccTkb9tP.s 			page 9


 457              	.LVL18:
 458              		.loc 2 264 3 is_stmt 0 view .LVU129
 459              		.thumb
 460              		.syntax unified
 461              	.LBE177:
 462              	.LBE176:
 463              	.LBE180:
 464              	.LBE183:
 465              	.LBE186:
 466              		.loc 1 157 3 is_stmt 1 view .LVU130
 467              		.loc 1 158 1 is_stmt 0 view .LVU131
 468 0018 08BD     		pop	{r3, pc}
 469              	.LVL19:
 470              	.L21:
 471              		.loc 1 158 1 view .LVU132
 472 001a D3E90132 		ldrd	r3, r2, [r3, #4]
 473              	.LVL20:
 474              	.LBB187:
 475              	.LBB172:
 476              	.LBB170:
 477              	.LBB171:
 478              		.loc 1 132 11 view .LVU133
 479 001e 002A     		cmp	r2, #0
 480 0020 F7D0     		beq	.L22
 481              		.loc 1 133 5 is_stmt 1 view .LVU134
 482              		.loc 1 133 12 is_stmt 0 view .LVU135
 483 0022 0421     		movs	r1, #4
 484 0024 1846     		mov	r0, r3
 485              	.LVL21:
 486              		.loc 1 133 12 view .LVU136
 487 0026 9047     		blx	r2
 488              	.LVL22:
 489              		.loc 1 133 12 view .LVU137
 490              	.LBE171:
 491              	.LBE170:
 492              		.loc 1 137 3 is_stmt 1 view .LVU138
 493              		.loc 1 137 3 is_stmt 0 view .LVU139
 494              	.LBE172:
 495              	.LBE187:
 496              		.loc 1 155 3 is_stmt 1 view .LVU140
 497              	.LBB188:
 498              		.loc 4 386 20 view .LVU141
 499              	.LBB184:
 500              		.loc 4 388 22 view .LVU142
 501              		.loc 4 389 33 view .LVU143
 502              		.loc 4 395 3 view .LVU144
 503              		.loc 4 395 3 view .LVU145
 504              		.loc 4 395 3 view .LVU146
 505              		.loc 4 399 3 view .LVU147
 506              	.LBB181:
 507              		.loc 5 618 20 view .LVU148
 508              	.LBE181:
 509              	.LBE184:
 510              	.LBE188:
 511              		.loc 5 621 3 view .LVU149
 512              	.LBB189:
 513              	.LBB185:
ARM GAS  /tmp/ccTkb9tP.s 			page 10


 514              	.LBB182:
 515              	.LBB179:
 516              		.loc 2 262 57 view .LVU150
 517              	.LBB178:
 518              		.loc 2 264 3 view .LVU151
 519 0028 0023     		movs	r3, #0
 520              		.syntax unified
 521              	@ 264 "../../../os/common/ext/CMSIS/include/cmsis_gcc.h" 1
 522 002a 83F31188 		MSR basepri, r3
 523              	@ 0 "" 2
 524              	.LVL23:
 525              		.loc 2 264 3 is_stmt 0 view .LVU152
 526              		.thumb
 527              		.syntax unified
 528              	.LBE178:
 529              	.LBE179:
 530              	.LBE182:
 531              	.LBE185:
 532              	.LBE189:
 533              		.loc 1 157 3 is_stmt 1 view .LVU153
 534              		.loc 1 158 1 is_stmt 0 view .LVU154
 535 002e 08BD     		pop	{r3, pc}
 536              		.cfi_endproc
 537              	.LFE249:
 538              		.size	chPoolAlloc, .-chPoolAlloc
 539              		.section	.text.chPoolFreeI,"ax",%progbits
 540              		.align	1
 541              		.p2align 4,,15
 542              		.global	chPoolFreeI
 543              		.syntax unified
 544              		.thumb
 545              		.thumb_func
 546              		.fpu softvfp
 547              		.type	chPoolFreeI, %function
 548              	chPoolFreeI:
 549              	.LVL24:
 550              	.LFB250:
 551              		.loc 1 172 49 is_stmt 1 view -0
 552              		.cfi_startproc
 553              		@ args = 0, pretend = 0, frame = 0
 554              		@ frame_needed = 0, uses_anonymous_args = 0
 555              		@ link register save eliminated.
 556              		.loc 1 173 3 view .LVU156
 557              		.loc 1 175 21 view .LVU157
 558              		.loc 1 176 3 view .LVU158
 559              		.loc 1 176 3 view .LVU159
 560              		.loc 1 176 3 view .LVU160
 561              		.loc 1 178 3 view .LVU161
 562              		.loc 1 178 13 is_stmt 0 view .LVU162
 563 0000 0368     		ldr	r3, [r0]
 564 0002 0B60     		str	r3, [r1]
 565              		.loc 1 179 3 is_stmt 1 view .LVU163
 566              		.loc 1 179 12 is_stmt 0 view .LVU164
 567 0004 0160     		str	r1, [r0]
 568              		.loc 1 180 1 view .LVU165
 569 0006 7047     		bx	lr
 570              		.cfi_endproc
ARM GAS  /tmp/ccTkb9tP.s 			page 11


 571              	.LFE250:
 572              		.size	chPoolFreeI, .-chPoolFreeI
 573              		.section	.text.chPoolFree,"ax",%progbits
 574              		.align	1
 575              		.p2align 4,,15
 576              		.global	chPoolFree
 577              		.syntax unified
 578              		.thumb
 579              		.thumb_func
 580              		.fpu softvfp
 581              		.type	chPoolFree, %function
 582              	chPoolFree:
 583              	.LVL25:
 584              	.LFB251:
 585              		.loc 1 194 48 is_stmt 1 view -0
 586              		.cfi_startproc
 587              		@ args = 0, pretend = 0, frame = 0
 588              		@ frame_needed = 0, uses_anonymous_args = 0
 589              		@ link register save eliminated.
 590              		.loc 1 196 3 view .LVU167
 591              	.LBB190:
 592              	.LBI190:
 593              		.loc 4 374 20 view .LVU168
 594              	.LBE190:
 595              		.loc 4 376 3 view .LVU169
 596              	.LBB195:
 597              	.LBB191:
 598              	.LBI191:
 599              		.loc 5 594 20 view .LVU170
 600              	.LBE191:
 601              	.LBE195:
 602              		.loc 5 602 3 view .LVU171
 603              	.LBB196:
 604              	.LBB194:
 605              	.LBB192:
 606              	.LBI192:
 607              		.loc 2 262 57 view .LVU172
 608              	.LBB193:
 609              		.loc 2 264 3 view .LVU173
 610 0000 2023     		movs	r3, #32
 611              		.syntax unified
 612              	@ 264 "../../../os/common/ext/CMSIS/include/cmsis_gcc.h" 1
 613 0002 83F31188 		MSR basepri, r3
 614              	@ 0 "" 2
 615              	.LVL26:
 616              		.loc 2 264 3 is_stmt 0 view .LVU174
 617              		.thumb
 618              		.syntax unified
 619              	.LBE193:
 620              	.LBE192:
 621              	.LBE194:
 622              	.LBE196:
 623              		.loc 4 377 34 is_stmt 1 view .LVU175
 624              		.loc 4 378 20 view .LVU176
 625              		.loc 1 197 3 view .LVU177
 626              	.LBB197:
 627              	.LBI197:
ARM GAS  /tmp/ccTkb9tP.s 			page 12


 628              		.loc 1 172 6 view .LVU178
 629              	.LBB198:
 630              		.loc 1 173 3 view .LVU179
 631              		.loc 1 175 21 view .LVU180
 632              		.loc 1 176 3 view .LVU181
 633              		.loc 1 176 3 view .LVU182
 634              		.loc 1 176 3 view .LVU183
 635              		.loc 1 178 3 view .LVU184
 636              		.loc 1 178 13 is_stmt 0 view .LVU185
 637 0006 0368     		ldr	r3, [r0]
 638 0008 0B60     		str	r3, [r1]
 639              		.loc 1 179 3 is_stmt 1 view .LVU186
 640              	.LBE198:
 641              	.LBE197:
 642              	.LBB200:
 643              	.LBB201:
 644              	.LBB202:
 645              	.LBB203:
 646              	.LBB204:
 647              		.loc 2 264 3 is_stmt 0 view .LVU187
 648 000a 0023     		movs	r3, #0
 649              	.LBE204:
 650              	.LBE203:
 651              	.LBE202:
 652              	.LBE201:
 653              	.LBE200:
 654              	.LBB211:
 655              	.LBB199:
 656              		.loc 1 179 12 view .LVU188
 657 000c 0160     		str	r1, [r0]
 658              	.LVL27:
 659              		.loc 1 179 12 view .LVU189
 660              	.LBE199:
 661              	.LBE211:
 662              		.loc 1 198 3 is_stmt 1 view .LVU190
 663              	.LBB212:
 664              	.LBI200:
 665              		.loc 4 386 20 view .LVU191
 666              	.LBB209:
 667              		.loc 4 388 22 view .LVU192
 668              		.loc 4 389 33 view .LVU193
 669              		.loc 4 395 3 view .LVU194
 670              		.loc 4 395 3 view .LVU195
 671              		.loc 4 395 3 view .LVU196
 672              		.loc 4 399 3 view .LVU197
 673              	.LBB207:
 674              	.LBI202:
 675              		.loc 5 618 20 view .LVU198
 676              	.LBE207:
 677              	.LBE209:
 678              	.LBE212:
 679              		.loc 5 621 3 view .LVU199
 680              	.LBB213:
 681              	.LBB210:
 682              	.LBB208:
 683              	.LBB206:
 684              	.LBI203:
ARM GAS  /tmp/ccTkb9tP.s 			page 13


 685              		.loc 2 262 57 view .LVU200
 686              	.LBB205:
 687              		.loc 2 264 3 view .LVU201
 688              		.syntax unified
 689              	@ 264 "../../../os/common/ext/CMSIS/include/cmsis_gcc.h" 1
 690 000e 83F31188 		MSR basepri, r3
 691              	@ 0 "" 2
 692              	.LVL28:
 693              		.loc 2 264 3 is_stmt 0 view .LVU202
 694              		.thumb
 695              		.syntax unified
 696              	.LBE205:
 697              	.LBE206:
 698              	.LBE208:
 699              	.LBE210:
 700              	.LBE213:
 701              		.loc 1 199 1 view .LVU203
 702 0012 7047     		bx	lr
 703              		.cfi_endproc
 704              	.LFE251:
 705              		.size	chPoolFree, .-chPoolFree
 706              		.section	.text.chGuardedPoolObjectInit,"ax",%progbits
 707              		.align	1
 708              		.p2align 4,,15
 709              		.global	chGuardedPoolObjectInit
 710              		.syntax unified
 711              		.thumb
 712              		.thumb_func
 713              		.fpu softvfp
 714              		.type	chGuardedPoolObjectInit, %function
 715              	chGuardedPoolObjectInit:
 716              	.LVL29:
 717              	.LFB252:
 718              		.loc 1 212 71 is_stmt 1 view -0
 719              		.cfi_startproc
 720              		@ args = 0, pretend = 0, frame = 0
 721              		@ frame_needed = 0, uses_anonymous_args = 0
 722              		@ link register save eliminated.
 723              		.loc 1 214 3 view .LVU205
 724              	.LBB214:
 725              	.LBB215:
 726              		.loc 1 80 12 is_stmt 0 view .LVU206
 727 0000 0022     		movs	r2, #0
 728              	.LVL30:
 729              		.loc 1 80 12 view .LVU207
 730              	.LBE215:
 731              	.LBI214:
 732              		.loc 1 76 6 is_stmt 1 view .LVU208
 733              	.LBB216:
 734              		.loc 1 78 3 view .LVU209
 735              		.loc 1 78 3 view .LVU210
 736              		.loc 1 78 3 view .LVU211
 737              		.loc 1 80 3 view .LVU212
 738              		.loc 1 81 19 is_stmt 0 view .LVU213
 739 0002 C0E90321 		strd	r2, r1, [r0, #12]
 740              		.loc 1 82 3 is_stmt 1 view .LVU214
 741              		.loc 1 82 16 is_stmt 0 view .LVU215
ARM GAS  /tmp/ccTkb9tP.s 			page 14


 742 0006 4261     		str	r2, [r0, #20]
 743              	.LVL31:
 744              		.loc 1 82 16 view .LVU216
 745              	.LBE216:
 746              	.LBE214:
 747              		.loc 1 215 3 is_stmt 1 view .LVU217
 748 0008 1146     		mov	r1, r2
 749              	.LVL32:
 750              		.loc 1 215 3 is_stmt 0 view .LVU218
 751 000a FFF7FEBF 		b	chSemObjectInit
 752              	.LVL33:
 753              		.loc 1 215 3 view .LVU219
 754              		.cfi_endproc
 755              	.LFE252:
 756              		.size	chGuardedPoolObjectInit, .-chGuardedPoolObjectInit
 757 000e 00BF     		.section	.text.chGuardedPoolLoadArray,"ax",%progbits
 758              		.align	1
 759              		.p2align 4,,15
 760              		.global	chGuardedPoolLoadArray
 761              		.syntax unified
 762              		.thumb
 763              		.thumb_func
 764              		.fpu softvfp
 765              		.type	chGuardedPoolLoadArray, %function
 766              	chGuardedPoolLoadArray:
 767              	.LVL34:
 768              	.LFB253:
 769              		.loc 1 231 76 is_stmt 1 view -0
 770              		.cfi_startproc
 771              		@ args = 0, pretend = 0, frame = 0
 772              		@ frame_needed = 0, uses_anonymous_args = 0
 773              		.loc 1 233 3 view .LVU221
 774              		.loc 1 233 3 view .LVU222
 775              		.loc 1 233 3 view .LVU223
 776              		.loc 1 235 3 view .LVU224
 777              		.loc 1 235 9 view .LVU225
 778 0000 CAB1     		cbz	r2, .L36
 779              		.loc 1 231 76 is_stmt 0 view .LVU226
 780 0002 2DE9F041 		push	{r4, r5, r6, r7, r8, lr}
 781              		.cfi_def_cfa_offset 24
 782              		.cfi_offset 4, -24
 783              		.cfi_offset 5, -20
 784              		.cfi_offset 6, -16
 785              		.cfi_offset 7, -12
 786              		.cfi_offset 8, -8
 787              		.cfi_offset 14, -4
 788 0006 0446     		mov	r4, r0
 789 0008 0D46     		mov	r5, r1
 790 000a 1646     		mov	r6, r2
 791              	.LBB234:
 792              	.LBB235:
 793              	.LBB236:
 794              	.LBB237:
 795              	.LBB238:
 796              	.LBB239:
 797              	.LBB240:
 798              		.loc 2 264 3 view .LVU227
ARM GAS  /tmp/ccTkb9tP.s 			page 15


 799 000c 4FF02008 		mov	r8, #32
 800              	.LBE240:
 801              	.LBE239:
 802              	.LBE238:
 803              	.LBE237:
 804              	.LBB245:
 805              	.LBB246:
 806              	.LBB247:
 807              	.LBB248:
 808              	.LBB249:
 809 0010 0027     		movs	r7, #0
 810              	.LVL35:
 811              	.L32:
 812              		.loc 2 264 3 view .LVU228
 813              	.LBE249:
 814              	.LBE248:
 815              	.LBE247:
 816              	.LBE246:
 817              	.LBE245:
 818              	.LBE236:
 819              	.LBE235:
 820              	.LBE234:
 821              		.loc 1 236 5 is_stmt 1 view .LVU229
 822              	.LBB277:
 823              	.LBI234:
 824              		.loc 3 226 20 view .LVU230
 825              	.LBE277:
 826              		.loc 3 228 3 view .LVU231
 827              	.LBB278:
 828              	.LBB272:
 829              	.LBI235:
 830              		.loc 1 327 6 view .LVU232
 831              	.LBB267:
 832              		.loc 1 329 3 view .LVU233
 833              	.LBB256:
 834              	.LBI237:
 835              		.loc 4 374 20 view .LVU234
 836              	.LBE256:
 837              	.LBE267:
 838              	.LBE272:
 839              	.LBE278:
 840              		.loc 4 376 3 view .LVU235
 841              	.LBB279:
 842              	.LBB273:
 843              	.LBB268:
 844              	.LBB257:
 845              	.LBB243:
 846              	.LBI238:
 847              		.loc 5 594 20 view .LVU236
 848              	.LBE243:
 849              	.LBE257:
 850              	.LBE268:
 851              	.LBE273:
 852              	.LBE279:
 853              		.loc 5 602 3 view .LVU237
 854              	.LBB280:
 855              	.LBB274:
ARM GAS  /tmp/ccTkb9tP.s 			page 16


 856              	.LBB269:
 857              	.LBB258:
 858              	.LBB244:
 859              	.LBB242:
 860              	.LBI239:
 861              		.loc 2 262 57 view .LVU238
 862              	.LBB241:
 863              		.loc 2 264 3 view .LVU239
 864              		.syntax unified
 865              	@ 264 "../../../os/common/ext/CMSIS/include/cmsis_gcc.h" 1
 866 0012 88F31188 		MSR basepri, r8
 867              	@ 0 "" 2
 868              	.LVL36:
 869              		.loc 2 264 3 is_stmt 0 view .LVU240
 870              		.thumb
 871              		.syntax unified
 872              	.LBE241:
 873              	.LBE242:
 874              	.LBE244:
 875              	.LBE258:
 876              	.LBE269:
 877              	.LBE274:
 878              	.LBE280:
 879              		.loc 4 377 34 is_stmt 1 view .LVU241
 880              		.loc 4 378 20 view .LVU242
 881              	.LBB281:
 882              	.LBB275:
 883              	.LBB270:
 884              		.loc 1 330 3 view .LVU243
 885              	.LBB259:
 886              	.LBI259:
 887              		.loc 1 309 6 view .LVU244
 888              	.LBB260:
 889              		.loc 1 311 3 view .LVU245
 890              	.LBB261:
 891              	.LBI261:
 892              		.loc 1 172 6 view .LVU246
 893              	.LBB262:
 894              		.loc 1 173 3 view .LVU247
 895              		.loc 1 175 21 view .LVU248
 896              		.loc 1 176 3 view .LVU249
 897              		.loc 1 176 3 view .LVU250
 898              		.loc 1 176 3 view .LVU251
 899              		.loc 1 178 3 view .LVU252
 900              		.loc 1 178 13 is_stmt 0 view .LVU253
 901 0016 E368     		ldr	r3, [r4, #12]
 902 0018 2B60     		str	r3, [r5]
 903              		.loc 1 179 3 is_stmt 1 view .LVU254
 904              	.LBE262:
 905              	.LBE261:
 906              		.loc 1 312 3 is_stmt 0 view .LVU255
 907 001a 2046     		mov	r0, r4
 908              	.LBB264:
 909              	.LBB263:
 910              		.loc 1 179 12 view .LVU256
 911 001c E560     		str	r5, [r4, #12]
 912              	.LVL37:
ARM GAS  /tmp/ccTkb9tP.s 			page 17


 913              		.loc 1 179 12 view .LVU257
 914              	.LBE263:
 915              	.LBE264:
 916              		.loc 1 312 3 is_stmt 1 view .LVU258
 917 001e FFF7FEFF 		bl	chSemSignalI
 918              	.LVL38:
 919              		.loc 1 312 3 is_stmt 0 view .LVU259
 920              	.LBE260:
 921              	.LBE259:
 922              		.loc 1 331 3 is_stmt 1 view .LVU260
 923 0022 FFF7FEFF 		bl	chSchRescheduleS
 924              	.LVL39:
 925              		.loc 1 332 3 view .LVU261
 926              	.LBB265:
 927              	.LBI245:
 928              		.loc 4 386 20 view .LVU262
 929              	.LBB254:
 930              		.loc 4 388 22 view .LVU263
 931              		.loc 4 389 33 view .LVU264
 932              		.loc 4 395 3 view .LVU265
 933              		.loc 4 395 3 view .LVU266
 934              		.loc 4 395 3 view .LVU267
 935              		.loc 4 399 3 view .LVU268
 936              	.LBB252:
 937              	.LBI247:
 938              		.loc 5 618 20 view .LVU269
 939              	.LBE252:
 940              	.LBE254:
 941              	.LBE265:
 942              	.LBE270:
 943              	.LBE275:
 944              	.LBE281:
 945              		.loc 5 621 3 view .LVU270
 946              	.LBB282:
 947              	.LBB276:
 948              	.LBB271:
 949              	.LBB266:
 950              	.LBB255:
 951              	.LBB253:
 952              	.LBB251:
 953              	.LBI248:
 954              		.loc 2 262 57 view .LVU271
 955              	.LBB250:
 956              		.loc 2 264 3 view .LVU272
 957              		.syntax unified
 958              	@ 264 "../../../os/common/ext/CMSIS/include/cmsis_gcc.h" 1
 959 0026 87F31188 		MSR basepri, r7
 960              	@ 0 "" 2
 961              	.LVL40:
 962              		.loc 2 264 3 is_stmt 0 view .LVU273
 963              		.thumb
 964              		.syntax unified
 965              	.LBE250:
 966              	.LBE251:
 967              	.LBE253:
 968              	.LBE255:
 969              	.LBE266:
ARM GAS  /tmp/ccTkb9tP.s 			page 18


 970              	.LBE271:
 971              	.LBE276:
 972              	.LBE282:
 973              		.loc 1 238 5 is_stmt 1 view .LVU274
 974              		.loc 1 238 7 is_stmt 0 view .LVU275
 975 002a 2369     		ldr	r3, [r4, #16]
 976              		.loc 1 235 9 view .LVU276
 977 002c 013E     		subs	r6, r6, #1
 978              	.LVL41:
 979              		.loc 1 238 7 view .LVU277
 980 002e 1D44     		add	r5, r5, r3
 981              	.LVL42:
 982              		.loc 1 240 5 is_stmt 1 view .LVU278
 983              		.loc 1 235 9 view .LVU279
 984 0030 EFD1     		bne	.L32
 985              		.loc 1 242 1 is_stmt 0 view .LVU280
 986 0032 BDE8F081 		pop	{r4, r5, r6, r7, r8, pc}
 987              	.LVL43:
 988              	.L36:
 989              		.cfi_def_cfa_offset 0
 990              		.cfi_restore 4
 991              		.cfi_restore 5
 992              		.cfi_restore 6
 993              		.cfi_restore 7
 994              		.cfi_restore 8
 995              		.cfi_restore 14
 996              		.loc 1 242 1 view .LVU281
 997 0036 7047     		bx	lr
 998              		.cfi_endproc
 999              	.LFE253:
 1000              		.size	chGuardedPoolLoadArray, .-chGuardedPoolLoadArray
 1001              		.section	.text.chGuardedPoolAllocTimeoutS,"ax",%progbits
 1002              		.align	1
 1003              		.p2align 4,,15
 1004              		.global	chGuardedPoolAllocTimeoutS
 1005              		.syntax unified
 1006              		.thumb
 1007              		.thumb_func
 1008              		.fpu softvfp
 1009              		.type	chGuardedPoolAllocTimeoutS, %function
 1010              	chGuardedPoolAllocTimeoutS:
 1011              	.LVL44:
 1012              	.LFB254:
 1013              		.loc 1 260 53 is_stmt 1 view -0
 1014              		.cfi_startproc
 1015              		@ args = 0, pretend = 0, frame = 0
 1016              		@ frame_needed = 0, uses_anonymous_args = 0
 1017              		.loc 1 261 3 view .LVU283
 1018              		.loc 1 263 3 view .LVU284
 1019              		.loc 1 260 53 is_stmt 0 view .LVU285
 1020 0000 10B5     		push	{r4, lr}
 1021              		.cfi_def_cfa_offset 8
 1022              		.cfi_offset 4, -8
 1023              		.cfi_offset 14, -4
 1024              		.loc 1 260 53 view .LVU286
 1025 0002 0446     		mov	r4, r0
 1026              		.loc 1 263 9 view .LVU287
ARM GAS  /tmp/ccTkb9tP.s 			page 19


 1027 0004 FFF7FEFF 		bl	chSemWaitTimeoutS
 1028              	.LVL45:
 1029              		.loc 1 264 3 is_stmt 1 view .LVU288
 1030              		.loc 1 264 6 is_stmt 0 view .LVU289
 1031 0008 68B9     		cbnz	r0, .L42
 1032              		.loc 1 268 3 is_stmt 1 view .LVU290
 1033              	.LVL46:
 1034              	.LBB287:
 1035              	.LBI287:
 1036              		.loc 1 121 7 view .LVU291
 1037              	.LBB288:
 1038              		.loc 1 122 3 view .LVU292
 1039              		.loc 1 124 21 view .LVU293
 1040              		.loc 1 125 3 view .LVU294
 1041              		.loc 1 125 3 view .LVU295
 1042              		.loc 1 125 3 view .LVU296
 1043              		.loc 1 127 3 view .LVU297
 1044              		.loc 1 127 8 is_stmt 0 view .LVU298
 1045 000a E068     		ldr	r0, [r4, #12]
 1046              	.LVL47:
 1047              		.loc 1 129 3 is_stmt 1 view .LVU299
 1048              		.loc 1 129 6 is_stmt 0 view .LVU300
 1049 000c 10B1     		cbz	r0, .L41
 1050              		.loc 1 130 5 is_stmt 1 view .LVU301
 1051              		.loc 1 130 14 is_stmt 0 view .LVU302
 1052 000e 0368     		ldr	r3, [r0]
 1053 0010 E360     		str	r3, [r4, #12]
 1054              	.L39:
 1055              	.LBE288:
 1056              	.LBE287:
 1057              		.loc 1 269 1 view .LVU303
 1058 0012 10BD     		pop	{r4, pc}
 1059              	.LVL48:
 1060              	.L41:
 1061              		.loc 1 269 1 view .LVU304
 1062 0014 D4E90423 		ldrd	r2, r3, [r4, #16]
 1063              	.LBB295:
 1064              	.LBB293:
 1065              	.LBB289:
 1066              	.LBB290:
 1067              		.loc 1 132 11 view .LVU305
 1068 0018 002B     		cmp	r3, #0
 1069 001a FAD0     		beq	.L39
 1070              		.loc 1 133 5 is_stmt 1 view .LVU306
 1071              	.LBE290:
 1072              	.LBE289:
 1073              	.LBE293:
 1074              	.LBE295:
 1075              		.loc 1 269 1 is_stmt 0 view .LVU307
 1076 001c BDE81040 		pop	{r4, lr}
 1077              		.cfi_remember_state
 1078              		.cfi_restore 14
 1079              		.cfi_restore 4
 1080              		.cfi_def_cfa_offset 0
 1081              	.LVL49:
 1082              	.LBB296:
 1083              	.LBB294:
ARM GAS  /tmp/ccTkb9tP.s 			page 20


 1084              	.LBB292:
 1085              	.LBB291:
 1086              		.loc 1 133 12 view .LVU308
 1087 0020 0421     		movs	r1, #4
 1088 0022 1046     		mov	r0, r2
 1089              	.LVL50:
 1090              		.loc 1 133 12 view .LVU309
 1091 0024 1847     		bx	r3
 1092              	.LVL51:
 1093              	.L42:
 1094              		.cfi_restore_state
 1095              		.loc 1 133 12 view .LVU310
 1096              	.LBE291:
 1097              	.LBE292:
 1098              	.LBE294:
 1099              	.LBE296:
 1100              		.loc 1 265 12 view .LVU311
 1101 0026 0020     		movs	r0, #0
 1102              	.LVL52:
 1103              		.loc 1 269 1 view .LVU312
 1104 0028 10BD     		pop	{r4, pc}
 1105              		.loc 1 269 1 view .LVU313
 1106              		.cfi_endproc
 1107              	.LFE254:
 1108              		.size	chGuardedPoolAllocTimeoutS, .-chGuardedPoolAllocTimeoutS
 1109 002a 00BF     		.section	.text.chGuardedPoolAllocTimeout,"ax",%progbits
 1110              		.align	1
 1111              		.p2align 4,,15
 1112              		.global	chGuardedPoolAllocTimeout
 1113              		.syntax unified
 1114              		.thumb
 1115              		.thumb_func
 1116              		.fpu softvfp
 1117              		.type	chGuardedPoolAllocTimeout, %function
 1118              	chGuardedPoolAllocTimeout:
 1119              	.LVL53:
 1120              	.LFB255:
 1121              		.loc 1 287 52 is_stmt 1 view -0
 1122              		.cfi_startproc
 1123              		@ args = 0, pretend = 0, frame = 0
 1124              		@ frame_needed = 0, uses_anonymous_args = 0
 1125              		.loc 1 287 52 is_stmt 0 view .LVU315
 1126 0000 10B5     		push	{r4, lr}
 1127              		.cfi_def_cfa_offset 8
 1128              		.cfi_offset 4, -8
 1129              		.cfi_offset 14, -4
 1130              	.LBB312:
 1131              	.LBB313:
 1132              	.LBB314:
 1133              	.LBB315:
 1134              		.loc 2 264 3 view .LVU316
 1135 0002 2023     		movs	r3, #32
 1136              	.LBE315:
 1137              	.LBE314:
 1138              	.LBE313:
 1139              	.LBE312:
 1140              		.loc 1 287 52 view .LVU317
ARM GAS  /tmp/ccTkb9tP.s 			page 21


 1141 0004 0446     		mov	r4, r0
 1142              		.loc 1 288 3 is_stmt 1 view .LVU318
 1143              		.loc 1 290 3 view .LVU319
 1144              	.LBB320:
 1145              	.LBI312:
 1146              		.loc 4 374 20 view .LVU320
 1147              	.LBE320:
 1148              		.loc 4 376 3 view .LVU321
 1149              	.LBB321:
 1150              	.LBB318:
 1151              	.LBI313:
 1152              		.loc 5 594 20 view .LVU322
 1153              	.LBE318:
 1154              	.LBE321:
 1155              		.loc 5 602 3 view .LVU323
 1156              	.LVL54:
 1157              	.LBB322:
 1158              	.LBB319:
 1159              	.LBB317:
 1160              	.LBI314:
 1161              		.loc 2 262 57 view .LVU324
 1162              	.LBB316:
 1163              		.loc 2 264 3 view .LVU325
 1164              		.syntax unified
 1165              	@ 264 "../../../os/common/ext/CMSIS/include/cmsis_gcc.h" 1
 1166 0006 83F31188 		MSR basepri, r3
 1167              	@ 0 "" 2
 1168              	.LVL55:
 1169              		.loc 2 264 3 is_stmt 0 view .LVU326
 1170              		.thumb
 1171              		.syntax unified
 1172              	.LBE316:
 1173              	.LBE317:
 1174              	.LBE319:
 1175              	.LBE322:
 1176              		.loc 4 377 34 is_stmt 1 view .LVU327
 1177              		.loc 4 378 20 view .LVU328
 1178              		.loc 1 291 3 view .LVU329
 1179              	.LBB323:
 1180              	.LBI323:
 1181              		.loc 1 259 7 view .LVU330
 1182              	.LBB324:
 1183              		.loc 1 261 3 view .LVU331
 1184              		.loc 1 263 3 view .LVU332
 1185              		.loc 1 263 9 is_stmt 0 view .LVU333
 1186 000a FFF7FEFF 		bl	chSemWaitTimeoutS
 1187              	.LVL56:
 1188              		.loc 1 264 3 is_stmt 1 view .LVU334
 1189              		.loc 1 264 6 is_stmt 0 view .LVU335
 1190 000e 90B9     		cbnz	r0, .L50
 1191              		.loc 1 268 3 is_stmt 1 view .LVU336
 1192              	.LVL57:
 1193              	.LBB325:
 1194              	.LBI325:
 1195              		.loc 1 121 7 view .LVU337
 1196              	.LBB326:
 1197              		.loc 1 122 3 view .LVU338
ARM GAS  /tmp/ccTkb9tP.s 			page 22


 1198              		.loc 1 124 21 view .LVU339
 1199              		.loc 1 125 3 view .LVU340
 1200              		.loc 1 125 3 view .LVU341
 1201              		.loc 1 125 3 view .LVU342
 1202              		.loc 1 127 3 view .LVU343
 1203              		.loc 1 127 8 is_stmt 0 view .LVU344
 1204 0010 E068     		ldr	r0, [r4, #12]
 1205              	.LVL58:
 1206              		.loc 1 129 3 is_stmt 1 view .LVU345
 1207              		.loc 1 129 6 is_stmt 0 view .LVU346
 1208 0012 28B1     		cbz	r0, .L49
 1209              		.loc 1 130 5 is_stmt 1 view .LVU347
 1210              		.loc 1 130 14 is_stmt 0 view .LVU348
 1211 0014 0368     		ldr	r3, [r0]
 1212 0016 E360     		str	r3, [r4, #12]
 1213              	.L48:
 1214              	.LVL59:
 1215              		.loc 1 130 14 view .LVU349
 1216              	.LBE326:
 1217              	.LBE325:
 1218              	.LBE324:
 1219              	.LBE323:
 1220              		.loc 1 292 3 is_stmt 1 view .LVU350
 1221              	.LBB333:
 1222              	.LBI333:
 1223              		.loc 4 386 20 view .LVU351
 1224              	.LBB334:
 1225              		.loc 4 388 22 view .LVU352
 1226              		.loc 4 389 33 view .LVU353
 1227              		.loc 4 395 3 view .LVU354
 1228              		.loc 4 395 3 view .LVU355
 1229              		.loc 4 395 3 view .LVU356
 1230              		.loc 4 399 3 view .LVU357
 1231              	.LBB335:
 1232              	.LBI335:
 1233              		.loc 5 618 20 view .LVU358
 1234              	.LBE335:
 1235              	.LBE334:
 1236              	.LBE333:
 1237              		.loc 5 621 3 view .LVU359
 1238              	.LBB352:
 1239              	.LBB347:
 1240              	.LBB342:
 1241              	.LBB336:
 1242              	.LBI336:
 1243              		.loc 2 262 57 view .LVU360
 1244              	.LBB337:
 1245              		.loc 2 264 3 view .LVU361
 1246 0018 0023     		movs	r3, #0
 1247              		.syntax unified
 1248              	@ 264 "../../../os/common/ext/CMSIS/include/cmsis_gcc.h" 1
 1249 001a 83F31188 		MSR basepri, r3
 1250              	@ 0 "" 2
 1251              	.LVL60:
 1252              		.loc 2 264 3 is_stmt 0 view .LVU362
 1253              		.thumb
 1254              		.syntax unified
ARM GAS  /tmp/ccTkb9tP.s 			page 23


 1255              	.LBE337:
 1256              	.LBE336:
 1257              	.LBE342:
 1258              	.LBE347:
 1259              	.LBE352:
 1260              		.loc 1 294 3 is_stmt 1 view .LVU363
 1261              		.loc 1 295 1 is_stmt 0 view .LVU364
 1262 001e 10BD     		pop	{r4, pc}
 1263              	.LVL61:
 1264              	.L49:
 1265              		.loc 1 295 1 view .LVU365
 1266 0020 D4E90423 		ldrd	r2, r3, [r4, #16]
 1267              	.LBB353:
 1268              	.LBB331:
 1269              	.LBB330:
 1270              	.LBB329:
 1271              	.LBB327:
 1272              	.LBB328:
 1273              		.loc 1 132 11 view .LVU366
 1274 0024 002B     		cmp	r3, #0
 1275 0026 F7D0     		beq	.L48
 1276              		.loc 1 133 5 is_stmt 1 view .LVU367
 1277              		.loc 1 133 12 is_stmt 0 view .LVU368
 1278 0028 0421     		movs	r1, #4
 1279 002a 1046     		mov	r0, r2
 1280              	.LVL62:
 1281              		.loc 1 133 12 view .LVU369
 1282 002c 9847     		blx	r3
 1283              	.LVL63:
 1284              		.loc 1 133 12 view .LVU370
 1285              	.LBE328:
 1286              	.LBE327:
 1287              	.LBE329:
 1288              	.LBE330:
 1289              	.LBE331:
 1290              	.LBE353:
 1291              		.loc 1 292 3 is_stmt 1 view .LVU371
 1292              	.LBB354:
 1293              		.loc 4 386 20 view .LVU372
 1294              	.LBB348:
 1295              		.loc 4 388 22 view .LVU373
 1296              		.loc 4 389 33 view .LVU374
 1297              		.loc 4 395 3 view .LVU375
 1298              		.loc 4 395 3 view .LVU376
 1299              		.loc 4 395 3 view .LVU377
 1300              		.loc 4 399 3 view .LVU378
 1301              	.LBB343:
 1302              		.loc 5 618 20 view .LVU379
 1303              	.LBE343:
 1304              	.LBE348:
 1305              	.LBE354:
 1306              		.loc 5 621 3 view .LVU380
 1307              	.LBB355:
 1308              	.LBB349:
 1309              	.LBB344:
 1310              	.LBB340:
 1311              		.loc 2 262 57 view .LVU381
ARM GAS  /tmp/ccTkb9tP.s 			page 24


 1312              	.LBB338:
 1313              		.loc 2 264 3 view .LVU382
 1314 002e 0023     		movs	r3, #0
 1315              		.syntax unified
 1316              	@ 264 "../../../os/common/ext/CMSIS/include/cmsis_gcc.h" 1
 1317 0030 83F31188 		MSR basepri, r3
 1318              	@ 0 "" 2
 1319              	.LVL64:
 1320              		.loc 2 264 3 is_stmt 0 view .LVU383
 1321              		.thumb
 1322              		.syntax unified
 1323              	.LBE338:
 1324              	.LBE340:
 1325              	.LBE344:
 1326              	.LBE349:
 1327              	.LBE355:
 1328              		.loc 1 294 3 is_stmt 1 view .LVU384
 1329              		.loc 1 295 1 is_stmt 0 view .LVU385
 1330 0034 10BD     		pop	{r4, pc}
 1331              	.LVL65:
 1332              	.L50:
 1333              	.LBB356:
 1334              	.LBB332:
 1335              		.loc 1 265 12 view .LVU386
 1336 0036 0020     		movs	r0, #0
 1337              	.LVL66:
 1338              		.loc 1 265 12 view .LVU387
 1339              	.LBE332:
 1340              	.LBE356:
 1341              		.loc 1 292 3 is_stmt 1 view .LVU388
 1342              	.LBB357:
 1343              		.loc 4 386 20 view .LVU389
 1344              	.LBB350:
 1345              		.loc 4 388 22 view .LVU390
 1346              		.loc 4 389 33 view .LVU391
 1347              		.loc 4 395 3 view .LVU392
 1348              		.loc 4 395 3 view .LVU393
 1349              		.loc 4 395 3 view .LVU394
 1350              		.loc 4 399 3 view .LVU395
 1351              	.LBB345:
 1352              		.loc 5 618 20 view .LVU396
 1353              	.LBE345:
 1354              	.LBE350:
 1355              	.LBE357:
 1356              		.loc 5 621 3 view .LVU397
 1357              	.LBB358:
 1358              	.LBB351:
 1359              	.LBB346:
 1360              	.LBB341:
 1361              		.loc 2 262 57 view .LVU398
 1362              	.LBB339:
 1363              		.loc 2 264 3 view .LVU399
 1364 0038 0023     		movs	r3, #0
 1365              		.syntax unified
 1366              	@ 264 "../../../os/common/ext/CMSIS/include/cmsis_gcc.h" 1
 1367 003a 83F31188 		MSR basepri, r3
 1368              	@ 0 "" 2
ARM GAS  /tmp/ccTkb9tP.s 			page 25


 1369              	.LVL67:
 1370              		.loc 2 264 3 is_stmt 0 view .LVU400
 1371              		.thumb
 1372              		.syntax unified
 1373              	.LBE339:
 1374              	.LBE341:
 1375              	.LBE346:
 1376              	.LBE351:
 1377              	.LBE358:
 1378              		.loc 1 294 3 is_stmt 1 view .LVU401
 1379              		.loc 1 295 1 is_stmt 0 view .LVU402
 1380 003e 10BD     		pop	{r4, pc}
 1381              		.loc 1 295 1 view .LVU403
 1382              		.cfi_endproc
 1383              	.LFE255:
 1384              		.size	chGuardedPoolAllocTimeout, .-chGuardedPoolAllocTimeout
 1385              		.section	.text.chGuardedPoolFreeI,"ax",%progbits
 1386              		.align	1
 1387              		.p2align 4,,15
 1388              		.global	chGuardedPoolFreeI
 1389              		.syntax unified
 1390              		.thumb
 1391              		.thumb_func
 1392              		.fpu softvfp
 1393              		.type	chGuardedPoolFreeI, %function
 1394              	chGuardedPoolFreeI:
 1395              	.LVL68:
 1396              	.LFB256:
 1397              		.loc 1 309 65 is_stmt 1 view -0
 1398              		.cfi_startproc
 1399              		@ args = 0, pretend = 0, frame = 0
 1400              		@ frame_needed = 0, uses_anonymous_args = 0
 1401              		@ link register save eliminated.
 1402              		.loc 1 311 3 view .LVU405
 1403              	.LBB359:
 1404              	.LBI359:
 1405              		.loc 1 172 6 view .LVU406
 1406              	.LBB360:
 1407              		.loc 1 173 3 view .LVU407
 1408              		.loc 1 175 21 view .LVU408
 1409              		.loc 1 176 3 view .LVU409
 1410              		.loc 1 176 3 view .LVU410
 1411              		.loc 1 176 3 view .LVU411
 1412              		.loc 1 178 3 view .LVU412
 1413              		.loc 1 178 13 is_stmt 0 view .LVU413
 1414 0000 C268     		ldr	r2, [r0, #12]
 1415 0002 0A60     		str	r2, [r1]
 1416              		.loc 1 179 3 is_stmt 1 view .LVU414
 1417              		.loc 1 179 12 is_stmt 0 view .LVU415
 1418 0004 C160     		str	r1, [r0, #12]
 1419              	.LVL69:
 1420              		.loc 1 179 12 view .LVU416
 1421              	.LBE360:
 1422              	.LBE359:
 1423              		.loc 1 312 3 is_stmt 1 view .LVU417
 1424 0006 FFF7FEBF 		b	chSemSignalI
 1425              	.LVL70:
ARM GAS  /tmp/ccTkb9tP.s 			page 26


 1426              		.loc 1 312 3 is_stmt 0 view .LVU418
 1427              		.cfi_endproc
 1428              	.LFE256:
 1429              		.size	chGuardedPoolFreeI, .-chGuardedPoolFreeI
 1430 000a 00BF     		.section	.text.chGuardedPoolFree,"ax",%progbits
 1431              		.align	1
 1432              		.p2align 4,,15
 1433              		.global	chGuardedPoolFree
 1434              		.syntax unified
 1435              		.thumb
 1436              		.thumb_func
 1437              		.fpu softvfp
 1438              		.type	chGuardedPoolFree, %function
 1439              	chGuardedPoolFree:
 1440              	.LVL71:
 1441              	.LFB257:
 1442              		.loc 1 327 64 is_stmt 1 view -0
 1443              		.cfi_startproc
 1444              		@ args = 0, pretend = 0, frame = 0
 1445              		@ frame_needed = 0, uses_anonymous_args = 0
 1446              		.loc 1 329 3 view .LVU420
 1447              	.LBB361:
 1448              	.LBI361:
 1449              		.loc 4 374 20 view .LVU421
 1450              	.LBE361:
 1451              		.loc 4 376 3 view .LVU422
 1452              	.LBB369:
 1453              	.LBB362:
 1454              	.LBI362:
 1455              		.loc 5 594 20 view .LVU423
 1456              	.LBE362:
 1457              	.LBE369:
 1458              		.loc 5 602 3 view .LVU424
 1459              	.LBB370:
 1460              	.LBB367:
 1461              	.LBB363:
 1462              	.LBI363:
 1463              		.loc 2 262 57 view .LVU425
 1464              	.LBB364:
 1465              		.loc 2 264 3 view .LVU426
 1466              	.LBE364:
 1467              	.LBE363:
 1468              	.LBE367:
 1469              	.LBE370:
 1470              		.loc 1 327 64 is_stmt 0 view .LVU427
 1471 0000 08B5     		push	{r3, lr}
 1472              		.cfi_def_cfa_offset 8
 1473              		.cfi_offset 3, -8
 1474              		.cfi_offset 14, -4
 1475              	.LBB371:
 1476              	.LBB368:
 1477              	.LBB366:
 1478              	.LBB365:
 1479              		.loc 2 264 3 view .LVU428
 1480 0002 2022     		movs	r2, #32
 1481              		.syntax unified
 1482              	@ 264 "../../../os/common/ext/CMSIS/include/cmsis_gcc.h" 1
ARM GAS  /tmp/ccTkb9tP.s 			page 27


 1483 0004 82F31188 		MSR basepri, r2
 1484              	@ 0 "" 2
 1485              	.LVL72:
 1486              		.loc 2 264 3 view .LVU429
 1487              		.thumb
 1488              		.syntax unified
 1489              	.LBE365:
 1490              	.LBE366:
 1491              	.LBE368:
 1492              	.LBE371:
 1493              		.loc 4 377 34 is_stmt 1 view .LVU430
 1494              		.loc 4 378 20 view .LVU431
 1495              		.loc 1 330 3 view .LVU432
 1496              	.LBB372:
 1497              	.LBI372:
 1498              		.loc 1 309 6 view .LVU433
 1499              	.LBB373:
 1500              		.loc 1 311 3 view .LVU434
 1501              	.LBB374:
 1502              	.LBI374:
 1503              		.loc 1 172 6 view .LVU435
 1504              	.LBB375:
 1505              		.loc 1 173 3 view .LVU436
 1506              		.loc 1 175 21 view .LVU437
 1507              		.loc 1 176 3 view .LVU438
 1508              		.loc 1 176 3 view .LVU439
 1509              		.loc 1 176 3 view .LVU440
 1510              		.loc 1 178 3 view .LVU441
 1511              		.loc 1 178 13 is_stmt 0 view .LVU442
 1512 0008 C268     		ldr	r2, [r0, #12]
 1513 000a 0A60     		str	r2, [r1]
 1514              		.loc 1 179 3 is_stmt 1 view .LVU443
 1515              		.loc 1 179 12 is_stmt 0 view .LVU444
 1516 000c C160     		str	r1, [r0, #12]
 1517              	.LVL73:
 1518              		.loc 1 179 12 view .LVU445
 1519              	.LBE375:
 1520              	.LBE374:
 1521              		.loc 1 312 3 is_stmt 1 view .LVU446
 1522 000e FFF7FEFF 		bl	chSemSignalI
 1523              	.LVL74:
 1524              		.loc 1 312 3 is_stmt 0 view .LVU447
 1525              	.LBE373:
 1526              	.LBE372:
 1527              		.loc 1 331 3 is_stmt 1 view .LVU448
 1528 0012 FFF7FEFF 		bl	chSchRescheduleS
 1529              	.LVL75:
 1530              		.loc 1 332 3 view .LVU449
 1531              	.LBB376:
 1532              	.LBI376:
 1533              		.loc 4 386 20 view .LVU450
 1534              	.LBB377:
 1535              		.loc 4 388 22 view .LVU451
 1536              		.loc 4 389 33 view .LVU452
 1537              		.loc 4 395 3 view .LVU453
 1538              		.loc 4 395 3 view .LVU454
 1539              		.loc 4 395 3 view .LVU455
ARM GAS  /tmp/ccTkb9tP.s 			page 28


 1540              		.loc 4 399 3 view .LVU456
 1541              	.LBB378:
 1542              	.LBI378:
 1543              		.loc 5 618 20 view .LVU457
 1544              	.LBE378:
 1545              	.LBE377:
 1546              	.LBE376:
 1547              		.loc 5 621 3 view .LVU458
 1548              	.LBB383:
 1549              	.LBB382:
 1550              	.LBB381:
 1551              	.LBB379:
 1552              	.LBI379:
 1553              		.loc 2 262 57 view .LVU459
 1554              	.LBB380:
 1555              		.loc 2 264 3 view .LVU460
 1556 0016 0023     		movs	r3, #0
 1557              		.syntax unified
 1558              	@ 264 "../../../os/common/ext/CMSIS/include/cmsis_gcc.h" 1
 1559 0018 83F31188 		MSR basepri, r3
 1560              	@ 0 "" 2
 1561              	.LVL76:
 1562              		.loc 2 264 3 is_stmt 0 view .LVU461
 1563              		.thumb
 1564              		.syntax unified
 1565              	.LBE380:
 1566              	.LBE379:
 1567              	.LBE381:
 1568              	.LBE382:
 1569              	.LBE383:
 1570              		.loc 1 333 1 view .LVU462
 1571 001c 08BD     		pop	{r3, pc}
 1572              		.cfi_endproc
 1573              	.LFE257:
 1574              		.size	chGuardedPoolFree, .-chGuardedPoolFree
 1575 001e 00BF     		.text
 1576              	.Letext0:
 1577              		.file 6 "/usr/lib/gcc/arm-none-eabi/10.3.1/include/stddef.h"
 1578              		.file 7 "/usr/lib/gcc/arm-none-eabi/10.3.1/include/stdint.h"
 1579              		.file 8 "../../../os/common/ports/ARMCMx/compilers/GCC/chtypes.h"
 1580              		.file 9 "../../../os/rt/include/chsystypes.h"
 1581              		.file 10 "../../../os/rt/include/chschd.h"
 1582              		.file 11 "../../../os/common/ports/ARMCMx/chcore.h"
 1583              		.file 12 "../../../os/rt/include/chsem.h"
 1584              		.file 13 "../../../os/rt/include/chmtx.h"
 1585              		.file 14 "../../../os/common/oslib/include/chmemcore.h"