ARM GAS  /tmp/ccsPaZXk.s 			page 1


   1              		.cpu cortex-m4
   2              		.eabi_attribute 20, 1
   3              		.eabi_attribute 21, 1
   4              		.eabi_attribute 23, 3
   5              		.eabi_attribute 24, 1
   6              		.eabi_attribute 25, 1
   7              		.eabi_attribute 26, 1
   8              		.eabi_attribute 30, 2
   9              		.eabi_attribute 34, 1
  10              		.eabi_attribute 18, 4
  11              		.file	"chmsg.c"
  12              		.text
  13              	.Ltext0:
  14              		.cfi_sections	.debug_frame
  15              		.section	.text.chMsgSend,"ax",%progbits
  16              		.align	1
  17              		.p2align 4,,15
  18              		.global	chMsgSend
  19              		.arch armv7e-m
  20              		.syntax unified
  21              		.thumb
  22              		.thumb_func
  23              		.fpu softvfp
  24              		.type	chMsgSend, %function
  25              	chMsgSend:
  26              	.LVL0:
  27              	.LFB246:
  28              		.file 1 "../../../os/rt/src/chmsg.c"
  29              		.loc 1 87 42 view -0
  30              		.cfi_startproc
  31              		@ args = 0, pretend = 0, frame = 0
  32              		@ frame_needed = 0, uses_anonymous_args = 0
  33              		.loc 1 88 3 view .LVU1
  34              		.loc 1 87 42 is_stmt 0 view .LVU2
  35 0000 38B5     		push	{r3, r4, r5, lr}
  36              		.cfi_def_cfa_offset 16
  37              		.cfi_offset 3, -16
  38              		.cfi_offset 4, -12
  39              		.cfi_offset 5, -8
  40              		.cfi_offset 14, -4
  41              		.loc 1 88 13 view .LVU3
  42 0002 0E4B     		ldr	r3, .L6
  43              	.LBB52:
  44              	.LBB53:
  45              	.LBB54:
  46              	.LBB55:
  47              		.file 2 "../../../os/common/ext/CMSIS/include/cmsis_gcc.h"
  48              		.loc 2 264 3 view .LVU4
  49 0004 2022     		movs	r2, #32
  50              	.LBE55:
  51              	.LBE54:
  52              	.LBE53:
  53              	.LBE52:
  54              		.loc 1 88 13 view .LVU5
  55 0006 9C69     		ldr	r4, [r3, #24]
  56              	.LVL1:
  57              		.loc 1 90 3 is_stmt 1 view .LVU6
ARM GAS  /tmp/ccsPaZXk.s 			page 2


  58              		.loc 1 90 3 view .LVU7
  59              		.loc 1 90 3 view .LVU8
  60              		.loc 1 92 3 view .LVU9
  61              	.LBB60:
  62              	.LBI52:
  63              		.file 3 "../../../os/rt/include/chsys.h"
  64              		.loc 3 374 20 view .LVU10
  65              	.LBE60:
  66              		.loc 3 376 3 view .LVU11
  67              	.LBB61:
  68              	.LBB58:
  69              	.LBI53:
  70              		.file 4 "../../../os/common/ports/ARMCMx/chcore_v7m.h"
  71              		.loc 4 594 20 view .LVU12
  72              	.LBE58:
  73              	.LBE61:
  74              		.loc 4 602 3 view .LVU13
  75              	.LBB62:
  76              	.LBB59:
  77              	.LBB57:
  78              	.LBI54:
  79              		.loc 2 262 57 view .LVU14
  80              	.LBB56:
  81              		.loc 2 264 3 view .LVU15
  82              		.syntax unified
  83              	@ 264 "../../../os/common/ext/CMSIS/include/cmsis_gcc.h" 1
  84 0008 82F31188 		MSR basepri, r2
  85              	@ 0 "" 2
  86              	.LVL2:
  87              		.loc 2 264 3 is_stmt 0 view .LVU16
  88              		.thumb
  89              		.syntax unified
  90              	.LBE56:
  91              	.LBE57:
  92              	.LBE59:
  93              	.LBE62:
  94              		.loc 3 377 34 is_stmt 1 view .LVU17
  95              		.loc 3 378 20 view .LVU18
  96              		.loc 1 93 3 view .LVU19
  97              	.LBB63:
  98              	.LBB64:
  99              		.file 5 "../../../os/rt/include/chschd.h"
 100              		.loc 5 612 35 is_stmt 0 view .LVU20
 101 000c 026B     		ldr	r2, [r0, #48]
 102              		.loc 5 612 30 view .LVU21
 103 000e 6260     		str	r2, [r4, #4]
 104              	.LBE64:
 105              	.LBE63:
 106              		.loc 1 94 3 view .LVU22
 107 0010 00F12C05 		add	r5, r0, #44
 108              	.LBB68:
 109              	.LBB65:
 110              		.loc 5 611 30 view .LVU23
 111 0014 2560     		str	r5, [r4]
 112              	.LBE65:
 113              	.LBE68:
 114              		.loc 1 93 18 view .LVU24
ARM GAS  /tmp/ccsPaZXk.s 			page 3


 115 0016 6162     		str	r1, [r4, #36]
 116              		.loc 1 94 3 is_stmt 1 view .LVU25
 117              	.LVL3:
 118              	.LBB69:
 119              	.LBI63:
 120              		.loc 5 609 20 view .LVU26
 121              	.LBB66:
 122              		.loc 5 611 3 view .LVU27
 123              		.loc 5 612 3 view .LVU28
 124              		.loc 5 613 3 view .LVU29
 125              		.loc 5 613 30 is_stmt 0 view .LVU30
 126 0018 1460     		str	r4, [r2]
 127              		.loc 5 614 3 is_stmt 1 view .LVU31
 128              	.LBE66:
 129              	.LBE69:
 130              		.loc 1 95 6 is_stmt 0 view .LVU32
 131 001a 90F82020 		ldrb	r2, [r0, #32]	@ zero_extendqisi2
 132              	.LBB70:
 133              	.LBB67:
 134              		.loc 5 614 30 view .LVU33
 135 001e 0463     		str	r4, [r0, #48]
 136              	.LVL4:
 137              		.loc 5 614 30 view .LVU34
 138              	.LBE67:
 139              	.LBE70:
 140              		.loc 1 95 3 is_stmt 1 view .LVU35
 141              		.loc 1 95 6 is_stmt 0 view .LVU36
 142 0020 0E2A     		cmp	r2, #14
 143 0022 07D0     		beq	.L5
 144              	.LVL5:
 145              	.L2:
 146              		.loc 1 98 3 is_stmt 1 view .LVU37
 147 0024 0C20     		movs	r0, #12
 148 0026 FFF7FEFF 		bl	chSchGoSleepS
 149              	.LVL6:
 150              		.loc 1 99 3 view .LVU38
 151              		.loc 1 99 7 is_stmt 0 view .LVU39
 152 002a 606A     		ldr	r0, [r4, #36]
 153              	.LVL7:
 154              		.loc 1 100 3 is_stmt 1 view .LVU40
 155              	.LBB71:
 156              	.LBI71:
 157              		.loc 3 386 20 view .LVU41
 158              	.LBB72:
 159              		.loc 3 388 22 view .LVU42
 160              		.loc 3 389 33 view .LVU43
 161              		.loc 3 395 3 view .LVU44
 162              		.loc 3 395 3 view .LVU45
 163              		.loc 3 395 3 view .LVU46
 164              		.loc 3 399 3 view .LVU47
 165              	.LBB73:
 166              	.LBI73:
 167              		.loc 4 618 20 view .LVU48
 168              	.LBE73:
 169              	.LBE72:
 170              	.LBE71:
 171              		.loc 4 621 3 view .LVU49
ARM GAS  /tmp/ccsPaZXk.s 			page 4


 172              	.LBB78:
 173              	.LBB77:
 174              	.LBB76:
 175              	.LBB74:
 176              	.LBI74:
 177              		.loc 2 262 57 view .LVU50
 178              	.LBB75:
 179              		.loc 2 264 3 view .LVU51
 180 002c 0023     		movs	r3, #0
 181              		.syntax unified
 182              	@ 264 "../../../os/common/ext/CMSIS/include/cmsis_gcc.h" 1
 183 002e 83F31188 		MSR basepri, r3
 184              	@ 0 "" 2
 185              	.LVL8:
 186              		.loc 2 264 3 is_stmt 0 view .LVU52
 187              		.thumb
 188              		.syntax unified
 189              	.LBE75:
 190              	.LBE74:
 191              	.LBE76:
 192              	.LBE77:
 193              	.LBE78:
 194              		.loc 1 102 3 is_stmt 1 view .LVU53
 195              		.loc 1 103 1 is_stmt 0 view .LVU54
 196 0032 38BD     		pop	{r3, r4, r5, pc}
 197              	.LVL9:
 198              	.L5:
 199              		.loc 1 96 5 is_stmt 1 view .LVU55
 200              		.loc 1 96 12 is_stmt 0 view .LVU56
 201 0034 FFF7FEFF 		bl	chSchReadyI
 202              	.LVL10:
 203              		.loc 1 96 12 view .LVU57
 204 0038 F4E7     		b	.L2
 205              	.L7:
 206 003a 00BF     		.align	2
 207              	.L6:
 208 003c 00000000 		.word	ch
 209              		.cfi_endproc
 210              	.LFE246:
 211              		.size	chMsgSend, .-chMsgSend
 212              		.section	.text.chMsgWait,"ax",%progbits
 213              		.align	1
 214              		.p2align 4,,15
 215              		.global	chMsgWait
 216              		.syntax unified
 217              		.thumb
 218              		.thumb_func
 219              		.fpu softvfp
 220              		.type	chMsgWait, %function
 221              	chMsgWait:
 222              	.LFB247:
 223              		.loc 1 119 27 is_stmt 1 view -0
 224              		.cfi_startproc
 225              		@ args = 0, pretend = 0, frame = 0
 226              		@ frame_needed = 0, uses_anonymous_args = 0
 227              		.loc 1 120 3 view .LVU59
 228              		.loc 1 122 3 view .LVU60
ARM GAS  /tmp/ccsPaZXk.s 			page 5


 229              	.LBB79:
 230              	.LBI79:
 231              		.loc 3 374 20 view .LVU61
 232              	.LBE79:
 233              		.loc 3 376 3 view .LVU62
 234              	.LBB87:
 235              	.LBB80:
 236              	.LBI80:
 237              		.loc 4 594 20 view .LVU63
 238              	.LBE80:
 239              	.LBE87:
 240              		.loc 4 602 3 view .LVU64
 241              	.LVL11:
 242              	.LBB88:
 243              	.LBB85:
 244              	.LBB81:
 245              	.LBI81:
 246              		.loc 2 262 57 view .LVU65
 247              	.LBB82:
 248              		.loc 2 264 3 view .LVU66
 249              	.LBE82:
 250              	.LBE81:
 251              	.LBE85:
 252              	.LBE88:
 253              		.loc 1 119 27 is_stmt 0 view .LVU67
 254 0000 10B5     		push	{r4, lr}
 255              		.cfi_def_cfa_offset 8
 256              		.cfi_offset 4, -8
 257              		.cfi_offset 14, -4
 258              	.LBB89:
 259              	.LBB86:
 260              	.LBB84:
 261              	.LBB83:
 262              		.loc 2 264 3 view .LVU68
 263 0002 2023     		movs	r3, #32
 264              		.syntax unified
 265              	@ 264 "../../../os/common/ext/CMSIS/include/cmsis_gcc.h" 1
 266 0004 83F31188 		MSR basepri, r3
 267              	@ 0 "" 2
 268              	.LVL12:
 269              		.loc 2 264 3 view .LVU69
 270              		.thumb
 271              		.syntax unified
 272              	.LBE83:
 273              	.LBE84:
 274              	.LBE86:
 275              	.LBE89:
 276              		.loc 3 377 34 is_stmt 1 view .LVU70
 277              		.loc 3 378 20 view .LVU71
 278              		.loc 1 123 3 view .LVU72
 279              		.loc 1 123 8 is_stmt 0 view .LVU73
 280 0008 0C4C     		ldr	r4, .L12
 281 000a A269     		ldr	r2, [r4, #24]
 282              	.LVL13:
 283              	.LBB90:
 284              	.LBI90:
 285              		.file 6 "../../../os/rt/include/chmsg.h"
ARM GAS  /tmp/ccsPaZXk.s 			page 6


 286              		.loc 6 79 20 is_stmt 1 view .LVU74
 287              	.LBB91:
 288              		.loc 6 81 21 view .LVU75
 289              		.loc 6 83 3 view .LVU76
 290              		.loc 6 83 29 is_stmt 0 view .LVU77
 291 000c 1346     		mov	r3, r2
 292 000e 53F82C0F 		ldr	r0, [r3, #44]!
 293              	.LVL14:
 294              		.loc 6 83 29 view .LVU78
 295              	.LBE91:
 296              	.LBE90:
 297              		.loc 1 123 6 view .LVU79
 298 0012 9842     		cmp	r0, r3
 299 0014 09D0     		beq	.L11
 300              	.L9:
 301              		.loc 1 126 3 is_stmt 1 view .LVU80
 302              	.LVL15:
 303              	.LBB92:
 304              	.LBI92:
 305              		.loc 5 617 25 view .LVU81
 306              	.LBB93:
 307              		.loc 5 618 3 view .LVU82
 308              		.loc 5 620 3 view .LVU83
 309              		.loc 5 620 36 is_stmt 0 view .LVU84
 310 0016 0168     		ldr	r1, [r0]
 311              		.loc 5 620 25 view .LVU85
 312 0018 D162     		str	r1, [r2, #44]
 313              	.LVL16:
 314              		.loc 5 621 3 is_stmt 1 view .LVU86
 315              	.LBE93:
 316              	.LBE92:
 317              		.loc 1 127 13 is_stmt 0 view .LVU87
 318 001a 0D24     		movs	r4, #13
 319              	.LBB96:
 320              	.LBB94:
 321              		.loc 5 621 25 view .LVU88
 322 001c 4B60     		str	r3, [r1, #4]
 323              		.loc 5 623 3 is_stmt 1 view .LVU89
 324              	.LVL17:
 325              		.loc 5 623 3 is_stmt 0 view .LVU90
 326              	.LBE94:
 327              	.LBE96:
 328              		.loc 1 127 3 is_stmt 1 view .LVU91
 329              	.LBB97:
 330              	.LBB98:
 331              	.LBB99:
 332              	.LBB100:
 333              	.LBB101:
 334              		.loc 2 264 3 is_stmt 0 view .LVU92
 335 001e 0023     		movs	r3, #0
 336              	.LBE101:
 337              	.LBE100:
 338              	.LBE99:
 339              	.LBE98:
 340              	.LBE97:
 341              		.loc 1 127 13 view .LVU93
 342 0020 80F82040 		strb	r4, [r0, #32]
ARM GAS  /tmp/ccsPaZXk.s 			page 7


 343              		.loc 1 128 3 is_stmt 1 view .LVU94
 344              	.LBB108:
 345              	.LBI97:
 346              		.loc 3 386 20 view .LVU95
 347              	.LBB106:
 348              		.loc 3 388 22 view .LVU96
 349              		.loc 3 389 33 view .LVU97
 350              		.loc 3 395 3 view .LVU98
 351              		.loc 3 395 3 view .LVU99
 352              		.loc 3 395 3 view .LVU100
 353              		.loc 3 399 3 view .LVU101
 354              	.LBB104:
 355              	.LBI99:
 356              		.loc 4 618 20 view .LVU102
 357              	.LBE104:
 358              	.LBE106:
 359              	.LBE108:
 360              		.loc 4 621 3 view .LVU103
 361              	.LVL18:
 362              	.LBB109:
 363              	.LBB107:
 364              	.LBB105:
 365              	.LBB103:
 366              	.LBI100:
 367              		.loc 2 262 57 view .LVU104
 368              	.LBB102:
 369              		.loc 2 264 3 view .LVU105
 370              		.syntax unified
 371              	@ 264 "../../../os/common/ext/CMSIS/include/cmsis_gcc.h" 1
 372 0024 83F31188 		MSR basepri, r3
 373              	@ 0 "" 2
 374              	.LVL19:
 375              		.loc 2 264 3 is_stmt 0 view .LVU106
 376              		.thumb
 377              		.syntax unified
 378              	.LBE102:
 379              	.LBE103:
 380              	.LBE105:
 381              	.LBE107:
 382              	.LBE109:
 383              		.loc 1 130 3 is_stmt 1 view .LVU107
 384              		.loc 1 131 1 is_stmt 0 view .LVU108
 385 0028 10BD     		pop	{r4, pc}
 386              	.L11:
 387              		.loc 1 124 5 is_stmt 1 view .LVU109
 388 002a 0E20     		movs	r0, #14
 389 002c FFF7FEFF 		bl	chSchGoSleepS
 390              	.LVL20:
 391              		.loc 1 126 27 is_stmt 0 view .LVU110
 392 0030 A269     		ldr	r2, [r4, #24]
 393              	.LBB110:
 394              	.LBB95:
 395              		.loc 5 618 13 view .LVU111
 396 0032 D06A     		ldr	r0, [r2, #44]
 397              	.LBE95:
 398              	.LBE110:
 399              		.loc 1 126 8 view .LVU112
ARM GAS  /tmp/ccsPaZXk.s 			page 8


 400 0034 02F12C03 		add	r3, r2, #44
 401 0038 EDE7     		b	.L9
 402              	.L13:
 403 003a 00BF     		.align	2
 404              	.L12:
 405 003c 00000000 		.word	ch
 406              		.cfi_endproc
 407              	.LFE247:
 408              		.size	chMsgWait, .-chMsgWait
 409              		.section	.text.chMsgRelease,"ax",%progbits
 410              		.align	1
 411              		.p2align 4,,15
 412              		.global	chMsgRelease
 413              		.syntax unified
 414              		.thumb
 415              		.thumb_func
 416              		.fpu softvfp
 417              		.type	chMsgRelease, %function
 418              	chMsgRelease:
 419              	.LVL21:
 420              	.LFB248:
 421              		.loc 1 143 44 is_stmt 1 view -0
 422              		.cfi_startproc
 423              		@ args = 0, pretend = 0, frame = 0
 424              		@ frame_needed = 0, uses_anonymous_args = 0
 425              		.loc 1 145 3 view .LVU114
 426              	.LBB111:
 427              	.LBI111:
 428              		.loc 3 374 20 view .LVU115
 429              	.LBE111:
 430              		.loc 3 376 3 view .LVU116
 431              	.LBB119:
 432              	.LBB112:
 433              	.LBI112:
 434              		.loc 4 594 20 view .LVU117
 435              	.LBE112:
 436              	.LBE119:
 437              		.loc 4 602 3 view .LVU118
 438              	.LBB120:
 439              	.LBB117:
 440              	.LBB113:
 441              	.LBI113:
 442              		.loc 2 262 57 view .LVU119
 443              	.LBB114:
 444              		.loc 2 264 3 view .LVU120
 445              	.LBE114:
 446              	.LBE113:
 447              	.LBE117:
 448              	.LBE120:
 449              		.loc 1 143 44 is_stmt 0 view .LVU121
 450 0000 08B5     		push	{r3, lr}
 451              		.cfi_def_cfa_offset 8
 452              		.cfi_offset 3, -8
 453              		.cfi_offset 14, -4
 454              	.LBB121:
 455              	.LBB118:
 456              	.LBB116:
ARM GAS  /tmp/ccsPaZXk.s 			page 9


 457              	.LBB115:
 458              		.loc 2 264 3 view .LVU122
 459 0002 2023     		movs	r3, #32
 460              		.syntax unified
 461              	@ 264 "../../../os/common/ext/CMSIS/include/cmsis_gcc.h" 1
 462 0004 83F31188 		MSR basepri, r3
 463              	@ 0 "" 2
 464              	.LVL22:
 465              		.loc 2 264 3 view .LVU123
 466              		.thumb
 467              		.syntax unified
 468              	.LBE115:
 469              	.LBE116:
 470              	.LBE118:
 471              	.LBE121:
 472              		.loc 3 377 34 is_stmt 1 view .LVU124
 473              		.loc 3 378 20 view .LVU125
 474              		.loc 1 146 3 view .LVU126
 475              		.loc 1 146 3 view .LVU127
 476              		.loc 1 146 3 view .LVU128
 477              		.loc 1 147 3 view .LVU129
 478              	.LBB122:
 479              	.LBI122:
 480              		.loc 6 113 20 view .LVU130
 481              	.LBB123:
 482              		.loc 6 115 21 view .LVU131
 483              		.loc 6 117 3 view .LVU132
 484 0008 FFF7FEFF 		bl	chSchWakeupS
 485              	.LVL23:
 486              		.loc 6 117 3 is_stmt 0 view .LVU133
 487              	.LBE123:
 488              	.LBE122:
 489              		.loc 1 148 3 is_stmt 1 view .LVU134
 490              	.LBB124:
 491              	.LBI124:
 492              		.loc 3 386 20 view .LVU135
 493              	.LBB125:
 494              		.loc 3 388 22 view .LVU136
 495              		.loc 3 389 33 view .LVU137
 496              		.loc 3 395 3 view .LVU138
 497              		.loc 3 395 3 view .LVU139
 498              		.loc 3 395 3 view .LVU140
 499              		.loc 3 399 3 view .LVU141
 500              	.LBB126:
 501              	.LBI126:
 502              		.loc 4 618 20 view .LVU142
 503              	.LBE126:
 504              	.LBE125:
 505              	.LBE124:
 506              		.loc 4 621 3 view .LVU143
 507              	.LBB131:
 508              	.LBB130:
 509              	.LBB129:
 510              	.LBB127:
 511              	.LBI127:
 512              		.loc 2 262 57 view .LVU144
 513              	.LBB128:
ARM GAS  /tmp/ccsPaZXk.s 			page 10


 514              		.loc 2 264 3 view .LVU145
 515 000c 0023     		movs	r3, #0
 516              		.syntax unified
 517              	@ 264 "../../../os/common/ext/CMSIS/include/cmsis_gcc.h" 1
 518 000e 83F31188 		MSR basepri, r3
 519              	@ 0 "" 2
 520              	.LVL24:
 521              		.loc 2 264 3 is_stmt 0 view .LVU146
 522              		.thumb
 523              		.syntax unified
 524              	.LBE128:
 525              	.LBE127:
 526              	.LBE129:
 527              	.LBE130:
 528              	.LBE131:
 529              		.loc 1 149 1 view .LVU147
 530 0012 08BD     		pop	{r3, pc}
 531              		.cfi_endproc
 532              	.LFE248:
 533              		.size	chMsgRelease, .-chMsgRelease
 534              		.text
 535              	.Letext0:
 536              		.file 7 "/usr/lib/gcc/arm-none-eabi/10.3.1/include/stdint.h"
 537              		.file 8 "../../../os/common/ports/ARMCMx/compilers/GCC/chtypes.h"
 538              		.file 9 "../../../os/rt/include/chsystypes.h"
 539              		.file 10 "../../../os/common/ports/ARMCMx/chcore.h"
 540              		.file 11 "../../../os/rt/include/chtm.h"
 541              		.file 12 "../../../os/rt/include/chsem.h"
 542              		.file 13 "../../../os/rt/include/chmtx.h"