ARM GAS  /tmp/ccsPaZXk.s 			page 1


   1              		.cpu cortex-m4
   2              		.eabi_attribute 20, 1
   3              		.eabi_attribute 21, 1
   4              		.eabi_attribute 23, 3
   5              		.eabi_attribute 24, 1
   6              		.eabi_attribute 25, 1
   7              		.eabi_attribute 26, 1
   8              		.eabi_attribute 30, 2
   9              		.eabi_attribute 34, 1
  10              		.eabi_attribute 18, 4
  11              		.file	"chmsg.c"
  12              		.text
  13              	.Ltext0:
  14              		.cfi_sections	.debug_frame
  15              		.section	.text.chMsgSend,"ax",%progbits
  16              		.align	1
  17              		.p2align 4,,15
  18              		.global	chMsgSend
  19              		.arch armv7e-m
  20              		.syntax unified
  21              		.thumb
  22              		.thumb_func
  23              		.fpu softvfp
  24              		.type	chMsgSend, %function
  25              	chMsgSend:
  26              	.LVL0:
  27              	.LFB246:
  28              		.file 1 "../../../os/rt/src/chmsg.c"
  29              		.loc 1 87 42 view -0
  30              		.cfi_startproc
  31              		@ args = 0, pretend = 0, frame = 0
  32              		@ frame_needed = 0, uses_anonymous_args = 0
  33              		.loc 1 88 3 view .LVU1
  34              		.loc 1 87 42 is_stmt 0 view .LVU2
  35 0000 38B5     		push	{r3, r4, r5, lr}
  36              		.cfi_def_cfa_offset 16
  37              		.cfi_offset 3, -16
  38              		.cfi_offset 4, -12
  39              		.cfi_offset 5, -8
  40              		.cfi_offset 14, -4
  41              		.loc 1 88 13 view .LVU3
  42 0002 0E4B     		ldr	r3, .L6
  43              	.LBB52:
  44              	.LBB53:
  45              	.LBB54:
  46              	.LBB55:
  47              		.file 2 "../../../os/common/ext/CMSIS/include/cmsis_gcc.h"
  48              		.loc 2 264 3 view .LVU4
  49 0004 2022     		movs	r2, #32
  50              	.LBE55:
  51              	.LBE54:
  52              	.LBE53:
  53              	.LBE52:
  54              		.loc 1 88 13 view .LVU5
  55 0006 9C69     		ldr	r4, [r3, #24]
  56              	.LVL1:
  57              		.loc 1 90 3 is_stmt 1 view .LVU6
ARM GAS  /tmp/ccsPaZXk.s 			page 2


  58              		.loc 1 90 3 view .LVU7
  59              		.loc 1 90 3 view .LVU8
  60              		.loc 1 92 3 view .LVU9
  61              	.LBB60:
  62              	.LBI52:
  63              		.file 3 "../../../os/rt/include/chsys.h"
  64              		.loc 3 374 20 view .LVU10
  65              	.LBE60:
  66              		.loc 3 376 3 view .LVU11
  67              	.LBB61:
  68              	.LBB58:
  69              	.LBI53:
  70              		.file 4 "../../../os/common/ports/ARMCMx/chcore_v7m.h"
  71              		.loc 4 594 20 view .LVU12
  72              	.LBE58:
  73              	.LBE61:
  74              		.loc 4 602 3 view .LVU13
  75              	.LBB62:
  76              	.LBB59:
  77              	.LBB57:
  78              	.LBI54:
  79              		.loc 2 262 57 view .LVU14
  80              	.LBB56:
  81              		.loc 2 264 3 view .LVU15
  82              		.syntax unified
  83              	@ 264 "../../../os/common/ext/CMSIS/include/cmsis_gcc.h" 1
  84 0008 82F31188 		MSR basepri, r2
  85              	@ 0 "" 2
  86              	.LVL2:
  87              		.loc 2 264 3 is_stmt 0 view .LVU16
  88              		.thumb
  89              		.syntax unified
  90              	.LBE56:
  91              	.LBE57:
  92              	.LBE59:
  93              	.LBE62:
  94              		.loc 3 377 34 is_stmt 1 view .LVU17
  95              		.loc 3 378 20 view .LVU18
  96              		.loc 1 93 3 view .LVU19
  97              	.LBB63:
  98              	.LBB64:
  99              		.file 5 "../../../os/rt/include/chschd.h"
 100              		.loc 5 612 35 is_stmt 0 view .LVU20
 101 000c 026B     		ldr	r2, [r0, #48]
 102              		.loc 5 612 30 view .LVU21
 103 000e 6260     		str	r2, [r4, #4]
 104              	.LBE64:
 105              	.LBE63:
 106              		.loc 1 94 3 view .LVU22
 107 0010 00F12C05 		add	r5, r0, #44
 108              	.LBB68:
 109              	.LBB65:
 110              		.loc 5 611 30 view .LVU23
 111 0014 2560     		str	r5, [r4]
 112              	.LBE65:
 113              	.LBE68:
 114              		.loc 1 93 18 view .LVU24
ARM GAS  /tmp/ccsPaZXk.s 			page 3


 115 0016 6162     		str	r1, [r4, #36]
 116              		.loc 1 94 3 is_stmt 1 view .LVU25
 117              	.LVL3:
 118              	.LBB69:
 119              	.LBI63:
 120              		.loc 5 609 20 view .LVU26
 121              	.LBB66:
 122              		.loc 5 611 3 view .LVU27
 123              		.loc 5 612 3 view .LVU28
 124              		.loc 5 613 3 view .LVU29
 125              		.loc 5 613 30 is_stmt 0 view .LVU30
 126 0018 1460     		str	r4, [r2]
 127              		.loc 5 614 3 is_stmt 1 view .LVU31
 128              	.LBE66:
 129              	.LBE69:
 130              		.loc 1 95 6 is_stmt 0 view .LVU32
 131 001a 90F82020 		ldrb	r2, [r0, #32]	@ zero_extendqisi2
 132              	.LBB70:
 133              	.LBB67:
 134              		.loc 5 614 30 view .LVU33
 135 001e 0463     		str	r4, [r0, #48]
 136              	.LVL4:
 137              		.loc 5 614 30 view .LVU34
 138              	.LBE67:
 139              	.LBE70:
 140              		.loc 1 95 3 is_stmt 1 view .LVU35
 141              		.loc 1 95 6 is_stmt 0 view .LVU36
 142 0020 0E2A     		cmp	r2, #14
 143 0022 07D0     		beq	.L5
 144              	.LVL5:
 145              	.L2:
 146              		.loc 1 98 3 is_stmt 1 view .LVU37
 147 0024 0C20     		movs	r0, #12
 148 0026 FFF7FEFF 		bl	chSchGoSleepS
 149              	.LVL6:
 150              		.loc 1 99 3 view .LVU38
 151              		.loc 1 99 7 is_stmt 0 view .LVU39
 152 002a 606A     		ldr	r0, [r4, #36]
 153              	.LVL7:
 154              		.loc 1 100 3 is_stmt 1 view .LVU40
 155              	.LBB71:
 156              	.LBI71:
 157              		.loc 3 386 20 view .LVU41
 158              	.LBB72:
 159              		.loc 3 388 22 view .LVU42
 160              		.loc 3 389 33 view .LVU43
 161              		.loc 3 395 3 view .LVU44
 162              		.loc 3 395 3 view .LVU45
 163              		.loc 3 395 3 view .LVU46
 164              		.loc 3 399 3 view .LVU47
 165              	.LBB73:
 166              	.LBI73:
 167              		.loc 4 618 20 view .LVU48
 168              	.LBE73:
 169              	.LBE72:
 170              	.LBE71:
 171              		.loc 4 621 3 view .LVU49
ARM GAS  /tmp/ccsPaZXk.s 			page 4


 172              	.LBB78:
 173              	.LBB77:
 174              	.LBB76:
 175              	.LBB74:
 176              	.LBI74:
 177              		.loc 2 262 57 view .LVU50
 178              	.LBB75:
 179              		.loc 2 264 3 view .LVU51
 180 002c 0023     		movs	r3, #0
 181              		.syntax unified
 182              	@ 264 "../../../os/common/ext/CMSIS/include/cmsis_gcc.h" 1
 183 002e 83F31188 		MSR basepri, r3
 184              	@ 0 "" 2
 185              	.LVL8:
 186              		.loc 2 264 3 is_stmt 0 view .LVU52
 187              		.thumb
 188              		.syntax unified
 189              	.LBE75:
 190              	.LBE74:
 191              	.LBE76:
 192              	.LBE77:
 193              	.LBE78:
 194              		.loc 1 102 3 is_stmt 1 view .LVU53
 195              		.loc 1 103 1 is_stmt 0 view .LVU54
 196 0032 38BD     		pop	{r3, r4, r5, pc}
 197              	.LVL9:
 198              	.L5:
 199              		.loc 1 96 5 is_stmt 1 view .LVU55
 200              		.loc 1 96 12 is_stmt 0 view .LVU56
 201 0034 FFF7FEFF 		bl	chSchReadyI
 202              	.LVL10:
 203              		.loc 1 96 12 view .LVU57
 204 0038 F4E7     		b	.L2
 205              	.L7:
 206 003a 00BF     		.align	2
 207              	.L6:
 208 003c 00000000 		.word	ch
 209              		.cfi_endproc
 210              	.LFE246:
 211              		.size	chMsgSend, .-chMsgSend
 212              		.section	.text.chMsgWait,"ax",%progbits
 213              		.align	1
 214              		.p2align 4,,15
 215              		.global	chMsgWait
 216              		.syntax unified
 217              		.thumb
 218              		.thumb_func
 219              		.fpu softvfp
 220              		.type	chMsgWait, %function
 221              	chMsgWait:
 222              	.LFB247:
 223              		.loc 1 119 27 is_stmt 1 view -0
 224              		.cfi_startproc
 225              		@ args = 0, pretend = 0, frame = 0
 226              		@ frame_needed = 0, uses_anonymous_args = 0
 227              		.loc 1 120 3 view .LVU59
 228              		.loc 1 122 3 view .LVU60
ARM GAS  /tmp/ccsPaZXk.s 			page 5


 229              	.LBB79:
 230              	.LBI79:
 231              		.loc 3 374 20 view .LVU61
 232              	.LBE79:
 233              		.loc 3 376 3 view .LVU62
 234              	.LBB87:
 235              	.LBB80:
 236              	.LBI80:
 237              		.loc 4 594 20 view .LVU63
 238              	.LBE80:
 239              	.LBE87:
 240              		.loc 4 602 3 view .LVU64
 241              	.LVL11:
 242              	.LBB88:
 243              	.LBB85:
 244              	.LBB81:
 245              	.LBI81:
 246              		.loc 2 262 57 view .LVU65
 247              	.LBB82:
 248              		.loc 2 264 3 view .LVU66
 249              	.LBE82:
 250              	.LBE81:
 251              	.LBE85:
 252              	.LBE88:
 253              		.loc 1 119 27 is_stmt 0 view .LVU67
 254 0000 10B5     		push	{r4, lr}
 255              		.cfi_def_cfa_offset 8
 256              		.cfi_offset 4, -8
 257              		.cfi_offset 14, -4
 258              	.LBB89:
 259              	.LBB86:
 260              	.LBB84:
 261              	.LBB83:
 262              		.loc 2 264 3 view .LVU68
 263 0002 2023     		movs	r3, #32
 264              		.syntax unified
 265              	@ 264 "../../../os/common/ext/CMSIS/include/cmsis_gcc.h" 1
 266 0004 83F31188 		MSR basepri, r3
 267              	@ 0 "" 2
 268              	.LVL12:
 269              		.loc 2 264 3 view .LVU69
 270              		.thumb
 271              		.syntax unified
 272              	.LBE83:
 273              	.LBE84:
 274              	.LBE86:
 275              	.LBE89:
 276              		.loc 3 377 34 is_stmt 1 view .LVU70
 277              		.loc 3 378 20 view .LVU71
 278              		.loc 1 123 3 view .LVU72
 279              		.loc 1 123 8 is_stmt 0 view .LVU73
 280 0008 0C4C     		ldr	r4, .L12
 281 000a A269     		ldr	r2, [r4, #24]
 282              	.LVL13:
 283              	.LBB90:
 284              	.LBI90:
 285              		.file 6 "../../../os/rt/include/chmsg.h"
ARM GAS  /tmp/ccsPaZXk.s 			page 6


 286              		.loc 6 79 20 is_stmt 1 view .LVU74
 287              	.LBB91:
 288              		.loc 6 81 21 view .LVU75
 289              		.loc 6 83 3 view .LVU76
 290              		.loc 6 83 29 is_stmt 0 view .LVU77
 291 000c 1346     		mov	r3, r2
 292 000e 53F82C0F 		ldr	r0, [r3, #44]!
 293              	.LVL14:
 294              		.loc 6 83 29 view .LVU78
 295              	.LBE91:
 296              	.LBE90:
 297              		.loc 1 123 6 view .LVU79
 298 0012 9842     		cmp	r0, r3
 299 0014 09D0     		beq	.L11
 300              	.L9:
 301              		.loc 1 126 3 is_stmt 1 view .LVU80
 302              	.LVL15:
 303              	.LBB92:
 304              	.LBI92:
 305              		.loc 5 617 25 view .LVU81
 306              	.LBB93:
 307              		.loc 5 618 3 view .LVU82
 308              		.loc 5 620 3 view .LVU83
 309              		.loc 5 620 36 is_stmt 0 view .LVU84
 310 0016 0168     		ldr	r1, [r0]
 311              		.loc 5 620 25 view .LVU85
 312 0018 D162     		str	r1, [r2, #44]
 313              	.LVL16:
 314              		.loc 5 621 3 is_stmt 1 view .LVU86
 315              	.LBE93:
 316              	.LBE92:
 317              		.loc 1 127 13 is_stmt 0 view .LVU87
 318 001a 0D24     		movs	r4, #13
 319              	.LBB96:
 320              	.LBB94:
 321              		.loc 5 621 25 view .LVU88
 322 001c 4B60     		str	r3, [r1, #4]
 323              		.loc 5 623 3 is_stmt 1 view .LVU89
 324              	.LVL17:
 325              		.loc 5 623 3 is_stmt 0 view .LVU90
 326              	.LBE94:
 327              	.LBE96:
 328              		.loc 1 127 3 is_stmt 1 view .LVU91
 329              	.LBB97:
 330              	.LBB98:
 331              	.LBB99:
 332              	.LBB100:
 333              	.LBB101:
 334              		.loc 2 264 3 is_stmt 0 view .LVU92
 335 001e 0023     		movs	r3, #0
 336              	.LBE101:
 337              	.LBE100:
 338              	.LBE99:
 339              	.LBE98:
 340              	.LBE97:
 341              		.loc 1 127 13 view .LVU93
 342 0020 80F82040 		strb	r4, [r0, #32]
ARM GAS  /tmp/ccsPaZXk.s 			page 7


 343              		.loc 1 128 3 is_stmt 1 view .LVU94
 344              	.LBB108:
 345              	.LBI97:
 346              		.loc 3 386 20 view .LVU95
 347              	.LBB106:
 348              		.loc 3 388 22 view .LVU96
 349              		.loc 3 389 33 view .LVU97
 350              		.loc 3 395 3 view .LVU98
 351              		.loc 3 395 3 view .LVU99
 352              		.loc 3 395 3 view .LVU100
 353              		.loc 3 399 3 view .LVU101
 354              	.LBB104:
 355              	.LBI99:
 356              		.loc 4 618 20 view .LVU102
 357              	.LBE104:
 358              	.LBE106:
 359              	.LBE108:
 360              		.loc 4 621 3 view .LVU103
 361              	.LVL18:
 362              	.LBB109:
 363              	.LBB107:
 364              	.LBB105:
 365              	.LBB103:
 366              	.LBI100:
 367              		.loc 2 262 57 view .LVU104
 368              	.LBB102:
 369              		.loc 2 264 3 view .LVU105
 370              		.syntax unified
 371              	@ 264 "../../../os/common/ext/CMSIS/include/cmsis_gcc.h" 1
 372 0024 83F31188 		MSR basepri, r3
 373              	@ 0 "" 2
 374              	.LVL19:
 375              		.loc 2 264 3 is_stmt 0 view .LVU106
 376              		.thumb
 377              		.syntax unified
 378              	.LBE102:
 379              	.LBE103:
 380              	.LBE105:
 381              	.LBE107:
 382              	.LBE109:
 383              		.loc 1 130 3 is_stmt 1 view .LVU107
 384              		.loc 1 131 1 is_stmt 0 view .LVU108
 385 0028 10BD     		pop	{r4, pc}
 386              	.L11:
 387              		.loc 1 124 5 is_stmt 1 view .LVU109
 388 002a 0E20     		movs	r0, #14
 389 002c FFF7FEFF 		bl	chSchGoSleepS
 390              	.LVL20:
 391              		.loc 1 126 27 is_stmt 0 view .LVU110
 392 0030 A269     		ldr	r2, [r4, #24]
 393              	.LBB110:
 394              	.LBB95:
 395              		.loc 5 618 13 view .LVU111
 396 0032 D06A     		ldr	r0, [r2, #44]
 397              	.LBE95:
 398              	.LBE110:
 399              		.loc 1 126 8 view .LVU112
ARM GAS  /tmp/ccsPaZXk.s 			page 8


 400 0034 02F12C03 		add	r3, r2, #44
 401 0038 EDE7     		b	.L9
 402              	.L13:
 403 003a 00BF     		.align	2
 404              	.L12:
 405 003c 00000000 		.word	ch
 406              		.cfi_endproc
 407              	.LFE247:
 408              		.size	chMsgWait, .-chMsgWait
 409              		.section	.text.chMsgRelease,"ax",%progbits
 410              		.align	1
 411              		.p2align 4,,15
 412              		.global	chMsgRelease
 413              		.syntax unified
 414              		.thumb
 415              		.thumb_func
 416              		.fpu softvfp
 417              		.type	chMsgRelease, %function
 418              	chMsgRelease:
 419              	.LVL21:
 420              	.LFB248:
 421              		.loc 1 143 44 is_stmt 1 view -0
 422              		.cfi_startproc
 423              		@ args = 0, pretend = 0, frame = 0
 424              		@ frame_needed = 0, uses_anonymous_args = 0
 425              		.loc 1 145 3 view .LVU114
 426              	.LBB111:
 427              	.LBI111:
 428              		.loc 3 374 20 view .LVU115
 429              	.LBE111:
 430              		.loc 3 376 3 view .LVU116
 431              	.LBB119:
 432              	.LBB112:
 433              	.LBI112:
 434              		.loc 4 594 20 view .LVU117
 435              	.LBE112:
 436              	.LBE119:
 437              		.loc 4 602 3 view .LVU118
 438              	.LBB120:
 439              	.LBB117:
 440              	.LBB113:
 441              	.LBI113:
 442              		.loc 2 262 57 view .LVU119
 443              	.LBB114:
 444              		.loc 2 264 3 view .LVU120
 445              	.LBE114:
 446              	.LBE113:
 447              	.LBE117:
 448              	.LBE120:
 449              		.loc 1 143 44 is_stmt 0 view .LVU121
 450 0000 08B5     		push	{r3, lr}
 451              		.cfi_def_cfa_offset 8
 452              		.cfi_offset 3, -8
 453              		.cfi_offset 14, -4
 454              	.LBB121:
 455              	.LBB118:
 456              	.LBB116:
ARM GAS  /tmp/ccsPaZXk.s 			page 9


 457              	.LBB115:
 458              		.loc 2 264 3 view .LVU122
 459 0002 2023     		movs	r3, #32
 460              		.syntax unified
 461              	@ 264 "../../../os/common/ext/CMSIS/include/cmsis_gcc.h" 1
 462 0004 83F31188 		MSR basepri, r3
 463              	@ 0 "" 2
 464              	.LVL22:
 465              		.loc 2 264 3 view .LVU123
 466              		.thumb
 467              		.syntax unified
 468              	.LBE115:
 469              	.LBE116:
 470              	.LBE118:
 471              	.LBE121:
 472              		.loc 3 377 34 is_stmt 1 view .LVU124
 473              		.loc 3 378 20 view .LVU125
 474              		.loc 1 146 3 view .LVU126
 475              		.loc 1 146 3 view .LVU127
 476              		.loc 1 146 3 view .LVU128
 477              		.loc 1 147 3 view .LVU129
 478              	.LBB122:
 479              	.LBI122:
 480              		.loc 6 113 20 view .LVU130
 481              	.LBB123:
 482              		.loc 6 115 21 view .LVU131
 483              		.loc 6 117 3 view .LVU132
 484 0008 FFF7FEFF 		bl	chSchWakeupS
 485              	.LVL23:
 486              		.loc 6 117 3 is_stmt 0 view .LVU133
 487              	.LBE123:
 488              	.LBE122:
 489              		.loc 1 148 3 is_stmt 1 view .LVU134
 490              	.LBB124:
 491              	.LBI124:
 492              		.loc 3 386 20 view .LVU135
 493              	.LBB125:
 494              		.loc 3 388 22 view .LVU136
 495              		.loc 3 389 33 view .LVU137
 496              		.loc 3 395 3 view .LVU138
 497              		.loc 3 395 3 view .LVU139
 498              		.loc 3 395 3 view .LVU140
 499              		.loc 3 399 3 view .LVU141
 500              	.LBB126:
 501              	.LBI126:
 502              		.loc 4 618 20 view .LVU142
 503              	.LBE126:
 504              	.LBE125:
 505              	.LBE124:
 506              		.loc 4 621 3 view .LVU143
 507              	.LBB131:
 508              	.LBB130:
 509              	.LBB129:
 510              	.LBB127:
 511              	.LBI127:
 512              		.loc 2 262 57 view .LVU144
 513              	.LBB128:
ARM GAS  /tmp/ccsPaZXk.s 			page 10


 514              		.loc 2 264 3 view .LVU145
 515 000c 0023     		movs	r3, #0
 516              		.syntax unified
 517              	@ 264 "../../../os/common/ext/CMSIS/include/cmsis_gcc.h" 1
 518 000e 83F31188 		MSR basepri, r3
 519              	@ 0 "" 2
 520              	.LVL24:
 521              		.loc 2 264 3 is_stmt 0 view .LVU146
 522              		.thumb
 523              		.syntax unified
 524              	.LBE128:
 525              	.LBE127:
 526              	.LBE129:
 527              	.LBE130:
 528              	.LBE131:
 529              		.loc 1 149 1 view .LVU147
 530 0012 08BD     		pop	{r3, pc}
 531              		.cfi_endproc
 532              	.LFE248:
 533              		.size	chMsgRelease, .-chMsgRelease
 534              		.text
 535              	.Letext0:
 536              		.file 7 "/usr/lib/gcc/arm-none-eabi/10.3.1/include/stdint.h"
 537              		.file 8 "../../../os/common/ports/ARMCMx/compilers/GCC/chtypes.h"
 538              		.file 9 "../../../os/rt/include/chsystypes.h"
 539              		.file 10 "../../../os/common/ports/ARMCMx/chcore.h"
 540              		.file 11 "../../../os/rt/include/chtm.h"
 541              		.file 12 "../../../os/rt/include/chsem.h"
 542              		.file 13 "../../../os/rt/include/chmtx.h"
 543              		.section	.debug_info,"",%progbits
 544              	.Ldebug_info0:
 545 0000 230B0000 		.4byte	0xb23
 546 0004 0400     		.2byte	0x4
 547 0006 00000000 		.4byte	.Ldebug_abbrev0
 548 000a 04       		.byte	0x4
 549 000b 01       		.uleb128 0x1
 550 000c 71020000 		.4byte	.LASF102
 551 0010 0C       		.byte	0xc
 552 0011 34050000 		.4byte	.LASF103
 553 0015 00000000 		.4byte	.LASF104
 554 0019 60010000 		.4byte	.Ldebug_ranges0+0x160
 555 001d 00000000 		.4byte	0
 556 0021 00000000 		.4byte	.Ldebug_line0
 557 0025 02       		.uleb128 0x2
 558 0026 04       		.byte	0x4
 559 0027 05       		.byte	0x5
 560 0028 696E7400 		.ascii	"int\000"
 561 002c 03       		.uleb128 0x3
 562 002d 04       		.byte	0x4
 563 002e 07       		.byte	0x7
 564 002f 9A010000 		.4byte	.LASF0
 565 0033 03       		.uleb128 0x3
 566 0034 08       		.byte	0x8
 567 0035 05       		.byte	0x5
 568 0036 02010000 		.4byte	.LASF1
 569 003a 03       		.uleb128 0x3
 570 003b 08       		.byte	0x8
ARM GAS  /tmp/ccsPaZXk.s 			page 11


 571 003c 04       		.byte	0x4
 572 003d 63040000 		.4byte	.LASF2
 573 0041 03       		.uleb128 0x3
 574 0042 01       		.byte	0x1
 575 0043 06       		.byte	0x6
 576 0044 10010000 		.4byte	.LASF3
 577 0048 03       		.uleb128 0x3
 578 0049 02       		.byte	0x2
 579 004a 05       		.byte	0x5
 580 004b C1030000 		.4byte	.LASF4
 581 004f 04       		.uleb128 0x4
 582 0050 AB030000 		.4byte	.LASF6
 583 0054 07       		.byte	0x7
 584 0055 28       		.byte	0x28
 585 0056 18       		.byte	0x18
 586 0057 5B000000 		.4byte	0x5b
 587 005b 03       		.uleb128 0x3
 588 005c 04       		.byte	0x4
 589 005d 05       		.byte	0x5
 590 005e 3E010000 		.4byte	.LASF5
 591 0062 04       		.uleb128 0x4
 592 0063 04050000 		.4byte	.LASF7
 593 0067 07       		.byte	0x7
 594 0068 2E       		.byte	0x2e
 595 0069 18       		.byte	0x18
 596 006a 6E000000 		.4byte	0x6e
 597 006e 03       		.uleb128 0x3
 598 006f 01       		.byte	0x1
 599 0070 08       		.byte	0x8
 600 0071 B3030000 		.4byte	.LASF8
 601 0075 03       		.uleb128 0x3
 602 0076 02       		.byte	0x2
 603 0077 07       		.byte	0x7
 604 0078 CB010000 		.4byte	.LASF9
 605 007c 04       		.uleb128 0x4
 606 007d 31040000 		.4byte	.LASF10
 607 0081 07       		.byte	0x7
 608 0082 34       		.byte	0x34
 609 0083 19       		.byte	0x19
 610 0084 88000000 		.4byte	0x88
 611 0088 03       		.uleb128 0x3
 612 0089 04       		.byte	0x4
 613 008a 07       		.byte	0x7
 614 008b AE010000 		.4byte	.LASF11
 615 008f 04       		.uleb128 0x4
 616 0090 70000000 		.4byte	.LASF12
 617 0094 07       		.byte	0x7
 618 0095 37       		.byte	0x37
 619 0096 19       		.byte	0x19
 620 0097 9B000000 		.4byte	0x9b
 621 009b 03       		.uleb128 0x3
 622 009c 08       		.byte	0x8
 623 009d 07       		.byte	0x7
 624 009e A3000000 		.4byte	.LASF13
 625 00a2 04       		.uleb128 0x4
 626 00a3 3F020000 		.4byte	.LASF14
 627 00a7 08       		.byte	0x8
ARM GAS  /tmp/ccsPaZXk.s 			page 12


 628 00a8 39       		.byte	0x39
 629 00a9 1D       		.byte	0x1d
 630 00aa 7C000000 		.4byte	0x7c
 631 00ae 04       		.uleb128 0x4
 632 00af 03020000 		.4byte	.LASF15
 633 00b3 08       		.byte	0x8
 634 00b4 3C       		.byte	0x3c
 635 00b5 1D       		.byte	0x1d
 636 00b6 62000000 		.4byte	0x62
 637 00ba 04       		.uleb128 0x4
 638 00bb 51010000 		.4byte	.LASF16
 639 00bf 08       		.byte	0x8
 640 00c0 3D       		.byte	0x3d
 641 00c1 1D       		.byte	0x1d
 642 00c2 62000000 		.4byte	0x62
 643 00c6 04       		.uleb128 0x4
 644 00c7 70030000 		.4byte	.LASF17
 645 00cb 08       		.byte	0x8
 646 00cc 3E       		.byte	0x3e
 647 00cd 1D       		.byte	0x1d
 648 00ce 62000000 		.4byte	0x62
 649 00d2 04       		.uleb128 0x4
 650 00d3 8D030000 		.4byte	.LASF18
 651 00d7 08       		.byte	0x8
 652 00d8 40       		.byte	0x40
 653 00d9 1D       		.byte	0x1d
 654 00da 7C000000 		.4byte	0x7c
 655 00de 04       		.uleb128 0x4
 656 00df E8010000 		.4byte	.LASF19
 657 00e3 08       		.byte	0x8
 658 00e4 41       		.byte	0x41
 659 00e5 1D       		.byte	0x1d
 660 00e6 4F000000 		.4byte	0x4f
 661 00ea 04       		.uleb128 0x4
 662 00eb 19020000 		.4byte	.LASF20
 663 00ef 08       		.byte	0x8
 664 00f0 43       		.byte	0x43
 665 00f1 1D       		.byte	0x1d
 666 00f2 7C000000 		.4byte	0x7c
 667 00f6 04       		.uleb128 0x4
 668 00f7 94010000 		.4byte	.LASF21
 669 00fb 08       		.byte	0x8
 670 00fc 45       		.byte	0x45
 671 00fd 1D       		.byte	0x1d
 672 00fe 4F000000 		.4byte	0x4f
 673 0102 04       		.uleb128 0x4
 674 0103 9C040000 		.4byte	.LASF22
 675 0107 09       		.byte	0x9
 676 0108 33       		.byte	0x33
 677 0109 12       		.byte	0x12
 678 010a 7C000000 		.4byte	0x7c
 679 010e 04       		.uleb128 0x4
 680 010f 81040000 		.4byte	.LASF23
 681 0113 09       		.byte	0x9
 682 0114 3F       		.byte	0x3f
 683 0115 1A       		.byte	0x1a
 684 0116 1A010000 		.4byte	0x11a
ARM GAS  /tmp/ccsPaZXk.s 			page 13


 685 011a 05       		.uleb128 0x5
 686 011b DE010000 		.4byte	.LASF41
 687 011f 44       		.byte	0x44
 688 0120 05       		.byte	0x5
 689 0121 9A       		.byte	0x9a
 690 0122 08       		.byte	0x8
 691 0123 0A020000 		.4byte	0x20a
 692 0127 06       		.uleb128 0x6
 693 0128 5F010000 		.4byte	.LASF24
 694 012c 05       		.byte	0x5
 695 012d 9B       		.byte	0x9b
 696 012e 19       		.byte	0x19
 697 012f 43020000 		.4byte	0x243
 698 0133 00       		.byte	0
 699 0134 06       		.uleb128 0x6
 700 0135 63030000 		.4byte	.LASF25
 701 0139 05       		.byte	0x5
 702 013a 9C       		.byte	0x9c
 703 013b 19       		.byte	0x19
 704 013c D2000000 		.4byte	0xd2
 705 0140 08       		.byte	0x8
 706 0141 07       		.uleb128 0x7
 707 0142 63747800 		.ascii	"ctx\000"
 708 0146 05       		.byte	0x5
 709 0147 9D       		.byte	0x9d
 710 0148 19       		.byte	0x19
 711 0149 5A040000 		.4byte	0x45a
 712 014d 0C       		.byte	0xc
 713 014e 06       		.uleb128 0x6
 714 014f 30020000 		.4byte	.LASF26
 715 0153 05       		.byte	0x5
 716 0154 9F       		.byte	0x9f
 717 0155 1A       		.byte	0x1a
 718 0156 16020000 		.4byte	0x216
 719 015a 10       		.byte	0x10
 720 015b 06       		.uleb128 0x6
 721 015c 7B040000 		.4byte	.LASF27
 722 0160 05       		.byte	0x5
 723 0161 A0       		.byte	0xa0
 724 0162 1A       		.byte	0x1a
 725 0163 16020000 		.4byte	0x216
 726 0167 14       		.byte	0x14
 727 0168 06       		.uleb128 0x6
 728 0169 C0010000 		.4byte	.LASF28
 729 016d 05       		.byte	0x5
 730 016e A7       		.byte	0xa7
 731 016f 1A       		.byte	0x1a
 732 0170 FE050000 		.4byte	0x5fe
 733 0174 18       		.byte	0x18
 734 0175 06       		.uleb128 0x6
 735 0176 6F040000 		.4byte	.LASF29
 736 017a 05       		.byte	0x5
 737 017b B0       		.byte	0xb0
 738 017c 1A       		.byte	0x1a
 739 017d 15060000 		.4byte	0x615
 740 0181 1C       		.byte	0x1c
 741 0182 06       		.uleb128 0x6
ARM GAS  /tmp/ccsPaZXk.s 			page 14


 742 0183 38010000 		.4byte	.LASF30
 743 0187 05       		.byte	0x5
 744 0188 B5       		.byte	0xb5
 745 0189 19       		.byte	0x19
 746 018a BA000000 		.4byte	0xba
 747 018e 20       		.byte	0x20
 748 018f 06       		.uleb128 0x6
 749 0190 0C050000 		.4byte	.LASF31
 750 0194 05       		.byte	0x5
 751 0195 B9       		.byte	0xb9
 752 0196 19       		.byte	0x19
 753 0197 AE000000 		.4byte	0xae
 754 019b 21       		.byte	0x21
 755 019c 06       		.uleb128 0x6
 756 019d 78030000 		.4byte	.LASF32
 757 01a1 05       		.byte	0x5
 758 01a2 BE       		.byte	0xbe
 759 01a3 19       		.byte	0x19
 760 01a4 C6000000 		.4byte	0xc6
 761 01a8 22       		.byte	0x22
 762 01a9 08       		.uleb128 0x8
 763 01aa 7500     		.ascii	"u\000"
 764 01ac 05       		.byte	0x5
 765 01ad 0F01     		.2byte	0x10f
 766 01af 19       		.byte	0x19
 767 01b0 23050000 		.4byte	0x523
 768 01b4 24       		.byte	0x24
 769 01b5 09       		.uleb128 0x9
 770 01b6 7E010000 		.4byte	.LASF33
 771 01ba 05       		.byte	0x5
 772 01bb 1401     		.2byte	0x114
 773 01bd 19       		.byte	0x19
 774 01be 1C020000 		.4byte	0x21c
 775 01c2 28       		.byte	0x28
 776 01c3 09       		.uleb128 0x9
 777 01c4 2F010000 		.4byte	.LASF34
 778 01c8 05       		.byte	0x5
 779 01c9 1A01     		.2byte	0x11a
 780 01cb 19       		.byte	0x19
 781 01cc 43020000 		.4byte	0x243
 782 01d0 2C       		.byte	0x2c
 783 01d1 09       		.uleb128 0x9
 784 01d2 EE010000 		.4byte	.LASF35
 785 01d6 05       		.byte	0x5
 786 01d7 2001     		.2byte	0x120
 787 01d9 19       		.byte	0x19
 788 01da EA000000 		.4byte	0xea
 789 01de 34       		.byte	0x34
 790 01df 09       		.uleb128 0x9
 791 01e0 5D050000 		.4byte	.LASF36
 792 01e4 05       		.byte	0x5
 793 01e5 2701     		.2byte	0x127
 794 01e7 1A       		.byte	0x1a
 795 01e8 F8050000 		.4byte	0x5f8
 796 01ec 38       		.byte	0x38
 797 01ed 09       		.uleb128 0x9
 798 01ee 36020000 		.4byte	.LASF37
ARM GAS  /tmp/ccsPaZXk.s 			page 15


 799 01f2 05       		.byte	0x5
 800 01f3 2B01     		.2byte	0x12b
 801 01f5 19       		.byte	0x19
 802 01f6 D2000000 		.4byte	0xd2
 803 01fa 3C       		.byte	0x3c
 804 01fb 09       		.uleb128 0x9
 805 01fc C5010000 		.4byte	.LASF38
 806 0200 05       		.byte	0x5
 807 0201 3201     		.2byte	0x132
 808 0203 1A       		.byte	0x1a
 809 0204 03030000 		.4byte	0x303
 810 0208 40       		.byte	0x40
 811 0209 00       		.byte	0
 812 020a 04       		.uleb128 0x4
 813 020b 47020000 		.4byte	.LASF39
 814 020f 09       		.byte	0x9
 815 0210 44       		.byte	0x44
 816 0211 14       		.byte	0x14
 817 0212 16020000 		.4byte	0x216
 818 0216 0A       		.uleb128 0xa
 819 0217 04       		.byte	0x4
 820 0218 0E010000 		.4byte	0x10e
 821 021c 04       		.uleb128 0x4
 822 021d 19050000 		.4byte	.LASF40
 823 0221 09       		.byte	0x9
 824 0222 49       		.byte	0x49
 825 0223 20       		.byte	0x20
 826 0224 28020000 		.4byte	0x228
 827 0228 05       		.uleb128 0x5
 828 0229 4D040000 		.4byte	.LASF42
 829 022d 04       		.byte	0x4
 830 022e 05       		.byte	0x5
 831 022f 88       		.byte	0x88
 832 0230 08       		.byte	0x8
 833 0231 43020000 		.4byte	0x243
 834 0235 06       		.uleb128 0x6
 835 0236 EC000000 		.4byte	.LASF43
 836 023a 05       		.byte	0x5
 837 023b 89       		.byte	0x89
 838 023c 1A       		.byte	0x1a
 839 023d 16020000 		.4byte	0x216
 840 0241 00       		.byte	0
 841 0242 00       		.byte	0
 842 0243 04       		.uleb128 0x4
 843 0244 E5040000 		.4byte	.LASF44
 844 0248 09       		.byte	0x9
 845 0249 50       		.byte	0x50
 846 024a 21       		.byte	0x21
 847 024b 4F020000 		.4byte	0x24f
 848 024f 05       		.uleb128 0x5
 849 0250 F1000000 		.4byte	.LASF45
 850 0254 08       		.byte	0x8
 851 0255 05       		.byte	0x5
 852 0256 8F       		.byte	0x8f
 853 0257 08       		.byte	0x8
 854 0258 77020000 		.4byte	0x277
 855 025c 06       		.uleb128 0x6
ARM GAS  /tmp/ccsPaZXk.s 			page 16


 856 025d EC000000 		.4byte	.LASF43
 857 0261 05       		.byte	0x5
 858 0262 90       		.byte	0x90
 859 0263 1A       		.byte	0x1a
 860 0264 16020000 		.4byte	0x216
 861 0268 00       		.byte	0
 862 0269 06       		.uleb128 0x6
 863 026a 79000000 		.4byte	.LASF46
 864 026e 05       		.byte	0x5
 865 026f 91       		.byte	0x91
 866 0270 1A       		.byte	0x1a
 867 0271 16020000 		.4byte	0x216
 868 0275 04       		.byte	0x4
 869 0276 00       		.byte	0
 870 0277 04       		.uleb128 0x4
 871 0278 43000000 		.4byte	.LASF47
 872 027c 09       		.byte	0x9
 873 027d 57       		.byte	0x57
 874 027e 1E       		.byte	0x1e
 875 027f 83020000 		.4byte	0x283
 876 0283 0B       		.uleb128 0xb
 877 0284 0B020000 		.4byte	.LASF48
 878 0288 1C       		.byte	0x1c
 879 0289 05       		.byte	0x5
 880 028a 6A01     		.2byte	0x16a
 881 028c 08       		.byte	0x8
 882 028d E6020000 		.4byte	0x2e6
 883 0291 09       		.uleb128 0x9
 884 0292 5F010000 		.4byte	.LASF24
 885 0296 05       		.byte	0x5
 886 0297 6B01     		.2byte	0x16b
 887 0299 19       		.byte	0x19
 888 029a 43020000 		.4byte	0x243
 889 029e 00       		.byte	0
 890 029f 09       		.uleb128 0x9
 891 02a0 63030000 		.4byte	.LASF25
 892 02a4 05       		.byte	0x5
 893 02a5 6C01     		.2byte	0x16c
 894 02a7 19       		.byte	0x19
 895 02a8 D2000000 		.4byte	0xd2
 896 02ac 08       		.byte	0x8
 897 02ad 08       		.uleb128 0x8
 898 02ae 63747800 		.ascii	"ctx\000"
 899 02b2 05       		.byte	0x5
 900 02b3 6E01     		.2byte	0x16e
 901 02b5 19       		.byte	0x19
 902 02b6 5A040000 		.4byte	0x45a
 903 02ba 0C       		.byte	0xc
 904 02bb 09       		.uleb128 0x9
 905 02bc 30020000 		.4byte	.LASF26
 906 02c0 05       		.byte	0x5
 907 02c1 7101     		.2byte	0x171
 908 02c3 1A       		.byte	0x1a
 909 02c4 16020000 		.4byte	0x216
 910 02c8 10       		.byte	0x10
 911 02c9 09       		.uleb128 0x9
 912 02ca 7B040000 		.4byte	.LASF27
ARM GAS  /tmp/ccsPaZXk.s 			page 17


 913 02ce 05       		.byte	0x5
 914 02cf 7201     		.2byte	0x172
 915 02d1 1A       		.byte	0x1a
 916 02d2 16020000 		.4byte	0x216
 917 02d6 14       		.byte	0x14
 918 02d7 09       		.uleb128 0x9
 919 02d8 68030000 		.4byte	.LASF49
 920 02dc 05       		.byte	0x5
 921 02dd 7501     		.2byte	0x175
 922 02df 1A       		.byte	0x1a
 923 02e0 16020000 		.4byte	0x216
 924 02e4 18       		.byte	0x18
 925 02e5 00       		.byte	0
 926 02e6 04       		.uleb128 0x4
 927 02e7 A6040000 		.4byte	.LASF50
 928 02eb 09       		.byte	0x9
 929 02ec 5C       		.byte	0x5c
 930 02ed 10       		.byte	0x10
 931 02ee F2020000 		.4byte	0x2f2
 932 02f2 0A       		.uleb128 0xa
 933 02f3 04       		.byte	0x4
 934 02f4 F8020000 		.4byte	0x2f8
 935 02f8 0C       		.uleb128 0xc
 936 02f9 03030000 		.4byte	0x303
 937 02fd 0D       		.uleb128 0xd
 938 02fe 03030000 		.4byte	0x303
 939 0302 00       		.byte	0
 940 0303 0E       		.uleb128 0xe
 941 0304 04       		.byte	0x4
 942 0305 04       		.uleb128 0x4
 943 0306 7D030000 		.4byte	.LASF51
 944 030a 09       		.byte	0x9
 945 030b 61       		.byte	0x61
 946 030c 21       		.byte	0x21
 947 030d 11030000 		.4byte	0x311
 948 0311 0B       		.uleb128 0xb
 949 0312 F8030000 		.4byte	.LASF52
 950 0316 14       		.byte	0x14
 951 0317 05       		.byte	0x5
 952 0318 4501     		.2byte	0x145
 953 031a 08       		.byte	0x8
 954 031b 66030000 		.4byte	0x366
 955 031f 09       		.uleb128 0x9
 956 0320 EC000000 		.4byte	.LASF43
 957 0324 05       		.byte	0x5
 958 0325 4601     		.2byte	0x146
 959 0327 1A       		.byte	0x1a
 960 0328 1B060000 		.4byte	0x61b
 961 032c 00       		.byte	0
 962 032d 09       		.uleb128 0x9
 963 032e 79000000 		.4byte	.LASF46
 964 0332 05       		.byte	0x5
 965 0333 4701     		.2byte	0x147
 966 0335 1A       		.byte	0x1a
 967 0336 1B060000 		.4byte	0x61b
 968 033a 04       		.byte	0x4
 969 033b 09       		.uleb128 0x9
ARM GAS  /tmp/ccsPaZXk.s 			page 18


 970 033c 63000000 		.4byte	.LASF53
 971 0340 05       		.byte	0x5
 972 0341 4801     		.2byte	0x148
 973 0343 19       		.byte	0x19
 974 0344 02010000 		.4byte	0x102
 975 0348 08       		.byte	0x8
 976 0349 09       		.uleb128 0x9
 977 034a 5A010000 		.4byte	.LASF54
 978 034e 05       		.byte	0x5
 979 034f 4901     		.2byte	0x149
 980 0351 19       		.byte	0x19
 981 0352 E6020000 		.4byte	0x2e6
 982 0356 0C       		.byte	0xc
 983 0357 08       		.uleb128 0x8
 984 0358 70617200 		.ascii	"par\000"
 985 035c 05       		.byte	0x5
 986 035d 4B01     		.2byte	0x14b
 987 035f 1A       		.byte	0x1a
 988 0360 03030000 		.4byte	0x303
 989 0364 10       		.byte	0x10
 990 0365 00       		.byte	0
 991 0366 04       		.uleb128 0x4
 992 0367 D6000000 		.4byte	.LASF55
 993 036b 09       		.byte	0x9
 994 036c 66       		.byte	0x66
 995 036d 28       		.byte	0x28
 996 036e 72030000 		.4byte	0x372
 997 0372 0B       		.uleb128 0xb
 998 0373 5A020000 		.4byte	.LASF56
 999 0377 10       		.byte	0x10
 1000 0378 05       		.byte	0x5
 1001 0379 5501     		.2byte	0x155
 1002 037b 08       		.byte	0x8
 1003 037c B9030000 		.4byte	0x3b9
 1004 0380 09       		.uleb128 0x9
 1005 0381 EC000000 		.4byte	.LASF43
 1006 0385 05       		.byte	0x5
 1007 0386 5601     		.2byte	0x156
 1008 0388 1A       		.byte	0x1a
 1009 0389 1B060000 		.4byte	0x61b
 1010 038d 00       		.byte	0
 1011 038e 09       		.uleb128 0x9
 1012 038f 79000000 		.4byte	.LASF46
 1013 0393 05       		.byte	0x5
 1014 0394 5801     		.2byte	0x158
 1015 0396 1A       		.byte	0x1a
 1016 0397 1B060000 		.4byte	0x61b
 1017 039b 04       		.byte	0x4
 1018 039c 09       		.uleb128 0x9
 1019 039d 63000000 		.4byte	.LASF53
 1020 03a1 05       		.byte	0x5
 1021 03a2 5A01     		.2byte	0x15a
 1022 03a4 19       		.byte	0x19
 1023 03a5 02010000 		.4byte	0x102
 1024 03a9 08       		.byte	0x8
 1025 03aa 09       		.uleb128 0x9
 1026 03ab CB030000 		.4byte	.LASF57
ARM GAS  /tmp/ccsPaZXk.s 			page 19


 1027 03af 05       		.byte	0x5
 1028 03b0 6201     		.2byte	0x162
 1029 03b2 19       		.byte	0x19
 1030 03b3 02010000 		.4byte	0x102
 1031 03b7 0C       		.byte	0xc
 1032 03b8 00       		.byte	0
 1033 03b9 04       		.uleb128 0x4
 1034 03ba 8A000000 		.4byte	.LASF58
 1035 03be 09       		.byte	0x9
 1036 03bf 6B       		.byte	0x6b
 1037 03c0 20       		.byte	0x20
 1038 03c1 C5030000 		.4byte	0x3c5
 1039 03c5 0B       		.uleb128 0xb
 1040 03c6 95030000 		.4byte	.LASF59
 1041 03ca 04       		.byte	0x4
 1042 03cb 05       		.byte	0x5
 1043 03cc 7C01     		.2byte	0x17c
 1044 03ce 08       		.byte	0x8
 1045 03cf E2030000 		.4byte	0x3e2
 1046 03d3 09       		.uleb128 0x9
 1047 03d4 BD040000 		.4byte	.LASF60
 1048 03d8 05       		.byte	0x5
 1049 03d9 8401     		.2byte	0x184
 1050 03db 24       		.byte	0x24
 1051 03dc 04060000 		.4byte	0x604
 1052 03e0 00       		.byte	0
 1053 03e1 00       		.byte	0
 1054 03e2 04       		.uleb128 0x4
 1055 03e3 F7010000 		.4byte	.LASF61
 1056 03e7 09       		.byte	0x9
 1057 03e8 70       		.byte	0x70
 1058 03e9 1A       		.byte	0x1a
 1059 03ea EE030000 		.4byte	0x3ee
 1060 03ee 0B       		.uleb128 0xb
 1061 03ef DB030000 		.4byte	.LASF62
 1062 03f3 78       		.byte	0x78
 1063 03f4 05       		.byte	0x5
 1064 03f5 9C01     		.2byte	0x19c
 1065 03f7 08       		.byte	0x8
 1066 03f8 42040000 		.4byte	0x442
 1067 03fc 09       		.uleb128 0x9
 1068 03fd FE040000 		.4byte	.LASF63
 1069 0401 05       		.byte	0x5
 1070 0402 A001     		.2byte	0x1a0
 1071 0404 19       		.byte	0x19
 1072 0405 77020000 		.4byte	0x277
 1073 0409 00       		.byte	0
 1074 040a 09       		.uleb128 0x9
 1075 040b 1C010000 		.4byte	.LASF64
 1076 040f 05       		.byte	0x5
 1077 0410 A401     		.2byte	0x1a4
 1078 0412 19       		.byte	0x19
 1079 0413 66030000 		.4byte	0x366
 1080 0417 1C       		.byte	0x1c
 1081 0418 08       		.uleb128 0x8
 1082 0419 64626700 		.ascii	"dbg\000"
 1083 041d 05       		.byte	0x5
ARM GAS  /tmp/ccsPaZXk.s 			page 20


 1084 041e A801     		.2byte	0x1a8
 1085 0420 19       		.byte	0x19
 1086 0421 B9030000 		.4byte	0x3b9
 1087 0425 2C       		.byte	0x2c
 1088 0426 09       		.uleb128 0x9
 1089 0427 C3000000 		.4byte	.LASF65
 1090 042b 05       		.byte	0x5
 1091 042c AC01     		.2byte	0x1ac
 1092 042e 19       		.byte	0x19
 1093 042f 0E010000 		.4byte	0x10e
 1094 0433 30       		.byte	0x30
 1095 0434 08       		.uleb128 0x8
 1096 0435 746D00   		.ascii	"tm\000"
 1097 0438 05       		.byte	0x5
 1098 0439 B101     		.2byte	0x1b1
 1099 043b 19       		.byte	0x19
 1100 043c 17050000 		.4byte	0x517
 1101 0440 74       		.byte	0x74
 1102 0441 00       		.byte	0
 1103 0442 04       		.uleb128 0x4
 1104 0443 75010000 		.4byte	.LASF66
 1105 0447 0A       		.byte	0xa
 1106 0448 65       		.byte	0x65
 1107 0449 0F       		.byte	0xf
 1108 044a 03030000 		.4byte	0x303
 1109 044e 04       		.uleb128 0x4
 1110 044f 25020000 		.4byte	.LASF67
 1111 0453 0A       		.byte	0xa
 1112 0454 6D       		.byte	0x6d
 1113 0455 12       		.byte	0x12
 1114 0456 8F000000 		.4byte	0x8f
 1115 045a 05       		.uleb128 0x5
 1116 045b 45030000 		.4byte	.LASF68
 1117 045f 04       		.byte	0x4
 1118 0460 0A       		.byte	0xa
 1119 0461 89       		.byte	0x89
 1120 0462 08       		.byte	0x8
 1121 0463 74040000 		.4byte	0x474
 1122 0467 07       		.uleb128 0x7
 1123 0468 737000   		.ascii	"sp\000"
 1124 046b 0A       		.byte	0xa
 1125 046c 8A       		.byte	0x8a
 1126 046d 17       		.byte	0x17
 1127 046e FA040000 		.4byte	0x4fa
 1128 0472 00       		.byte	0
 1129 0473 00       		.byte	0
 1130 0474 0B       		.uleb128 0xb
 1131 0475 7E000000 		.4byte	.LASF69
 1132 0479 24       		.byte	0x24
 1133 047a 04       		.byte	0x4
 1134 047b 5901     		.2byte	0x159
 1135 047d 08       		.byte	0x8
 1136 047e FA040000 		.4byte	0x4fa
 1137 0482 08       		.uleb128 0x8
 1138 0483 723400   		.ascii	"r4\000"
 1139 0486 04       		.byte	0x4
 1140 0487 6C01     		.2byte	0x16c
ARM GAS  /tmp/ccsPaZXk.s 			page 21


 1141 0489 11       		.byte	0x11
 1142 048a 42040000 		.4byte	0x442
 1143 048e 00       		.byte	0
 1144 048f 08       		.uleb128 0x8
 1145 0490 723500   		.ascii	"r5\000"
 1146 0493 04       		.byte	0x4
 1147 0494 6D01     		.2byte	0x16d
 1148 0496 11       		.byte	0x11
 1149 0497 42040000 		.4byte	0x442
 1150 049b 04       		.byte	0x4
 1151 049c 08       		.uleb128 0x8
 1152 049d 723600   		.ascii	"r6\000"
 1153 04a0 04       		.byte	0x4
 1154 04a1 6E01     		.2byte	0x16e
 1155 04a3 11       		.byte	0x11
 1156 04a4 42040000 		.4byte	0x442
 1157 04a8 08       		.byte	0x8
 1158 04a9 08       		.uleb128 0x8
 1159 04aa 723700   		.ascii	"r7\000"
 1160 04ad 04       		.byte	0x4
 1161 04ae 6F01     		.2byte	0x16f
 1162 04b0 11       		.byte	0x11
 1163 04b1 42040000 		.4byte	0x442
 1164 04b5 0C       		.byte	0xc
 1165 04b6 08       		.uleb128 0x8
 1166 04b7 723800   		.ascii	"r8\000"
 1167 04ba 04       		.byte	0x4
 1168 04bb 7001     		.2byte	0x170
 1169 04bd 11       		.byte	0x11
 1170 04be 42040000 		.4byte	0x442
 1171 04c2 10       		.byte	0x10
 1172 04c3 08       		.uleb128 0x8
 1173 04c4 723900   		.ascii	"r9\000"
 1174 04c7 04       		.byte	0x4
 1175 04c8 7101     		.2byte	0x171
 1176 04ca 11       		.byte	0x11
 1177 04cb 42040000 		.4byte	0x442
 1178 04cf 14       		.byte	0x14
 1179 04d0 08       		.uleb128 0x8
 1180 04d1 72313000 		.ascii	"r10\000"
 1181 04d5 04       		.byte	0x4
 1182 04d6 7201     		.2byte	0x172
 1183 04d8 11       		.byte	0x11
 1184 04d9 42040000 		.4byte	0x442
 1185 04dd 18       		.byte	0x18
 1186 04de 08       		.uleb128 0x8
 1187 04df 72313100 		.ascii	"r11\000"
 1188 04e3 04       		.byte	0x4
 1189 04e4 7301     		.2byte	0x173
 1190 04e6 11       		.byte	0x11
 1191 04e7 42040000 		.4byte	0x442
 1192 04eb 1C       		.byte	0x1c
 1193 04ec 08       		.uleb128 0x8
 1194 04ed 6C7200   		.ascii	"lr\000"
 1195 04f0 04       		.byte	0x4
 1196 04f1 7401     		.2byte	0x174
 1197 04f3 11       		.byte	0x11
ARM GAS  /tmp/ccsPaZXk.s 			page 22


 1198 04f4 42040000 		.4byte	0x442
 1199 04f8 20       		.byte	0x20
 1200 04f9 00       		.byte	0
 1201 04fa 0A       		.uleb128 0xa
 1202 04fb 04       		.byte	0x4
 1203 04fc 74040000 		.4byte	0x474
 1204 0500 0F       		.uleb128 0xf
 1205 0501 04       		.byte	0x4
 1206 0502 0B       		.byte	0xb
 1207 0503 38       		.byte	0x38
 1208 0504 09       		.byte	0x9
 1209 0505 17050000 		.4byte	0x517
 1210 0509 06       		.uleb128 0x6
 1211 050a C7040000 		.4byte	.LASF70
 1212 050e 0B       		.byte	0xb
 1213 050f 3C       		.byte	0x3c
 1214 0510 19       		.byte	0x19
 1215 0511 A2000000 		.4byte	0xa2
 1216 0515 00       		.byte	0
 1217 0516 00       		.byte	0
 1218 0517 04       		.uleb128 0x4
 1219 0518 52030000 		.4byte	.LASF71
 1220 051c 0B       		.byte	0xb
 1221 051d 3D       		.byte	0x3d
 1222 051e 03       		.byte	0x3
 1223 051f 00050000 		.4byte	0x500
 1224 0523 10       		.uleb128 0x10
 1225 0524 04       		.byte	0x4
 1226 0525 05       		.byte	0x5
 1227 0526 D2       		.byte	0xd2
 1228 0527 03       		.byte	0x3
 1229 0528 8F050000 		.4byte	0x58f
 1230 052c 11       		.uleb128 0x11
 1231 052d 69000000 		.4byte	.LASF72
 1232 0531 05       		.byte	0x5
 1233 0532 D9       		.byte	0xd9
 1234 0533 19       		.byte	0x19
 1235 0534 DE000000 		.4byte	0xde
 1236 0538 11       		.uleb128 0x11
 1237 0539 BA000000 		.4byte	.LASF73
 1238 053d 05       		.byte	0x5
 1239 053e E0       		.byte	0xe0
 1240 053f 19       		.byte	0x19
 1241 0540 DE000000 		.4byte	0xde
 1242 0544 11       		.uleb128 0x11
 1243 0545 12050000 		.4byte	.LASF74
 1244 0549 05       		.byte	0x5
 1245 054a E7       		.byte	0xe7
 1246 054b 1A       		.byte	0x1a
 1247 054c 03030000 		.4byte	0x303
 1248 0550 11       		.uleb128 0x11
 1249 0551 5D000000 		.4byte	.LASF75
 1250 0555 05       		.byte	0x5
 1251 0556 EE       		.byte	0xee
 1252 0557 1A       		.byte	0x1a
 1253 0558 8F050000 		.4byte	0x58f
 1254 055c 11       		.uleb128 0x11
ARM GAS  /tmp/ccsPaZXk.s 			page 23


 1255 055d CE000000 		.4byte	.LASF76
 1256 0561 05       		.byte	0x5
 1257 0562 F3       		.byte	0xf3
 1258 0563 19       		.byte	0x19
 1259 0564 DE000000 		.4byte	0xde
 1260 0568 11       		.uleb128 0x11
 1261 0569 A7010000 		.4byte	.LASF77
 1262 056d 05       		.byte	0x5
 1263 056e FC       		.byte	0xfc
 1264 056f 1A       		.byte	0x1a
 1265 0570 BD050000 		.4byte	0x5bd
 1266 0574 12       		.uleb128 0x12
 1267 0575 3A040000 		.4byte	.LASF78
 1268 0579 05       		.byte	0x5
 1269 057a 0501     		.2byte	0x105
 1270 057c 1A       		.byte	0x1a
 1271 057d F8050000 		.4byte	0x5f8
 1272 0581 12       		.uleb128 0x12
 1273 0582 D4030000 		.4byte	.LASF79
 1274 0586 05       		.byte	0x5
 1275 0587 0D01     		.2byte	0x10d
 1276 0589 19       		.byte	0x19
 1277 058a EA000000 		.4byte	0xea
 1278 058e 00       		.byte	0
 1279 058f 0A       		.uleb128 0xa
 1280 0590 04       		.byte	0x4
 1281 0591 0A020000 		.4byte	0x20a
 1282 0595 05       		.uleb128 0x5
 1283 0596 16040000 		.4byte	.LASF80
 1284 059a 0C       		.byte	0xc
 1285 059b 0C       		.byte	0xc
 1286 059c 34       		.byte	0x34
 1287 059d 10       		.byte	0x10
 1288 059e BD050000 		.4byte	0x5bd
 1289 05a2 06       		.uleb128 0x6
 1290 05a3 5F010000 		.4byte	.LASF24
 1291 05a7 0C       		.byte	0xc
 1292 05a8 35       		.byte	0x35
 1293 05a9 19       		.byte	0x19
 1294 05aa 43020000 		.4byte	0x243
 1295 05ae 00       		.byte	0
 1296 05af 07       		.uleb128 0x7
 1297 05b0 636E7400 		.ascii	"cnt\000"
 1298 05b4 0C       		.byte	0xc
 1299 05b5 37       		.byte	0x37
 1300 05b6 19       		.byte	0x19
 1301 05b7 F6000000 		.4byte	0xf6
 1302 05bb 08       		.byte	0x8
 1303 05bc 00       		.byte	0
 1304 05bd 0A       		.uleb128 0xa
 1305 05be 04       		.byte	0x4
 1306 05bf 95050000 		.4byte	0x595
 1307 05c3 05       		.uleb128 0x5
 1308 05c4 F5040000 		.4byte	.LASF81
 1309 05c8 10       		.byte	0x10
 1310 05c9 0D       		.byte	0xd
 1311 05ca 39       		.byte	0x39
ARM GAS  /tmp/ccsPaZXk.s 			page 24


 1312 05cb 08       		.byte	0x8
 1313 05cc F8050000 		.4byte	0x5f8
 1314 05d0 06       		.uleb128 0x6
 1315 05d1 5F010000 		.4byte	.LASF24
 1316 05d5 0D       		.byte	0xd
 1317 05d6 3A       		.byte	0x3a
 1318 05d7 19       		.byte	0x19
 1319 05d8 43020000 		.4byte	0x243
 1320 05dc 00       		.byte	0
 1321 05dd 06       		.uleb128 0x6
 1322 05de 5D040000 		.4byte	.LASF82
 1323 05e2 0D       		.byte	0xd
 1324 05e3 3C       		.byte	0x3c
 1325 05e4 1A       		.byte	0x1a
 1326 05e5 16020000 		.4byte	0x216
 1327 05e9 08       		.byte	0x8
 1328 05ea 06       		.uleb128 0x6
 1329 05eb EC000000 		.4byte	.LASF43
 1330 05ef 0D       		.byte	0xd
 1331 05f0 3E       		.byte	0x3e
 1332 05f1 1A       		.byte	0x1a
 1333 05f2 39060000 		.4byte	0x639
 1334 05f6 0C       		.byte	0xc
 1335 05f7 00       		.byte	0
 1336 05f8 0A       		.uleb128 0xa
 1337 05f9 04       		.byte	0x4
 1338 05fa C3050000 		.4byte	0x5c3
 1339 05fe 0A       		.uleb128 0xa
 1340 05ff 04       		.byte	0x4
 1341 0600 10060000 		.4byte	0x610
 1342 0604 13       		.uleb128 0x13
 1343 0605 FE050000 		.4byte	0x5fe
 1344 0609 03       		.uleb128 0x3
 1345 060a 01       		.byte	0x1
 1346 060b 08       		.byte	0x8
 1347 060c 76040000 		.4byte	.LASF83
 1348 0610 14       		.uleb128 0x14
 1349 0611 09060000 		.4byte	0x609
 1350 0615 0A       		.uleb128 0xa
 1351 0616 04       		.byte	0x4
 1352 0617 4E040000 		.4byte	0x44e
 1353 061b 0A       		.uleb128 0xa
 1354 061c 04       		.byte	0x4
 1355 061d 05030000 		.4byte	0x305
 1356 0621 15       		.uleb128 0x15
 1357 0622 636800   		.ascii	"ch\000"
 1358 0625 05       		.byte	0x5
 1359 0626 D201     		.2byte	0x1d2
 1360 0628 14       		.byte	0x14
 1361 0629 E2030000 		.4byte	0x3e2
 1362 062d 04       		.uleb128 0x4
 1363 062e 86010000 		.4byte	.LASF84
 1364 0632 0D       		.byte	0xd
 1365 0633 34       		.byte	0x34
 1366 0634 19       		.byte	0x19
 1367 0635 C3050000 		.4byte	0x5c3
 1368 0639 0A       		.uleb128 0xa
ARM GAS  /tmp/ccsPaZXk.s 			page 25


 1369 063a 04       		.byte	0x4
 1370 063b 2D060000 		.4byte	0x62d
 1371 063f 03       		.uleb128 0x3
 1372 0640 01       		.byte	0x1
 1373 0641 02       		.byte	0x2
 1374 0642 A5030000 		.4byte	.LASF85
 1375 0646 16       		.uleb128 0x16
 1376 0647 09040000 		.4byte	.LASF105
 1377 064b 01       		.byte	0x1
 1378 064c 8F       		.byte	0x8f
 1379 064d 06       		.byte	0x6
 1380 064e 00000000 		.4byte	.LFB248
 1381 0652 14000000 		.4byte	.LFE248-.LFB248
 1382 0656 01       		.uleb128 0x1
 1383 0657 9C       		.byte	0x9c
 1384 0658 71070000 		.4byte	0x771
 1385 065c 17       		.uleb128 0x17
 1386 065d 747000   		.ascii	"tp\000"
 1387 0660 01       		.byte	0x1
 1388 0661 8F       		.byte	0x8f
 1389 0662 1D       		.byte	0x1d
 1390 0663 16020000 		.4byte	0x216
 1391 0667 04000000 		.4byte	.LLST10
 1392 066b 00000000 		.4byte	.LVUS10
 1393 066f 17       		.uleb128 0x17
 1394 0670 6D736700 		.ascii	"msg\000"
 1395 0674 01       		.byte	0x1
 1396 0675 8F       		.byte	0x8f
 1397 0676 27       		.byte	0x27
 1398 0677 DE000000 		.4byte	0xde
 1399 067b 29000000 		.4byte	.LLST11
 1400 067f 25000000 		.4byte	.LVUS11
 1401 0683 18       		.uleb128 0x18
 1402 0684 E5030000 		.4byte	.LASF88
 1403 0688 81070000 		.4byte	0x781
 1404 068c 19       		.uleb128 0x19
 1405 068d 6B0A0000 		.4byte	0xa6b
 1406 0691 00000000 		.4byte	.LBI111
 1407 0695 02       		.byte	.LVU115
 1408 0696 20010000 		.4byte	.Ldebug_ranges0+0x120
 1409 069a 01       		.byte	0x1
 1410 069b 91       		.byte	0x91
 1411 069c 03       		.byte	0x3
 1412 069d D5060000 		.4byte	0x6d5
 1413 06a1 1A       		.uleb128 0x1a
 1414 06a2 D90A0000 		.4byte	0xad9
 1415 06a6 00000000 		.4byte	.LBI112
 1416 06aa 04       		.byte	.LVU117
 1417 06ab 28010000 		.4byte	.Ldebug_ranges0+0x128
 1418 06af 03       		.byte	0x3
 1419 06b0 7801     		.2byte	0x178
 1420 06b2 03       		.byte	0x3
 1421 06b3 1A       		.uleb128 0x1a
 1422 06b4 E30A0000 		.4byte	0xae3
 1423 06b8 00000000 		.4byte	.LBI113
 1424 06bc 06       		.byte	.LVU119
 1425 06bd 30010000 		.4byte	.Ldebug_ranges0+0x130
ARM GAS  /tmp/ccsPaZXk.s 			page 26


 1426 06c1 04       		.byte	0x4
 1427 06c2 5A02     		.2byte	0x25a
 1428 06c4 03       		.byte	0x3
 1429 06c5 1B       		.uleb128 0x1b
 1430 06c6 F10A0000 		.4byte	0xaf1
 1431 06ca 4C000000 		.4byte	.LLST12
 1432 06ce 4A000000 		.4byte	.LVUS12
 1433 06d2 00       		.byte	0
 1434 06d3 00       		.byte	0
 1435 06d4 00       		.byte	0
 1436 06d5 1C       		.uleb128 0x1c
 1437 06d6 FC090000 		.4byte	0x9fc
 1438 06da 08000000 		.4byte	.LBI122
 1439 06de 07       		.byte	.LVU130
 1440 06df 08000000 		.4byte	.LBB122
 1441 06e3 04000000 		.4byte	.LBE122-.LBB122
 1442 06e7 01       		.byte	0x1
 1443 06e8 93       		.byte	0x93
 1444 06e9 03       		.byte	0x3
 1445 06ea 21070000 		.4byte	0x721
 1446 06ee 1B       		.uleb128 0x1b
 1447 06ef 140A0000 		.4byte	0xa14
 1448 06f3 65000000 		.4byte	.LLST13
 1449 06f7 61000000 		.4byte	.LVUS13
 1450 06fb 1B       		.uleb128 0x1b
 1451 06fc 090A0000 		.4byte	0xa09
 1452 0700 8A000000 		.4byte	.LLST14
 1453 0704 86000000 		.4byte	.LVUS14
 1454 0708 1D       		.uleb128 0x1d
 1455 0709 0C000000 		.4byte	.LVL23
 1456 070d FF0A0000 		.4byte	0xaff
 1457 0711 1E       		.uleb128 0x1e
 1458 0712 01       		.uleb128 0x1
 1459 0713 50       		.byte	0x50
 1460 0714 03       		.uleb128 0x3
 1461 0715 F3       		.byte	0xf3
 1462 0716 01       		.uleb128 0x1
 1463 0717 50       		.byte	0x50
 1464 0718 1E       		.uleb128 0x1e
 1465 0719 01       		.uleb128 0x1
 1466 071a 51       		.byte	0x51
 1467 071b 03       		.uleb128 0x3
 1468 071c F3       		.byte	0xf3
 1469 071d 01       		.uleb128 0x1
 1470 071e 51       		.byte	0x51
 1471 071f 00       		.byte	0
 1472 0720 00       		.byte	0
 1473 0721 1F       		.uleb128 0x1f
 1474 0722 3E0A0000 		.4byte	0xa3e
 1475 0726 0C000000 		.4byte	.LBI124
 1476 072a 02       		.byte	.LVU135
 1477 072b 48010000 		.4byte	.Ldebug_ranges0+0x148
 1478 072f 01       		.byte	0x1
 1479 0730 94       		.byte	0x94
 1480 0731 03       		.byte	0x3
 1481 0732 20       		.uleb128 0x20
 1482 0733 48010000 		.4byte	.Ldebug_ranges0+0x148
ARM GAS  /tmp/ccsPaZXk.s 			page 27


 1483 0737 1A       		.uleb128 0x1a
 1484 0738 CF0A0000 		.4byte	0xacf
 1485 073c 0C000000 		.4byte	.LBI126
 1486 0740 09       		.byte	.LVU142
 1487 0741 48010000 		.4byte	.Ldebug_ranges0+0x148
 1488 0745 03       		.byte	0x3
 1489 0746 8F01     		.2byte	0x18f
 1490 0748 03       		.byte	0x3
 1491 0749 21       		.uleb128 0x21
 1492 074a E30A0000 		.4byte	0xae3
 1493 074e 0C000000 		.4byte	.LBI127
 1494 0752 0B       		.byte	.LVU144
 1495 0753 0C000000 		.4byte	.LBB127
 1496 0757 06000000 		.4byte	.LBE127-.LBB127
 1497 075b 04       		.byte	0x4
 1498 075c 6D02     		.2byte	0x26d
 1499 075e 03       		.byte	0x3
 1500 075f 1B       		.uleb128 0x1b
 1501 0760 F10A0000 		.4byte	0xaf1
 1502 0764 AD000000 		.4byte	.LLST15
 1503 0768 AB000000 		.4byte	.LVUS15
 1504 076c 00       		.byte	0
 1505 076d 00       		.byte	0
 1506 076e 00       		.byte	0
 1507 076f 00       		.byte	0
 1508 0770 00       		.byte	0
 1509 0771 22       		.uleb128 0x22
 1510 0772 10060000 		.4byte	0x610
 1511 0776 81070000 		.4byte	0x781
 1512 077a 23       		.uleb128 0x23
 1513 077b 2C000000 		.4byte	0x2c
 1514 077f 0C       		.byte	0xc
 1515 0780 00       		.byte	0
 1516 0781 14       		.uleb128 0x14
 1517 0782 71070000 		.4byte	0x771
 1518 0786 24       		.uleb128 0x24
 1519 0787 DB040000 		.4byte	.LASF86
 1520 078b 01       		.byte	0x1
 1521 078c 77       		.byte	0x77
 1522 078d 0B       		.byte	0xb
 1523 078e 16020000 		.4byte	0x216
 1524 0792 00000000 		.4byte	.LFB247
 1525 0796 40000000 		.4byte	.LFE247-.LFB247
 1526 079a 01       		.uleb128 0x1
 1527 079b 9C       		.byte	0x9c
 1528 079c A0080000 		.4byte	0x8a0
 1529 07a0 25       		.uleb128 0x25
 1530 07a1 747000   		.ascii	"tp\000"
 1531 07a4 01       		.byte	0x1
 1532 07a5 78       		.byte	0x78
 1533 07a6 0D       		.byte	0xd
 1534 07a7 16020000 		.4byte	0x216
 1535 07ab 19       		.uleb128 0x19
 1536 07ac 6B0A0000 		.4byte	0xa6b
 1537 07b0 00000000 		.4byte	.LBI79
 1538 07b4 03       		.byte	.LVU61
 1539 07b5 A0000000 		.4byte	.Ldebug_ranges0+0xa0
ARM GAS  /tmp/ccsPaZXk.s 			page 28


 1540 07b9 01       		.byte	0x1
 1541 07ba 7A       		.byte	0x7a
 1542 07bb 03       		.byte	0x3
 1543 07bc F4070000 		.4byte	0x7f4
 1544 07c0 1A       		.uleb128 0x1a
 1545 07c1 D90A0000 		.4byte	0xad9
 1546 07c5 00000000 		.4byte	.LBI80
 1547 07c9 05       		.byte	.LVU63
 1548 07ca A8000000 		.4byte	.Ldebug_ranges0+0xa8
 1549 07ce 03       		.byte	0x3
 1550 07cf 7801     		.2byte	0x178
 1551 07d1 03       		.byte	0x3
 1552 07d2 1A       		.uleb128 0x1a
 1553 07d3 E30A0000 		.4byte	0xae3
 1554 07d7 00000000 		.4byte	.LBI81
 1555 07db 07       		.byte	.LVU65
 1556 07dc B0000000 		.4byte	.Ldebug_ranges0+0xb0
 1557 07e0 04       		.byte	0x4
 1558 07e1 5A02     		.2byte	0x25a
 1559 07e3 03       		.byte	0x3
 1560 07e4 1B       		.uleb128 0x1b
 1561 07e5 F10A0000 		.4byte	0xaf1
 1562 07e9 C3000000 		.4byte	.LLST7
 1563 07ed C1000000 		.4byte	.LVUS7
 1564 07f1 00       		.byte	0
 1565 07f2 00       		.byte	0
 1566 07f3 00       		.byte	0
 1567 07f4 1C       		.uleb128 0x1c
 1568 07f5 210A0000 		.4byte	0xa21
 1569 07f9 0C000000 		.4byte	.LBI90
 1570 07fd 00       		.byte	.LVU74
 1571 07fe 0C000000 		.4byte	.LBB90
 1572 0802 06000000 		.4byte	.LBE90-.LBB90
 1573 0806 01       		.byte	0x1
 1574 0807 7B       		.byte	0x7b
 1575 0808 08       		.byte	0x8
 1576 0809 1B080000 		.4byte	0x81b
 1577 080d 1B       		.uleb128 0x1b
 1578 080e 320A0000 		.4byte	0xa32
 1579 0812 DA000000 		.4byte	.LLST8
 1580 0816 D8000000 		.4byte	.LVUS8
 1581 081a 00       		.byte	0
 1582 081b 19       		.uleb128 0x19
 1583 081c 750A0000 		.4byte	0xa75
 1584 0820 16000000 		.4byte	.LBI92
 1585 0824 01       		.byte	.LVU81
 1586 0825 C8000000 		.4byte	.Ldebug_ranges0+0xc8
 1587 0829 01       		.byte	0x1
 1588 082a 7E       		.byte	0x7e
 1589 082b 08       		.byte	0x8
 1590 082c 41080000 		.4byte	0x841
 1591 0830 26       		.uleb128 0x26
 1592 0831 870A0000 		.4byte	0xa87
 1593 0835 20       		.uleb128 0x20
 1594 0836 C8000000 		.4byte	.Ldebug_ranges0+0xc8
 1595 083a 27       		.uleb128 0x27
 1596 083b 940A0000 		.4byte	0xa94
ARM GAS  /tmp/ccsPaZXk.s 			page 29


 1597 083f 00       		.byte	0
 1598 0840 00       		.byte	0
 1599 0841 19       		.uleb128 0x19
 1600 0842 3E0A0000 		.4byte	0xa3e
 1601 0846 24000000 		.4byte	.LBI97
 1602 084a 01       		.byte	.LVU95
 1603 084b E8000000 		.4byte	.Ldebug_ranges0+0xe8
 1604 084f 01       		.byte	0x1
 1605 0850 80       		.byte	0x80
 1606 0851 03       		.byte	0x3
 1607 0852 90080000 		.4byte	0x890
 1608 0856 20       		.uleb128 0x20
 1609 0857 E8000000 		.4byte	.Ldebug_ranges0+0xe8
 1610 085b 1A       		.uleb128 0x1a
 1611 085c CF0A0000 		.4byte	0xacf
 1612 0860 24000000 		.4byte	.LBI99
 1613 0864 08       		.byte	.LVU102
 1614 0865 E8000000 		.4byte	.Ldebug_ranges0+0xe8
 1615 0869 03       		.byte	0x3
 1616 086a 8F01     		.2byte	0x18f
 1617 086c 03       		.byte	0x3
 1618 086d 1A       		.uleb128 0x1a
 1619 086e E30A0000 		.4byte	0xae3
 1620 0872 24000000 		.4byte	.LBI100
 1621 0876 0A       		.byte	.LVU104
 1622 0877 08010000 		.4byte	.Ldebug_ranges0+0x108
 1623 087b 04       		.byte	0x4
 1624 087c 6D02     		.2byte	0x26d
 1625 087e 03       		.byte	0x3
 1626 087f 1B       		.uleb128 0x1b
 1627 0880 F10A0000 		.4byte	0xaf1
 1628 0884 EF000000 		.4byte	.LLST9
 1629 0888 ED000000 		.4byte	.LVUS9
 1630 088c 00       		.byte	0
 1631 088d 00       		.byte	0
 1632 088e 00       		.byte	0
 1633 088f 00       		.byte	0
 1634 0890 1D       		.uleb128 0x1d
 1635 0891 30000000 		.4byte	.LVL20
 1636 0895 0C0B0000 		.4byte	0xb0c
 1637 0899 1E       		.uleb128 0x1e
 1638 089a 01       		.uleb128 0x1
 1639 089b 50       		.byte	0x50
 1640 089c 01       		.uleb128 0x1
 1641 089d 3E       		.byte	0x3e
 1642 089e 00       		.byte	0
 1643 089f 00       		.byte	0
 1644 08a0 24       		.uleb128 0x24
 1645 08a1 47010000 		.4byte	.LASF87
 1646 08a5 01       		.byte	0x1
 1647 08a6 57       		.byte	0x57
 1648 08a7 07       		.byte	0x7
 1649 08a8 DE000000 		.4byte	0xde
 1650 08ac 00000000 		.4byte	.LFB246
 1651 08b0 40000000 		.4byte	.LFE246-.LFB246
 1652 08b4 01       		.uleb128 0x1
 1653 08b5 9C       		.byte	0x9c
ARM GAS  /tmp/ccsPaZXk.s 			page 30


 1654 08b6 E7090000 		.4byte	0x9e7
 1655 08ba 17       		.uleb128 0x17
 1656 08bb 747000   		.ascii	"tp\000"
 1657 08be 01       		.byte	0x1
 1658 08bf 57       		.byte	0x57
 1659 08c0 1B       		.byte	0x1b
 1660 08c1 16020000 		.4byte	0x216
 1661 08c5 0B010000 		.4byte	.LLST0
 1662 08c9 03010000 		.4byte	.LVUS0
 1663 08cd 17       		.uleb128 0x17
 1664 08ce 6D736700 		.ascii	"msg\000"
 1665 08d2 01       		.byte	0x1
 1666 08d3 57       		.byte	0x57
 1667 08d4 25       		.byte	0x25
 1668 08d5 DE000000 		.4byte	0xde
 1669 08d9 4D010000 		.4byte	.LLST1
 1670 08dd 43010000 		.4byte	.LVUS1
 1671 08e1 28       		.uleb128 0x28
 1672 08e2 63747000 		.ascii	"ctp\000"
 1673 08e6 01       		.byte	0x1
 1674 08e7 58       		.byte	0x58
 1675 08e8 0D       		.byte	0xd
 1676 08e9 16020000 		.4byte	0x216
 1677 08ed 94010000 		.4byte	.LLST2
 1678 08f1 92010000 		.4byte	.LVUS2
 1679 08f5 18       		.uleb128 0x18
 1680 08f6 E5030000 		.4byte	.LASF88
 1681 08fa F7090000 		.4byte	0x9f7
 1682 08fe 19       		.uleb128 0x19
 1683 08ff 6B0A0000 		.4byte	0xa6b
 1684 0903 08000000 		.4byte	.LBI52
 1685 0907 04       		.byte	.LVU10
 1686 0908 00000000 		.4byte	.Ldebug_ranges0+0
 1687 090c 01       		.byte	0x1
 1688 090d 5C       		.byte	0x5c
 1689 090e 03       		.byte	0x3
 1690 090f 47090000 		.4byte	0x947
 1691 0913 1A       		.uleb128 0x1a
 1692 0914 D90A0000 		.4byte	0xad9
 1693 0918 08000000 		.4byte	.LBI53
 1694 091c 06       		.byte	.LVU12
 1695 091d 28000000 		.4byte	.Ldebug_ranges0+0x28
 1696 0921 03       		.byte	0x3
 1697 0922 7801     		.2byte	0x178
 1698 0924 03       		.byte	0x3
 1699 0925 1A       		.uleb128 0x1a
 1700 0926 E30A0000 		.4byte	0xae3
 1701 092a 08000000 		.4byte	.LBI54
 1702 092e 08       		.byte	.LVU14
 1703 092f 48000000 		.4byte	.Ldebug_ranges0+0x48
 1704 0933 04       		.byte	0x4
 1705 0934 5A02     		.2byte	0x25a
 1706 0936 03       		.byte	0x3
 1707 0937 1B       		.uleb128 0x1b
 1708 0938 F10A0000 		.4byte	0xaf1
 1709 093c A9010000 		.4byte	.LLST3
 1710 0940 A7010000 		.4byte	.LVUS3
ARM GAS  /tmp/ccsPaZXk.s 			page 31


 1711 0944 00       		.byte	0
 1712 0945 00       		.byte	0
 1713 0946 00       		.byte	0
 1714 0947 19       		.uleb128 0x19
 1715 0948 A70A0000 		.4byte	0xaa7
 1716 094c 18000000 		.4byte	.LBI63
 1717 0950 01       		.byte	.LVU26
 1718 0951 60000000 		.4byte	.Ldebug_ranges0+0x60
 1719 0955 01       		.byte	0x1
 1720 0956 5E       		.byte	0x5e
 1721 0957 03       		.byte	0x3
 1722 0958 77090000 		.4byte	0x977
 1723 095c 1B       		.uleb128 0x1b
 1724 095d C10A0000 		.4byte	0xac1
 1725 0961 C0010000 		.4byte	.LLST4
 1726 0965 BE010000 		.4byte	.LVUS4
 1727 0969 1B       		.uleb128 0x1b
 1728 096a B50A0000 		.4byte	0xab5
 1729 096e D7010000 		.4byte	.LLST5
 1730 0972 D5010000 		.4byte	.LVUS5
 1731 0976 00       		.byte	0
 1732 0977 19       		.uleb128 0x19
 1733 0978 3E0A0000 		.4byte	0xa3e
 1734 097c 2C000000 		.4byte	.LBI71
 1735 0980 01       		.byte	.LVU41
 1736 0981 88000000 		.4byte	.Ldebug_ranges0+0x88
 1737 0985 01       		.byte	0x1
 1738 0986 64       		.byte	0x64
 1739 0987 03       		.byte	0x3
 1740 0988 CA090000 		.4byte	0x9ca
 1741 098c 20       		.uleb128 0x20
 1742 098d 88000000 		.4byte	.Ldebug_ranges0+0x88
 1743 0991 1A       		.uleb128 0x1a
 1744 0992 CF0A0000 		.4byte	0xacf
 1745 0996 2C000000 		.4byte	.LBI73
 1746 099a 08       		.byte	.LVU48
 1747 099b 88000000 		.4byte	.Ldebug_ranges0+0x88
 1748 099f 03       		.byte	0x3
 1749 09a0 8F01     		.2byte	0x18f
 1750 09a2 03       		.byte	0x3
 1751 09a3 21       		.uleb128 0x21
 1752 09a4 E30A0000 		.4byte	0xae3
 1753 09a8 2C000000 		.4byte	.LBI74
 1754 09ac 0A       		.byte	.LVU50
 1755 09ad 2C000000 		.4byte	.LBB74
 1756 09b1 06000000 		.4byte	.LBE74-.LBB74
 1757 09b5 04       		.byte	0x4
 1758 09b6 6D02     		.2byte	0x26d
 1759 09b8 03       		.byte	0x3
 1760 09b9 1B       		.uleb128 0x1b
 1761 09ba F10A0000 		.4byte	0xaf1
 1762 09be EC010000 		.4byte	.LLST6
 1763 09c2 EA010000 		.4byte	.LVUS6
 1764 09c6 00       		.byte	0
 1765 09c7 00       		.byte	0
 1766 09c8 00       		.byte	0
 1767 09c9 00       		.byte	0
ARM GAS  /tmp/ccsPaZXk.s 			page 32


 1768 09ca 29       		.uleb128 0x29
 1769 09cb 2A000000 		.4byte	.LVL6
 1770 09cf 0C0B0000 		.4byte	0xb0c
 1771 09d3 DD090000 		.4byte	0x9dd
 1772 09d7 1E       		.uleb128 0x1e
 1773 09d8 01       		.uleb128 0x1
 1774 09d9 50       		.byte	0x50
 1775 09da 01       		.uleb128 0x1
 1776 09db 3C       		.byte	0x3c
 1777 09dc 00       		.byte	0
 1778 09dd 2A       		.uleb128 0x2a
 1779 09de 38000000 		.4byte	.LVL10
 1780 09e2 190B0000 		.4byte	0xb19
 1781 09e6 00       		.byte	0
 1782 09e7 22       		.uleb128 0x22
 1783 09e8 10060000 		.4byte	0x610
 1784 09ec F7090000 		.4byte	0x9f7
 1785 09f0 23       		.uleb128 0x23
 1786 09f1 2C000000 		.4byte	0x2c
 1787 09f5 09       		.byte	0x9
 1788 09f6 00       		.byte	0
 1789 09f7 14       		.uleb128 0x14
 1790 09f8 E7090000 		.4byte	0x9e7
 1791 09fc 2B       		.uleb128 0x2b
 1792 09fd 4F050000 		.4byte	.LASF89
 1793 0a01 06       		.byte	0x6
 1794 0a02 71       		.byte	0x71
 1795 0a03 14       		.byte	0x14
 1796 0a04 03       		.byte	0x3
 1797 0a05 210A0000 		.4byte	0xa21
 1798 0a09 2C       		.uleb128 0x2c
 1799 0a0a 747000   		.ascii	"tp\000"
 1800 0a0d 06       		.byte	0x6
 1801 0a0e 71       		.byte	0x71
 1802 0a0f 2C       		.byte	0x2c
 1803 0a10 16020000 		.4byte	0x216
 1804 0a14 2C       		.uleb128 0x2c
 1805 0a15 6D736700 		.ascii	"msg\000"
 1806 0a19 06       		.byte	0x6
 1807 0a1a 71       		.byte	0x71
 1808 0a1b 36       		.byte	0x36
 1809 0a1c DE000000 		.4byte	0xde
 1810 0a20 00       		.byte	0
 1811 0a21 2D       		.uleb128 0x2d
 1812 0a22 65010000 		.4byte	.LASF91
 1813 0a26 06       		.byte	0x6
 1814 0a27 4F       		.byte	0x4f
 1815 0a28 14       		.byte	0x14
 1816 0a29 3F060000 		.4byte	0x63f
 1817 0a2d 03       		.byte	0x3
 1818 0a2e 3E0A0000 		.4byte	0xa3e
 1819 0a32 2C       		.uleb128 0x2c
 1820 0a33 747000   		.ascii	"tp\000"
 1821 0a36 06       		.byte	0x6
 1822 0a37 4F       		.byte	0x4f
 1823 0a38 2E       		.byte	0x2e
 1824 0a39 16020000 		.4byte	0x216
ARM GAS  /tmp/ccsPaZXk.s 			page 33


 1825 0a3d 00       		.byte	0
 1826 0a3e 2E       		.uleb128 0x2e
 1827 0a3f 28050000 		.4byte	.LASF90
 1828 0a43 03       		.byte	0x3
 1829 0a44 8201     		.2byte	0x182
 1830 0a46 14       		.byte	0x14
 1831 0a47 03       		.byte	0x3
 1832 0a48 560A0000 		.4byte	0xa56
 1833 0a4c 18       		.uleb128 0x18
 1834 0a4d E5030000 		.4byte	.LASF88
 1835 0a51 660A0000 		.4byte	0xa66
 1836 0a55 00       		.byte	0
 1837 0a56 22       		.uleb128 0x22
 1838 0a57 10060000 		.4byte	0x610
 1839 0a5b 660A0000 		.4byte	0xa66
 1840 0a5f 23       		.uleb128 0x23
 1841 0a60 2C000000 		.4byte	0x2c
 1842 0a64 0B       		.byte	0xb
 1843 0a65 00       		.byte	0
 1844 0a66 14       		.uleb128 0x14
 1845 0a67 560A0000 		.4byte	0xa56
 1846 0a6b 2F       		.uleb128 0x2f
 1847 0a6c EE030000 		.4byte	.LASF94
 1848 0a70 03       		.byte	0x3
 1849 0a71 7601     		.2byte	0x176
 1850 0a73 14       		.byte	0x14
 1851 0a74 03       		.byte	0x3
 1852 0a75 30       		.uleb128 0x30
 1853 0a76 8A040000 		.4byte	.LASF92
 1854 0a7a 05       		.byte	0x5
 1855 0a7b 6902     		.2byte	0x269
 1856 0a7d 19       		.byte	0x19
 1857 0a7e 16020000 		.4byte	0x216
 1858 0a82 03       		.byte	0x3
 1859 0a83 A10A0000 		.4byte	0xaa1
 1860 0a87 31       		.uleb128 0x31
 1861 0a88 74717000 		.ascii	"tqp\000"
 1862 0a8c 05       		.byte	0x5
 1863 0a8d 6902     		.2byte	0x269
 1864 0a8f 3C       		.byte	0x3c
 1865 0a90 A10A0000 		.4byte	0xaa1
 1866 0a94 32       		.uleb128 0x32
 1867 0a95 747000   		.ascii	"tp\000"
 1868 0a98 05       		.byte	0x5
 1869 0a99 6A02     		.2byte	0x26a
 1870 0a9b 0D       		.byte	0xd
 1871 0a9c 16020000 		.4byte	0x216
 1872 0aa0 00       		.byte	0
 1873 0aa1 0A       		.uleb128 0xa
 1874 0aa2 04       		.byte	0x4
 1875 0aa3 43020000 		.4byte	0x243
 1876 0aa7 2E       		.uleb128 0x2e
 1877 0aa8 50000000 		.4byte	.LASF93
 1878 0aac 05       		.byte	0x5
 1879 0aad 6102     		.2byte	0x261
 1880 0aaf 14       		.byte	0x14
 1881 0ab0 03       		.byte	0x3
ARM GAS  /tmp/ccsPaZXk.s 			page 34


 1882 0ab1 CF0A0000 		.4byte	0xacf
 1883 0ab5 31       		.uleb128 0x31
 1884 0ab6 747000   		.ascii	"tp\000"
 1885 0ab9 05       		.byte	0x5
 1886 0aba 6102     		.2byte	0x261
 1887 0abc 2B       		.byte	0x2b
 1888 0abd 16020000 		.4byte	0x216
 1889 0ac1 31       		.uleb128 0x31
 1890 0ac2 74717000 		.ascii	"tqp\000"
 1891 0ac6 05       		.byte	0x5
 1892 0ac7 6102     		.2byte	0x261
 1893 0ac9 40       		.byte	0x40
 1894 0aca A10A0000 		.4byte	0xaa1
 1895 0ace 00       		.byte	0
 1896 0acf 2F       		.uleb128 0x2f
 1897 0ad0 23010000 		.4byte	.LASF95
 1898 0ad4 04       		.byte	0x4
 1899 0ad5 6A02     		.2byte	0x26a
 1900 0ad7 14       		.byte	0x14
 1901 0ad8 03       		.byte	0x3
 1902 0ad9 2F       		.uleb128 0x2f
 1903 0ada 99000000 		.4byte	.LASF96
 1904 0ade 04       		.byte	0x4
 1905 0adf 5202     		.2byte	0x252
 1906 0ae1 14       		.byte	0x14
 1907 0ae2 03       		.byte	0x3
 1908 0ae3 2E       		.uleb128 0x2e
 1909 0ae4 AF040000 		.4byte	.LASF97
 1910 0ae8 02       		.byte	0x2
 1911 0ae9 0601     		.2byte	0x106
 1912 0aeb 39       		.byte	0x39
 1913 0aec 03       		.byte	0x3
 1914 0aed FF0A0000 		.4byte	0xaff
 1915 0af1 33       		.uleb128 0x33
 1916 0af2 8E010000 		.4byte	.LASF98
 1917 0af6 02       		.byte	0x2
 1918 0af7 0601     		.2byte	0x106
 1919 0af9 50       		.byte	0x50
 1920 0afa 7C000000 		.4byte	0x7c
 1921 0afe 00       		.byte	0
 1922 0aff 34       		.uleb128 0x34
 1923 0b00 CE040000 		.4byte	.LASF99
 1924 0b04 CE040000 		.4byte	.LASF99
 1925 0b08 05       		.byte	0x5
 1926 0b09 E001     		.2byte	0x1e0
 1927 0b0b 08       		.byte	0x8
 1928 0b0c 34       		.uleb128 0x34
 1929 0b0d 23040000 		.4byte	.LASF100
 1930 0b11 23040000 		.4byte	.LASF100
 1931 0b15 05       		.byte	0x5
 1932 0b16 DE01     		.2byte	0x1de
 1933 0b18 08       		.byte	0x8
 1934 0b19 34       		.uleb128 0x34
 1935 0b1a 41040000 		.4byte	.LASF101
 1936 0b1e 41040000 		.4byte	.LASF101
 1937 0b22 05       		.byte	0x5
 1938 0b23 DC01     		.2byte	0x1dc
ARM GAS  /tmp/ccsPaZXk.s 			page 35


 1939 0b25 0D       		.byte	0xd
 1940 0b26 00       		.byte	0
 1941              		.section	.debug_abbrev,"",%progbits
 1942              	.Ldebug_abbrev0:
 1943 0000 01       		.uleb128 0x1
 1944 0001 11       		.uleb128 0x11
 1945 0002 01       		.byte	0x1
 1946 0003 25       		.uleb128 0x25
 1947 0004 0E       		.uleb128 0xe
 1948 0005 13       		.uleb128 0x13
 1949 0006 0B       		.uleb128 0xb
 1950 0007 03       		.uleb128 0x3
 1951 0008 0E       		.uleb128 0xe
 1952 0009 1B       		.uleb128 0x1b
 1953 000a 0E       		.uleb128 0xe
 1954 000b 55       		.uleb128 0x55
 1955 000c 17       		.uleb128 0x17
 1956 000d 11       		.uleb128 0x11
 1957 000e 01       		.uleb128 0x1
 1958 000f 10       		.uleb128 0x10
 1959 0010 17       		.uleb128 0x17
 1960 0011 00       		.byte	0
 1961 0012 00       		.byte	0
 1962 0013 02       		.uleb128 0x2
 1963 0014 24       		.uleb128 0x24
 1964 0015 00       		.byte	0
 1965 0016 0B       		.uleb128 0xb
 1966 0017 0B       		.uleb128 0xb
 1967 0018 3E       		.uleb128 0x3e
 1968 0019 0B       		.uleb128 0xb
 1969 001a 03       		.uleb128 0x3
 1970 001b 08       		.uleb128 0x8
 1971 001c 00       		.byte	0
 1972 001d 00       		.byte	0
 1973 001e 03       		.uleb128 0x3
 1974 001f 24       		.uleb128 0x24
 1975 0020 00       		.byte	0
 1976 0021 0B       		.uleb128 0xb
 1977 0022 0B       		.uleb128 0xb
 1978 0023 3E       		.uleb128 0x3e
 1979 0024 0B       		.uleb128 0xb
 1980 0025 03       		.uleb128 0x3
 1981 0026 0E       		.uleb128 0xe
 1982 0027 00       		.byte	0
 1983 0028 00       		.byte	0
 1984 0029 04       		.uleb128 0x4
 1985 002a 16       		.uleb128 0x16
 1986 002b 00       		.byte	0
 1987 002c 03       		.uleb128 0x3
 1988 002d 0E       		.uleb128 0xe
 1989 002e 3A       		.uleb128 0x3a
 1990 002f 0B       		.uleb128 0xb
 1991 0030 3B       		.uleb128 0x3b
 1992 0031 0B       		.uleb128 0xb
 1993 0032 39       		.uleb128 0x39
 1994 0033 0B       		.uleb128 0xb
 1995 0034 49       		.uleb128 0x49
ARM GAS  /tmp/ccsPaZXk.s 			page 36


 1996 0035 13       		.uleb128 0x13
 1997 0036 00       		.byte	0
 1998 0037 00       		.byte	0
 1999 0038 05       		.uleb128 0x5
 2000 0039 13       		.uleb128 0x13
 2001 003a 01       		.byte	0x1
 2002 003b 03       		.uleb128 0x3
 2003 003c 0E       		.uleb128 0xe
 2004 003d 0B       		.uleb128 0xb
 2005 003e 0B       		.uleb128 0xb
 2006 003f 3A       		.uleb128 0x3a
 2007 0040 0B       		.uleb128 0xb
 2008 0041 3B       		.uleb128 0x3b
 2009 0042 0B       		.uleb128 0xb
 2010 0043 39       		.uleb128 0x39
 2011 0044 0B       		.uleb128 0xb
 2012 0045 01       		.uleb128 0x1
 2013 0046 13       		.uleb128 0x13
 2014 0047 00       		.byte	0
 2015 0048 00       		.byte	0
 2016 0049 06       		.uleb128 0x6
 2017 004a 0D       		.uleb128 0xd
 2018 004b 00       		.byte	0
 2019 004c 03       		.uleb128 0x3
 2020 004d 0E       		.uleb128 0xe
 2021 004e 3A       		.uleb128 0x3a
 2022 004f 0B       		.uleb128 0xb
 2023 0050 3B       		.uleb128 0x3b
 2024 0051 0B       		.uleb128 0xb
 2025 0052 39       		.uleb128 0x39
 2026 0053 0B       		.uleb128 0xb
 2027 0054 49       		.uleb128 0x49
 2028 0055 13       		.uleb128 0x13
 2029 0056 38       		.uleb128 0x38
 2030 0057 0B       		.uleb128 0xb
 2031 0058 00       		.byte	0
 2032 0059 00       		.byte	0
 2033 005a 07       		.uleb128 0x7
 2034 005b 0D       		.uleb128 0xd
 2035 005c 00       		.byte	0
 2036 005d 03       		.uleb128 0x3
 2037 005e 08       		.uleb128 0x8
 2038 005f 3A       		.uleb128 0x3a
 2039 0060 0B       		.uleb128 0xb
 2040 0061 3B       		.uleb128 0x3b
 2041 0062 0B       		.uleb128 0xb
 2042 0063 39       		.uleb128 0x39
 2043 0064 0B       		.uleb128 0xb
 2044 0065 49       		.uleb128 0x49
 2045 0066 13       		.uleb128 0x13
 2046 0067 38       		.uleb128 0x38
 2047 0068 0B       		.uleb128 0xb
 2048 0069 00       		.byte	0
 2049 006a 00       		.byte	0
 2050 006b 08       		.uleb128 0x8
 2051 006c 0D       		.uleb128 0xd
 2052 006d 00       		.byte	0
ARM GAS  /tmp/ccsPaZXk.s 			page 37


 2053 006e 03       		.uleb128 0x3
 2054 006f 08       		.uleb128 0x8
 2055 0070 3A       		.uleb128 0x3a
 2056 0071 0B       		.uleb128 0xb
 2057 0072 3B       		.uleb128 0x3b
 2058 0073 05       		.uleb128 0x5
 2059 0074 39       		.uleb128 0x39
 2060 0075 0B       		.uleb128 0xb
 2061 0076 49       		.uleb128 0x49
 2062 0077 13       		.uleb128 0x13
 2063 0078 38       		.uleb128 0x38
 2064 0079 0B       		.uleb128 0xb
 2065 007a 00       		.byte	0
 2066 007b 00       		.byte	0
 2067 007c 09       		.uleb128 0x9
 2068 007d 0D       		.uleb128 0xd
 2069 007e 00       		.byte	0
 2070 007f 03       		.uleb128 0x3
 2071 0080 0E       		.uleb128 0xe
 2072 0081 3A       		.uleb128 0x3a
 2073 0082 0B       		.uleb128 0xb
 2074 0083 3B       		.uleb128 0x3b
 2075 0084 05       		.uleb128 0x5
 2076 0085 39       		.uleb128 0x39
 2077 0086 0B       		.uleb128 0xb
 2078 0087 49       		.uleb128 0x49
 2079 0088 13       		.uleb128 0x13
 2080 0089 38       		.uleb128 0x38
 2081 008a 0B       		.uleb128 0xb
 2082 008b 00       		.byte	0
 2083 008c 00       		.byte	0
 2084 008d 0A       		.uleb128 0xa
 2085 008e 0F       		.uleb128 0xf
 2086 008f 00       		.byte	0
 2087 0090 0B       		.uleb128 0xb
 2088 0091 0B       		.uleb128 0xb
 2089 0092 49       		.uleb128 0x49
 2090 0093 13       		.uleb128 0x13
 2091 0094 00       		.byte	0
 2092 0095 00       		.byte	0
 2093 0096 0B       		.uleb128 0xb
 2094 0097 13       		.uleb128 0x13
 2095 0098 01       		.byte	0x1
 2096 0099 03       		.uleb128 0x3
 2097 009a 0E       		.uleb128 0xe
 2098 009b 0B       		.uleb128 0xb
 2099 009c 0B       		.uleb128 0xb
 2100 009d 3A       		.uleb128 0x3a
 2101 009e 0B       		.uleb128 0xb
 2102 009f 3B       		.uleb128 0x3b
 2103 00a0 05       		.uleb128 0x5
 2104 00a1 39       		.uleb128 0x39
 2105 00a2 0B       		.uleb128 0xb
 2106 00a3 01       		.uleb128 0x1
 2107 00a4 13       		.uleb128 0x13
 2108 00a5 00       		.byte	0
 2109 00a6 00       		.byte	0
ARM GAS  /tmp/ccsPaZXk.s 			page 38


 2110 00a7 0C       		.uleb128 0xc
 2111 00a8 15       		.uleb128 0x15
 2112 00a9 01       		.byte	0x1
 2113 00aa 27       		.uleb128 0x27
 2114 00ab 19       		.uleb128 0x19
 2115 00ac 01       		.uleb128 0x1
 2116 00ad 13       		.uleb128 0x13
 2117 00ae 00       		.byte	0
 2118 00af 00       		.byte	0
 2119 00b0 0D       		.uleb128 0xd
 2120 00b1 05       		.uleb128 0x5
 2121 00b2 00       		.byte	0
 2122 00b3 49       		.uleb128 0x49
 2123 00b4 13       		.uleb128 0x13
 2124 00b5 00       		.byte	0
 2125 00b6 00       		.byte	0
 2126 00b7 0E       		.uleb128 0xe
 2127 00b8 0F       		.uleb128 0xf
 2128 00b9 00       		.byte	0
 2129 00ba 0B       		.uleb128 0xb
 2130 00bb 0B       		.uleb128 0xb
 2131 00bc 00       		.byte	0
 2132 00bd 00       		.byte	0
 2133 00be 0F       		.uleb128 0xf
 2134 00bf 13       		.uleb128 0x13
 2135 00c0 01       		.byte	0x1
 2136 00c1 0B       		.uleb128 0xb
 2137 00c2 0B       		.uleb128 0xb
 2138 00c3 3A       		.uleb128 0x3a
 2139 00c4 0B       		.uleb128 0xb
 2140 00c5 3B       		.uleb128 0x3b
 2141 00c6 0B       		.uleb128 0xb
 2142 00c7 39       		.uleb128 0x39
 2143 00c8 0B       		.uleb128 0xb
 2144 00c9 01       		.uleb128 0x1
 2145 00ca 13       		.uleb128 0x13
 2146 00cb 00       		.byte	0
 2147 00cc 00       		.byte	0
 2148 00cd 10       		.uleb128 0x10
 2149 00ce 17       		.uleb128 0x17
 2150 00cf 01       		.byte	0x1
 2151 00d0 0B       		.uleb128 0xb
 2152 00d1 0B       		.uleb128 0xb
 2153 00d2 3A       		.uleb128 0x3a
 2154 00d3 0B       		.uleb128 0xb
 2155 00d4 3B       		.uleb128 0x3b
 2156 00d5 0B       		.uleb128 0xb
 2157 00d6 39       		.uleb128 0x39
 2158 00d7 0B       		.uleb128 0xb
 2159 00d8 01       		.uleb128 0x1
 2160 00d9 13       		.uleb128 0x13
 2161 00da 00       		.byte	0
 2162 00db 00       		.byte	0
 2163 00dc 11       		.uleb128 0x11
 2164 00dd 0D       		.uleb128 0xd
 2165 00de 00       		.byte	0
 2166 00df 03       		.uleb128 0x3
ARM GAS  /tmp/ccsPaZXk.s 			page 39


 2167 00e0 0E       		.uleb128 0xe
 2168 00e1 3A       		.uleb128 0x3a
 2169 00e2 0B       		.uleb128 0xb
 2170 00e3 3B       		.uleb128 0x3b
 2171 00e4 0B       		.uleb128 0xb
 2172 00e5 39       		.uleb128 0x39
 2173 00e6 0B       		.uleb128 0xb
 2174 00e7 49       		.uleb128 0x49
 2175 00e8 13       		.uleb128 0x13
 2176 00e9 00       		.byte	0
 2177 00ea 00       		.byte	0
 2178 00eb 12       		.uleb128 0x12
 2179 00ec 0D       		.uleb128 0xd
 2180 00ed 00       		.byte	0
 2181 00ee 03       		.uleb128 0x3
 2182 00ef 0E       		.uleb128 0xe
 2183 00f0 3A       		.uleb128 0x3a
 2184 00f1 0B       		.uleb128 0xb
 2185 00f2 3B       		.uleb128 0x3b
 2186 00f3 05       		.uleb128 0x5
 2187 00f4 39       		.uleb128 0x39
 2188 00f5 0B       		.uleb128 0xb
 2189 00f6 49       		.uleb128 0x49
 2190 00f7 13       		.uleb128 0x13
 2191 00f8 00       		.byte	0
 2192 00f9 00       		.byte	0
 2193 00fa 13       		.uleb128 0x13
 2194 00fb 35       		.uleb128 0x35
 2195 00fc 00       		.byte	0
 2196 00fd 49       		.uleb128 0x49
 2197 00fe 13       		.uleb128 0x13
 2198 00ff 00       		.byte	0
 2199 0100 00       		.byte	0
 2200 0101 14       		.uleb128 0x14
 2201 0102 26       		.uleb128 0x26
 2202 0103 00       		.byte	0
 2203 0104 49       		.uleb128 0x49
 2204 0105 13       		.uleb128 0x13
 2205 0106 00       		.byte	0
 2206 0107 00       		.byte	0
 2207 0108 15       		.uleb128 0x15
 2208 0109 34       		.uleb128 0x34
 2209 010a 00       		.byte	0
 2210 010b 03       		.uleb128 0x3
 2211 010c 08       		.uleb128 0x8
 2212 010d 3A       		.uleb128 0x3a
 2213 010e 0B       		.uleb128 0xb
 2214 010f 3B       		.uleb128 0x3b
 2215 0110 05       		.uleb128 0x5
 2216 0111 39       		.uleb128 0x39
 2217 0112 0B       		.uleb128 0xb
 2218 0113 49       		.uleb128 0x49
 2219 0114 13       		.uleb128 0x13
 2220 0115 3F       		.uleb128 0x3f
 2221 0116 19       		.uleb128 0x19
 2222 0117 3C       		.uleb128 0x3c
 2223 0118 19       		.uleb128 0x19
ARM GAS  /tmp/ccsPaZXk.s 			page 40


 2224 0119 00       		.byte	0
 2225 011a 00       		.byte	0
 2226 011b 16       		.uleb128 0x16
 2227 011c 2E       		.uleb128 0x2e
 2228 011d 01       		.byte	0x1
 2229 011e 3F       		.uleb128 0x3f
 2230 011f 19       		.uleb128 0x19
 2231 0120 03       		.uleb128 0x3
 2232 0121 0E       		.uleb128 0xe
 2233 0122 3A       		.uleb128 0x3a
 2234 0123 0B       		.uleb128 0xb
 2235 0124 3B       		.uleb128 0x3b
 2236 0125 0B       		.uleb128 0xb
 2237 0126 39       		.uleb128 0x39
 2238 0127 0B       		.uleb128 0xb
 2239 0128 27       		.uleb128 0x27
 2240 0129 19       		.uleb128 0x19
 2241 012a 11       		.uleb128 0x11
 2242 012b 01       		.uleb128 0x1
 2243 012c 12       		.uleb128 0x12
 2244 012d 06       		.uleb128 0x6
 2245 012e 40       		.uleb128 0x40
 2246 012f 18       		.uleb128 0x18
 2247 0130 9742     		.uleb128 0x2117
 2248 0132 19       		.uleb128 0x19
 2249 0133 01       		.uleb128 0x1
 2250 0134 13       		.uleb128 0x13
 2251 0135 00       		.byte	0
 2252 0136 00       		.byte	0
 2253 0137 17       		.uleb128 0x17
 2254 0138 05       		.uleb128 0x5
 2255 0139 00       		.byte	0
 2256 013a 03       		.uleb128 0x3
 2257 013b 08       		.uleb128 0x8
 2258 013c 3A       		.uleb128 0x3a
 2259 013d 0B       		.uleb128 0xb
 2260 013e 3B       		.uleb128 0x3b
 2261 013f 0B       		.uleb128 0xb
 2262 0140 39       		.uleb128 0x39
 2263 0141 0B       		.uleb128 0xb
 2264 0142 49       		.uleb128 0x49
 2265 0143 13       		.uleb128 0x13
 2266 0144 02       		.uleb128 0x2
 2267 0145 17       		.uleb128 0x17
 2268 0146 B742     		.uleb128 0x2137
 2269 0148 17       		.uleb128 0x17
 2270 0149 00       		.byte	0
 2271 014a 00       		.byte	0
 2272 014b 18       		.uleb128 0x18
 2273 014c 34       		.uleb128 0x34
 2274 014d 00       		.byte	0
 2275 014e 03       		.uleb128 0x3
 2276 014f 0E       		.uleb128 0xe
 2277 0150 49       		.uleb128 0x49
 2278 0151 13       		.uleb128 0x13
 2279 0152 34       		.uleb128 0x34
 2280 0153 19       		.uleb128 0x19
ARM GAS  /tmp/ccsPaZXk.s 			page 41


 2281 0154 00       		.byte	0
 2282 0155 00       		.byte	0
 2283 0156 19       		.uleb128 0x19
 2284 0157 1D       		.uleb128 0x1d
 2285 0158 01       		.byte	0x1
 2286 0159 31       		.uleb128 0x31
 2287 015a 13       		.uleb128 0x13
 2288 015b 52       		.uleb128 0x52
 2289 015c 01       		.uleb128 0x1
 2290 015d B842     		.uleb128 0x2138
 2291 015f 0B       		.uleb128 0xb
 2292 0160 55       		.uleb128 0x55
 2293 0161 17       		.uleb128 0x17
 2294 0162 58       		.uleb128 0x58
 2295 0163 0B       		.uleb128 0xb
 2296 0164 59       		.uleb128 0x59
 2297 0165 0B       		.uleb128 0xb
 2298 0166 57       		.uleb128 0x57
 2299 0167 0B       		.uleb128 0xb
 2300 0168 01       		.uleb128 0x1
 2301 0169 13       		.uleb128 0x13
 2302 016a 00       		.byte	0
 2303 016b 00       		.byte	0
 2304 016c 1A       		.uleb128 0x1a
 2305 016d 1D       		.uleb128 0x1d
 2306 016e 01       		.byte	0x1
 2307 016f 31       		.uleb128 0x31
 2308 0170 13       		.uleb128 0x13
 2309 0171 52       		.uleb128 0x52
 2310 0172 01       		.uleb128 0x1
 2311 0173 B842     		.uleb128 0x2138
 2312 0175 0B       		.uleb128 0xb
 2313 0176 55       		.uleb128 0x55
 2314 0177 17       		.uleb128 0x17
 2315 0178 58       		.uleb128 0x58
 2316 0179 0B       		.uleb128 0xb
 2317 017a 59       		.uleb128 0x59
 2318 017b 05       		.uleb128 0x5
 2319 017c 57       		.uleb128 0x57
 2320 017d 0B       		.uleb128 0xb
 2321 017e 00       		.byte	0
 2322 017f 00       		.byte	0
 2323 0180 1B       		.uleb128 0x1b
 2324 0181 05       		.uleb128 0x5
 2325 0182 00       		.byte	0
 2326 0183 31       		.uleb128 0x31
 2327 0184 13       		.uleb128 0x13
 2328 0185 02       		.uleb128 0x2
 2329 0186 17       		.uleb128 0x17
 2330 0187 B742     		.uleb128 0x2137
 2331 0189 17       		.uleb128 0x17
 2332 018a 00       		.byte	0
 2333 018b 00       		.byte	0
 2334 018c 1C       		.uleb128 0x1c
 2335 018d 1D       		.uleb128 0x1d
 2336 018e 01       		.byte	0x1
 2337 018f 31       		.uleb128 0x31
ARM GAS  /tmp/ccsPaZXk.s 			page 42


 2338 0190 13       		.uleb128 0x13
 2339 0191 52       		.uleb128 0x52
 2340 0192 01       		.uleb128 0x1
 2341 0193 B842     		.uleb128 0x2138
 2342 0195 0B       		.uleb128 0xb
 2343 0196 11       		.uleb128 0x11
 2344 0197 01       		.uleb128 0x1
 2345 0198 12       		.uleb128 0x12
 2346 0199 06       		.uleb128 0x6
 2347 019a 58       		.uleb128 0x58
 2348 019b 0B       		.uleb128 0xb
 2349 019c 59       		.uleb128 0x59
 2350 019d 0B       		.uleb128 0xb
 2351 019e 57       		.uleb128 0x57
 2352 019f 0B       		.uleb128 0xb
 2353 01a0 01       		.uleb128 0x1
 2354 01a1 13       		.uleb128 0x13
 2355 01a2 00       		.byte	0
 2356 01a3 00       		.byte	0
 2357 01a4 1D       		.uleb128 0x1d
 2358 01a5 898201   		.uleb128 0x4109
 2359 01a8 01       		.byte	0x1
 2360 01a9 11       		.uleb128 0x11
 2361 01aa 01       		.uleb128 0x1
 2362 01ab 31       		.uleb128 0x31
 2363 01ac 13       		.uleb128 0x13
 2364 01ad 00       		.byte	0
 2365 01ae 00       		.byte	0
 2366 01af 1E       		.uleb128 0x1e
 2367 01b0 8A8201   		.uleb128 0x410a
 2368 01b3 00       		.byte	0
 2369 01b4 02       		.uleb128 0x2
 2370 01b5 18       		.uleb128 0x18
 2371 01b6 9142     		.uleb128 0x2111
 2372 01b8 18       		.uleb128 0x18
 2373 01b9 00       		.byte	0
 2374 01ba 00       		.byte	0
 2375 01bb 1F       		.uleb128 0x1f
 2376 01bc 1D       		.uleb128 0x1d
 2377 01bd 01       		.byte	0x1
 2378 01be 31       		.uleb128 0x31
 2379 01bf 13       		.uleb128 0x13
 2380 01c0 52       		.uleb128 0x52
 2381 01c1 01       		.uleb128 0x1
 2382 01c2 B842     		.uleb128 0x2138
 2383 01c4 0B       		.uleb128 0xb
 2384 01c5 55       		.uleb128 0x55
 2385 01c6 17       		.uleb128 0x17
 2386 01c7 58       		.uleb128 0x58
 2387 01c8 0B       		.uleb128 0xb
 2388 01c9 59       		.uleb128 0x59
 2389 01ca 0B       		.uleb128 0xb
 2390 01cb 57       		.uleb128 0x57
 2391 01cc 0B       		.uleb128 0xb
 2392 01cd 00       		.byte	0
 2393 01ce 00       		.byte	0
 2394 01cf 20       		.uleb128 0x20
ARM GAS  /tmp/ccsPaZXk.s 			page 43


 2395 01d0 0B       		.uleb128 0xb
 2396 01d1 01       		.byte	0x1
 2397 01d2 55       		.uleb128 0x55
 2398 01d3 17       		.uleb128 0x17
 2399 01d4 00       		.byte	0
 2400 01d5 00       		.byte	0
 2401 01d6 21       		.uleb128 0x21
 2402 01d7 1D       		.uleb128 0x1d
 2403 01d8 01       		.byte	0x1
 2404 01d9 31       		.uleb128 0x31
 2405 01da 13       		.uleb128 0x13
 2406 01db 52       		.uleb128 0x52
 2407 01dc 01       		.uleb128 0x1
 2408 01dd B842     		.uleb128 0x2138
 2409 01df 0B       		.uleb128 0xb
 2410 01e0 11       		.uleb128 0x11
 2411 01e1 01       		.uleb128 0x1
 2412 01e2 12       		.uleb128 0x12
 2413 01e3 06       		.uleb128 0x6
 2414 01e4 58       		.uleb128 0x58
 2415 01e5 0B       		.uleb128 0xb
 2416 01e6 59       		.uleb128 0x59
 2417 01e7 05       		.uleb128 0x5
 2418 01e8 57       		.uleb128 0x57
 2419 01e9 0B       		.uleb128 0xb
 2420 01ea 00       		.byte	0
 2421 01eb 00       		.byte	0
 2422 01ec 22       		.uleb128 0x22
 2423 01ed 01       		.uleb128 0x1
 2424 01ee 01       		.byte	0x1
 2425 01ef 49       		.uleb128 0x49
 2426 01f0 13       		.uleb128 0x13
 2427 01f1 01       		.uleb128 0x1
 2428 01f2 13       		.uleb128 0x13
 2429 01f3 00       		.byte	0
 2430 01f4 00       		.byte	0
 2431 01f5 23       		.uleb128 0x23
 2432 01f6 21       		.uleb128 0x21
 2433 01f7 00       		.byte	0
 2434 01f8 49       		.uleb128 0x49
 2435 01f9 13       		.uleb128 0x13
 2436 01fa 2F       		.uleb128 0x2f
 2437 01fb 0B       		.uleb128 0xb
 2438 01fc 00       		.byte	0
 2439 01fd 00       		.byte	0
 2440 01fe 24       		.uleb128 0x24
 2441 01ff 2E       		.uleb128 0x2e
 2442 0200 01       		.byte	0x1
 2443 0201 3F       		.uleb128 0x3f
 2444 0202 19       		.uleb128 0x19
 2445 0203 03       		.uleb128 0x3
 2446 0204 0E       		.uleb128 0xe
 2447 0205 3A       		.uleb128 0x3a
 2448 0206 0B       		.uleb128 0xb
 2449 0207 3B       		.uleb128 0x3b
 2450 0208 0B       		.uleb128 0xb
 2451 0209 39       		.uleb128 0x39
ARM GAS  /tmp/ccsPaZXk.s 			page 44


 2452 020a 0B       		.uleb128 0xb
 2453 020b 27       		.uleb128 0x27
 2454 020c 19       		.uleb128 0x19
 2455 020d 49       		.uleb128 0x49
 2456 020e 13       		.uleb128 0x13
 2457 020f 11       		.uleb128 0x11
 2458 0210 01       		.uleb128 0x1
 2459 0211 12       		.uleb128 0x12
 2460 0212 06       		.uleb128 0x6
 2461 0213 40       		.uleb128 0x40
 2462 0214 18       		.uleb128 0x18
 2463 0215 9742     		.uleb128 0x2117
 2464 0217 19       		.uleb128 0x19
 2465 0218 01       		.uleb128 0x1
 2466 0219 13       		.uleb128 0x13
 2467 021a 00       		.byte	0
 2468 021b 00       		.byte	0
 2469 021c 25       		.uleb128 0x25
 2470 021d 34       		.uleb128 0x34
 2471 021e 00       		.byte	0
 2472 021f 03       		.uleb128 0x3
 2473 0220 08       		.uleb128 0x8
 2474 0221 3A       		.uleb128 0x3a
 2475 0222 0B       		.uleb128 0xb
 2476 0223 3B       		.uleb128 0x3b
 2477 0224 0B       		.uleb128 0xb
 2478 0225 39       		.uleb128 0x39
 2479 0226 0B       		.uleb128 0xb
 2480 0227 49       		.uleb128 0x49
 2481 0228 13       		.uleb128 0x13
 2482 0229 00       		.byte	0
 2483 022a 00       		.byte	0
 2484 022b 26       		.uleb128 0x26
 2485 022c 05       		.uleb128 0x5
 2486 022d 00       		.byte	0
 2487 022e 31       		.uleb128 0x31
 2488 022f 13       		.uleb128 0x13
 2489 0230 00       		.byte	0
 2490 0231 00       		.byte	0
 2491 0232 27       		.uleb128 0x27
 2492 0233 34       		.uleb128 0x34
 2493 0234 00       		.byte	0
 2494 0235 31       		.uleb128 0x31
 2495 0236 13       		.uleb128 0x13
 2496 0237 00       		.byte	0
 2497 0238 00       		.byte	0
 2498 0239 28       		.uleb128 0x28
 2499 023a 34       		.uleb128 0x34
 2500 023b 00       		.byte	0
 2501 023c 03       		.uleb128 0x3
 2502 023d 08       		.uleb128 0x8
 2503 023e 3A       		.uleb128 0x3a
 2504 023f 0B       		.uleb128 0xb
 2505 0240 3B       		.uleb128 0x3b
 2506 0241 0B       		.uleb128 0xb
 2507 0242 39       		.uleb128 0x39
 2508 0243 0B       		.uleb128 0xb
ARM GAS  /tmp/ccsPaZXk.s 			page 45


 2509 0244 49       		.uleb128 0x49
 2510 0245 13       		.uleb128 0x13
 2511 0246 02       		.uleb128 0x2
 2512 0247 17       		.uleb128 0x17
 2513 0248 B742     		.uleb128 0x2137
 2514 024a 17       		.uleb128 0x17
 2515 024b 00       		.byte	0
 2516 024c 00       		.byte	0
 2517 024d 29       		.uleb128 0x29
 2518 024e 898201   		.uleb128 0x4109
 2519 0251 01       		.byte	0x1
 2520 0252 11       		.uleb128 0x11
 2521 0253 01       		.uleb128 0x1
 2522 0254 31       		.uleb128 0x31
 2523 0255 13       		.uleb128 0x13
 2524 0256 01       		.uleb128 0x1
 2525 0257 13       		.uleb128 0x13
 2526 0258 00       		.byte	0
 2527 0259 00       		.byte	0
 2528 025a 2A       		.uleb128 0x2a
 2529 025b 898201   		.uleb128 0x4109
 2530 025e 00       		.byte	0
 2531 025f 11       		.uleb128 0x11
 2532 0260 01       		.uleb128 0x1
 2533 0261 31       		.uleb128 0x31
 2534 0262 13       		.uleb128 0x13
 2535 0263 00       		.byte	0
 2536 0264 00       		.byte	0
 2537 0265 2B       		.uleb128 0x2b
 2538 0266 2E       		.uleb128 0x2e
 2539 0267 01       		.byte	0x1
 2540 0268 03       		.uleb128 0x3
 2541 0269 0E       		.uleb128 0xe
 2542 026a 3A       		.uleb128 0x3a
 2543 026b 0B       		.uleb128 0xb
 2544 026c 3B       		.uleb128 0x3b
 2545 026d 0B       		.uleb128 0xb
 2546 026e 39       		.uleb128 0x39
 2547 026f 0B       		.uleb128 0xb
 2548 0270 27       		.uleb128 0x27
 2549 0271 19       		.uleb128 0x19
 2550 0272 20       		.uleb128 0x20
 2551 0273 0B       		.uleb128 0xb
 2552 0274 01       		.uleb128 0x1
 2553 0275 13       		.uleb128 0x13
 2554 0276 00       		.byte	0
 2555 0277 00       		.byte	0
 2556 0278 2C       		.uleb128 0x2c
 2557 0279 05       		.uleb128 0x5
 2558 027a 00       		.byte	0
 2559 027b 03       		.uleb128 0x3
 2560 027c 08       		.uleb128 0x8
 2561 027d 3A       		.uleb128 0x3a
 2562 027e 0B       		.uleb128 0xb
 2563 027f 3B       		.uleb128 0x3b
 2564 0280 0B       		.uleb128 0xb
 2565 0281 39       		.uleb128 0x39
ARM GAS  /tmp/ccsPaZXk.s 			page 46


 2566 0282 0B       		.uleb128 0xb
 2567 0283 49       		.uleb128 0x49
 2568 0284 13       		.uleb128 0x13
 2569 0285 00       		.byte	0
 2570 0286 00       		.byte	0
 2571 0287 2D       		.uleb128 0x2d
 2572 0288 2E       		.uleb128 0x2e
 2573 0289 01       		.byte	0x1
 2574 028a 03       		.uleb128 0x3
 2575 028b 0E       		.uleb128 0xe
 2576 028c 3A       		.uleb128 0x3a
 2577 028d 0B       		.uleb128 0xb
 2578 028e 3B       		.uleb128 0x3b
 2579 028f 0B       		.uleb128 0xb
 2580 0290 39       		.uleb128 0x39
 2581 0291 0B       		.uleb128 0xb
 2582 0292 27       		.uleb128 0x27
 2583 0293 19       		.uleb128 0x19
 2584 0294 49       		.uleb128 0x49
 2585 0295 13       		.uleb128 0x13
 2586 0296 20       		.uleb128 0x20
 2587 0297 0B       		.uleb128 0xb
 2588 0298 01       		.uleb128 0x1
 2589 0299 13       		.uleb128 0x13
 2590 029a 00       		.byte	0
 2591 029b 00       		.byte	0
 2592 029c 2E       		.uleb128 0x2e
 2593 029d 2E       		.uleb128 0x2e
 2594 029e 01       		.byte	0x1
 2595 029f 03       		.uleb128 0x3
 2596 02a0 0E       		.uleb128 0xe
 2597 02a1 3A       		.uleb128 0x3a
 2598 02a2 0B       		.uleb128 0xb
 2599 02a3 3B       		.uleb128 0x3b
 2600 02a4 05       		.uleb128 0x5
 2601 02a5 39       		.uleb128 0x39
 2602 02a6 0B       		.uleb128 0xb
 2603 02a7 27       		.uleb128 0x27
 2604 02a8 19       		.uleb128 0x19
 2605 02a9 20       		.uleb128 0x20
 2606 02aa 0B       		.uleb128 0xb
 2607 02ab 01       		.uleb128 0x1
 2608 02ac 13       		.uleb128 0x13
 2609 02ad 00       		.byte	0
 2610 02ae 00       		.byte	0
 2611 02af 2F       		.uleb128 0x2f
 2612 02b0 2E       		.uleb128 0x2e
 2613 02b1 00       		.byte	0
 2614 02b2 03       		.uleb128 0x3
 2615 02b3 0E       		.uleb128 0xe
 2616 02b4 3A       		.uleb128 0x3a
 2617 02b5 0B       		.uleb128 0xb
 2618 02b6 3B       		.uleb128 0x3b
 2619 02b7 05       		.uleb128 0x5
 2620 02b8 39       		.uleb128 0x39
 2621 02b9 0B       		.uleb128 0xb
 2622 02ba 27       		.uleb128 0x27
ARM GAS  /tmp/ccsPaZXk.s 			page 47


 2623 02bb 19       		.uleb128 0x19
 2624 02bc 20       		.uleb128 0x20
 2625 02bd 0B       		.uleb128 0xb
 2626 02be 00       		.byte	0
 2627 02bf 00       		.byte	0
 2628 02c0 30       		.uleb128 0x30
 2629 02c1 2E       		.uleb128 0x2e
 2630 02c2 01       		.byte	0x1
 2631 02c3 03       		.uleb128 0x3
 2632 02c4 0E       		.uleb128 0xe
 2633 02c5 3A       		.uleb128 0x3a
 2634 02c6 0B       		.uleb128 0xb
 2635 02c7 3B       		.uleb128 0x3b
 2636 02c8 05       		.uleb128 0x5
 2637 02c9 39       		.uleb128 0x39
 2638 02ca 0B       		.uleb128 0xb
 2639 02cb 27       		.uleb128 0x27
 2640 02cc 19       		.uleb128 0x19
 2641 02cd 49       		.uleb128 0x49
 2642 02ce 13       		.uleb128 0x13
 2643 02cf 20       		.uleb128 0x20
 2644 02d0 0B       		.uleb128 0xb
 2645 02d1 01       		.uleb128 0x1
 2646 02d2 13       		.uleb128 0x13
 2647 02d3 00       		.byte	0
 2648 02d4 00       		.byte	0
 2649 02d5 31       		.uleb128 0x31
 2650 02d6 05       		.uleb128 0x5
 2651 02d7 00       		.byte	0
 2652 02d8 03       		.uleb128 0x3
 2653 02d9 08       		.uleb128 0x8
 2654 02da 3A       		.uleb128 0x3a
 2655 02db 0B       		.uleb128 0xb
 2656 02dc 3B       		.uleb128 0x3b
 2657 02dd 05       		.uleb128 0x5
 2658 02de 39       		.uleb128 0x39
 2659 02df 0B       		.uleb128 0xb
 2660 02e0 49       		.uleb128 0x49
 2661 02e1 13       		.uleb128 0x13
 2662 02e2 00       		.byte	0
 2663 02e3 00       		.byte	0
 2664 02e4 32       		.uleb128 0x32
 2665 02e5 34       		.uleb128 0x34
 2666 02e6 00       		.byte	0
 2667 02e7 03       		.uleb128 0x3
 2668 02e8 08       		.uleb128 0x8
 2669 02e9 3A       		.uleb128 0x3a
 2670 02ea 0B       		.uleb128 0xb
 2671 02eb 3B       		.uleb128 0x3b
 2672 02ec 05       		.uleb128 0x5
 2673 02ed 39       		.uleb128 0x39
 2674 02ee 0B       		.uleb128 0xb
 2675 02ef 49       		.uleb128 0x49
 2676 02f0 13       		.uleb128 0x13
 2677 02f1 00       		.byte	0
 2678 02f2 00       		.byte	0
 2679 02f3 33       		.uleb128 0x33
ARM GAS  /tmp/ccsPaZXk.s 			page 48


 2680 02f4 05       		.uleb128 0x5
 2681 02f5 00       		.byte	0
 2682 02f6 03       		.uleb128 0x3
 2683 02f7 0E       		.uleb128 0xe
 2684 02f8 3A       		.uleb128 0x3a
 2685 02f9 0B       		.uleb128 0xb
 2686 02fa 3B       		.uleb128 0x3b
 2687 02fb 05       		.uleb128 0x5
 2688 02fc 39       		.uleb128 0x39
 2689 02fd 0B       		.uleb128 0xb
 2690 02fe 49       		.uleb128 0x49
 2691 02ff 13       		.uleb128 0x13
 2692 0300 00       		.byte	0
 2693 0301 00       		.byte	0
 2694 0302 34       		.uleb128 0x34
 2695 0303 2E       		.uleb128 0x2e
 2696 0304 00       		.byte	0
 2697 0305 3F       		.uleb128 0x3f
 2698 0306 19       		.uleb128 0x19
 2699 0307 3C       		.uleb128 0x3c
 2700 0308 19       		.uleb128 0x19
 2701 0309 6E       		.uleb128 0x6e
 2702 030a 0E       		.uleb128 0xe
 2703 030b 03       		.uleb128 0x3
 2704 030c 0E       		.uleb128 0xe
 2705 030d 3A       		.uleb128 0x3a
 2706 030e 0B       		.uleb128 0xb
 2707 030f 3B       		.uleb128 0x3b
 2708 0310 05       		.uleb128 0x5
 2709 0311 39       		.uleb128 0x39
 2710 0312 0B       		.uleb128 0xb
 2711 0313 00       		.byte	0
 2712 0314 00       		.byte	0
 2713 0315 00       		.byte	0
 2714              		.section	.debug_loc,"",%progbits
 2715              	.Ldebug_loc0:
 2716              	.LVUS10:
 2717 0000 00       		.uleb128 0
 2718 0001 00       		.uleb128 .LVU133
 2719 0002 00       		.uleb128 .LVU133
 2720 0003 00       		.uleb128 0
 2721              	.LLST10:
 2722 0004 00000000 		.4byte	.LVL21
 2723 0008 0B000000 		.4byte	.LVL23-1
 2724 000c 0100     		.2byte	0x1
 2725 000e 50       		.byte	0x50
 2726 000f 0B000000 		.4byte	.LVL23-1
 2727 0013 14000000 		.4byte	.LFE248
 2728 0017 0400     		.2byte	0x4
 2729 0019 F3       		.byte	0xf3
 2730 001a 01       		.uleb128 0x1
 2731 001b 50       		.byte	0x50
 2732 001c 9F       		.byte	0x9f
 2733 001d 00000000 		.4byte	0
 2734 0021 00000000 		.4byte	0
 2735              	.LVUS11:
 2736 0025 00       		.uleb128 0
ARM GAS  /tmp/ccsPaZXk.s 			page 49


 2737 0026 00       		.uleb128 .LVU133
 2738 0027 00       		.uleb128 .LVU133
 2739 0028 00       		.uleb128 0
 2740              	.LLST11:
 2741 0029 00000000 		.4byte	.LVL21
 2742 002d 0B000000 		.4byte	.LVL23-1
 2743 0031 0100     		.2byte	0x1
 2744 0033 51       		.byte	0x51
 2745 0034 0B000000 		.4byte	.LVL23-1
 2746 0038 14000000 		.4byte	.LFE248
 2747 003c 0400     		.2byte	0x4
 2748 003e F3       		.byte	0xf3
 2749 003f 01       		.uleb128 0x1
 2750 0040 51       		.byte	0x51
 2751 0041 9F       		.byte	0x9f
 2752 0042 00000000 		.4byte	0
 2753 0046 00000000 		.4byte	0
 2754              	.LVUS12:
 2755 004a 06       		.uleb128 .LVU119
 2756 004b 00       		.uleb128 .LVU123
 2757              	.LLST12:
 2758 004c 00000000 		.4byte	.LVL21
 2759 0050 08000000 		.4byte	.LVL22
 2760 0054 0300     		.2byte	0x3
 2761 0056 08       		.byte	0x8
 2762 0057 20       		.byte	0x20
 2763 0058 9F       		.byte	0x9f
 2764 0059 00000000 		.4byte	0
 2765 005d 00000000 		.4byte	0
 2766              	.LVUS13:
 2767 0061 07       		.uleb128 .LVU130
 2768 0062 00       		.uleb128 .LVU133
 2769 0063 00       		.uleb128 .LVU133
 2770 0064 00       		.uleb128 .LVU133
 2771              	.LLST13:
 2772 0065 08000000 		.4byte	.LVL22
 2773 0069 0B000000 		.4byte	.LVL23-1
 2774 006d 0100     		.2byte	0x1
 2775 006f 51       		.byte	0x51
 2776 0070 0B000000 		.4byte	.LVL23-1
 2777 0074 0C000000 		.4byte	.LVL23
 2778 0078 0400     		.2byte	0x4
 2779 007a F3       		.byte	0xf3
 2780 007b 01       		.uleb128 0x1
 2781 007c 51       		.byte	0x51
 2782 007d 9F       		.byte	0x9f
 2783 007e 00000000 		.4byte	0
 2784 0082 00000000 		.4byte	0
 2785              	.LVUS14:
 2786 0086 07       		.uleb128 .LVU130
 2787 0087 00       		.uleb128 .LVU133
 2788 0088 00       		.uleb128 .LVU133
 2789 0089 00       		.uleb128 .LVU133
 2790              	.LLST14:
 2791 008a 08000000 		.4byte	.LVL22
 2792 008e 0B000000 		.4byte	.LVL23-1
 2793 0092 0100     		.2byte	0x1
ARM GAS  /tmp/ccsPaZXk.s 			page 50


 2794 0094 50       		.byte	0x50
 2795 0095 0B000000 		.4byte	.LVL23-1
 2796 0099 0C000000 		.4byte	.LVL23
 2797 009d 0400     		.2byte	0x4
 2798 009f F3       		.byte	0xf3
 2799 00a0 01       		.uleb128 0x1
 2800 00a1 50       		.byte	0x50
 2801 00a2 9F       		.byte	0x9f
 2802 00a3 00000000 		.4byte	0
 2803 00a7 00000000 		.4byte	0
 2804              	.LVUS15:
 2805 00ab 0B       		.uleb128 .LVU144
 2806 00ac 00       		.uleb128 .LVU146
 2807              	.LLST15:
 2808 00ad 0C000000 		.4byte	.LVL23
 2809 00b1 12000000 		.4byte	.LVL24
 2810 00b5 0200     		.2byte	0x2
 2811 00b7 30       		.byte	0x30
 2812 00b8 9F       		.byte	0x9f
 2813 00b9 00000000 		.4byte	0
 2814 00bd 00000000 		.4byte	0
 2815              	.LVUS7:
 2816 00c1 07       		.uleb128 .LVU65
 2817 00c2 00       		.uleb128 .LVU69
 2818              	.LLST7:
 2819 00c3 00000000 		.4byte	.LVL11
 2820 00c7 08000000 		.4byte	.LVL12
 2821 00cb 0300     		.2byte	0x3
 2822 00cd 08       		.byte	0x8
 2823 00ce 20       		.byte	0x20
 2824 00cf 9F       		.byte	0x9f
 2825 00d0 00000000 		.4byte	0
 2826 00d4 00000000 		.4byte	0
 2827              	.LVUS8:
 2828 00d8 00       		.uleb128 .LVU74
 2829 00d9 00       		.uleb128 .LVU78
 2830              	.LLST8:
 2831 00da 0C000000 		.4byte	.LVL13
 2832 00de 12000000 		.4byte	.LVL14
 2833 00e2 0100     		.2byte	0x1
 2834 00e4 52       		.byte	0x52
 2835 00e5 00000000 		.4byte	0
 2836 00e9 00000000 		.4byte	0
 2837              	.LVUS9:
 2838 00ed 0A       		.uleb128 .LVU104
 2839 00ee 00       		.uleb128 .LVU106
 2840              	.LLST9:
 2841 00ef 24000000 		.4byte	.LVL18
 2842 00f3 28000000 		.4byte	.LVL19
 2843 00f7 0200     		.2byte	0x2
 2844 00f9 30       		.byte	0x30
 2845 00fa 9F       		.byte	0x9f
 2846 00fb 00000000 		.4byte	0
 2847 00ff 00000000 		.4byte	0
 2848              	.LVUS0:
 2849 0103 00       		.uleb128 0
 2850 0104 00       		.uleb128 .LVU37
ARM GAS  /tmp/ccsPaZXk.s 			page 51


 2851 0105 00       		.uleb128 .LVU37
 2852 0106 00       		.uleb128 .LVU55
 2853 0107 00       		.uleb128 .LVU55
 2854 0108 00       		.uleb128 .LVU57
 2855 0109 00       		.uleb128 .LVU57
 2856 010a 00       		.uleb128 0
 2857              	.LLST0:
 2858 010b 00000000 		.4byte	.LVL0
 2859 010f 24000000 		.4byte	.LVL5
 2860 0113 0100     		.2byte	0x1
 2861 0115 50       		.byte	0x50
 2862 0116 24000000 		.4byte	.LVL5
 2863 011a 34000000 		.4byte	.LVL9
 2864 011e 0300     		.2byte	0x3
 2865 0120 75       		.byte	0x75
 2866 0121 54       		.sleb128 -44
 2867 0122 9F       		.byte	0x9f
 2868 0123 34000000 		.4byte	.LVL9
 2869 0127 37000000 		.4byte	.LVL10-1
 2870 012b 0100     		.2byte	0x1
 2871 012d 50       		.byte	0x50
 2872 012e 37000000 		.4byte	.LVL10-1
 2873 0132 40000000 		.4byte	.LFE246
 2874 0136 0300     		.2byte	0x3
 2875 0138 75       		.byte	0x75
 2876 0139 54       		.sleb128 -44
 2877 013a 9F       		.byte	0x9f
 2878 013b 00000000 		.4byte	0
 2879 013f 00000000 		.4byte	0
 2880              	.LVUS1:
 2881 0143 00       		.uleb128 0
 2882 0144 00       		.uleb128 .LVU37
 2883 0145 00       		.uleb128 .LVU37
 2884 0146 00       		.uleb128 .LVU40
 2885 0147 00       		.uleb128 .LVU40
 2886 0148 00       		.uleb128 .LVU55
 2887 0149 00       		.uleb128 .LVU55
 2888 014a 00       		.uleb128 .LVU57
 2889 014b 00       		.uleb128 .LVU57
 2890 014c 00       		.uleb128 0
 2891              	.LLST1:
 2892 014d 00000000 		.4byte	.LVL0
 2893 0151 24000000 		.4byte	.LVL5
 2894 0155 0100     		.2byte	0x1
 2895 0157 51       		.byte	0x51
 2896 0158 24000000 		.4byte	.LVL5
 2897 015c 2C000000 		.4byte	.LVL7
 2898 0160 0400     		.2byte	0x4
 2899 0162 F3       		.byte	0xf3
 2900 0163 01       		.uleb128 0x1
 2901 0164 51       		.byte	0x51
 2902 0165 9F       		.byte	0x9f
 2903 0166 2C000000 		.4byte	.LVL7
 2904 016a 34000000 		.4byte	.LVL9
 2905 016e 0100     		.2byte	0x1
 2906 0170 50       		.byte	0x50
 2907 0171 34000000 		.4byte	.LVL9
ARM GAS  /tmp/ccsPaZXk.s 			page 52


 2908 0175 37000000 		.4byte	.LVL10-1
 2909 0179 0100     		.2byte	0x1
 2910 017b 51       		.byte	0x51
 2911 017c 37000000 		.4byte	.LVL10-1
 2912 0180 40000000 		.4byte	.LFE246
 2913 0184 0400     		.2byte	0x4
 2914 0186 F3       		.byte	0xf3
 2915 0187 01       		.uleb128 0x1
 2916 0188 51       		.byte	0x51
 2917 0189 9F       		.byte	0x9f
 2918 018a 00000000 		.4byte	0
 2919 018e 00000000 		.4byte	0
 2920              	.LVUS2:
 2921 0192 00       		.uleb128 .LVU6
 2922 0193 00       		.uleb128 0
 2923              	.LLST2:
 2924 0194 08000000 		.4byte	.LVL1
 2925 0198 40000000 		.4byte	.LFE246
 2926 019c 0100     		.2byte	0x1
 2927 019e 54       		.byte	0x54
 2928 019f 00000000 		.4byte	0
 2929 01a3 00000000 		.4byte	0
 2930              	.LVUS3:
 2931 01a7 08       		.uleb128 .LVU14
 2932 01a8 00       		.uleb128 .LVU16
 2933              	.LLST3:
 2934 01a9 08000000 		.4byte	.LVL1
 2935 01ad 0C000000 		.4byte	.LVL2
 2936 01b1 0300     		.2byte	0x3
 2937 01b3 08       		.byte	0x8
 2938 01b4 20       		.byte	0x20
 2939 01b5 9F       		.byte	0x9f
 2940 01b6 00000000 		.4byte	0
 2941 01ba 00000000 		.4byte	0
 2942              	.LVUS4:
 2943 01be 01       		.uleb128 .LVU26
 2944 01bf 00       		.uleb128 .LVU34
 2945              	.LLST4:
 2946 01c0 18000000 		.4byte	.LVL3
 2947 01c4 20000000 		.4byte	.LVL4
 2948 01c8 0300     		.2byte	0x3
 2949 01ca 73       		.byte	0x73
 2950 01cb 2C       		.sleb128 44
 2951 01cc 9F       		.byte	0x9f
 2952 01cd 00000000 		.4byte	0
 2953 01d1 00000000 		.4byte	0
 2954              	.LVUS5:
 2955 01d5 01       		.uleb128 .LVU26
 2956 01d6 00       		.uleb128 .LVU34
 2957              	.LLST5:
 2958 01d7 18000000 		.4byte	.LVL3
 2959 01db 20000000 		.4byte	.LVL4
 2960 01df 0100     		.2byte	0x1
 2961 01e1 54       		.byte	0x54
 2962 01e2 00000000 		.4byte	0
 2963 01e6 00000000 		.4byte	0
 2964              	.LVUS6:
ARM GAS  /tmp/ccsPaZXk.s 			page 53


 2965 01ea 0A       		.uleb128 .LVU50
 2966 01eb 00       		.uleb128 .LVU52
 2967              	.LLST6:
 2968 01ec 2C000000 		.4byte	.LVL7
 2969 01f0 32000000 		.4byte	.LVL8
 2970 01f4 0200     		.2byte	0x2
 2971 01f6 30       		.byte	0x30
 2972 01f7 9F       		.byte	0x9f
 2973 01f8 00000000 		.4byte	0
 2974 01fc 00000000 		.4byte	0
 2975              		.section	.debug_aranges,"",%progbits
 2976 0000 2C000000 		.4byte	0x2c
 2977 0004 0200     		.2byte	0x2
 2978 0006 00000000 		.4byte	.Ldebug_info0
 2979 000a 04       		.byte	0x4
 2980 000b 00       		.byte	0
 2981 000c 0000     		.2byte	0
 2982 000e 0000     		.2byte	0
 2983 0010 00000000 		.4byte	.LFB246
 2984 0014 40000000 		.4byte	.LFE246-.LFB246
 2985 0018 00000000 		.4byte	.LFB247
 2986 001c 40000000 		.4byte	.LFE247-.LFB247
 2987 0020 00000000 		.4byte	.LFB248
 2988 0024 14000000 		.4byte	.LFE248-.LFB248
 2989 0028 00000000 		.4byte	0
 2990 002c 00000000 		.4byte	0
 2991              		.section	.debug_ranges,"",%progbits
 2992              	.Ldebug_ranges0:
 2993 0000 04000000 		.4byte	.LBB52
 2994 0004 06000000 		.4byte	.LBE52
 2995 0008 08000000 		.4byte	.LBB60
 2996 000c 08000000 		.4byte	.LBE60
 2997 0010 08000000 		.4byte	.LBB61
 2998 0014 08000000 		.4byte	.LBE61
 2999 0018 08000000 		.4byte	.LBB62
 3000 001c 0C000000 		.4byte	.LBE62
 3001 0020 00000000 		.4byte	0
 3002 0024 00000000 		.4byte	0
 3003 0028 04000000 		.4byte	.LBB53
 3004 002c 06000000 		.4byte	.LBE53
 3005 0030 08000000 		.4byte	.LBB58
 3006 0034 08000000 		.4byte	.LBE58
 3007 0038 08000000 		.4byte	.LBB59
 3008 003c 0C000000 		.4byte	.LBE59
 3009 0040 00000000 		.4byte	0
 3010 0044 00000000 		.4byte	0
 3011 0048 04000000 		.4byte	.LBB54
 3012 004c 06000000 		.4byte	.LBE54
 3013 0050 08000000 		.4byte	.LBB57
 3014 0054 0C000000 		.4byte	.LBE57
 3015 0058 00000000 		.4byte	0
 3016 005c 00000000 		.4byte	0
 3017 0060 0C000000 		.4byte	.LBB63
 3018 0064 10000000 		.4byte	.LBE63
 3019 0068 14000000 		.4byte	.LBB68
 3020 006c 16000000 		.4byte	.LBE68
 3021 0070 18000000 		.4byte	.LBB69
ARM GAS  /tmp/ccsPaZXk.s 			page 54


 3022 0074 1A000000 		.4byte	.LBE69
 3023 0078 1E000000 		.4byte	.LBB70
 3024 007c 20000000 		.4byte	.LBE70
 3025 0080 00000000 		.4byte	0
 3026 0084 00000000 		.4byte	0
 3027 0088 2C000000 		.4byte	.LBB71
 3028 008c 2C000000 		.4byte	.LBE71
 3029 0090 2C000000 		.4byte	.LBB78
 3030 0094 32000000 		.4byte	.LBE78
 3031 0098 00000000 		.4byte	0
 3032 009c 00000000 		.4byte	0
 3033 00a0 00000000 		.4byte	.LBB79
 3034 00a4 00000000 		.4byte	.LBE79
 3035 00a8 00000000 		.4byte	.LBB87
 3036 00ac 00000000 		.4byte	.LBE87
 3037 00b0 00000000 		.4byte	.LBB88
 3038 00b4 00000000 		.4byte	.LBE88
 3039 00b8 02000000 		.4byte	.LBB89
 3040 00bc 08000000 		.4byte	.LBE89
 3041 00c0 00000000 		.4byte	0
 3042 00c4 00000000 		.4byte	0
 3043 00c8 16000000 		.4byte	.LBB92
 3044 00cc 1A000000 		.4byte	.LBE92
 3045 00d0 1C000000 		.4byte	.LBB96
 3046 00d4 1E000000 		.4byte	.LBE96
 3047 00d8 32000000 		.4byte	.LBB110
 3048 00dc 34000000 		.4byte	.LBE110
 3049 00e0 00000000 		.4byte	0
 3050 00e4 00000000 		.4byte	0
 3051 00e8 1E000000 		.4byte	.LBB97
 3052 00ec 20000000 		.4byte	.LBE97
 3053 00f0 24000000 		.4byte	.LBB108
 3054 00f4 24000000 		.4byte	.LBE108
 3055 00f8 24000000 		.4byte	.LBB109
 3056 00fc 28000000 		.4byte	.LBE109
 3057 0100 00000000 		.4byte	0
 3058 0104 00000000 		.4byte	0
 3059 0108 1E000000 		.4byte	.LBB100
 3060 010c 20000000 		.4byte	.LBE100
 3061 0110 24000000 		.4byte	.LBB103
 3062 0114 28000000 		.4byte	.LBE103
 3063 0118 00000000 		.4byte	0
 3064 011c 00000000 		.4byte	0
 3065 0120 00000000 		.4byte	.LBB111
 3066 0124 00000000 		.4byte	.LBE111
 3067 0128 00000000 		.4byte	.LBB119
 3068 012c 00000000 		.4byte	.LBE119
 3069 0130 00000000 		.4byte	.LBB120
 3070 0134 00000000 		.4byte	.LBE120
 3071 0138 02000000 		.4byte	.LBB121
 3072 013c 08000000 		.4byte	.LBE121
 3073 0140 00000000 		.4byte	0
 3074 0144 00000000 		.4byte	0
 3075 0148 0C000000 		.4byte	.LBB124
 3076 014c 0C000000 		.4byte	.LBE124
 3077 0150 0C000000 		.4byte	.LBB131
 3078 0154 12000000 		.4byte	.LBE131
ARM GAS  /tmp/ccsPaZXk.s 			page 55


 3079 0158 00000000 		.4byte	0
 3080 015c 00000000 		.4byte	0
 3081 0160 00000000 		.4byte	.LFB246
 3082 0164 40000000 		.4byte	.LFE246
 3083 0168 00000000 		.4byte	.LFB247
 3084 016c 40000000 		.4byte	.LFE247
 3085 0170 00000000 		.4byte	.LFB248
 3086 0174 14000000 		.4byte	.LFE248
 3087 0178 00000000 		.4byte	0
 3088 017c 00000000 		.4byte	0
 3089              		.section	.debug_line,"",%progbits
 3090              	.Ldebug_line0:
 3091 0000 56040000 		.section	.debug_str,"MS",%progbits,1
 3091      03007B01 
 3091      00000201 
 3091      FB0E0D00 
 3091      01010101 
 3092              	.LASF104:
 3093 0000 2F686F6D 		.ascii	"/home/tfateba/nlab/ip/trunk/demos/STM32/RT-STM32F40"
 3093      652F7466 
 3093      61746562 
 3093      612F6E6C 
 3093      61622F69 
 3094 0033 372D4449 		.ascii	"7-DISCOVERY-G++\000"
 3094      53434F56 
 3094      4552592D 
 3094      472B2B00 
 3095              	.LASF47:
 3096 0043 72656164 		.ascii	"ready_list_t\000"
 3096      795F6C69 
 3096      73745F74 
 3096      00
 3097              	.LASF93:
 3098 0050 71756575 		.ascii	"queue_insert\000"
 3098      655F696E 
 3098      73657274 
 3098      00
 3099              	.LASF75:
 3100 005d 77747472 		.ascii	"wttrp\000"
 3100      7000
 3101              	.LASF53:
 3102 0063 64656C74 		.ascii	"delta\000"
 3102      6100
 3103              	.LASF72:
 3104 0069 7264796D 		.ascii	"rdymsg\000"
 3104      736700
 3105              	.LASF12:
 3106 0070 75696E74 		.ascii	"uint64_t\000"
 3106      36345F74 
 3106      00
 3107              	.LASF46:
 3108 0079 70726576 		.ascii	"prev\000"
 3108      00
 3109              	.LASF69:
 3110 007e 706F7274 		.ascii	"port_intctx\000"
 3110      5F696E74 
 3110      63747800 
ARM GAS  /tmp/ccsPaZXk.s 			page 56


 3111              	.LASF58:
 3112 008a 73797374 		.ascii	"system_debug_t\000"
 3112      656D5F64 
 3112      65627567 
 3112      5F7400
 3113              	.LASF96:
 3114 0099 706F7274 		.ascii	"port_lock\000"
 3114      5F6C6F63 
 3114      6B00
 3115              	.LASF13:
 3116 00a3 6C6F6E67 		.ascii	"long long unsigned int\000"
 3116      206C6F6E 
 3116      6720756E 
 3116      7369676E 
 3116      65642069 
 3117              	.LASF73:
 3118 00ba 65786974 		.ascii	"exitcode\000"
 3118      636F6465 
 3118      00
 3119              	.LASF65:
 3120 00c3 6D61696E 		.ascii	"mainthread\000"
 3120      74687265 
 3120      616400
 3121              	.LASF76:
 3122 00ce 73656E74 		.ascii	"sentmsg\000"
 3122      6D736700 
 3123              	.LASF55:
 3124 00d6 76697274 		.ascii	"virtual_timers_list_t\000"
 3124      75616C5F 
 3124      74696D65 
 3124      72735F6C 
 3124      6973745F 
 3125              	.LASF43:
 3126 00ec 6E657874 		.ascii	"next\000"
 3126      00
 3127              	.LASF45:
 3128 00f1 63685F74 		.ascii	"ch_threads_queue\000"
 3128      68726561 
 3128      64735F71 
 3128      75657565 
 3128      00
 3129              	.LASF1:
 3130 0102 6C6F6E67 		.ascii	"long long int\000"
 3130      206C6F6E 
 3130      6720696E 
 3130      7400
 3131              	.LASF3:
 3132 0110 7369676E 		.ascii	"signed char\000"
 3132      65642063 
 3132      68617200 
 3133              	.LASF64:
 3134 011c 76746C69 		.ascii	"vtlist\000"
 3134      737400
 3135              	.LASF95:
 3136 0123 706F7274 		.ascii	"port_unlock\000"
 3136      5F756E6C 
 3136      6F636B00 
ARM GAS  /tmp/ccsPaZXk.s 			page 57


 3137              	.LASF34:
 3138 012f 6D736771 		.ascii	"msgqueue\000"
 3138      75657565 
 3138      00
 3139              	.LASF30:
 3140 0138 73746174 		.ascii	"state\000"
 3140      6500
 3141              	.LASF5:
 3142 013e 6C6F6E67 		.ascii	"long int\000"
 3142      20696E74 
 3142      00
 3143              	.LASF87:
 3144 0147 63684D73 		.ascii	"chMsgSend\000"
 3144      6753656E 
 3144      6400
 3145              	.LASF16:
 3146 0151 74737461 		.ascii	"tstate_t\000"
 3146      74655F74 
 3146      00
 3147              	.LASF54:
 3148 015a 66756E63 		.ascii	"func\000"
 3148      00
 3149              	.LASF24:
 3150 015f 71756575 		.ascii	"queue\000"
 3150      6500
 3151              	.LASF91:
 3152 0165 63684D73 		.ascii	"chMsgIsPendingI\000"
 3152      67497350 
 3152      656E6469 
 3152      6E674900 
 3153              	.LASF66:
 3154 0175 72656761 		.ascii	"regarm_t\000"
 3154      726D5F74 
 3154      00
 3155              	.LASF33:
 3156 017e 77616974 		.ascii	"waiting\000"
 3156      696E6700 
 3157              	.LASF84:
 3158 0186 6D757465 		.ascii	"mutex_t\000"
 3158      785F7400 
 3159              	.LASF98:
 3160 018e 76616C75 		.ascii	"value\000"
 3160      6500
 3161              	.LASF21:
 3162 0194 636E745F 		.ascii	"cnt_t\000"
 3162      7400
 3163              	.LASF0:
 3164 019a 756E7369 		.ascii	"unsigned int\000"
 3164      676E6564 
 3164      20696E74 
 3164      00
 3165              	.LASF77:
 3166 01a7 77747365 		.ascii	"wtsemp\000"
 3166      6D7000
 3167              	.LASF11:
 3168 01ae 6C6F6E67 		.ascii	"long unsigned int\000"
 3168      20756E73 
ARM GAS  /tmp/ccsPaZXk.s 			page 58


 3168      69676E65 
 3168      6420696E 
 3168      7400
 3169              	.LASF28:
 3170 01c0 6E616D65 		.ascii	"name\000"
 3170      00
 3171              	.LASF38:
 3172 01c5 6D706F6F 		.ascii	"mpool\000"
 3172      6C00
 3173              	.LASF9:
 3174 01cb 73686F72 		.ascii	"short unsigned int\000"
 3174      7420756E 
 3174      7369676E 
 3174      65642069 
 3174      6E7400
 3175              	.LASF41:
 3176 01de 63685F74 		.ascii	"ch_thread\000"
 3176      68726561 
 3176      6400
 3177              	.LASF19:
 3178 01e8 6D73675F 		.ascii	"msg_t\000"
 3178      7400
 3179              	.LASF35:
 3180 01ee 6570656E 		.ascii	"epending\000"
 3180      64696E67 
 3180      00
 3181              	.LASF61:
 3182 01f7 63685F73 		.ascii	"ch_system_t\000"
 3182      79737465 
 3182      6D5F7400 
 3183              	.LASF15:
 3184 0203 746D6F64 		.ascii	"tmode_t\000"
 3184      655F7400 
 3185              	.LASF48:
 3186 020b 63685F72 		.ascii	"ch_ready_list\000"
 3186      65616479 
 3186      5F6C6973 
 3186      7400
 3187              	.LASF20:
 3188 0219 6576656E 		.ascii	"eventmask_t\000"
 3188      746D6173 
 3188      6B5F7400 
 3189              	.LASF67:
 3190 0225 73746B61 		.ascii	"stkalign_t\000"
 3190      6C69676E 
 3190      5F7400
 3191              	.LASF26:
 3192 0230 6E657765 		.ascii	"newer\000"
 3192      7200
 3193              	.LASF37:
 3194 0236 7265616C 		.ascii	"realprio\000"
 3194      7072696F 
 3194      00
 3195              	.LASF14:
 3196 023f 7274636E 		.ascii	"rtcnt_t\000"
 3196      745F7400 
 3197              	.LASF39:
ARM GAS  /tmp/ccsPaZXk.s 			page 59


 3198 0247 74687265 		.ascii	"thread_reference_t\000"
 3198      61645F72 
 3198      65666572 
 3198      656E6365 
 3198      5F7400
 3199              	.LASF56:
 3200 025a 63685F76 		.ascii	"ch_virtual_timers_list\000"
 3200      69727475 
 3200      616C5F74 
 3200      696D6572 
 3200      735F6C69 
 3201              	.LASF102:
 3202 0271 474E5520 		.ascii	"GNU C17 10.3.1 20210621 (release) -mcpu=cortex-m4 -"
 3202      43313720 
 3202      31302E33 
 3202      2E312032 
 3202      30323130 
 3203 02a4 6D6E6F2D 		.ascii	"mno-thumb-interwork -mthumb -mfloat-abi=soft -march"
 3203      7468756D 
 3203      622D696E 
 3203      74657277 
 3203      6F726B20 
 3204 02d7 3D61726D 		.ascii	"=armv7e-m -ggdb -O2 -fomit-frame-pointer -falign-fu"
 3204      7637652D 
 3204      6D202D67 
 3204      67646220 
 3204      2D4F3220 
 3205 030a 6E637469 		.ascii	"nctions=16 -ffunction-sections -fdata-sections -fno"
 3205      6F6E733D 
 3205      3136202D 
 3205      6666756E 
 3205      6374696F 
 3206 033d 2D636F6D 		.ascii	"-common\000"
 3206      6D6F6E00 
 3207              	.LASF68:
 3208 0345 706F7274 		.ascii	"port_context\000"
 3208      5F636F6E 
 3208      74657874 
 3208      00
 3209              	.LASF71:
 3210 0352 746D5F63 		.ascii	"tm_calibration_t\000"
 3210      616C6962 
 3210      72617469 
 3210      6F6E5F74 
 3210      00
 3211              	.LASF25:
 3212 0363 7072696F 		.ascii	"prio\000"
 3212      00
 3213              	.LASF49:
 3214 0368 63757272 		.ascii	"current\000"
 3214      656E7400 
 3215              	.LASF17:
 3216 0370 74726566 		.ascii	"trefs_t\000"
 3216      735F7400 
 3217              	.LASF32:
 3218 0378 72656673 		.ascii	"refs\000"
 3218      00
ARM GAS  /tmp/ccsPaZXk.s 			page 60


 3219              	.LASF51:
 3220 037d 76697274 		.ascii	"virtual_timer_t\000"
 3220      75616C5F 
 3220      74696D65 
 3220      725F7400 
 3221              	.LASF18:
 3222 038d 74707269 		.ascii	"tprio_t\000"
 3222      6F5F7400 
 3223              	.LASF59:
 3224 0395 63685F73 		.ascii	"ch_system_debug\000"
 3224      79737465 
 3224      6D5F6465 
 3224      62756700 
 3225              	.LASF85:
 3226 03a5 5F426F6F 		.ascii	"_Bool\000"
 3226      6C00
 3227              	.LASF6:
 3228 03ab 696E7433 		.ascii	"int32_t\000"
 3228      325F7400 
 3229              	.LASF8:
 3230 03b3 756E7369 		.ascii	"unsigned char\000"
 3230      676E6564 
 3230      20636861 
 3230      7200
 3231              	.LASF4:
 3232 03c1 73686F72 		.ascii	"short int\000"
 3232      7420696E 
 3232      7400
 3233              	.LASF57:
 3234 03cb 6C617374 		.ascii	"lasttime\000"
 3234      74696D65 
 3234      00
 3235              	.LASF79:
 3236 03d4 65776D61 		.ascii	"ewmask\000"
 3236      736B00
 3237              	.LASF62:
 3238 03db 63685F73 		.ascii	"ch_system\000"
 3238      79737465 
 3238      6D00
 3239              	.LASF88:
 3240 03e5 5F5F6675 		.ascii	"__func__\000"
 3240      6E635F5F 
 3240      00
 3241              	.LASF94:
 3242 03ee 63685379 		.ascii	"chSysLock\000"
 3242      734C6F63 
 3242      6B00
 3243              	.LASF52:
 3244 03f8 63685F76 		.ascii	"ch_virtual_timer\000"
 3244      69727475 
 3244      616C5F74 
 3244      696D6572 
 3244      00
 3245              	.LASF105:
 3246 0409 63684D73 		.ascii	"chMsgRelease\000"
 3246      6752656C 
 3246      65617365 
ARM GAS  /tmp/ccsPaZXk.s 			page 61


 3246      00
 3247              	.LASF80:
 3248 0416 63685F73 		.ascii	"ch_semaphore\000"
 3248      656D6170 
 3248      686F7265 
 3248      00
 3249              	.LASF100:
 3250 0423 63685363 		.ascii	"chSchGoSleepS\000"
 3250      68476F53 
 3250      6C656570 
 3250      5300
 3251              	.LASF10:
 3252 0431 75696E74 		.ascii	"uint32_t\000"
 3252      33325F74 
 3252      00
 3253              	.LASF78:
 3254 043a 77746D74 		.ascii	"wtmtxp\000"
 3254      787000
 3255              	.LASF101:
 3256 0441 63685363 		.ascii	"chSchReadyI\000"
 3256      68526561 
 3256      64794900 
 3257              	.LASF42:
 3258 044d 63685F74 		.ascii	"ch_threads_list\000"
 3258      68726561 
 3258      64735F6C 
 3258      69737400 
 3259              	.LASF82:
 3260 045d 6F776E65 		.ascii	"owner\000"
 3260      7200
 3261              	.LASF2:
 3262 0463 6C6F6E67 		.ascii	"long double\000"
 3262      20646F75 
 3262      626C6500 
 3263              	.LASF29:
 3264 046f 77616261 		.ascii	"wabase\000"
 3264      736500
 3265              	.LASF83:
 3266 0476 63686172 		.ascii	"char\000"
 3266      00
 3267              	.LASF27:
 3268 047b 6F6C6465 		.ascii	"older\000"
 3268      7200
 3269              	.LASF23:
 3270 0481 74687265 		.ascii	"thread_t\000"
 3270      61645F74 
 3270      00
 3271              	.LASF92:
 3272 048a 71756575 		.ascii	"queue_fifo_remove\000"
 3272      655F6669 
 3272      666F5F72 
 3272      656D6F76 
 3272      6500
 3273              	.LASF22:
 3274 049c 73797374 		.ascii	"systime_t\000"
 3274      696D655F 
 3274      7400
ARM GAS  /tmp/ccsPaZXk.s 			page 62


 3275              	.LASF50:
 3276 04a6 76746675 		.ascii	"vtfunc_t\000"
 3276      6E635F74 
 3276      00
 3277              	.LASF97:
 3278 04af 5F5F7365 		.ascii	"__set_BASEPRI\000"
 3278      745F4241 
 3278      53455052 
 3278      4900
 3279              	.LASF60:
 3280 04bd 70616E69 		.ascii	"panic_msg\000"
 3280      635F6D73 
 3280      6700
 3281              	.LASF70:
 3282 04c7 6F666673 		.ascii	"offset\000"
 3282      657400
 3283              	.LASF99:
 3284 04ce 63685363 		.ascii	"chSchWakeupS\000"
 3284      6857616B 
 3284      65757053 
 3284      00
 3285              	.LASF86:
 3286 04db 63684D73 		.ascii	"chMsgWait\000"
 3286      67576169 
 3286      7400
 3287              	.LASF44:
 3288 04e5 74687265 		.ascii	"threads_queue_t\000"
 3288      6164735F 
 3288      71756575 
 3288      655F7400 
 3289              	.LASF81:
 3290 04f5 63685F6D 		.ascii	"ch_mutex\000"
 3290      75746578 
 3290      00
 3291              	.LASF63:
 3292 04fe 726C6973 		.ascii	"rlist\000"
 3292      7400
 3293              	.LASF7:
 3294 0504 75696E74 		.ascii	"uint8_t\000"
 3294      385F7400 
 3295              	.LASF31:
 3296 050c 666C6167 		.ascii	"flags\000"
 3296      7300
 3297              	.LASF74:
 3298 0512 77746F62 		.ascii	"wtobjp\000"
 3298      6A7000
 3299              	.LASF40:
 3300 0519 74687265 		.ascii	"threads_list_t\000"
 3300      6164735F 
 3300      6C697374 
 3300      5F7400
 3301              	.LASF90:
 3302 0528 63685379 		.ascii	"chSysUnlock\000"
 3302      73556E6C 
 3302      6F636B00 
 3303              	.LASF103:
 3304 0534 2E2E2F2E 		.ascii	"../../../os/rt/src/chmsg.c\000"
ARM GAS  /tmp/ccsPaZXk.s 			page 63


 3304      2E2F2E2E 
 3304      2F6F732F 
 3304      72742F73 
 3304      72632F63 
 3305              	.LASF89:
 3306 054f 63684D73 		.ascii	"chMsgReleaseS\000"
 3306      6752656C 
 3306      65617365 
 3306      5300
 3307              	.LASF36:
 3308 055d 6D74786C 		.ascii	"mtxlist\000"
 3308      69737400 
 3309              		.ident	"GCC: (15:10.3-2021.07-4) 10.3.1 20210621 (release)"
ARM GAS  /tmp/ccsPaZXk.s 			page 64


DEFINED SYMBOLS
                            *ABS*:0000000000000000 chmsg.c
     /tmp/ccsPaZXk.s:16     .text.chMsgSend:0000000000000000 $t
     /tmp/ccsPaZXk.s:25     .text.chMsgSend:0000000000000000 chMsgSend
     /tmp/ccsPaZXk.s:208    .text.chMsgSend:000000000000003c $d
     /tmp/ccsPaZXk.s:213    .text.chMsgWait:0000000000000000 $t
     /tmp/ccsPaZXk.s:221    .text.chMsgWait:0000000000000000 chMsgWait
     /tmp/ccsPaZXk.s:405    .text.chMsgWait:000000000000003c $d
     /tmp/ccsPaZXk.s:410    .text.chMsgRelease:0000000000000000 $t
     /tmp/ccsPaZXk.s:418    .text.chMsgRelease:0000000000000000 chMsgRelease

UNDEFINED SYMBOLS
chSchGoSleepS
chSchReadyI
ch
chSchWakeupS
