ARM GAS  /tmp/cctGGKSH.s 			page 1


   1              		.cpu cortex-m4
   2              		.eabi_attribute 20, 1
   3              		.eabi_attribute 21, 1
   4              		.eabi_attribute 23, 3
   5              		.eabi_attribute 24, 1
   6              		.eabi_attribute 25, 1
   7              		.eabi_attribute 26, 1
   8              		.eabi_attribute 30, 2
   9              		.eabi_attribute 34, 1
  10              		.eabi_attribute 18, 4
  11              		.file	"chregistry.c"
  12              		.text
  13              	.Ltext0:
  14              		.cfi_sections	.debug_frame
  15              		.section	.text.chRegFirstThread,"ax",%progbits
  16              		.align	1
  17              		.p2align 4,,15
  18              		.global	chRegFirstThread
  19              		.arch armv7e-m
  20              		.syntax unified
  21              		.thumb
  22              		.thumb_func
  23              		.fpu softvfp
  24              		.type	chRegFirstThread, %function
  25              	chRegFirstThread:
  26              	.LFB246:
  27              		.file 1 "../../../os/rt/src/chregistry.c"
  28              		.loc 1 134 34 view -0
  29              		.cfi_startproc
  30              		@ args = 0, pretend = 0, frame = 0
  31              		@ frame_needed = 0, uses_anonymous_args = 0
  32              		@ link register save eliminated.
  33              		.loc 1 135 3 view .LVU1
  34              		.loc 1 137 3 view .LVU2
  35              	.LBB71:
  36              	.LBI71:
  37              		.file 2 "../../../os/rt/include/chsys.h"
  38              		.loc 2 374 20 view .LVU3
  39              	.LBE71:
  40              		.loc 2 376 3 view .LVU4
  41              	.LBB76:
  42              	.LBB72:
  43              	.LBI72:
  44              		.file 3 "../../../os/common/ports/ARMCMx/chcore_v7m.h"
  45              		.loc 3 594 20 view .LVU5
  46              	.LBE72:
  47              	.LBE76:
  48              		.loc 3 602 3 view .LVU6
  49              	.LVL0:
  50              	.LBB77:
  51              	.LBB75:
  52              	.LBB73:
  53              	.LBI73:
  54              		.file 4 "../../../os/common/ext/CMSIS/include/cmsis_gcc.h"
  55              		.loc 4 262 57 view .LVU7
  56              	.LBB74:
  57              		.loc 4 264 3 view .LVU8
ARM GAS  /tmp/cctGGKSH.s 			page 2


  58 0000 2023     		movs	r3, #32
  59              		.syntax unified
  60              	@ 264 "../../../os/common/ext/CMSIS/include/cmsis_gcc.h" 1
  61 0002 83F31188 		MSR basepri, r3
  62              	@ 0 "" 2
  63              	.LVL1:
  64              		.loc 4 264 3 is_stmt 0 view .LVU9
  65              		.thumb
  66              		.syntax unified
  67              	.LBE74:
  68              	.LBE73:
  69              	.LBE75:
  70              	.LBE77:
  71              		.loc 2 377 34 is_stmt 1 view .LVU10
  72              		.loc 2 378 20 view .LVU11
  73              		.loc 1 138 3 view .LVU12
  74              		.loc 1 138 6 is_stmt 0 view .LVU13
  75 0006 054B     		ldr	r3, .L3
  76 0008 1869     		ldr	r0, [r3, #16]
  77              	.LVL2:
  78              		.loc 1 140 3 is_stmt 1 view .LVU14
  79              		.loc 1 140 11 is_stmt 0 view .LVU15
  80 000a 90F82230 		ldrb	r3, [r0, #34]	@ zero_extendqisi2
  81 000e 0133     		adds	r3, r3, #1
  82              	.LBB78:
  83              	.LBB79:
  84              	.LBB80:
  85              	.LBB81:
  86              	.LBB82:
  87              		.loc 4 264 3 view .LVU16
  88 0010 0022     		movs	r2, #0
  89              	.LBE82:
  90              	.LBE81:
  91              	.LBE80:
  92              	.LBE79:
  93              	.LBE78:
  94              		.loc 1 140 11 view .LVU17
  95 0012 80F82230 		strb	r3, [r0, #34]
  96              		.loc 1 142 3 is_stmt 1 view .LVU18
  97              	.LBB89:
  98              	.LBI78:
  99              		.loc 2 386 20 view .LVU19
 100              	.LBB87:
 101              		.loc 2 388 22 view .LVU20
 102              		.loc 2 389 33 view .LVU21
 103              		.loc 2 395 3 view .LVU22
 104              		.loc 2 395 3 view .LVU23
 105              		.loc 2 395 3 view .LVU24
 106              		.loc 2 399 3 view .LVU25
 107              	.LBB85:
 108              	.LBI80:
 109              		.loc 3 618 20 view .LVU26
 110              	.LBE85:
 111              	.LBE87:
 112              	.LBE89:
 113              		.loc 3 621 3 view .LVU27
 114              	.LVL3:
ARM GAS  /tmp/cctGGKSH.s 			page 3


 115              	.LBB90:
 116              	.LBB88:
 117              	.LBB86:
 118              	.LBB84:
 119              	.LBI81:
 120              		.loc 4 262 57 view .LVU28
 121              	.LBB83:
 122              		.loc 4 264 3 view .LVU29
 123              		.syntax unified
 124              	@ 264 "../../../os/common/ext/CMSIS/include/cmsis_gcc.h" 1
 125 0016 82F31188 		MSR basepri, r2
 126              	@ 0 "" 2
 127              	.LVL4:
 128              		.loc 4 264 3 is_stmt 0 view .LVU30
 129              		.thumb
 130              		.syntax unified
 131              	.LBE83:
 132              	.LBE84:
 133              	.LBE86:
 134              	.LBE88:
 135              	.LBE90:
 136              		.loc 1 144 3 is_stmt 1 view .LVU31
 137              		.loc 1 145 1 is_stmt 0 view .LVU32
 138 001a 7047     		bx	lr
 139              	.L4:
 140              		.align	2
 141              	.L3:
 142 001c 00000000 		.word	ch
 143              		.cfi_endproc
 144              	.LFE246:
 145              		.size	chRegFirstThread, .-chRegFirstThread
 146              		.section	.text.chRegNextThread,"ax",%progbits
 147              		.align	1
 148              		.p2align 4,,15
 149              		.global	chRegNextThread
 150              		.syntax unified
 151              		.thumb
 152              		.thumb_func
 153              		.fpu softvfp
 154              		.type	chRegNextThread, %function
 155              	chRegNextThread:
 156              	.LVL5:
 157              	.LFB247:
 158              		.loc 1 158 41 is_stmt 1 view -0
 159              		.cfi_startproc
 160              		@ args = 0, pretend = 0, frame = 0
 161              		@ frame_needed = 0, uses_anonymous_args = 0
 162              		.loc 1 159 3 view .LVU34
 163              		.loc 1 161 3 view .LVU35
 164              	.LBB100:
 165              	.LBI100:
 166              		.loc 2 374 20 view .LVU36
 167              	.LBE100:
 168              		.loc 2 376 3 view .LVU37
 169              	.LBB108:
 170              	.LBB101:
 171              	.LBI101:
ARM GAS  /tmp/cctGGKSH.s 			page 4


 172              		.loc 3 594 20 view .LVU38
 173              	.LBE101:
 174              	.LBE108:
 175              		.loc 3 602 3 view .LVU39
 176              	.LBB109:
 177              	.LBB106:
 178              	.LBB102:
 179              	.LBI102:
 180              		.loc 4 262 57 view .LVU40
 181              	.LBB103:
 182              		.loc 4 264 3 view .LVU41
 183              	.LBE103:
 184              	.LBE102:
 185              	.LBE106:
 186              	.LBE109:
 187              		.loc 1 158 41 is_stmt 0 view .LVU42
 188 0000 10B5     		push	{r4, lr}
 189              		.cfi_def_cfa_offset 8
 190              		.cfi_offset 4, -8
 191              		.cfi_offset 14, -4
 192              	.LBB110:
 193              	.LBB107:
 194              	.LBB105:
 195              	.LBB104:
 196              		.loc 4 264 3 view .LVU43
 197 0002 2023     		movs	r3, #32
 198              		.syntax unified
 199              	@ 264 "../../../os/common/ext/CMSIS/include/cmsis_gcc.h" 1
 200 0004 83F31188 		MSR basepri, r3
 201              	@ 0 "" 2
 202              	.LVL6:
 203              		.loc 4 264 3 view .LVU44
 204              		.thumb
 205              		.syntax unified
 206              	.LBE104:
 207              	.LBE105:
 208              	.LBE107:
 209              	.LBE110:
 210              		.loc 2 377 34 is_stmt 1 view .LVU45
 211              		.loc 2 378 20 view .LVU46
 212              		.loc 1 162 3 view .LVU47
 213              		.loc 1 164 6 is_stmt 0 view .LVU48
 214 0008 084B     		ldr	r3, .L9
 215              		.loc 1 162 7 view .LVU49
 216 000a 0469     		ldr	r4, [r0, #16]
 217              	.LVL7:
 218              		.loc 1 164 3 is_stmt 1 view .LVU50
 219              		.loc 1 164 6 is_stmt 0 view .LVU51
 220 000c 9C42     		cmp	r4, r3
 221              		.loc 1 170 5 is_stmt 1 view .LVU52
 222              		.loc 1 170 5 view .LVU53
 223              		.loc 1 170 5 view .LVU54
 224              		.loc 1 171 5 view .LVU55
 225              		.loc 1 171 14 is_stmt 0 view .LVU56
 226 000e 1DBF     		ittte	ne
 227 0010 94F82230 		ldrbne	r3, [r4, #34]	@ zero_extendqisi2
 228 0014 0133     		addne	r3, r3, #1
ARM GAS  /tmp/cctGGKSH.s 			page 5


 229 0016 84F82230 		strbne	r3, [r4, #34]
 230              		.loc 1 166 9 view .LVU57
 231 001a 0024     		moveq	r4, #0
 232              	.LVL8:
 233              		.loc 1 174 3 is_stmt 1 view .LVU58
 234              	.LBB111:
 235              	.LBI111:
 236              		.loc 2 386 20 view .LVU59
 237              	.LBB112:
 238              		.loc 2 388 22 view .LVU60
 239              		.loc 2 389 33 view .LVU61
 240              		.loc 2 395 3 view .LVU62
 241              		.loc 2 395 3 view .LVU63
 242              		.loc 2 395 3 view .LVU64
 243              		.loc 2 399 3 view .LVU65
 244              	.LBB113:
 245              	.LBI113:
 246              		.loc 3 618 20 view .LVU66
 247              	.LBE113:
 248              	.LBE112:
 249              	.LBE111:
 250              		.loc 3 621 3 view .LVU67
 251              	.LBB118:
 252              	.LBB117:
 253              	.LBB116:
 254              	.LBB114:
 255              	.LBI114:
 256              		.loc 4 262 57 view .LVU68
 257              	.LBB115:
 258              		.loc 4 264 3 view .LVU69
 259 001c 0023     		movs	r3, #0
 260              		.syntax unified
 261              	@ 264 "../../../os/common/ext/CMSIS/include/cmsis_gcc.h" 1
 262 001e 83F31188 		MSR basepri, r3
 263              	@ 0 "" 2
 264              	.LVL9:
 265              		.loc 4 264 3 is_stmt 0 view .LVU70
 266              		.thumb
 267              		.syntax unified
 268              	.LBE115:
 269              	.LBE114:
 270              	.LBE116:
 271              	.LBE117:
 272              	.LBE118:
 273              		.loc 1 176 3 is_stmt 1 view .LVU71
 274 0022 FFF7FEFF 		bl	chThdRelease
 275              	.LVL10:
 276              		.loc 1 179 3 view .LVU72
 277              		.loc 1 180 1 is_stmt 0 view .LVU73
 278 0026 2046     		mov	r0, r4
 279 0028 10BD     		pop	{r4, pc}
 280              	.LVL11:
 281              	.L10:
 282              		.loc 1 180 1 view .LVU74
 283 002a 00BF     		.align	2
 284              	.L9:
 285 002c 00000000 		.word	ch
ARM GAS  /tmp/cctGGKSH.s 			page 6


 286              		.cfi_endproc
 287              	.LFE247:
 288              		.size	chRegNextThread, .-chRegNextThread
 289              		.section	.text.chRegFindThreadByName,"ax",%progbits
 290              		.align	1
 291              		.p2align 4,,15
 292              		.global	chRegFindThreadByName
 293              		.syntax unified
 294              		.thumb
 295              		.thumb_func
 296              		.fpu softvfp
 297              		.type	chRegFindThreadByName, %function
 298              	chRegFindThreadByName:
 299              	.LVL12:
 300              	.LFB248:
 301              		.loc 1 194 51 is_stmt 1 view -0
 302              		.cfi_startproc
 303              		@ args = 0, pretend = 0, frame = 0
 304              		@ frame_needed = 0, uses_anonymous_args = 0
 305              		.loc 1 195 3 view .LVU76
 306              		.loc 1 198 3 view .LVU77
 307              	.LBB143:
 308              	.LBI143:
 309              		.loc 1 134 11 view .LVU78
 310              	.LBB144:
 311              		.loc 1 135 3 view .LVU79
 312              		.loc 1 137 3 view .LVU80
 313              	.LBB145:
 314              	.LBI145:
 315              		.loc 2 374 20 view .LVU81
 316              	.LBE145:
 317              	.LBE144:
 318              	.LBE143:
 319              		.loc 2 376 3 view .LVU82
 320              	.LBB169:
 321              	.LBB164:
 322              	.LBB153:
 323              	.LBB146:
 324              	.LBI146:
 325              		.loc 3 594 20 view .LVU83
 326              	.LBE146:
 327              	.LBE153:
 328              	.LBE164:
 329              	.LBE169:
 330              		.loc 3 602 3 view .LVU84
 331              	.LBB170:
 332              	.LBB165:
 333              	.LBB154:
 334              	.LBB151:
 335              	.LBB147:
 336              	.LBI147:
 337              		.loc 4 262 57 view .LVU85
 338              	.LBB148:
 339              		.loc 4 264 3 view .LVU86
 340              	.LBE148:
 341              	.LBE147:
 342              	.LBE151:
ARM GAS  /tmp/cctGGKSH.s 			page 7


 343              	.LBE154:
 344              	.LBE165:
 345              	.LBE170:
 346              		.loc 1 194 51 is_stmt 0 view .LVU87
 347 0000 2DE9F843 		push	{r3, r4, r5, r6, r7, r8, r9, lr}
 348              		.cfi_def_cfa_offset 32
 349              		.cfi_offset 3, -32
 350              		.cfi_offset 4, -28
 351              		.cfi_offset 5, -24
 352              		.cfi_offset 6, -20
 353              		.cfi_offset 7, -16
 354              		.cfi_offset 8, -12
 355              		.cfi_offset 9, -8
 356              		.cfi_offset 14, -4
 357              		.loc 1 194 51 view .LVU88
 358 0004 0646     		mov	r6, r0
 359              	.LBB171:
 360              	.LBB166:
 361              	.LBB155:
 362              	.LBB152:
 363              	.LBB150:
 364              	.LBB149:
 365              		.loc 4 264 3 view .LVU89
 366 0006 4FF02008 		mov	r8, #32
 367              		.syntax unified
 368              	@ 264 "../../../os/common/ext/CMSIS/include/cmsis_gcc.h" 1
 369 000a 88F31188 		MSR basepri, r8
 370              	@ 0 "" 2
 371              	.LVL13:
 372              		.loc 4 264 3 view .LVU90
 373              		.thumb
 374              		.syntax unified
 375              	.LBE149:
 376              	.LBE150:
 377              	.LBE152:
 378              	.LBE155:
 379              	.LBE166:
 380              	.LBE171:
 381              		.loc 2 377 34 is_stmt 1 view .LVU91
 382              		.loc 2 378 20 view .LVU92
 383              	.LBB172:
 384              	.LBB167:
 385              		.loc 1 138 3 view .LVU93
 386              		.loc 1 138 6 is_stmt 0 view .LVU94
 387 000e 154F     		ldr	r7, .L19
 388 0010 3D69     		ldr	r5, [r7, #16]
 389              	.LVL14:
 390              		.loc 1 140 3 is_stmt 1 view .LVU95
 391              		.loc 1 140 11 is_stmt 0 view .LVU96
 392 0012 95F82230 		ldrb	r3, [r5, #34]	@ zero_extendqisi2
 393 0016 0133     		adds	r3, r3, #1
 394 0018 85F82230 		strb	r3, [r5, #34]
 395              		.loc 1 142 3 is_stmt 1 view .LVU97
 396              	.LBB156:
 397              	.LBI156:
 398              		.loc 2 386 20 view .LVU98
 399              	.LBB157:
ARM GAS  /tmp/cctGGKSH.s 			page 8


 400              		.loc 2 388 22 view .LVU99
 401              		.loc 2 389 33 view .LVU100
 402              		.loc 2 395 3 view .LVU101
 403              		.loc 2 395 3 view .LVU102
 404              		.loc 2 395 3 view .LVU103
 405              		.loc 2 399 3 view .LVU104
 406              	.LBB158:
 407              	.LBI158:
 408              		.loc 3 618 20 view .LVU105
 409              	.LBE158:
 410              	.LBE157:
 411              	.LBE156:
 412              	.LBE167:
 413              	.LBE172:
 414              		.loc 3 621 3 view .LVU106
 415              	.LVL15:
 416              	.LBB173:
 417              	.LBB168:
 418              	.LBB163:
 419              	.LBB162:
 420              	.LBB161:
 421              	.LBB159:
 422              	.LBI159:
 423              		.loc 4 262 57 view .LVU107
 424              	.LBB160:
 425              		.loc 4 264 3 view .LVU108
 426 001c 4FF00009 		mov	r9, #0
 427              		.syntax unified
 428              	@ 264 "../../../os/common/ext/CMSIS/include/cmsis_gcc.h" 1
 429 0020 89F31188 		MSR basepri, r9
 430              	@ 0 "" 2
 431              	.LVL16:
 432              		.loc 4 264 3 is_stmt 0 view .LVU109
 433              		.thumb
 434              		.syntax unified
 435              	.LBE160:
 436              	.LBE159:
 437              	.LBE161:
 438              	.LBE162:
 439              	.LBE163:
 440              		.loc 1 144 3 is_stmt 1 view .LVU110
 441              		.loc 1 144 3 is_stmt 0 view .LVU111
 442 0024 0AE0     		b	.L14
 443              	.LVL17:
 444              	.L13:
 445              		.loc 1 144 3 view .LVU112
 446              	.LBE168:
 447              	.LBE173:
 448              	.LBB174:
 449              	.LBB175:
 450              		.loc 1 171 14 view .LVU113
 451 0026 94F82230 		ldrb	r3, [r4, #34]	@ zero_extendqisi2
 452 002a 0133     		adds	r3, r3, #1
 453 002c 84F82230 		strb	r3, [r4, #34]
 454              		.loc 1 174 3 is_stmt 1 view .LVU114
 455              	.LBB176:
 456              	.LBI176:
ARM GAS  /tmp/cctGGKSH.s 			page 9


 457              		.loc 2 386 20 view .LVU115
 458              	.LBB177:
 459              		.loc 2 388 22 view .LVU116
 460              		.loc 2 389 33 view .LVU117
 461              		.loc 2 395 3 view .LVU118
 462              		.loc 2 395 3 view .LVU119
 463              		.loc 2 395 3 view .LVU120
 464              		.loc 2 399 3 view .LVU121
 465              	.LBB178:
 466              	.LBI178:
 467              		.loc 3 618 20 view .LVU122
 468              	.LBE178:
 469              	.LBE177:
 470              	.LBE176:
 471              	.LBE175:
 472              	.LBE174:
 473              		.loc 3 621 3 view .LVU123
 474              	.LVL18:
 475              	.LBB211:
 476              	.LBB203:
 477              	.LBB189:
 478              	.LBB186:
 479              	.LBB183:
 480              	.LBB179:
 481              	.LBI179:
 482              		.loc 4 262 57 view .LVU124
 483              	.LBB180:
 484              		.loc 4 264 3 view .LVU125
 485              		.syntax unified
 486              	@ 264 "../../../os/common/ext/CMSIS/include/cmsis_gcc.h" 1
 487 0030 89F31188 		MSR basepri, r9
 488              	@ 0 "" 2
 489              	.LVL19:
 490              		.loc 4 264 3 is_stmt 0 view .LVU126
 491              		.thumb
 492              		.syntax unified
 493              	.LBE180:
 494              	.LBE179:
 495              	.LBE183:
 496              	.LBE186:
 497              	.LBE189:
 498              		.loc 1 176 3 is_stmt 1 view .LVU127
 499 0034 2846     		mov	r0, r5
 500 0036 FFF7FEFF 		bl	chThdRelease
 501              	.LVL20:
 502              		.loc 1 179 3 view .LVU128
 503              		.loc 1 179 3 is_stmt 0 view .LVU129
 504              	.LBE203:
 505              	.LBE211:
 506              		.loc 1 204 11 is_stmt 1 view .LVU130
 507              	.LBB212:
 508              	.LBB204:
 509              		.loc 1 176 3 is_stmt 0 view .LVU131
 510 003a 2546     		mov	r5, r4
 511              	.LVL21:
 512              	.L14:
 513              		.loc 1 176 3 view .LVU132
ARM GAS  /tmp/cctGGKSH.s 			page 10


 514              	.LBE204:
 515              	.LBE212:
 516              		.loc 1 199 3 is_stmt 1 view .LVU133
 517              		.loc 1 200 5 view .LVU134
 518              	.LBB213:
 519              	.LBI213:
 520              		.file 5 "../../../os/rt/include/chregistry.h"
 521              		.loc 5 153 27 view .LVU135
 522              	.LBB214:
 523              		.loc 5 156 3 view .LVU136
 524              		.loc 5 156 3 is_stmt 0 view .LVU137
 525              	.LBE214:
 526              	.LBE213:
 527              		.loc 1 200 9 view .LVU138
 528 003c A869     		ldr	r0, [r5, #24]
 529 003e 3146     		mov	r1, r6
 530 0040 FFF7FEFF 		bl	strcmp
 531              	.LVL22:
 532              		.loc 1 203 5 is_stmt 1 view .LVU139
 533              	.LBB215:
 534              	.LBI174:
 535              		.loc 1 158 11 view .LVU140
 536              	.LBB205:
 537              		.loc 1 159 3 view .LVU141
 538              		.loc 1 161 3 view .LVU142
 539              	.LBB190:
 540              	.LBI190:
 541              		.loc 2 374 20 view .LVU143
 542              	.LBE190:
 543              	.LBE205:
 544              	.LBE215:
 545              		.loc 2 376 3 view .LVU144
 546              	.LBB216:
 547              	.LBB206:
 548              	.LBB198:
 549              	.LBB191:
 550              	.LBI191:
 551              		.loc 3 594 20 view .LVU145
 552              	.LBE191:
 553              	.LBE198:
 554              	.LBE206:
 555              	.LBE216:
 556              		.loc 3 602 3 view .LVU146
 557              	.LBB217:
 558              	.LBB207:
 559              	.LBB199:
 560              	.LBB196:
 561              	.LBB192:
 562              	.LBI192:
 563              		.loc 4 262 57 view .LVU147
 564              	.LBB193:
 565              		.loc 4 264 3 view .LVU148
 566              	.LBE193:
 567              	.LBE192:
 568              	.LBE196:
 569              	.LBE199:
 570              	.LBE207:
ARM GAS  /tmp/cctGGKSH.s 			page 11


 571              	.LBE217:
 572              		.loc 1 200 8 is_stmt 0 view .LVU149
 573 0044 58B1     		cbz	r0, .L11
 574              	.LBB218:
 575              	.LBB208:
 576              	.LBB200:
 577              	.LBB197:
 578              	.LBB195:
 579              	.LBB194:
 580              		.loc 4 264 3 view .LVU150
 581              		.syntax unified
 582              	@ 264 "../../../os/common/ext/CMSIS/include/cmsis_gcc.h" 1
 583 0046 88F31188 		MSR basepri, r8
 584              	@ 0 "" 2
 585              	.LVL23:
 586              		.loc 4 264 3 view .LVU151
 587              		.thumb
 588              		.syntax unified
 589              	.LBE194:
 590              	.LBE195:
 591              	.LBE197:
 592              	.LBE200:
 593              	.LBE208:
 594              	.LBE218:
 595              		.loc 2 377 34 is_stmt 1 view .LVU152
 596              		.loc 2 378 20 view .LVU153
 597              	.LBB219:
 598              	.LBB209:
 599              		.loc 1 162 3 view .LVU154
 600              		.loc 1 170 5 view .LVU155
 601              		.loc 1 170 5 view .LVU156
 602              		.loc 1 170 5 view .LVU157
 603              		.loc 1 171 5 view .LVU158
 604              		.loc 1 162 7 is_stmt 0 view .LVU159
 605 004a 2C69     		ldr	r4, [r5, #16]
 606              	.LVL24:
 607              		.loc 1 164 3 is_stmt 1 view .LVU160
 608              		.loc 1 164 6 is_stmt 0 view .LVU161
 609 004c BC42     		cmp	r4, r7
 610 004e EAD1     		bne	.L13
 611              	.LVL25:
 612              		.loc 1 174 3 is_stmt 1 view .LVU162
 613              	.LBB201:
 614              		.loc 2 386 20 view .LVU163
 615              	.LBB187:
 616              		.loc 2 388 22 view .LVU164
 617              		.loc 2 389 33 view .LVU165
 618              		.loc 2 395 3 view .LVU166
 619              		.loc 2 395 3 view .LVU167
 620              		.loc 2 395 3 view .LVU168
 621              		.loc 2 399 3 view .LVU169
 622              	.LBB184:
 623              		.loc 3 618 20 view .LVU170
 624              	.LBE184:
 625              	.LBE187:
 626              	.LBE201:
 627              	.LBE209:
ARM GAS  /tmp/cctGGKSH.s 			page 12


 628              	.LBE219:
 629              		.loc 3 621 3 view .LVU171
 630              	.LBB220:
 631              	.LBB210:
 632              	.LBB202:
 633              	.LBB188:
 634              	.LBB185:
 635              	.LBB182:
 636              		.loc 4 262 57 view .LVU172
 637              	.LBB181:
 638              		.loc 4 264 3 view .LVU173
 639 0050 0024     		movs	r4, #0
 640              		.syntax unified
 641              	@ 264 "../../../os/common/ext/CMSIS/include/cmsis_gcc.h" 1
 642 0052 84F31188 		MSR basepri, r4
 643              	@ 0 "" 2
 644              	.LVL26:
 645              		.loc 4 264 3 is_stmt 0 view .LVU174
 646              		.thumb
 647              		.syntax unified
 648              	.LBE181:
 649              	.LBE182:
 650              	.LBE185:
 651              	.LBE188:
 652              	.LBE202:
 653              		.loc 1 176 3 is_stmt 1 view .LVU175
 654 0056 2846     		mov	r0, r5
 655 0058 FFF7FEFF 		bl	chThdRelease
 656              	.LVL27:
 657              		.loc 1 179 3 view .LVU176
 658              		.loc 1 179 3 is_stmt 0 view .LVU177
 659              	.LBE210:
 660              	.LBE220:
 661              		.loc 1 204 11 is_stmt 1 view .LVU178
 662              		.loc 1 206 10 is_stmt 0 view .LVU179
 663 005c 2546     		mov	r5, r4
 664              	.LVL28:
 665              	.L11:
 666              		.loc 1 207 1 view .LVU180
 667 005e 2846     		mov	r0, r5
 668 0060 BDE8F883 		pop	{r3, r4, r5, r6, r7, r8, r9, pc}
 669              	.LVL29:
 670              	.L20:
 671              		.loc 1 207 1 view .LVU181
 672              		.align	2
 673              	.L19:
 674 0064 00000000 		.word	ch
 675              		.cfi_endproc
 676              	.LFE248:
 677              		.size	chRegFindThreadByName, .-chRegFindThreadByName
 678              		.section	.text.chRegFindThreadByPointer,"ax",%progbits
 679              		.align	1
 680              		.p2align 4,,15
 681              		.global	chRegFindThreadByPointer
 682              		.syntax unified
 683              		.thumb
 684              		.thumb_func
ARM GAS  /tmp/cctGGKSH.s 			page 13


 685              		.fpu softvfp
 686              		.type	chRegFindThreadByPointer, %function
 687              	chRegFindThreadByPointer:
 688              	.LVL30:
 689              	.LFB249:
 690              		.loc 1 221 50 is_stmt 1 view -0
 691              		.cfi_startproc
 692              		@ args = 0, pretend = 0, frame = 0
 693              		@ frame_needed = 0, uses_anonymous_args = 0
 694              		.loc 1 222 3 view .LVU183
 695              		.loc 1 225 3 view .LVU184
 696              	.LBB243:
 697              	.LBI243:
 698              		.loc 1 134 11 view .LVU185
 699              	.LBB244:
 700              		.loc 1 135 3 view .LVU186
 701              		.loc 1 137 3 view .LVU187
 702              	.LBB245:
 703              	.LBI245:
 704              		.loc 2 374 20 view .LVU188
 705              	.LBE245:
 706              	.LBE244:
 707              	.LBE243:
 708              		.loc 2 376 3 view .LVU189
 709              	.LBB269:
 710              	.LBB264:
 711              	.LBB253:
 712              	.LBB246:
 713              	.LBI246:
 714              		.loc 3 594 20 view .LVU190
 715              	.LBE246:
 716              	.LBE253:
 717              	.LBE264:
 718              	.LBE269:
 719              		.loc 3 602 3 view .LVU191
 720              	.LBB270:
 721              	.LBB265:
 722              	.LBB254:
 723              	.LBB251:
 724              	.LBB247:
 725              	.LBI247:
 726              		.loc 4 262 57 view .LVU192
 727              	.LBB248:
 728              		.loc 4 264 3 view .LVU193
 729              	.LBE248:
 730              	.LBE247:
 731              	.LBE251:
 732              	.LBE254:
 733              	.LBE265:
 734              	.LBE270:
 735              		.loc 1 221 50 is_stmt 0 view .LVU194
 736 0000 2DE9F041 		push	{r4, r5, r6, r7, r8, lr}
 737              		.cfi_def_cfa_offset 24
 738              		.cfi_offset 4, -24
 739              		.cfi_offset 5, -20
 740              		.cfi_offset 6, -16
 741              		.cfi_offset 7, -12
ARM GAS  /tmp/cctGGKSH.s 			page 14


 742              		.cfi_offset 8, -8
 743              		.cfi_offset 14, -4
 744              	.LBB271:
 745              	.LBB266:
 746              	.LBB255:
 747              	.LBB252:
 748              	.LBB250:
 749              	.LBB249:
 750              		.loc 4 264 3 view .LVU195
 751 0004 2027     		movs	r7, #32
 752              		.syntax unified
 753              	@ 264 "../../../os/common/ext/CMSIS/include/cmsis_gcc.h" 1
 754 0006 87F31188 		MSR basepri, r7
 755              	@ 0 "" 2
 756              	.LVL31:
 757              		.loc 4 264 3 view .LVU196
 758              		.thumb
 759              		.syntax unified
 760              	.LBE249:
 761              	.LBE250:
 762              	.LBE252:
 763              	.LBE255:
 764              	.LBE266:
 765              	.LBE271:
 766              		.loc 2 377 34 is_stmt 1 view .LVU197
 767              		.loc 2 378 20 view .LVU198
 768              	.LBB272:
 769              	.LBB267:
 770              		.loc 1 138 3 view .LVU199
 771              		.loc 1 138 6 is_stmt 0 view .LVU200
 772 000a 144E     		ldr	r6, .L27
 773 000c 3469     		ldr	r4, [r6, #16]
 774              	.LVL32:
 775              		.loc 1 140 3 is_stmt 1 view .LVU201
 776              		.loc 1 140 11 is_stmt 0 view .LVU202
 777 000e 94F82230 		ldrb	r3, [r4, #34]	@ zero_extendqisi2
 778 0012 0133     		adds	r3, r3, #1
 779 0014 84F82230 		strb	r3, [r4, #34]
 780              		.loc 1 142 3 is_stmt 1 view .LVU203
 781              	.LBB256:
 782              	.LBI256:
 783              		.loc 2 386 20 view .LVU204
 784              	.LBB257:
 785              		.loc 2 388 22 view .LVU205
 786              		.loc 2 389 33 view .LVU206
 787              		.loc 2 395 3 view .LVU207
 788              		.loc 2 395 3 view .LVU208
 789              		.loc 2 395 3 view .LVU209
 790              		.loc 2 399 3 view .LVU210
 791              	.LBB258:
 792              	.LBI258:
 793              		.loc 3 618 20 view .LVU211
 794              	.LBE258:
 795              	.LBE257:
 796              	.LBE256:
 797              	.LBE267:
 798              	.LBE272:
ARM GAS  /tmp/cctGGKSH.s 			page 15


 799              		.loc 3 621 3 view .LVU212
 800              	.LVL33:
 801              	.LBB273:
 802              	.LBB268:
 803              	.LBB263:
 804              	.LBB262:
 805              	.LBB261:
 806              	.LBB259:
 807              	.LBI259:
 808              		.loc 4 262 57 view .LVU213
 809              	.LBB260:
 810              		.loc 4 264 3 view .LVU214
 811 0018 4FF00008 		mov	r8, #0
 812              		.syntax unified
 813              	@ 264 "../../../os/common/ext/CMSIS/include/cmsis_gcc.h" 1
 814 001c 88F31188 		MSR basepri, r8
 815              	@ 0 "" 2
 816              	.LVL34:
 817              		.loc 4 264 3 is_stmt 0 view .LVU215
 818              		.thumb
 819              		.syntax unified
 820              	.LBE260:
 821              	.LBE259:
 822              	.LBE261:
 823              	.LBE262:
 824              	.LBE263:
 825              		.loc 1 144 3 is_stmt 1 view .LVU216
 826              		.loc 1 144 3 is_stmt 0 view .LVU217
 827              	.LBE268:
 828              	.LBE273:
 829              		.loc 1 226 3 is_stmt 1 view .LVU218
 830              		.loc 1 227 5 view .LVU219
 831              		.loc 1 227 8 is_stmt 0 view .LVU220
 832 0020 A042     		cmp	r0, r4
 833 0022 17D0     		beq	.L21
 834 0024 0546     		mov	r5, r0
 835 0026 0AE0     		b	.L24
 836              	.LVL35:
 837              	.L23:
 838              	.LBB274:
 839              	.LBB275:
 840              		.loc 1 171 14 view .LVU221
 841 0028 94F82230 		ldrb	r3, [r4, #34]	@ zero_extendqisi2
 842 002c 0133     		adds	r3, r3, #1
 843 002e 84F82230 		strb	r3, [r4, #34]
 844              		.loc 1 174 3 is_stmt 1 view .LVU222
 845              	.LBB276:
 846              	.LBI276:
 847              		.loc 2 386 20 view .LVU223
 848              	.LBB277:
 849              		.loc 2 388 22 view .LVU224
 850              		.loc 2 389 33 view .LVU225
 851              		.loc 2 395 3 view .LVU226
 852              		.loc 2 395 3 view .LVU227
 853              		.loc 2 395 3 view .LVU228
 854              		.loc 2 399 3 view .LVU229
 855              	.LBB278:
ARM GAS  /tmp/cctGGKSH.s 			page 16


 856              	.LBI278:
 857              		.loc 3 618 20 view .LVU230
 858              	.LBE278:
 859              	.LBE277:
 860              	.LBE276:
 861              	.LBE275:
 862              	.LBE274:
 863              		.loc 3 621 3 view .LVU231
 864              	.LVL36:
 865              	.LBB305:
 866              	.LBB299:
 867              	.LBB289:
 868              	.LBB286:
 869              	.LBB283:
 870              	.LBB279:
 871              	.LBI279:
 872              		.loc 4 262 57 view .LVU232
 873              	.LBB280:
 874              		.loc 4 264 3 view .LVU233
 875              		.syntax unified
 876              	@ 264 "../../../os/common/ext/CMSIS/include/cmsis_gcc.h" 1
 877 0032 88F31188 		MSR basepri, r8
 878              	@ 0 "" 2
 879              	.LVL37:
 880              		.loc 4 264 3 is_stmt 0 view .LVU234
 881              		.thumb
 882              		.syntax unified
 883              	.LBE280:
 884              	.LBE279:
 885              	.LBE283:
 886              	.LBE286:
 887              	.LBE289:
 888              		.loc 1 176 3 is_stmt 1 view .LVU235
 889 0036 FFF7FEFF 		bl	chThdRelease
 890              	.LVL38:
 891              		.loc 1 179 3 view .LVU236
 892              		.loc 1 179 3 is_stmt 0 view .LVU237
 893              	.LBE299:
 894              	.LBE305:
 895              		.loc 1 231 11 is_stmt 1 view .LVU238
 896              		.loc 1 226 3 view .LVU239
 897              		.loc 1 227 5 view .LVU240
 898              		.loc 1 227 8 is_stmt 0 view .LVU241
 899 003a A542     		cmp	r5, r4
 900 003c 0AD0     		beq	.L21
 901              	.L24:
 902              		.loc 1 230 5 is_stmt 1 view .LVU242
 903              	.LVL39:
 904              	.LBB306:
 905              	.LBI274:
 906              		.loc 1 158 11 view .LVU243
 907              	.LBB300:
 908              		.loc 1 159 3 view .LVU244
 909              		.loc 1 161 3 view .LVU245
 910              	.LBB290:
 911              	.LBI290:
 912              		.loc 2 374 20 view .LVU246
ARM GAS  /tmp/cctGGKSH.s 			page 17


 913              	.LBE290:
 914              	.LBE300:
 915              	.LBE306:
 916              		.loc 2 376 3 view .LVU247
 917              	.LBB307:
 918              	.LBB301:
 919              	.LBB295:
 920              	.LBB291:
 921              	.LBI291:
 922              		.loc 3 594 20 view .LVU248
 923              	.LBE291:
 924              	.LBE295:
 925              	.LBE301:
 926              	.LBE307:
 927              		.loc 3 602 3 view .LVU249
 928              	.LBB308:
 929              	.LBB302:
 930              	.LBB296:
 931              	.LBB294:
 932              	.LBB292:
 933              	.LBI292:
 934              		.loc 4 262 57 view .LVU250
 935              	.LBB293:
 936              		.loc 4 264 3 view .LVU251
 937              		.syntax unified
 938              	@ 264 "../../../os/common/ext/CMSIS/include/cmsis_gcc.h" 1
 939 003e 87F31188 		MSR basepri, r7
 940              	@ 0 "" 2
 941              	.LVL40:
 942              		.loc 4 264 3 is_stmt 0 view .LVU252
 943              		.thumb
 944              		.syntax unified
 945              	.LBE293:
 946              	.LBE292:
 947              	.LBE294:
 948              	.LBE296:
 949              	.LBE302:
 950              	.LBE308:
 951              		.loc 2 377 34 is_stmt 1 view .LVU253
 952              		.loc 2 378 20 view .LVU254
 953              	.LBB309:
 954              	.LBB303:
 955              		.loc 1 162 3 view .LVU255
 956              		.loc 1 170 5 view .LVU256
 957              		.loc 1 170 5 view .LVU257
 958              		.loc 1 170 5 view .LVU258
 959              		.loc 1 171 5 view .LVU259
 960 0042 2046     		mov	r0, r4
 961              		.loc 1 162 7 is_stmt 0 view .LVU260
 962 0044 2469     		ldr	r4, [r4, #16]
 963              	.LVL41:
 964              		.loc 1 164 3 is_stmt 1 view .LVU261
 965              		.loc 1 164 6 is_stmt 0 view .LVU262
 966 0046 B442     		cmp	r4, r6
 967 0048 EED1     		bne	.L23
 968              	.LVL42:
 969              		.loc 1 174 3 is_stmt 1 view .LVU263
ARM GAS  /tmp/cctGGKSH.s 			page 18


 970              	.LBB297:
 971              		.loc 2 386 20 view .LVU264
 972              	.LBB287:
 973              		.loc 2 388 22 view .LVU265
 974              		.loc 2 389 33 view .LVU266
 975              		.loc 2 395 3 view .LVU267
 976              		.loc 2 395 3 view .LVU268
 977              		.loc 2 395 3 view .LVU269
 978              		.loc 2 399 3 view .LVU270
 979              	.LBB284:
 980              		.loc 3 618 20 view .LVU271
 981              	.LBE284:
 982              	.LBE287:
 983              	.LBE297:
 984              	.LBE303:
 985              	.LBE309:
 986              		.loc 3 621 3 view .LVU272
 987              	.LBB310:
 988              	.LBB304:
 989              	.LBB298:
 990              	.LBB288:
 991              	.LBB285:
 992              	.LBB282:
 993              		.loc 4 262 57 view .LVU273
 994              	.LBB281:
 995              		.loc 4 264 3 view .LVU274
 996 004a 0024     		movs	r4, #0
 997              		.syntax unified
 998              	@ 264 "../../../os/common/ext/CMSIS/include/cmsis_gcc.h" 1
 999 004c 84F31188 		MSR basepri, r4
 1000              	@ 0 "" 2
 1001              	.LVL43:
 1002              		.loc 4 264 3 is_stmt 0 view .LVU275
 1003              		.thumb
 1004              		.syntax unified
 1005              	.LBE281:
 1006              	.LBE282:
 1007              	.LBE285:
 1008              	.LBE288:
 1009              	.LBE298:
 1010              		.loc 1 176 3 is_stmt 1 view .LVU276
 1011 0050 FFF7FEFF 		bl	chThdRelease
 1012              	.LVL44:
 1013              		.loc 1 179 3 view .LVU277
 1014              		.loc 1 179 3 is_stmt 0 view .LVU278
 1015              	.LBE304:
 1016              	.LBE310:
 1017              		.loc 1 231 11 is_stmt 1 view .LVU279
 1018              	.L21:
 1019              		.loc 1 234 1 is_stmt 0 view .LVU280
 1020 0054 2046     		mov	r0, r4
 1021 0056 BDE8F081 		pop	{r4, r5, r6, r7, r8, pc}
 1022              	.L28:
 1023 005a 00BF     		.align	2
 1024              	.L27:
 1025 005c 00000000 		.word	ch
 1026              		.cfi_endproc
ARM GAS  /tmp/cctGGKSH.s 			page 19


 1027              	.LFE249:
 1028              		.size	chRegFindThreadByPointer, .-chRegFindThreadByPointer
 1029              		.section	.text.chRegFindThreadByWorkingArea,"ax",%progbits
 1030              		.align	1
 1031              		.p2align 4,,15
 1032              		.global	chRegFindThreadByWorkingArea
 1033              		.syntax unified
 1034              		.thumb
 1035              		.thumb_func
 1036              		.fpu softvfp
 1037              		.type	chRegFindThreadByWorkingArea, %function
 1038              	chRegFindThreadByWorkingArea:
 1039              	.LVL45:
 1040              	.LFB250:
 1041              		.loc 1 250 56 is_stmt 1 view -0
 1042              		.cfi_startproc
 1043              		@ args = 0, pretend = 0, frame = 0
 1044              		@ frame_needed = 0, uses_anonymous_args = 0
 1045              		.loc 1 251 3 view .LVU282
 1046              		.loc 1 254 3 view .LVU283
 1047              	.LBB335:
 1048              	.LBI335:
 1049              		.loc 1 134 11 view .LVU284
 1050              	.LBB336:
 1051              		.loc 1 135 3 view .LVU285
 1052              		.loc 1 137 3 view .LVU286
 1053              	.LBB337:
 1054              	.LBI337:
 1055              		.loc 2 374 20 view .LVU287
 1056              	.LBE337:
 1057              	.LBE336:
 1058              	.LBE335:
 1059              		.loc 2 376 3 view .LVU288
 1060              	.LBB361:
 1061              	.LBB356:
 1062              	.LBB345:
 1063              	.LBB338:
 1064              	.LBI338:
 1065              		.loc 3 594 20 view .LVU289
 1066              	.LBE338:
 1067              	.LBE345:
 1068              	.LBE356:
 1069              	.LBE361:
 1070              		.loc 3 602 3 view .LVU290
 1071              	.LBB362:
 1072              	.LBB357:
 1073              	.LBB346:
 1074              	.LBB343:
 1075              	.LBB339:
 1076              	.LBI339:
 1077              		.loc 4 262 57 view .LVU291
 1078              	.LBB340:
 1079              		.loc 4 264 3 view .LVU292
 1080              	.LBE340:
 1081              	.LBE339:
 1082              	.LBE343:
 1083              	.LBE346:
ARM GAS  /tmp/cctGGKSH.s 			page 20


 1084              	.LBE357:
 1085              	.LBE362:
 1086              		.loc 1 250 56 is_stmt 0 view .LVU293
 1087 0000 2DE9F041 		push	{r4, r5, r6, r7, r8, lr}
 1088              		.cfi_def_cfa_offset 24
 1089              		.cfi_offset 4, -24
 1090              		.cfi_offset 5, -20
 1091              		.cfi_offset 6, -16
 1092              		.cfi_offset 7, -12
 1093              		.cfi_offset 8, -8
 1094              		.cfi_offset 14, -4
 1095              	.LBB363:
 1096              	.LBB358:
 1097              	.LBB347:
 1098              	.LBB344:
 1099              	.LBB342:
 1100              	.LBB341:
 1101              		.loc 4 264 3 view .LVU294
 1102 0004 2027     		movs	r7, #32
 1103              		.syntax unified
 1104              	@ 264 "../../../os/common/ext/CMSIS/include/cmsis_gcc.h" 1
 1105 0006 87F31188 		MSR basepri, r7
 1106              	@ 0 "" 2
 1107              	.LVL46:
 1108              		.loc 4 264 3 view .LVU295
 1109              		.thumb
 1110              		.syntax unified
 1111              	.LBE341:
 1112              	.LBE342:
 1113              	.LBE344:
 1114              	.LBE347:
 1115              	.LBE358:
 1116              	.LBE363:
 1117              		.loc 2 377 34 is_stmt 1 view .LVU296
 1118              		.loc 2 378 20 view .LVU297
 1119              	.LBB364:
 1120              	.LBB359:
 1121              		.loc 1 138 3 view .LVU298
 1122              		.loc 1 138 6 is_stmt 0 view .LVU299
 1123 000a 154E     		ldr	r6, .L35
 1124 000c 3469     		ldr	r4, [r6, #16]
 1125              	.LVL47:
 1126              		.loc 1 140 3 is_stmt 1 view .LVU300
 1127              		.loc 1 140 11 is_stmt 0 view .LVU301
 1128 000e 94F82230 		ldrb	r3, [r4, #34]	@ zero_extendqisi2
 1129 0012 0133     		adds	r3, r3, #1
 1130 0014 84F82230 		strb	r3, [r4, #34]
 1131              		.loc 1 142 3 is_stmt 1 view .LVU302
 1132              	.LBB348:
 1133              	.LBI348:
 1134              		.loc 2 386 20 view .LVU303
 1135              	.LBB349:
 1136              		.loc 2 388 22 view .LVU304
 1137              		.loc 2 389 33 view .LVU305
 1138              		.loc 2 395 3 view .LVU306
 1139              		.loc 2 395 3 view .LVU307
 1140              		.loc 2 395 3 view .LVU308
ARM GAS  /tmp/cctGGKSH.s 			page 21


 1141              		.loc 2 399 3 view .LVU309
 1142              	.LBB350:
 1143              	.LBI350:
 1144              		.loc 3 618 20 view .LVU310
 1145              	.LBE350:
 1146              	.LBE349:
 1147              	.LBE348:
 1148              	.LBE359:
 1149              	.LBE364:
 1150              		.loc 3 621 3 view .LVU311
 1151              	.LVL48:
 1152              	.LBB365:
 1153              	.LBB360:
 1154              	.LBB355:
 1155              	.LBB354:
 1156              	.LBB353:
 1157              	.LBB351:
 1158              	.LBI351:
 1159              		.loc 4 262 57 view .LVU312
 1160              	.LBB352:
 1161              		.loc 4 264 3 view .LVU313
 1162 0018 4FF00008 		mov	r8, #0
 1163              		.syntax unified
 1164              	@ 264 "../../../os/common/ext/CMSIS/include/cmsis_gcc.h" 1
 1165 001c 88F31188 		MSR basepri, r8
 1166              	@ 0 "" 2
 1167              	.LVL49:
 1168              		.loc 4 264 3 is_stmt 0 view .LVU314
 1169              		.thumb
 1170              		.syntax unified
 1171              	.LBE352:
 1172              	.LBE351:
 1173              	.LBE353:
 1174              	.LBE354:
 1175              	.LBE355:
 1176              		.loc 1 144 3 is_stmt 1 view .LVU315
 1177              		.loc 1 144 3 is_stmt 0 view .LVU316
 1178              	.LBE360:
 1179              	.LBE365:
 1180              		.loc 1 255 3 is_stmt 1 view .LVU317
 1181              		.loc 1 256 5 view .LVU318
 1182              	.LBB366:
 1183              	.LBI366:
 1184              		.file 6 "../../../os/rt/include/chthreads.h"
 1185              		.loc 6 329 27 view .LVU319
 1186              	.LBB367:
 1187              		.loc 6 331 3 view .LVU320
 1188              		.loc 6 331 3 is_stmt 0 view .LVU321
 1189              	.LBE367:
 1190              	.LBE366:
 1191              		.loc 1 256 8 view .LVU322
 1192 0020 E369     		ldr	r3, [r4, #28]
 1193 0022 9842     		cmp	r0, r3
 1194 0024 18D0     		beq	.L29
 1195 0026 0546     		mov	r5, r0
 1196 0028 0BE0     		b	.L32
 1197              	.LVL50:
ARM GAS  /tmp/cctGGKSH.s 			page 22


 1198              	.L31:
 1199              	.LBB369:
 1200              	.LBB370:
 1201              		.loc 1 171 14 view .LVU323
 1202 002a 94F82230 		ldrb	r3, [r4, #34]	@ zero_extendqisi2
 1203 002e 0133     		adds	r3, r3, #1
 1204 0030 84F82230 		strb	r3, [r4, #34]
 1205              		.loc 1 174 3 is_stmt 1 view .LVU324
 1206              	.LBB371:
 1207              	.LBI371:
 1208              		.loc 2 386 20 view .LVU325
 1209              	.LBB372:
 1210              		.loc 2 388 22 view .LVU326
 1211              		.loc 2 389 33 view .LVU327
 1212              		.loc 2 395 3 view .LVU328
 1213              		.loc 2 395 3 view .LVU329
 1214              		.loc 2 395 3 view .LVU330
 1215              		.loc 2 399 3 view .LVU331
 1216              	.LBB373:
 1217              	.LBI373:
 1218              		.loc 3 618 20 view .LVU332
 1219              	.LBE373:
 1220              	.LBE372:
 1221              	.LBE371:
 1222              	.LBE370:
 1223              	.LBE369:
 1224              		.loc 3 621 3 view .LVU333
 1225              	.LVL51:
 1226              	.LBB400:
 1227              	.LBB394:
 1228              	.LBB384:
 1229              	.LBB381:
 1230              	.LBB378:
 1231              	.LBB374:
 1232              	.LBI374:
 1233              		.loc 4 262 57 view .LVU334
 1234              	.LBB375:
 1235              		.loc 4 264 3 view .LVU335
 1236              		.syntax unified
 1237              	@ 264 "../../../os/common/ext/CMSIS/include/cmsis_gcc.h" 1
 1238 0034 88F31188 		MSR basepri, r8
 1239              	@ 0 "" 2
 1240              	.LVL52:
 1241              		.loc 4 264 3 is_stmt 0 view .LVU336
 1242              		.thumb
 1243              		.syntax unified
 1244              	.LBE375:
 1245              	.LBE374:
 1246              	.LBE378:
 1247              	.LBE381:
 1248              	.LBE384:
 1249              		.loc 1 176 3 is_stmt 1 view .LVU337
 1250 0038 FFF7FEFF 		bl	chThdRelease
 1251              	.LVL53:
 1252              		.loc 1 179 3 view .LVU338
 1253              		.loc 1 179 3 is_stmt 0 view .LVU339
 1254              	.LBE394:
ARM GAS  /tmp/cctGGKSH.s 			page 23


 1255              	.LBE400:
 1256              		.loc 1 260 11 is_stmt 1 view .LVU340
 1257              		.loc 1 255 3 view .LVU341
 1258              		.loc 1 256 5 view .LVU342
 1259              	.LBB401:
 1260              		.loc 6 329 27 view .LVU343
 1261              	.LBB368:
 1262              		.loc 6 331 3 view .LVU344
 1263              		.loc 6 331 3 is_stmt 0 view .LVU345
 1264              	.LBE368:
 1265              	.LBE401:
 1266              		.loc 1 256 8 view .LVU346
 1267 003c E369     		ldr	r3, [r4, #28]
 1268 003e 9D42     		cmp	r5, r3
 1269 0040 0AD0     		beq	.L29
 1270              	.L32:
 1271              		.loc 1 259 5 is_stmt 1 view .LVU347
 1272              	.LVL54:
 1273              	.LBB402:
 1274              	.LBI369:
 1275              		.loc 1 158 11 view .LVU348
 1276              	.LBB395:
 1277              		.loc 1 159 3 view .LVU349
 1278              		.loc 1 161 3 view .LVU350
 1279              	.LBB385:
 1280              	.LBI385:
 1281              		.loc 2 374 20 view .LVU351
 1282              	.LBE385:
 1283              	.LBE395:
 1284              	.LBE402:
 1285              		.loc 2 376 3 view .LVU352
 1286              	.LBB403:
 1287              	.LBB396:
 1288              	.LBB390:
 1289              	.LBB386:
 1290              	.LBI386:
 1291              		.loc 3 594 20 view .LVU353
 1292              	.LBE386:
 1293              	.LBE390:
 1294              	.LBE396:
 1295              	.LBE403:
 1296              		.loc 3 602 3 view .LVU354
 1297              	.LBB404:
 1298              	.LBB397:
 1299              	.LBB391:
 1300              	.LBB389:
 1301              	.LBB387:
 1302              	.LBI387:
 1303              		.loc 4 262 57 view .LVU355
 1304              	.LBB388:
 1305              		.loc 4 264 3 view .LVU356
 1306              		.syntax unified
 1307              	@ 264 "../../../os/common/ext/CMSIS/include/cmsis_gcc.h" 1
 1308 0042 87F31188 		MSR basepri, r7
 1309              	@ 0 "" 2
 1310              	.LVL55:
 1311              		.loc 4 264 3 is_stmt 0 view .LVU357
ARM GAS  /tmp/cctGGKSH.s 			page 24


 1312              		.thumb
 1313              		.syntax unified
 1314              	.LBE388:
 1315              	.LBE387:
 1316              	.LBE389:
 1317              	.LBE391:
 1318              	.LBE397:
 1319              	.LBE404:
 1320              		.loc 2 377 34 is_stmt 1 view .LVU358
 1321              		.loc 2 378 20 view .LVU359
 1322              	.LBB405:
 1323              	.LBB398:
 1324              		.loc 1 162 3 view .LVU360
 1325              		.loc 1 170 5 view .LVU361
 1326              		.loc 1 170 5 view .LVU362
 1327              		.loc 1 170 5 view .LVU363
 1328              		.loc 1 171 5 view .LVU364
 1329 0046 2046     		mov	r0, r4
 1330              		.loc 1 162 7 is_stmt 0 view .LVU365
 1331 0048 2469     		ldr	r4, [r4, #16]
 1332              	.LVL56:
 1333              		.loc 1 164 3 is_stmt 1 view .LVU366
 1334              		.loc 1 164 6 is_stmt 0 view .LVU367
 1335 004a B442     		cmp	r4, r6
 1336 004c EDD1     		bne	.L31
 1337              	.LVL57:
 1338              		.loc 1 174 3 is_stmt 1 view .LVU368
 1339              	.LBB392:
 1340              		.loc 2 386 20 view .LVU369
 1341              	.LBB382:
 1342              		.loc 2 388 22 view .LVU370
 1343              		.loc 2 389 33 view .LVU371
 1344              		.loc 2 395 3 view .LVU372
 1345              		.loc 2 395 3 view .LVU373
 1346              		.loc 2 395 3 view .LVU374
 1347              		.loc 2 399 3 view .LVU375
 1348              	.LBB379:
 1349              		.loc 3 618 20 view .LVU376
 1350              	.LBE379:
 1351              	.LBE382:
 1352              	.LBE392:
 1353              	.LBE398:
 1354              	.LBE405:
 1355              		.loc 3 621 3 view .LVU377
 1356              	.LBB406:
 1357              	.LBB399:
 1358              	.LBB393:
 1359              	.LBB383:
 1360              	.LBB380:
 1361              	.LBB377:
 1362              		.loc 4 262 57 view .LVU378
 1363              	.LBB376:
 1364              		.loc 4 264 3 view .LVU379
 1365 004e 0024     		movs	r4, #0
 1366              		.syntax unified
 1367              	@ 264 "../../../os/common/ext/CMSIS/include/cmsis_gcc.h" 1
 1368 0050 84F31188 		MSR basepri, r4
ARM GAS  /tmp/cctGGKSH.s 			page 25


 1369              	@ 0 "" 2
 1370              	.LVL58:
 1371              		.loc 4 264 3 is_stmt 0 view .LVU380
 1372              		.thumb
 1373              		.syntax unified
 1374              	.LBE376:
 1375              	.LBE377:
 1376              	.LBE380:
 1377              	.LBE383:
 1378              	.LBE393:
 1379              		.loc 1 176 3 is_stmt 1 view .LVU381
 1380 0054 FFF7FEFF 		bl	chThdRelease
 1381              	.LVL59:
 1382              		.loc 1 179 3 view .LVU382
 1383              		.loc 1 179 3 is_stmt 0 view .LVU383
 1384              	.LBE399:
 1385              	.LBE406:
 1386              		.loc 1 260 11 is_stmt 1 view .LVU384
 1387              	.L29:
 1388              		.loc 1 263 1 is_stmt 0 view .LVU385
 1389 0058 2046     		mov	r0, r4
 1390 005a BDE8F081 		pop	{r4, r5, r6, r7, r8, pc}
 1391              	.L36:
 1392 005e 00BF     		.align	2
 1393              	.L35:
 1394 0060 00000000 		.word	ch
 1395              		.cfi_endproc
 1396              	.LFE250:
 1397              		.size	chRegFindThreadByWorkingArea, .-chRegFindThreadByWorkingArea
 1398              		.global	ch_debug
 1399              		.section	.rodata.ch_debug,"a"
 1400              		.align	2
 1401              		.type	ch_debug, %object
 1402              		.size	ch_debug, 22
 1403              	ch_debug:
 1404 0000 6D61696E 		.ascii	"main"
 1405 0004 00       		.byte	0
 1406 0005 16       		.byte	22
 1407 0006 0020     		.short	8192
 1408 0008 04       		.byte	4
 1409 0009 04       		.byte	4
 1410 000a 44       		.byte	68
 1411 000b 08       		.byte	8
 1412 000c 0C       		.byte	12
 1413 000d 10       		.byte	16
 1414 000e 14       		.byte	20
 1415 000f 18       		.byte	24
 1416 0010 1C       		.byte	28
 1417 0011 20       		.byte	32
 1418 0012 21       		.byte	33
 1419 0013 22       		.byte	34
 1420 0014 00       		.byte	0
 1421 0015 00       		.byte	0
 1422              		.text
 1423              	.Letext0:
 1424              		.file 7 "/usr/lib/gcc/arm-none-eabi/10.3.1/include/stddef.h"
 1425              		.file 8 "/usr/lib/gcc/arm-none-eabi/10.3.1/include/stdint.h"
ARM GAS  /tmp/cctGGKSH.s 			page 26


 1426              		.file 9 "../../../os/common/ports/ARMCMx/compilers/GCC/chtypes.h"
 1427              		.file 10 "../../../os/rt/include/chsystypes.h"
 1428              		.file 11 "../../../os/rt/include/chschd.h"
 1429              		.file 12 "../../../os/common/ports/ARMCMx/chcore.h"
 1430              		.file 13 "../../../os/rt/include/chtm.h"
 1431              		.file 14 "../../../os/rt/include/chsem.h"
 1432              		.file 15 "../../../os/rt/include/chmtx.h"
 1433              		.file 16 "/usr/include/newlib/string.h"