ARM GAS  /tmp/ccV644bk.s 			page 1


   1              		.cpu cortex-m4
   2              		.eabi_attribute 20, 1
   3              		.eabi_attribute 21, 1
   4              		.eabi_attribute 23, 3
   5              		.eabi_attribute 24, 1
   6              		.eabi_attribute 25, 1
   7              		.eabi_attribute 26, 1
   8              		.eabi_attribute 30, 2
   9              		.eabi_attribute 34, 1
  10              		.eabi_attribute 18, 4
  11              		.file	"chschd.c"
  12              		.text
  13              	.Ltext0:
  14              		.cfi_sections	.debug_frame
  15              		.section	.text.wakeup,"ax",%progbits
  16              		.align	1
  17              		.p2align 4,,15
  18              		.arch armv7e-m
  19              		.syntax unified
  20              		.thumb
  21              		.thumb_func
  22              		.fpu softvfp
  23              		.type	wakeup, %function
  24              	wakeup:
  25              	.LVL0:
  26              	.LFB250:
  27              		.file 1 "../../../os/rt/src/chschd.c"
  28              		.loc 1 319 29 view -0
  29              		.cfi_startproc
  30              		@ args = 0, pretend = 0, frame = 0
  31              		@ frame_needed = 0, uses_anonymous_args = 0
  32              		@ link register save eliminated.
  33              		.loc 1 320 3 view .LVU1
  34              		.loc 1 322 3 view .LVU2
  35              	.LBB92:
  36              	.LBI92:
  37              		.file 2 "../../../os/rt/include/chsys.h"
  38              		.loc 2 414 20 view .LVU3
  39              	.LBE92:
  40              		.loc 2 416 3 view .LVU4
  41              	.LBB100:
  42              	.LBB93:
  43              	.LBI93:
  44              		.file 3 "../../../os/common/ports/ARMCMx/chcore_v7m.h"
  45              		.loc 3 633 20 view .LVU5
  46              	.LBE93:
  47              	.LBE100:
  48              		.loc 3 635 3 view .LVU6
  49              	.LBB101:
  50              	.LBB98:
  51              	.LBB94:
  52              	.LBI94:
  53              		.loc 3 594 20 view .LVU7
  54              	.LBE94:
  55              	.LBE98:
  56              	.LBE101:
  57              		.loc 3 602 3 view .LVU8
ARM GAS  /tmp/ccV644bk.s 			page 2


  58              	.LBB102:
  59              	.LBB99:
  60              	.LBB97:
  61              	.LBB95:
  62              	.LBI95:
  63              		.file 4 "../../../os/common/ext/CMSIS/include/cmsis_gcc.h"
  64              		.loc 4 262 57 view .LVU9
  65              	.LBB96:
  66              		.loc 4 264 3 view .LVU10
  67 0000 2023     		movs	r3, #32
  68              		.syntax unified
  69              	@ 264 "../../../os/common/ext/CMSIS/include/cmsis_gcc.h" 1
  70 0002 83F31188 		MSR basepri, r3
  71              	@ 0 "" 2
  72              	.LVL1:
  73              		.loc 4 264 3 is_stmt 0 view .LVU11
  74              		.thumb
  75              		.syntax unified
  76              	.LBE96:
  77              	.LBE95:
  78              	.LBE97:
  79              	.LBE99:
  80              	.LBE102:
  81              		.loc 2 417 34 is_stmt 1 view .LVU12
  82              		.loc 2 418 29 view .LVU13
  83              		.loc 1 323 3 view .LVU14
  84 0006 90F82030 		ldrb	r3, [r0, #32]	@ zero_extendqisi2
  85 000a 072B     		cmp	r3, #7
  86 000c 0DD8     		bhi	.L2
  87 000e DFE803F0 		tbb	[pc, r3]
  88              	.L4:
  89 0012 27       		.byte	(.L7-.L4)/2
  90 0013 0C       		.byte	(.L2-.L4)/2
  91 0014 0C       		.byte	(.L2-.L4)/2
  92 0015 23       		.byte	(.L6-.L4)/2
  93 0016 08       		.byte	(.L3-.L4)/2
  94 0017 04       		.byte	(.L5-.L4)/2
  95 0018 0C       		.byte	(.L2-.L4)/2
  96 0019 08       		.byte	(.L3-.L4)/2
  97              		.p2align 1
  98              	.L5:
  99              		.loc 1 334 5 view .LVU15
 100              		.loc 1 334 27 is_stmt 0 view .LVU16
 101 001a 426A     		ldr	r2, [r0, #36]
 102              	.LVL2:
 103              	.LBB103:
 104              	.LBI103:
 105              		.file 5 "../../../os/rt/include/chsem.h"
 106              		.loc 5 134 20 is_stmt 1 view .LVU17
 107              	.LBB104:
 108              		.loc 5 136 21 view .LVU18
 109              		.loc 5 138 3 view .LVU19
 110              		.loc 5 138 10 is_stmt 0 view .LVU20
 111 001c 9368     		ldr	r3, [r2, #8]
 112 001e 0133     		adds	r3, r3, #1
 113 0020 9360     		str	r3, [r2, #8]
 114              	.LVL3:
ARM GAS  /tmp/ccV644bk.s 			page 3


 115              	.L3:
 116              		.loc 5 138 10 view .LVU21
 117              	.LBE104:
 118              	.LBE103:
 119              		.loc 1 342 5 is_stmt 1 view .LVU22
 120              	.LBB105:
 121              	.LBI105:
 122              		.file 6 "../../../os/rt/include/chschd.h"
 123              		.loc 6 635 25 view .LVU23
 124              	.LBB106:
 125              		.loc 6 637 3 view .LVU24
 126              		.loc 6 637 41 is_stmt 0 view .LVU25
 127 0022 D0E90032 		ldrd	r3, r2, [r0]
 128              		.loc 6 637 30 view .LVU26
 129 0026 1360     		str	r3, [r2]
 130              		.loc 6 638 3 is_stmt 1 view .LVU27
 131              		.loc 6 638 30 is_stmt 0 view .LVU28
 132 0028 5A60     		str	r2, [r3, #4]
 133              		.loc 6 640 3 is_stmt 1 view .LVU29
 134              	.LVL4:
 135              	.L2:
 136              		.loc 6 640 3 is_stmt 0 view .LVU30
 137              	.LBE106:
 138              	.LBE105:
 139              		.loc 1 348 3 is_stmt 1 view .LVU31
 140              		.loc 1 319 29 is_stmt 0 view .LVU32
 141 002a 10B4     		push	{r4}
 142              		.cfi_def_cfa_offset 4
 143              		.cfi_offset 4, -4
 144              	.LBB107:
 145              	.LBB108:
 146              		.loc 1 227 13 view .LVU33
 147 002c 0022     		movs	r2, #0
 148              	.LBE108:
 149              	.LBE107:
 150              		.loc 1 348 16 view .LVU34
 151 002e 4FF0FF34 		mov	r4, #-1
 152              	.LBB112:
 153              	.LBB109:
 154              		.loc 1 231 26 view .LVU35
 155 0032 8168     		ldr	r1, [r0, #8]
 156              		.loc 1 228 6 view .LVU36
 157 0034 0C4B     		ldr	r3, .L15
 158              	.LBE109:
 159              	.LBE112:
 160              		.loc 1 348 16 view .LVU37
 161 0036 4462     		str	r4, [r0, #36]
 162              		.loc 1 349 3 is_stmt 1 view .LVU38
 163              	.LVL5:
 164              	.LBB113:
 165              	.LBI107:
 166              		.loc 1 218 11 view .LVU39
 167              	.LBB110:
 168              		.loc 1 219 3 view .LVU40
 169              		.loc 1 221 21 view .LVU41
 170              		.loc 1 222 3 view .LVU42
 171              		.loc 1 222 3 view .LVU43
ARM GAS  /tmp/ccV644bk.s 			page 4


 172              		.loc 1 222 3 view .LVU44
 173              		.loc 1 223 3 view .LVU45
 174              		.loc 1 223 3 view .LVU46
 175              		.loc 1 223 3 view .LVU47
 176              		.loc 1 227 3 view .LVU48
 177              		.loc 1 227 13 is_stmt 0 view .LVU49
 178 0038 80F82020 		strb	r2, [r0, #32]
 179              		.loc 1 228 3 is_stmt 1 view .LVU50
 180              	.LVL6:
 181              	.L9:
 182              		.loc 1 229 3 view .LVU51
 183              		.loc 1 230 5 view .LVU52
 184              		.loc 1 230 8 is_stmt 0 view .LVU53
 185 003c 1B68     		ldr	r3, [r3]
 186              	.LVL7:
 187              		.loc 1 231 11 is_stmt 1 view .LVU54
 188              		.loc 1 231 3 is_stmt 0 view .LVU55
 189 003e 9A68     		ldr	r2, [r3, #8]
 190 0040 8A42     		cmp	r2, r1
 191 0042 FBD2     		bcs	.L9
 192              		.loc 1 233 3 is_stmt 1 view .LVU56
 193              		.loc 1 234 41 is_stmt 0 view .LVU57
 194 0044 5A68     		ldr	r2, [r3, #4]
 195              	.LBE110:
 196              	.LBE113:
 197              	.LBB114:
 198              	.LBB115:
 199              	.LBB116:
 200              	.LBB117:
 201              	.LBB118:
 202              	.LBB119:
 203              		.loc 4 264 3 view .LVU58
 204 0046 0021     		movs	r1, #0
 205              	.LBE119:
 206              	.LBE118:
 207              	.LBE117:
 208              	.LBE116:
 209              	.LBE115:
 210              	.LBE114:
 211              	.LBB130:
 212              	.LBB111:
 213              		.loc 1 234 30 view .LVU59
 214 0048 C0E90032 		strd	r3, r2, [r0]
 215              		.loc 1 235 3 is_stmt 1 view .LVU60
 216              		.loc 1 235 30 is_stmt 0 view .LVU61
 217 004c 1060     		str	r0, [r2]
 218              		.loc 1 236 3 is_stmt 1 view .LVU62
 219              		.loc 1 236 30 is_stmt 0 view .LVU63
 220 004e 5860     		str	r0, [r3, #4]
 221              		.loc 1 238 3 is_stmt 1 view .LVU64
 222              	.LVL8:
 223              		.loc 1 238 3 is_stmt 0 view .LVU65
 224              	.LBE111:
 225              	.LBE130:
 226              		.loc 1 350 3 is_stmt 1 view .LVU66
 227              	.LBB131:
 228              	.LBI114:
ARM GAS  /tmp/ccV644bk.s 			page 5


 229              		.loc 2 434 20 view .LVU67
 230              	.LBB127:
 231              		.loc 2 436 31 view .LVU68
 232              		.loc 2 437 33 view .LVU69
 233              		.loc 2 438 3 view .LVU70
 234              	.LBB124:
 235              	.LBI116:
 236              		.loc 3 644 20 view .LVU71
 237              	.LBE124:
 238              	.LBE127:
 239              	.LBE131:
 240              		.loc 3 646 3 view .LVU72
 241              	.LBB132:
 242              	.LBB128:
 243              	.LBB125:
 244              	.LBB122:
 245              	.LBI117:
 246              		.loc 3 618 20 view .LVU73
 247              	.LBE122:
 248              	.LBE125:
 249              	.LBE128:
 250              	.LBE132:
 251              		.loc 3 621 3 view .LVU74
 252              	.LBB133:
 253              	.LBB129:
 254              	.LBB126:
 255              	.LBB123:
 256              	.LBB121:
 257              	.LBI118:
 258              		.loc 4 262 57 view .LVU75
 259              	.LBB120:
 260              		.loc 4 264 3 view .LVU76
 261              		.syntax unified
 262              	@ 264 "../../../os/common/ext/CMSIS/include/cmsis_gcc.h" 1
 263 0050 81F31188 		MSR basepri, r1
 264              	@ 0 "" 2
 265              	.LVL9:
 266              		.loc 4 264 3 is_stmt 0 view .LVU77
 267              		.thumb
 268              		.syntax unified
 269              	.LBE120:
 270              	.LBE121:
 271              	.LBE123:
 272              	.LBE126:
 273              	.LBE129:
 274              	.LBE133:
 275              		.loc 1 351 1 view .LVU78
 276 0054 10BC     		pop	{r4}
 277              		.cfi_restore 4
 278              		.cfi_def_cfa_offset 0
 279 0056 7047     		bx	lr
 280              	.L6:
 281              		.loc 1 330 5 is_stmt 1 view .LVU79
 282              		.loc 1 330 11 is_stmt 0 view .LVU80
 283 0058 436A     		ldr	r3, [r0, #36]
 284              		.loc 1 330 18 view .LVU81
 285 005a 0022     		movs	r2, #0
ARM GAS  /tmp/ccV644bk.s 			page 6


 286 005c 1A60     		str	r2, [r3]
 287              		.loc 1 331 5 is_stmt 1 view .LVU82
 288 005e E4E7     		b	.L2
 289              	.L7:
 290              		.loc 1 327 5 view .LVU83
 291              	.LBB134:
 292              	.LBI134:
 293              		.loc 2 434 20 view .LVU84
 294              	.LBB135:
 295              		.loc 2 436 31 view .LVU85
 296              		.loc 2 437 33 view .LVU86
 297              		.loc 2 438 3 view .LVU87
 298              	.LBB136:
 299              	.LBI136:
 300              		.loc 3 644 20 view .LVU88
 301              	.LBE136:
 302              	.LBE135:
 303              	.LBE134:
 304              		.loc 3 646 3 view .LVU89
 305              	.LBB145:
 306              	.LBB143:
 307              	.LBB141:
 308              	.LBB137:
 309              	.LBI137:
 310              		.loc 3 618 20 view .LVU90
 311              	.LBE137:
 312              	.LBE141:
 313              	.LBE143:
 314              	.LBE145:
 315              		.loc 3 621 3 view .LVU91
 316              	.LVL10:
 317              	.LBB146:
 318              	.LBB144:
 319              	.LBB142:
 320              	.LBB140:
 321              	.LBB138:
 322              	.LBI138:
 323              		.loc 4 262 57 view .LVU92
 324              	.LBB139:
 325              		.loc 4 264 3 view .LVU93
 326 0060 0023     		movs	r3, #0
 327              		.syntax unified
 328              	@ 264 "../../../os/common/ext/CMSIS/include/cmsis_gcc.h" 1
 329 0062 83F31188 		MSR basepri, r3
 330              	@ 0 "" 2
 331              	.LVL11:
 332              		.loc 4 264 3 is_stmt 0 view .LVU94
 333              		.thumb
 334              		.syntax unified
 335 0066 7047     		bx	lr
 336              	.L16:
 337              		.align	2
 338              	.L15:
 339 0068 00000000 		.word	.LANCHOR0
 340              	.LBE139:
 341              	.LBE138:
 342              	.LBE140:
ARM GAS  /tmp/ccV644bk.s 			page 7


 343              	.LBE142:
 344              	.LBE144:
 345              	.LBE146:
 346              		.cfi_endproc
 347              	.LFE250:
 348              		.size	wakeup, .-wakeup
 349              		.section	.text._scheduler_init,"ax",%progbits
 350              		.align	1
 351              		.p2align 4,,15
 352              		.global	_scheduler_init
 353              		.syntax unified
 354              		.thumb
 355              		.thumb_func
 356              		.fpu softvfp
 357              		.type	_scheduler_init, %function
 358              	_scheduler_init:
 359              	.LFB246:
 360              		.loc 1 65 28 is_stmt 1 view -0
 361              		.cfi_startproc
 362              		@ args = 0, pretend = 0, frame = 0
 363              		@ frame_needed = 0, uses_anonymous_args = 0
 364              		@ link register save eliminated.
 365              		.loc 1 67 3 view .LVU96
 366              	.LVL12:
 367              	.LBB147:
 368              	.LBI147:
 369              		.loc 6 548 20 view .LVU97
 370              	.LBB148:
 371              		.loc 6 550 3 view .LVU98
 372              		.loc 6 550 13 is_stmt 0 view .LVU99
 373 0000 034B     		ldr	r3, .L18
 374              	.LBE148:
 375              	.LBE147:
 376              		.loc 1 68 17 view .LVU100
 377 0002 0022     		movs	r2, #0
 378              	.LBB150:
 379              	.LBB149:
 380              		.loc 6 551 13 view .LVU101
 381 0004 C3E90033 		strd	r3, r3, [r3]
 382              	.LVL13:
 383              		.loc 6 551 13 view .LVU102
 384              	.LBE149:
 385              	.LBE150:
 386              		.loc 1 68 3 is_stmt 1 view .LVU103
 387              		.loc 1 71 18 is_stmt 0 view .LVU104
 388 0008 C3E90433 		strd	r3, r3, [r3, #16]
 389              		.loc 1 68 17 view .LVU105
 390 000c 9A60     		str	r2, [r3, #8]
 391              		.loc 1 70 3 is_stmt 1 view .LVU106
 392              		.loc 1 73 1 is_stmt 0 view .LVU107
 393 000e 7047     		bx	lr
 394              	.L19:
 395              		.align	2
 396              	.L18:
 397 0010 00000000 		.word	.LANCHOR0
 398              		.cfi_endproc
 399              	.LFE246:
ARM GAS  /tmp/ccV644bk.s 			page 8


 400              		.size	_scheduler_init, .-_scheduler_init
 401              		.section	.text.chSchReadyI,"ax",%progbits
 402              		.align	1
 403              		.p2align 4,,15
 404              		.global	chSchReadyI
 405              		.syntax unified
 406              		.thumb
 407              		.thumb_func
 408              		.fpu softvfp
 409              		.type	chSchReadyI, %function
 410              	chSchReadyI:
 411              	.LVL14:
 412              	.LFB247:
 413              		.loc 1 218 37 is_stmt 1 view -0
 414              		.cfi_startproc
 415              		@ args = 0, pretend = 0, frame = 0
 416              		@ frame_needed = 0, uses_anonymous_args = 0
 417              		@ link register save eliminated.
 418              		.loc 1 219 3 view .LVU109
 419              		.loc 1 221 21 view .LVU110
 420              		.loc 1 222 3 view .LVU111
 421              		.loc 1 222 3 view .LVU112
 422              		.loc 1 222 3 view .LVU113
 423              		.loc 1 223 3 view .LVU114
 424              		.loc 1 223 3 view .LVU115
 425              		.loc 1 223 3 view .LVU116
 426              		.loc 1 227 3 view .LVU117
 427              		.loc 1 227 13 is_stmt 0 view .LVU118
 428 0000 0022     		movs	r2, #0
 429              		.loc 1 231 26 view .LVU119
 430 0002 8168     		ldr	r1, [r0, #8]
 431              		.loc 1 228 6 view .LVU120
 432 0004 064B     		ldr	r3, .L23
 433              		.loc 1 227 13 view .LVU121
 434 0006 80F82020 		strb	r2, [r0, #32]
 435              		.loc 1 228 3 is_stmt 1 view .LVU122
 436              	.LVL15:
 437              	.L21:
 438              		.loc 1 229 3 discriminator 1 view .LVU123
 439              		.loc 1 230 5 discriminator 1 view .LVU124
 440              		.loc 1 230 8 is_stmt 0 discriminator 1 view .LVU125
 441 000a 1B68     		ldr	r3, [r3]
 442              	.LVL16:
 443              		.loc 1 231 11 is_stmt 1 discriminator 1 view .LVU126
 444              		.loc 1 231 3 is_stmt 0 discriminator 1 view .LVU127
 445 000c 9A68     		ldr	r2, [r3, #8]
 446 000e 8A42     		cmp	r2, r1
 447 0010 FBD2     		bcs	.L21
 448              		.loc 1 233 3 is_stmt 1 view .LVU128
 449              		.loc 1 234 41 is_stmt 0 view .LVU129
 450 0012 5A68     		ldr	r2, [r3, #4]
 451              		.loc 1 234 30 view .LVU130
 452 0014 C0E90032 		strd	r3, r2, [r0]
 453              		.loc 1 235 3 is_stmt 1 view .LVU131
 454              		.loc 1 235 30 is_stmt 0 view .LVU132
 455 0018 1060     		str	r0, [r2]
 456              		.loc 1 236 3 is_stmt 1 view .LVU133
ARM GAS  /tmp/ccV644bk.s 			page 9


 457              		.loc 1 236 30 is_stmt 0 view .LVU134
 458 001a 5860     		str	r0, [r3, #4]
 459              		.loc 1 238 3 is_stmt 1 view .LVU135
 460              		.loc 1 239 1 is_stmt 0 view .LVU136
 461 001c 7047     		bx	lr
 462              	.L24:
 463 001e 00BF     		.align	2
 464              	.L23:
 465 0020 00000000 		.word	.LANCHOR0
 466              		.cfi_endproc
 467              	.LFE247:
 468              		.size	chSchReadyI, .-chSchReadyI
 469              		.section	.text.chSchReadyAheadI,"ax",%progbits
 470              		.align	1
 471              		.p2align 4,,15
 472              		.global	chSchReadyAheadI
 473              		.syntax unified
 474              		.thumb
 475              		.thumb_func
 476              		.fpu softvfp
 477              		.type	chSchReadyAheadI, %function
 478              	chSchReadyAheadI:
 479              	.LVL17:
 480              	.LFB248:
 481              		.loc 1 257 42 is_stmt 1 view -0
 482              		.cfi_startproc
 483              		@ args = 0, pretend = 0, frame = 0
 484              		@ frame_needed = 0, uses_anonymous_args = 0
 485              		@ link register save eliminated.
 486              		.loc 1 258 3 view .LVU138
 487              		.loc 1 260 21 view .LVU139
 488              		.loc 1 261 3 view .LVU140
 489              		.loc 1 261 3 view .LVU141
 490              		.loc 1 261 3 view .LVU142
 491              		.loc 1 262 3 view .LVU143
 492              		.loc 1 262 3 view .LVU144
 493              		.loc 1 262 3 view .LVU145
 494              		.loc 1 266 3 view .LVU146
 495              		.loc 1 266 13 is_stmt 0 view .LVU147
 496 0000 0022     		movs	r2, #0
 497              		.loc 1 270 25 view .LVU148
 498 0002 8168     		ldr	r1, [r0, #8]
 499              		.loc 1 267 6 view .LVU149
 500 0004 064B     		ldr	r3, .L28
 501              		.loc 1 266 13 view .LVU150
 502 0006 80F82020 		strb	r2, [r0, #32]
 503              		.loc 1 267 3 is_stmt 1 view .LVU151
 504              	.LVL18:
 505              	.L26:
 506              		.loc 1 268 3 discriminator 1 view .LVU152
 507              		.loc 1 269 5 discriminator 1 view .LVU153
 508              		.loc 1 269 8 is_stmt 0 discriminator 1 view .LVU154
 509 000a 1B68     		ldr	r3, [r3]
 510              	.LVL19:
 511              		.loc 1 270 11 is_stmt 1 discriminator 1 view .LVU155
 512              		.loc 1 270 3 is_stmt 0 discriminator 1 view .LVU156
 513 000c 9A68     		ldr	r2, [r3, #8]
ARM GAS  /tmp/ccV644bk.s 			page 10


 514 000e 8A42     		cmp	r2, r1
 515 0010 FBD8     		bhi	.L26
 516              		.loc 1 272 3 is_stmt 1 view .LVU157
 517              		.loc 1 273 41 is_stmt 0 view .LVU158
 518 0012 5A68     		ldr	r2, [r3, #4]
 519              		.loc 1 273 30 view .LVU159
 520 0014 C0E90032 		strd	r3, r2, [r0]
 521              		.loc 1 274 3 is_stmt 1 view .LVU160
 522              		.loc 1 274 30 is_stmt 0 view .LVU161
 523 0018 1060     		str	r0, [r2]
 524              		.loc 1 275 3 is_stmt 1 view .LVU162
 525              		.loc 1 275 30 is_stmt 0 view .LVU163
 526 001a 5860     		str	r0, [r3, #4]
 527              		.loc 1 277 3 is_stmt 1 view .LVU164
 528              		.loc 1 278 1 is_stmt 0 view .LVU165
 529 001c 7047     		bx	lr
 530              	.L29:
 531 001e 00BF     		.align	2
 532              	.L28:
 533 0020 00000000 		.word	.LANCHOR0
 534              		.cfi_endproc
 535              	.LFE248:
 536              		.size	chSchReadyAheadI, .-chSchReadyAheadI
 537              		.section	.text.chSchGoSleepS,"ax",%progbits
 538              		.align	1
 539              		.p2align 4,,15
 540              		.global	chSchGoSleepS
 541              		.syntax unified
 542              		.thumb
 543              		.thumb_func
 544              		.fpu softvfp
 545              		.type	chSchGoSleepS, %function
 546              	chSchGoSleepS:
 547              	.LVL20:
 548              	.LFB249:
 549              		.loc 1 289 39 is_stmt 1 view -0
 550              		.cfi_startproc
 551              		@ args = 0, pretend = 0, frame = 0
 552              		@ frame_needed = 0, uses_anonymous_args = 0
 553              		@ link register save eliminated.
 554              		.loc 1 290 3 view .LVU167
 555              		.loc 1 290 13 is_stmt 0 view .LVU168
 556 0000 084B     		ldr	r3, .L32
 557 0002 9969     		ldr	r1, [r3, #24]
 558              	.LVL21:
 559              		.loc 1 292 21 is_stmt 1 view .LVU169
 560              		.loc 1 295 3 view .LVU170
 561              	.LBB153:
 562              	.LBB154:
 563              		.loc 6 618 13 is_stmt 0 view .LVU171
 564 0004 1A68     		ldr	r2, [r3]
 565              	.LBE154:
 566              	.LBE153:
 567              		.loc 1 289 39 view .LVU172
 568 0006 10B4     		push	{r4}
 569              		.cfi_def_cfa_offset 4
 570              		.cfi_offset 4, -4
ARM GAS  /tmp/ccV644bk.s 			page 11


 571              		.loc 1 295 14 view .LVU173
 572 0008 81F82000 		strb	r0, [r1, #32]
 573              		.loc 1 304 3 is_stmt 1 view .LVU174
 574              	.LVL22:
 575              	.LBB157:
 576              	.LBI153:
 577              		.loc 6 617 25 view .LVU175
 578              	.LBB155:
 579              		.loc 6 618 3 view .LVU176
 580              		.loc 6 620 3 view .LVU177
 581              		.loc 6 620 36 is_stmt 0 view .LVU178
 582 000c 1468     		ldr	r4, [r2]
 583              		.loc 6 620 25 view .LVU179
 584 000e 1C60     		str	r4, [r3]
 585              		.loc 6 621 3 is_stmt 1 view .LVU180
 586              		.loc 6 623 3 view .LVU181
 587              	.LVL23:
 588              		.loc 6 623 3 is_stmt 0 view .LVU182
 589              	.LBE155:
 590              	.LBE157:
 591              		.loc 1 305 16 view .LVU183
 592 0010 0120     		movs	r0, #1
 593              	.LVL24:
 594              	.LBB158:
 595              	.LBB156:
 596              		.loc 6 621 25 view .LVU184
 597 0012 6360     		str	r3, [r4, #4]
 598              	.LVL25:
 599              		.loc 6 621 25 view .LVU185
 600              	.LBE156:
 601              	.LBE158:
 602              		.loc 1 305 16 view .LVU186
 603 0014 82F82000 		strb	r0, [r2, #32]
 604              		.loc 1 314 1 view .LVU187
 605 0018 10BC     		pop	{r4}
 606              		.cfi_restore 4
 607              		.cfi_def_cfa_offset 0
 608              		.loc 1 304 9 view .LVU188
 609 001a 9A61     		str	r2, [r3, #24]
 610              		.loc 1 305 3 is_stmt 1 view .LVU189
 611              		.loc 1 308 3 view .LVU190
 612              		.loc 1 309 5 view .LVU191
 613              		.loc 1 309 29 view .LVU192
 614              		.loc 1 313 3 view .LVU193
 615              		.loc 1 313 3 view .LVU194
 616              		.loc 1 313 3 view .LVU195
 617              		.loc 1 313 3 view .LVU196
 618              		.loc 1 313 3 view .LVU197
 619 001c 1046     		mov	r0, r2
 620 001e FFF7FEBF 		b	_port_switch
 621              	.LVL26:
 622              	.L33:
 623              		.loc 1 313 3 is_stmt 0 view .LVU198
 624 0022 00BF     		.align	2
 625              	.L32:
 626 0024 00000000 		.word	.LANCHOR0
 627              		.cfi_endproc
ARM GAS  /tmp/ccV644bk.s 			page 12


 628              	.LFE249:
 629              		.size	chSchGoSleepS, .-chSchGoSleepS
 630              		.section	.text.chSchGoSleepTimeoutS,"ax",%progbits
 631              		.align	1
 632              		.p2align 4,,15
 633              		.global	chSchGoSleepTimeoutS
 634              		.syntax unified
 635              		.thumb
 636              		.thumb_func
 637              		.fpu softvfp
 638              		.type	chSchGoSleepTimeoutS, %function
 639              	chSchGoSleepTimeoutS:
 640              	.LVL27:
 641              	.LFB251:
 642              		.loc 1 374 63 is_stmt 1 view -0
 643              		.cfi_startproc
 644              		@ args = 0, pretend = 0, frame = 24
 645              		@ frame_needed = 0, uses_anonymous_args = 0
 646              		.loc 1 376 21 view .LVU200
 647              		.loc 1 378 3 view .LVU201
 648              		.loc 1 374 63 is_stmt 0 view .LVU202
 649 0000 30B5     		push	{r4, r5, lr}
 650              		.cfi_def_cfa_offset 12
 651              		.cfi_offset 4, -12
 652              		.cfi_offset 5, -8
 653              		.cfi_offset 14, -4
 654              		.loc 1 378 6 view .LVU203
 655 0002 4B1C     		adds	r3, r1, #1
 656              	.LBB170:
 657              		.loc 1 381 35 view .LVU204
 658 0004 174C     		ldr	r4, .L42
 659              	.LBE170:
 660              		.loc 1 374 63 view .LVU205
 661 0006 87B0     		sub	sp, sp, #28
 662              		.cfi_def_cfa_offset 40
 663              		.loc 1 374 63 view .LVU206
 664 0008 0546     		mov	r5, r0
 665              		.loc 1 378 6 view .LVU207
 666 000a 1AD0     		beq	.L35
 667              	.LBB179:
 668              		.loc 1 379 5 is_stmt 1 view .LVU208
 669              		.loc 1 381 5 view .LVU209
 670 000c A369     		ldr	r3, [r4, #24]
 671 000e 164A     		ldr	r2, .L42+4
 672 0010 01A8     		add	r0, sp, #4
 673              	.LVL28:
 674              		.loc 1 381 5 is_stmt 0 view .LVU210
 675 0012 FFF7FEFF 		bl	chVTDoSetI
 676              	.LVL29:
 677              		.loc 1 382 5 is_stmt 1 view .LVU211
 678              	.LBB171:
 679              	.LBI171:
 680              		.loc 1 289 6 view .LVU212
 681              	.LBB172:
 682              		.loc 1 290 3 view .LVU213
 683              		.loc 1 290 13 is_stmt 0 view .LVU214
 684 0016 A169     		ldr	r1, [r4, #24]
ARM GAS  /tmp/ccV644bk.s 			page 13


 685              	.LVL30:
 686              		.loc 1 292 21 is_stmt 1 view .LVU215
 687              		.loc 1 295 3 view .LVU216
 688              	.LBB173:
 689              	.LBB174:
 690              		.loc 6 618 13 is_stmt 0 view .LVU217
 691 0018 2068     		ldr	r0, [r4]
 692              	.LBE174:
 693              	.LBE173:
 694              		.loc 1 295 14 view .LVU218
 695 001a 81F82050 		strb	r5, [r1, #32]
 696              		.loc 1 304 3 is_stmt 1 view .LVU219
 697              	.LVL31:
 698              	.LBB176:
 699              	.LBI173:
 700              		.loc 6 617 25 view .LVU220
 701              	.LBB175:
 702              		.loc 6 618 3 view .LVU221
 703              		.loc 6 620 3 view .LVU222
 704              		.loc 6 620 36 is_stmt 0 view .LVU223
 705 001e 0368     		ldr	r3, [r0]
 706              		.loc 6 620 25 view .LVU224
 707 0020 2360     		str	r3, [r4]
 708              		.loc 6 621 3 is_stmt 1 view .LVU225
 709              		.loc 6 621 25 is_stmt 0 view .LVU226
 710 0022 5C60     		str	r4, [r3, #4]
 711              		.loc 6 623 3 is_stmt 1 view .LVU227
 712              	.LVL32:
 713              		.loc 6 623 3 is_stmt 0 view .LVU228
 714              	.LBE175:
 715              	.LBE176:
 716              		.loc 1 305 16 view .LVU229
 717 0024 0123     		movs	r3, #1
 718 0026 80F82030 		strb	r3, [r0, #32]
 719              		.loc 1 304 9 view .LVU230
 720 002a A061     		str	r0, [r4, #24]
 721              		.loc 1 305 3 is_stmt 1 view .LVU231
 722              		.loc 1 308 3 view .LVU232
 723              		.loc 1 309 5 view .LVU233
 724              		.loc 1 309 29 view .LVU234
 725              		.loc 1 313 3 view .LVU235
 726              		.loc 1 313 3 view .LVU236
 727              		.loc 1 313 3 view .LVU237
 728              		.loc 1 313 3 view .LVU238
 729              		.loc 1 313 3 view .LVU239
 730 002c FFF7FEFF 		bl	_port_switch
 731              	.LVL33:
 732              		.loc 1 313 26 view .LVU240
 733              		.loc 1 313 26 is_stmt 0 view .LVU241
 734              	.LBE172:
 735              	.LBE171:
 736              		.loc 1 383 5 is_stmt 1 view .LVU242
 737              	.LBB177:
 738              	.LBI177:
 739              		.file 7 "../../../os/rt/include/chvt.h"
 740              		.loc 7 537 20 view .LVU243
 741              	.LBB178:
ARM GAS  /tmp/ccV644bk.s 			page 14


 742              		.loc 7 539 21 view .LVU244
 743              		.loc 7 541 3 view .LVU245
 744              		.loc 7 541 3 is_stmt 0 view .LVU246
 745              	.LBE178:
 746              	.LBE177:
 747              		.loc 1 383 8 view .LVU247
 748 0030 049B     		ldr	r3, [sp, #16]
 749 0032 13B1     		cbz	r3, .L37
 750              		.loc 1 384 7 is_stmt 1 view .LVU248
 751 0034 01A8     		add	r0, sp, #4
 752 0036 FFF7FEFF 		bl	chVTDoResetI
 753              	.LVL34:
 754              	.L37:
 755              	.LBE179:
 756              		.loc 1 391 3 view .LVU249
 757              		.loc 1 391 18 is_stmt 0 view .LVU250
 758 003a A369     		ldr	r3, [r4, #24]
 759              		.loc 1 392 1 view .LVU251
 760 003c 586A     		ldr	r0, [r3, #36]
 761 003e 07B0     		add	sp, sp, #28
 762              		.cfi_remember_state
 763              		.cfi_def_cfa_offset 12
 764              		@ sp needed
 765 0040 30BD     		pop	{r4, r5, pc}
 766              	.LVL35:
 767              	.L35:
 768              		.cfi_restore_state
 769              		.loc 1 388 5 is_stmt 1 view .LVU252
 770              	.LBB180:
 771              	.LBI180:
 772              		.loc 1 289 6 view .LVU253
 773              	.LBB181:
 774              		.loc 1 290 3 view .LVU254
 775              		.loc 1 290 13 is_stmt 0 view .LVU255
 776 0042 A169     		ldr	r1, [r4, #24]
 777              	.LVL36:
 778              		.loc 1 292 21 is_stmt 1 view .LVU256
 779              		.loc 1 295 3 view .LVU257
 780              	.LBB182:
 781              	.LBB183:
 782              		.loc 6 618 13 is_stmt 0 view .LVU258
 783 0044 2068     		ldr	r0, [r4]
 784              	.LVL37:
 785              		.loc 6 618 13 view .LVU259
 786              	.LBE183:
 787              	.LBE182:
 788              		.loc 1 295 14 view .LVU260
 789 0046 81F82050 		strb	r5, [r1, #32]
 790              		.loc 1 304 3 is_stmt 1 view .LVU261
 791              	.LVL38:
 792              	.LBB186:
 793              	.LBI182:
 794              		.loc 6 617 25 view .LVU262
 795              	.LBB184:
 796              		.loc 6 618 3 view .LVU263
 797              		.loc 6 620 3 view .LVU264
 798              		.loc 6 620 36 is_stmt 0 view .LVU265
ARM GAS  /tmp/ccV644bk.s 			page 15


 799 004a 0368     		ldr	r3, [r0]
 800              	.LVL39:
 801              		.loc 6 620 25 view .LVU266
 802 004c 2360     		str	r3, [r4]
 803              		.loc 6 621 3 is_stmt 1 view .LVU267
 804              	.LBE184:
 805              	.LBE186:
 806              		.loc 1 305 16 is_stmt 0 view .LVU268
 807 004e 0122     		movs	r2, #1
 808              	.LBB187:
 809              	.LBB185:
 810              		.loc 6 621 25 view .LVU269
 811 0050 5C60     		str	r4, [r3, #4]
 812              		.loc 6 623 3 is_stmt 1 view .LVU270
 813              	.LVL40:
 814              		.loc 6 623 3 is_stmt 0 view .LVU271
 815              	.LBE185:
 816              	.LBE187:
 817              		.loc 1 305 16 view .LVU272
 818 0052 80F82020 		strb	r2, [r0, #32]
 819              		.loc 1 304 9 view .LVU273
 820 0056 A061     		str	r0, [r4, #24]
 821              		.loc 1 305 3 is_stmt 1 view .LVU274
 822              		.loc 1 308 3 view .LVU275
 823              		.loc 1 309 5 view .LVU276
 824              		.loc 1 309 29 view .LVU277
 825              		.loc 1 313 3 view .LVU278
 826              		.loc 1 313 3 view .LVU279
 827              		.loc 1 313 3 view .LVU280
 828              		.loc 1 313 3 view .LVU281
 829              		.loc 1 313 3 view .LVU282
 830 0058 FFF7FEFF 		bl	_port_switch
 831              	.LVL41:
 832              		.loc 1 313 26 view .LVU283
 833              		.loc 1 313 26 is_stmt 0 view .LVU284
 834              	.LBE181:
 835              	.LBE180:
 836              		.loc 1 391 3 is_stmt 1 view .LVU285
 837              		.loc 1 391 18 is_stmt 0 view .LVU286
 838 005c A369     		ldr	r3, [r4, #24]
 839              		.loc 1 392 1 view .LVU287
 840 005e 586A     		ldr	r0, [r3, #36]
 841 0060 07B0     		add	sp, sp, #28
 842              		.cfi_def_cfa_offset 12
 843              		@ sp needed
 844 0062 30BD     		pop	{r4, r5, pc}
 845              	.L43:
 846              		.align	2
 847              	.L42:
 848 0064 00000000 		.word	.LANCHOR0
 849 0068 00000000 		.word	wakeup
 850              		.cfi_endproc
 851              	.LFE251:
 852              		.size	chSchGoSleepTimeoutS, .-chSchGoSleepTimeoutS
 853              		.section	.text.chSchWakeupS,"ax",%progbits
 854              		.align	1
 855              		.p2align 4,,15
ARM GAS  /tmp/ccV644bk.s 			page 16


 856              		.global	chSchWakeupS
 857              		.syntax unified
 858              		.thumb
 859              		.thumb_func
 860              		.fpu softvfp
 861              		.type	chSchWakeupS, %function
 862              	chSchWakeupS:
 863              	.LVL42:
 864              	.LFB252:
 865              		.loc 1 411 45 is_stmt 1 view -0
 866              		.cfi_startproc
 867              		@ args = 0, pretend = 0, frame = 0
 868              		@ frame_needed = 0, uses_anonymous_args = 0
 869              		@ link register save eliminated.
 870              		.loc 1 412 3 view .LVU289
 871              		.loc 1 411 45 is_stmt 0 view .LVU290
 872 0000 70B4     		push	{r4, r5, r6}
 873              		.cfi_def_cfa_offset 12
 874              		.cfi_offset 4, -12
 875              		.cfi_offset 5, -8
 876              		.cfi_offset 6, -4
 877              		.loc 1 412 13 view .LVU291
 878 0002 154C     		ldr	r4, .L54
 879              		.loc 1 428 10 view .LVU292
 880 0004 8668     		ldr	r6, [r0, #8]
 881              		.loc 1 412 13 view .LVU293
 882 0006 A569     		ldr	r5, [r4, #24]
 883              	.LVL43:
 884              		.loc 1 414 21 is_stmt 1 view .LVU294
 885              		.loc 1 416 3 view .LVU295
 886              		.loc 1 416 3 view .LVU296
 887              		.loc 1 416 3 view .LVU297
 888              		.loc 1 422 3 view .LVU298
 889              		.loc 1 422 17 is_stmt 0 view .LVU299
 890 0008 4162     		str	r1, [r0, #36]
 891              		.loc 1 428 3 is_stmt 1 view .LVU300
 892              		.loc 1 428 23 is_stmt 0 view .LVU301
 893 000a A968     		ldr	r1, [r5, #8]
 894              	.LVL44:
 895              		.loc 1 428 6 view .LVU302
 896 000c 8E42     		cmp	r6, r1
 897              	.LBB192:
 898              	.LBB193:
 899              		.loc 1 227 13 view .LVU303
 900 000e 4FF00003 		mov	r3, #0
 901              	.LBE193:
 902              	.LBE192:
 903              		.loc 1 428 6 view .LVU304
 904 0012 13D9     		bls	.L53
 905              		.loc 1 432 5 is_stmt 1 view .LVU305
 906              	.LVL45:
 907              	.LBB195:
 908              	.LBI195:
 909              		.loc 1 218 11 view .LVU306
 910              	.LBB196:
 911              		.loc 1 219 3 view .LVU307
 912              		.loc 1 221 21 view .LVU308
ARM GAS  /tmp/ccV644bk.s 			page 17


 913              		.loc 1 222 3 view .LVU309
 914              		.loc 1 222 3 view .LVU310
 915              		.loc 1 222 3 view .LVU311
 916              		.loc 1 223 3 view .LVU312
 917              		.loc 1 223 3 view .LVU313
 918              		.loc 1 223 3 view .LVU314
 919              		.loc 1 227 3 view .LVU315
 920              		.loc 1 227 13 is_stmt 0 view .LVU316
 921 0014 85F82030 		strb	r3, [r5, #32]
 922              	.LVL46:
 923              		.loc 1 228 3 is_stmt 1 view .LVU317
 924              		.loc 1 228 6 is_stmt 0 view .LVU318
 925 0018 2346     		mov	r3, r4
 926              	.LVL47:
 927              	.L48:
 928              		.loc 1 229 3 is_stmt 1 view .LVU319
 929              		.loc 1 230 5 view .LVU320
 930              		.loc 1 230 8 is_stmt 0 view .LVU321
 931 001a 1B68     		ldr	r3, [r3]
 932              	.LVL48:
 933              		.loc 1 231 11 is_stmt 1 view .LVU322
 934              		.loc 1 231 3 is_stmt 0 view .LVU323
 935 001c 9A68     		ldr	r2, [r3, #8]
 936 001e 9142     		cmp	r1, r2
 937 0020 FBD9     		bls	.L48
 938              		.loc 1 233 3 is_stmt 1 view .LVU324
 939              		.loc 1 234 41 is_stmt 0 view .LVU325
 940 0022 5A68     		ldr	r2, [r3, #4]
 941              		.loc 1 234 30 view .LVU326
 942 0024 C5E90032 		strd	r3, r2, [r5]
 943              		.loc 1 235 3 is_stmt 1 view .LVU327
 944              		.loc 1 235 30 is_stmt 0 view .LVU328
 945 0028 1560     		str	r5, [r2]
 946              		.loc 1 236 3 is_stmt 1 view .LVU329
 947              	.LBE196:
 948              	.LBE195:
 949              		.loc 1 441 16 is_stmt 0 view .LVU330
 950 002a 0122     		movs	r2, #1
 951              	.LBB198:
 952              	.LBB197:
 953              		.loc 1 236 30 view .LVU331
 954 002c 5D60     		str	r5, [r3, #4]
 955              		.loc 1 238 3 is_stmt 1 view .LVU332
 956              	.LVL49:
 957              		.loc 1 238 3 is_stmt 0 view .LVU333
 958              	.LBE197:
 959              	.LBE198:
 960              		.loc 1 435 5 is_stmt 1 view .LVU334
 961              		.loc 1 436 7 view .LVU335
 962              		.loc 1 436 31 view .LVU336
 963              		.loc 1 440 5 view .LVU337
 964              		.loc 1 444 5 is_stmt 0 view .LVU338
 965 002e 2946     		mov	r1, r5
 966              		.loc 1 440 11 view .LVU339
 967 0030 A061     		str	r0, [r4, #24]
 968              		.loc 1 441 5 is_stmt 1 view .LVU340
 969              		.loc 1 444 5 view .LVU341
ARM GAS  /tmp/ccV644bk.s 			page 18


 970              		.loc 1 444 5 view .LVU342
 971              		.loc 1 444 5 view .LVU343
 972              		.loc 1 444 5 view .LVU344
 973              		.loc 1 444 5 view .LVU345
 974              		.loc 1 441 16 is_stmt 0 view .LVU346
 975 0032 80F82020 		strb	r2, [r0, #32]
 976              	.LVL50:
 977              		.loc 1 446 1 view .LVU347
 978 0036 70BC     		pop	{r4, r5, r6}
 979              		.cfi_remember_state
 980              		.cfi_restore 6
 981              		.cfi_restore 5
 982              		.cfi_restore 4
 983              		.cfi_def_cfa_offset 0
 984              		.loc 1 444 5 view .LVU348
 985 0038 FFF7FEBF 		b	_port_switch
 986              	.LVL51:
 987              	.L53:
 988              		.cfi_restore_state
 989              		.loc 1 429 5 is_stmt 1 view .LVU349
 990              	.LBB199:
 991              	.LBI192:
 992              		.loc 1 218 11 view .LVU350
 993              	.LBB194:
 994              		.loc 1 219 3 view .LVU351
 995              		.loc 1 221 21 view .LVU352
 996              		.loc 1 222 3 view .LVU353
 997              		.loc 1 222 3 view .LVU354
 998              		.loc 1 222 3 view .LVU355
 999              		.loc 1 223 3 view .LVU356
 1000              		.loc 1 223 3 view .LVU357
 1001              		.loc 1 223 3 view .LVU358
 1002              		.loc 1 227 3 view .LVU359
 1003              		.loc 1 227 13 is_stmt 0 view .LVU360
 1004 003c 80F82030 		strb	r3, [r0, #32]
 1005              		.loc 1 228 3 is_stmt 1 view .LVU361
 1006              	.LVL52:
 1007              	.L46:
 1008              		.loc 1 229 3 view .LVU362
 1009              		.loc 1 230 5 view .LVU363
 1010              		.loc 1 230 8 is_stmt 0 view .LVU364
 1011 0040 2468     		ldr	r4, [r4]
 1012              	.LVL53:
 1013              		.loc 1 231 11 is_stmt 1 view .LVU365
 1014              		.loc 1 231 3 is_stmt 0 view .LVU366
 1015 0042 A268     		ldr	r2, [r4, #8]
 1016 0044 9642     		cmp	r6, r2
 1017 0046 FBD9     		bls	.L46
 1018              		.loc 1 233 3 is_stmt 1 view .LVU367
 1019              		.loc 1 234 41 is_stmt 0 view .LVU368
 1020 0048 6268     		ldr	r2, [r4, #4]
 1021              		.loc 1 234 30 view .LVU369
 1022 004a C0E90042 		strd	r4, r2, [r0]
 1023              		.loc 1 235 3 is_stmt 1 view .LVU370
 1024              		.loc 1 235 30 is_stmt 0 view .LVU371
 1025 004e 1060     		str	r0, [r2]
 1026              		.loc 1 236 3 is_stmt 1 view .LVU372
ARM GAS  /tmp/ccV644bk.s 			page 19


 1027              		.loc 1 236 30 is_stmt 0 view .LVU373
 1028 0050 6060     		str	r0, [r4, #4]
 1029              		.loc 1 238 3 is_stmt 1 view .LVU374
 1030              	.LBE194:
 1031              	.LBE199:
 1032              		.loc 1 446 1 is_stmt 0 view .LVU375
 1033 0052 70BC     		pop	{r4, r5, r6}
 1034              		.cfi_restore 6
 1035              		.cfi_restore 5
 1036              		.cfi_restore 4
 1037              		.cfi_def_cfa_offset 0
 1038              	.LVL54:
 1039              		.loc 1 446 1 view .LVU376
 1040 0054 7047     		bx	lr
 1041              	.L55:
 1042 0056 00BF     		.align	2
 1043              	.L54:
 1044 0058 00000000 		.word	.LANCHOR0
 1045              		.cfi_endproc
 1046              	.LFE252:
 1047              		.size	chSchWakeupS, .-chSchWakeupS
 1048              		.section	.text.chSchIsPreemptionRequired,"ax",%progbits
 1049              		.align	1
 1050              		.p2align 4,,15
 1051              		.global	chSchIsPreemptionRequired
 1052              		.syntax unified
 1053              		.thumb
 1054              		.thumb_func
 1055              		.fpu softvfp
 1056              		.type	chSchIsPreemptionRequired, %function
 1057              	chSchIsPreemptionRequired:
 1058              	.LFB254:
 1059              		.loc 1 477 38 is_stmt 1 view -0
 1060              		.cfi_startproc
 1061              		@ args = 0, pretend = 0, frame = 0
 1062              		@ frame_needed = 0, uses_anonymous_args = 0
 1063              		@ link register save eliminated.
 1064              		.loc 1 478 3 view .LVU378
 1065              	.LVL55:
 1066              		.loc 1 479 3 view .LVU379
 1067              		.loc 1 490 3 view .LVU380
 1068              		.loc 1 478 16 is_stmt 0 view .LVU381
 1069 0000 044B     		ldr	r3, .L57
 1070              		.loc 1 478 11 view .LVU382
 1071 0002 1A68     		ldr	r2, [r3]
 1072              		.loc 1 479 11 view .LVU383
 1073 0004 9B69     		ldr	r3, [r3, #24]
 1074              		.loc 1 490 13 view .LVU384
 1075 0006 9068     		ldr	r0, [r2, #8]
 1076 0008 9B68     		ldr	r3, [r3, #8]
 1077              		.loc 1 492 1 view .LVU385
 1078 000a 9842     		cmp	r0, r3
 1079 000c 94BF     		ite	ls
 1080 000e 0020     		movls	r0, #0
 1081 0010 0120     		movhi	r0, #1
 1082 0012 7047     		bx	lr
 1083              	.L58:
ARM GAS  /tmp/ccV644bk.s 			page 20


 1084              		.align	2
 1085              	.L57:
 1086 0014 00000000 		.word	.LANCHOR0
 1087              		.cfi_endproc
 1088              	.LFE254:
 1089              		.size	chSchIsPreemptionRequired, .-chSchIsPreemptionRequired
 1090              		.section	.text.chSchDoRescheduleBehind,"ax",%progbits
 1091              		.align	1
 1092              		.p2align 4,,15
 1093              		.global	chSchDoRescheduleBehind
 1094              		.syntax unified
 1095              		.thumb
 1096              		.thumb_func
 1097              		.fpu softvfp
 1098              		.type	chSchDoRescheduleBehind, %function
 1099              	chSchDoRescheduleBehind:
 1100              	.LFB255:
 1101              		.loc 1 504 36 is_stmt 1 view -0
 1102              		.cfi_startproc
 1103              		@ args = 0, pretend = 0, frame = 0
 1104              		@ frame_needed = 0, uses_anonymous_args = 0
 1105              		@ link register save eliminated.
 1106              		.loc 1 505 3 view .LVU387
 1107              		.loc 1 505 13 is_stmt 0 view .LVU388
 1108 0000 0D4B     		ldr	r3, .L63
 1109              	.LBB200:
 1110              	.LBB201:
 1111              		.loc 6 618 13 view .LVU389
 1112 0002 1868     		ldr	r0, [r3]
 1113              	.LBE201:
 1114              	.LBE200:
 1115              		.loc 1 505 13 view .LVU390
 1116 0004 9969     		ldr	r1, [r3, #24]
 1117              	.LVL56:
 1118              		.loc 1 508 3 is_stmt 1 view .LVU391
 1119              	.LBB204:
 1120              	.LBI200:
 1121              		.loc 6 617 25 view .LVU392
 1122              	.LBB202:
 1123              		.loc 6 618 3 view .LVU393
 1124              		.loc 6 620 3 view .LVU394
 1125              		.loc 6 620 36 is_stmt 0 view .LVU395
 1126 0006 0268     		ldr	r2, [r0]
 1127              	.LBE202:
 1128              	.LBE204:
 1129              		.loc 1 504 36 view .LVU396
 1130 0008 10B4     		push	{r4}
 1131              		.cfi_def_cfa_offset 4
 1132              		.cfi_offset 4, -4
 1133              		.loc 1 509 16 view .LVU397
 1134 000a 0124     		movs	r4, #1
 1135              	.LBB205:
 1136              	.LBB203:
 1137              		.loc 6 621 25 view .LVU398
 1138 000c 5360     		str	r3, [r2, #4]
 1139              		.loc 6 620 25 view .LVU399
 1140 000e 1A60     		str	r2, [r3]
ARM GAS  /tmp/ccV644bk.s 			page 21


 1141              		.loc 6 621 3 is_stmt 1 view .LVU400
 1142              		.loc 6 623 3 view .LVU401
 1143              	.LVL57:
 1144              		.loc 6 623 3 is_stmt 0 view .LVU402
 1145              	.LBE203:
 1146              	.LBE205:
 1147              		.loc 1 509 16 view .LVU403
 1148 0010 80F82040 		strb	r4, [r0, #32]
 1149              	.LBB206:
 1150              	.LBB207:
 1151              		.loc 1 227 13 view .LVU404
 1152 0014 0022     		movs	r2, #0
 1153              	.LBE207:
 1154              	.LBE206:
 1155              		.loc 1 512 10 view .LVU405
 1156 0016 8C68     		ldr	r4, [r1, #8]
 1157              	.LBB211:
 1158              	.LBB208:
 1159              		.loc 1 227 13 view .LVU406
 1160 0018 81F82020 		strb	r2, [r1, #32]
 1161              	.LBE208:
 1162              	.LBE211:
 1163              		.loc 1 508 9 view .LVU407
 1164 001c 9861     		str	r0, [r3, #24]
 1165              		.loc 1 509 3 is_stmt 1 view .LVU408
 1166              		.loc 1 512 3 view .LVU409
 1167              		.loc 1 513 5 view .LVU410
 1168              		.loc 1 513 29 view .LVU411
 1169              		.loc 1 522 3 view .LVU412
 1170              	.LVL58:
 1171              	.LBB212:
 1172              	.LBI206:
 1173              		.loc 1 218 11 view .LVU413
 1174              	.LBB209:
 1175              		.loc 1 219 3 view .LVU414
 1176              		.loc 1 221 21 view .LVU415
 1177              		.loc 1 222 3 view .LVU416
 1178              		.loc 1 222 3 view .LVU417
 1179              		.loc 1 222 3 view .LVU418
 1180              		.loc 1 223 3 view .LVU419
 1181              		.loc 1 223 3 view .LVU420
 1182              		.loc 1 223 3 view .LVU421
 1183              		.loc 1 227 3 view .LVU422
 1184              		.loc 1 228 3 view .LVU423
 1185              	.L60:
 1186              		.loc 1 229 3 view .LVU424
 1187              		.loc 1 230 5 view .LVU425
 1188              		.loc 1 230 8 is_stmt 0 view .LVU426
 1189 001e 1B68     		ldr	r3, [r3]
 1190              	.LVL59:
 1191              		.loc 1 231 11 is_stmt 1 view .LVU427
 1192              		.loc 1 231 3 is_stmt 0 view .LVU428
 1193 0020 9A68     		ldr	r2, [r3, #8]
 1194 0022 9442     		cmp	r4, r2
 1195 0024 FBD9     		bls	.L60
 1196              		.loc 1 233 3 is_stmt 1 view .LVU429
 1197              		.loc 1 234 41 is_stmt 0 view .LVU430
ARM GAS  /tmp/ccV644bk.s 			page 22


 1198 0026 5A68     		ldr	r2, [r3, #4]
 1199              	.LBE209:
 1200              	.LBE212:
 1201              		.loc 1 526 1 view .LVU431
 1202 0028 10BC     		pop	{r4}
 1203              		.cfi_restore 4
 1204              		.cfi_def_cfa_offset 0
 1205              	.LBB213:
 1206              	.LBB210:
 1207              		.loc 1 234 30 view .LVU432
 1208 002a C1E90032 		strd	r3, r2, [r1]
 1209              		.loc 1 235 3 is_stmt 1 view .LVU433
 1210              		.loc 1 235 30 is_stmt 0 view .LVU434
 1211 002e 1160     		str	r1, [r2]
 1212              		.loc 1 236 3 is_stmt 1 view .LVU435
 1213              		.loc 1 236 30 is_stmt 0 view .LVU436
 1214 0030 5960     		str	r1, [r3, #4]
 1215              		.loc 1 238 3 is_stmt 1 view .LVU437
 1216              	.LVL60:
 1217              		.loc 1 238 3 is_stmt 0 view .LVU438
 1218              	.LBE210:
 1219              	.LBE213:
 1220              		.loc 1 525 3 is_stmt 1 view .LVU439
 1221              		.loc 1 525 3 view .LVU440
 1222              		.loc 1 525 3 view .LVU441
 1223              		.loc 1 525 3 view .LVU442
 1224              		.loc 1 525 3 view .LVU443
 1225 0032 FFF7FEBF 		b	_port_switch
 1226              	.LVL61:
 1227              	.L64:
 1228              		.loc 1 525 3 is_stmt 0 view .LVU444
 1229 0036 00BF     		.align	2
 1230              	.L63:
 1231 0038 00000000 		.word	.LANCHOR0
 1232              		.cfi_endproc
 1233              	.LFE255:
 1234              		.size	chSchDoRescheduleBehind, .-chSchDoRescheduleBehind
 1235              		.section	.text.chSchDoRescheduleAhead,"ax",%progbits
 1236              		.align	1
 1237              		.p2align 4,,15
 1238              		.global	chSchDoRescheduleAhead
 1239              		.syntax unified
 1240              		.thumb
 1241              		.thumb_func
 1242              		.fpu softvfp
 1243              		.type	chSchDoRescheduleAhead, %function
 1244              	chSchDoRescheduleAhead:
 1245              	.LFB256:
 1246              		.loc 1 537 35 is_stmt 1 view -0
 1247              		.cfi_startproc
 1248              		@ args = 0, pretend = 0, frame = 0
 1249              		@ frame_needed = 0, uses_anonymous_args = 0
 1250              		@ link register save eliminated.
 1251              		.loc 1 538 3 view .LVU446
 1252              		.loc 1 538 13 is_stmt 0 view .LVU447
 1253 0000 0D4B     		ldr	r3, .L69
 1254              	.LBB214:
ARM GAS  /tmp/ccV644bk.s 			page 23


 1255              	.LBB215:
 1256              		.loc 6 618 13 view .LVU448
 1257 0002 1868     		ldr	r0, [r3]
 1258              	.LBE215:
 1259              	.LBE214:
 1260              		.loc 1 538 13 view .LVU449
 1261 0004 9969     		ldr	r1, [r3, #24]
 1262              	.LVL62:
 1263              		.loc 1 541 3 is_stmt 1 view .LVU450
 1264              	.LBB218:
 1265              	.LBI214:
 1266              		.loc 6 617 25 view .LVU451
 1267              	.LBB216:
 1268              		.loc 6 618 3 view .LVU452
 1269              		.loc 6 620 3 view .LVU453
 1270              		.loc 6 620 36 is_stmt 0 view .LVU454
 1271 0006 0268     		ldr	r2, [r0]
 1272              	.LBE216:
 1273              	.LBE218:
 1274              		.loc 1 537 35 view .LVU455
 1275 0008 10B4     		push	{r4}
 1276              		.cfi_def_cfa_offset 4
 1277              		.cfi_offset 4, -4
 1278              		.loc 1 542 16 view .LVU456
 1279 000a 0124     		movs	r4, #1
 1280              	.LBB219:
 1281              	.LBB217:
 1282              		.loc 6 621 25 view .LVU457
 1283 000c 5360     		str	r3, [r2, #4]
 1284              		.loc 6 620 25 view .LVU458
 1285 000e 1A60     		str	r2, [r3]
 1286              		.loc 6 621 3 is_stmt 1 view .LVU459
 1287              		.loc 6 623 3 view .LVU460
 1288              	.LVL63:
 1289              		.loc 6 623 3 is_stmt 0 view .LVU461
 1290              	.LBE217:
 1291              	.LBE219:
 1292              		.loc 1 542 16 view .LVU462
 1293 0010 80F82040 		strb	r4, [r0, #32]
 1294              	.LBB220:
 1295              	.LBB221:
 1296              		.loc 1 266 13 view .LVU463
 1297 0014 0022     		movs	r2, #0
 1298              	.LBE221:
 1299              	.LBE220:
 1300              		.loc 1 545 10 view .LVU464
 1301 0016 8C68     		ldr	r4, [r1, #8]
 1302              	.LBB225:
 1303              	.LBB222:
 1304              		.loc 1 266 13 view .LVU465
 1305 0018 81F82020 		strb	r2, [r1, #32]
 1306              	.LBE222:
 1307              	.LBE225:
 1308              		.loc 1 541 9 view .LVU466
 1309 001c 9861     		str	r0, [r3, #24]
 1310              		.loc 1 542 3 is_stmt 1 view .LVU467
 1311              		.loc 1 545 3 view .LVU468
ARM GAS  /tmp/ccV644bk.s 			page 24


 1312              		.loc 1 546 5 view .LVU469
 1313              		.loc 1 546 29 view .LVU470
 1314              		.loc 1 550 3 view .LVU471
 1315              	.LVL64:
 1316              	.LBB226:
 1317              	.LBI220:
 1318              		.loc 1 257 11 view .LVU472
 1319              	.LBB223:
 1320              		.loc 1 258 3 view .LVU473
 1321              		.loc 1 260 21 view .LVU474
 1322              		.loc 1 261 3 view .LVU475
 1323              		.loc 1 261 3 view .LVU476
 1324              		.loc 1 261 3 view .LVU477
 1325              		.loc 1 262 3 view .LVU478
 1326              		.loc 1 262 3 view .LVU479
 1327              		.loc 1 262 3 view .LVU480
 1328              		.loc 1 266 3 view .LVU481
 1329              		.loc 1 267 3 view .LVU482
 1330              	.L66:
 1331              		.loc 1 268 3 view .LVU483
 1332              		.loc 1 269 5 view .LVU484
 1333              		.loc 1 269 8 is_stmt 0 view .LVU485
 1334 001e 1B68     		ldr	r3, [r3]
 1335              	.LVL65:
 1336              		.loc 1 270 11 is_stmt 1 view .LVU486
 1337              		.loc 1 270 3 is_stmt 0 view .LVU487
 1338 0020 9A68     		ldr	r2, [r3, #8]
 1339 0022 9442     		cmp	r4, r2
 1340 0024 FBD3     		bcc	.L66
 1341              		.loc 1 272 3 is_stmt 1 view .LVU488
 1342              		.loc 1 273 41 is_stmt 0 view .LVU489
 1343 0026 5A68     		ldr	r2, [r3, #4]
 1344              	.LBE223:
 1345              	.LBE226:
 1346              		.loc 1 554 1 view .LVU490
 1347 0028 10BC     		pop	{r4}
 1348              		.cfi_restore 4
 1349              		.cfi_def_cfa_offset 0
 1350              	.LBB227:
 1351              	.LBB224:
 1352              		.loc 1 273 30 view .LVU491
 1353 002a C1E90032 		strd	r3, r2, [r1]
 1354              		.loc 1 274 3 is_stmt 1 view .LVU492
 1355              		.loc 1 274 30 is_stmt 0 view .LVU493
 1356 002e 1160     		str	r1, [r2]
 1357              		.loc 1 275 3 is_stmt 1 view .LVU494
 1358              		.loc 1 275 30 is_stmt 0 view .LVU495
 1359 0030 5960     		str	r1, [r3, #4]
 1360              		.loc 1 277 3 is_stmt 1 view .LVU496
 1361              	.LVL66:
 1362              		.loc 1 277 3 is_stmt 0 view .LVU497
 1363              	.LBE224:
 1364              	.LBE227:
 1365              		.loc 1 553 3 is_stmt 1 view .LVU498
 1366              		.loc 1 553 3 view .LVU499
 1367              		.loc 1 553 3 view .LVU500
 1368              		.loc 1 553 3 view .LVU501
ARM GAS  /tmp/ccV644bk.s 			page 25


 1369              		.loc 1 553 3 view .LVU502
 1370 0032 FFF7FEBF 		b	_port_switch
 1371              	.LVL67:
 1372              	.L70:
 1373              		.loc 1 553 3 is_stmt 0 view .LVU503
 1374 0036 00BF     		.align	2
 1375              	.L69:
 1376 0038 00000000 		.word	.LANCHOR0
 1377              		.cfi_endproc
 1378              	.LFE256:
 1379              		.size	chSchDoRescheduleAhead, .-chSchDoRescheduleAhead
 1380              		.section	.text.chSchRescheduleS,"ax",%progbits
 1381              		.align	1
 1382              		.p2align 4,,15
 1383              		.global	chSchRescheduleS
 1384              		.syntax unified
 1385              		.thumb
 1386              		.thumb_func
 1387              		.fpu softvfp
 1388              		.type	chSchRescheduleS, %function
 1389              	chSchRescheduleS:
 1390              	.LFB253:
 1391              		.loc 1 455 29 is_stmt 1 view -0
 1392              		.cfi_startproc
 1393              		@ args = 0, pretend = 0, frame = 0
 1394              		@ frame_needed = 0, uses_anonymous_args = 0
 1395              		@ link register save eliminated.
 1396              		.loc 1 457 21 view .LVU505
 1397              		.loc 1 459 3 view .LVU506
 1398              	.LBB228:
 1399              	.LBI228:
 1400              		.loc 6 655 20 view .LVU507
 1401              	.LBB229:
 1402              		.loc 6 657 21 view .LVU508
 1403              		.loc 6 659 3 view .LVU509
 1404              		.loc 6 659 10 is_stmt 0 view .LVU510
 1405 0000 044B     		ldr	r3, .L74
 1406 0002 1A68     		ldr	r2, [r3]
 1407              		.loc 6 659 44 view .LVU511
 1408 0004 9B69     		ldr	r3, [r3, #24]
 1409              	.LBE229:
 1410              	.LBE228:
 1411              		.loc 1 459 6 view .LVU512
 1412 0006 9268     		ldr	r2, [r2, #8]
 1413 0008 9B68     		ldr	r3, [r3, #8]
 1414 000a 9A42     		cmp	r2, r3
 1415 000c 00D8     		bhi	.L73
 1416              		.loc 1 462 1 view .LVU513
 1417 000e 7047     		bx	lr
 1418              	.L73:
 1419              		.loc 1 460 5 is_stmt 1 view .LVU514
 1420 0010 FFF7FEBF 		b	chSchDoRescheduleAhead
 1421              	.LVL68:
 1422              	.L75:
 1423              		.align	2
 1424              	.L74:
 1425 0014 00000000 		.word	.LANCHOR0
ARM GAS  /tmp/ccV644bk.s 			page 26


 1426              		.cfi_endproc
 1427              	.LFE253:
 1428              		.size	chSchRescheduleS, .-chSchRescheduleS
 1429              		.section	.text.chSchDoReschedule,"ax",%progbits
 1430              		.align	1
 1431              		.p2align 4,,15
 1432              		.global	chSchDoReschedule
 1433              		.syntax unified
 1434              		.thumb
 1435              		.thumb_func
 1436              		.fpu softvfp
 1437              		.type	chSchDoReschedule, %function
 1438              	chSchDoReschedule:
 1439              	.LFB259:
 1440              		.cfi_startproc
 1441              		@ args = 0, pretend = 0, frame = 0
 1442              		@ frame_needed = 0, uses_anonymous_args = 0
 1443              		@ link register save eliminated.
 1444 0000 FFF7FEBF 		b	chSchDoRescheduleAhead
 1445              		.cfi_endproc
 1446              	.LFE259:
 1447              		.size	chSchDoReschedule, .-chSchDoReschedule
 1448              		.global	ch
 1449              		.section	.bss.ch,"aw",%nobits
 1450              		.align	2
 1451              		.set	.LANCHOR0,. + 0
 1452              		.type	ch, %object
 1453              		.size	ch, 120
 1454              	ch:
 1455 0000 00000000 		.space	120
 1455      00000000 
 1455      00000000 
 1455      00000000 
 1455      00000000 
 1456              		.text
 1457              	.Letext0:
 1458              		.file 8 "/usr/lib/gcc/arm-none-eabi/10.3.1/include/stdint.h"
 1459              		.file 9 "../../../os/common/ports/ARMCMx/compilers/GCC/chtypes.h"
 1460              		.file 10 "../../../os/rt/include/chsystypes.h"
 1461              		.file 11 "../../../os/common/ports/ARMCMx/chcore.h"
 1462              		.file 12 "../../../os/rt/include/chtm.h"
 1463              		.file 13 "../../../os/rt/include/chmtx.h"