ARM GAS  /tmp/ccsz88pi.s 			page 1


   1              		.cpu cortex-m4
   2              		.eabi_attribute 20, 1
   3              		.eabi_attribute 21, 1
   4              		.eabi_attribute 23, 3
   5              		.eabi_attribute 24, 1
   6              		.eabi_attribute 25, 1
   7              		.eabi_attribute 26, 1
   8              		.eabi_attribute 30, 2
   9              		.eabi_attribute 34, 1
  10              		.eabi_attribute 18, 4
  11              		.file	"chsem.c"
  12              		.text
  13              	.Ltext0:
  14              		.cfi_sections	.debug_frame
  15              		.section	.text.chSemObjectInit,"ax",%progbits
  16              		.align	1
  17              		.p2align 4,,15
  18              		.global	chSemObjectInit
  19              		.arch armv7e-m
  20              		.syntax unified
  21              		.thumb
  22              		.thumb_func
  23              		.fpu softvfp
  24              		.type	chSemObjectInit, %function
  25              	chSemObjectInit:
  26              	.LVL0:
  27              	.LFB246:
  28              		.file 1 "../../../os/rt/src/chsem.c"
  29              		.loc 1 97 48 view -0
  30              		.cfi_startproc
  31              		@ args = 0, pretend = 0, frame = 0
  32              		@ frame_needed = 0, uses_anonymous_args = 0
  33              		@ link register save eliminated.
  34              		.loc 1 99 3 view .LVU1
  35              		.loc 1 99 3 view .LVU2
  36              		.loc 1 99 3 view .LVU3
  37              		.loc 1 101 3 view .LVU4
  38              	.LBB88:
  39              	.LBI88:
  40              		.file 2 "../../../os/rt/include/chschd.h"
  41              		.loc 2 548 20 view .LVU5
  42              	.LBB89:
  43              		.loc 2 550 3 view .LVU6
  44              		.loc 2 551 13 is_stmt 0 view .LVU7
  45 0000 C0E90000 		strd	r0, r0, [r0]
  46              	.LVL1:
  47              		.loc 2 551 13 view .LVU8
  48              	.LBE89:
  49              	.LBE88:
  50              		.loc 1 102 3 is_stmt 1 view .LVU9
  51              		.loc 1 102 11 is_stmt 0 view .LVU10
  52 0004 8160     		str	r1, [r0, #8]
  53              		.loc 1 103 1 view .LVU11
  54 0006 7047     		bx	lr
  55              		.cfi_endproc
  56              	.LFE246:
  57              		.size	chSemObjectInit, .-chSemObjectInit
ARM GAS  /tmp/ccsz88pi.s 			page 2


  58              		.section	.text.chSemReset,"ax",%progbits
  59              		.align	1
  60              		.p2align 4,,15
  61              		.global	chSemReset
  62              		.syntax unified
  63              		.thumb
  64              		.thumb_func
  65              		.fpu softvfp
  66              		.type	chSemReset, %function
  67              	chSemReset:
  68              	.LVL2:
  69              	.LFB247:
  70              		.loc 1 120 43 is_stmt 1 view -0
  71              		.cfi_startproc
  72              		@ args = 0, pretend = 0, frame = 0
  73              		@ frame_needed = 0, uses_anonymous_args = 0
  74              		.loc 1 122 3 view .LVU13
  75              	.LBB103:
  76              	.LBI103:
  77              		.file 3 "../../../os/rt/include/chsys.h"
  78              		.loc 3 374 20 view .LVU14
  79              	.LBE103:
  80              		.loc 3 376 3 view .LVU15
  81              	.LBB111:
  82              	.LBB104:
  83              	.LBI104:
  84              		.file 4 "../../../os/common/ports/ARMCMx/chcore_v7m.h"
  85              		.loc 4 594 20 view .LVU16
  86              	.LBE104:
  87              	.LBE111:
  88              		.loc 4 602 3 view .LVU17
  89              	.LBB112:
  90              	.LBB109:
  91              	.LBB105:
  92              	.LBI105:
  93              		.file 5 "../../../os/common/ext/CMSIS/include/cmsis_gcc.h"
  94              		.loc 5 262 57 view .LVU18
  95              	.LBB106:
  96              		.loc 5 264 3 view .LVU19
  97              	.LBE106:
  98              	.LBE105:
  99              	.LBE109:
 100              	.LBE112:
 101              		.loc 1 120 43 is_stmt 0 view .LVU20
 102 0000 70B5     		push	{r4, r5, r6, lr}
 103              		.cfi_def_cfa_offset 16
 104              		.cfi_offset 4, -16
 105              		.cfi_offset 5, -12
 106              		.cfi_offset 6, -8
 107              		.cfi_offset 14, -4
 108              	.LBB113:
 109              	.LBB110:
 110              	.LBB108:
 111              	.LBB107:
 112              		.loc 5 264 3 view .LVU21
 113 0002 2023     		movs	r3, #32
 114              		.syntax unified
ARM GAS  /tmp/ccsz88pi.s 			page 3


 115              	@ 264 "../../../os/common/ext/CMSIS/include/cmsis_gcc.h" 1
 116 0004 83F31188 		MSR basepri, r3
 117              	@ 0 "" 2
 118              	.LVL3:
 119              		.loc 5 264 3 view .LVU22
 120              		.thumb
 121              		.syntax unified
 122              	.LBE107:
 123              	.LBE108:
 124              	.LBE110:
 125              	.LBE113:
 126              		.loc 3 377 34 is_stmt 1 view .LVU23
 127              		.loc 3 378 20 view .LVU24
 128              		.loc 1 123 3 view .LVU25
 129              	.LBB114:
 130              	.LBI114:
 131              		.loc 1 147 6 view .LVU26
 132              	.LBB115:
 133              		.loc 1 148 3 view .LVU27
 134              		.loc 1 150 21 view .LVU28
 135              		.loc 1 151 3 view .LVU29
 136              		.loc 1 151 3 view .LVU30
 137              		.loc 1 151 3 view .LVU31
 138              		.loc 1 152 3 view .LVU32
 139              		.loc 1 152 3 view .LVU33
 140              		.loc 1 152 3 view .LVU34
 141              		.loc 1 156 3 view .LVU35
 142              		.loc 1 156 7 is_stmt 0 view .LVU36
 143 0008 8568     		ldr	r5, [r0, #8]
 144              	.LVL4:
 145              		.loc 1 157 3 is_stmt 1 view .LVU37
 146              		.loc 1 157 11 is_stmt 0 view .LVU38
 147 000a 8160     		str	r1, [r0, #8]
 148              		.loc 1 158 3 is_stmt 1 view .LVU39
 149              		.loc 1 158 9 view .LVU40
 150 000c 0135     		adds	r5, r5, #1
 151              	.LVL5:
 152              		.loc 1 158 9 is_stmt 0 view .LVU41
 153 000e 002D     		cmp	r5, #0
 154 0010 0CDC     		bgt	.L6
 155 0012 0446     		mov	r4, r0
 156              		.loc 1 159 58 view .LVU42
 157 0014 6FF00106 		mvn	r6, #1
 158              	.LVL6:
 159              	.L5:
 160              		.loc 1 159 5 is_stmt 1 view .LVU43
 161              	.LBB116:
 162              	.LBI116:
 163              		.loc 2 626 25 view .LVU44
 164              	.LBB117:
 165              		.loc 2 627 3 view .LVU45
 166              		.loc 2 627 13 is_stmt 0 view .LVU46
 167 0018 6068     		ldr	r0, [r4, #4]
 168              	.LVL7:
 169              		.loc 2 629 3 is_stmt 1 view .LVU47
 170              		.loc 2 629 36 is_stmt 0 view .LVU48
 171 001a 4368     		ldr	r3, [r0, #4]
ARM GAS  /tmp/ccsz88pi.s 			page 4


 172              		.loc 2 629 25 view .LVU49
 173 001c 6360     		str	r3, [r4, #4]
 174              		.loc 2 630 3 is_stmt 1 view .LVU50
 175              		.loc 2 630 25 is_stmt 0 view .LVU51
 176 001e 1C60     		str	r4, [r3]
 177              		.loc 2 632 3 is_stmt 1 view .LVU52
 178              	.LVL8:
 179              		.loc 2 632 3 is_stmt 0 view .LVU53
 180              	.LBE117:
 181              	.LBE116:
 182              		.loc 1 159 5 view .LVU54
 183 0020 FFF7FEFF 		bl	chSchReadyI
 184              	.LVL9:
 185              		.loc 1 158 9 view .LVU55
 186 0024 0135     		adds	r5, r5, #1
 187              	.LVL10:
 188              		.loc 1 158 9 view .LVU56
 189 0026 012D     		cmp	r5, #1
 190              		.loc 1 159 58 view .LVU57
 191 0028 4662     		str	r6, [r0, #36]
 192              	.LVL11:
 193              		.loc 1 158 9 is_stmt 1 view .LVU58
 194              		.loc 1 158 9 is_stmt 0 view .LVU59
 195 002a F5D1     		bne	.L5
 196              	.LVL12:
 197              	.L6:
 198              		.loc 1 158 9 view .LVU60
 199              	.LBE115:
 200              	.LBE114:
 201              		.loc 1 124 3 is_stmt 1 view .LVU61
 202 002c FFF7FEFF 		bl	chSchRescheduleS
 203              	.LVL13:
 204              		.loc 1 125 3 view .LVU62
 205              	.LBB118:
 206              	.LBI118:
 207              		.loc 3 386 20 view .LVU63
 208              	.LBB119:
 209              		.loc 3 388 22 view .LVU64
 210              		.loc 3 389 33 view .LVU65
 211              		.loc 3 395 3 view .LVU66
 212              		.loc 3 395 3 view .LVU67
 213              		.loc 3 395 3 view .LVU68
 214              		.loc 3 399 3 view .LVU69
 215              	.LBB120:
 216              	.LBI120:
 217              		.loc 4 618 20 view .LVU70
 218              	.LBE120:
 219              	.LBE119:
 220              	.LBE118:
 221              		.loc 4 621 3 view .LVU71
 222              	.LBB125:
 223              	.LBB124:
 224              	.LBB123:
 225              	.LBB121:
 226              	.LBI121:
 227              		.loc 5 262 57 view .LVU72
 228              	.LBB122:
ARM GAS  /tmp/ccsz88pi.s 			page 5


 229              		.loc 5 264 3 view .LVU73
 230 0030 0023     		movs	r3, #0
 231              		.syntax unified
 232              	@ 264 "../../../os/common/ext/CMSIS/include/cmsis_gcc.h" 1
 233 0032 83F31188 		MSR basepri, r3
 234              	@ 0 "" 2
 235              	.LVL14:
 236              		.loc 5 264 3 is_stmt 0 view .LVU74
 237              		.thumb
 238              		.syntax unified
 239              	.LBE122:
 240              	.LBE121:
 241              	.LBE123:
 242              	.LBE124:
 243              	.LBE125:
 244              		.loc 1 126 1 view .LVU75
 245 0036 70BD     		pop	{r4, r5, r6, pc}
 246              		.cfi_endproc
 247              	.LFE247:
 248              		.size	chSemReset, .-chSemReset
 249              		.section	.text.chSemResetI,"ax",%progbits
 250              		.align	1
 251              		.p2align 4,,15
 252              		.global	chSemResetI
 253              		.syntax unified
 254              		.thumb
 255              		.thumb_func
 256              		.fpu softvfp
 257              		.type	chSemResetI, %function
 258              	chSemResetI:
 259              	.LVL15:
 260              	.LFB248:
 261              		.loc 1 147 44 is_stmt 1 view -0
 262              		.cfi_startproc
 263              		@ args = 0, pretend = 0, frame = 0
 264              		@ frame_needed = 0, uses_anonymous_args = 0
 265              		.loc 1 148 3 view .LVU77
 266              		.loc 1 150 21 view .LVU78
 267              		.loc 1 151 3 view .LVU79
 268              		.loc 1 151 3 view .LVU80
 269              		.loc 1 151 3 view .LVU81
 270              		.loc 1 152 3 view .LVU82
 271              		.loc 1 152 3 view .LVU83
 272              		.loc 1 152 3 view .LVU84
 273              		.loc 1 156 3 view .LVU85
 274              		.loc 1 147 44 is_stmt 0 view .LVU86
 275 0000 70B5     		push	{r4, r5, r6, lr}
 276              		.cfi_def_cfa_offset 16
 277              		.cfi_offset 4, -16
 278              		.cfi_offset 5, -12
 279              		.cfi_offset 6, -8
 280              		.cfi_offset 14, -4
 281              		.loc 1 156 7 view .LVU87
 282 0002 8568     		ldr	r5, [r0, #8]
 283              	.LVL16:
 284              		.loc 1 157 3 is_stmt 1 view .LVU88
 285              		.loc 1 157 11 is_stmt 0 view .LVU89
ARM GAS  /tmp/ccsz88pi.s 			page 6


 286 0004 8160     		str	r1, [r0, #8]
 287              		.loc 1 158 3 is_stmt 1 view .LVU90
 288              		.loc 1 158 9 view .LVU91
 289 0006 0135     		adds	r5, r5, #1
 290              	.LVL17:
 291              		.loc 1 158 9 is_stmt 0 view .LVU92
 292 0008 002D     		cmp	r5, #0
 293 000a 0CDC     		bgt	.L10
 294 000c 0446     		mov	r4, r0
 295              		.loc 1 159 58 view .LVU93
 296 000e 6FF00106 		mvn	r6, #1
 297              	.LVL18:
 298              	.L12:
 299              		.loc 1 159 5 is_stmt 1 view .LVU94
 300              	.LBB126:
 301              	.LBI126:
 302              		.loc 2 626 25 view .LVU95
 303              	.LBB127:
 304              		.loc 2 627 3 view .LVU96
 305              		.loc 2 627 13 is_stmt 0 view .LVU97
 306 0012 6068     		ldr	r0, [r4, #4]
 307              	.LVL19:
 308              		.loc 2 629 3 is_stmt 1 view .LVU98
 309              		.loc 2 629 36 is_stmt 0 view .LVU99
 310 0014 4368     		ldr	r3, [r0, #4]
 311              		.loc 2 629 25 view .LVU100
 312 0016 6360     		str	r3, [r4, #4]
 313              		.loc 2 630 3 is_stmt 1 view .LVU101
 314              		.loc 2 630 25 is_stmt 0 view .LVU102
 315 0018 1C60     		str	r4, [r3]
 316              		.loc 2 632 3 is_stmt 1 view .LVU103
 317              	.LVL20:
 318              		.loc 2 632 3 is_stmt 0 view .LVU104
 319              	.LBE127:
 320              	.LBE126:
 321              		.loc 1 159 5 view .LVU105
 322 001a FFF7FEFF 		bl	chSchReadyI
 323              	.LVL21:
 324              		.loc 1 158 9 view .LVU106
 325 001e 0135     		adds	r5, r5, #1
 326              	.LVL22:
 327              		.loc 1 158 9 view .LVU107
 328 0020 012D     		cmp	r5, #1
 329              		.loc 1 159 58 view .LVU108
 330 0022 4662     		str	r6, [r0, #36]
 331              	.LVL23:
 332              		.loc 1 158 9 is_stmt 1 view .LVU109
 333              		.loc 1 158 9 is_stmt 0 view .LVU110
 334 0024 F5D1     		bne	.L12
 335              	.LVL24:
 336              	.L10:
 337              		.loc 1 161 1 view .LVU111
 338 0026 70BD     		pop	{r4, r5, r6, pc}
 339              		.loc 1 161 1 view .LVU112
 340              		.cfi_endproc
 341              	.LFE248:
 342              		.size	chSemResetI, .-chSemResetI
ARM GAS  /tmp/ccsz88pi.s 			page 7


 343              		.section	.text.chSemWait,"ax",%progbits
 344              		.align	1
 345              		.p2align 4,,15
 346              		.global	chSemWait
 347              		.syntax unified
 348              		.thumb
 349              		.thumb_func
 350              		.fpu softvfp
 351              		.type	chSemWait, %function
 352              	chSemWait:
 353              	.LVL25:
 354              	.LFB249:
 355              		.loc 1 175 34 is_stmt 1 view -0
 356              		.cfi_startproc
 357              		@ args = 0, pretend = 0, frame = 0
 358              		@ frame_needed = 0, uses_anonymous_args = 0
 359              		.loc 1 176 3 view .LVU114
 360              		.loc 1 178 3 view .LVU115
 361              	.LBB143:
 362              	.LBI143:
 363              		.loc 3 374 20 view .LVU116
 364              	.LBE143:
 365              		.loc 3 376 3 view .LVU117
 366              	.LBB148:
 367              	.LBB144:
 368              	.LBI144:
 369              		.loc 4 594 20 view .LVU118
 370              	.LBE144:
 371              	.LBE148:
 372              		.loc 4 602 3 view .LVU119
 373              	.LBB149:
 374              	.LBB147:
 375              	.LBB145:
 376              	.LBI145:
 377              		.loc 5 262 57 view .LVU120
 378              	.LBB146:
 379              		.loc 5 264 3 view .LVU121
 380 0000 2022     		movs	r2, #32
 381              		.syntax unified
 382              	@ 264 "../../../os/common/ext/CMSIS/include/cmsis_gcc.h" 1
 383 0002 82F31188 		MSR basepri, r2
 384              	@ 0 "" 2
 385              	.LVL26:
 386              		.loc 5 264 3 is_stmt 0 view .LVU122
 387              		.thumb
 388              		.syntax unified
 389              	.LBE146:
 390              	.LBE145:
 391              	.LBE147:
 392              	.LBE149:
 393              		.loc 3 377 34 is_stmt 1 view .LVU123
 394              		.loc 3 378 20 view .LVU124
 395              		.loc 1 179 3 view .LVU125
 396              	.LBB150:
 397              	.LBI150:
 398              		.loc 1 197 7 view .LVU126
 399              	.LBB151:
ARM GAS  /tmp/ccsz88pi.s 			page 8


 400              		.loc 1 199 21 view .LVU127
 401              		.loc 1 200 3 view .LVU128
 402              		.loc 1 200 3 view .LVU129
 403              		.loc 1 200 3 view .LVU130
 404              		.loc 1 201 3 view .LVU131
 405              		.loc 1 201 3 view .LVU132
 406              		.loc 1 201 3 view .LVU133
 407              		.loc 1 205 3 view .LVU134
 408              		.loc 1 205 7 is_stmt 0 view .LVU135
 409 0006 8268     		ldr	r2, [r0, #8]
 410 0008 013A     		subs	r2, r2, #1
 411              		.loc 1 205 6 view .LVU136
 412 000a 002A     		cmp	r2, #0
 413 000c 8260     		str	r2, [r0, #8]
 414 000e 04DB     		blt	.L23
 415              		.loc 1 213 10 view .LVU137
 416 0010 0020     		movs	r0, #0
 417              	.LVL27:
 418              		.loc 1 213 10 view .LVU138
 419              	.LBE151:
 420              	.LBE150:
 421              		.loc 1 180 3 is_stmt 1 view .LVU139
 422              	.LBB164:
 423              	.LBI164:
 424              		.loc 3 386 20 view .LVU140
 425              	.LBB165:
 426              		.loc 3 388 22 view .LVU141
 427              		.loc 3 389 33 view .LVU142
 428              		.loc 3 395 3 view .LVU143
 429              		.loc 3 395 3 view .LVU144
 430              		.loc 3 395 3 view .LVU145
 431              		.loc 3 399 3 view .LVU146
 432              	.LBB166:
 433              	.LBI166:
 434              		.loc 4 618 20 view .LVU147
 435              	.LBE166:
 436              	.LBE165:
 437              	.LBE164:
 438              		.loc 4 621 3 view .LVU148
 439              	.LBB177:
 440              	.LBB174:
 441              	.LBB171:
 442              	.LBB167:
 443              	.LBI167:
 444              		.loc 5 262 57 view .LVU149
 445              	.LBB168:
 446              		.loc 5 264 3 view .LVU150
 447 0012 0023     		movs	r3, #0
 448              		.syntax unified
 449              	@ 264 "../../../os/common/ext/CMSIS/include/cmsis_gcc.h" 1
 450 0014 83F31188 		MSR basepri, r3
 451              	@ 0 "" 2
 452              	.LVL28:
 453              		.loc 5 264 3 is_stmt 0 view .LVU151
 454              		.thumb
 455              		.syntax unified
 456              	.LBE168:
ARM GAS  /tmp/ccsz88pi.s 			page 9


 457              	.LBE167:
 458              	.LBE171:
 459              	.LBE174:
 460              	.LBE177:
 461              		.loc 1 182 3 is_stmt 1 view .LVU152
 462              		.loc 1 183 1 is_stmt 0 view .LVU153
 463 0018 7047     		bx	lr
 464              	.LVL29:
 465              	.L23:
 466              		.loc 1 175 34 view .LVU154
 467 001a 10B5     		push	{r4, lr}
 468              		.cfi_def_cfa_offset 8
 469              		.cfi_offset 4, -8
 470              		.cfi_offset 14, -4
 471              	.LBB178:
 472              	.LBB163:
 473              	.LBB152:
 474              	.LBB153:
 475              		.loc 1 206 5 view .LVU155
 476 001c 084C     		ldr	r4, .L24
 477              	.LBB154:
 478              	.LBB155:
 479              		.loc 2 612 35 view .LVU156
 480 001e 4168     		ldr	r1, [r0, #4]
 481              	.LBE155:
 482              	.LBE154:
 483              		.loc 1 206 5 view .LVU157
 484 0020 A269     		ldr	r2, [r4, #24]
 485 0022 0346     		mov	r3, r0
 486              	.LVL30:
 487              		.loc 1 206 5 view .LVU158
 488              	.LBE153:
 489              	.LBI152:
 490              		.loc 1 197 7 is_stmt 1 view .LVU159
 491              	.LBB162:
 492              		.loc 1 206 5 view .LVU160
 493              	.LBB159:
 494              	.LBB156:
 495              		.loc 2 612 30 is_stmt 0 view .LVU161
 496 0024 C2E90031 		strd	r3, r1, [r2]
 497              	.LBE156:
 498              	.LBE159:
 499              		.loc 1 206 21 view .LVU162
 500 0028 5362     		str	r3, [r2, #36]
 501              		.loc 1 207 5 is_stmt 1 view .LVU163
 502              	.LVL31:
 503              	.LBB160:
 504              	.LBI154:
 505              		.loc 2 609 20 view .LVU164
 506              	.LBB157:
 507              		.loc 2 611 3 view .LVU165
 508              		.loc 2 613 3 view .LVU166
 509              	.LBE157:
 510              	.LBE160:
 511              		.loc 1 208 5 is_stmt 0 view .LVU167
 512 002a 0520     		movs	r0, #5
 513              	.LVL32:
ARM GAS  /tmp/ccsz88pi.s 			page 10


 514              	.LBB161:
 515              	.LBB158:
 516              		.loc 2 613 30 view .LVU168
 517 002c 0A60     		str	r2, [r1]
 518              		.loc 2 614 3 is_stmt 1 view .LVU169
 519              		.loc 2 614 30 is_stmt 0 view .LVU170
 520 002e 5A60     		str	r2, [r3, #4]
 521              	.LVL33:
 522              		.loc 2 614 30 view .LVU171
 523              	.LBE158:
 524              	.LBE161:
 525              		.loc 1 208 5 is_stmt 1 view .LVU172
 526 0030 FFF7FEFF 		bl	chSchGoSleepS
 527              	.LVL34:
 528              		.loc 1 210 5 view .LVU173
 529              		.loc 1 210 20 is_stmt 0 view .LVU174
 530 0034 A369     		ldr	r3, [r4, #24]
 531 0036 586A     		ldr	r0, [r3, #36]
 532              	.LVL35:
 533              		.loc 1 210 20 view .LVU175
 534              	.LBE162:
 535              	.LBE152:
 536              	.LBE163:
 537              	.LBE178:
 538              		.loc 1 180 3 is_stmt 1 view .LVU176
 539              	.LBB179:
 540              		.loc 3 386 20 view .LVU177
 541              	.LBB175:
 542              		.loc 3 388 22 view .LVU178
 543              		.loc 3 389 33 view .LVU179
 544              		.loc 3 395 3 view .LVU180
 545              		.loc 3 395 3 view .LVU181
 546              		.loc 3 395 3 view .LVU182
 547              		.loc 3 399 3 view .LVU183
 548              	.LBB172:
 549              		.loc 4 618 20 view .LVU184
 550              	.LBE172:
 551              	.LBE175:
 552              	.LBE179:
 553              		.loc 4 621 3 view .LVU185
 554              	.LBB180:
 555              	.LBB176:
 556              	.LBB173:
 557              	.LBB170:
 558              		.loc 5 262 57 view .LVU186
 559              	.LBB169:
 560              		.loc 5 264 3 view .LVU187
 561 0038 0023     		movs	r3, #0
 562              		.syntax unified
 563              	@ 264 "../../../os/common/ext/CMSIS/include/cmsis_gcc.h" 1
 564 003a 83F31188 		MSR basepri, r3
 565              	@ 0 "" 2
 566              	.LVL36:
 567              		.loc 5 264 3 is_stmt 0 view .LVU188
 568              		.thumb
 569              		.syntax unified
 570              	.LBE169:
ARM GAS  /tmp/ccsz88pi.s 			page 11


 571              	.LBE170:
 572              	.LBE173:
 573              	.LBE176:
 574              	.LBE180:
 575              		.loc 1 182 3 is_stmt 1 view .LVU189
 576              		.loc 1 183 1 is_stmt 0 view .LVU190
 577 003e 10BD     		pop	{r4, pc}
 578              	.L25:
 579              		.align	2
 580              	.L24:
 581 0040 00000000 		.word	ch
 582              		.cfi_endproc
 583              	.LFE249:
 584              		.size	chSemWait, .-chSemWait
 585              		.section	.text.chSemWaitS,"ax",%progbits
 586              		.align	1
 587              		.p2align 4,,15
 588              		.global	chSemWaitS
 589              		.syntax unified
 590              		.thumb
 591              		.thumb_func
 592              		.fpu softvfp
 593              		.type	chSemWaitS, %function
 594              	chSemWaitS:
 595              	.LVL37:
 596              	.LFB250:
 597              		.loc 1 197 35 is_stmt 1 view -0
 598              		.cfi_startproc
 599              		@ args = 0, pretend = 0, frame = 0
 600              		@ frame_needed = 0, uses_anonymous_args = 0
 601              		.loc 1 199 21 view .LVU192
 602              		.loc 1 200 3 view .LVU193
 603              		.loc 1 200 3 view .LVU194
 604              		.loc 1 200 3 view .LVU195
 605              		.loc 1 201 3 view .LVU196
 606              		.loc 1 201 3 view .LVU197
 607              		.loc 1 201 3 view .LVU198
 608              		.loc 1 205 3 view .LVU199
 609              		.loc 1 205 7 is_stmt 0 view .LVU200
 610 0000 8268     		ldr	r2, [r0, #8]
 611 0002 013A     		subs	r2, r2, #1
 612              		.loc 1 205 6 view .LVU201
 613 0004 002A     		cmp	r2, #0
 614 0006 8260     		str	r2, [r0, #8]
 615 0008 01DB     		blt	.L33
 616              		.loc 1 213 10 view .LVU202
 617 000a 0020     		movs	r0, #0
 618              	.LVL38:
 619              		.loc 1 214 1 view .LVU203
 620 000c 7047     		bx	lr
 621              	.LVL39:
 622              	.L33:
 623              		.loc 1 197 35 view .LVU204
 624 000e 10B5     		push	{r4, lr}
 625              		.cfi_def_cfa_offset 8
 626              		.cfi_offset 4, -8
 627              		.cfi_offset 14, -4
ARM GAS  /tmp/ccsz88pi.s 			page 12


 628              	.LBB185:
 629              	.LBB186:
 630              		.loc 1 206 5 view .LVU205
 631 0010 074C     		ldr	r4, .L34
 632              	.LBB187:
 633              	.LBB188:
 634              		.loc 2 612 35 view .LVU206
 635 0012 4168     		ldr	r1, [r0, #4]
 636              	.LBE188:
 637              	.LBE187:
 638              		.loc 1 206 5 view .LVU207
 639 0014 A269     		ldr	r2, [r4, #24]
 640 0016 0346     		mov	r3, r0
 641              	.LVL40:
 642              		.loc 1 206 5 view .LVU208
 643              	.LBE186:
 644              	.LBI185:
 645              		.loc 1 197 7 is_stmt 1 view .LVU209
 646              	.LBB195:
 647              		.loc 1 206 5 view .LVU210
 648              	.LBB192:
 649              	.LBB189:
 650              		.loc 2 612 30 is_stmt 0 view .LVU211
 651 0018 C2E90031 		strd	r3, r1, [r2]
 652              	.LBE189:
 653              	.LBE192:
 654              		.loc 1 206 21 view .LVU212
 655 001c 5362     		str	r3, [r2, #36]
 656              		.loc 1 207 5 is_stmt 1 view .LVU213
 657              	.LVL41:
 658              	.LBB193:
 659              	.LBI187:
 660              		.loc 2 609 20 view .LVU214
 661              	.LBB190:
 662              		.loc 2 611 3 view .LVU215
 663              		.loc 2 613 3 view .LVU216
 664              	.LBE190:
 665              	.LBE193:
 666              		.loc 1 208 5 is_stmt 0 view .LVU217
 667 001e 0520     		movs	r0, #5
 668              	.LVL42:
 669              	.LBB194:
 670              	.LBB191:
 671              		.loc 2 613 30 view .LVU218
 672 0020 0A60     		str	r2, [r1]
 673              		.loc 2 614 3 is_stmt 1 view .LVU219
 674              		.loc 2 614 30 is_stmt 0 view .LVU220
 675 0022 5A60     		str	r2, [r3, #4]
 676              	.LVL43:
 677              		.loc 2 614 30 view .LVU221
 678              	.LBE191:
 679              	.LBE194:
 680              		.loc 1 208 5 is_stmt 1 view .LVU222
 681 0024 FFF7FEFF 		bl	chSchGoSleepS
 682              	.LVL44:
 683              		.loc 1 210 5 view .LVU223
 684              		.loc 1 210 20 is_stmt 0 view .LVU224
ARM GAS  /tmp/ccsz88pi.s 			page 13


 685 0028 A369     		ldr	r3, [r4, #24]
 686 002a 586A     		ldr	r0, [r3, #36]
 687              	.LVL45:
 688              		.loc 1 210 20 view .LVU225
 689              	.LBE195:
 690              	.LBE185:
 691              		.loc 1 214 1 view .LVU226
 692 002c 10BD     		pop	{r4, pc}
 693              	.L35:
 694 002e 00BF     		.align	2
 695              	.L34:
 696 0030 00000000 		.word	ch
 697              		.cfi_endproc
 698              	.LFE250:
 699              		.size	chSemWaitS, .-chSemWaitS
 700              		.section	.text.chSemWaitTimeout,"ax",%progbits
 701              		.align	1
 702              		.p2align 4,,15
 703              		.global	chSemWaitTimeout
 704              		.syntax unified
 705              		.thumb
 706              		.thumb_func
 707              		.fpu softvfp
 708              		.type	chSemWaitTimeout, %function
 709              	chSemWaitTimeout:
 710              	.LVL46:
 711              	.LFB251:
 712              		.loc 1 235 57 is_stmt 1 view -0
 713              		.cfi_startproc
 714              		@ args = 0, pretend = 0, frame = 0
 715              		@ frame_needed = 0, uses_anonymous_args = 0
 716              		.loc 1 236 3 view .LVU228
 717              		.loc 1 238 3 view .LVU229
 718              	.LBB211:
 719              	.LBI211:
 720              		.loc 3 374 20 view .LVU230
 721              	.LBE211:
 722              		.loc 3 376 3 view .LVU231
 723              	.LBB219:
 724              	.LBB212:
 725              	.LBI212:
 726              		.loc 4 594 20 view .LVU232
 727              	.LBE212:
 728              	.LBE219:
 729              		.loc 4 602 3 view .LVU233
 730              	.LBB220:
 731              	.LBB217:
 732              	.LBB213:
 733              	.LBI213:
 734              		.loc 5 262 57 view .LVU234
 735              	.LBB214:
 736              		.loc 5 264 3 view .LVU235
 737              	.LBE214:
 738              	.LBE213:
 739              	.LBE217:
 740              	.LBE220:
 741              		.loc 1 235 57 is_stmt 0 view .LVU236
ARM GAS  /tmp/ccsz88pi.s 			page 14


 742 0000 0346     		mov	r3, r0
 743 0002 10B5     		push	{r4, lr}
 744              		.cfi_def_cfa_offset 8
 745              		.cfi_offset 4, -8
 746              		.cfi_offset 14, -4
 747              	.LBB221:
 748              	.LBB218:
 749              	.LBB216:
 750              	.LBB215:
 751              		.loc 5 264 3 view .LVU237
 752 0004 2020     		movs	r0, #32
 753              	.LVL47:
 754              		.loc 5 264 3 view .LVU238
 755              		.syntax unified
 756              	@ 264 "../../../os/common/ext/CMSIS/include/cmsis_gcc.h" 1
 757 0006 80F31188 		MSR basepri, r0
 758              	@ 0 "" 2
 759              	.LVL48:
 760              		.loc 5 264 3 view .LVU239
 761              		.thumb
 762              		.syntax unified
 763              	.LBE215:
 764              	.LBE216:
 765              	.LBE218:
 766              	.LBE221:
 767              		.loc 3 377 34 is_stmt 1 view .LVU240
 768              		.loc 3 378 20 view .LVU241
 769              		.loc 1 239 3 view .LVU242
 770              	.LBB222:
 771              	.LBI222:
 772              		.loc 1 264 7 view .LVU243
 773              	.LBB223:
 774              		.loc 1 266 21 view .LVU244
 775              		.loc 1 267 3 view .LVU245
 776              		.loc 1 267 3 view .LVU246
 777              		.loc 1 267 3 view .LVU247
 778              		.loc 1 268 3 view .LVU248
 779              		.loc 1 268 3 view .LVU249
 780              		.loc 1 268 3 view .LVU250
 781              		.loc 1 272 3 view .LVU251
 782              		.loc 1 272 11 is_stmt 0 view .LVU252
 783 000a 9C68     		ldr	r4, [r3, #8]
 784              		.loc 1 272 7 view .LVU253
 785 000c 601E     		subs	r0, r4, #1
 786              		.loc 1 272 6 view .LVU254
 787 000e 0028     		cmp	r0, #0
 788 0010 9860     		str	r0, [r3, #8]
 789 0012 04DB     		blt	.L41
 790              		.loc 1 284 10 view .LVU255
 791 0014 0020     		movs	r0, #0
 792              	.L37:
 793              	.LVL49:
 794              		.loc 1 284 10 view .LVU256
 795              	.LBE223:
 796              	.LBE222:
 797              		.loc 1 240 3 is_stmt 1 view .LVU257
 798              	.LBB234:
ARM GAS  /tmp/ccsz88pi.s 			page 15


 799              	.LBI234:
 800              		.loc 3 386 20 view .LVU258
 801              	.LBB235:
 802              		.loc 3 388 22 view .LVU259
 803              		.loc 3 389 33 view .LVU260
 804              		.loc 3 395 3 view .LVU261
 805              		.loc 3 395 3 view .LVU262
 806              		.loc 3 395 3 view .LVU263
 807              		.loc 3 399 3 view .LVU264
 808              	.LBB236:
 809              	.LBI236:
 810              		.loc 4 618 20 view .LVU265
 811              	.LBE236:
 812              	.LBE235:
 813              	.LBE234:
 814              		.loc 4 621 3 view .LVU266
 815              	.LBB247:
 816              	.LBB244:
 817              	.LBB241:
 818              	.LBB237:
 819              	.LBI237:
 820              		.loc 5 262 57 view .LVU267
 821              	.LBB238:
 822              		.loc 5 264 3 view .LVU268
 823 0016 0023     		movs	r3, #0
 824              	.LVL50:
 825              		.loc 5 264 3 is_stmt 0 view .LVU269
 826              		.syntax unified
 827              	@ 264 "../../../os/common/ext/CMSIS/include/cmsis_gcc.h" 1
 828 0018 83F31188 		MSR basepri, r3
 829              	@ 0 "" 2
 830              	.LVL51:
 831              		.loc 5 264 3 view .LVU270
 832              		.thumb
 833              		.syntax unified
 834              	.LBE238:
 835              	.LBE237:
 836              	.LBE241:
 837              	.LBE244:
 838              	.LBE247:
 839              		.loc 1 242 3 is_stmt 1 view .LVU271
 840              		.loc 1 243 1 is_stmt 0 view .LVU272
 841 001c 10BD     		pop	{r4, pc}
 842              	.LVL52:
 843              	.L41:
 844              	.LBB248:
 845              	.LBB232:
 846              		.loc 1 273 5 is_stmt 1 view .LVU273
 847              		.loc 1 273 8 is_stmt 0 view .LVU274
 848 001e 71B1     		cbz	r1, .L42
 849              	.LVL53:
 850              	.LBB224:
 851              	.LBI224:
 852              		.loc 1 264 7 is_stmt 1 view .LVU275
 853              	.LBB225:
 854              		.loc 1 278 5 view .LVU276
 855 0020 094A     		ldr	r2, .L43
ARM GAS  /tmp/ccsz88pi.s 			page 16


 856              	.LBB226:
 857              	.LBB227:
 858              		.loc 2 612 35 is_stmt 0 view .LVU277
 859 0022 5C68     		ldr	r4, [r3, #4]
 860              	.LBE227:
 861              	.LBE226:
 862              		.loc 1 278 5 view .LVU278
 863 0024 9269     		ldr	r2, [r2, #24]
 864              		.loc 1 281 12 view .LVU279
 865 0026 0520     		movs	r0, #5
 866              	.LBB230:
 867              	.LBB228:
 868              		.loc 2 612 30 view .LVU280
 869 0028 C2E90034 		strd	r3, r4, [r2]
 870              	.LBE228:
 871              	.LBE230:
 872              		.loc 1 278 21 view .LVU281
 873 002c 5362     		str	r3, [r2, #36]
 874              		.loc 1 279 5 is_stmt 1 view .LVU282
 875              	.LVL54:
 876              	.LBB231:
 877              	.LBI226:
 878              		.loc 2 609 20 view .LVU283
 879              	.LBB229:
 880              		.loc 2 611 3 view .LVU284
 881              		.loc 2 613 3 view .LVU285
 882              		.loc 2 613 30 is_stmt 0 view .LVU286
 883 002e 2260     		str	r2, [r4]
 884              		.loc 2 614 3 is_stmt 1 view .LVU287
 885              		.loc 2 614 30 is_stmt 0 view .LVU288
 886 0030 5A60     		str	r2, [r3, #4]
 887              	.LVL55:
 888              		.loc 2 614 30 view .LVU289
 889              	.LBE229:
 890              	.LBE231:
 891              		.loc 1 281 5 is_stmt 1 view .LVU290
 892              		.loc 1 281 12 is_stmt 0 view .LVU291
 893 0032 FFF7FEFF 		bl	chSchGoSleepTimeoutS
 894              	.LVL56:
 895              		.loc 1 281 12 view .LVU292
 896              	.LBE225:
 897              	.LBE224:
 898              	.LBE232:
 899              	.LBE248:
 900              		.loc 1 240 3 is_stmt 1 view .LVU293
 901              	.LBB249:
 902              		.loc 3 386 20 view .LVU294
 903              	.LBB245:
 904              		.loc 3 388 22 view .LVU295
 905              		.loc 3 389 33 view .LVU296
 906              		.loc 3 395 3 view .LVU297
 907              		.loc 3 395 3 view .LVU298
 908              		.loc 3 395 3 view .LVU299
 909              		.loc 3 399 3 view .LVU300
 910              	.LBB242:
 911              		.loc 4 618 20 view .LVU301
 912              	.LBE242:
ARM GAS  /tmp/ccsz88pi.s 			page 17


 913              	.LBE245:
 914              	.LBE249:
 915              		.loc 4 621 3 view .LVU302
 916              	.LBB250:
 917              	.LBB246:
 918              	.LBB243:
 919              	.LBB240:
 920              		.loc 5 262 57 view .LVU303
 921              	.LBB239:
 922              		.loc 5 264 3 view .LVU304
 923 0036 0023     		movs	r3, #0
 924              		.syntax unified
 925              	@ 264 "../../../os/common/ext/CMSIS/include/cmsis_gcc.h" 1
 926 0038 83F31188 		MSR basepri, r3
 927              	@ 0 "" 2
 928              	.LVL57:
 929              		.loc 5 264 3 is_stmt 0 view .LVU305
 930              		.thumb
 931              		.syntax unified
 932              	.LBE239:
 933              	.LBE240:
 934              	.LBE243:
 935              	.LBE246:
 936              	.LBE250:
 937              		.loc 1 242 3 is_stmt 1 view .LVU306
 938              		.loc 1 243 1 is_stmt 0 view .LVU307
 939 003c 10BD     		pop	{r4, pc}
 940              	.LVL58:
 941              	.L42:
 942              	.LBB251:
 943              	.LBB233:
 944              		.loc 1 274 7 is_stmt 1 view .LVU308
 945              		.loc 1 274 14 is_stmt 0 view .LVU309
 946 003e 9C60     		str	r4, [r3, #8]
 947              		.loc 1 276 7 is_stmt 1 view .LVU310
 948              		.loc 1 276 14 is_stmt 0 view .LVU311
 949 0040 4FF0FF30 		mov	r0, #-1
 950 0044 E7E7     		b	.L37
 951              	.L44:
 952 0046 00BF     		.align	2
 953              	.L43:
 954 0048 00000000 		.word	ch
 955              	.LBE233:
 956              	.LBE251:
 957              		.cfi_endproc
 958              	.LFE251:
 959              		.size	chSemWaitTimeout, .-chSemWaitTimeout
 960              		.section	.text.chSemWaitTimeoutS,"ax",%progbits
 961              		.align	1
 962              		.p2align 4,,15
 963              		.global	chSemWaitTimeoutS
 964              		.syntax unified
 965              		.thumb
 966              		.thumb_func
 967              		.fpu softvfp
 968              		.type	chSemWaitTimeoutS, %function
 969              	chSemWaitTimeoutS:
ARM GAS  /tmp/ccsz88pi.s 			page 18


 970              	.LVL59:
 971              	.LFB252:
 972              		.loc 1 264 58 is_stmt 1 view -0
 973              		.cfi_startproc
 974              		@ args = 0, pretend = 0, frame = 0
 975              		@ frame_needed = 0, uses_anonymous_args = 0
 976              		@ link register save eliminated.
 977              		.loc 1 266 21 view .LVU313
 978              		.loc 1 267 3 view .LVU314
 979              		.loc 1 267 3 view .LVU315
 980              		.loc 1 267 3 view .LVU316
 981              		.loc 1 268 3 view .LVU317
 982              		.loc 1 268 3 view .LVU318
 983              		.loc 1 268 3 view .LVU319
 984              		.loc 1 272 3 view .LVU320
 985              		.loc 1 264 58 is_stmt 0 view .LVU321
 986 0000 10B4     		push	{r4}
 987              		.cfi_def_cfa_offset 4
 988              		.cfi_offset 4, -4
 989              		.loc 1 272 11 view .LVU322
 990 0002 8468     		ldr	r4, [r0, #8]
 991              		.loc 1 264 58 view .LVU323
 992 0004 0346     		mov	r3, r0
 993              		.loc 1 272 7 view .LVU324
 994 0006 601E     		subs	r0, r4, #1
 995              	.LVL60:
 996              		.loc 1 272 6 view .LVU325
 997 0008 0028     		cmp	r0, #0
 998 000a 9860     		str	r0, [r3, #8]
 999 000c 02DB     		blt	.L50
 1000              		.loc 1 284 10 view .LVU326
 1001 000e 0020     		movs	r0, #0
 1002              	.L45:
 1003              		.loc 1 285 1 view .LVU327
 1004 0010 10BC     		pop	{r4}
 1005              		.cfi_remember_state
 1006              		.cfi_restore 4
 1007              		.cfi_def_cfa_offset 0
 1008 0012 7047     		bx	lr
 1009              	.L50:
 1010              		.cfi_restore_state
 1011              		.loc 1 273 5 is_stmt 1 view .LVU328
 1012              		.loc 1 273 8 is_stmt 0 view .LVU329
 1013 0014 59B1     		cbz	r1, .L51
 1014              	.LVL61:
 1015              	.LBB256:
 1016              	.LBI256:
 1017              		.loc 1 264 7 is_stmt 1 view .LVU330
 1018              	.LBB257:
 1019              		.loc 1 278 5 view .LVU331
 1020 0016 084A     		ldr	r2, .L52
 1021              	.LBB258:
 1022              	.LBB259:
 1023              		.loc 2 612 35 is_stmt 0 view .LVU332
 1024 0018 5C68     		ldr	r4, [r3, #4]
 1025              	.LBE259:
 1026              	.LBE258:
ARM GAS  /tmp/ccsz88pi.s 			page 19


 1027              		.loc 1 278 5 view .LVU333
 1028 001a 9269     		ldr	r2, [r2, #24]
 1029              		.loc 1 281 12 view .LVU334
 1030 001c 0520     		movs	r0, #5
 1031              	.LBB263:
 1032              	.LBB260:
 1033              		.loc 2 612 30 view .LVU335
 1034 001e C2E90034 		strd	r3, r4, [r2]
 1035              	.LBE260:
 1036              	.LBE263:
 1037              		.loc 1 278 21 view .LVU336
 1038 0022 5362     		str	r3, [r2, #36]
 1039              		.loc 1 279 5 is_stmt 1 view .LVU337
 1040              	.LVL62:
 1041              	.LBB264:
 1042              	.LBI258:
 1043              		.loc 2 609 20 view .LVU338
 1044              	.LBB261:
 1045              		.loc 2 611 3 view .LVU339
 1046              		.loc 2 613 3 view .LVU340
 1047              		.loc 2 613 30 is_stmt 0 view .LVU341
 1048 0024 2260     		str	r2, [r4]
 1049              		.loc 2 614 3 is_stmt 1 view .LVU342
 1050              	.LBE261:
 1051              	.LBE264:
 1052              	.LBE257:
 1053              	.LBE256:
 1054              		.loc 1 285 1 is_stmt 0 view .LVU343
 1055 0026 10BC     		pop	{r4}
 1056              		.cfi_remember_state
 1057              		.cfi_restore 4
 1058              		.cfi_def_cfa_offset 0
 1059              	.LBB267:
 1060              	.LBB266:
 1061              	.LBB265:
 1062              	.LBB262:
 1063              		.loc 2 614 30 view .LVU344
 1064 0028 5A60     		str	r2, [r3, #4]
 1065              	.LVL63:
 1066              		.loc 2 614 30 view .LVU345
 1067              	.LBE262:
 1068              	.LBE265:
 1069              		.loc 1 281 5 is_stmt 1 view .LVU346
 1070              		.loc 1 281 12 is_stmt 0 view .LVU347
 1071 002a FFF7FEBF 		b	chSchGoSleepTimeoutS
 1072              	.LVL64:
 1073              	.L51:
 1074              		.cfi_restore_state
 1075              		.loc 1 281 12 view .LVU348
 1076              	.LBE266:
 1077              	.LBE267:
 1078              		.loc 1 274 7 is_stmt 1 view .LVU349
 1079              		.loc 1 274 14 is_stmt 0 view .LVU350
 1080 002e 9C60     		str	r4, [r3, #8]
 1081              		.loc 1 276 7 is_stmt 1 view .LVU351
 1082              		.loc 1 276 14 is_stmt 0 view .LVU352
 1083 0030 4FF0FF30 		mov	r0, #-1
ARM GAS  /tmp/ccsz88pi.s 			page 20


 1084 0034 ECE7     		b	.L45
 1085              	.L53:
 1086 0036 00BF     		.align	2
 1087              	.L52:
 1088 0038 00000000 		.word	ch
 1089              		.cfi_endproc
 1090              	.LFE252:
 1091              		.size	chSemWaitTimeoutS, .-chSemWaitTimeoutS
 1092              		.section	.text.chSemSignal,"ax",%progbits
 1093              		.align	1
 1094              		.p2align 4,,15
 1095              		.global	chSemSignal
 1096              		.syntax unified
 1097              		.thumb
 1098              		.thumb_func
 1099              		.fpu softvfp
 1100              		.type	chSemSignal, %function
 1101              	chSemSignal:
 1102              	.LVL65:
 1103              	.LFB253:
 1104              		.loc 1 294 35 is_stmt 1 view -0
 1105              		.cfi_startproc
 1106              		@ args = 0, pretend = 0, frame = 0
 1107              		@ frame_needed = 0, uses_anonymous_args = 0
 1108              		.loc 1 296 3 view .LVU354
 1109              		.loc 1 296 3 view .LVU355
 1110              		.loc 1 296 3 view .LVU356
 1111              		.loc 1 297 3 view .LVU357
 1112              		.loc 1 297 3 view .LVU358
 1113              		.loc 1 297 3 view .LVU359
 1114              		.loc 1 301 3 view .LVU360
 1115              	.LBB268:
 1116              	.LBI268:
 1117              		.loc 3 374 20 view .LVU361
 1118              	.LBE268:
 1119              		.loc 3 376 3 view .LVU362
 1120              	.LBB276:
 1121              	.LBB269:
 1122              	.LBI269:
 1123              		.loc 4 594 20 view .LVU363
 1124              	.LBE269:
 1125              	.LBE276:
 1126              		.loc 4 602 3 view .LVU364
 1127              	.LBB277:
 1128              	.LBB274:
 1129              	.LBB270:
 1130              	.LBI270:
 1131              		.loc 5 262 57 view .LVU365
 1132              	.LBB271:
 1133              		.loc 5 264 3 view .LVU366
 1134              	.LBE271:
 1135              	.LBE270:
 1136              	.LBE274:
 1137              	.LBE277:
 1138              		.loc 1 294 35 is_stmt 0 view .LVU367
 1139 0000 08B5     		push	{r3, lr}
 1140              		.cfi_def_cfa_offset 8
ARM GAS  /tmp/ccsz88pi.s 			page 21


 1141              		.cfi_offset 3, -8
 1142              		.cfi_offset 14, -4
 1143              	.LBB278:
 1144              	.LBB275:
 1145              	.LBB273:
 1146              	.LBB272:
 1147              		.loc 5 264 3 view .LVU368
 1148 0002 2022     		movs	r2, #32
 1149              		.syntax unified
 1150              	@ 264 "../../../os/common/ext/CMSIS/include/cmsis_gcc.h" 1
 1151 0004 82F31188 		MSR basepri, r2
 1152              	@ 0 "" 2
 1153              	.LVL66:
 1154              		.loc 5 264 3 view .LVU369
 1155              		.thumb
 1156              		.syntax unified
 1157              	.LBE272:
 1158              	.LBE273:
 1159              	.LBE275:
 1160              	.LBE278:
 1161              		.loc 3 377 34 is_stmt 1 view .LVU370
 1162              		.loc 3 378 20 view .LVU371
 1163              		.loc 1 302 3 view .LVU372
 1164              		.loc 1 302 7 is_stmt 0 view .LVU373
 1165 0008 8268     		ldr	r2, [r0, #8]
 1166 000a 0132     		adds	r2, r2, #1
 1167              		.loc 1 302 6 view .LVU374
 1168 000c 002A     		cmp	r2, #0
 1169 000e 8260     		str	r2, [r0, #8]
 1170 0010 03DD     		ble	.L57
 1171              		.loc 1 305 3 is_stmt 1 view .LVU375
 1172              	.LBB279:
 1173              	.LBI279:
 1174              		.loc 3 386 20 view .LVU376
 1175              	.LBB280:
 1176              		.loc 3 388 22 view .LVU377
 1177              		.loc 3 389 33 view .LVU378
 1178              		.loc 3 395 3 view .LVU379
 1179              		.loc 3 395 3 view .LVU380
 1180              		.loc 3 395 3 view .LVU381
 1181              		.loc 3 399 3 view .LVU382
 1182              	.LBB281:
 1183              	.LBI281:
 1184              		.loc 4 618 20 view .LVU383
 1185              	.LBE281:
 1186              	.LBE280:
 1187              	.LBE279:
 1188              		.loc 4 621 3 view .LVU384
 1189              	.LVL67:
 1190              	.LBB292:
 1191              	.LBB289:
 1192              	.LBB286:
 1193              	.LBB282:
 1194              	.LBI282:
 1195              		.loc 5 262 57 view .LVU385
 1196              	.LBB283:
 1197              		.loc 5 264 3 view .LVU386
ARM GAS  /tmp/ccsz88pi.s 			page 22


 1198 0012 0023     		movs	r3, #0
 1199              		.syntax unified
 1200              	@ 264 "../../../os/common/ext/CMSIS/include/cmsis_gcc.h" 1
 1201 0014 83F31188 		MSR basepri, r3
 1202              	@ 0 "" 2
 1203              	.LVL68:
 1204              		.loc 5 264 3 is_stmt 0 view .LVU387
 1205              		.thumb
 1206              		.syntax unified
 1207              	.LBE283:
 1208              	.LBE282:
 1209              	.LBE286:
 1210              	.LBE289:
 1211              	.LBE292:
 1212              		.loc 1 306 1 view .LVU388
 1213 0018 08BD     		pop	{r3, pc}
 1214              	.L57:
 1215 001a 0346     		mov	r3, r0
 1216              		.loc 1 303 5 is_stmt 1 view .LVU389
 1217              	.LVL69:
 1218              	.LBB293:
 1219              	.LBI293:
 1220              		.loc 2 617 25 view .LVU390
 1221              	.LBB294:
 1222              		.loc 2 618 3 view .LVU391
 1223              		.loc 2 618 13 is_stmt 0 view .LVU392
 1224 001c 0068     		ldr	r0, [r0]
 1225              	.LVL70:
 1226              		.loc 2 620 3 is_stmt 1 view .LVU393
 1227              		.loc 2 620 36 is_stmt 0 view .LVU394
 1228 001e 0268     		ldr	r2, [r0]
 1229              		.loc 2 620 25 view .LVU395
 1230 0020 1A60     		str	r2, [r3]
 1231              		.loc 2 621 3 is_stmt 1 view .LVU396
 1232              	.LBE294:
 1233              	.LBE293:
 1234              		.loc 1 303 5 is_stmt 0 view .LVU397
 1235 0022 0021     		movs	r1, #0
 1236              	.LBB296:
 1237              	.LBB295:
 1238              		.loc 2 621 25 view .LVU398
 1239 0024 5360     		str	r3, [r2, #4]
 1240              		.loc 2 623 3 is_stmt 1 view .LVU399
 1241              	.LVL71:
 1242              		.loc 2 623 3 is_stmt 0 view .LVU400
 1243              	.LBE295:
 1244              	.LBE296:
 1245              		.loc 1 303 5 view .LVU401
 1246 0026 FFF7FEFF 		bl	chSchWakeupS
 1247              	.LVL72:
 1248              		.loc 1 305 3 is_stmt 1 view .LVU402
 1249              	.LBB297:
 1250              		.loc 3 386 20 view .LVU403
 1251              	.LBB290:
 1252              		.loc 3 388 22 view .LVU404
 1253              		.loc 3 389 33 view .LVU405
 1254              		.loc 3 395 3 view .LVU406
ARM GAS  /tmp/ccsz88pi.s 			page 23


 1255              		.loc 3 395 3 view .LVU407
 1256              		.loc 3 395 3 view .LVU408
 1257              		.loc 3 399 3 view .LVU409
 1258              	.LBB287:
 1259              		.loc 4 618 20 view .LVU410
 1260              	.LBE287:
 1261              	.LBE290:
 1262              	.LBE297:
 1263              		.loc 4 621 3 view .LVU411
 1264              	.LBB298:
 1265              	.LBB291:
 1266              	.LBB288:
 1267              	.LBB285:
 1268              		.loc 5 262 57 view .LVU412
 1269              	.LBB284:
 1270              		.loc 5 264 3 view .LVU413
 1271 002a 0023     		movs	r3, #0
 1272              		.syntax unified
 1273              	@ 264 "../../../os/common/ext/CMSIS/include/cmsis_gcc.h" 1
 1274 002c 83F31188 		MSR basepri, r3
 1275              	@ 0 "" 2
 1276              	.LVL73:
 1277              		.loc 5 264 3 is_stmt 0 view .LVU414
 1278              		.thumb
 1279              		.syntax unified
 1280              	.LBE284:
 1281              	.LBE285:
 1282              	.LBE288:
 1283              	.LBE291:
 1284              	.LBE298:
 1285              		.loc 1 306 1 view .LVU415
 1286 0030 08BD     		pop	{r3, pc}
 1287              		.cfi_endproc
 1288              	.LFE253:
 1289              		.size	chSemSignal, .-chSemSignal
 1290 0032 00BF     		.section	.text.chSemSignalI,"ax",%progbits
 1291              		.align	1
 1292              		.p2align 4,,15
 1293              		.global	chSemSignalI
 1294              		.syntax unified
 1295              		.thumb
 1296              		.thumb_func
 1297              		.fpu softvfp
 1298              		.type	chSemSignalI, %function
 1299              	chSemSignalI:
 1300              	.LVL74:
 1301              	.LFB254:
 1302              		.loc 1 319 36 is_stmt 1 view -0
 1303              		.cfi_startproc
 1304              		@ args = 0, pretend = 0, frame = 0
 1305              		@ frame_needed = 0, uses_anonymous_args = 0
 1306              		@ link register save eliminated.
 1307              		.loc 1 321 21 view .LVU417
 1308              		.loc 1 322 3 view .LVU418
 1309              		.loc 1 322 3 view .LVU419
 1310              		.loc 1 322 3 view .LVU420
 1311              		.loc 1 323 3 view .LVU421
ARM GAS  /tmp/ccsz88pi.s 			page 24


 1312              		.loc 1 323 3 view .LVU422
 1313              		.loc 1 323 3 view .LVU423
 1314              		.loc 1 327 3 view .LVU424
 1315              		.loc 1 327 7 is_stmt 0 view .LVU425
 1316 0000 8268     		ldr	r2, [r0, #8]
 1317 0002 0132     		adds	r2, r2, #1
 1318              		.loc 1 327 6 view .LVU426
 1319 0004 002A     		cmp	r2, #0
 1320              		.loc 1 319 36 view .LVU427
 1321 0006 0346     		mov	r3, r0
 1322              		.loc 1 327 6 view .LVU428
 1323 0008 8260     		str	r2, [r0, #8]
 1324 000a 00DD     		ble	.L60
 1325              		.loc 1 334 1 view .LVU429
 1326 000c 7047     		bx	lr
 1327              	.L60:
 1328              	.LBB299:
 1329              		.loc 1 330 5 is_stmt 1 view .LVU430
 1330              	.LVL75:
 1331              	.LBB300:
 1332              	.LBI300:
 1333              		.loc 2 617 25 view .LVU431
 1334              	.LBB301:
 1335              		.loc 2 618 3 view .LVU432
 1336              		.loc 2 618 13 is_stmt 0 view .LVU433
 1337 000e 0068     		ldr	r0, [r0]
 1338              	.LVL76:
 1339              		.loc 2 620 3 is_stmt 1 view .LVU434
 1340              		.loc 2 620 36 is_stmt 0 view .LVU435
 1341 0010 0268     		ldr	r2, [r0]
 1342              		.loc 2 620 25 view .LVU436
 1343 0012 1A60     		str	r2, [r3]
 1344              		.loc 2 621 3 is_stmt 1 view .LVU437
 1345              	.LBE301:
 1346              	.LBE300:
 1347              		.loc 1 331 18 is_stmt 0 view .LVU438
 1348 0014 0021     		movs	r1, #0
 1349              	.LBB303:
 1350              	.LBB302:
 1351              		.loc 2 621 25 view .LVU439
 1352 0016 5360     		str	r3, [r2, #4]
 1353              		.loc 2 623 3 is_stmt 1 view .LVU440
 1354              	.LVL77:
 1355              		.loc 2 623 3 is_stmt 0 view .LVU441
 1356              	.LBE302:
 1357              	.LBE303:
 1358              		.loc 1 331 5 is_stmt 1 view .LVU442
 1359              		.loc 1 331 18 is_stmt 0 view .LVU443
 1360 0018 4162     		str	r1, [r0, #36]
 1361              		.loc 1 332 5 is_stmt 1 view .LVU444
 1362              		.loc 1 332 12 is_stmt 0 view .LVU445
 1363 001a FFF7FEBF 		b	chSchReadyI
 1364              	.LVL78:
 1365              		.loc 1 332 12 view .LVU446
 1366              	.LBE299:
 1367              		.cfi_endproc
 1368              	.LFE254:
ARM GAS  /tmp/ccsz88pi.s 			page 25


 1369              		.size	chSemSignalI, .-chSemSignalI
 1370 001e 00BF     		.section	.text.chSemAddCounterI,"ax",%progbits
 1371              		.align	1
 1372              		.p2align 4,,15
 1373              		.global	chSemAddCounterI
 1374              		.syntax unified
 1375              		.thumb
 1376              		.thumb_func
 1377              		.fpu softvfp
 1378              		.type	chSemAddCounterI, %function
 1379              	chSemAddCounterI:
 1380              	.LVL79:
 1381              	.LFB255:
 1382              		.loc 1 349 49 is_stmt 1 view -0
 1383              		.cfi_startproc
 1384              		@ args = 0, pretend = 0, frame = 0
 1385              		@ frame_needed = 0, uses_anonymous_args = 0
 1386              		.loc 1 351 21 view .LVU448
 1387              		.loc 1 352 3 view .LVU449
 1388              		.loc 1 352 3 view .LVU450
 1389              		.loc 1 352 3 view .LVU451
 1390              		.loc 1 353 3 view .LVU452
 1391              		.loc 1 353 3 view .LVU453
 1392              		.loc 1 357 9 view .LVU454
 1393              		.loc 1 349 49 is_stmt 0 view .LVU455
 1394 0000 70B5     		push	{r4, r5, r6, lr}
 1395              		.cfi_def_cfa_offset 16
 1396              		.cfi_offset 4, -16
 1397              		.cfi_offset 5, -12
 1398              		.cfi_offset 6, -8
 1399              		.cfi_offset 14, -4
 1400              		.loc 1 357 9 view .LVU456
 1401 0002 0C1E     		subs	r4, r1, #0
 1402 0004 12DD     		ble	.L61
 1403 0006 0546     		mov	r5, r0
 1404              		.loc 1 359 60 view .LVU457
 1405 0008 0026     		movs	r6, #0
 1406 000a 01E0     		b	.L64
 1407              	.LVL80:
 1408              	.L63:
 1409              		.loc 1 361 5 is_stmt 1 view .LVU458
 1410              		.loc 1 357 9 view .LVU459
 1411 000c 013C     		subs	r4, r4, #1
 1412              	.LVL81:
 1413              		.loc 1 357 9 is_stmt 0 view .LVU460
 1414 000e 0DD0     		beq	.L61
 1415              	.LVL82:
 1416              	.L64:
 1417              		.loc 1 358 5 is_stmt 1 view .LVU461
 1418              		.loc 1 358 9 is_stmt 0 view .LVU462
 1419 0010 AB68     		ldr	r3, [r5, #8]
 1420 0012 0133     		adds	r3, r3, #1
 1421              		.loc 1 358 8 view .LVU463
 1422 0014 002B     		cmp	r3, #0
 1423 0016 AB60     		str	r3, [r5, #8]
 1424 0018 F8DC     		bgt	.L63
 1425              		.loc 1 359 7 is_stmt 1 view .LVU464
ARM GAS  /tmp/ccsz88pi.s 			page 26


 1426              	.LVL83:
 1427              	.LBB304:
 1428              	.LBI304:
 1429              		.loc 2 617 25 view .LVU465
 1430              	.LBB305:
 1431              		.loc 2 618 3 view .LVU466
 1432              		.loc 2 618 13 is_stmt 0 view .LVU467
 1433 001a 2868     		ldr	r0, [r5]
 1434              	.LVL84:
 1435              		.loc 2 620 3 is_stmt 1 view .LVU468
 1436              		.loc 2 620 36 is_stmt 0 view .LVU469
 1437 001c 0368     		ldr	r3, [r0]
 1438              		.loc 2 620 25 view .LVU470
 1439 001e 2B60     		str	r3, [r5]
 1440              		.loc 2 621 3 is_stmt 1 view .LVU471
 1441              		.loc 2 621 25 is_stmt 0 view .LVU472
 1442 0020 5D60     		str	r5, [r3, #4]
 1443              		.loc 2 623 3 is_stmt 1 view .LVU473
 1444              	.LVL85:
 1445              		.loc 2 623 3 is_stmt 0 view .LVU474
 1446              	.LBE305:
 1447              	.LBE304:
 1448              		.loc 1 359 7 view .LVU475
 1449 0022 FFF7FEFF 		bl	chSchReadyI
 1450              	.LVL86:
 1451              		.loc 1 357 9 view .LVU476
 1452 0026 013C     		subs	r4, r4, #1
 1453              	.LVL87:
 1454              		.loc 1 359 60 view .LVU477
 1455 0028 4662     		str	r6, [r0, #36]
 1456              		.loc 1 361 5 is_stmt 1 view .LVU478
 1457              	.LVL88:
 1458              		.loc 1 357 9 view .LVU479
 1459 002a F1D1     		bne	.L64
 1460              	.LVL89:
 1461              	.L61:
 1462              		.loc 1 363 1 is_stmt 0 view .LVU480
 1463 002c 70BD     		pop	{r4, r5, r6, pc}
 1464              		.cfi_endproc
 1465              	.LFE255:
 1466              		.size	chSemAddCounterI, .-chSemAddCounterI
 1467 002e 00BF     		.section	.text.chSemSignalWait,"ax",%progbits
 1468              		.align	1
 1469              		.p2align 4,,15
 1470              		.global	chSemSignalWait
 1471              		.syntax unified
 1472              		.thumb
 1473              		.thumb_func
 1474              		.fpu softvfp
 1475              		.type	chSemSignalWait, %function
 1476              	chSemSignalWait:
 1477              	.LVL90:
 1478              	.LFB256:
 1479              		.loc 1 378 59 is_stmt 1 view -0
 1480              		.cfi_startproc
 1481              		@ args = 0, pretend = 0, frame = 0
 1482              		@ frame_needed = 0, uses_anonymous_args = 0
ARM GAS  /tmp/ccsz88pi.s 			page 27


 1483              		.loc 1 379 3 view .LVU482
 1484              		.loc 1 381 3 view .LVU483
 1485              		.loc 1 381 3 view .LVU484
 1486              		.loc 1 381 3 view .LVU485
 1487              		.loc 1 382 3 view .LVU486
 1488              		.loc 1 382 3 view .LVU487
 1489              		.loc 1 382 3 view .LVU488
 1490              		.loc 1 385 3 view .LVU489
 1491              		.loc 1 385 3 view .LVU490
 1492              		.loc 1 385 3 view .LVU491
 1493              		.loc 1 389 3 view .LVU492
 1494              	.LBB306:
 1495              	.LBI306:
 1496              		.loc 3 374 20 view .LVU493
 1497              	.LBE306:
 1498              		.loc 3 376 3 view .LVU494
 1499              	.LBB317:
 1500              	.LBB307:
 1501              	.LBI307:
 1502              		.loc 4 594 20 view .LVU495
 1503              	.LBE307:
 1504              	.LBE317:
 1505              		.loc 4 602 3 view .LVU496
 1506              	.LBB318:
 1507              	.LBB314:
 1508              	.LBB308:
 1509              	.LBI308:
 1510              		.loc 5 262 57 view .LVU497
 1511              	.LBB309:
 1512              		.loc 5 264 3 view .LVU498
 1513              	.LBE309:
 1514              	.LBE308:
 1515              	.LBE314:
 1516              	.LBE318:
 1517              		.loc 1 378 59 is_stmt 0 view .LVU499
 1518 0000 38B5     		push	{r3, r4, r5, lr}
 1519              		.cfi_def_cfa_offset 16
 1520              		.cfi_offset 3, -16
 1521              		.cfi_offset 4, -12
 1522              		.cfi_offset 5, -8
 1523              		.cfi_offset 14, -4
 1524              	.LBB319:
 1525              	.LBB315:
 1526              	.LBB312:
 1527              	.LBB310:
 1528              		.loc 5 264 3 view .LVU500
 1529 0002 2022     		movs	r2, #32
 1530              	.LBE310:
 1531              	.LBE312:
 1532              	.LBE315:
 1533              	.LBE319:
 1534              		.loc 1 378 59 view .LVU501
 1535 0004 0C46     		mov	r4, r1
 1536              	.LBB320:
 1537              	.LBB316:
 1538              	.LBB313:
 1539              	.LBB311:
ARM GAS  /tmp/ccsz88pi.s 			page 28


 1540              		.loc 5 264 3 view .LVU502
 1541              		.syntax unified
 1542              	@ 264 "../../../os/common/ext/CMSIS/include/cmsis_gcc.h" 1
 1543 0006 82F31188 		MSR basepri, r2
 1544              	@ 0 "" 2
 1545              	.LVL91:
 1546              		.loc 5 264 3 view .LVU503
 1547              		.thumb
 1548              		.syntax unified
 1549              	.LBE311:
 1550              	.LBE313:
 1551              	.LBE316:
 1552              	.LBE320:
 1553              		.loc 3 377 34 is_stmt 1 view .LVU504
 1554              		.loc 3 378 20 view .LVU505
 1555              		.loc 1 390 3 view .LVU506
 1556              		.loc 1 390 7 is_stmt 0 view .LVU507
 1557 000a 8268     		ldr	r2, [r0, #8]
 1558 000c 0132     		adds	r2, r2, #1
 1559              		.loc 1 390 6 view .LVU508
 1560 000e 002A     		cmp	r2, #0
 1561 0010 8260     		str	r2, [r0, #8]
 1562 0012 1BDD     		ble	.L72
 1563              	.LVL92:
 1564              	.L68:
 1565              		.loc 1 393 3 is_stmt 1 view .LVU509
 1566              		.loc 1 393 7 is_stmt 0 view .LVU510
 1567 0014 A368     		ldr	r3, [r4, #8]
 1568 0016 013B     		subs	r3, r3, #1
 1569              		.loc 1 393 6 view .LVU511
 1570 0018 002B     		cmp	r3, #0
 1571 001a A360     		str	r3, [r4, #8]
 1572 001c 06DB     		blt	.L73
 1573              		.loc 1 401 5 is_stmt 1 view .LVU512
 1574 001e FFF7FEFF 		bl	chSchRescheduleS
 1575              	.LVL93:
 1576              		.loc 1 402 5 view .LVU513
 1577              		.loc 1 402 9 is_stmt 0 view .LVU514
 1578 0022 0020     		movs	r0, #0
 1579              	.LVL94:
 1580              		.loc 1 404 3 is_stmt 1 view .LVU515
 1581              	.LBB321:
 1582              	.LBI321:
 1583              		.loc 3 386 20 view .LVU516
 1584              	.LBB322:
 1585              		.loc 3 388 22 view .LVU517
 1586              		.loc 3 389 33 view .LVU518
 1587              		.loc 3 395 3 view .LVU519
 1588              		.loc 3 395 3 view .LVU520
 1589              		.loc 3 395 3 view .LVU521
 1590              		.loc 3 399 3 view .LVU522
 1591              	.LBB323:
 1592              	.LBI323:
 1593              		.loc 4 618 20 view .LVU523
 1594              	.LBE323:
 1595              	.LBE322:
 1596              	.LBE321:
ARM GAS  /tmp/ccsz88pi.s 			page 29


 1597              		.loc 4 621 3 view .LVU524
 1598              	.LBB334:
 1599              	.LBB331:
 1600              	.LBB328:
 1601              	.LBB324:
 1602              	.LBI324:
 1603              		.loc 5 262 57 view .LVU525
 1604              	.LBB325:
 1605              		.loc 5 264 3 view .LVU526
 1606 0024 0023     		movs	r3, #0
 1607              		.syntax unified
 1608              	@ 264 "../../../os/common/ext/CMSIS/include/cmsis_gcc.h" 1
 1609 0026 83F31188 		MSR basepri, r3
 1610              	@ 0 "" 2
 1611              	.LVL95:
 1612              		.loc 5 264 3 is_stmt 0 view .LVU527
 1613              		.thumb
 1614              		.syntax unified
 1615              	.LBE325:
 1616              	.LBE324:
 1617              	.LBE328:
 1618              	.LBE331:
 1619              	.LBE334:
 1620              		.loc 1 406 3 is_stmt 1 view .LVU528
 1621              		.loc 1 407 1 is_stmt 0 view .LVU529
 1622 002a 38BD     		pop	{r3, r4, r5, pc}
 1623              	.LVL96:
 1624              	.L73:
 1625              	.LBB335:
 1626              		.loc 1 394 5 is_stmt 1 view .LVU530
 1627              		.loc 1 394 15 is_stmt 0 view .LVU531
 1628 002c 0C4A     		ldr	r2, .L74
 1629              	.LBB336:
 1630              	.LBB337:
 1631              		.loc 2 612 35 view .LVU532
 1632 002e 6368     		ldr	r3, [r4, #4]
 1633              	.LBE337:
 1634              	.LBE336:
 1635              		.loc 1 394 15 view .LVU533
 1636 0030 9569     		ldr	r5, [r2, #24]
 1637              	.LVL97:
 1638              		.loc 1 395 5 is_stmt 1 view .LVU534
 1639              	.LBB340:
 1640              	.LBI336:
 1641              		.loc 2 609 20 view .LVU535
 1642              	.LBB338:
 1643              		.loc 2 611 3 view .LVU536
 1644              	.LBE338:
 1645              	.LBE340:
 1646              		.loc 1 397 5 is_stmt 0 view .LVU537
 1647 0032 0520     		movs	r0, #5
 1648              	.LBB341:
 1649              	.LBB339:
 1650              		.loc 2 612 30 view .LVU538
 1651 0034 C5E90043 		strd	r4, r3, [r5]
 1652              		.loc 2 613 3 is_stmt 1 view .LVU539
 1653              		.loc 2 613 30 is_stmt 0 view .LVU540
ARM GAS  /tmp/ccsz88pi.s 			page 30


 1654 0038 1D60     		str	r5, [r3]
 1655              		.loc 2 614 3 is_stmt 1 view .LVU541
 1656              		.loc 2 614 30 is_stmt 0 view .LVU542
 1657 003a 6560     		str	r5, [r4, #4]
 1658              	.LVL98:
 1659              		.loc 2 614 30 view .LVU543
 1660              	.LBE339:
 1661              	.LBE341:
 1662              		.loc 1 396 5 is_stmt 1 view .LVU544
 1663              		.loc 1 396 19 is_stmt 0 view .LVU545
 1664 003c 6C62     		str	r4, [r5, #36]
 1665              		.loc 1 397 5 is_stmt 1 view .LVU546
 1666 003e FFF7FEFF 		bl	chSchGoSleepS
 1667              	.LVL99:
 1668              		.loc 1 398 5 view .LVU547
 1669              		.loc 1 398 9 is_stmt 0 view .LVU548
 1670 0042 686A     		ldr	r0, [r5, #36]
 1671              	.LVL100:
 1672              		.loc 1 398 9 view .LVU549
 1673              	.LBE335:
 1674              		.loc 1 404 3 is_stmt 1 view .LVU550
 1675              	.LBB342:
 1676              		.loc 3 386 20 view .LVU551
 1677              	.LBB332:
 1678              		.loc 3 388 22 view .LVU552
 1679              		.loc 3 389 33 view .LVU553
 1680              		.loc 3 395 3 view .LVU554
 1681              		.loc 3 395 3 view .LVU555
 1682              		.loc 3 395 3 view .LVU556
 1683              		.loc 3 399 3 view .LVU557
 1684              	.LBB329:
 1685              		.loc 4 618 20 view .LVU558
 1686              	.LBE329:
 1687              	.LBE332:
 1688              	.LBE342:
 1689              		.loc 4 621 3 view .LVU559
 1690              	.LBB343:
 1691              	.LBB333:
 1692              	.LBB330:
 1693              	.LBB327:
 1694              		.loc 5 262 57 view .LVU560
 1695              	.LBB326:
 1696              		.loc 5 264 3 view .LVU561
 1697 0044 0023     		movs	r3, #0
 1698              		.syntax unified
 1699              	@ 264 "../../../os/common/ext/CMSIS/include/cmsis_gcc.h" 1
 1700 0046 83F31188 		MSR basepri, r3
 1701              	@ 0 "" 2
 1702              	.LVL101:
 1703              		.loc 5 264 3 is_stmt 0 view .LVU562
 1704              		.thumb
 1705              		.syntax unified
 1706              	.LBE326:
 1707              	.LBE327:
 1708              	.LBE330:
 1709              	.LBE333:
 1710              	.LBE343:
ARM GAS  /tmp/ccsz88pi.s 			page 31


 1711              		.loc 1 406 3 is_stmt 1 view .LVU563
 1712              		.loc 1 407 1 is_stmt 0 view .LVU564
 1713 004a 38BD     		pop	{r3, r4, r5, pc}
 1714              	.LVL102:
 1715              	.L72:
 1716              		.loc 1 407 1 view .LVU565
 1717 004c 0346     		mov	r3, r0
 1718              		.loc 1 391 5 is_stmt 1 view .LVU566
 1719              	.LVL103:
 1720              	.LBB344:
 1721              	.LBI344:
 1722              		.loc 2 617 25 view .LVU567
 1723              	.LBB345:
 1724              		.loc 2 618 3 view .LVU568
 1725              		.loc 2 618 13 is_stmt 0 view .LVU569
 1726 004e 0068     		ldr	r0, [r0]
 1727              	.LVL104:
 1728              		.loc 2 620 3 is_stmt 1 view .LVU570
 1729              		.loc 2 620 36 is_stmt 0 view .LVU571
 1730 0050 0268     		ldr	r2, [r0]
 1731              		.loc 2 620 25 view .LVU572
 1732 0052 1A60     		str	r2, [r3]
 1733              		.loc 2 621 3 is_stmt 1 view .LVU573
 1734              		.loc 2 621 25 is_stmt 0 view .LVU574
 1735 0054 5360     		str	r3, [r2, #4]
 1736              		.loc 2 623 3 is_stmt 1 view .LVU575
 1737              	.LVL105:
 1738              		.loc 2 623 3 is_stmt 0 view .LVU576
 1739              	.LBE345:
 1740              	.LBE344:
 1741              		.loc 1 391 5 view .LVU577
 1742 0056 FFF7FEFF 		bl	chSchReadyI
 1743              	.LVL106:
 1744              		.loc 1 391 59 view .LVU578
 1745 005a 0023     		movs	r3, #0
 1746 005c 4362     		str	r3, [r0, #36]
 1747 005e D9E7     		b	.L68
 1748              	.L75:
 1749              		.align	2
 1750              	.L74:
 1751 0060 00000000 		.word	ch
 1752              		.cfi_endproc
 1753              	.LFE256:
 1754              		.size	chSemSignalWait, .-chSemSignalWait
 1755              		.text
 1756              	.Letext0:
 1757              		.file 6 "/usr/lib/gcc/arm-none-eabi/10.3.1/include/stdint.h"
 1758              		.file 7 "../../../os/common/ports/ARMCMx/compilers/GCC/chtypes.h"
 1759              		.file 8 "../../../os/rt/include/chsystypes.h"
 1760              		.file 9 "../../../os/common/ports/ARMCMx/chcore.h"
 1761              		.file 10 "../../../os/rt/include/chtm.h"
 1762              		.file 11 "../../../os/rt/include/chsem.h"
 1763              		.file 12 "../../../os/rt/include/chmtx.h"