ARM GAS  /tmp/cc4ZUYx9.s 			page 1


   1              		.cpu cortex-m4
   2              		.eabi_attribute 20, 1
   3              		.eabi_attribute 21, 1
   4              		.eabi_attribute 23, 3
   5              		.eabi_attribute 24, 1
   6              		.eabi_attribute 25, 1
   7              		.eabi_attribute 26, 1
   8              		.eabi_attribute 30, 2
   9              		.eabi_attribute 34, 1
  10              		.eabi_attribute 18, 4
  11              		.file	"chthreads.c"
  12              		.text
  13              	.Ltext0:
  14              		.cfi_sections	.debug_frame
  15              		.section	.text._thread_init,"ax",%progbits
  16              		.align	1
  17              		.p2align 4,,15
  18              		.global	_thread_init
  19              		.arch armv7e-m
  20              		.syntax unified
  21              		.thumb
  22              		.thumb_func
  23              		.fpu softvfp
  24              		.type	_thread_init, %function
  25              	_thread_init:
  26              	.LVL0:
  27              	.LFB246:
  28              		.file 1 "../../../os/rt/src/chthreads.c"
  29              		.loc 1 88 70 view -0
  30              		.cfi_startproc
  31              		@ args = 0, pretend = 0, frame = 0
  32              		@ frame_needed = 0, uses_anonymous_args = 0
  33              		@ link register save eliminated.
  34              		.loc 1 90 3 view .LVU1
  35              		.loc 1 88 70 is_stmt 0 view .LVU2
  36 0000 10B4     		push	{r4}
  37              		.cfi_def_cfa_offset 4
  38              		.cfi_offset 4, -4
  39              		.loc 1 98 17 view .LVU3
  40 0002 0024     		movs	r4, #0
  41              		.loc 1 108 17 view .LVU4
  42 0004 8161     		str	r1, [r0, #24]
  43              		.loc 1 109 3 view .LVU5
  44 0006 0C49     		ldr	r1, .L4
  45              	.LVL1:
  46              		.loc 1 90 17 view .LVU6
  47 0008 8260     		str	r2, [r0, #8]
  48              		.loc 1 91 3 is_stmt 1 view .LVU7
  49              		.loc 1 92 3 view .LVU8
  50              		.loc 1 97 3 view .LVU9
  51              		.loc 1 98 17 is_stmt 0 view .LVU10
  52 000a C0E90E42 		strd	r4, r2, [r0, #56]
  53              		.loc 1 101 3 is_stmt 1 view .LVU11
  54              		.loc 1 107 17 is_stmt 0 view .LVU12
  55 000e 0122     		movs	r2, #1
  56              	.LVL2:
  57              		.loc 1 107 17 view .LVU13
ARM GAS  /tmp/cc4ZUYx9.s 			page 2


  58 0010 80F82220 		strb	r2, [r0, #34]
  59              		.loc 1 109 3 view .LVU14
  60 0014 4A69     		ldr	r2, [r1, #20]
  61              		.loc 1 101 17 view .LVU15
  62 0016 4463     		str	r4, [r0, #52]
  63              		.loc 1 107 3 is_stmt 1 view .LVU16
  64              		.loc 1 108 3 view .LVU17
  65              		.loc 1 109 3 view .LVU18
  66              		.loc 1 109 3 view .LVU19
  67              		.loc 1 91 17 is_stmt 0 view .LVU20
  68 0018 0224     		movs	r4, #2
  69              		.loc 1 109 3 view .LVU21
  70 001a 4261     		str	r2, [r0, #20]
  71              		.loc 1 109 3 is_stmt 1 view .LVU22
  72 001c 0161     		str	r1, [r0, #16]
  73              		.loc 1 91 17 is_stmt 0 view .LVU23
  74 001e 0484     		strh	r4, [r0, #32]	@ movhi
  75              		.loc 1 109 3 view .LVU24
  76 0020 1061     		str	r0, [r2, #16]
  77              		.loc 1 109 3 is_stmt 1 view .LVU25
  78              		.loc 1 114 3 is_stmt 0 view .LVU26
  79 0022 00F12804 		add	r4, r0, #40
  80              		.loc 1 117 3 view .LVU27
  81 0026 00F12C02 		add	r2, r0, #44
  82              	.LBB259:
  83              	.LBB260:
  84              		.file 2 "../../../os/rt/include/chschd.h"
  85              		.loc 2 550 13 view .LVU28
  86 002a C0E90A42 		strd	r4, r2, [r0, #40]
  87              	.LBE260:
  88              	.LBE259:
  89              		.loc 1 109 3 view .LVU29
  90 002e 4861     		str	r0, [r1, #20]
  91              		.loc 1 109 17 is_stmt 1 view .LVU30
  92              		.loc 1 114 3 view .LVU31
  93              	.LVL3:
  94              	.LBB263:
  95              	.LBI263:
  96              		.loc 2 510 20 view .LVU32
  97              	.LBB264:
  98              		.loc 2 512 3 view .LVU33
  99              	.LBE264:
 100              	.LBE263:
 101              	.LBB265:
 102              	.LBB261:
 103              		.loc 2 551 3 view .LVU34
 104              	.LBE261:
 105              	.LBE265:
 106              		.loc 1 124 1 is_stmt 0 view .LVU35
 107 0030 10BC     		pop	{r4}
 108              		.cfi_restore 4
 109              		.cfi_def_cfa_offset 0
 110              	.LVL4:
 111              	.LBB266:
 112              	.LBB262:
 113              		.loc 2 551 13 view .LVU36
 114 0032 0263     		str	r2, [r0, #48]
ARM GAS  /tmp/cc4ZUYx9.s 			page 3


 115              	.LBE262:
 116              	.LBE266:
 117              		.loc 1 122 3 is_stmt 1 view .LVU37
 118              		.loc 1 122 30 view .LVU38
 119              		.loc 1 123 3 view .LVU39
 120              		.loc 1 124 1 is_stmt 0 view .LVU40
 121 0034 7047     		bx	lr
 122              	.L5:
 123 0036 00BF     		.align	2
 124              	.L4:
 125 0038 00000000 		.word	ch
 126              		.cfi_endproc
 127              	.LFE246:
 128              		.size	_thread_init, .-_thread_init
 129              		.section	.text.chThdCreateSuspendedI,"ax",%progbits
 130              		.align	1
 131              		.p2align 4,,15
 132              		.global	chThdCreateSuspendedI
 133              		.syntax unified
 134              		.thumb
 135              		.thumb_func
 136              		.fpu softvfp
 137              		.type	chThdCreateSuspendedI, %function
 138              	chThdCreateSuspendedI:
 139              	.LVL5:
 140              	.LFB247:
 141              		.loc 1 167 65 is_stmt 1 view -0
 142              		.cfi_startproc
 143              		@ args = 0, pretend = 0, frame = 0
 144              		@ frame_needed = 0, uses_anonymous_args = 0
 145              		@ link register save eliminated.
 146              		.loc 1 168 3 view .LVU42
 147              		.loc 1 170 21 view .LVU43
 148              		.loc 1 171 3 view .LVU44
 149              		.loc 1 171 3 view .LVU45
 150              		.loc 1 171 3 view .LVU46
 151              		.loc 1 172 3 view .LVU47
 152              		.loc 1 172 3 view .LVU48
 153              		.loc 1 172 3 view .LVU49
 154              		.loc 1 176 3 view .LVU50
 155              		.loc 1 176 3 view .LVU51
 156              		.loc 1 176 3 view .LVU52
 157              		.loc 1 181 3 view .LVU53
 158              		.loc 1 186 14 is_stmt 0 view .LVU54
 159 0000 D0E90113 		ldrd	r1, r3, [r0, #4]
 160              		.loc 1 167 65 view .LVU55
 161 0004 0246     		mov	r2, r0
 162 0006 F0B4     		push	{r4, r5, r6, r7}
 163              		.cfi_def_cfa_offset 16
 164              		.cfi_offset 4, -16
 165              		.cfi_offset 5, -12
 166              		.cfi_offset 6, -8
 167              		.cfi_offset 7, -4
 168              		.loc 1 190 3 view .LVU56
 169 0008 5569     		ldr	r5, [r2, #20]
 170 000a 0069     		ldr	r0, [r0, #16]
 171              	.LVL6:
ARM GAS  /tmp/cc4ZUYx9.s 			page 4


 172              		.loc 1 186 14 view .LVU57
 173 000c 43F82C1C 		str	r1, [r3, #-44]
 174              	.LBB273:
 175              	.LBB274:
 176              		.loc 1 92 17 view .LVU58
 177 0010 0024     		movs	r4, #0
 178              		.loc 1 109 3 view .LVU59
 179 0012 1849     		ldr	r1, .L8
 180              	.LBE274:
 181              	.LBE273:
 182              		.loc 1 190 3 view .LVU60
 183 0014 43F8685C 		str	r5, [r3, #-104]
 184              	.LBB286:
 185              	.LBB279:
 186              		.loc 1 107 17 view .LVU61
 187 0018 0126     		movs	r6, #1
 188              	.LBE279:
 189              	.LBE286:
 190              		.loc 1 193 10 view .LVU62
 191 001a 1568     		ldr	r5, [r2]
 192 001c D268     		ldr	r2, [r2, #12]
 193              	.LVL7:
 194              	.LBB287:
 195              	.LBB280:
 196              		.loc 1 107 17 view .LVU63
 197 001e 03F8266C 		strb	r6, [r3, #-38]
 198              		.loc 1 91 17 view .LVU64
 199 0022 4FF0020C 		mov	ip, #2
 200 0026 03F828CC 		strb	ip, [r3, #-40]
 201              		.loc 1 92 17 view .LVU65
 202 002a 03F8274C 		strb	r4, [r3, #-39]
 203              		.loc 1 98 17 view .LVU66
 204 002e 43E90442 		strd	r4, r2, [r3, #-16]
 205              		.loc 1 101 17 view .LVU67
 206 0032 43F8144C 		str	r4, [r3, #-20]
 207              		.loc 1 109 3 view .LVU68
 208 0036 4C69     		ldr	r4, [r1, #20]
 209              	.LBE280:
 210              	.LBE287:
 211              		.loc 1 190 3 view .LVU69
 212 0038 43F86C0C 		str	r0, [r3, #-108]
 213              	.LBB288:
 214              	.LBB281:
 215              		.loc 1 108 17 view .LVU70
 216 003c 43F8305C 		str	r5, [r3, #-48]
 217              	.LBE281:
 218              	.LBE288:
 219              		.loc 1 181 6 view .LVU71
 220 0040 A3F14800 		sub	r0, r3, #72
 221              	.LVL8:
 222              		.loc 1 186 3 is_stmt 1 view .LVU72
 223              		.loc 1 190 3 view .LVU73
 224              	.LBB289:
 225              	.LBB282:
 226              		.loc 1 90 17 is_stmt 0 view .LVU74
 227 0044 43F8402C 		str	r2, [r3, #-64]
 228              	.LBE282:
ARM GAS  /tmp/cc4ZUYx9.s 			page 5


 229              	.LBE289:
 230              		.loc 1 190 3 view .LVU75
 231 0048 0B4F     		ldr	r7, .L8+4
 232 004a 43F84C7C 		str	r7, [r3, #-76]
 233              	.LBB290:
 234              	.LBB283:
 235              		.loc 1 114 3 view .LVU76
 236 004e A3F12005 		sub	r5, r3, #32
 237              		.loc 1 117 3 view .LVU77
 238 0052 A3F11C02 		sub	r2, r3, #28
 239              	.LBE283:
 240              	.LBE290:
 241              		.loc 1 190 3 view .LVU78
 242 0056 A3F16C06 		sub	r6, r3, #108
 243              	.LBB291:
 244              	.LBB284:
 245              		.loc 1 109 3 view .LVU79
 246 005a 43E90E14 		strd	r1, r4, [r3, #-56]
 247              	.LBE284:
 248              	.LBE291:
 249              		.loc 1 190 3 view .LVU80
 250 005e 43F83C6C 		str	r6, [r3, #-60]
 251              		.loc 1 190 3 is_stmt 1 view .LVU81
 252              		.loc 1 190 3 view .LVU82
 253              		.loc 1 190 3 view .LVU83
 254              		.loc 1 190 63 view .LVU84
 255              		.loc 1 193 3 view .LVU85
 256              	.LVL9:
 257              	.LBB292:
 258              	.LBI273:
 259              		.loc 1 88 11 view .LVU86
 260              	.LBB285:
 261              		.loc 1 90 3 view .LVU87
 262              		.loc 1 91 3 view .LVU88
 263              		.loc 1 92 3 view .LVU89
 264              		.loc 1 97 3 view .LVU90
 265              		.loc 1 98 3 view .LVU91
 266              		.loc 1 101 3 view .LVU92
 267              		.loc 1 107 3 view .LVU93
 268              		.loc 1 108 3 view .LVU94
 269              		.loc 1 109 3 view .LVU95
 270              		.loc 1 109 3 view .LVU96
 271              		.loc 1 109 3 view .LVU97
 272 0062 2061     		str	r0, [r4, #16]
 273              		.loc 1 109 3 view .LVU98
 274 0064 4861     		str	r0, [r1, #20]
 275              		.loc 1 109 17 view .LVU99
 276              		.loc 1 114 3 view .LVU100
 277              	.LVL10:
 278              	.LBB275:
 279              	.LBI275:
 280              		.loc 2 510 20 view .LVU101
 281              	.LBB276:
 282              		.loc 2 512 3 view .LVU102
 283              	.LBE276:
 284              	.LBE275:
 285              	.LBB277:
ARM GAS  /tmp/cc4ZUYx9.s 			page 6


 286              	.LBB278:
 287              		.loc 2 550 13 is_stmt 0 view .LVU103
 288 0066 43E90852 		strd	r5, r2, [r3, #-32]
 289              		.loc 2 551 3 is_stmt 1 view .LVU104
 290              		.loc 2 551 13 is_stmt 0 view .LVU105
 291 006a 43F8182C 		str	r2, [r3, #-24]
 292              	.LBE278:
 293              	.LBE277:
 294              		.loc 1 122 3 is_stmt 1 view .LVU106
 295              		.loc 1 122 30 view .LVU107
 296              		.loc 1 123 3 view .LVU108
 297              	.LVL11:
 298              		.loc 1 123 3 is_stmt 0 view .LVU109
 299              	.LBE285:
 300              	.LBE292:
 301              		.loc 1 194 1 view .LVU110
 302 006e F0BC     		pop	{r4, r5, r6, r7}
 303              		.cfi_restore 7
 304              		.cfi_restore 6
 305              		.cfi_restore 5
 306              		.cfi_restore 4
 307              		.cfi_def_cfa_offset 0
 308              	.LVL12:
 309              		.loc 1 194 1 view .LVU111
 310 0070 7047     		bx	lr
 311              	.L9:
 312 0072 00BF     		.align	2
 313              	.L8:
 314 0074 00000000 		.word	ch
 315 0078 00000000 		.word	_port_thread_start
 316              		.cfi_endproc
 317              	.LFE247:
 318              		.size	chThdCreateSuspendedI, .-chThdCreateSuspendedI
 319              		.section	.text.chThdCreateSuspended,"ax",%progbits
 320              		.align	1
 321              		.p2align 4,,15
 322              		.global	chThdCreateSuspended
 323              		.syntax unified
 324              		.thumb
 325              		.thumb_func
 326              		.fpu softvfp
 327              		.type	chThdCreateSuspended, %function
 328              	chThdCreateSuspended:
 329              	.LVL13:
 330              	.LFB248:
 331              		.loc 1 216 64 is_stmt 1 view -0
 332              		.cfi_startproc
 333              		@ args = 0, pretend = 0, frame = 0
 334              		@ frame_needed = 0, uses_anonymous_args = 0
 335              		@ link register save eliminated.
 336              		.loc 1 217 3 view .LVU113
 337              		.loc 1 220 3 view .LVU114
 338              		.loc 1 220 3 view .LVU115
 339              		.loc 1 220 3 view .LVU116
 340              		.loc 1 230 3 view .LVU117
 341              	.LBB310:
 342              	.LBI310:
ARM GAS  /tmp/cc4ZUYx9.s 			page 7


 343              		.file 3 "../../../os/rt/include/chsys.h"
 344              		.loc 3 374 20 view .LVU118
 345              	.LBE310:
 346              		.loc 3 376 3 view .LVU119
 347              	.LBB318:
 348              	.LBB311:
 349              	.LBI311:
 350              		.file 4 "../../../os/common/ports/ARMCMx/chcore_v7m.h"
 351              		.loc 4 594 20 view .LVU120
 352              	.LBE311:
 353              	.LBE318:
 354              		.loc 4 602 3 view .LVU121
 355              	.LBB319:
 356              	.LBB316:
 357              	.LBB312:
 358              	.LBI312:
 359              		.file 5 "../../../os/common/ext/CMSIS/include/cmsis_gcc.h"
 360              		.loc 5 262 57 view .LVU122
 361              	.LBB313:
 362              		.loc 5 264 3 view .LVU123
 363              	.LBE313:
 364              	.LBE312:
 365              	.LBE316:
 366              	.LBE319:
 367              		.loc 1 216 64 is_stmt 0 view .LVU124
 368 0000 70B4     		push	{r4, r5, r6}
 369              		.cfi_def_cfa_offset 12
 370              		.cfi_offset 4, -12
 371              		.cfi_offset 5, -8
 372              		.cfi_offset 6, -4
 373              		.loc 1 216 64 view .LVU125
 374 0002 0246     		mov	r2, r0
 375              	.LBB320:
 376              	.LBB317:
 377              	.LBB315:
 378              	.LBB314:
 379              		.loc 5 264 3 view .LVU126
 380 0004 2023     		movs	r3, #32
 381              		.syntax unified
 382              	@ 264 "../../../os/common/ext/CMSIS/include/cmsis_gcc.h" 1
 383 0006 83F31188 		MSR basepri, r3
 384              	@ 0 "" 2
 385              	.LVL14:
 386              		.loc 5 264 3 view .LVU127
 387              		.thumb
 388              		.syntax unified
 389              	.LBE314:
 390              	.LBE315:
 391              	.LBE317:
 392              	.LBE320:
 393              		.loc 3 377 34 is_stmt 1 view .LVU128
 394              		.loc 3 378 20 view .LVU129
 395              		.loc 1 231 3 view .LVU130
 396              	.LBB321:
 397              	.LBI321:
 398              		.loc 1 167 11 view .LVU131
 399              	.LBB322:
ARM GAS  /tmp/cc4ZUYx9.s 			page 8


 400              		.loc 1 168 3 view .LVU132
 401              		.loc 1 170 21 view .LVU133
 402              		.loc 1 171 3 view .LVU134
 403              		.loc 1 171 3 view .LVU135
 404              		.loc 1 171 3 view .LVU136
 405              		.loc 1 172 3 view .LVU137
 406              		.loc 1 172 3 view .LVU138
 407              		.loc 1 172 3 view .LVU139
 408              		.loc 1 176 3 view .LVU140
 409              		.loc 1 176 3 view .LVU141
 410              		.loc 1 176 3 view .LVU142
 411              		.loc 1 181 3 view .LVU143
 412              		.loc 1 186 14 is_stmt 0 view .LVU144
 413 000a D0E90143 		ldrd	r4, r3, [r0, #4]
 414              		.loc 1 190 3 view .LVU145
 415 000e 5569     		ldr	r5, [r2, #20]
 416 0010 0069     		ldr	r0, [r0, #16]
 417              	.LVL15:
 418              		.loc 1 186 14 view .LVU146
 419 0012 43F82C4C 		str	r4, [r3, #-44]
 420              	.LBB323:
 421              	.LBB324:
 422              		.loc 1 92 17 view .LVU147
 423 0016 0021     		movs	r1, #0
 424              		.loc 1 109 3 view .LVU148
 425 0018 194C     		ldr	r4, .L12
 426              	.LBE324:
 427              	.LBE323:
 428              		.loc 1 190 3 view .LVU149
 429 001a 43F8685C 		str	r5, [r3, #-104]
 430              	.LBB334:
 431              	.LBB329:
 432              		.loc 1 91 17 view .LVU150
 433 001e 4FF0020C 		mov	ip, #2
 434              		.loc 1 107 17 view .LVU151
 435 0022 0126     		movs	r6, #1
 436              	.LBE329:
 437              	.LBE334:
 438              		.loc 1 193 10 view .LVU152
 439 0024 1568     		ldr	r5, [r2]
 440 0026 D268     		ldr	r2, [r2, #12]
 441              	.LVL16:
 442              	.LBB335:
 443              	.LBB330:
 444              		.loc 1 107 17 view .LVU153
 445 0028 03F8266C 		strb	r6, [r3, #-38]
 446              		.loc 1 91 17 view .LVU154
 447 002c 03F828CC 		strb	ip, [r3, #-40]
 448              		.loc 1 92 17 view .LVU155
 449 0030 03F8271C 		strb	r1, [r3, #-39]
 450              		.loc 1 108 17 view .LVU156
 451 0034 43F8305C 		str	r5, [r3, #-48]
 452              	.LBE330:
 453              	.LBE335:
 454              		.loc 1 190 3 view .LVU157
 455 0038 124E     		ldr	r6, .L12+4
 456              	.LBB336:
ARM GAS  /tmp/cc4ZUYx9.s 			page 9


 457              	.LBB331:
 458              		.loc 1 109 3 view .LVU158
 459 003a 6569     		ldr	r5, [r4, #20]
 460              	.LBE331:
 461              	.LBE336:
 462              		.loc 1 190 3 view .LVU159
 463 003c 43F86C0C 		str	r0, [r3, #-108]
 464 0040 43F84C6C 		str	r6, [r3, #-76]
 465              		.loc 1 181 6 view .LVU160
 466 0044 A3F14800 		sub	r0, r3, #72
 467              	.LVL17:
 468              		.loc 1 186 3 is_stmt 1 view .LVU161
 469              		.loc 1 190 3 view .LVU162
 470 0048 A3F16C06 		sub	r6, r3, #108
 471              	.LBB337:
 472              	.LBB332:
 473              		.loc 1 98 17 is_stmt 0 view .LVU163
 474 004c 43E90412 		strd	r1, r2, [r3, #-16]
 475              		.loc 1 90 17 view .LVU164
 476 0050 43F8402C 		str	r2, [r3, #-64]
 477              		.loc 1 109 3 view .LVU165
 478 0054 43F8384C 		str	r4, [r3, #-56]
 479              		.loc 1 101 17 view .LVU166
 480 0058 43F8141C 		str	r1, [r3, #-20]
 481              		.loc 1 109 3 view .LVU167
 482 005c 43F8345C 		str	r5, [r3, #-52]
 483              		.loc 1 117 3 view .LVU168
 484 0060 A3F11C02 		sub	r2, r3, #28
 485              	.LBE332:
 486              	.LBE337:
 487              		.loc 1 190 3 view .LVU169
 488 0064 43F83C6C 		str	r6, [r3, #-60]
 489              		.loc 1 190 3 is_stmt 1 view .LVU170
 490              		.loc 1 190 3 view .LVU171
 491              		.loc 1 190 3 view .LVU172
 492              		.loc 1 190 63 view .LVU173
 493              		.loc 1 193 3 view .LVU174
 494              	.LVL18:
 495              	.LBB338:
 496              	.LBI323:
 497              		.loc 1 88 11 view .LVU175
 498              	.LBB333:
 499              		.loc 1 90 3 view .LVU176
 500              		.loc 1 91 3 view .LVU177
 501              		.loc 1 92 3 view .LVU178
 502              		.loc 1 97 3 view .LVU179
 503              		.loc 1 98 3 view .LVU180
 504              		.loc 1 101 3 view .LVU181
 505              		.loc 1 107 3 view .LVU182
 506              		.loc 1 108 3 view .LVU183
 507              		.loc 1 109 3 view .LVU184
 508              		.loc 1 109 3 view .LVU185
 509              		.loc 1 109 3 view .LVU186
 510 0068 2861     		str	r0, [r5, #16]
 511              		.loc 1 109 3 view .LVU187
 512 006a 6061     		str	r0, [r4, #20]
 513              		.loc 1 109 17 view .LVU188
ARM GAS  /tmp/cc4ZUYx9.s 			page 10


 514              		.loc 1 114 3 view .LVU189
 515              	.LVL19:
 516              	.LBB325:
 517              	.LBI325:
 518              		.loc 2 510 20 view .LVU190
 519              	.LBB326:
 520              		.loc 2 512 3 view .LVU191
 521              	.LBE326:
 522              	.LBE325:
 523              		.loc 1 114 3 is_stmt 0 view .LVU192
 524 006c A3F12004 		sub	r4, r3, #32
 525              	.LVL20:
 526              	.LBB327:
 527              	.LBB328:
 528              		.loc 2 550 13 view .LVU193
 529 0070 43E90842 		strd	r4, r2, [r3, #-32]
 530              		.loc 2 551 3 is_stmt 1 view .LVU194
 531              		.loc 2 551 13 is_stmt 0 view .LVU195
 532 0074 43F8182C 		str	r2, [r3, #-24]
 533              	.LBE328:
 534              	.LBE327:
 535              		.loc 1 122 3 is_stmt 1 view .LVU196
 536              		.loc 1 122 30 view .LVU197
 537              		.loc 1 123 3 view .LVU198
 538              	.LVL21:
 539              		.loc 1 123 3 is_stmt 0 view .LVU199
 540              	.LBE333:
 541              	.LBE338:
 542              	.LBE322:
 543              	.LBE321:
 544              		.loc 1 232 3 is_stmt 1 view .LVU200
 545              	.LBB339:
 546              	.LBI339:
 547              		.loc 3 386 20 view .LVU201
 548              	.LBB340:
 549              		.loc 3 388 22 view .LVU202
 550              		.loc 3 389 33 view .LVU203
 551              		.loc 3 395 3 view .LVU204
 552              		.loc 3 395 3 view .LVU205
 553              		.loc 3 395 3 view .LVU206
 554              		.loc 3 399 3 view .LVU207
 555              	.LBB341:
 556              	.LBI341:
 557              		.loc 4 618 20 view .LVU208
 558              	.LBE341:
 559              	.LBE340:
 560              	.LBE339:
 561              		.loc 4 621 3 view .LVU209
 562              	.LBB346:
 563              	.LBB345:
 564              	.LBB344:
 565              	.LBB342:
 566              	.LBI342:
 567              		.loc 5 262 57 view .LVU210
 568              	.LBB343:
 569              		.loc 5 264 3 view .LVU211
 570              		.syntax unified
ARM GAS  /tmp/cc4ZUYx9.s 			page 11


 571              	@ 264 "../../../os/common/ext/CMSIS/include/cmsis_gcc.h" 1
 572 0078 81F31188 		MSR basepri, r1
 573              	@ 0 "" 2
 574              	.LVL22:
 575              		.loc 5 264 3 is_stmt 0 view .LVU212
 576              		.thumb
 577              		.syntax unified
 578              	.LBE343:
 579              	.LBE342:
 580              	.LBE344:
 581              	.LBE345:
 582              	.LBE346:
 583              		.loc 1 234 3 is_stmt 1 view .LVU213
 584              		.loc 1 235 1 is_stmt 0 view .LVU214
 585 007c 70BC     		pop	{r4, r5, r6}
 586              		.cfi_restore 6
 587              		.cfi_restore 5
 588              		.cfi_restore 4
 589              		.cfi_def_cfa_offset 0
 590              	.LVL23:
 591              		.loc 1 235 1 view .LVU215
 592 007e 7047     		bx	lr
 593              	.L13:
 594              		.align	2
 595              	.L12:
 596 0080 00000000 		.word	ch
 597 0084 00000000 		.word	_port_thread_start
 598              		.cfi_endproc
 599              	.LFE248:
 600              		.size	chThdCreateSuspended, .-chThdCreateSuspended
 601              		.section	.text.chThdCreateI,"ax",%progbits
 602              		.align	1
 603              		.p2align 4,,15
 604              		.global	chThdCreateI
 605              		.syntax unified
 606              		.thumb
 607              		.thumb_func
 608              		.fpu softvfp
 609              		.type	chThdCreateI, %function
 610              	chThdCreateI:
 611              	.LVL24:
 612              	.LFB249:
 613              		.loc 1 259 56 is_stmt 1 view -0
 614              		.cfi_startproc
 615              		@ args = 0, pretend = 0, frame = 0
 616              		@ frame_needed = 0, uses_anonymous_args = 0
 617              		@ link register save eliminated.
 618              		.loc 1 261 3 view .LVU217
 619              	.LBB355:
 620              	.LBB356:
 621              		.loc 1 186 14 is_stmt 0 view .LVU218
 622 0000 D0E90113 		ldrd	r1, r3, [r0, #4]
 623              	.LBE356:
 624              	.LBE355:
 625              		.loc 1 259 56 view .LVU219
 626 0004 0246     		mov	r2, r0
 627              	.LVL25:
ARM GAS  /tmp/cc4ZUYx9.s 			page 12


 628              	.LBB377:
 629              	.LBI355:
 630              		.loc 1 167 11 is_stmt 1 view .LVU220
 631              	.LBB375:
 632              		.loc 1 168 3 view .LVU221
 633              		.loc 1 170 21 view .LVU222
 634              		.loc 1 171 3 view .LVU223
 635              		.loc 1 171 3 view .LVU224
 636              		.loc 1 171 3 view .LVU225
 637              		.loc 1 172 3 view .LVU226
 638              		.loc 1 172 3 view .LVU227
 639              		.loc 1 172 3 view .LVU228
 640              		.loc 1 176 3 view .LVU229
 641              		.loc 1 176 3 view .LVU230
 642              		.loc 1 176 3 view .LVU231
 643              		.loc 1 181 3 view .LVU232
 644              	.LBE375:
 645              	.LBE377:
 646              		.loc 1 259 56 is_stmt 0 view .LVU233
 647 0006 F0B4     		push	{r4, r5, r6, r7}
 648              		.cfi_def_cfa_offset 16
 649              		.cfi_offset 4, -16
 650              		.cfi_offset 5, -12
 651              		.cfi_offset 6, -8
 652              		.cfi_offset 7, -4
 653              	.LBB378:
 654              	.LBB376:
 655              		.loc 1 190 3 view .LVU234
 656 0008 5569     		ldr	r5, [r2, #20]
 657 000a 0069     		ldr	r0, [r0, #16]
 658              	.LVL26:
 659              		.loc 1 186 14 view .LVU235
 660 000c 43F82C1C 		str	r1, [r3, #-44]
 661              	.LBB357:
 662              	.LBB358:
 663              		.loc 1 92 17 view .LVU236
 664 0010 0024     		movs	r4, #0
 665              		.loc 1 109 3 view .LVU237
 666 0012 1849     		ldr	r1, .L16
 667              	.LBE358:
 668              	.LBE357:
 669              		.loc 1 190 3 view .LVU238
 670 0014 43F8685C 		str	r5, [r3, #-104]
 671              	.LBB369:
 672              	.LBB363:
 673              		.loc 1 107 17 view .LVU239
 674 0018 0126     		movs	r6, #1
 675              	.LBE363:
 676              	.LBE369:
 677              		.loc 1 193 10 view .LVU240
 678 001a 1568     		ldr	r5, [r2]
 679 001c D268     		ldr	r2, [r2, #12]
 680              	.LVL27:
 681              	.LBB370:
 682              	.LBB364:
 683              		.loc 1 107 17 view .LVU241
 684 001e 03F8266C 		strb	r6, [r3, #-38]
ARM GAS  /tmp/cc4ZUYx9.s 			page 13


 685              		.loc 1 91 17 view .LVU242
 686 0022 4FF0020C 		mov	ip, #2
 687 0026 03F828CC 		strb	ip, [r3, #-40]
 688              		.loc 1 92 17 view .LVU243
 689 002a 03F8274C 		strb	r4, [r3, #-39]
 690              		.loc 1 98 17 view .LVU244
 691 002e 43E90442 		strd	r4, r2, [r3, #-16]
 692              		.loc 1 101 17 view .LVU245
 693 0032 43F8144C 		str	r4, [r3, #-20]
 694              		.loc 1 109 3 view .LVU246
 695 0036 4C69     		ldr	r4, [r1, #20]
 696              	.LBE364:
 697              	.LBE370:
 698              		.loc 1 190 3 view .LVU247
 699 0038 43F86C0C 		str	r0, [r3, #-108]
 700              	.LBB371:
 701              	.LBB365:
 702              		.loc 1 108 17 view .LVU248
 703 003c 43F8305C 		str	r5, [r3, #-48]
 704              		.loc 1 90 17 view .LVU249
 705 0040 43F8402C 		str	r2, [r3, #-64]
 706              	.LBE365:
 707              	.LBE371:
 708              		.loc 1 190 3 view .LVU250
 709 0044 0C4F     		ldr	r7, .L16+4
 710 0046 43F84C7C 		str	r7, [r3, #-76]
 711              		.loc 1 181 6 view .LVU251
 712 004a A3F14800 		sub	r0, r3, #72
 713              	.LVL28:
 714              		.loc 1 186 3 is_stmt 1 view .LVU252
 715              		.loc 1 190 3 view .LVU253
 716              	.LBB372:
 717              	.LBB366:
 718              		.loc 1 114 3 is_stmt 0 view .LVU254
 719 004e A3F12005 		sub	r5, r3, #32
 720              		.loc 1 117 3 view .LVU255
 721 0052 A3F11C02 		sub	r2, r3, #28
 722              	.LBE366:
 723              	.LBE372:
 724              		.loc 1 190 3 view .LVU256
 725 0056 A3F16C06 		sub	r6, r3, #108
 726              	.LBB373:
 727              	.LBB367:
 728              		.loc 1 109 3 view .LVU257
 729 005a 43E90E14 		strd	r1, r4, [r3, #-56]
 730              	.LBE367:
 731              	.LBE373:
 732              		.loc 1 190 3 view .LVU258
 733 005e 43F83C6C 		str	r6, [r3, #-60]
 734              		.loc 1 190 3 is_stmt 1 view .LVU259
 735              		.loc 1 190 3 view .LVU260
 736              		.loc 1 190 3 view .LVU261
 737              		.loc 1 190 63 view .LVU262
 738              		.loc 1 193 3 view .LVU263
 739              	.LVL29:
 740              	.LBB374:
 741              	.LBI357:
ARM GAS  /tmp/cc4ZUYx9.s 			page 14


 742              		.loc 1 88 11 view .LVU264
 743              	.LBB368:
 744              		.loc 1 90 3 view .LVU265
 745              		.loc 1 91 3 view .LVU266
 746              		.loc 1 92 3 view .LVU267
 747              		.loc 1 97 3 view .LVU268
 748              		.loc 1 98 3 view .LVU269
 749              		.loc 1 101 3 view .LVU270
 750              		.loc 1 107 3 view .LVU271
 751              		.loc 1 108 3 view .LVU272
 752              		.loc 1 109 3 view .LVU273
 753              		.loc 1 109 3 view .LVU274
 754              		.loc 1 109 3 view .LVU275
 755 0062 2061     		str	r0, [r4, #16]
 756              		.loc 1 109 3 view .LVU276
 757 0064 4861     		str	r0, [r1, #20]
 758              		.loc 1 109 17 view .LVU277
 759              		.loc 1 114 3 view .LVU278
 760              	.LVL30:
 761              	.LBB359:
 762              	.LBI359:
 763              		.loc 2 510 20 view .LVU279
 764              	.LBB360:
 765              		.loc 2 512 3 view .LVU280
 766              	.LBE360:
 767              	.LBE359:
 768              	.LBB361:
 769              	.LBB362:
 770              		.loc 2 550 13 is_stmt 0 view .LVU281
 771 0066 43E90852 		strd	r5, r2, [r3, #-32]
 772              		.loc 2 551 3 is_stmt 1 view .LVU282
 773              		.loc 2 551 13 is_stmt 0 view .LVU283
 774 006a 43F8182C 		str	r2, [r3, #-24]
 775              	.LBE362:
 776              	.LBE361:
 777              		.loc 1 122 3 is_stmt 1 view .LVU284
 778              		.loc 1 122 30 view .LVU285
 779              		.loc 1 123 3 view .LVU286
 780              	.LVL31:
 781              		.loc 1 123 3 is_stmt 0 view .LVU287
 782              	.LBE368:
 783              	.LBE374:
 784              	.LBE376:
 785              	.LBE378:
 786              		.loc 1 262 1 view .LVU288
 787 006e F0BC     		pop	{r4, r5, r6, r7}
 788              		.cfi_restore 7
 789              		.cfi_restore 6
 790              		.cfi_restore 5
 791              		.cfi_restore 4
 792              		.cfi_def_cfa_offset 0
 793              	.LVL32:
 794              		.loc 1 261 10 view .LVU289
 795 0070 FFF7FEBF 		b	chSchReadyI
 796              	.LVL33:
 797              	.L17:
 798              		.loc 1 261 10 view .LVU290
ARM GAS  /tmp/cc4ZUYx9.s 			page 15


 799              		.align	2
 800              	.L16:
 801 0074 00000000 		.word	ch
 802 0078 00000000 		.word	_port_thread_start
 803              		.cfi_endproc
 804              	.LFE249:
 805              		.size	chThdCreateI, .-chThdCreateI
 806              		.section	.text.chThdCreate,"ax",%progbits
 807              		.align	1
 808              		.p2align 4,,15
 809              		.global	chThdCreate
 810              		.syntax unified
 811              		.thumb
 812              		.thumb_func
 813              		.fpu softvfp
 814              		.type	chThdCreate, %function
 815              	chThdCreate:
 816              	.LVL34:
 817              	.LFB250:
 818              		.loc 1 280 55 is_stmt 1 view -0
 819              		.cfi_startproc
 820              		@ args = 0, pretend = 0, frame = 0
 821              		@ frame_needed = 0, uses_anonymous_args = 0
 822              		.loc 1 281 3 view .LVU292
 823              		.loc 1 284 3 view .LVU293
 824              		.loc 1 284 3 view .LVU294
 825              		.loc 1 284 3 view .LVU295
 826              		.loc 1 294 3 view .LVU296
 827              	.LBB379:
 828              	.LBI379:
 829              		.loc 3 374 20 view .LVU297
 830              	.LBE379:
 831              		.loc 3 376 3 view .LVU298
 832              	.LBB387:
 833              	.LBB380:
 834              	.LBI380:
 835              		.loc 4 594 20 view .LVU299
 836              	.LBE380:
 837              	.LBE387:
 838              		.loc 4 602 3 view .LVU300
 839              	.LBB388:
 840              	.LBB385:
 841              	.LBB381:
 842              	.LBI381:
 843              		.loc 5 262 57 view .LVU301
 844              	.LBB382:
 845              		.loc 5 264 3 view .LVU302
 846              	.LBE382:
 847              	.LBE381:
 848              	.LBE385:
 849              	.LBE388:
 850              		.loc 1 280 55 is_stmt 0 view .LVU303
 851 0000 10B5     		push	{r4, lr}
 852              		.cfi_def_cfa_offset 8
 853              		.cfi_offset 4, -8
 854              		.cfi_offset 14, -4
 855              	.LBB389:
ARM GAS  /tmp/cc4ZUYx9.s 			page 16


 856              	.LBB386:
 857              	.LBB384:
 858              	.LBB383:
 859              		.loc 5 264 3 view .LVU304
 860 0002 2023     		movs	r3, #32
 861              		.syntax unified
 862              	@ 264 "../../../os/common/ext/CMSIS/include/cmsis_gcc.h" 1
 863 0004 83F31188 		MSR basepri, r3
 864              	@ 0 "" 2
 865              	.LVL35:
 866              		.loc 5 264 3 view .LVU305
 867              		.thumb
 868              		.syntax unified
 869              	.LBE383:
 870              	.LBE384:
 871              	.LBE386:
 872              	.LBE389:
 873              		.loc 3 377 34 is_stmt 1 view .LVU306
 874              		.loc 3 378 20 view .LVU307
 875              		.loc 1 295 3 view .LVU308
 876              		.loc 1 295 8 is_stmt 0 view .LVU309
 877 0008 FFF7FEFF 		bl	chThdCreateSuspendedI
 878              	.LVL36:
 879              		.loc 1 296 3 view .LVU310
 880 000c 0021     		movs	r1, #0
 881              		.loc 1 295 8 view .LVU311
 882 000e 0446     		mov	r4, r0
 883              	.LVL37:
 884              		.loc 1 296 3 is_stmt 1 view .LVU312
 885 0010 FFF7FEFF 		bl	chSchWakeupS
 886              	.LVL38:
 887              		.loc 1 297 3 view .LVU313
 888              	.LBB390:
 889              	.LBI390:
 890              		.loc 3 386 20 view .LVU314
 891              	.LBB391:
 892              		.loc 3 388 22 view .LVU315
 893              		.loc 3 389 33 view .LVU316
 894              		.loc 3 395 3 view .LVU317
 895              		.loc 3 395 3 view .LVU318
 896              		.loc 3 395 3 view .LVU319
 897              		.loc 3 399 3 view .LVU320
 898              	.LBB392:
 899              	.LBI392:
 900              		.loc 4 618 20 view .LVU321
 901              	.LBE392:
 902              	.LBE391:
 903              	.LBE390:
 904              		.loc 4 621 3 view .LVU322
 905              	.LBB397:
 906              	.LBB396:
 907              	.LBB395:
 908              	.LBB393:
 909              	.LBI393:
 910              		.loc 5 262 57 view .LVU323
 911              	.LBB394:
 912              		.loc 5 264 3 view .LVU324
ARM GAS  /tmp/cc4ZUYx9.s 			page 17


 913 0014 0023     		movs	r3, #0
 914              		.syntax unified
 915              	@ 264 "../../../os/common/ext/CMSIS/include/cmsis_gcc.h" 1
 916 0016 83F31188 		MSR basepri, r3
 917              	@ 0 "" 2
 918              	.LVL39:
 919              		.loc 5 264 3 is_stmt 0 view .LVU325
 920              		.thumb
 921              		.syntax unified
 922              	.LBE394:
 923              	.LBE393:
 924              	.LBE395:
 925              	.LBE396:
 926              	.LBE397:
 927              		.loc 1 299 3 is_stmt 1 view .LVU326
 928              		.loc 1 300 1 is_stmt 0 view .LVU327
 929 001a 2046     		mov	r0, r4
 930 001c 10BD     		pop	{r4, pc}
 931              		.loc 1 300 1 view .LVU328
 932              		.cfi_endproc
 933              	.LFE250:
 934              		.size	chThdCreate, .-chThdCreate
 935 001e 00BF     		.section	.rodata.chThdCreateStatic.str1.4,"aMS",%progbits,1
 936              		.align	2
 937              	.LC0:
 938 0000 6E6F6E61 		.ascii	"noname\000"
 938      6D6500
 939              		.section	.text.chThdCreateStatic,"ax",%progbits
 940              		.align	1
 941              		.p2align 4,,15
 942              		.global	chThdCreateStatic
 943              		.syntax unified
 944              		.thumb
 945              		.thumb_func
 946              		.fpu softvfp
 947              		.type	chThdCreateStatic, %function
 948              	chThdCreateStatic:
 949              	.LVL40:
 950              	.LFB251:
 951              		.loc 1 323 66 is_stmt 1 view -0
 952              		.cfi_startproc
 953              		@ args = 4, pretend = 0, frame = 0
 954              		@ frame_needed = 0, uses_anonymous_args = 0
 955              		.loc 1 324 3 view .LVU330
 956              		.loc 1 326 3 view .LVU331
 957              		.loc 1 326 3 view .LVU332
 958              		.loc 1 326 3 view .LVU333
 959              		.loc 1 333 3 view .LVU334
 960              		.loc 1 333 3 view .LVU335
 961              		.loc 1 333 3 view .LVU336
 962              		.loc 1 343 3 view .LVU337
 963              	.LBB398:
 964              	.LBI398:
 965              		.loc 3 374 20 view .LVU338
 966              	.LBE398:
 967              		.loc 3 376 3 view .LVU339
 968              	.LBB406:
ARM GAS  /tmp/cc4ZUYx9.s 			page 18


 969              	.LBB399:
 970              	.LBI399:
 971              		.loc 4 594 20 view .LVU340
 972              	.LBE399:
 973              	.LBE406:
 974              		.loc 4 602 3 view .LVU341
 975              	.LBB407:
 976              	.LBB404:
 977              	.LBB400:
 978              	.LBI400:
 979              		.loc 5 262 57 view .LVU342
 980              	.LBB401:
 981              		.loc 5 264 3 view .LVU343
 982              	.LBE401:
 983              	.LBE400:
 984              	.LBE404:
 985              	.LBE407:
 986              		.loc 1 323 66 is_stmt 0 view .LVU344
 987 0000 38B5     		push	{r3, r4, r5, lr}
 988              		.cfi_def_cfa_offset 16
 989              		.cfi_offset 3, -16
 990              		.cfi_offset 4, -12
 991              		.cfi_offset 5, -8
 992              		.cfi_offset 14, -4
 993              	.LBB408:
 994              	.LBB405:
 995              	.LBB403:
 996              	.LBB402:
 997              		.loc 5 264 3 view .LVU345
 998 0002 2024     		movs	r4, #32
 999              		.syntax unified
 1000              	@ 264 "../../../os/common/ext/CMSIS/include/cmsis_gcc.h" 1
 1001 0004 84F31188 		MSR basepri, r4
 1002              	@ 0 "" 2
 1003              	.LVL41:
 1004              		.loc 5 264 3 view .LVU346
 1005              		.thumb
 1006              		.syntax unified
 1007              	.LBE402:
 1008              	.LBE403:
 1009              	.LBE405:
 1010              	.LBE408:
 1011              		.loc 3 377 34 is_stmt 1 view .LVU347
 1012              		.loc 3 378 20 view .LVU348
 1013              		.loc 1 348 3 view .LVU349
 1014              		.loc 1 348 43 is_stmt 0 view .LVU350
 1015 0008 4839     		subs	r1, r1, #72
 1016              	.LVL42:
 1017              		.loc 1 348 6 view .LVU351
 1018 000a 4418     		adds	r4, r0, r1
 1019              	.LVL43:
 1020              		.loc 1 353 3 is_stmt 1 view .LVU352
 1021              	.LBB409:
 1022              	.LBB410:
 1023              		.loc 1 108 17 is_stmt 0 view .LVU353
 1024 000c 1649     		ldr	r1, .L22
 1025              	.LVL44:
ARM GAS  /tmp/cc4ZUYx9.s 			page 19


 1026              		.loc 1 108 17 view .LVU354
 1027              	.LBE410:
 1028              	.LBE409:
 1029              		.loc 1 357 3 view .LVU355
 1030 000e 44F8243C 		str	r3, [r4, #-36]
 1031 0012 164B     		ldr	r3, .L22+4
 1032              	.LVL45:
 1033              		.loc 1 357 3 view .LVU356
 1034 0014 44F8043C 		str	r3, [r4, #-4]
 1035 0018 049B     		ldr	r3, [sp, #16]
 1036 001a 44F8203C 		str	r3, [r4, #-32]
 1037 001e A4F12403 		sub	r3, r4, #36
 1038              	.LVL46:
 1039              		.loc 1 357 3 view .LVU357
 1040 0022 E360     		str	r3, [r4, #12]
 1041              	.LBB420:
 1042              	.LBB417:
 1043              		.loc 1 109 3 view .LVU358
 1044 0024 124B     		ldr	r3, .L22+8
 1045              	.LVL47:
 1046              		.loc 1 109 3 view .LVU359
 1047              	.LBE417:
 1048              	.LBE420:
 1049              		.loc 1 353 14 view .LVU360
 1050 0026 E061     		str	r0, [r4, #28]
 1051              		.loc 1 357 3 is_stmt 1 view .LVU361
 1052              		.loc 1 357 3 view .LVU362
 1053              		.loc 1 357 3 view .LVU363
 1054              		.loc 1 357 3 view .LVU364
 1055              		.loc 1 357 43 view .LVU365
 1056              		.loc 1 359 3 view .LVU366
 1057              	.LVL48:
 1058              	.LBB421:
 1059              	.LBI409:
 1060              		.loc 1 88 11 view .LVU367
 1061              	.LBB418:
 1062              		.loc 1 90 3 view .LVU368
 1063              		.loc 1 91 3 view .LVU369
 1064              		.loc 1 92 3 view .LVU370
 1065              		.loc 1 97 3 view .LVU371
 1066              		.loc 1 108 17 is_stmt 0 view .LVU372
 1067 0028 A161     		str	r1, [r4, #24]
 1068              		.loc 1 91 17 view .LVU373
 1069 002a 0220     		movs	r0, #2
 1070              	.LVL49:
 1071              		.loc 1 109 3 view .LVU374
 1072 002c 5969     		ldr	r1, [r3, #20]
 1073              		.loc 1 91 17 view .LVU375
 1074 002e 2084     		strh	r0, [r4, #32]	@ movhi
 1075              		.loc 1 98 17 view .LVU376
 1076 0030 0025     		movs	r5, #0
 1077              		.loc 1 107 17 view .LVU377
 1078 0032 0120     		movs	r0, #1
 1079              		.loc 1 109 3 view .LVU378
 1080 0034 C4E90431 		strd	r3, r1, [r4, #16]
 1081              		.loc 1 90 17 view .LVU379
 1082 0038 A260     		str	r2, [r4, #8]
ARM GAS  /tmp/cc4ZUYx9.s 			page 20


 1083              		.loc 1 98 17 view .LVU380
 1084 003a C4E90E52 		strd	r5, r2, [r4, #56]
 1085              		.loc 1 101 3 is_stmt 1 view .LVU381
 1086              		.loc 1 107 17 is_stmt 0 view .LVU382
 1087 003e 84F82200 		strb	r0, [r4, #34]
 1088              		.loc 1 117 3 view .LVU383
 1089 0042 04F12C02 		add	r2, r4, #44
 1090              	.LVL50:
 1091              		.loc 1 101 17 view .LVU384
 1092 0046 6563     		str	r5, [r4, #52]
 1093              		.loc 1 107 3 is_stmt 1 view .LVU385
 1094              		.loc 1 108 3 view .LVU386
 1095              		.loc 1 109 3 view .LVU387
 1096              		.loc 1 109 3 view .LVU388
 1097              		.loc 1 109 3 view .LVU389
 1098 0048 0C61     		str	r4, [r1, #16]
 1099              		.loc 1 109 3 view .LVU390
 1100              		.loc 1 114 3 is_stmt 0 view .LVU391
 1101 004a 04F12801 		add	r1, r4, #40
 1102              	.LBB411:
 1103              	.LBB412:
 1104              		.loc 2 550 13 view .LVU392
 1105 004e C4E90A12 		strd	r1, r2, [r4, #40]
 1106              		.loc 2 551 13 view .LVU393
 1107 0052 2263     		str	r2, [r4, #48]
 1108              	.LBE412:
 1109              	.LBE411:
 1110              	.LBE418:
 1111              	.LBE421:
 1112              		.loc 1 362 3 view .LVU394
 1113 0054 2946     		mov	r1, r5
 1114 0056 2046     		mov	r0, r4
 1115              	.LBB422:
 1116              	.LBB419:
 1117              		.loc 1 109 3 view .LVU395
 1118 0058 5C61     		str	r4, [r3, #20]
 1119              		.loc 1 109 17 is_stmt 1 view .LVU396
 1120              		.loc 1 114 3 view .LVU397
 1121              	.LVL51:
 1122              	.LBB414:
 1123              	.LBI414:
 1124              		.loc 2 510 20 view .LVU398
 1125              	.LBB415:
 1126              		.loc 2 512 3 view .LVU399
 1127              		.loc 2 512 3 is_stmt 0 view .LVU400
 1128              	.LBE415:
 1129              	.LBE414:
 1130              		.loc 1 117 3 is_stmt 1 view .LVU401
 1131              	.LBB416:
 1132              	.LBI411:
 1133              		.loc 2 548 20 view .LVU402
 1134              	.LBB413:
 1135              		.loc 2 550 3 view .LVU403
 1136              		.loc 2 551 3 view .LVU404
 1137              		.loc 2 551 3 is_stmt 0 view .LVU405
 1138              	.LBE413:
 1139              	.LBE416:
ARM GAS  /tmp/cc4ZUYx9.s 			page 21


 1140              		.loc 1 122 3 is_stmt 1 view .LVU406
 1141              		.loc 1 122 30 view .LVU407
 1142              		.loc 1 123 3 view .LVU408
 1143              		.loc 1 123 3 is_stmt 0 view .LVU409
 1144              	.LBE419:
 1145              	.LBE422:
 1146              		.loc 1 362 3 is_stmt 1 view .LVU410
 1147 005a FFF7FEFF 		bl	chSchWakeupS
 1148              	.LVL52:
 1149              		.loc 1 363 3 view .LVU411
 1150              	.LBB423:
 1151              	.LBI423:
 1152              		.loc 3 386 20 view .LVU412
 1153              	.LBB424:
 1154              		.loc 3 388 22 view .LVU413
 1155              		.loc 3 389 33 view .LVU414
 1156              		.loc 3 395 3 view .LVU415
 1157              		.loc 3 395 3 view .LVU416
 1158              		.loc 3 395 3 view .LVU417
 1159              		.loc 3 399 3 view .LVU418
 1160              	.LBB425:
 1161              	.LBI425:
 1162              		.loc 4 618 20 view .LVU419
 1163              	.LBE425:
 1164              	.LBE424:
 1165              	.LBE423:
 1166              		.loc 4 621 3 view .LVU420
 1167              	.LBB430:
 1168              	.LBB429:
 1169              	.LBB428:
 1170              	.LBB426:
 1171              	.LBI426:
 1172              		.loc 5 262 57 view .LVU421
 1173              	.LBB427:
 1174              		.loc 5 264 3 view .LVU422
 1175              		.syntax unified
 1176              	@ 264 "../../../os/common/ext/CMSIS/include/cmsis_gcc.h" 1
 1177 005e 85F31188 		MSR basepri, r5
 1178              	@ 0 "" 2
 1179              	.LVL53:
 1180              		.loc 5 264 3 is_stmt 0 view .LVU423
 1181              		.thumb
 1182              		.syntax unified
 1183              	.LBE427:
 1184              	.LBE426:
 1185              	.LBE428:
 1186              	.LBE429:
 1187              	.LBE430:
 1188              		.loc 1 365 3 is_stmt 1 view .LVU424
 1189              		.loc 1 366 1 is_stmt 0 view .LVU425
 1190 0062 2046     		mov	r0, r4
 1191 0064 38BD     		pop	{r3, r4, r5, pc}
 1192              	.LVL54:
 1193              	.L23:
 1194              		.loc 1 366 1 view .LVU426
 1195 0066 00BF     		.align	2
 1196              	.L22:
ARM GAS  /tmp/cc4ZUYx9.s 			page 22


 1197 0068 00000000 		.word	.LC0
 1198 006c 00000000 		.word	_port_thread_start
 1199 0070 00000000 		.word	ch
 1200              		.cfi_endproc
 1201              	.LFE251:
 1202              		.size	chThdCreateStatic, .-chThdCreateStatic
 1203              		.section	.text.chThdStart,"ax",%progbits
 1204              		.align	1
 1205              		.p2align 4,,15
 1206              		.global	chThdStart
 1207              		.syntax unified
 1208              		.thumb
 1209              		.thumb_func
 1210              		.fpu softvfp
 1211              		.type	chThdStart, %function
 1212              	chThdStart:
 1213              	.LVL55:
 1214              	.LFB252:
 1215              		.loc 1 377 36 is_stmt 1 view -0
 1216              		.cfi_startproc
 1217              		@ args = 0, pretend = 0, frame = 0
 1218              		@ frame_needed = 0, uses_anonymous_args = 0
 1219              		.loc 1 379 3 view .LVU428
 1220              	.LBB431:
 1221              	.LBI431:
 1222              		.loc 3 374 20 view .LVU429
 1223              	.LBE431:
 1224              		.loc 3 376 3 view .LVU430
 1225              	.LBB442:
 1226              	.LBB432:
 1227              	.LBI432:
 1228              		.loc 4 594 20 view .LVU431
 1229              	.LBE432:
 1230              	.LBE442:
 1231              		.loc 4 602 3 view .LVU432
 1232              	.LBB443:
 1233              	.LBB439:
 1234              	.LBB433:
 1235              	.LBI433:
 1236              		.loc 5 262 57 view .LVU433
 1237              	.LBB434:
 1238              		.loc 5 264 3 view .LVU434
 1239              	.LBE434:
 1240              	.LBE433:
 1241              	.LBE439:
 1242              	.LBE443:
 1243              		.loc 1 377 36 is_stmt 0 view .LVU435
 1244 0000 10B5     		push	{r4, lr}
 1245              		.cfi_def_cfa_offset 8
 1246              		.cfi_offset 4, -8
 1247              		.cfi_offset 14, -4
 1248              	.LBB444:
 1249              	.LBB440:
 1250              	.LBB437:
 1251              	.LBB435:
 1252              		.loc 5 264 3 view .LVU436
 1253 0002 2023     		movs	r3, #32
ARM GAS  /tmp/cc4ZUYx9.s 			page 23


 1254              	.LBE435:
 1255              	.LBE437:
 1256              	.LBE440:
 1257              	.LBE444:
 1258              		.loc 1 377 36 view .LVU437
 1259 0004 0446     		mov	r4, r0
 1260              	.LBB445:
 1261              	.LBB441:
 1262              	.LBB438:
 1263              	.LBB436:
 1264              		.loc 5 264 3 view .LVU438
 1265              		.syntax unified
 1266              	@ 264 "../../../os/common/ext/CMSIS/include/cmsis_gcc.h" 1
 1267 0006 83F31188 		MSR basepri, r3
 1268              	@ 0 "" 2
 1269              	.LVL56:
 1270              		.loc 5 264 3 view .LVU439
 1271              		.thumb
 1272              		.syntax unified
 1273              	.LBE436:
 1274              	.LBE438:
 1275              	.LBE441:
 1276              	.LBE445:
 1277              		.loc 3 377 34 is_stmt 1 view .LVU440
 1278              		.loc 3 378 20 view .LVU441
 1279              		.loc 1 380 3 view .LVU442
 1280              		.loc 1 380 3 view .LVU443
 1281              		.loc 1 380 3 view .LVU444
 1282              		.loc 1 381 3 view .LVU445
 1283 000a 0021     		movs	r1, #0
 1284 000c FFF7FEFF 		bl	chSchWakeupS
 1285              	.LVL57:
 1286              		.loc 1 382 3 view .LVU446
 1287              	.LBB446:
 1288              	.LBI446:
 1289              		.loc 3 386 20 view .LVU447
 1290              	.LBB447:
 1291              		.loc 3 388 22 view .LVU448
 1292              		.loc 3 389 33 view .LVU449
 1293              		.loc 3 395 3 view .LVU450
 1294              		.loc 3 395 3 view .LVU451
 1295              		.loc 3 395 3 view .LVU452
 1296              		.loc 3 399 3 view .LVU453
 1297              	.LBB448:
 1298              	.LBI448:
 1299              		.loc 4 618 20 view .LVU454
 1300              	.LBE448:
 1301              	.LBE447:
 1302              	.LBE446:
 1303              		.loc 4 621 3 view .LVU455
 1304              	.LBB453:
 1305              	.LBB452:
 1306              	.LBB451:
 1307              	.LBB449:
 1308              	.LBI449:
 1309              		.loc 5 262 57 view .LVU456
 1310              	.LBB450:
ARM GAS  /tmp/cc4ZUYx9.s 			page 24


 1311              		.loc 5 264 3 view .LVU457
 1312 0010 0023     		movs	r3, #0
 1313              		.syntax unified
 1314              	@ 264 "../../../os/common/ext/CMSIS/include/cmsis_gcc.h" 1
 1315 0012 83F31188 		MSR basepri, r3
 1316              	@ 0 "" 2
 1317              	.LVL58:
 1318              		.loc 5 264 3 is_stmt 0 view .LVU458
 1319              		.thumb
 1320              		.syntax unified
 1321              	.LBE450:
 1322              	.LBE449:
 1323              	.LBE451:
 1324              	.LBE452:
 1325              	.LBE453:
 1326              		.loc 1 384 3 is_stmt 1 view .LVU459
 1327              		.loc 1 385 1 is_stmt 0 view .LVU460
 1328 0016 2046     		mov	r0, r4
 1329 0018 10BD     		pop	{r4, pc}
 1330              		.loc 1 385 1 view .LVU461
 1331              		.cfi_endproc
 1332              	.LFE252:
 1333              		.size	chThdStart, .-chThdStart
 1334 001a 00BF     		.section	.text.chThdAddRef,"ax",%progbits
 1335              		.align	1
 1336              		.p2align 4,,15
 1337              		.global	chThdAddRef
 1338              		.syntax unified
 1339              		.thumb
 1340              		.thumb_func
 1341              		.fpu softvfp
 1342              		.type	chThdAddRef, %function
 1343              	chThdAddRef:
 1344              	.LVL59:
 1345              	.LFB253:
 1346              		.loc 1 399 37 is_stmt 1 view -0
 1347              		.cfi_startproc
 1348              		@ args = 0, pretend = 0, frame = 0
 1349              		@ frame_needed = 0, uses_anonymous_args = 0
 1350              		@ link register save eliminated.
 1351              		.loc 1 401 3 view .LVU463
 1352              	.LBB454:
 1353              	.LBI454:
 1354              		.loc 3 374 20 view .LVU464
 1355              	.LBE454:
 1356              		.loc 3 376 3 view .LVU465
 1357              	.LBB459:
 1358              	.LBB455:
 1359              	.LBI455:
 1360              		.loc 4 594 20 view .LVU466
 1361              	.LBE455:
 1362              	.LBE459:
 1363              		.loc 4 602 3 view .LVU467
 1364              	.LBB460:
 1365              	.LBB458:
 1366              	.LBB456:
 1367              	.LBI456:
ARM GAS  /tmp/cc4ZUYx9.s 			page 25


 1368              		.loc 5 262 57 view .LVU468
 1369              	.LBB457:
 1370              		.loc 5 264 3 view .LVU469
 1371 0000 2022     		movs	r2, #32
 1372              		.syntax unified
 1373              	@ 264 "../../../os/common/ext/CMSIS/include/cmsis_gcc.h" 1
 1374 0002 82F31188 		MSR basepri, r2
 1375              	@ 0 "" 2
 1376              	.LVL60:
 1377              		.loc 5 264 3 is_stmt 0 view .LVU470
 1378              		.thumb
 1379              		.syntax unified
 1380              	.LBE457:
 1381              	.LBE456:
 1382              	.LBE458:
 1383              	.LBE460:
 1384              		.loc 3 377 34 is_stmt 1 view .LVU471
 1385              		.loc 3 378 20 view .LVU472
 1386              		.loc 1 402 3 view .LVU473
 1387              		.loc 1 402 3 view .LVU474
 1388              		.loc 1 402 3 view .LVU475
 1389              		.loc 1 403 3 view .LVU476
 1390              		.loc 1 403 11 is_stmt 0 view .LVU477
 1391 0006 90F82220 		ldrb	r2, [r0, #34]	@ zero_extendqisi2
 1392 000a 0132     		adds	r2, r2, #1
 1393              	.LBB461:
 1394              	.LBB462:
 1395              	.LBB463:
 1396              	.LBB464:
 1397              	.LBB465:
 1398              		.loc 5 264 3 view .LVU478
 1399 000c 0021     		movs	r1, #0
 1400              	.LBE465:
 1401              	.LBE464:
 1402              	.LBE463:
 1403              	.LBE462:
 1404              	.LBE461:
 1405              		.loc 1 403 11 view .LVU479
 1406 000e 80F82220 		strb	r2, [r0, #34]
 1407              		.loc 1 404 3 is_stmt 1 view .LVU480
 1408              	.LBB472:
 1409              	.LBI461:
 1410              		.loc 3 386 20 view .LVU481
 1411              	.LBB470:
 1412              		.loc 3 388 22 view .LVU482
 1413              		.loc 3 389 33 view .LVU483
 1414              		.loc 3 395 3 view .LVU484
 1415              		.loc 3 395 3 view .LVU485
 1416              		.loc 3 395 3 view .LVU486
 1417              		.loc 3 399 3 view .LVU487
 1418              	.LBB468:
 1419              	.LBI463:
 1420              		.loc 4 618 20 view .LVU488
 1421              	.LBE468:
 1422              	.LBE470:
 1423              	.LBE472:
 1424              		.loc 4 621 3 view .LVU489
ARM GAS  /tmp/cc4ZUYx9.s 			page 26


 1425              	.LVL61:
 1426              	.LBB473:
 1427              	.LBB471:
 1428              	.LBB469:
 1429              	.LBB467:
 1430              	.LBI464:
 1431              		.loc 5 262 57 view .LVU490
 1432              	.LBB466:
 1433              		.loc 5 264 3 view .LVU491
 1434              		.syntax unified
 1435              	@ 264 "../../../os/common/ext/CMSIS/include/cmsis_gcc.h" 1
 1436 0012 81F31188 		MSR basepri, r1
 1437              	@ 0 "" 2
 1438              	.LVL62:
 1439              		.loc 5 264 3 is_stmt 0 view .LVU492
 1440              		.thumb
 1441              		.syntax unified
 1442              	.LBE466:
 1443              	.LBE467:
 1444              	.LBE469:
 1445              	.LBE471:
 1446              	.LBE473:
 1447              		.loc 1 406 3 is_stmt 1 view .LVU493
 1448              		.loc 1 407 1 is_stmt 0 view .LVU494
 1449 0016 7047     		bx	lr
 1450              		.cfi_endproc
 1451              	.LFE253:
 1452              		.size	chThdAddRef, .-chThdAddRef
 1453              		.section	.text.chThdRelease,"ax",%progbits
 1454              		.align	1
 1455              		.p2align 4,,15
 1456              		.global	chThdRelease
 1457              		.syntax unified
 1458              		.thumb
 1459              		.thumb_func
 1460              		.fpu softvfp
 1461              		.type	chThdRelease, %function
 1462              	chThdRelease:
 1463              	.LVL63:
 1464              	.LFB254:
 1465              		.loc 1 425 33 is_stmt 1 view -0
 1466              		.cfi_startproc
 1467              		@ args = 0, pretend = 0, frame = 0
 1468              		@ frame_needed = 0, uses_anonymous_args = 0
 1469              		@ link register save eliminated.
 1470              		.loc 1 427 3 view .LVU496
 1471              	.LBB512:
 1472              	.LBI512:
 1473              		.loc 3 374 20 view .LVU497
 1474              	.LBE512:
 1475              		.loc 3 376 3 view .LVU498
 1476              	.LBB517:
 1477              	.LBB513:
 1478              	.LBI513:
 1479              		.loc 4 594 20 view .LVU499
 1480              	.LBE513:
 1481              	.LBE517:
ARM GAS  /tmp/cc4ZUYx9.s 			page 27


 1482              		.loc 4 602 3 view .LVU500
 1483              	.LBB518:
 1484              	.LBB516:
 1485              	.LBB514:
 1486              	.LBI514:
 1487              		.loc 5 262 57 view .LVU501
 1488              	.LBB515:
 1489              		.loc 5 264 3 view .LVU502
 1490 0000 2023     		movs	r3, #32
 1491              		.syntax unified
 1492              	@ 264 "../../../os/common/ext/CMSIS/include/cmsis_gcc.h" 1
 1493 0002 83F31188 		MSR basepri, r3
 1494              	@ 0 "" 2
 1495              	.LVL64:
 1496              		.loc 5 264 3 is_stmt 0 view .LVU503
 1497              		.thumb
 1498              		.syntax unified
 1499              	.LBE515:
 1500              	.LBE514:
 1501              	.LBE516:
 1502              	.LBE518:
 1503              		.loc 3 377 34 is_stmt 1 view .LVU504
 1504              		.loc 3 378 20 view .LVU505
 1505              		.loc 1 428 3 view .LVU506
 1506              		.loc 1 428 3 view .LVU507
 1507              		.loc 1 428 3 view .LVU508
 1508              		.loc 1 429 3 view .LVU509
 1509              		.loc 1 429 11 is_stmt 0 view .LVU510
 1510 0006 90F82230 		ldrb	r3, [r0, #34]	@ zero_extendqisi2
 1511 000a 013B     		subs	r3, r3, #1
 1512 000c 80F82230 		strb	r3, [r0, #34]
 1513              		.loc 1 434 3 is_stmt 1 view .LVU511
 1514              		.loc 1 434 32 is_stmt 0 view .LVU512
 1515 0010 036A     		ldr	r3, [r0, #32]
 1516 0012 03F0FF13 		and	r3, r3, #16711935
 1517              		.loc 1 434 6 view .LVU513
 1518 0016 0F2B     		cmp	r3, #15
 1519 0018 03D0     		beq	.L32
 1520              		.loc 1 457 3 is_stmt 1 view .LVU514
 1521              	.LBB519:
 1522              	.LBI519:
 1523              		.loc 3 386 20 view .LVU515
 1524              	.LBB520:
 1525              		.loc 3 388 22 view .LVU516
 1526              		.loc 3 389 33 view .LVU517
 1527              		.loc 3 395 3 view .LVU518
 1528              		.loc 3 395 3 view .LVU519
 1529              		.loc 3 395 3 view .LVU520
 1530              		.loc 3 399 3 view .LVU521
 1531              	.LBB521:
 1532              	.LBI521:
 1533              		.loc 4 618 20 view .LVU522
 1534              	.LBE521:
 1535              	.LBE520:
 1536              	.LBE519:
 1537              		.loc 4 621 3 view .LVU523
 1538              	.LVL65:
ARM GAS  /tmp/cc4ZUYx9.s 			page 28


 1539              	.LBB526:
 1540              	.LBB525:
 1541              	.LBB524:
 1542              	.LBB522:
 1543              	.LBI522:
 1544              		.loc 5 262 57 view .LVU524
 1545              	.LBB523:
 1546              		.loc 5 264 3 view .LVU525
 1547 001a 0023     		movs	r3, #0
 1548              		.syntax unified
 1549              	@ 264 "../../../os/common/ext/CMSIS/include/cmsis_gcc.h" 1
 1550 001c 83F31188 		MSR basepri, r3
 1551              	@ 0 "" 2
 1552              	.LVL66:
 1553              		.loc 5 264 3 is_stmt 0 view .LVU526
 1554              		.thumb
 1555              		.syntax unified
 1556              	.LBE523:
 1557              	.LBE522:
 1558              	.LBE524:
 1559              	.LBE525:
 1560              	.LBE526:
 1561              		.loc 1 458 1 view .LVU527
 1562 0020 7047     		bx	lr
 1563              	.L32:
 1564              	.LVL67:
 1565              	.LBB527:
 1566              	.LBI527:
 1567              		.loc 1 425 6 is_stmt 1 view .LVU528
 1568              	.LBB528:
 1569              		.loc 1 435 5 view .LVU529
 1570 0022 D0E90423 		ldrd	r2, r3, [r0, #16]
 1571 0026 1A61     		str	r2, [r3, #16]
 1572              		.loc 1 435 5 view .LVU530
 1573 0028 0169     		ldr	r1, [r0, #16]
 1574              	.LBB529:
 1575              	.LBB530:
 1576              	.LBB531:
 1577              	.LBB532:
 1578              	.LBB533:
 1579              		.loc 5 264 3 is_stmt 0 view .LVU531
 1580 002a 0022     		movs	r2, #0
 1581              	.LBE533:
 1582              	.LBE532:
 1583              	.LBE531:
 1584              	.LBE530:
 1585              	.LBE529:
 1586              		.loc 1 435 5 view .LVU532
 1587 002c 4B61     		str	r3, [r1, #20]
 1588              		.loc 1 435 19 is_stmt 1 view .LVU533
 1589              		.loc 1 436 5 view .LVU534
 1590              	.LBB540:
 1591              	.LBI529:
 1592              		.loc 3 386 20 view .LVU535
 1593              	.LBB538:
 1594              		.loc 3 388 22 view .LVU536
 1595              		.loc 3 389 33 view .LVU537
ARM GAS  /tmp/cc4ZUYx9.s 			page 29


 1596              		.loc 3 395 3 view .LVU538
 1597              		.loc 3 395 3 view .LVU539
 1598              		.loc 3 395 3 view .LVU540
 1599              		.loc 3 399 3 view .LVU541
 1600              	.LBB536:
 1601              	.LBI531:
 1602              		.loc 4 618 20 view .LVU542
 1603              	.LBE536:
 1604              	.LBE538:
 1605              	.LBE540:
 1606              	.LBE528:
 1607              	.LBE527:
 1608              		.loc 4 621 3 view .LVU543
 1609              	.LVL68:
 1610              	.LBB547:
 1611              	.LBB546:
 1612              	.LBB541:
 1613              	.LBB539:
 1614              	.LBB537:
 1615              	.LBB535:
 1616              	.LBI532:
 1617              		.loc 5 262 57 view .LVU544
 1618              	.LBB534:
 1619              		.loc 5 264 3 view .LVU545
 1620              		.syntax unified
 1621              	@ 264 "../../../os/common/ext/CMSIS/include/cmsis_gcc.h" 1
 1622 002e 82F31188 		MSR basepri, r2
 1623              	@ 0 "" 2
 1624              	.LVL69:
 1625              		.loc 5 264 3 is_stmt 0 view .LVU546
 1626              		.thumb
 1627              		.syntax unified
 1628              	.LBE534:
 1629              	.LBE535:
 1630              	.LBE537:
 1631              	.LBE539:
 1632              	.LBE541:
 1633              		.loc 1 439 5 is_stmt 1 view .LVU547
 1634 0032 90F82130 		ldrb	r3, [r0, #33]	@ zero_extendqisi2
 1635 0036 03F00303 		and	r3, r3, #3
 1636 003a 012B     		cmp	r3, #1
 1637 003c 06D0     		beq	.L29
 1638 003e 022B     		cmp	r3, #2
 1639 0040 00D0     		beq	.L30
 1640 0042 7047     		bx	lr
 1641              	.L30:
 1642              		.loc 1 447 7 view .LVU548
 1643              	.LVL70:
 1644              	.LBB542:
 1645              	.LBI542:
 1646              		.file 6 "../../../os/rt/include/chthreads.h"
 1647              		.loc 6 329 27 view .LVU549
 1648              	.LBB543:
 1649              		.loc 6 331 3 view .LVU550
 1650              		.loc 6 331 3 is_stmt 0 view .LVU551
 1651              	.LBE543:
 1652              	.LBE542:
ARM GAS  /tmp/cc4ZUYx9.s 			page 30


 1653              		.loc 1 447 7 view .LVU552
 1654 0044 C169     		ldr	r1, [r0, #28]
 1655 0046 006C     		ldr	r0, [r0, #64]
 1656              	.LVL71:
 1657              		.loc 1 447 7 view .LVU553
 1658 0048 FFF7FEBF 		b	chPoolFree
 1659              	.LVL72:
 1660              	.L29:
 1661              		.loc 1 442 7 is_stmt 1 view .LVU554
 1662              	.LBB544:
 1663              	.LBI544:
 1664              		.loc 6 329 27 view .LVU555
 1665              	.LBB545:
 1666              		.loc 6 331 3 view .LVU556
 1667              		.loc 6 331 3 is_stmt 0 view .LVU557
 1668              	.LBE545:
 1669              	.LBE544:
 1670              		.loc 1 442 7 view .LVU558
 1671 004c C069     		ldr	r0, [r0, #28]
 1672              	.LVL73:
 1673              		.loc 1 442 7 view .LVU559
 1674 004e FFF7FEBF 		b	chHeapFree
 1675              	.LVL74:
 1676              	.LBE546:
 1677              	.LBE547:
 1678              		.cfi_endproc
 1679              	.LFE254:
 1680              		.size	chThdRelease, .-chThdRelease
 1681 0052 00BF     		.section	.text.chThdExitS,"ax",%progbits
 1682              		.align	1
 1683              		.p2align 4,,15
 1684              		.global	chThdExitS
 1685              		.syntax unified
 1686              		.thumb
 1687              		.thumb_func
 1688              		.fpu softvfp
 1689              		.type	chThdExitS, %function
 1690              	chThdExitS:
 1691              	.LVL75:
 1692              	.LFB256:
 1693              		.loc 1 499 28 is_stmt 1 view -0
 1694              		.cfi_startproc
 1695              		@ args = 0, pretend = 0, frame = 0
 1696              		@ frame_needed = 0, uses_anonymous_args = 0
 1697              		.loc 1 500 3 view .LVU561
 1698              		.loc 1 500 13 is_stmt 0 view .LVU562
 1699 0000 104A     		ldr	r2, .L39
 1700              		.loc 1 499 28 view .LVU563
 1701 0002 38B5     		push	{r3, r4, r5, lr}
 1702              		.cfi_def_cfa_offset 16
 1703              		.cfi_offset 3, -16
 1704              		.cfi_offset 4, -12
 1705              		.cfi_offset 5, -8
 1706              		.cfi_offset 14, -4
 1707              		.loc 1 500 13 view .LVU564
 1708 0004 9469     		ldr	r4, [r2, #24]
 1709              	.LVL76:
ARM GAS  /tmp/cc4ZUYx9.s 			page 31


 1710              		.loc 1 503 3 is_stmt 1 view .LVU565
 1711              		.loc 1 499 28 is_stmt 0 view .LVU566
 1712 0006 0346     		mov	r3, r0
 1713              	.LBB548:
 1714              	.LBB549:
 1715              		.loc 2 538 20 view .LVU567
 1716 0008 A06A     		ldr	r0, [r4, #40]
 1717              	.LVL77:
 1718              		.loc 2 538 20 view .LVU568
 1719              	.LBE549:
 1720              	.LBE548:
 1721              		.loc 1 503 18 view .LVU569
 1722 000a 6362     		str	r3, [r4, #36]
 1723              		.loc 1 506 3 is_stmt 1 view .LVU570
 1724              		.loc 1 506 30 view .LVU571
 1725              		.loc 1 510 3 view .LVU572
 1726              		.loc 1 510 9 view .LVU573
 1727              		.loc 1 510 10 is_stmt 0 view .LVU574
 1728 000c 04F12805 		add	r5, r4, #40
 1729              	.LVL78:
 1730              	.LBB552:
 1731              	.LBI548:
 1732              		.loc 2 536 20 is_stmt 1 view .LVU575
 1733              	.LBB550:
 1734              		.loc 2 538 3 view .LVU576
 1735              		.loc 2 538 3 is_stmt 0 view .LVU577
 1736              	.LBE550:
 1737              	.LBE552:
 1738              		.loc 1 510 9 view .LVU578
 1739 0010 A842     		cmp	r0, r5
 1740 0012 06D0     		beq	.L34
 1741              	.LVL79:
 1742              	.L35:
 1743              		.loc 1 511 5 is_stmt 1 view .LVU579
 1744              	.LBB553:
 1745              	.LBI553:
 1746              		.loc 2 589 25 view .LVU580
 1747              	.LBB554:
 1748              		.loc 2 591 3 view .LVU581
 1749              		.loc 2 592 3 view .LVU582
 1750              		.loc 2 592 13 is_stmt 0 view .LVU583
 1751 0014 0368     		ldr	r3, [r0]
 1752 0016 A362     		str	r3, [r4, #40]
 1753              		.loc 2 594 3 is_stmt 1 view .LVU584
 1754              	.LVL80:
 1755              		.loc 2 594 3 is_stmt 0 view .LVU585
 1756              	.LBE554:
 1757              	.LBE553:
 1758              		.loc 1 511 12 view .LVU586
 1759 0018 FFF7FEFF 		bl	chSchReadyI
 1760              	.LVL81:
 1761              		.loc 1 510 9 is_stmt 1 view .LVU587
 1762              	.LBB555:
 1763              		.loc 2 536 20 view .LVU588
 1764              	.LBB551:
 1765              		.loc 2 538 3 view .LVU589
 1766              		.loc 2 538 20 is_stmt 0 view .LVU590
ARM GAS  /tmp/cc4ZUYx9.s 			page 32


 1767 001c A06A     		ldr	r0, [r4, #40]
 1768              	.LVL82:
 1769              		.loc 2 538 20 view .LVU591
 1770              	.LBE551:
 1771              	.LBE555:
 1772              		.loc 1 510 9 view .LVU592
 1773 001e A842     		cmp	r0, r5
 1774 0020 F8D1     		bne	.L35
 1775              	.L34:
 1776              		.loc 1 519 3 is_stmt 1 view .LVU593
 1777              		.loc 1 519 6 is_stmt 0 view .LVU594
 1778 0022 94F82230 		ldrb	r3, [r4, #34]	@ zero_extendqisi2
 1779 0026 3BB9     		cbnz	r3, .L36
 1780              		.loc 1 519 32 discriminator 1 view .LVU595
 1781 0028 94F82130 		ldrb	r3, [r4, #33]	@ zero_extendqisi2
 1782 002c 9B07     		lsls	r3, r3, #30
 1783 002e 03D1     		bne	.L36
 1784              		.loc 1 521 5 is_stmt 1 view .LVU596
 1785 0030 D4E90432 		ldrd	r3, r2, [r4, #16]
 1786 0034 1361     		str	r3, [r2, #16]
 1787              		.loc 1 521 5 view .LVU597
 1788 0036 5A61     		str	r2, [r3, #20]
 1789              	.L36:
 1790              		.loc 1 521 19 discriminator 1 view .LVU598
 1791              		.loc 1 531 3 discriminator 1 view .LVU599
 1792              		.loc 1 535 1 is_stmt 0 discriminator 1 view .LVU600
 1793 0038 BDE83840 		pop	{r3, r4, r5, lr}
 1794              		.cfi_restore 14
 1795              		.cfi_restore 5
 1796              		.cfi_restore 4
 1797              		.cfi_restore 3
 1798              		.cfi_def_cfa_offset 0
 1799              	.LVL83:
 1800              		.loc 1 531 3 discriminator 1 view .LVU601
 1801 003c 0F20     		movs	r0, #15
 1802 003e FFF7FEBF 		b	chSchGoSleepS
 1803              	.LVL84:
 1804              	.L40:
 1805 0042 00BF     		.align	2
 1806              	.L39:
 1807 0044 00000000 		.word	ch
 1808              		.cfi_endproc
 1809              	.LFE256:
 1810              		.size	chThdExitS, .-chThdExitS
 1811              		.section	.text.chThdExit,"ax",%progbits
 1812              		.align	1
 1813              		.p2align 4,,15
 1814              		.global	chThdExit
 1815              		.syntax unified
 1816              		.thumb
 1817              		.thumb_func
 1818              		.fpu softvfp
 1819              		.type	chThdExit, %function
 1820              	chThdExit:
 1821              	.LVL85:
 1822              	.LFB255:
 1823              		.loc 1 475 27 is_stmt 1 view -0
ARM GAS  /tmp/cc4ZUYx9.s 			page 33


 1824              		.cfi_startproc
 1825              		@ args = 0, pretend = 0, frame = 0
 1826              		@ frame_needed = 0, uses_anonymous_args = 0
 1827              		@ link register save eliminated.
 1828              		.loc 1 477 3 view .LVU603
 1829              	.LBB556:
 1830              	.LBI556:
 1831              		.loc 3 374 20 view .LVU604
 1832              	.LBE556:
 1833              		.loc 3 376 3 view .LVU605
 1834              	.LBB561:
 1835              	.LBB557:
 1836              	.LBI557:
 1837              		.loc 4 594 20 view .LVU606
 1838              	.LBE557:
 1839              	.LBE561:
 1840              		.loc 4 602 3 view .LVU607
 1841              	.LBB562:
 1842              	.LBB560:
 1843              	.LBB558:
 1844              	.LBI558:
 1845              		.loc 5 262 57 view .LVU608
 1846              	.LBB559:
 1847              		.loc 5 264 3 view .LVU609
 1848 0000 2023     		movs	r3, #32
 1849              		.syntax unified
 1850              	@ 264 "../../../os/common/ext/CMSIS/include/cmsis_gcc.h" 1
 1851 0002 83F31188 		MSR basepri, r3
 1852              	@ 0 "" 2
 1853              	.LVL86:
 1854              		.loc 5 264 3 is_stmt 0 view .LVU610
 1855              		.thumb
 1856              		.syntax unified
 1857              	.LBE559:
 1858              	.LBE558:
 1859              	.LBE560:
 1860              	.LBE562:
 1861              		.loc 3 377 34 is_stmt 1 view .LVU611
 1862              		.loc 3 378 20 view .LVU612
 1863              		.loc 1 478 3 view .LVU613
 1864 0006 FFF7FEBF 		b	chThdExitS
 1865              	.LVL87:
 1866              		.loc 1 478 3 is_stmt 0 view .LVU614
 1867              		.cfi_endproc
 1868              	.LFE255:
 1869              		.size	chThdExit, .-chThdExit
 1870 000a 00BF     		.section	.text.chThdWait,"ax",%progbits
 1871              		.align	1
 1872              		.p2align 4,,15
 1873              		.global	chThdWait
 1874              		.syntax unified
 1875              		.thumb
 1876              		.thumb_func
 1877              		.fpu softvfp
 1878              		.type	chThdWait, %function
 1879              	chThdWait:
 1880              	.LVL88:
ARM GAS  /tmp/cc4ZUYx9.s 			page 34


 1881              	.LFB257:
 1882              		.loc 1 557 31 is_stmt 1 view -0
 1883              		.cfi_startproc
 1884              		@ args = 0, pretend = 0, frame = 0
 1885              		@ frame_needed = 0, uses_anonymous_args = 0
 1886              		.loc 1 558 3 view .LVU616
 1887              		.loc 1 560 3 view .LVU617
 1888              		.loc 1 560 3 view .LVU618
 1889              		.loc 1 560 3 view .LVU619
 1890              		.loc 1 562 3 view .LVU620
 1891              	.LBB605:
 1892              	.LBI605:
 1893              		.loc 3 374 20 view .LVU621
 1894              	.LBE605:
 1895              		.loc 3 376 3 view .LVU622
 1896              	.LBB613:
 1897              	.LBB606:
 1898              	.LBI606:
 1899              		.loc 4 594 20 view .LVU623
 1900              	.LBE606:
 1901              	.LBE613:
 1902              		.loc 4 602 3 view .LVU624
 1903              	.LBB614:
 1904              	.LBB611:
 1905              	.LBB607:
 1906              	.LBI607:
 1907              		.loc 5 262 57 view .LVU625
 1908              	.LBB608:
 1909              		.loc 5 264 3 view .LVU626
 1910              	.LBE608:
 1911              	.LBE607:
 1912              	.LBE611:
 1913              	.LBE614:
 1914              		.loc 1 557 31 is_stmt 0 view .LVU627
 1915 0000 38B5     		push	{r3, r4, r5, lr}
 1916              		.cfi_def_cfa_offset 16
 1917              		.cfi_offset 3, -16
 1918              		.cfi_offset 4, -12
 1919              		.cfi_offset 5, -8
 1920              		.cfi_offset 14, -4
 1921              		.loc 1 557 31 view .LVU628
 1922 0002 0446     		mov	r4, r0
 1923              	.LBB615:
 1924              	.LBB612:
 1925              	.LBB610:
 1926              	.LBB609:
 1927              		.loc 5 264 3 view .LVU629
 1928 0004 2023     		movs	r3, #32
 1929              		.syntax unified
 1930              	@ 264 "../../../os/common/ext/CMSIS/include/cmsis_gcc.h" 1
 1931 0006 83F31188 		MSR basepri, r3
 1932              	@ 0 "" 2
 1933              	.LVL89:
 1934              		.loc 5 264 3 view .LVU630
 1935              		.thumb
 1936              		.syntax unified
 1937              	.LBE609:
ARM GAS  /tmp/cc4ZUYx9.s 			page 35


 1938              	.LBE610:
 1939              	.LBE612:
 1940              	.LBE615:
 1941              		.loc 3 377 34 is_stmt 1 view .LVU631
 1942              		.loc 3 378 20 view .LVU632
 1943              		.loc 1 563 3 view .LVU633
 1944              		.loc 1 563 3 view .LVU634
 1945              		.loc 1 563 3 view .LVU635
 1946              		.loc 1 565 3 view .LVU636
 1947              		.loc 1 565 3 view .LVU637
 1948              		.loc 1 565 3 view .LVU638
 1949              		.loc 1 568 3 view .LVU639
 1950              		.loc 1 568 6 is_stmt 0 view .LVU640
 1951 000a 90F82030 		ldrb	r3, [r0, #32]	@ zero_extendqisi2
 1952 000e 0F2B     		cmp	r3, #15
 1953 0010 07D0     		beq	.L43
 1954              		.loc 1 569 5 is_stmt 1 view .LVU641
 1955 0012 1A4B     		ldr	r3, .L53
 1956              	.LBB616:
 1957              	.LBB617:
 1958              		.loc 2 585 18 is_stmt 0 view .LVU642
 1959 0014 826A     		ldr	r2, [r0, #40]
 1960              	.LBE617:
 1961              	.LBE616:
 1962              		.loc 1 569 5 view .LVU643
 1963 0016 9B69     		ldr	r3, [r3, #24]
 1964              	.LVL90:
 1965              	.LBB620:
 1966              	.LBI616:
 1967              		.loc 2 583 20 is_stmt 1 view .LVU644
 1968              	.LBB618:
 1969              		.loc 2 585 3 view .LVU645
 1970              	.LBE618:
 1971              	.LBE620:
 1972              		.loc 1 570 5 is_stmt 0 view .LVU646
 1973 0018 0920     		movs	r0, #9
 1974              	.LVL91:
 1975              	.LBB621:
 1976              	.LBB619:
 1977              		.loc 2 585 18 view .LVU647
 1978 001a 1A60     		str	r2, [r3]
 1979              		.loc 2 586 3 is_stmt 1 view .LVU648
 1980              		.loc 2 586 13 is_stmt 0 view .LVU649
 1981 001c A362     		str	r3, [r4, #40]
 1982              	.LVL92:
 1983              		.loc 2 586 13 view .LVU650
 1984              	.LBE619:
 1985              	.LBE621:
 1986              		.loc 1 570 5 is_stmt 1 view .LVU651
 1987 001e FFF7FEFF 		bl	chSchGoSleepS
 1988              	.LVL93:
 1989              	.L43:
 1990              		.loc 1 572 3 view .LVU652
 1991              		.loc 1 572 7 is_stmt 0 view .LVU653
 1992 0022 656A     		ldr	r5, [r4, #36]
 1993              	.LVL94:
 1994              		.loc 1 573 3 is_stmt 1 view .LVU654
ARM GAS  /tmp/cc4ZUYx9.s 			page 36


 1995              	.LBB622:
 1996              	.LBI622:
 1997              		.loc 3 386 20 view .LVU655
 1998              	.LBB623:
 1999              		.loc 3 388 22 view .LVU656
 2000              		.loc 3 389 33 view .LVU657
 2001              		.loc 3 395 3 view .LVU658
 2002              		.loc 3 395 3 view .LVU659
 2003              		.loc 3 395 3 view .LVU660
 2004              		.loc 3 399 3 view .LVU661
 2005              	.LBB624:
 2006              	.LBI624:
 2007              		.loc 4 618 20 view .LVU662
 2008              	.LBE624:
 2009              	.LBE623:
 2010              	.LBE622:
 2011              		.loc 4 621 3 view .LVU663
 2012              	.LBB629:
 2013              	.LBB628:
 2014              	.LBB627:
 2015              	.LBB625:
 2016              	.LBI625:
 2017              		.loc 5 262 57 view .LVU664
 2018              	.LBB626:
 2019              		.loc 5 264 3 view .LVU665
 2020 0024 0022     		movs	r2, #0
 2021              		.syntax unified
 2022              	@ 264 "../../../os/common/ext/CMSIS/include/cmsis_gcc.h" 1
 2023 0026 82F31188 		MSR basepri, r2
 2024              	@ 0 "" 2
 2025              	.LVL95:
 2026              		.loc 5 264 3 is_stmt 0 view .LVU666
 2027              		.thumb
 2028              		.syntax unified
 2029              	.LBE626:
 2030              	.LBE625:
 2031              	.LBE627:
 2032              	.LBE628:
 2033              	.LBE629:
 2034              		.loc 1 577 3 is_stmt 1 view .LVU667
 2035              	.LBB630:
 2036              	.LBI630:
 2037              		.loc 1 425 6 view .LVU668
 2038              	.LBB631:
 2039              		.loc 1 427 3 view .LVU669
 2040              	.LBB632:
 2041              	.LBI632:
 2042              		.loc 3 374 20 view .LVU670
 2043              	.LBE632:
 2044              	.LBE631:
 2045              	.LBE630:
 2046              		.loc 3 376 3 view .LVU671
 2047              	.LBB669:
 2048              	.LBB663:
 2049              	.LBB637:
 2050              	.LBB633:
 2051              	.LBI633:
ARM GAS  /tmp/cc4ZUYx9.s 			page 37


 2052              		.loc 4 594 20 view .LVU672
 2053              	.LBE633:
 2054              	.LBE637:
 2055              	.LBE663:
 2056              	.LBE669:
 2057              		.loc 4 602 3 view .LVU673
 2058              	.LBB670:
 2059              	.LBB664:
 2060              	.LBB638:
 2061              	.LBB636:
 2062              	.LBB634:
 2063              	.LBI634:
 2064              		.loc 5 262 57 view .LVU674
 2065              	.LBB635:
 2066              		.loc 5 264 3 view .LVU675
 2067 002a 2023     		movs	r3, #32
 2068              		.syntax unified
 2069              	@ 264 "../../../os/common/ext/CMSIS/include/cmsis_gcc.h" 1
 2070 002c 83F31188 		MSR basepri, r3
 2071              	@ 0 "" 2
 2072              	.LVL96:
 2073              		.loc 5 264 3 is_stmt 0 view .LVU676
 2074              		.thumb
 2075              		.syntax unified
 2076              	.LBE635:
 2077              	.LBE634:
 2078              	.LBE636:
 2079              	.LBE638:
 2080              	.LBE664:
 2081              	.LBE670:
 2082              		.loc 3 377 34 is_stmt 1 view .LVU677
 2083              		.loc 3 378 20 view .LVU678
 2084              	.LBB671:
 2085              	.LBB665:
 2086              		.loc 1 428 3 view .LVU679
 2087              		.loc 1 428 3 view .LVU680
 2088              		.loc 1 428 3 view .LVU681
 2089              		.loc 1 429 3 view .LVU682
 2090              		.loc 1 429 11 is_stmt 0 view .LVU683
 2091 0030 94F82230 		ldrb	r3, [r4, #34]	@ zero_extendqisi2
 2092 0034 013B     		subs	r3, r3, #1
 2093 0036 84F82230 		strb	r3, [r4, #34]
 2094              		.loc 1 434 3 is_stmt 1 view .LVU684
 2095              		.loc 1 434 32 is_stmt 0 view .LVU685
 2096 003a 236A     		ldr	r3, [r4, #32]
 2097 003c 03F0FF13 		and	r3, r3, #16711935
 2098              		.loc 1 434 6 view .LVU686
 2099 0040 0F2B     		cmp	r3, #15
 2100 0042 03D0     		beq	.L52
 2101              		.loc 1 457 3 is_stmt 1 view .LVU687
 2102              	.LBB639:
 2103              	.LBI639:
 2104              		.loc 3 386 20 view .LVU688
 2105              	.LBB640:
 2106              		.loc 3 388 22 view .LVU689
 2107              		.loc 3 389 33 view .LVU690
 2108              		.loc 3 395 3 view .LVU691
ARM GAS  /tmp/cc4ZUYx9.s 			page 38


 2109              		.loc 3 395 3 view .LVU692
 2110              		.loc 3 395 3 view .LVU693
 2111              		.loc 3 399 3 view .LVU694
 2112              	.LBB641:
 2113              	.LBI641:
 2114              		.loc 4 618 20 view .LVU695
 2115              	.LBE641:
 2116              	.LBE640:
 2117              	.LBE639:
 2118              	.LBE665:
 2119              	.LBE671:
 2120              		.loc 4 621 3 view .LVU696
 2121              	.LVL97:
 2122              	.LBB672:
 2123              	.LBB666:
 2124              	.LBB646:
 2125              	.LBB645:
 2126              	.LBB644:
 2127              	.LBB642:
 2128              	.LBI642:
 2129              		.loc 5 262 57 view .LVU697
 2130              	.LBB643:
 2131              		.loc 5 264 3 view .LVU698
 2132              		.syntax unified
 2133              	@ 264 "../../../os/common/ext/CMSIS/include/cmsis_gcc.h" 1
 2134 0044 82F31188 		MSR basepri, r2
 2135              	@ 0 "" 2
 2136              	.LVL98:
 2137              		.loc 5 264 3 is_stmt 0 view .LVU699
 2138              		.thumb
 2139              		.syntax unified
 2140              	.LBE643:
 2141              	.LBE642:
 2142              	.LBE644:
 2143              	.LBE645:
 2144              	.LBE646:
 2145              	.LBE666:
 2146              	.LBE672:
 2147              		.loc 1 580 3 is_stmt 1 view .LVU700
 2148              	.L42:
 2149              		.loc 1 581 1 is_stmt 0 view .LVU701
 2150 0048 2846     		mov	r0, r5
 2151 004a 38BD     		pop	{r3, r4, r5, pc}
 2152              	.LVL99:
 2153              	.L52:
 2154              	.LBB673:
 2155              	.LBB667:
 2156              	.LBB647:
 2157              	.LBI647:
 2158              		.loc 1 425 6 is_stmt 1 view .LVU702
 2159              	.LBB648:
 2160              		.loc 1 435 5 view .LVU703
 2161 004c D4E90413 		ldrd	r1, r3, [r4, #16]
 2162 0050 1961     		str	r1, [r3, #16]
 2163              		.loc 1 435 5 view .LVU704
 2164 0052 2169     		ldr	r1, [r4, #16]
 2165 0054 4B61     		str	r3, [r1, #20]
ARM GAS  /tmp/cc4ZUYx9.s 			page 39


 2166              		.loc 1 435 19 view .LVU705
 2167              		.loc 1 436 5 view .LVU706
 2168              	.LBB649:
 2169              	.LBI649:
 2170              		.loc 3 386 20 view .LVU707
 2171              	.LBB650:
 2172              		.loc 3 388 22 view .LVU708
 2173              		.loc 3 389 33 view .LVU709
 2174              		.loc 3 395 3 view .LVU710
 2175              		.loc 3 395 3 view .LVU711
 2176              		.loc 3 395 3 view .LVU712
 2177              		.loc 3 399 3 view .LVU713
 2178              	.LBB651:
 2179              	.LBI651:
 2180              		.loc 4 618 20 view .LVU714
 2181              	.LBE651:
 2182              	.LBE650:
 2183              	.LBE649:
 2184              	.LBE648:
 2185              	.LBE647:
 2186              	.LBE667:
 2187              	.LBE673:
 2188              		.loc 4 621 3 view .LVU715
 2189              	.LVL100:
 2190              	.LBB674:
 2191              	.LBB668:
 2192              	.LBB662:
 2193              	.LBB661:
 2194              	.LBB656:
 2195              	.LBB655:
 2196              	.LBB654:
 2197              	.LBB652:
 2198              	.LBI652:
 2199              		.loc 5 262 57 view .LVU716
 2200              	.LBB653:
 2201              		.loc 5 264 3 view .LVU717
 2202              		.syntax unified
 2203              	@ 264 "../../../os/common/ext/CMSIS/include/cmsis_gcc.h" 1
 2204 0056 82F31188 		MSR basepri, r2
 2205              	@ 0 "" 2
 2206              	.LVL101:
 2207              		.loc 5 264 3 is_stmt 0 view .LVU718
 2208              		.thumb
 2209              		.syntax unified
 2210              	.LBE653:
 2211              	.LBE652:
 2212              	.LBE654:
 2213              	.LBE655:
 2214              	.LBE656:
 2215              		.loc 1 439 5 is_stmt 1 view .LVU719
 2216 005a 94F82130 		ldrb	r3, [r4, #33]	@ zero_extendqisi2
 2217 005e 03F00303 		and	r3, r3, #3
 2218 0062 012B     		cmp	r3, #1
 2219 0064 06D0     		beq	.L45
 2220 0066 022B     		cmp	r3, #2
 2221 0068 EED1     		bne	.L42
 2222              		.loc 1 447 7 view .LVU720
ARM GAS  /tmp/cc4ZUYx9.s 			page 40


 2223              	.LVL102:
 2224              	.LBB657:
 2225              	.LBI657:
 2226              		.loc 6 329 27 view .LVU721
 2227              	.LBB658:
 2228              		.loc 6 331 3 view .LVU722
 2229              		.loc 6 331 3 is_stmt 0 view .LVU723
 2230              	.LBE658:
 2231              	.LBE657:
 2232              		.loc 1 447 7 view .LVU724
 2233 006a E169     		ldr	r1, [r4, #28]
 2234 006c 206C     		ldr	r0, [r4, #64]
 2235 006e FFF7FEFF 		bl	chPoolFree
 2236              	.LVL103:
 2237              		.loc 1 448 7 is_stmt 1 view .LVU725
 2238 0072 E9E7     		b	.L42
 2239              	.L45:
 2240              		.loc 1 442 7 view .LVU726
 2241              	.LVL104:
 2242              	.LBB659:
 2243              	.LBI659:
 2244              		.loc 6 329 27 view .LVU727
 2245              	.LBB660:
 2246              		.loc 6 331 3 view .LVU728
 2247              		.loc 6 331 3 is_stmt 0 view .LVU729
 2248              	.LBE660:
 2249              	.LBE659:
 2250              		.loc 1 442 7 view .LVU730
 2251 0074 E069     		ldr	r0, [r4, #28]
 2252 0076 FFF7FEFF 		bl	chHeapFree
 2253              	.LVL105:
 2254              		.loc 1 443 7 is_stmt 1 view .LVU731
 2255 007a E5E7     		b	.L42
 2256              	.L54:
 2257              		.align	2
 2258              	.L53:
 2259 007c 00000000 		.word	ch
 2260              	.LBE661:
 2261              	.LBE662:
 2262              	.LBE668:
 2263              	.LBE674:
 2264              		.cfi_endproc
 2265              	.LFE257:
 2266              		.size	chThdWait, .-chThdWait
 2267              		.section	.text.chThdSetPriority,"ax",%progbits
 2268              		.align	1
 2269              		.p2align 4,,15
 2270              		.global	chThdSetPriority
 2271              		.syntax unified
 2272              		.thumb
 2273              		.thumb_func
 2274              		.fpu softvfp
 2275              		.type	chThdSetPriority, %function
 2276              	chThdSetPriority:
 2277              	.LVL106:
 2278              	.LFB258:
 2279              		.loc 1 596 43 view -0
ARM GAS  /tmp/cc4ZUYx9.s 			page 41


 2280              		.cfi_startproc
 2281              		@ args = 0, pretend = 0, frame = 0
 2282              		@ frame_needed = 0, uses_anonymous_args = 0
 2283              		.loc 1 597 3 view .LVU733
 2284              		.loc 1 599 3 view .LVU734
 2285              		.loc 1 599 3 view .LVU735
 2286              		.loc 1 599 3 view .LVU736
 2287              		.loc 1 601 3 view .LVU737
 2288              	.LBB675:
 2289              	.LBI675:
 2290              		.loc 3 374 20 view .LVU738
 2291              	.LBE675:
 2292              		.loc 3 376 3 view .LVU739
 2293              	.LBB683:
 2294              	.LBB676:
 2295              	.LBI676:
 2296              		.loc 4 594 20 view .LVU740
 2297              	.LBE676:
 2298              	.LBE683:
 2299              		.loc 4 602 3 view .LVU741
 2300              	.LBB684:
 2301              	.LBB681:
 2302              	.LBB677:
 2303              	.LBI677:
 2304              		.loc 5 262 57 view .LVU742
 2305              	.LBB678:
 2306              		.loc 5 264 3 view .LVU743
 2307              	.LBE678:
 2308              	.LBE677:
 2309              	.LBE681:
 2310              	.LBE684:
 2311              		.loc 1 596 43 is_stmt 0 view .LVU744
 2312 0000 10B5     		push	{r4, lr}
 2313              		.cfi_def_cfa_offset 8
 2314              		.cfi_offset 4, -8
 2315              		.cfi_offset 14, -4
 2316              	.LBB685:
 2317              	.LBB682:
 2318              	.LBB680:
 2319              	.LBB679:
 2320              		.loc 5 264 3 view .LVU745
 2321 0002 2022     		movs	r2, #32
 2322              		.syntax unified
 2323              	@ 264 "../../../os/common/ext/CMSIS/include/cmsis_gcc.h" 1
 2324 0004 82F31188 		MSR basepri, r2
 2325              	@ 0 "" 2
 2326              	.LVL107:
 2327              		.loc 5 264 3 view .LVU746
 2328              		.thumb
 2329              		.syntax unified
 2330              	.LBE679:
 2331              	.LBE680:
 2332              	.LBE682:
 2333              	.LBE685:
 2334              		.loc 3 377 34 is_stmt 1 view .LVU747
 2335              		.loc 3 378 20 view .LVU748
 2336              		.loc 1 603 3 view .LVU749
ARM GAS  /tmp/cc4ZUYx9.s 			page 42


 2337              		.loc 1 603 13 is_stmt 0 view .LVU750
 2338 0008 084A     		ldr	r2, .L59
 2339 000a 9269     		ldr	r2, [r2, #24]
 2340              		.loc 1 603 11 view .LVU751
 2341 000c D46B     		ldr	r4, [r2, #60]
 2342              	.LVL108:
 2343              		.loc 1 604 3 is_stmt 1 view .LVU752
 2344              		.loc 1 604 13 is_stmt 0 view .LVU753
 2345 000e 9168     		ldr	r1, [r2, #8]
 2346              		.loc 1 604 6 view .LVU754
 2347 0010 A142     		cmp	r1, r4
 2348 0012 01D0     		beq	.L56
 2349              		.loc 1 604 40 discriminator 1 view .LVU755
 2350 0014 8142     		cmp	r1, r0
 2351 0016 00D2     		bcs	.L57
 2352              	.L56:
 2353              		.loc 1 605 5 is_stmt 1 view .LVU756
 2354              		.loc 1 605 17 is_stmt 0 view .LVU757
 2355 0018 9060     		str	r0, [r2, #8]
 2356              	.L57:
 2357              		.loc 1 607 3 is_stmt 1 view .LVU758
 2358              		.loc 1 607 19 is_stmt 0 view .LVU759
 2359 001a D063     		str	r0, [r2, #60]
 2360              		.loc 1 612 3 is_stmt 1 view .LVU760
 2361 001c FFF7FEFF 		bl	chSchRescheduleS
 2362              	.LVL109:
 2363              		.loc 1 613 3 view .LVU761
 2364              	.LBB686:
 2365              	.LBI686:
 2366              		.loc 3 386 20 view .LVU762
 2367              	.LBB687:
 2368              		.loc 3 388 22 view .LVU763
 2369              		.loc 3 389 33 view .LVU764
 2370              		.loc 3 395 3 view .LVU765
 2371              		.loc 3 395 3 view .LVU766
 2372              		.loc 3 395 3 view .LVU767
 2373              		.loc 3 399 3 view .LVU768
 2374              	.LBB688:
 2375              	.LBI688:
 2376              		.loc 4 618 20 view .LVU769
 2377              	.LBE688:
 2378              	.LBE687:
 2379              	.LBE686:
 2380              		.loc 4 621 3 view .LVU770
 2381              	.LBB693:
 2382              	.LBB692:
 2383              	.LBB691:
 2384              	.LBB689:
 2385              	.LBI689:
 2386              		.loc 5 262 57 view .LVU771
 2387              	.LBB690:
 2388              		.loc 5 264 3 view .LVU772
 2389 0020 0023     		movs	r3, #0
 2390              		.syntax unified
 2391              	@ 264 "../../../os/common/ext/CMSIS/include/cmsis_gcc.h" 1
 2392 0022 83F31188 		MSR basepri, r3
 2393              	@ 0 "" 2
ARM GAS  /tmp/cc4ZUYx9.s 			page 43


 2394              	.LVL110:
 2395              		.loc 5 264 3 is_stmt 0 view .LVU773
 2396              		.thumb
 2397              		.syntax unified
 2398              	.LBE690:
 2399              	.LBE689:
 2400              	.LBE691:
 2401              	.LBE692:
 2402              	.LBE693:
 2403              		.loc 1 615 3 is_stmt 1 view .LVU774
 2404              		.loc 1 616 1 is_stmt 0 view .LVU775
 2405 0026 2046     		mov	r0, r4
 2406 0028 10BD     		pop	{r4, pc}
 2407              	.LVL111:
 2408              	.L60:
 2409              		.loc 1 616 1 view .LVU776
 2410 002a 00BF     		.align	2
 2411              	.L59:
 2412 002c 00000000 		.word	ch
 2413              		.cfi_endproc
 2414              	.LFE258:
 2415              		.size	chThdSetPriority, .-chThdSetPriority
 2416              		.section	.text.chThdTerminate,"ax",%progbits
 2417              		.align	1
 2418              		.p2align 4,,15
 2419              		.global	chThdTerminate
 2420              		.syntax unified
 2421              		.thumb
 2422              		.thumb_func
 2423              		.fpu softvfp
 2424              		.type	chThdTerminate, %function
 2425              	chThdTerminate:
 2426              	.LVL112:
 2427              	.LFB259:
 2428              		.loc 1 630 35 is_stmt 1 view -0
 2429              		.cfi_startproc
 2430              		@ args = 0, pretend = 0, frame = 0
 2431              		@ frame_needed = 0, uses_anonymous_args = 0
 2432              		@ link register save eliminated.
 2433              		.loc 1 632 3 view .LVU778
 2434              	.LBB694:
 2435              	.LBI694:
 2436              		.loc 3 374 20 view .LVU779
 2437              	.LBE694:
 2438              		.loc 3 376 3 view .LVU780
 2439              	.LBB699:
 2440              	.LBB695:
 2441              	.LBI695:
 2442              		.loc 4 594 20 view .LVU781
 2443              	.LBE695:
 2444              	.LBE699:
 2445              		.loc 4 602 3 view .LVU782
 2446              	.LBB700:
 2447              	.LBB698:
 2448              	.LBB696:
 2449              	.LBI696:
 2450              		.loc 5 262 57 view .LVU783
ARM GAS  /tmp/cc4ZUYx9.s 			page 44


 2451              	.LBB697:
 2452              		.loc 5 264 3 view .LVU784
 2453 0000 2023     		movs	r3, #32
 2454              		.syntax unified
 2455              	@ 264 "../../../os/common/ext/CMSIS/include/cmsis_gcc.h" 1
 2456 0002 83F31188 		MSR basepri, r3
 2457              	@ 0 "" 2
 2458              	.LVL113:
 2459              		.loc 5 264 3 is_stmt 0 view .LVU785
 2460              		.thumb
 2461              		.syntax unified
 2462              	.LBE697:
 2463              	.LBE696:
 2464              	.LBE698:
 2465              	.LBE700:
 2466              		.loc 3 377 34 is_stmt 1 view .LVU786
 2467              		.loc 3 378 20 view .LVU787
 2468              		.loc 1 633 3 view .LVU788
 2469              		.loc 1 633 13 is_stmt 0 view .LVU789
 2470 0006 90F82130 		ldrb	r3, [r0, #33]	@ zero_extendqisi2
 2471 000a 43F00403 		orr	r3, r3, #4
 2472              	.LBB701:
 2473              	.LBB702:
 2474              	.LBB703:
 2475              	.LBB704:
 2476              	.LBB705:
 2477              		.loc 5 264 3 view .LVU790
 2478 000e 0022     		movs	r2, #0
 2479              	.LBE705:
 2480              	.LBE704:
 2481              	.LBE703:
 2482              	.LBE702:
 2483              	.LBE701:
 2484              		.loc 1 633 13 view .LVU791
 2485 0010 80F82130 		strb	r3, [r0, #33]
 2486              		.loc 1 634 3 is_stmt 1 view .LVU792
 2487              	.LBB712:
 2488              	.LBI701:
 2489              		.loc 3 386 20 view .LVU793
 2490              	.LBB710:
 2491              		.loc 3 388 22 view .LVU794
 2492              		.loc 3 389 33 view .LVU795
 2493              		.loc 3 395 3 view .LVU796
 2494              		.loc 3 395 3 view .LVU797
 2495              		.loc 3 395 3 view .LVU798
 2496              		.loc 3 399 3 view .LVU799
 2497              	.LBB708:
 2498              	.LBI703:
 2499              		.loc 4 618 20 view .LVU800
 2500              	.LBE708:
 2501              	.LBE710:
 2502              	.LBE712:
 2503              		.loc 4 621 3 view .LVU801
 2504              	.LVL114:
 2505              	.LBB713:
 2506              	.LBB711:
 2507              	.LBB709:
ARM GAS  /tmp/cc4ZUYx9.s 			page 45


 2508              	.LBB707:
 2509              	.LBI704:
 2510              		.loc 5 262 57 view .LVU802
 2511              	.LBB706:
 2512              		.loc 5 264 3 view .LVU803
 2513              		.syntax unified
 2514              	@ 264 "../../../os/common/ext/CMSIS/include/cmsis_gcc.h" 1
 2515 0014 82F31188 		MSR basepri, r2
 2516              	@ 0 "" 2
 2517              	.LVL115:
 2518              		.loc 5 264 3 is_stmt 0 view .LVU804
 2519              		.thumb
 2520              		.syntax unified
 2521              	.LBE706:
 2522              	.LBE707:
 2523              	.LBE709:
 2524              	.LBE711:
 2525              	.LBE713:
 2526              		.loc 1 635 1 view .LVU805
 2527 0018 7047     		bx	lr
 2528              		.cfi_endproc
 2529              	.LFE259:
 2530              		.size	chThdTerminate, .-chThdTerminate
 2531 001a 00BF     		.section	.text.chThdSleep,"ax",%progbits
 2532              		.align	1
 2533              		.p2align 4,,15
 2534              		.global	chThdSleep
 2535              		.syntax unified
 2536              		.thumb
 2537              		.thumb_func
 2538              		.fpu softvfp
 2539              		.type	chThdSleep, %function
 2540              	chThdSleep:
 2541              	.LVL116:
 2542              	.LFB260:
 2543              		.loc 1 649 33 is_stmt 1 view -0
 2544              		.cfi_startproc
 2545              		@ args = 0, pretend = 0, frame = 0
 2546              		@ frame_needed = 0, uses_anonymous_args = 0
 2547              		.loc 1 651 3 view .LVU807
 2548              	.LBB714:
 2549              	.LBI714:
 2550              		.loc 3 374 20 view .LVU808
 2551              	.LBE714:
 2552              		.loc 3 376 3 view .LVU809
 2553              	.LBB722:
 2554              	.LBB715:
 2555              	.LBI715:
 2556              		.loc 4 594 20 view .LVU810
 2557              	.LBE715:
 2558              	.LBE722:
 2559              		.loc 4 602 3 view .LVU811
 2560              	.LBB723:
 2561              	.LBB720:
 2562              	.LBB716:
 2563              	.LBI716:
 2564              		.loc 5 262 57 view .LVU812
ARM GAS  /tmp/cc4ZUYx9.s 			page 46


 2565              	.LBB717:
 2566              		.loc 5 264 3 view .LVU813
 2567              	.LBE717:
 2568              	.LBE716:
 2569              	.LBE720:
 2570              	.LBE723:
 2571              		.loc 1 649 33 is_stmt 0 view .LVU814
 2572 0000 08B5     		push	{r3, lr}
 2573              		.cfi_def_cfa_offset 8
 2574              		.cfi_offset 3, -8
 2575              		.cfi_offset 14, -4
 2576              		.loc 1 649 33 view .LVU815
 2577 0002 0146     		mov	r1, r0
 2578              	.LBB724:
 2579              	.LBB721:
 2580              	.LBB719:
 2581              	.LBB718:
 2582              		.loc 5 264 3 view .LVU816
 2583 0004 2023     		movs	r3, #32
 2584              		.syntax unified
 2585              	@ 264 "../../../os/common/ext/CMSIS/include/cmsis_gcc.h" 1
 2586 0006 83F31188 		MSR basepri, r3
 2587              	@ 0 "" 2
 2588              	.LVL117:
 2589              		.loc 5 264 3 view .LVU817
 2590              		.thumb
 2591              		.syntax unified
 2592              	.LBE718:
 2593              	.LBE719:
 2594              	.LBE721:
 2595              	.LBE724:
 2596              		.loc 3 377 34 is_stmt 1 view .LVU818
 2597              		.loc 3 378 20 view .LVU819
 2598              		.loc 1 652 3 view .LVU820
 2599              	.LBB725:
 2600              	.LBI725:
 2601              		.loc 6 390 20 view .LVU821
 2602              	.LBB726:
 2603              		.loc 6 392 3 view .LVU822
 2604              		.loc 6 392 3 view .LVU823
 2605              		.loc 6 392 3 view .LVU824
 2606              		.loc 6 394 3 view .LVU825
 2607              		.loc 6 394 10 is_stmt 0 view .LVU826
 2608 000a 0820     		movs	r0, #8
 2609              	.LVL118:
 2610              		.loc 6 394 10 view .LVU827
 2611 000c FFF7FEFF 		bl	chSchGoSleepTimeoutS
 2612              	.LVL119:
 2613              		.loc 6 394 10 view .LVU828
 2614              	.LBE726:
 2615              	.LBE725:
 2616              		.loc 1 653 3 is_stmt 1 view .LVU829
 2617              	.LBB727:
 2618              	.LBI727:
 2619              		.loc 3 386 20 view .LVU830
 2620              	.LBB728:
 2621              		.loc 3 388 22 view .LVU831
ARM GAS  /tmp/cc4ZUYx9.s 			page 47


 2622              		.loc 3 389 33 view .LVU832
 2623              		.loc 3 395 3 view .LVU833
 2624              		.loc 3 395 3 view .LVU834
 2625              		.loc 3 395 3 view .LVU835
 2626              		.loc 3 399 3 view .LVU836
 2627              	.LBB729:
 2628              	.LBI729:
 2629              		.loc 4 618 20 view .LVU837
 2630              	.LBE729:
 2631              	.LBE728:
 2632              	.LBE727:
 2633              		.loc 4 621 3 view .LVU838
 2634              	.LBB734:
 2635              	.LBB733:
 2636              	.LBB732:
 2637              	.LBB730:
 2638              	.LBI730:
 2639              		.loc 5 262 57 view .LVU839
 2640              	.LBB731:
 2641              		.loc 5 264 3 view .LVU840
 2642 0010 0023     		movs	r3, #0
 2643              		.syntax unified
 2644              	@ 264 "../../../os/common/ext/CMSIS/include/cmsis_gcc.h" 1
 2645 0012 83F31188 		MSR basepri, r3
 2646              	@ 0 "" 2
 2647              	.LVL120:
 2648              		.loc 5 264 3 is_stmt 0 view .LVU841
 2649              		.thumb
 2650              		.syntax unified
 2651              	.LBE731:
 2652              	.LBE730:
 2653              	.LBE732:
 2654              	.LBE733:
 2655              	.LBE734:
 2656              		.loc 1 654 1 view .LVU842
 2657 0016 08BD     		pop	{r3, pc}
 2658              		.cfi_endproc
 2659              	.LFE260:
 2660              		.size	chThdSleep, .-chThdSleep
 2661              		.section	.text.chThdSleepUntil,"ax",%progbits
 2662              		.align	1
 2663              		.p2align 4,,15
 2664              		.global	chThdSleepUntil
 2665              		.syntax unified
 2666              		.thumb
 2667              		.thumb_func
 2668              		.fpu softvfp
 2669              		.type	chThdSleepUntil, %function
 2670              	chThdSleepUntil:
 2671              	.LVL121:
 2672              	.LFB261:
 2673              		.loc 1 669 38 is_stmt 1 view -0
 2674              		.cfi_startproc
 2675              		@ args = 0, pretend = 0, frame = 0
 2676              		@ frame_needed = 0, uses_anonymous_args = 0
 2677              		.loc 1 671 3 view .LVU844
 2678              	.LBB735:
ARM GAS  /tmp/cc4ZUYx9.s 			page 48


 2679              	.LBI735:
 2680              		.loc 3 374 20 view .LVU845
 2681              	.LBE735:
 2682              		.loc 3 376 3 view .LVU846
 2683              	.LBB743:
 2684              	.LBB736:
 2685              	.LBI736:
 2686              		.loc 4 594 20 view .LVU847
 2687              	.LBE736:
 2688              	.LBE743:
 2689              		.loc 4 602 3 view .LVU848
 2690              	.LBB744:
 2691              	.LBB741:
 2692              	.LBB737:
 2693              	.LBI737:
 2694              		.loc 5 262 57 view .LVU849
 2695              	.LBB738:
 2696              		.loc 5 264 3 view .LVU850
 2697              	.LBE738:
 2698              	.LBE737:
 2699              	.LBE741:
 2700              	.LBE744:
 2701              		.loc 1 669 38 is_stmt 0 view .LVU851
 2702 0000 08B5     		push	{r3, lr}
 2703              		.cfi_def_cfa_offset 8
 2704              		.cfi_offset 3, -8
 2705              		.cfi_offset 14, -4
 2706              	.LBB745:
 2707              	.LBB742:
 2708              	.LBB740:
 2709              	.LBB739:
 2710              		.loc 5 264 3 view .LVU852
 2711 0002 2023     		movs	r3, #32
 2712              		.syntax unified
 2713              	@ 264 "../../../os/common/ext/CMSIS/include/cmsis_gcc.h" 1
 2714 0004 83F31188 		MSR basepri, r3
 2715              	@ 0 "" 2
 2716              	.LVL122:
 2717              		.loc 5 264 3 view .LVU853
 2718              		.thumb
 2719              		.syntax unified
 2720              	.LBE739:
 2721              	.LBE740:
 2722              	.LBE742:
 2723              	.LBE745:
 2724              		.loc 3 377 34 is_stmt 1 view .LVU854
 2725              		.loc 3 378 20 view .LVU855
 2726              		.loc 1 672 3 view .LVU856
 2727              	.LBB746:
 2728              	.LBI746:
 2729              		.file 7 "../../../os/rt/include/chvt.h"
 2730              		.loc 7 392 25 view .LVU857
 2731              	.LBE746:
 2732              		.loc 7 397 3 view .LVU858
 2733              	.LBB751:
 2734              	.LBB747:
 2735              	.LBI747:
ARM GAS  /tmp/cc4ZUYx9.s 			page 49


 2736              		.file 8 "../../../os/common/ports/ARMCMx/chcore_timer.h"
 2737              		.loc 8 105 25 view .LVU859
 2738              	.LBE747:
 2739              	.LBE751:
 2740              		.loc 8 107 3 view .LVU860
 2741              	.LBB752:
 2742              	.LBB750:
 2743              	.LBB748:
 2744              	.LBI748:
 2745              		.file 9 "../../../os/hal/ports/STM32/LLD/TIMv1/hal_st_lld.h"
 2746              		.loc 9 139 25 view .LVU861
 2747              	.LBB749:
 2748              		.loc 9 141 3 view .LVU862
 2749              		.loc 9 141 10 is_stmt 0 view .LVU863
 2750 0008 4FF08043 		mov	r3, #1073741824
 2751 000c 596A     		ldr	r1, [r3, #36]
 2752              	.LVL123:
 2753              		.loc 9 141 10 view .LVU864
 2754              	.LBE749:
 2755              	.LBE748:
 2756              	.LBE750:
 2757              	.LBE752:
 2758              		.loc 1 673 3 is_stmt 1 view .LVU865
 2759              		.loc 1 673 6 is_stmt 0 view .LVU866
 2760 000e 411A     		subs	r1, r0, r1
 2761              	.LVL124:
 2762              		.loc 1 673 6 view .LVU867
 2763 0010 03D1     		bne	.L70
 2764              		.loc 1 676 3 is_stmt 1 view .LVU868
 2765              	.LBB753:
 2766              	.LBI753:
 2767              		.loc 3 386 20 view .LVU869
 2768              	.LBB754:
 2769              		.loc 3 388 22 view .LVU870
 2770              		.loc 3 389 33 view .LVU871
 2771              		.loc 3 395 3 view .LVU872
 2772              		.loc 3 395 3 view .LVU873
 2773              		.loc 3 395 3 view .LVU874
 2774              		.loc 3 399 3 view .LVU875
 2775              	.LBB755:
 2776              	.LBI755:
 2777              		.loc 4 618 20 view .LVU876
 2778              	.LBE755:
 2779              	.LBE754:
 2780              	.LBE753:
 2781              		.loc 4 621 3 view .LVU877
 2782              	.LVL125:
 2783              	.LBB766:
 2784              	.LBB763:
 2785              	.LBB760:
 2786              	.LBB756:
 2787              	.LBI756:
 2788              		.loc 5 262 57 view .LVU878
 2789              	.LBB757:
 2790              		.loc 5 264 3 view .LVU879
 2791 0012 0023     		movs	r3, #0
 2792              		.syntax unified
ARM GAS  /tmp/cc4ZUYx9.s 			page 50


 2793              	@ 264 "../../../os/common/ext/CMSIS/include/cmsis_gcc.h" 1
 2794 0014 83F31188 		MSR basepri, r3
 2795              	@ 0 "" 2
 2796              	.LVL126:
 2797              		.loc 5 264 3 is_stmt 0 view .LVU880
 2798              		.thumb
 2799              		.syntax unified
 2800              	.LBE757:
 2801              	.LBE756:
 2802              	.LBE760:
 2803              	.LBE763:
 2804              	.LBE766:
 2805              		.loc 1 677 1 view .LVU881
 2806 0018 08BD     		pop	{r3, pc}
 2807              	.L70:
 2808              		.loc 1 674 5 is_stmt 1 view .LVU882
 2809              	.LVL127:
 2810              	.LBB767:
 2811              	.LBI767:
 2812              		.loc 6 390 20 view .LVU883
 2813              	.LBB768:
 2814              		.loc 6 392 3 view .LVU884
 2815              		.loc 6 392 3 view .LVU885
 2816              		.loc 6 392 3 view .LVU886
 2817              		.loc 6 394 3 view .LVU887
 2818              		.loc 6 394 10 is_stmt 0 view .LVU888
 2819 001a 0820     		movs	r0, #8
 2820 001c FFF7FEFF 		bl	chSchGoSleepTimeoutS
 2821              	.LVL128:
 2822              		.loc 6 394 10 view .LVU889
 2823              	.LBE768:
 2824              	.LBE767:
 2825              		.loc 1 676 3 is_stmt 1 view .LVU890
 2826              	.LBB769:
 2827              		.loc 3 386 20 view .LVU891
 2828              	.LBB764:
 2829              		.loc 3 388 22 view .LVU892
 2830              		.loc 3 389 33 view .LVU893
 2831              		.loc 3 395 3 view .LVU894
 2832              		.loc 3 395 3 view .LVU895
 2833              		.loc 3 395 3 view .LVU896
 2834              		.loc 3 399 3 view .LVU897
 2835              	.LBB761:
 2836              		.loc 4 618 20 view .LVU898
 2837              	.LBE761:
 2838              	.LBE764:
 2839              	.LBE769:
 2840              		.loc 4 621 3 view .LVU899
 2841              	.LBB770:
 2842              	.LBB765:
 2843              	.LBB762:
 2844              	.LBB759:
 2845              		.loc 5 262 57 view .LVU900
 2846              	.LBB758:
 2847              		.loc 5 264 3 view .LVU901
 2848 0020 0023     		movs	r3, #0
 2849              		.syntax unified
ARM GAS  /tmp/cc4ZUYx9.s 			page 51


 2850              	@ 264 "../../../os/common/ext/CMSIS/include/cmsis_gcc.h" 1
 2851 0022 83F31188 		MSR basepri, r3
 2852              	@ 0 "" 2
 2853              	.LVL129:
 2854              		.loc 5 264 3 is_stmt 0 view .LVU902
 2855              		.thumb
 2856              		.syntax unified
 2857              	.LBE758:
 2858              	.LBE759:
 2859              	.LBE762:
 2860              	.LBE765:
 2861              	.LBE770:
 2862              		.loc 1 677 1 view .LVU903
 2863 0026 08BD     		pop	{r3, pc}
 2864              		.cfi_endproc
 2865              	.LFE261:
 2866              		.size	chThdSleepUntil, .-chThdSleepUntil
 2867              		.section	.text.chThdSleepUntilWindowed,"ax",%progbits
 2868              		.align	1
 2869              		.p2align 4,,15
 2870              		.global	chThdSleepUntilWindowed
 2871              		.syntax unified
 2872              		.thumb
 2873              		.thumb_func
 2874              		.fpu softvfp
 2875              		.type	chThdSleepUntilWindowed, %function
 2876              	chThdSleepUntilWindowed:
 2877              	.LVL130:
 2878              	.LFB262:
 2879              		.loc 1 693 67 is_stmt 1 view -0
 2880              		.cfi_startproc
 2881              		@ args = 0, pretend = 0, frame = 0
 2882              		@ frame_needed = 0, uses_anonymous_args = 0
 2883              		.loc 1 694 3 view .LVU905
 2884              		.loc 1 696 3 view .LVU906
 2885              	.LBB771:
 2886              	.LBI771:
 2887              		.loc 3 374 20 view .LVU907
 2888              	.LBE771:
 2889              		.loc 3 376 3 view .LVU908
 2890              	.LBB782:
 2891              	.LBB772:
 2892              	.LBI772:
 2893              		.loc 4 594 20 view .LVU909
 2894              	.LBE772:
 2895              	.LBE782:
 2896              		.loc 4 602 3 view .LVU910
 2897              	.LBB783:
 2898              	.LBB779:
 2899              	.LBB773:
 2900              	.LBI773:
 2901              		.loc 5 262 57 view .LVU911
 2902              	.LBB774:
 2903              		.loc 5 264 3 view .LVU912
 2904              	.LBE774:
 2905              	.LBE773:
 2906              	.LBE779:
ARM GAS  /tmp/cc4ZUYx9.s 			page 52


 2907              	.LBE783:
 2908              		.loc 1 693 67 is_stmt 0 view .LVU913
 2909 0000 10B5     		push	{r4, lr}
 2910              		.cfi_def_cfa_offset 8
 2911              		.cfi_offset 4, -8
 2912              		.cfi_offset 14, -4
 2913              	.LBB784:
 2914              	.LBB780:
 2915              	.LBB777:
 2916              	.LBB775:
 2917              		.loc 5 264 3 view .LVU914
 2918 0002 2023     		movs	r3, #32
 2919              	.LBE775:
 2920              	.LBE777:
 2921              	.LBE780:
 2922              	.LBE784:
 2923              		.loc 1 693 67 view .LVU915
 2924 0004 0C46     		mov	r4, r1
 2925              	.LBB785:
 2926              	.LBB781:
 2927              	.LBB778:
 2928              	.LBB776:
 2929              		.loc 5 264 3 view .LVU916
 2930              		.syntax unified
 2931              	@ 264 "../../../os/common/ext/CMSIS/include/cmsis_gcc.h" 1
 2932 0006 83F31188 		MSR basepri, r3
 2933              	@ 0 "" 2
 2934              	.LVL131:
 2935              		.loc 5 264 3 view .LVU917
 2936              		.thumb
 2937              		.syntax unified
 2938              	.LBE776:
 2939              	.LBE778:
 2940              	.LBE781:
 2941              	.LBE785:
 2942              		.loc 3 377 34 is_stmt 1 view .LVU918
 2943              		.loc 3 378 20 view .LVU919
 2944              		.loc 1 697 3 view .LVU920
 2945              	.LBB786:
 2946              	.LBI786:
 2947              		.loc 7 392 25 view .LVU921
 2948              	.LBE786:
 2949              		.loc 7 397 3 view .LVU922
 2950              	.LBB794:
 2951              	.LBB787:
 2952              	.LBI787:
 2953              		.loc 8 105 25 view .LVU923
 2954              	.LBE787:
 2955              	.LBE794:
 2956              		.loc 8 107 3 view .LVU924
 2957              	.LBB795:
 2958              	.LBB792:
 2959              	.LBB788:
 2960              	.LBI788:
 2961              		.loc 9 139 25 view .LVU925
 2962              	.LBB789:
 2963              		.loc 9 141 3 view .LVU926
ARM GAS  /tmp/cc4ZUYx9.s 			page 53


 2964              		.loc 9 141 10 is_stmt 0 view .LVU927
 2965 000a 4FF08042 		mov	r2, #1073741824
 2966              	.LBE789:
 2967              	.LBE788:
 2968              	.LBE792:
 2969              	.LBE795:
 2970              	.LBB796:
 2971              	.LBB797:
 2972              		.loc 7 452 61 view .LVU928
 2973 000e 0B1A     		subs	r3, r1, r0
 2974              	.LBE797:
 2975              	.LBE796:
 2976              	.LBB799:
 2977              	.LBB793:
 2978              	.LBB791:
 2979              	.LBB790:
 2980              		.loc 9 141 10 view .LVU929
 2981 0010 516A     		ldr	r1, [r2, #36]
 2982              	.LVL132:
 2983              		.loc 9 141 10 view .LVU930
 2984              	.LBE790:
 2985              	.LBE791:
 2986              	.LBE793:
 2987              	.LBE799:
 2988              		.loc 1 698 3 is_stmt 1 view .LVU931
 2989              	.LBB800:
 2990              	.LBI796:
 2991              		.loc 7 448 20 view .LVU932
 2992              	.LBB798:
 2993              		.loc 7 452 3 view .LVU933
 2994              		.loc 7 452 34 is_stmt 0 view .LVU934
 2995 0012 081A     		subs	r0, r1, r0
 2996              	.LVL133:
 2997              		.loc 7 452 34 view .LVU935
 2998              	.LBE798:
 2999              	.LBE800:
 3000              		.loc 1 698 6 view .LVU936
 3001 0014 9842     		cmp	r0, r3
 3002 0016 04D3     		bcc	.L74
 3003              		.loc 1 701 3 is_stmt 1 view .LVU937
 3004              	.LBB801:
 3005              	.LBI801:
 3006              		.loc 3 386 20 view .LVU938
 3007              	.LBB802:
 3008              		.loc 3 388 22 view .LVU939
 3009              		.loc 3 389 33 view .LVU940
 3010              		.loc 3 395 3 view .LVU941
 3011              		.loc 3 395 3 view .LVU942
 3012              		.loc 3 395 3 view .LVU943
 3013              		.loc 3 399 3 view .LVU944
 3014              	.LBB803:
 3015              	.LBI803:
 3016              		.loc 4 618 20 view .LVU945
 3017              	.LBE803:
 3018              	.LBE802:
 3019              	.LBE801:
 3020              		.loc 4 621 3 view .LVU946
ARM GAS  /tmp/cc4ZUYx9.s 			page 54


 3021              	.LVL134:
 3022              	.LBB814:
 3023              	.LBB811:
 3024              	.LBB808:
 3025              	.LBB804:
 3026              	.LBI804:
 3027              		.loc 5 262 57 view .LVU947
 3028              	.LBB805:
 3029              		.loc 5 264 3 view .LVU948
 3030 0018 0023     		movs	r3, #0
 3031              		.syntax unified
 3032              	@ 264 "../../../os/common/ext/CMSIS/include/cmsis_gcc.h" 1
 3033 001a 83F31188 		MSR basepri, r3
 3034              	@ 0 "" 2
 3035              	.LVL135:
 3036              		.loc 5 264 3 is_stmt 0 view .LVU949
 3037              		.thumb
 3038              		.syntax unified
 3039              	.LBE805:
 3040              	.LBE804:
 3041              	.LBE808:
 3042              	.LBE811:
 3043              	.LBE814:
 3044              		.loc 1 703 3 is_stmt 1 view .LVU950
 3045              		.loc 1 704 1 is_stmt 0 view .LVU951
 3046 001e 2046     		mov	r0, r4
 3047 0020 10BD     		pop	{r4, pc}
 3048              	.LVL136:
 3049              	.L74:
 3050              		.loc 1 699 5 is_stmt 1 view .LVU952
 3051              	.LBB815:
 3052              	.LBI815:
 3053              		.loc 6 390 20 view .LVU953
 3054              	.LBB816:
 3055              		.loc 6 392 3 view .LVU954
 3056              		.loc 6 392 3 view .LVU955
 3057              		.loc 6 392 3 view .LVU956
 3058              		.loc 6 394 3 view .LVU957
 3059              		.loc 6 394 10 is_stmt 0 view .LVU958
 3060 0022 611A     		subs	r1, r4, r1
 3061              	.LVL137:
 3062              		.loc 6 394 10 view .LVU959
 3063 0024 0820     		movs	r0, #8
 3064 0026 FFF7FEFF 		bl	chSchGoSleepTimeoutS
 3065              	.LVL138:
 3066              		.loc 6 394 10 view .LVU960
 3067              	.LBE816:
 3068              	.LBE815:
 3069              		.loc 1 701 3 is_stmt 1 view .LVU961
 3070              	.LBB817:
 3071              		.loc 3 386 20 view .LVU962
 3072              	.LBB812:
 3073              		.loc 3 388 22 view .LVU963
 3074              		.loc 3 389 33 view .LVU964
 3075              		.loc 3 395 3 view .LVU965
 3076              		.loc 3 395 3 view .LVU966
 3077              		.loc 3 395 3 view .LVU967
ARM GAS  /tmp/cc4ZUYx9.s 			page 55


 3078              		.loc 3 399 3 view .LVU968
 3079              	.LBB809:
 3080              		.loc 4 618 20 view .LVU969
 3081              	.LBE809:
 3082              	.LBE812:
 3083              	.LBE817:
 3084              		.loc 4 621 3 view .LVU970
 3085              	.LBB818:
 3086              	.LBB813:
 3087              	.LBB810:
 3088              	.LBB807:
 3089              		.loc 5 262 57 view .LVU971
 3090              	.LBB806:
 3091              		.loc 5 264 3 view .LVU972
 3092 002a 0023     		movs	r3, #0
 3093              		.syntax unified
 3094              	@ 264 "../../../os/common/ext/CMSIS/include/cmsis_gcc.h" 1
 3095 002c 83F31188 		MSR basepri, r3
 3096              	@ 0 "" 2
 3097              	.LVL139:
 3098              		.loc 5 264 3 is_stmt 0 view .LVU973
 3099              		.thumb
 3100              		.syntax unified
 3101              	.LBE806:
 3102              	.LBE807:
 3103              	.LBE810:
 3104              	.LBE813:
 3105              	.LBE818:
 3106              		.loc 1 703 3 is_stmt 1 view .LVU974
 3107              		.loc 1 704 1 is_stmt 0 view .LVU975
 3108 0030 2046     		mov	r0, r4
 3109 0032 10BD     		pop	{r4, pc}
 3110              		.loc 1 704 1 view .LVU976
 3111              		.cfi_endproc
 3112              	.LFE262:
 3113              		.size	chThdSleepUntilWindowed, .-chThdSleepUntilWindowed
 3114              		.section	.text.chThdYield,"ax",%progbits
 3115              		.align	1
 3116              		.p2align 4,,15
 3117              		.global	chThdYield
 3118              		.syntax unified
 3119              		.thumb
 3120              		.thumb_func
 3121              		.fpu softvfp
 3122              		.type	chThdYield, %function
 3123              	chThdYield:
 3124              	.LFB263:
 3125              		.loc 1 713 23 is_stmt 1 view -0
 3126              		.cfi_startproc
 3127              		@ args = 0, pretend = 0, frame = 0
 3128              		@ frame_needed = 0, uses_anonymous_args = 0
 3129              		.loc 1 715 3 view .LVU978
 3130              	.LBB832:
 3131              	.LBI832:
 3132              		.loc 3 374 20 view .LVU979
 3133              	.LBE832:
 3134              		.loc 3 376 3 view .LVU980
ARM GAS  /tmp/cc4ZUYx9.s 			page 56


 3135              	.LBB840:
 3136              	.LBB833:
 3137              	.LBI833:
 3138              		.loc 4 594 20 view .LVU981
 3139              	.LBE833:
 3140              	.LBE840:
 3141              		.loc 4 602 3 view .LVU982
 3142              	.LVL140:
 3143              	.LBB841:
 3144              	.LBB838:
 3145              	.LBB834:
 3146              	.LBI834:
 3147              		.loc 5 262 57 view .LVU983
 3148              	.LBB835:
 3149              		.loc 5 264 3 view .LVU984
 3150              	.LBE835:
 3151              	.LBE834:
 3152              	.LBE838:
 3153              	.LBE841:
 3154              		.loc 1 713 23 is_stmt 0 view .LVU985
 3155 0000 08B5     		push	{r3, lr}
 3156              		.cfi_def_cfa_offset 8
 3157              		.cfi_offset 3, -8
 3158              		.cfi_offset 14, -4
 3159              	.LBB842:
 3160              	.LBB839:
 3161              	.LBB837:
 3162              	.LBB836:
 3163              		.loc 5 264 3 view .LVU986
 3164 0002 2023     		movs	r3, #32
 3165              		.syntax unified
 3166              	@ 264 "../../../os/common/ext/CMSIS/include/cmsis_gcc.h" 1
 3167 0004 83F31188 		MSR basepri, r3
 3168              	@ 0 "" 2
 3169              	.LVL141:
 3170              		.loc 5 264 3 view .LVU987
 3171              		.thumb
 3172              		.syntax unified
 3173              	.LBE836:
 3174              	.LBE837:
 3175              	.LBE839:
 3176              	.LBE842:
 3177              		.loc 3 377 34 is_stmt 1 view .LVU988
 3178              		.loc 3 378 20 view .LVU989
 3179              		.loc 1 716 3 view .LVU990
 3180              	.LBB843:
 3181              	.LBI843:
 3182              		.loc 2 687 20 view .LVU991
 3183              	.LBB844:
 3184              		.loc 2 689 21 view .LVU992
 3185              		.loc 2 691 3 view .LVU993
 3186              	.LBB845:
 3187              	.LBI845:
 3188              		.loc 2 673 20 view .LVU994
 3189              	.LBB846:
 3190              		.loc 2 675 21 view .LVU995
 3191              		.loc 2 677 3 view .LVU996
ARM GAS  /tmp/cc4ZUYx9.s 			page 57


 3192              		.loc 2 677 10 is_stmt 0 view .LVU997
 3193 0008 084B     		ldr	r3, .L79
 3194 000a 1A68     		ldr	r2, [r3]
 3195              		.loc 2 677 45 view .LVU998
 3196 000c 9B69     		ldr	r3, [r3, #24]
 3197              	.LBE846:
 3198              	.LBE845:
 3199              		.loc 2 691 6 view .LVU999
 3200 000e 9268     		ldr	r2, [r2, #8]
 3201 0010 9B68     		ldr	r3, [r3, #8]
 3202 0012 9A42     		cmp	r2, r3
 3203 0014 03D2     		bcs	.L78
 3204              	.LBE844:
 3205              	.LBE843:
 3206              		.loc 1 717 3 is_stmt 1 view .LVU1000
 3207              	.LBB848:
 3208              	.LBI848:
 3209              		.loc 3 386 20 view .LVU1001
 3210              	.LBB849:
 3211              		.loc 3 388 22 view .LVU1002
 3212              		.loc 3 389 33 view .LVU1003
 3213              		.loc 3 395 3 view .LVU1004
 3214              		.loc 3 395 3 view .LVU1005
 3215              		.loc 3 395 3 view .LVU1006
 3216              		.loc 3 399 3 view .LVU1007
 3217              	.LBB850:
 3218              	.LBI850:
 3219              		.loc 4 618 20 view .LVU1008
 3220              	.LBE850:
 3221              	.LBE849:
 3222              	.LBE848:
 3223              		.loc 4 621 3 view .LVU1009
 3224              	.LVL142:
 3225              	.LBB861:
 3226              	.LBB858:
 3227              	.LBB855:
 3228              	.LBB851:
 3229              	.LBI851:
 3230              		.loc 5 262 57 view .LVU1010
 3231              	.LBB852:
 3232              		.loc 5 264 3 view .LVU1011
 3233 0016 0023     		movs	r3, #0
 3234              		.syntax unified
 3235              	@ 264 "../../../os/common/ext/CMSIS/include/cmsis_gcc.h" 1
 3236 0018 83F31188 		MSR basepri, r3
 3237              	@ 0 "" 2
 3238              	.LVL143:
 3239              		.loc 5 264 3 is_stmt 0 view .LVU1012
 3240              		.thumb
 3241              		.syntax unified
 3242              	.LBE852:
 3243              	.LBE851:
 3244              	.LBE855:
 3245              	.LBE858:
 3246              	.LBE861:
 3247              		.loc 1 718 1 view .LVU1013
 3248 001c 08BD     		pop	{r3, pc}
ARM GAS  /tmp/cc4ZUYx9.s 			page 58


 3249              	.L78:
 3250              	.LBB862:
 3251              	.LBB847:
 3252              		.loc 2 692 5 is_stmt 1 view .LVU1014
 3253 001e FFF7FEFF 		bl	chSchDoRescheduleBehind
 3254              	.LVL144:
 3255              	.LBE847:
 3256              	.LBE862:
 3257              		.loc 1 717 3 view .LVU1015
 3258              	.LBB863:
 3259              		.loc 3 386 20 view .LVU1016
 3260              	.LBB859:
 3261              		.loc 3 388 22 view .LVU1017
 3262              		.loc 3 389 33 view .LVU1018
 3263              		.loc 3 395 3 view .LVU1019
 3264              		.loc 3 395 3 view .LVU1020
 3265              		.loc 3 395 3 view .LVU1021
 3266              		.loc 3 399 3 view .LVU1022
 3267              	.LBB856:
 3268              		.loc 4 618 20 view .LVU1023
 3269              	.LBE856:
 3270              	.LBE859:
 3271              	.LBE863:
 3272              		.loc 4 621 3 view .LVU1024
 3273              	.LBB864:
 3274              	.LBB860:
 3275              	.LBB857:
 3276              	.LBB854:
 3277              		.loc 5 262 57 view .LVU1025
 3278              	.LBB853:
 3279              		.loc 5 264 3 view .LVU1026
 3280 0022 0023     		movs	r3, #0
 3281              		.syntax unified
 3282              	@ 264 "../../../os/common/ext/CMSIS/include/cmsis_gcc.h" 1
 3283 0024 83F31188 		MSR basepri, r3
 3284              	@ 0 "" 2
 3285              	.LVL145:
 3286              		.loc 5 264 3 is_stmt 0 view .LVU1027
 3287              		.thumb
 3288              		.syntax unified
 3289              	.LBE853:
 3290              	.LBE854:
 3291              	.LBE857:
 3292              	.LBE860:
 3293              	.LBE864:
 3294              		.loc 1 718 1 view .LVU1028
 3295 0028 08BD     		pop	{r3, pc}
 3296              	.L80:
 3297 002a 00BF     		.align	2
 3298              	.L79:
 3299 002c 00000000 		.word	ch
 3300              		.cfi_endproc
 3301              	.LFE263:
 3302              		.size	chThdYield, .-chThdYield
 3303              		.section	.text.chThdSuspendS,"ax",%progbits
 3304              		.align	1
 3305              		.p2align 4,,15
ARM GAS  /tmp/cc4ZUYx9.s 			page 59


 3306              		.global	chThdSuspendS
 3307              		.syntax unified
 3308              		.thumb
 3309              		.thumb_func
 3310              		.fpu softvfp
 3311              		.type	chThdSuspendS, %function
 3312              	chThdSuspendS:
 3313              	.LVL146:
 3314              	.LFB264:
 3315              		.loc 1 730 46 is_stmt 1 view -0
 3316              		.cfi_startproc
 3317              		@ args = 0, pretend = 0, frame = 0
 3318              		@ frame_needed = 0, uses_anonymous_args = 0
 3319              		.loc 1 731 3 view .LVU1030
 3320              	.LBB865:
 3321              	.LBI865:
 3322              		.loc 6 284 25 view .LVU1031
 3323              	.LBB866:
 3324              		.loc 6 286 3 view .LVU1032
 3325              	.LBE866:
 3326              	.LBE865:
 3327              		.loc 1 730 46 is_stmt 0 view .LVU1033
 3328 0000 10B5     		push	{r4, lr}
 3329              		.cfi_def_cfa_offset 8
 3330              		.cfi_offset 4, -8
 3331              		.cfi_offset 14, -4
 3332              	.LBB869:
 3333              	.LBB867:
 3334              		.loc 6 286 18 view .LVU1034
 3335 0002 054C     		ldr	r4, .L83
 3336              	.LBE867:
 3337              	.LBE869:
 3338              		.loc 1 730 46 view .LVU1035
 3339 0004 0346     		mov	r3, r0
 3340              	.LBB870:
 3341              	.LBB868:
 3342              		.loc 6 286 18 view .LVU1036
 3343 0006 A269     		ldr	r2, [r4, #24]
 3344              	.LVL147:
 3345              		.loc 6 286 18 view .LVU1037
 3346              	.LBE868:
 3347              	.LBE870:
 3348              		.loc 1 733 3 is_stmt 1 view .LVU1038
 3349              		.loc 1 733 3 view .LVU1039
 3350              		.loc 1 733 3 view .LVU1040
 3351              		.loc 1 735 3 view .LVU1041
 3352              		.loc 1 735 8 is_stmt 0 view .LVU1042
 3353 0008 1A60     		str	r2, [r3]
 3354              		.loc 1 736 3 is_stmt 1 view .LVU1043
 3355              		.loc 1 737 3 is_stmt 0 view .LVU1044
 3356 000a 0320     		movs	r0, #3
 3357              	.LVL148:
 3358              		.loc 1 736 15 view .LVU1045
 3359 000c 5362     		str	r3, [r2, #36]
 3360              		.loc 1 737 3 is_stmt 1 view .LVU1046
 3361 000e FFF7FEFF 		bl	chSchGoSleepS
 3362              	.LVL149:
ARM GAS  /tmp/cc4ZUYx9.s 			page 60


 3363              		.loc 1 739 3 view .LVU1047
 3364              	.LBB871:
 3365              	.LBI871:
 3366              		.loc 6 284 25 view .LVU1048
 3367              	.LBB872:
 3368              		.loc 6 286 3 view .LVU1049
 3369              	.LBE872:
 3370              	.LBE871:
 3371              		.loc 1 739 28 is_stmt 0 view .LVU1050
 3372 0012 A369     		ldr	r3, [r4, #24]
 3373              		.loc 1 740 1 view .LVU1051
 3374 0014 586A     		ldr	r0, [r3, #36]
 3375 0016 10BD     		pop	{r4, pc}
 3376              	.L84:
 3377              		.align	2
 3378              	.L83:
 3379 0018 00000000 		.word	ch
 3380              		.cfi_endproc
 3381              	.LFE264:
 3382              		.size	chThdSuspendS, .-chThdSuspendS
 3383              		.section	.text.chThdSuspendTimeoutS,"ax",%progbits
 3384              		.align	1
 3385              		.p2align 4,,15
 3386              		.global	chThdSuspendTimeoutS
 3387              		.syntax unified
 3388              		.thumb
 3389              		.thumb_func
 3390              		.fpu softvfp
 3391              		.type	chThdSuspendTimeoutS, %function
 3392              	chThdSuspendTimeoutS:
 3393              	.LVL150:
 3394              	.LFB265:
 3395              		.loc 1 761 72 is_stmt 1 view -0
 3396              		.cfi_startproc
 3397              		@ args = 0, pretend = 0, frame = 0
 3398              		@ frame_needed = 0, uses_anonymous_args = 0
 3399              		@ link register save eliminated.
 3400              		.loc 1 762 3 view .LVU1053
 3401              	.LBB873:
 3402              	.LBI873:
 3403              		.loc 6 284 25 view .LVU1054
 3404              	.LBB874:
 3405              		.loc 6 286 3 view .LVU1055
 3406              		.loc 6 286 18 is_stmt 0 view .LVU1056
 3407 0000 054B     		ldr	r3, .L87
 3408 0002 9A69     		ldr	r2, [r3, #24]
 3409              	.LVL151:
 3410              		.loc 6 286 18 view .LVU1057
 3411              	.LBE874:
 3412              	.LBE873:
 3413              		.loc 1 764 3 is_stmt 1 view .LVU1058
 3414              		.loc 1 764 3 view .LVU1059
 3415              		.loc 1 764 3 view .LVU1060
 3416              		.loc 1 766 3 view .LVU1061
 3417              		.loc 1 761 72 is_stmt 0 view .LVU1062
 3418 0004 0346     		mov	r3, r0
 3419              		.loc 1 766 6 view .LVU1063
ARM GAS  /tmp/cc4ZUYx9.s 			page 61


 3420 0006 21B1     		cbz	r1, .L86
 3421              		.loc 1 770 3 is_stmt 1 view .LVU1064
 3422              		.loc 1 770 8 is_stmt 0 view .LVU1065
 3423 0008 0260     		str	r2, [r0]
 3424              		.loc 1 771 3 is_stmt 1 view .LVU1066
 3425              		.loc 1 773 10 is_stmt 0 view .LVU1067
 3426 000a 0320     		movs	r0, #3
 3427              	.LVL152:
 3428              		.loc 1 771 15 view .LVU1068
 3429 000c 5362     		str	r3, [r2, #36]
 3430              		.loc 1 773 3 is_stmt 1 view .LVU1069
 3431              		.loc 1 773 10 is_stmt 0 view .LVU1070
 3432 000e FFF7FEBF 		b	chSchGoSleepTimeoutS
 3433              	.LVL153:
 3434              	.L86:
 3435              		.loc 1 774 1 view .LVU1071
 3436 0012 4FF0FF30 		mov	r0, #-1
 3437              	.LVL154:
 3438              		.loc 1 774 1 view .LVU1072
 3439 0016 7047     		bx	lr
 3440              	.L88:
 3441              		.align	2
 3442              	.L87:
 3443 0018 00000000 		.word	ch
 3444              		.cfi_endproc
 3445              	.LFE265:
 3446              		.size	chThdSuspendTimeoutS, .-chThdSuspendTimeoutS
 3447              		.section	.text.chThdResumeI,"ax",%progbits
 3448              		.align	1
 3449              		.p2align 4,,15
 3450              		.global	chThdResumeI
 3451              		.syntax unified
 3452              		.thumb
 3453              		.thumb_func
 3454              		.fpu softvfp
 3455              		.type	chThdResumeI, %function
 3456              	chThdResumeI:
 3457              	.LVL155:
 3458              	.LFB266:
 3459              		.loc 1 786 55 is_stmt 1 view -0
 3460              		.cfi_startproc
 3461              		@ args = 0, pretend = 0, frame = 0
 3462              		@ frame_needed = 0, uses_anonymous_args = 0
 3463              		@ link register save eliminated.
 3464              		.loc 1 788 3 view .LVU1074
 3465              		.loc 1 786 55 is_stmt 0 view .LVU1075
 3466 0000 0346     		mov	r3, r0
 3467              		.loc 1 788 7 view .LVU1076
 3468 0002 0068     		ldr	r0, [r0]
 3469              	.LVL156:
 3470              		.loc 1 788 6 view .LVU1077
 3471 0004 20B1     		cbz	r0, .L89
 3472              	.LBB875:
 3473              		.loc 1 789 5 is_stmt 1 view .LVU1078
 3474              	.LVL157:
 3475              		.loc 1 791 5 view .LVU1079
 3476              		.loc 1 791 5 view .LVU1080
ARM GAS  /tmp/cc4ZUYx9.s 			page 62


 3477              		.loc 1 791 5 view .LVU1081
 3478              		.loc 1 793 5 view .LVU1082
 3479              		.loc 1 793 10 is_stmt 0 view .LVU1083
 3480 0006 0022     		movs	r2, #0
 3481 0008 1A60     		str	r2, [r3]
 3482              		.loc 1 794 5 is_stmt 1 view .LVU1084
 3483              		.loc 1 794 18 is_stmt 0 view .LVU1085
 3484 000a 4162     		str	r1, [r0, #36]
 3485              		.loc 1 795 5 is_stmt 1 view .LVU1086
 3486              		.loc 1 795 12 is_stmt 0 view .LVU1087
 3487 000c FFF7FEBF 		b	chSchReadyI
 3488              	.LVL158:
 3489              	.L89:
 3490              		.loc 1 795 12 view .LVU1088
 3491              	.LBE875:
 3492              		.loc 1 797 1 view .LVU1089
 3493 0010 7047     		bx	lr
 3494              		.cfi_endproc
 3495              	.LFE266:
 3496              		.size	chThdResumeI, .-chThdResumeI
 3497 0012 00BF     		.section	.text.chThdResumeS,"ax",%progbits
 3498              		.align	1
 3499              		.p2align 4,,15
 3500              		.global	chThdResumeS
 3501              		.syntax unified
 3502              		.thumb
 3503              		.thumb_func
 3504              		.fpu softvfp
 3505              		.type	chThdResumeS, %function
 3506              	chThdResumeS:
 3507              	.LVL159:
 3508              	.LFB267:
 3509              		.loc 1 809 55 is_stmt 1 view -0
 3510              		.cfi_startproc
 3511              		@ args = 0, pretend = 0, frame = 0
 3512              		@ frame_needed = 0, uses_anonymous_args = 0
 3513              		@ link register save eliminated.
 3514              		.loc 1 811 3 view .LVU1091
 3515              		.loc 1 809 55 is_stmt 0 view .LVU1092
 3516 0000 0346     		mov	r3, r0
 3517              		.loc 1 811 7 view .LVU1093
 3518 0002 0068     		ldr	r0, [r0]
 3519              	.LVL160:
 3520              		.loc 1 811 6 view .LVU1094
 3521 0004 18B1     		cbz	r0, .L91
 3522              	.LBB876:
 3523              		.loc 1 812 5 is_stmt 1 view .LVU1095
 3524              	.LVL161:
 3525              		.loc 1 814 5 view .LVU1096
 3526              		.loc 1 814 5 view .LVU1097
 3527              		.loc 1 814 5 view .LVU1098
 3528              		.loc 1 816 5 view .LVU1099
 3529              		.loc 1 816 10 is_stmt 0 view .LVU1100
 3530 0006 0022     		movs	r2, #0
 3531 0008 1A60     		str	r2, [r3]
 3532              		.loc 1 817 5 is_stmt 1 view .LVU1101
 3533 000a FFF7FEBF 		b	chSchWakeupS
ARM GAS  /tmp/cc4ZUYx9.s 			page 63


 3534              	.LVL162:
 3535              	.L91:
 3536              		.loc 1 817 5 is_stmt 0 view .LVU1102
 3537              	.LBE876:
 3538              		.loc 1 819 1 view .LVU1103
 3539 000e 7047     		bx	lr
 3540              		.cfi_endproc
 3541              	.LFE267:
 3542              		.size	chThdResumeS, .-chThdResumeS
 3543              		.section	.text.chThdResume,"ax",%progbits
 3544              		.align	1
 3545              		.p2align 4,,15
 3546              		.global	chThdResume
 3547              		.syntax unified
 3548              		.thumb
 3549              		.thumb_func
 3550              		.fpu softvfp
 3551              		.type	chThdResume, %function
 3552              	chThdResume:
 3553              	.LVL163:
 3554              	.LFB268:
 3555              		.loc 1 831 54 is_stmt 1 view -0
 3556              		.cfi_startproc
 3557              		@ args = 0, pretend = 0, frame = 0
 3558              		@ frame_needed = 0, uses_anonymous_args = 0
 3559              		.loc 1 831 54 is_stmt 0 view .LVU1105
 3560 0000 08B5     		push	{r3, lr}
 3561              		.cfi_def_cfa_offset 8
 3562              		.cfi_offset 3, -8
 3563              		.cfi_offset 14, -4
 3564              	.LBB877:
 3565              	.LBB878:
 3566              	.LBB879:
 3567              	.LBB880:
 3568              		.loc 5 264 3 view .LVU1106
 3569 0002 2022     		movs	r2, #32
 3570              	.LBE880:
 3571              	.LBE879:
 3572              	.LBE878:
 3573              	.LBE877:
 3574              		.loc 1 831 54 view .LVU1107
 3575 0004 0346     		mov	r3, r0
 3576              		.loc 1 833 3 is_stmt 1 view .LVU1108
 3577              	.LBB885:
 3578              	.LBI877:
 3579              		.loc 3 374 20 view .LVU1109
 3580              	.LBE885:
 3581              		.loc 3 376 3 view .LVU1110
 3582              	.LBB886:
 3583              	.LBB883:
 3584              	.LBI878:
 3585              		.loc 4 594 20 view .LVU1111
 3586              	.LBE883:
 3587              	.LBE886:
 3588              		.loc 4 602 3 view .LVU1112
 3589              	.LVL164:
 3590              	.LBB887:
ARM GAS  /tmp/cc4ZUYx9.s 			page 64


 3591              	.LBB884:
 3592              	.LBB882:
 3593              	.LBI879:
 3594              		.loc 5 262 57 view .LVU1113
 3595              	.LBB881:
 3596              		.loc 5 264 3 view .LVU1114
 3597              		.syntax unified
 3598              	@ 264 "../../../os/common/ext/CMSIS/include/cmsis_gcc.h" 1
 3599 0006 82F31188 		MSR basepri, r2
 3600              	@ 0 "" 2
 3601              	.LVL165:
 3602              		.loc 5 264 3 is_stmt 0 view .LVU1115
 3603              		.thumb
 3604              		.syntax unified
 3605              	.LBE881:
 3606              	.LBE882:
 3607              	.LBE884:
 3608              	.LBE887:
 3609              		.loc 3 377 34 is_stmt 1 view .LVU1116
 3610              		.loc 3 378 20 view .LVU1117
 3611              		.loc 1 834 3 view .LVU1118
 3612              	.LBB888:
 3613              	.LBI888:
 3614              		.loc 1 809 6 view .LVU1119
 3615              	.LBB889:
 3616              		.loc 1 811 3 view .LVU1120
 3617              		.loc 1 811 7 is_stmt 0 view .LVU1121
 3618 000a 0068     		ldr	r0, [r0]
 3619              	.LVL166:
 3620              		.loc 1 811 6 view .LVU1122
 3621 000c 18B1     		cbz	r0, .L94
 3622              	.LBB890:
 3623              		.loc 1 812 5 is_stmt 1 view .LVU1123
 3624              	.LVL167:
 3625              		.loc 1 814 5 view .LVU1124
 3626              		.loc 1 814 5 view .LVU1125
 3627              		.loc 1 814 5 view .LVU1126
 3628              		.loc 1 816 5 view .LVU1127
 3629              		.loc 1 816 10 is_stmt 0 view .LVU1128
 3630 000e 0022     		movs	r2, #0
 3631 0010 1A60     		str	r2, [r3]
 3632              		.loc 1 817 5 is_stmt 1 view .LVU1129
 3633 0012 FFF7FEFF 		bl	chSchWakeupS
 3634              	.LVL168:
 3635              	.L94:
 3636              		.loc 1 817 5 is_stmt 0 view .LVU1130
 3637              	.LBE890:
 3638              	.LBE889:
 3639              	.LBE888:
 3640              		.loc 1 835 3 is_stmt 1 view .LVU1131
 3641              	.LBB891:
 3642              	.LBI891:
 3643              		.loc 3 386 20 view .LVU1132
 3644              	.LBB892:
 3645              		.loc 3 388 22 view .LVU1133
 3646              		.loc 3 389 33 view .LVU1134
 3647              		.loc 3 395 3 view .LVU1135
ARM GAS  /tmp/cc4ZUYx9.s 			page 65


 3648              		.loc 3 395 3 view .LVU1136
 3649              		.loc 3 395 3 view .LVU1137
 3650              		.loc 3 399 3 view .LVU1138
 3651              	.LBB893:
 3652              	.LBI893:
 3653              		.loc 4 618 20 view .LVU1139
 3654              	.LBE893:
 3655              	.LBE892:
 3656              	.LBE891:
 3657              		.loc 4 621 3 view .LVU1140
 3658              	.LBB898:
 3659              	.LBB897:
 3660              	.LBB896:
 3661              	.LBB894:
 3662              	.LBI894:
 3663              		.loc 5 262 57 view .LVU1141
 3664              	.LBB895:
 3665              		.loc 5 264 3 view .LVU1142
 3666 0016 0023     		movs	r3, #0
 3667              		.syntax unified
 3668              	@ 264 "../../../os/common/ext/CMSIS/include/cmsis_gcc.h" 1
 3669 0018 83F31188 		MSR basepri, r3
 3670              	@ 0 "" 2
 3671              	.LVL169:
 3672              		.loc 5 264 3 is_stmt 0 view .LVU1143
 3673              		.thumb
 3674              		.syntax unified
 3675              	.LBE895:
 3676              	.LBE894:
 3677              	.LBE896:
 3678              	.LBE897:
 3679              	.LBE898:
 3680              		.loc 1 836 1 view .LVU1144
 3681 001c 08BD     		pop	{r3, pc}
 3682              		.cfi_endproc
 3683              	.LFE268:
 3684              		.size	chThdResume, .-chThdResume
 3685 001e 00BF     		.section	.text.chThdEnqueueTimeoutS,"ax",%progbits
 3686              		.align	1
 3687              		.p2align 4,,15
 3688              		.global	chThdEnqueueTimeoutS
 3689              		.syntax unified
 3690              		.thumb
 3691              		.thumb_func
 3692              		.fpu softvfp
 3693              		.type	chThdEnqueueTimeoutS, %function
 3694              	chThdEnqueueTimeoutS:
 3695              	.LVL170:
 3696              	.LFB269:
 3697              		.loc 1 861 69 is_stmt 1 view -0
 3698              		.cfi_startproc
 3699              		@ args = 0, pretend = 0, frame = 0
 3700              		@ frame_needed = 0, uses_anonymous_args = 0
 3701              		@ link register save eliminated.
 3702              		.loc 1 863 3 view .LVU1146
 3703              		.loc 1 863 6 is_stmt 0 view .LVU1147
 3704 0000 61B1     		cbz	r1, .L100
ARM GAS  /tmp/cc4ZUYx9.s 			page 66


 3705              		.loc 1 867 3 view .LVU1148
 3706 0002 084A     		ldr	r2, .L104
 3707              		.loc 1 861 69 view .LVU1149
 3708 0004 10B4     		push	{r4}
 3709              		.cfi_def_cfa_offset 4
 3710              		.cfi_offset 4, -4
 3711              		.loc 1 867 3 view .LVU1150
 3712 0006 9269     		ldr	r2, [r2, #24]
 3713              	.LBB899:
 3714              	.LBB900:
 3715              		.loc 2 612 35 view .LVU1151
 3716 0008 4468     		ldr	r4, [r0, #4]
 3717 000a 0346     		mov	r3, r0
 3718              	.LBE900:
 3719              	.LBE899:
 3720              		.loc 1 867 3 is_stmt 1 view .LVU1152
 3721              	.LVL171:
 3722              	.LBB904:
 3723              	.LBI899:
 3724              		.loc 2 609 20 view .LVU1153
 3725              	.LBB901:
 3726              		.loc 2 611 3 view .LVU1154
 3727              		.loc 2 612 30 is_stmt 0 view .LVU1155
 3728 000c C2E90034 		strd	r3, r4, [r2]
 3729              		.loc 2 613 3 is_stmt 1 view .LVU1156
 3730              	.LBE901:
 3731              	.LBE904:
 3732              		.loc 1 869 10 is_stmt 0 view .LVU1157
 3733 0010 0420     		movs	r0, #4
 3734              	.LVL172:
 3735              	.LBB905:
 3736              	.LBB902:
 3737              		.loc 2 613 30 view .LVU1158
 3738 0012 2260     		str	r2, [r4]
 3739              		.loc 2 614 3 is_stmt 1 view .LVU1159
 3740              	.LBE902:
 3741              	.LBE905:
 3742              		.loc 1 870 1 is_stmt 0 view .LVU1160
 3743 0014 10BC     		pop	{r4}
 3744              		.cfi_restore 4
 3745              		.cfi_def_cfa_offset 0
 3746              	.LBB906:
 3747              	.LBB903:
 3748              		.loc 2 614 30 view .LVU1161
 3749 0016 5A60     		str	r2, [r3, #4]
 3750              	.LVL173:
 3751              		.loc 2 614 30 view .LVU1162
 3752              	.LBE903:
 3753              	.LBE906:
 3754              		.loc 1 869 3 is_stmt 1 view .LVU1163
 3755              		.loc 1 869 10 is_stmt 0 view .LVU1164
 3756 0018 FFF7FEBF 		b	chSchGoSleepTimeoutS
 3757              	.LVL174:
 3758              	.L100:
 3759              		.loc 1 870 1 view .LVU1165
 3760 001c 4FF0FF30 		mov	r0, #-1
 3761              	.LVL175:
ARM GAS  /tmp/cc4ZUYx9.s 			page 67


 3762              		.loc 1 870 1 view .LVU1166
 3763 0020 7047     		bx	lr
 3764              	.L105:
 3765 0022 00BF     		.align	2
 3766              	.L104:
 3767 0024 00000000 		.word	ch
 3768              		.cfi_endproc
 3769              	.LFE269:
 3770              		.size	chThdEnqueueTimeoutS, .-chThdEnqueueTimeoutS
 3771              		.section	.text.chThdDequeueNextI,"ax",%progbits
 3772              		.align	1
 3773              		.p2align 4,,15
 3774              		.global	chThdDequeueNextI
 3775              		.syntax unified
 3776              		.thumb
 3777              		.thumb_func
 3778              		.fpu softvfp
 3779              		.type	chThdDequeueNextI, %function
 3780              	chThdDequeueNextI:
 3781              	.LVL176:
 3782              	.LFB270:
 3783              		.loc 1 881 57 is_stmt 1 view -0
 3784              		.cfi_startproc
 3785              		@ args = 0, pretend = 0, frame = 0
 3786              		@ frame_needed = 0, uses_anonymous_args = 0
 3787              		@ link register save eliminated.
 3788              		.loc 1 883 3 view .LVU1168
 3789              		.loc 1 881 57 is_stmt 0 view .LVU1169
 3790 0000 0346     		mov	r3, r0
 3791              	.LVL177:
 3792              	.LBB907:
 3793              	.LBI907:
 3794              		.loc 2 575 20 is_stmt 1 view .LVU1170
 3795              	.LBB908:
 3796              		.loc 2 577 3 view .LVU1171
 3797              		.loc 2 577 20 is_stmt 0 view .LVU1172
 3798 0002 0068     		ldr	r0, [r0]
 3799              	.LVL178:
 3800              		.loc 2 577 20 view .LVU1173
 3801              	.LBE908:
 3802              	.LBE907:
 3803              		.loc 1 883 6 view .LVU1174
 3804 0004 8342     		cmp	r3, r0
 3805 0006 05D0     		beq	.L106
 3806              		.loc 1 884 5 is_stmt 1 view .LVU1175
 3807              	.LVL179:
 3808              	.LBB909:
 3809              	.LBI909:
 3810              		.loc 6 437 20 view .LVU1176
 3811              	.LBB910:
 3812              		.loc 6 438 3 view .LVU1177
 3813              		.loc 6 440 3 view .LVU1178
 3814              		.loc 6 440 3 view .LVU1179
 3815              		.loc 6 440 3 view .LVU1180
 3816              		.loc 6 442 3 view .LVU1181
 3817              	.LBB911:
 3818              	.LBI911:
ARM GAS  /tmp/cc4ZUYx9.s 			page 68


 3819              		.loc 2 617 25 view .LVU1182
 3820              	.LBB912:
 3821              		.loc 2 618 3 view .LVU1183
 3822              		.loc 2 620 3 view .LVU1184
 3823              		.loc 2 620 36 is_stmt 0 view .LVU1185
 3824 0008 0268     		ldr	r2, [r0]
 3825              		.loc 2 620 25 view .LVU1186
 3826 000a 1A60     		str	r2, [r3]
 3827              		.loc 2 621 3 is_stmt 1 view .LVU1187
 3828              		.loc 2 621 25 is_stmt 0 view .LVU1188
 3829 000c 5360     		str	r3, [r2, #4]
 3830              		.loc 2 623 3 is_stmt 1 view .LVU1189
 3831              	.LVL180:
 3832              		.loc 2 623 3 is_stmt 0 view .LVU1190
 3833              	.LBE912:
 3834              	.LBE911:
 3835              		.loc 6 444 3 is_stmt 1 view .LVU1191
 3836              		.loc 6 444 3 view .LVU1192
 3837              		.loc 6 444 3 view .LVU1193
 3838              		.loc 6 446 3 view .LVU1194
 3839              		.loc 6 446 16 is_stmt 0 view .LVU1195
 3840 000e 4162     		str	r1, [r0, #36]
 3841              		.loc 6 447 3 is_stmt 1 view .LVU1196
 3842              		.loc 6 447 10 is_stmt 0 view .LVU1197
 3843 0010 FFF7FEBF 		b	chSchReadyI
 3844              	.LVL181:
 3845              	.L106:
 3846              		.loc 6 447 10 view .LVU1198
 3847              	.LBE910:
 3848              	.LBE909:
 3849              		.loc 1 886 1 view .LVU1199
 3850 0014 7047     		bx	lr
 3851              		.cfi_endproc
 3852              	.LFE270:
 3853              		.size	chThdDequeueNextI, .-chThdDequeueNextI
 3854 0016 00BF     		.section	.text.chThdDequeueAllI,"ax",%progbits
 3855              		.align	1
 3856              		.p2align 4,,15
 3857              		.global	chThdDequeueAllI
 3858              		.syntax unified
 3859              		.thumb
 3860              		.thumb_func
 3861              		.fpu softvfp
 3862              		.type	chThdDequeueAllI, %function
 3863              	chThdDequeueAllI:
 3864              	.LVL182:
 3865              	.LFB271:
 3866              		.loc 1 896 56 is_stmt 1 view -0
 3867              		.cfi_startproc
 3868              		@ args = 0, pretend = 0, frame = 0
 3869              		@ frame_needed = 0, uses_anonymous_args = 0
 3870              		.loc 1 898 3 view .LVU1201
 3871              		.loc 1 898 9 view .LVU1202
 3872              		.loc 1 896 56 is_stmt 0 view .LVU1203
 3873 0000 38B5     		push	{r3, r4, r5, lr}
 3874              		.cfi_def_cfa_offset 16
 3875              		.cfi_offset 3, -16
ARM GAS  /tmp/cc4ZUYx9.s 			page 69


 3876              		.cfi_offset 4, -12
 3877              		.cfi_offset 5, -8
 3878              		.cfi_offset 14, -4
 3879              		.loc 1 896 56 view .LVU1204
 3880 0002 0446     		mov	r4, r0
 3881              	.LVL183:
 3882              	.LBB913:
 3883              	.LBI913:
 3884              		.loc 2 575 20 is_stmt 1 view .LVU1205
 3885              	.LBB914:
 3886              		.loc 2 577 3 view .LVU1206
 3887              		.loc 2 577 20 is_stmt 0 view .LVU1207
 3888 0004 0068     		ldr	r0, [r0]
 3889              	.LVL184:
 3890              		.loc 2 577 20 view .LVU1208
 3891              	.LBE914:
 3892              	.LBE913:
 3893              		.loc 1 898 9 view .LVU1209
 3894 0006 8442     		cmp	r4, r0
 3895 0008 09D0     		beq	.L108
 3896 000a 0D46     		mov	r5, r1
 3897              	.LVL185:
 3898              	.L110:
 3899              		.loc 1 899 5 is_stmt 1 view .LVU1210
 3900              	.LBB916:
 3901              	.LBI916:
 3902              		.loc 6 437 20 view .LVU1211
 3903              	.LBB917:
 3904              		.loc 6 438 3 view .LVU1212
 3905              		.loc 6 440 3 view .LVU1213
 3906              		.loc 6 440 3 view .LVU1214
 3907              		.loc 6 440 3 view .LVU1215
 3908              		.loc 6 442 3 view .LVU1216
 3909              	.LBB918:
 3910              	.LBI918:
 3911              		.loc 2 617 25 view .LVU1217
 3912              	.LBB919:
 3913              		.loc 2 618 3 view .LVU1218
 3914              		.loc 2 620 3 view .LVU1219
 3915              		.loc 2 620 36 is_stmt 0 view .LVU1220
 3916 000c 0368     		ldr	r3, [r0]
 3917              		.loc 2 620 25 view .LVU1221
 3918 000e 2360     		str	r3, [r4]
 3919              		.loc 2 621 3 is_stmt 1 view .LVU1222
 3920              		.loc 2 621 25 is_stmt 0 view .LVU1223
 3921 0010 5C60     		str	r4, [r3, #4]
 3922              		.loc 2 623 3 is_stmt 1 view .LVU1224
 3923              	.LVL186:
 3924              		.loc 2 623 3 is_stmt 0 view .LVU1225
 3925              	.LBE919:
 3926              	.LBE918:
 3927              		.loc 6 444 3 is_stmt 1 view .LVU1226
 3928              		.loc 6 444 3 view .LVU1227
 3929              		.loc 6 444 3 view .LVU1228
 3930              		.loc 6 446 3 view .LVU1229
 3931              		.loc 6 446 16 is_stmt 0 view .LVU1230
 3932 0012 4562     		str	r5, [r0, #36]
ARM GAS  /tmp/cc4ZUYx9.s 			page 70


 3933              		.loc 6 447 3 is_stmt 1 view .LVU1231
 3934              		.loc 6 447 10 is_stmt 0 view .LVU1232
 3935 0014 FFF7FEFF 		bl	chSchReadyI
 3936              	.LVL187:
 3937              		.loc 6 447 10 view .LVU1233
 3938              	.LBE917:
 3939              	.LBE916:
 3940              		.loc 1 898 9 is_stmt 1 view .LVU1234
 3941              	.LBB920:
 3942              		.loc 2 575 20 view .LVU1235
 3943              	.LBB915:
 3944              		.loc 2 577 3 view .LVU1236
 3945              		.loc 2 577 20 is_stmt 0 view .LVU1237
 3946 0018 2068     		ldr	r0, [r4]
 3947              	.LVL188:
 3948              		.loc 2 577 20 view .LVU1238
 3949              	.LBE915:
 3950              	.LBE920:
 3951              		.loc 1 898 9 view .LVU1239
 3952 001a 8442     		cmp	r4, r0
 3953 001c F6D1     		bne	.L110
 3954              	.LVL189:
 3955              	.L108:
 3956              		.loc 1 901 1 view .LVU1240
 3957 001e 38BD     		pop	{r3, r4, r5, pc}
 3958              		.loc 1 901 1 view .LVU1241
 3959              		.cfi_endproc
 3960              	.LFE271:
 3961              		.size	chThdDequeueAllI, .-chThdDequeueAllI
 3962              		.text
 3963              	.Letext0:
 3964              		.file 10 "/usr/lib/gcc/arm-none-eabi/10.3.1/include/stddef.h"
 3965              		.file 11 "/usr/lib/gcc/arm-none-eabi/10.3.1/include/stdint.h"
 3966              		.file 12 "../../../os/common/ports/ARMCMx/compilers/GCC/chtypes.h"
 3967              		.file 13 "../../../os/rt/include/chsystypes.h"
 3968              		.file 14 "../../../os/common/ports/ARMCMx/chcore.h"
 3969              		.file 15 "../../../os/hal/ports/STM32/LLD/TIMv1/stm32_tim.h"
 3970              		.file 16 "../../../os/rt/include/chtm.h"
 3971              		.file 17 "../../../os/rt/include/chsem.h"
 3972              		.file 18 "../../../os/rt/include/chmtx.h"
 3973              		.file 19 "../../../os/common/oslib/include/chmempools.h"
 3974              		.file 20 "../../../os/common/oslib/include/chheap.h"