ARM GAS  /tmp/cc4ZUYx9.s 			page 1


   1              		.cpu cortex-m4
   2              		.eabi_attribute 20, 1
   3              		.eabi_attribute 21, 1
   4              		.eabi_attribute 23, 3
   5              		.eabi_attribute 24, 1
   6              		.eabi_attribute 25, 1
   7              		.eabi_attribute 26, 1
   8              		.eabi_attribute 30, 2
   9              		.eabi_attribute 34, 1
  10              		.eabi_attribute 18, 4
  11              		.file	"chthreads.c"
  12              		.text
  13              	.Ltext0:
  14              		.cfi_sections	.debug_frame
  15              		.section	.text._thread_init,"ax",%progbits
  16              		.align	1
  17              		.p2align 4,,15
  18              		.global	_thread_init
  19              		.arch armv7e-m
  20              		.syntax unified
  21              		.thumb
  22              		.thumb_func
  23              		.fpu softvfp
  24              		.type	_thread_init, %function
  25              	_thread_init:
  26              	.LVL0:
  27              	.LFB246:
  28              		.file 1 "../../../os/rt/src/chthreads.c"
  29              		.loc 1 88 70 view -0
  30              		.cfi_startproc
  31              		@ args = 0, pretend = 0, frame = 0
  32              		@ frame_needed = 0, uses_anonymous_args = 0
  33              		@ link register save eliminated.
  34              		.loc 1 90 3 view .LVU1
  35              		.loc 1 88 70 is_stmt 0 view .LVU2
  36 0000 10B4     		push	{r4}
  37              		.cfi_def_cfa_offset 4
  38              		.cfi_offset 4, -4
  39              		.loc 1 98 17 view .LVU3
  40 0002 0024     		movs	r4, #0
  41              		.loc 1 108 17 view .LVU4
  42 0004 8161     		str	r1, [r0, #24]
  43              		.loc 1 109 3 view .LVU5
  44 0006 0C49     		ldr	r1, .L4
  45              	.LVL1:
  46              		.loc 1 90 17 view .LVU6
  47 0008 8260     		str	r2, [r0, #8]
  48              		.loc 1 91 3 is_stmt 1 view .LVU7
  49              		.loc 1 92 3 view .LVU8
  50              		.loc 1 97 3 view .LVU9
  51              		.loc 1 98 17 is_stmt 0 view .LVU10
  52 000a C0E90E42 		strd	r4, r2, [r0, #56]
  53              		.loc 1 101 3 is_stmt 1 view .LVU11
  54              		.loc 1 107 17 is_stmt 0 view .LVU12
  55 000e 0122     		movs	r2, #1
  56              	.LVL2:
  57              		.loc 1 107 17 view .LVU13
ARM GAS  /tmp/cc4ZUYx9.s 			page 2


  58 0010 80F82220 		strb	r2, [r0, #34]
  59              		.loc 1 109 3 view .LVU14
  60 0014 4A69     		ldr	r2, [r1, #20]
  61              		.loc 1 101 17 view .LVU15
  62 0016 4463     		str	r4, [r0, #52]
  63              		.loc 1 107 3 is_stmt 1 view .LVU16
  64              		.loc 1 108 3 view .LVU17
  65              		.loc 1 109 3 view .LVU18
  66              		.loc 1 109 3 view .LVU19
  67              		.loc 1 91 17 is_stmt 0 view .LVU20
  68 0018 0224     		movs	r4, #2
  69              		.loc 1 109 3 view .LVU21
  70 001a 4261     		str	r2, [r0, #20]
  71              		.loc 1 109 3 is_stmt 1 view .LVU22
  72 001c 0161     		str	r1, [r0, #16]
  73              		.loc 1 91 17 is_stmt 0 view .LVU23
  74 001e 0484     		strh	r4, [r0, #32]	@ movhi
  75              		.loc 1 109 3 view .LVU24
  76 0020 1061     		str	r0, [r2, #16]
  77              		.loc 1 109 3 is_stmt 1 view .LVU25
  78              		.loc 1 114 3 is_stmt 0 view .LVU26
  79 0022 00F12804 		add	r4, r0, #40
  80              		.loc 1 117 3 view .LVU27
  81 0026 00F12C02 		add	r2, r0, #44
  82              	.LBB259:
  83              	.LBB260:
  84              		.file 2 "../../../os/rt/include/chschd.h"
  85              		.loc 2 550 13 view .LVU28
  86 002a C0E90A42 		strd	r4, r2, [r0, #40]
  87              	.LBE260:
  88              	.LBE259:
  89              		.loc 1 109 3 view .LVU29
  90 002e 4861     		str	r0, [r1, #20]
  91              		.loc 1 109 17 is_stmt 1 view .LVU30
  92              		.loc 1 114 3 view .LVU31
  93              	.LVL3:
  94              	.LBB263:
  95              	.LBI263:
  96              		.loc 2 510 20 view .LVU32
  97              	.LBB264:
  98              		.loc 2 512 3 view .LVU33
  99              	.LBE264:
 100              	.LBE263:
 101              	.LBB265:
 102              	.LBB261:
 103              		.loc 2 551 3 view .LVU34
 104              	.LBE261:
 105              	.LBE265:
 106              		.loc 1 124 1 is_stmt 0 view .LVU35
 107 0030 10BC     		pop	{r4}
 108              		.cfi_restore 4
 109              		.cfi_def_cfa_offset 0
 110              	.LVL4:
 111              	.LBB266:
 112              	.LBB262:
 113              		.loc 2 551 13 view .LVU36
 114 0032 0263     		str	r2, [r0, #48]
ARM GAS  /tmp/cc4ZUYx9.s 			page 3


 115              	.LBE262:
 116              	.LBE266:
 117              		.loc 1 122 3 is_stmt 1 view .LVU37
 118              		.loc 1 122 30 view .LVU38
 119              		.loc 1 123 3 view .LVU39
 120              		.loc 1 124 1 is_stmt 0 view .LVU40
 121 0034 7047     		bx	lr
 122              	.L5:
 123 0036 00BF     		.align	2
 124              	.L4:
 125 0038 00000000 		.word	ch
 126              		.cfi_endproc
 127              	.LFE246:
 128              		.size	_thread_init, .-_thread_init
 129              		.section	.text.chThdCreateSuspendedI,"ax",%progbits
 130              		.align	1
 131              		.p2align 4,,15
 132              		.global	chThdCreateSuspendedI
 133              		.syntax unified
 134              		.thumb
 135              		.thumb_func
 136              		.fpu softvfp
 137              		.type	chThdCreateSuspendedI, %function
 138              	chThdCreateSuspendedI:
 139              	.LVL5:
 140              	.LFB247:
 141              		.loc 1 167 65 is_stmt 1 view -0
 142              		.cfi_startproc
 143              		@ args = 0, pretend = 0, frame = 0
 144              		@ frame_needed = 0, uses_anonymous_args = 0
 145              		@ link register save eliminated.
 146              		.loc 1 168 3 view .LVU42
 147              		.loc 1 170 21 view .LVU43
 148              		.loc 1 171 3 view .LVU44
 149              		.loc 1 171 3 view .LVU45
 150              		.loc 1 171 3 view .LVU46
 151              		.loc 1 172 3 view .LVU47
 152              		.loc 1 172 3 view .LVU48
 153              		.loc 1 172 3 view .LVU49
 154              		.loc 1 176 3 view .LVU50
 155              		.loc 1 176 3 view .LVU51
 156              		.loc 1 176 3 view .LVU52
 157              		.loc 1 181 3 view .LVU53
 158              		.loc 1 186 14 is_stmt 0 view .LVU54
 159 0000 D0E90113 		ldrd	r1, r3, [r0, #4]
 160              		.loc 1 167 65 view .LVU55
 161 0004 0246     		mov	r2, r0
 162 0006 F0B4     		push	{r4, r5, r6, r7}
 163              		.cfi_def_cfa_offset 16
 164              		.cfi_offset 4, -16
 165              		.cfi_offset 5, -12
 166              		.cfi_offset 6, -8
 167              		.cfi_offset 7, -4
 168              		.loc 1 190 3 view .LVU56
 169 0008 5569     		ldr	r5, [r2, #20]
 170 000a 0069     		ldr	r0, [r0, #16]
 171              	.LVL6:
ARM GAS  /tmp/cc4ZUYx9.s 			page 4


 172              		.loc 1 186 14 view .LVU57
 173 000c 43F82C1C 		str	r1, [r3, #-44]
 174              	.LBB273:
 175              	.LBB274:
 176              		.loc 1 92 17 view .LVU58
 177 0010 0024     		movs	r4, #0
 178              		.loc 1 109 3 view .LVU59
 179 0012 1849     		ldr	r1, .L8
 180              	.LBE274:
 181              	.LBE273:
 182              		.loc 1 190 3 view .LVU60
 183 0014 43F8685C 		str	r5, [r3, #-104]
 184              	.LBB286:
 185              	.LBB279:
 186              		.loc 1 107 17 view .LVU61
 187 0018 0126     		movs	r6, #1
 188              	.LBE279:
 189              	.LBE286:
 190              		.loc 1 193 10 view .LVU62
 191 001a 1568     		ldr	r5, [r2]
 192 001c D268     		ldr	r2, [r2, #12]
 193              	.LVL7:
 194              	.LBB287:
 195              	.LBB280:
 196              		.loc 1 107 17 view .LVU63
 197 001e 03F8266C 		strb	r6, [r3, #-38]
 198              		.loc 1 91 17 view .LVU64
 199 0022 4FF0020C 		mov	ip, #2
 200 0026 03F828CC 		strb	ip, [r3, #-40]
 201              		.loc 1 92 17 view .LVU65
 202 002a 03F8274C 		strb	r4, [r3, #-39]
 203              		.loc 1 98 17 view .LVU66
 204 002e 43E90442 		strd	r4, r2, [r3, #-16]
 205              		.loc 1 101 17 view .LVU67
 206 0032 43F8144C 		str	r4, [r3, #-20]
 207              		.loc 1 109 3 view .LVU68
 208 0036 4C69     		ldr	r4, [r1, #20]
 209              	.LBE280:
 210              	.LBE287:
 211              		.loc 1 190 3 view .LVU69
 212 0038 43F86C0C 		str	r0, [r3, #-108]
 213              	.LBB288:
 214              	.LBB281:
 215              		.loc 1 108 17 view .LVU70
 216 003c 43F8305C 		str	r5, [r3, #-48]
 217              	.LBE281:
 218              	.LBE288:
 219              		.loc 1 181 6 view .LVU71
 220 0040 A3F14800 		sub	r0, r3, #72
 221              	.LVL8:
 222              		.loc 1 186 3 is_stmt 1 view .LVU72
 223              		.loc 1 190 3 view .LVU73
 224              	.LBB289:
 225              	.LBB282:
 226              		.loc 1 90 17 is_stmt 0 view .LVU74
 227 0044 43F8402C 		str	r2, [r3, #-64]
 228              	.LBE282:
ARM GAS  /tmp/cc4ZUYx9.s 			page 5


 229              	.LBE289:
 230              		.loc 1 190 3 view .LVU75
 231 0048 0B4F     		ldr	r7, .L8+4
 232 004a 43F84C7C 		str	r7, [r3, #-76]
 233              	.LBB290:
 234              	.LBB283:
 235              		.loc 1 114 3 view .LVU76
 236 004e A3F12005 		sub	r5, r3, #32
 237              		.loc 1 117 3 view .LVU77
 238 0052 A3F11C02 		sub	r2, r3, #28
 239              	.LBE283:
 240              	.LBE290:
 241              		.loc 1 190 3 view .LVU78
 242 0056 A3F16C06 		sub	r6, r3, #108
 243              	.LBB291:
 244              	.LBB284:
 245              		.loc 1 109 3 view .LVU79
 246 005a 43E90E14 		strd	r1, r4, [r3, #-56]
 247              	.LBE284:
 248              	.LBE291:
 249              		.loc 1 190 3 view .LVU80
 250 005e 43F83C6C 		str	r6, [r3, #-60]
 251              		.loc 1 190 3 is_stmt 1 view .LVU81
 252              		.loc 1 190 3 view .LVU82
 253              		.loc 1 190 3 view .LVU83
 254              		.loc 1 190 63 view .LVU84
 255              		.loc 1 193 3 view .LVU85
 256              	.LVL9:
 257              	.LBB292:
 258              	.LBI273:
 259              		.loc 1 88 11 view .LVU86
 260              	.LBB285:
 261              		.loc 1 90 3 view .LVU87
 262              		.loc 1 91 3 view .LVU88
 263              		.loc 1 92 3 view .LVU89
 264              		.loc 1 97 3 view .LVU90
 265              		.loc 1 98 3 view .LVU91
 266              		.loc 1 101 3 view .LVU92
 267              		.loc 1 107 3 view .LVU93
 268              		.loc 1 108 3 view .LVU94
 269              		.loc 1 109 3 view .LVU95
 270              		.loc 1 109 3 view .LVU96
 271              		.loc 1 109 3 view .LVU97
 272 0062 2061     		str	r0, [r4, #16]
 273              		.loc 1 109 3 view .LVU98
 274 0064 4861     		str	r0, [r1, #20]
 275              		.loc 1 109 17 view .LVU99
 276              		.loc 1 114 3 view .LVU100
 277              	.LVL10:
 278              	.LBB275:
 279              	.LBI275:
 280              		.loc 2 510 20 view .LVU101
 281              	.LBB276:
 282              		.loc 2 512 3 view .LVU102
 283              	.LBE276:
 284              	.LBE275:
 285              	.LBB277:
ARM GAS  /tmp/cc4ZUYx9.s 			page 6


 286              	.LBB278:
 287              		.loc 2 550 13 is_stmt 0 view .LVU103
 288 0066 43E90852 		strd	r5, r2, [r3, #-32]
 289              		.loc 2 551 3 is_stmt 1 view .LVU104
 290              		.loc 2 551 13 is_stmt 0 view .LVU105
 291 006a 43F8182C 		str	r2, [r3, #-24]
 292              	.LBE278:
 293              	.LBE277:
 294              		.loc 1 122 3 is_stmt 1 view .LVU106
 295              		.loc 1 122 30 view .LVU107
 296              		.loc 1 123 3 view .LVU108
 297              	.LVL11:
 298              		.loc 1 123 3 is_stmt 0 view .LVU109
 299              	.LBE285:
 300              	.LBE292:
 301              		.loc 1 194 1 view .LVU110
 302 006e F0BC     		pop	{r4, r5, r6, r7}
 303              		.cfi_restore 7
 304              		.cfi_restore 6
 305              		.cfi_restore 5
 306              		.cfi_restore 4
 307              		.cfi_def_cfa_offset 0
 308              	.LVL12:
 309              		.loc 1 194 1 view .LVU111
 310 0070 7047     		bx	lr
 311              	.L9:
 312 0072 00BF     		.align	2
 313              	.L8:
 314 0074 00000000 		.word	ch
 315 0078 00000000 		.word	_port_thread_start
 316              		.cfi_endproc
 317              	.LFE247:
 318              		.size	chThdCreateSuspendedI, .-chThdCreateSuspendedI
 319              		.section	.text.chThdCreateSuspended,"ax",%progbits
 320              		.align	1
 321              		.p2align 4,,15
 322              		.global	chThdCreateSuspended
 323              		.syntax unified
 324              		.thumb
 325              		.thumb_func
 326              		.fpu softvfp
 327              		.type	chThdCreateSuspended, %function
 328              	chThdCreateSuspended:
 329              	.LVL13:
 330              	.LFB248:
 331              		.loc 1 216 64 is_stmt 1 view -0
 332              		.cfi_startproc
 333              		@ args = 0, pretend = 0, frame = 0
 334              		@ frame_needed = 0, uses_anonymous_args = 0
 335              		@ link register save eliminated.
 336              		.loc 1 217 3 view .LVU113
 337              		.loc 1 220 3 view .LVU114
 338              		.loc 1 220 3 view .LVU115
 339              		.loc 1 220 3 view .LVU116
 340              		.loc 1 230 3 view .LVU117
 341              	.LBB310:
 342              	.LBI310:
ARM GAS  /tmp/cc4ZUYx9.s 			page 7


 343              		.file 3 "../../../os/rt/include/chsys.h"
 344              		.loc 3 374 20 view .LVU118
 345              	.LBE310:
 346              		.loc 3 376 3 view .LVU119
 347              	.LBB318:
 348              	.LBB311:
 349              	.LBI311:
 350              		.file 4 "../../../os/common/ports/ARMCMx/chcore_v7m.h"
 351              		.loc 4 594 20 view .LVU120
 352              	.LBE311:
 353              	.LBE318:
 354              		.loc 4 602 3 view .LVU121
 355              	.LBB319:
 356              	.LBB316:
 357              	.LBB312:
 358              	.LBI312:
 359              		.file 5 "../../../os/common/ext/CMSIS/include/cmsis_gcc.h"
 360              		.loc 5 262 57 view .LVU122
 361              	.LBB313:
 362              		.loc 5 264 3 view .LVU123
 363              	.LBE313:
 364              	.LBE312:
 365              	.LBE316:
 366              	.LBE319:
 367              		.loc 1 216 64 is_stmt 0 view .LVU124
 368 0000 70B4     		push	{r4, r5, r6}
 369              		.cfi_def_cfa_offset 12
 370              		.cfi_offset 4, -12
 371              		.cfi_offset 5, -8
 372              		.cfi_offset 6, -4
 373              		.loc 1 216 64 view .LVU125
 374 0002 0246     		mov	r2, r0
 375              	.LBB320:
 376              	.LBB317:
 377              	.LBB315:
 378              	.LBB314:
 379              		.loc 5 264 3 view .LVU126
 380 0004 2023     		movs	r3, #32
 381              		.syntax unified
 382              	@ 264 "../../../os/common/ext/CMSIS/include/cmsis_gcc.h" 1
 383 0006 83F31188 		MSR basepri, r3
 384              	@ 0 "" 2
 385              	.LVL14:
 386              		.loc 5 264 3 view .LVU127
 387              		.thumb
 388              		.syntax unified
 389              	.LBE314:
 390              	.LBE315:
 391              	.LBE317:
 392              	.LBE320:
 393              		.loc 3 377 34 is_stmt 1 view .LVU128
 394              		.loc 3 378 20 view .LVU129
 395              		.loc 1 231 3 view .LVU130
 396              	.LBB321:
 397              	.LBI321:
 398              		.loc 1 167 11 view .LVU131
 399              	.LBB322:
ARM GAS  /tmp/cc4ZUYx9.s 			page 8


 400              		.loc 1 168 3 view .LVU132
 401              		.loc 1 170 21 view .LVU133
 402              		.loc 1 171 3 view .LVU134
 403              		.loc 1 171 3 view .LVU135
 404              		.loc 1 171 3 view .LVU136
 405              		.loc 1 172 3 view .LVU137
 406              		.loc 1 172 3 view .LVU138
 407              		.loc 1 172 3 view .LVU139
 408              		.loc 1 176 3 view .LVU140
 409              		.loc 1 176 3 view .LVU141
 410              		.loc 1 176 3 view .LVU142
 411              		.loc 1 181 3 view .LVU143
 412              		.loc 1 186 14 is_stmt 0 view .LVU144
 413 000a D0E90143 		ldrd	r4, r3, [r0, #4]
 414              		.loc 1 190 3 view .LVU145
 415 000e 5569     		ldr	r5, [r2, #20]
 416 0010 0069     		ldr	r0, [r0, #16]
 417              	.LVL15:
 418              		.loc 1 186 14 view .LVU146
 419 0012 43F82C4C 		str	r4, [r3, #-44]
 420              	.LBB323:
 421              	.LBB324:
 422              		.loc 1 92 17 view .LVU147
 423 0016 0021     		movs	r1, #0
 424              		.loc 1 109 3 view .LVU148
 425 0018 194C     		ldr	r4, .L12
 426              	.LBE324:
 427              	.LBE323:
 428              		.loc 1 190 3 view .LVU149
 429 001a 43F8685C 		str	r5, [r3, #-104]
 430              	.LBB334:
 431              	.LBB329:
 432              		.loc 1 91 17 view .LVU150
 433 001e 4FF0020C 		mov	ip, #2
 434              		.loc 1 107 17 view .LVU151
 435 0022 0126     		movs	r6, #1
 436              	.LBE329:
 437              	.LBE334:
 438              		.loc 1 193 10 view .LVU152
 439 0024 1568     		ldr	r5, [r2]
 440 0026 D268     		ldr	r2, [r2, #12]
 441              	.LVL16:
 442              	.LBB335:
 443              	.LBB330:
 444              		.loc 1 107 17 view .LVU153
 445 0028 03F8266C 		strb	r6, [r3, #-38]
 446              		.loc 1 91 17 view .LVU154
 447 002c 03F828CC 		strb	ip, [r3, #-40]
 448              		.loc 1 92 17 view .LVU155
 449 0030 03F8271C 		strb	r1, [r3, #-39]
 450              		.loc 1 108 17 view .LVU156
 451 0034 43F8305C 		str	r5, [r3, #-48]
 452              	.LBE330:
 453              	.LBE335:
 454              		.loc 1 190 3 view .LVU157
 455 0038 124E     		ldr	r6, .L12+4
 456              	.LBB336:
ARM GAS  /tmp/cc4ZUYx9.s 			page 9


 457              	.LBB331:
 458              		.loc 1 109 3 view .LVU158
 459 003a 6569     		ldr	r5, [r4, #20]
 460              	.LBE331:
 461              	.LBE336:
 462              		.loc 1 190 3 view .LVU159
 463 003c 43F86C0C 		str	r0, [r3, #-108]
 464 0040 43F84C6C 		str	r6, [r3, #-76]
 465              		.loc 1 181 6 view .LVU160
 466 0044 A3F14800 		sub	r0, r3, #72
 467              	.LVL17:
 468              		.loc 1 186 3 is_stmt 1 view .LVU161
 469              		.loc 1 190 3 view .LVU162
 470 0048 A3F16C06 		sub	r6, r3, #108
 471              	.LBB337:
 472              	.LBB332:
 473              		.loc 1 98 17 is_stmt 0 view .LVU163
 474 004c 43E90412 		strd	r1, r2, [r3, #-16]
 475              		.loc 1 90 17 view .LVU164
 476 0050 43F8402C 		str	r2, [r3, #-64]
 477              		.loc 1 109 3 view .LVU165
 478 0054 43F8384C 		str	r4, [r3, #-56]
 479              		.loc 1 101 17 view .LVU166
 480 0058 43F8141C 		str	r1, [r3, #-20]
 481              		.loc 1 109 3 view .LVU167
 482 005c 43F8345C 		str	r5, [r3, #-52]
 483              		.loc 1 117 3 view .LVU168
 484 0060 A3F11C02 		sub	r2, r3, #28
 485              	.LBE332:
 486              	.LBE337:
 487              		.loc 1 190 3 view .LVU169
 488 0064 43F83C6C 		str	r6, [r3, #-60]
 489              		.loc 1 190 3 is_stmt 1 view .LVU170
 490              		.loc 1 190 3 view .LVU171
 491              		.loc 1 190 3 view .LVU172
 492              		.loc 1 190 63 view .LVU173
 493              		.loc 1 193 3 view .LVU174
 494              	.LVL18:
 495              	.LBB338:
 496              	.LBI323:
 497              		.loc 1 88 11 view .LVU175
 498              	.LBB333:
 499              		.loc 1 90 3 view .LVU176
 500              		.loc 1 91 3 view .LVU177
 501              		.loc 1 92 3 view .LVU178
 502              		.loc 1 97 3 view .LVU179
 503              		.loc 1 98 3 view .LVU180
 504              		.loc 1 101 3 view .LVU181
 505              		.loc 1 107 3 view .LVU182
 506              		.loc 1 108 3 view .LVU183
 507              		.loc 1 109 3 view .LVU184
 508              		.loc 1 109 3 view .LVU185
 509              		.loc 1 109 3 view .LVU186
 510 0068 2861     		str	r0, [r5, #16]
 511              		.loc 1 109 3 view .LVU187
 512 006a 6061     		str	r0, [r4, #20]
 513              		.loc 1 109 17 view .LVU188
ARM GAS  /tmp/cc4ZUYx9.s 			page 10


 514              		.loc 1 114 3 view .LVU189
 515              	.LVL19:
 516              	.LBB325:
 517              	.LBI325:
 518              		.loc 2 510 20 view .LVU190
 519              	.LBB326:
 520              		.loc 2 512 3 view .LVU191
 521              	.LBE326:
 522              	.LBE325:
 523              		.loc 1 114 3 is_stmt 0 view .LVU192
 524 006c A3F12004 		sub	r4, r3, #32
 525              	.LVL20:
 526              	.LBB327:
 527              	.LBB328:
 528              		.loc 2 550 13 view .LVU193
 529 0070 43E90842 		strd	r4, r2, [r3, #-32]
 530              		.loc 2 551 3 is_stmt 1 view .LVU194
 531              		.loc 2 551 13 is_stmt 0 view .LVU195
 532 0074 43F8182C 		str	r2, [r3, #-24]
 533              	.LBE328:
 534              	.LBE327:
 535              		.loc 1 122 3 is_stmt 1 view .LVU196
 536              		.loc 1 122 30 view .LVU197
 537              		.loc 1 123 3 view .LVU198
 538              	.LVL21:
 539              		.loc 1 123 3 is_stmt 0 view .LVU199
 540              	.LBE333:
 541              	.LBE338:
 542              	.LBE322:
 543              	.LBE321:
 544              		.loc 1 232 3 is_stmt 1 view .LVU200
 545              	.LBB339:
 546              	.LBI339:
 547              		.loc 3 386 20 view .LVU201
 548              	.LBB340:
 549              		.loc 3 388 22 view .LVU202
 550              		.loc 3 389 33 view .LVU203
 551              		.loc 3 395 3 view .LVU204
 552              		.loc 3 395 3 view .LVU205
 553              		.loc 3 395 3 view .LVU206
 554              		.loc 3 399 3 view .LVU207
 555              	.LBB341:
 556              	.LBI341:
 557              		.loc 4 618 20 view .LVU208
 558              	.LBE341:
 559              	.LBE340:
 560              	.LBE339:
 561              		.loc 4 621 3 view .LVU209
 562              	.LBB346:
 563              	.LBB345:
 564              	.LBB344:
 565              	.LBB342:
 566              	.LBI342:
 567              		.loc 5 262 57 view .LVU210
 568              	.LBB343:
 569              		.loc 5 264 3 view .LVU211
 570              		.syntax unified
ARM GAS  /tmp/cc4ZUYx9.s 			page 11


 571              	@ 264 "../../../os/common/ext/CMSIS/include/cmsis_gcc.h" 1
 572 0078 81F31188 		MSR basepri, r1
 573              	@ 0 "" 2
 574              	.LVL22:
 575              		.loc 5 264 3 is_stmt 0 view .LVU212
 576              		.thumb
 577              		.syntax unified
 578              	.LBE343:
 579              	.LBE342:
 580              	.LBE344:
 581              	.LBE345:
 582              	.LBE346:
 583              		.loc 1 234 3 is_stmt 1 view .LVU213
 584              		.loc 1 235 1 is_stmt 0 view .LVU214
 585 007c 70BC     		pop	{r4, r5, r6}
 586              		.cfi_restore 6
 587              		.cfi_restore 5
 588              		.cfi_restore 4
 589              		.cfi_def_cfa_offset 0
 590              	.LVL23:
 591              		.loc 1 235 1 view .LVU215
 592 007e 7047     		bx	lr
 593              	.L13:
 594              		.align	2
 595              	.L12:
 596 0080 00000000 		.word	ch
 597 0084 00000000 		.word	_port_thread_start
 598              		.cfi_endproc
 599              	.LFE248:
 600              		.size	chThdCreateSuspended, .-chThdCreateSuspended
 601              		.section	.text.chThdCreateI,"ax",%progbits
 602              		.align	1
 603              		.p2align 4,,15
 604              		.global	chThdCreateI
 605              		.syntax unified
 606              		.thumb
 607              		.thumb_func
 608              		.fpu softvfp
 609              		.type	chThdCreateI, %function
 610              	chThdCreateI:
 611              	.LVL24:
 612              	.LFB249:
 613              		.loc 1 259 56 is_stmt 1 view -0
 614              		.cfi_startproc
 615              		@ args = 0, pretend = 0, frame = 0
 616              		@ frame_needed = 0, uses_anonymous_args = 0
 617              		@ link register save eliminated.
 618              		.loc 1 261 3 view .LVU217
 619              	.LBB355:
 620              	.LBB356:
 621              		.loc 1 186 14 is_stmt 0 view .LVU218
 622 0000 D0E90113 		ldrd	r1, r3, [r0, #4]
 623              	.LBE356:
 624              	.LBE355:
 625              		.loc 1 259 56 view .LVU219
 626 0004 0246     		mov	r2, r0
 627              	.LVL25:
ARM GAS  /tmp/cc4ZUYx9.s 			page 12


 628              	.LBB377:
 629              	.LBI355:
 630              		.loc 1 167 11 is_stmt 1 view .LVU220
 631              	.LBB375:
 632              		.loc 1 168 3 view .LVU221
 633              		.loc 1 170 21 view .LVU222
 634              		.loc 1 171 3 view .LVU223
 635              		.loc 1 171 3 view .LVU224
 636              		.loc 1 171 3 view .LVU225
 637              		.loc 1 172 3 view .LVU226
 638              		.loc 1 172 3 view .LVU227
 639              		.loc 1 172 3 view .LVU228
 640              		.loc 1 176 3 view .LVU229
 641              		.loc 1 176 3 view .LVU230
 642              		.loc 1 176 3 view .LVU231
 643              		.loc 1 181 3 view .LVU232
 644              	.LBE375:
 645              	.LBE377:
 646              		.loc 1 259 56 is_stmt 0 view .LVU233
 647 0006 F0B4     		push	{r4, r5, r6, r7}
 648              		.cfi_def_cfa_offset 16
 649              		.cfi_offset 4, -16
 650              		.cfi_offset 5, -12
 651              		.cfi_offset 6, -8
 652              		.cfi_offset 7, -4
 653              	.LBB378:
 654              	.LBB376:
 655              		.loc 1 190 3 view .LVU234
 656 0008 5569     		ldr	r5, [r2, #20]
 657 000a 0069     		ldr	r0, [r0, #16]
 658              	.LVL26:
 659              		.loc 1 186 14 view .LVU235
 660 000c 43F82C1C 		str	r1, [r3, #-44]
 661              	.LBB357:
 662              	.LBB358:
 663              		.loc 1 92 17 view .LVU236
 664 0010 0024     		movs	r4, #0
 665              		.loc 1 109 3 view .LVU237
 666 0012 1849     		ldr	r1, .L16
 667              	.LBE358:
 668              	.LBE357:
 669              		.loc 1 190 3 view .LVU238
 670 0014 43F8685C 		str	r5, [r3, #-104]
 671              	.LBB369:
 672              	.LBB363:
 673              		.loc 1 107 17 view .LVU239
 674 0018 0126     		movs	r6, #1
 675              	.LBE363:
 676              	.LBE369:
 677              		.loc 1 193 10 view .LVU240
 678 001a 1568     		ldr	r5, [r2]
 679 001c D268     		ldr	r2, [r2, #12]
 680              	.LVL27:
 681              	.LBB370:
 682              	.LBB364:
 683              		.loc 1 107 17 view .LVU241
 684 001e 03F8266C 		strb	r6, [r3, #-38]
ARM GAS  /tmp/cc4ZUYx9.s 			page 13


 685              		.loc 1 91 17 view .LVU242
 686 0022 4FF0020C 		mov	ip, #2
 687 0026 03F828CC 		strb	ip, [r3, #-40]
 688              		.loc 1 92 17 view .LVU243
 689 002a 03F8274C 		strb	r4, [r3, #-39]
 690              		.loc 1 98 17 view .LVU244
 691 002e 43E90442 		strd	r4, r2, [r3, #-16]
 692              		.loc 1 101 17 view .LVU245
 693 0032 43F8144C 		str	r4, [r3, #-20]
 694              		.loc 1 109 3 view .LVU246
 695 0036 4C69     		ldr	r4, [r1, #20]
 696              	.LBE364:
 697              	.LBE370:
 698              		.loc 1 190 3 view .LVU247
 699 0038 43F86C0C 		str	r0, [r3, #-108]
 700              	.LBB371:
 701              	.LBB365:
 702              		.loc 1 108 17 view .LVU248
 703 003c 43F8305C 		str	r5, [r3, #-48]
 704              		.loc 1 90 17 view .LVU249
 705 0040 43F8402C 		str	r2, [r3, #-64]
 706              	.LBE365:
 707              	.LBE371:
 708              		.loc 1 190 3 view .LVU250
 709 0044 0C4F     		ldr	r7, .L16+4
 710 0046 43F84C7C 		str	r7, [r3, #-76]
 711              		.loc 1 181 6 view .LVU251
 712 004a A3F14800 		sub	r0, r3, #72
 713              	.LVL28:
 714              		.loc 1 186 3 is_stmt 1 view .LVU252
 715              		.loc 1 190 3 view .LVU253
 716              	.LBB372:
 717              	.LBB366:
 718              		.loc 1 114 3 is_stmt 0 view .LVU254
 719 004e A3F12005 		sub	r5, r3, #32
 720              		.loc 1 117 3 view .LVU255
 721 0052 A3F11C02 		sub	r2, r3, #28
 722              	.LBE366:
 723              	.LBE372:
 724              		.loc 1 190 3 view .LVU256
 725 0056 A3F16C06 		sub	r6, r3, #108
 726              	.LBB373:
 727              	.LBB367:
 728              		.loc 1 109 3 view .LVU257
 729 005a 43E90E14 		strd	r1, r4, [r3, #-56]
 730              	.LBE367:
 731              	.LBE373:
 732              		.loc 1 190 3 view .LVU258
 733 005e 43F83C6C 		str	r6, [r3, #-60]
 734              		.loc 1 190 3 is_stmt 1 view .LVU259
 735              		.loc 1 190 3 view .LVU260
 736              		.loc 1 190 3 view .LVU261
 737              		.loc 1 190 63 view .LVU262
 738              		.loc 1 193 3 view .LVU263
 739              	.LVL29:
 740              	.LBB374:
 741              	.LBI357:
ARM GAS  /tmp/cc4ZUYx9.s 			page 14


 742              		.loc 1 88 11 view .LVU264
 743              	.LBB368:
 744              		.loc 1 90 3 view .LVU265
 745              		.loc 1 91 3 view .LVU266
 746              		.loc 1 92 3 view .LVU267
 747              		.loc 1 97 3 view .LVU268
 748              		.loc 1 98 3 view .LVU269
 749              		.loc 1 101 3 view .LVU270
 750              		.loc 1 107 3 view .LVU271
 751              		.loc 1 108 3 view .LVU272
 752              		.loc 1 109 3 view .LVU273
 753              		.loc 1 109 3 view .LVU274
 754              		.loc 1 109 3 view .LVU275
 755 0062 2061     		str	r0, [r4, #16]
 756              		.loc 1 109 3 view .LVU276
 757 0064 4861     		str	r0, [r1, #20]
 758              		.loc 1 109 17 view .LVU277
 759              		.loc 1 114 3 view .LVU278
 760              	.LVL30:
 761              	.LBB359:
 762              	.LBI359:
 763              		.loc 2 510 20 view .LVU279
 764              	.LBB360:
 765              		.loc 2 512 3 view .LVU280
 766              	.LBE360:
 767              	.LBE359:
 768              	.LBB361:
 769              	.LBB362:
 770              		.loc 2 550 13 is_stmt 0 view .LVU281
 771 0066 43E90852 		strd	r5, r2, [r3, #-32]
 772              		.loc 2 551 3 is_stmt 1 view .LVU282
 773              		.loc 2 551 13 is_stmt 0 view .LVU283
 774 006a 43F8182C 		str	r2, [r3, #-24]
 775              	.LBE362:
 776              	.LBE361:
 777              		.loc 1 122 3 is_stmt 1 view .LVU284
 778              		.loc 1 122 30 view .LVU285
 779              		.loc 1 123 3 view .LVU286
 780              	.LVL31:
 781              		.loc 1 123 3 is_stmt 0 view .LVU287
 782              	.LBE368:
 783              	.LBE374:
 784              	.LBE376:
 785              	.LBE378:
 786              		.loc 1 262 1 view .LVU288
 787 006e F0BC     		pop	{r4, r5, r6, r7}
 788              		.cfi_restore 7
 789              		.cfi_restore 6
 790              		.cfi_restore 5
 791              		.cfi_restore 4
 792              		.cfi_def_cfa_offset 0
 793              	.LVL32:
 794              		.loc 1 261 10 view .LVU289
 795 0070 FFF7FEBF 		b	chSchReadyI
 796              	.LVL33:
 797              	.L17:
 798              		.loc 1 261 10 view .LVU290
ARM GAS  /tmp/cc4ZUYx9.s 			page 15


 799              		.align	2
 800              	.L16:
 801 0074 00000000 		.word	ch
 802 0078 00000000 		.word	_port_thread_start
 803              		.cfi_endproc
 804              	.LFE249:
 805              		.size	chThdCreateI, .-chThdCreateI
 806              		.section	.text.chThdCreate,"ax",%progbits
 807              		.align	1
 808              		.p2align 4,,15
 809              		.global	chThdCreate
 810              		.syntax unified
 811              		.thumb
 812              		.thumb_func
 813              		.fpu softvfp
 814              		.type	chThdCreate, %function
 815              	chThdCreate:
 816              	.LVL34:
 817              	.LFB250:
 818              		.loc 1 280 55 is_stmt 1 view -0
 819              		.cfi_startproc
 820              		@ args = 0, pretend = 0, frame = 0
 821              		@ frame_needed = 0, uses_anonymous_args = 0
 822              		.loc 1 281 3 view .LVU292
 823              		.loc 1 284 3 view .LVU293
 824              		.loc 1 284 3 view .LVU294
 825              		.loc 1 284 3 view .LVU295
 826              		.loc 1 294 3 view .LVU296
 827              	.LBB379:
 828              	.LBI379:
 829              		.loc 3 374 20 view .LVU297
 830              	.LBE379:
 831              		.loc 3 376 3 view .LVU298
 832              	.LBB387:
 833              	.LBB380:
 834              	.LBI380:
 835              		.loc 4 594 20 view .LVU299
 836              	.LBE380:
 837              	.LBE387:
 838              		.loc 4 602 3 view .LVU300
 839              	.LBB388:
 840              	.LBB385:
 841              	.LBB381:
 842              	.LBI381:
 843              		.loc 5 262 57 view .LVU301
 844              	.LBB382:
 845              		.loc 5 264 3 view .LVU302
 846              	.LBE382:
 847              	.LBE381:
 848              	.LBE385:
 849              	.LBE388:
 850              		.loc 1 280 55 is_stmt 0 view .LVU303
 851 0000 10B5     		push	{r4, lr}
 852              		.cfi_def_cfa_offset 8
 853              		.cfi_offset 4, -8
 854              		.cfi_offset 14, -4
 855              	.LBB389:
ARM GAS  /tmp/cc4ZUYx9.s 			page 16


 856              	.LBB386:
 857              	.LBB384:
 858              	.LBB383:
 859              		.loc 5 264 3 view .LVU304
 860 0002 2023     		movs	r3, #32
 861              		.syntax unified
 862              	@ 264 "../../../os/common/ext/CMSIS/include/cmsis_gcc.h" 1
 863 0004 83F31188 		MSR basepri, r3
 864              	@ 0 "" 2
 865              	.LVL35:
 866              		.loc 5 264 3 view .LVU305
 867              		.thumb
 868              		.syntax unified
 869              	.LBE383:
 870              	.LBE384:
 871              	.LBE386:
 872              	.LBE389:
 873              		.loc 3 377 34 is_stmt 1 view .LVU306
 874              		.loc 3 378 20 view .LVU307
 875              		.loc 1 295 3 view .LVU308
 876              		.loc 1 295 8 is_stmt 0 view .LVU309
 877 0008 FFF7FEFF 		bl	chThdCreateSuspendedI
 878              	.LVL36:
 879              		.loc 1 296 3 view .LVU310
 880 000c 0021     		movs	r1, #0
 881              		.loc 1 295 8 view .LVU311
 882 000e 0446     		mov	r4, r0
 883              	.LVL37:
 884              		.loc 1 296 3 is_stmt 1 view .LVU312
 885 0010 FFF7FEFF 		bl	chSchWakeupS
 886              	.LVL38:
 887              		.loc 1 297 3 view .LVU313
 888              	.LBB390:
 889              	.LBI390:
 890              		.loc 3 386 20 view .LVU314
 891              	.LBB391:
 892              		.loc 3 388 22 view .LVU315
 893              		.loc 3 389 33 view .LVU316
 894              		.loc 3 395 3 view .LVU317
 895              		.loc 3 395 3 view .LVU318
 896              		.loc 3 395 3 view .LVU319
 897              		.loc 3 399 3 view .LVU320
 898              	.LBB392:
 899              	.LBI392:
 900              		.loc 4 618 20 view .LVU321
 901              	.LBE392:
 902              	.LBE391:
 903              	.LBE390:
 904              		.loc 4 621 3 view .LVU322
 905              	.LBB397:
 906              	.LBB396:
 907              	.LBB395:
 908              	.LBB393:
 909              	.LBI393:
 910              		.loc 5 262 57 view .LVU323
 911              	.LBB394:
 912              		.loc 5 264 3 view .LVU324
ARM GAS  /tmp/cc4ZUYx9.s 			page 17


 913 0014 0023     		movs	r3, #0
 914              		.syntax unified
 915              	@ 264 "../../../os/common/ext/CMSIS/include/cmsis_gcc.h" 1
 916 0016 83F31188 		MSR basepri, r3
 917              	@ 0 "" 2
 918              	.LVL39:
 919              		.loc 5 264 3 is_stmt 0 view .LVU325
 920              		.thumb
 921              		.syntax unified
 922              	.LBE394:
 923              	.LBE393:
 924              	.LBE395:
 925              	.LBE396:
 926              	.LBE397:
 927              		.loc 1 299 3 is_stmt 1 view .LVU326
 928              		.loc 1 300 1 is_stmt 0 view .LVU327
 929 001a 2046     		mov	r0, r4
 930 001c 10BD     		pop	{r4, pc}
 931              		.loc 1 300 1 view .LVU328
 932              		.cfi_endproc
 933              	.LFE250:
 934              		.size	chThdCreate, .-chThdCreate
 935 001e 00BF     		.section	.rodata.chThdCreateStatic.str1.4,"aMS",%progbits,1
 936              		.align	2
 937              	.LC0:
 938 0000 6E6F6E61 		.ascii	"noname\000"
 938      6D6500
 939              		.section	.text.chThdCreateStatic,"ax",%progbits
 940              		.align	1
 941              		.p2align 4,,15
 942              		.global	chThdCreateStatic
 943              		.syntax unified
 944              		.thumb
 945              		.thumb_func
 946              		.fpu softvfp
 947              		.type	chThdCreateStatic, %function
 948              	chThdCreateStatic:
 949              	.LVL40:
 950              	.LFB251:
 951              		.loc 1 323 66 is_stmt 1 view -0
 952              		.cfi_startproc
 953              		@ args = 4, pretend = 0, frame = 0
 954              		@ frame_needed = 0, uses_anonymous_args = 0
 955              		.loc 1 324 3 view .LVU330
 956              		.loc 1 326 3 view .LVU331
 957              		.loc 1 326 3 view .LVU332
 958              		.loc 1 326 3 view .LVU333
 959              		.loc 1 333 3 view .LVU334
 960              		.loc 1 333 3 view .LVU335
 961              		.loc 1 333 3 view .LVU336
 962              		.loc 1 343 3 view .LVU337
 963              	.LBB398:
 964              	.LBI398:
 965              		.loc 3 374 20 view .LVU338
 966              	.LBE398:
 967              		.loc 3 376 3 view .LVU339
 968              	.LBB406:
ARM GAS  /tmp/cc4ZUYx9.s 			page 18


 969              	.LBB399:
 970              	.LBI399:
 971              		.loc 4 594 20 view .LVU340
 972              	.LBE399:
 973              	.LBE406:
 974              		.loc 4 602 3 view .LVU341
 975              	.LBB407:
 976              	.LBB404:
 977              	.LBB400:
 978              	.LBI400:
 979              		.loc 5 262 57 view .LVU342
 980              	.LBB401:
 981              		.loc 5 264 3 view .LVU343
 982              	.LBE401:
 983              	.LBE400:
 984              	.LBE404:
 985              	.LBE407:
 986              		.loc 1 323 66 is_stmt 0 view .LVU344
 987 0000 38B5     		push	{r3, r4, r5, lr}
 988              		.cfi_def_cfa_offset 16
 989              		.cfi_offset 3, -16
 990              		.cfi_offset 4, -12
 991              		.cfi_offset 5, -8
 992              		.cfi_offset 14, -4
 993              	.LBB408:
 994              	.LBB405:
 995              	.LBB403:
 996              	.LBB402:
 997              		.loc 5 264 3 view .LVU345
 998 0002 2024     		movs	r4, #32
 999              		.syntax unified
 1000              	@ 264 "../../../os/common/ext/CMSIS/include/cmsis_gcc.h" 1
 1001 0004 84F31188 		MSR basepri, r4
 1002              	@ 0 "" 2
 1003              	.LVL41:
 1004              		.loc 5 264 3 view .LVU346
 1005              		.thumb
 1006              		.syntax unified
 1007              	.LBE402:
 1008              	.LBE403:
 1009              	.LBE405:
 1010              	.LBE408:
 1011              		.loc 3 377 34 is_stmt 1 view .LVU347
 1012              		.loc 3 378 20 view .LVU348
 1013              		.loc 1 348 3 view .LVU349
 1014              		.loc 1 348 43 is_stmt 0 view .LVU350
 1015 0008 4839     		subs	r1, r1, #72
 1016              	.LVL42:
 1017              		.loc 1 348 6 view .LVU351
 1018 000a 4418     		adds	r4, r0, r1
 1019              	.LVL43:
 1020              		.loc 1 353 3 is_stmt 1 view .LVU352
 1021              	.LBB409:
 1022              	.LBB410:
 1023              		.loc 1 108 17 is_stmt 0 view .LVU353
 1024 000c 1649     		ldr	r1, .L22
 1025              	.LVL44:
ARM GAS  /tmp/cc4ZUYx9.s 			page 19


 1026              		.loc 1 108 17 view .LVU354
 1027              	.LBE410:
 1028              	.LBE409:
 1029              		.loc 1 357 3 view .LVU355
 1030 000e 44F8243C 		str	r3, [r4, #-36]
 1031 0012 164B     		ldr	r3, .L22+4
 1032              	.LVL45:
 1033              		.loc 1 357 3 view .LVU356
 1034 0014 44F8043C 		str	r3, [r4, #-4]
 1035 0018 049B     		ldr	r3, [sp, #16]
 1036 001a 44F8203C 		str	r3, [r4, #-32]
 1037 001e A4F12403 		sub	r3, r4, #36
 1038              	.LVL46:
 1039              		.loc 1 357 3 view .LVU357
 1040 0022 E360     		str	r3, [r4, #12]
 1041              	.LBB420:
 1042              	.LBB417:
 1043              		.loc 1 109 3 view .LVU358
 1044 0024 124B     		ldr	r3, .L22+8
 1045              	.LVL47:
 1046              		.loc 1 109 3 view .LVU359
 1047              	.LBE417:
 1048              	.LBE420:
 1049              		.loc 1 353 14 view .LVU360
 1050 0026 E061     		str	r0, [r4, #28]
 1051              		.loc 1 357 3 is_stmt 1 view .LVU361
 1052              		.loc 1 357 3 view .LVU362
 1053              		.loc 1 357 3 view .LVU363
 1054              		.loc 1 357 3 view .LVU364
 1055              		.loc 1 357 43 view .LVU365
 1056              		.loc 1 359 3 view .LVU366
 1057              	.LVL48:
 1058              	.LBB421:
 1059              	.LBI409:
 1060              		.loc 1 88 11 view .LVU367
 1061              	.LBB418:
 1062              		.loc 1 90 3 view .LVU368
 1063              		.loc 1 91 3 view .LVU369
 1064              		.loc 1 92 3 view .LVU370
 1065              		.loc 1 97 3 view .LVU371
 1066              		.loc 1 108 17 is_stmt 0 view .LVU372
 1067 0028 A161     		str	r1, [r4, #24]
 1068              		.loc 1 91 17 view .LVU373
 1069 002a 0220     		movs	r0, #2
 1070              	.LVL49:
 1071              		.loc 1 109 3 view .LVU374
 1072 002c 5969     		ldr	r1, [r3, #20]
 1073              		.loc 1 91 17 view .LVU375
 1074 002e 2084     		strh	r0, [r4, #32]	@ movhi
 1075              		.loc 1 98 17 view .LVU376
 1076 0030 0025     		movs	r5, #0
 1077              		.loc 1 107 17 view .LVU377
 1078 0032 0120     		movs	r0, #1
 1079              		.loc 1 109 3 view .LVU378
 1080 0034 C4E90431 		strd	r3, r1, [r4, #16]
 1081              		.loc 1 90 17 view .LVU379
 1082 0038 A260     		str	r2, [r4, #8]
ARM GAS  /tmp/cc4ZUYx9.s 			page 20


 1083              		.loc 1 98 17 view .LVU380
 1084 003a C4E90E52 		strd	r5, r2, [r4, #56]
 1085              		.loc 1 101 3 is_stmt 1 view .LVU381
 1086              		.loc 1 107 17 is_stmt 0 view .LVU382
 1087 003e 84F82200 		strb	r0, [r4, #34]
 1088              		.loc 1 117 3 view .LVU383
 1089 0042 04F12C02 		add	r2, r4, #44
 1090              	.LVL50:
 1091              		.loc 1 101 17 view .LVU384
 1092 0046 6563     		str	r5, [r4, #52]
 1093              		.loc 1 107 3 is_stmt 1 view .LVU385
 1094              		.loc 1 108 3 view .LVU386
 1095              		.loc 1 109 3 view .LVU387
 1096              		.loc 1 109 3 view .LVU388
 1097              		.loc 1 109 3 view .LVU389
 1098 0048 0C61     		str	r4, [r1, #16]
 1099              		.loc 1 109 3 view .LVU390
 1100              		.loc 1 114 3 is_stmt 0 view .LVU391
 1101 004a 04F12801 		add	r1, r4, #40
 1102              	.LBB411:
 1103              	.LBB412:
 1104              		.loc 2 550 13 view .LVU392
 1105 004e C4E90A12 		strd	r1, r2, [r4, #40]
 1106              		.loc 2 551 13 view .LVU393
 1107 0052 2263     		str	r2, [r4, #48]
 1108              	.LBE412:
 1109              	.LBE411:
 1110              	.LBE418:
 1111              	.LBE421:
 1112              		.loc 1 362 3 view .LVU394
 1113 0054 2946     		mov	r1, r5
 1114 0056 2046     		mov	r0, r4
 1115              	.LBB422:
 1116              	.LBB419:
 1117              		.loc 1 109 3 view .LVU395
 1118 0058 5C61     		str	r4, [r3, #20]
 1119              		.loc 1 109 17 is_stmt 1 view .LVU396
 1120              		.loc 1 114 3 view .LVU397
 1121              	.LVL51:
 1122              	.LBB414:
 1123              	.LBI414:
 1124              		.loc 2 510 20 view .LVU398
 1125              	.LBB415:
 1126              		.loc 2 512 3 view .LVU399
 1127              		.loc 2 512 3 is_stmt 0 view .LVU400
 1128              	.LBE415:
 1129              	.LBE414:
 1130              		.loc 1 117 3 is_stmt 1 view .LVU401
 1131              	.LBB416:
 1132              	.LBI411:
 1133              		.loc 2 548 20 view .LVU402
 1134              	.LBB413:
 1135              		.loc 2 550 3 view .LVU403
 1136              		.loc 2 551 3 view .LVU404
 1137              		.loc 2 551 3 is_stmt 0 view .LVU405
 1138              	.LBE413:
 1139              	.LBE416:
ARM GAS  /tmp/cc4ZUYx9.s 			page 21


 1140              		.loc 1 122 3 is_stmt 1 view .LVU406
 1141              		.loc 1 122 30 view .LVU407
 1142              		.loc 1 123 3 view .LVU408
 1143              		.loc 1 123 3 is_stmt 0 view .LVU409
 1144              	.LBE419:
 1145              	.LBE422:
 1146              		.loc 1 362 3 is_stmt 1 view .LVU410
 1147 005a FFF7FEFF 		bl	chSchWakeupS
 1148              	.LVL52:
 1149              		.loc 1 363 3 view .LVU411
 1150              	.LBB423:
 1151              	.LBI423:
 1152              		.loc 3 386 20 view .LVU412
 1153              	.LBB424:
 1154              		.loc 3 388 22 view .LVU413
 1155              		.loc 3 389 33 view .LVU414
 1156              		.loc 3 395 3 view .LVU415
 1157              		.loc 3 395 3 view .LVU416
 1158              		.loc 3 395 3 view .LVU417
 1159              		.loc 3 399 3 view .LVU418
 1160              	.LBB425:
 1161              	.LBI425:
 1162              		.loc 4 618 20 view .LVU419
 1163              	.LBE425:
 1164              	.LBE424:
 1165              	.LBE423:
 1166              		.loc 4 621 3 view .LVU420
 1167              	.LBB430:
 1168              	.LBB429:
 1169              	.LBB428:
 1170              	.LBB426:
 1171              	.LBI426:
 1172              		.loc 5 262 57 view .LVU421
 1173              	.LBB427:
 1174              		.loc 5 264 3 view .LVU422
 1175              		.syntax unified
 1176              	@ 264 "../../../os/common/ext/CMSIS/include/cmsis_gcc.h" 1
 1177 005e 85F31188 		MSR basepri, r5
 1178              	@ 0 "" 2
 1179              	.LVL53:
 1180              		.loc 5 264 3 is_stmt 0 view .LVU423
 1181              		.thumb
 1182              		.syntax unified
 1183              	.LBE427:
 1184              	.LBE426:
 1185              	.LBE428:
 1186              	.LBE429:
 1187              	.LBE430:
 1188              		.loc 1 365 3 is_stmt 1 view .LVU424
 1189              		.loc 1 366 1 is_stmt 0 view .LVU425
 1190 0062 2046     		mov	r0, r4
 1191 0064 38BD     		pop	{r3, r4, r5, pc}
 1192              	.LVL54:
 1193              	.L23:
 1194              		.loc 1 366 1 view .LVU426
 1195 0066 00BF     		.align	2
 1196              	.L22:
ARM GAS  /tmp/cc4ZUYx9.s 			page 22


 1197 0068 00000000 		.word	.LC0
 1198 006c 00000000 		.word	_port_thread_start
 1199 0070 00000000 		.word	ch
 1200              		.cfi_endproc
 1201              	.LFE251:
 1202              		.size	chThdCreateStatic, .-chThdCreateStatic
 1203              		.section	.text.chThdStart,"ax",%progbits
 1204              		.align	1
 1205              		.p2align 4,,15
 1206              		.global	chThdStart
 1207              		.syntax unified
 1208              		.thumb
 1209              		.thumb_func
 1210              		.fpu softvfp
 1211              		.type	chThdStart, %function
 1212              	chThdStart:
 1213              	.LVL55:
 1214              	.LFB252:
 1215              		.loc 1 377 36 is_stmt 1 view -0
 1216              		.cfi_startproc
 1217              		@ args = 0, pretend = 0, frame = 0
 1218              		@ frame_needed = 0, uses_anonymous_args = 0
 1219              		.loc 1 379 3 view .LVU428
 1220              	.LBB431:
 1221              	.LBI431:
 1222              		.loc 3 374 20 view .LVU429
 1223              	.LBE431:
 1224              		.loc 3 376 3 view .LVU430
 1225              	.LBB442:
 1226              	.LBB432:
 1227              	.LBI432:
 1228              		.loc 4 594 20 view .LVU431
 1229              	.LBE432:
 1230              	.LBE442:
 1231              		.loc 4 602 3 view .LVU432
 1232              	.LBB443:
 1233              	.LBB439:
 1234              	.LBB433:
 1235              	.LBI433:
 1236              		.loc 5 262 57 view .LVU433
 1237              	.LBB434:
 1238              		.loc 5 264 3 view .LVU434
 1239              	.LBE434:
 1240              	.LBE433:
 1241              	.LBE439:
 1242              	.LBE443:
 1243              		.loc 1 377 36 is_stmt 0 view .LVU435
 1244 0000 10B5     		push	{r4, lr}
 1245              		.cfi_def_cfa_offset 8
 1246              		.cfi_offset 4, -8
 1247              		.cfi_offset 14, -4
 1248              	.LBB444:
 1249              	.LBB440:
 1250              	.LBB437:
 1251              	.LBB435:
 1252              		.loc 5 264 3 view .LVU436
 1253 0002 2023     		movs	r3, #32
ARM GAS  /tmp/cc4ZUYx9.s 			page 23


 1254              	.LBE435:
 1255              	.LBE437:
 1256              	.LBE440:
 1257              	.LBE444:
 1258              		.loc 1 377 36 view .LVU437
 1259 0004 0446     		mov	r4, r0
 1260              	.LBB445:
 1261              	.LBB441:
 1262              	.LBB438:
 1263              	.LBB436:
 1264              		.loc 5 264 3 view .LVU438
 1265              		.syntax unified
 1266              	@ 264 "../../../os/common/ext/CMSIS/include/cmsis_gcc.h" 1
 1267 0006 83F31188 		MSR basepri, r3
 1268              	@ 0 "" 2
 1269              	.LVL56:
 1270              		.loc 5 264 3 view .LVU439
 1271              		.thumb
 1272              		.syntax unified
 1273              	.LBE436:
 1274              	.LBE438:
 1275              	.LBE441:
 1276              	.LBE445:
 1277              		.loc 3 377 34 is_stmt 1 view .LVU440
 1278              		.loc 3 378 20 view .LVU441
 1279              		.loc 1 380 3 view .LVU442
 1280              		.loc 1 380 3 view .LVU443
 1281              		.loc 1 380 3 view .LVU444
 1282              		.loc 1 381 3 view .LVU445
 1283 000a 0021     		movs	r1, #0
 1284 000c FFF7FEFF 		bl	chSchWakeupS
 1285              	.LVL57:
 1286              		.loc 1 382 3 view .LVU446
 1287              	.LBB446:
 1288              	.LBI446:
 1289              		.loc 3 386 20 view .LVU447
 1290              	.LBB447:
 1291              		.loc 3 388 22 view .LVU448
 1292              		.loc 3 389 33 view .LVU449
 1293              		.loc 3 395 3 view .LVU450
 1294              		.loc 3 395 3 view .LVU451
 1295              		.loc 3 395 3 view .LVU452
 1296              		.loc 3 399 3 view .LVU453
 1297              	.LBB448:
 1298              	.LBI448:
 1299              		.loc 4 618 20 view .LVU454
 1300              	.LBE448:
 1301              	.LBE447:
 1302              	.LBE446:
 1303              		.loc 4 621 3 view .LVU455
 1304              	.LBB453:
 1305              	.LBB452:
 1306              	.LBB451:
 1307              	.LBB449:
 1308              	.LBI449:
 1309              		.loc 5 262 57 view .LVU456
 1310              	.LBB450:
ARM GAS  /tmp/cc4ZUYx9.s 			page 24


 1311              		.loc 5 264 3 view .LVU457
 1312 0010 0023     		movs	r3, #0
 1313              		.syntax unified
 1314              	@ 264 "../../../os/common/ext/CMSIS/include/cmsis_gcc.h" 1
 1315 0012 83F31188 		MSR basepri, r3
 1316              	@ 0 "" 2
 1317              	.LVL58:
 1318              		.loc 5 264 3 is_stmt 0 view .LVU458
 1319              		.thumb
 1320              		.syntax unified
 1321              	.LBE450:
 1322              	.LBE449:
 1323              	.LBE451:
 1324              	.LBE452:
 1325              	.LBE453:
 1326              		.loc 1 384 3 is_stmt 1 view .LVU459
 1327              		.loc 1 385 1 is_stmt 0 view .LVU460
 1328 0016 2046     		mov	r0, r4
 1329 0018 10BD     		pop	{r4, pc}
 1330              		.loc 1 385 1 view .LVU461
 1331              		.cfi_endproc
 1332              	.LFE252:
 1333              		.size	chThdStart, .-chThdStart
 1334 001a 00BF     		.section	.text.chThdAddRef,"ax",%progbits
 1335              		.align	1
 1336              		.p2align 4,,15
 1337              		.global	chThdAddRef
 1338              		.syntax unified
 1339              		.thumb
 1340              		.thumb_func
 1341              		.fpu softvfp
 1342              		.type	chThdAddRef, %function
 1343              	chThdAddRef:
 1344              	.LVL59:
 1345              	.LFB253:
 1346              		.loc 1 399 37 is_stmt 1 view -0
 1347              		.cfi_startproc
 1348              		@ args = 0, pretend = 0, frame = 0
 1349              		@ frame_needed = 0, uses_anonymous_args = 0
 1350              		@ link register save eliminated.
 1351              		.loc 1 401 3 view .LVU463
 1352              	.LBB454:
 1353              	.LBI454:
 1354              		.loc 3 374 20 view .LVU464
 1355              	.LBE454:
 1356              		.loc 3 376 3 view .LVU465
 1357              	.LBB459:
 1358              	.LBB455:
 1359              	.LBI455:
 1360              		.loc 4 594 20 view .LVU466
 1361              	.LBE455:
 1362              	.LBE459:
 1363              		.loc 4 602 3 view .LVU467
 1364              	.LBB460:
 1365              	.LBB458:
 1366              	.LBB456:
 1367              	.LBI456:
ARM GAS  /tmp/cc4ZUYx9.s 			page 25


 1368              		.loc 5 262 57 view .LVU468
 1369              	.LBB457:
 1370              		.loc 5 264 3 view .LVU469
 1371 0000 2022     		movs	r2, #32
 1372              		.syntax unified
 1373              	@ 264 "../../../os/common/ext/CMSIS/include/cmsis_gcc.h" 1
 1374 0002 82F31188 		MSR basepri, r2
 1375              	@ 0 "" 2
 1376              	.LVL60:
 1377              		.loc 5 264 3 is_stmt 0 view .LVU470
 1378              		.thumb
 1379              		.syntax unified
 1380              	.LBE457:
 1381              	.LBE456:
 1382              	.LBE458:
 1383              	.LBE460:
 1384              		.loc 3 377 34 is_stmt 1 view .LVU471
 1385              		.loc 3 378 20 view .LVU472
 1386              		.loc 1 402 3 view .LVU473
 1387              		.loc 1 402 3 view .LVU474
 1388              		.loc 1 402 3 view .LVU475
 1389              		.loc 1 403 3 view .LVU476
 1390              		.loc 1 403 11 is_stmt 0 view .LVU477
 1391 0006 90F82220 		ldrb	r2, [r0, #34]	@ zero_extendqisi2
 1392 000a 0132     		adds	r2, r2, #1
 1393              	.LBB461:
 1394              	.LBB462:
 1395              	.LBB463:
 1396              	.LBB464:
 1397              	.LBB465:
 1398              		.loc 5 264 3 view .LVU478
 1399 000c 0021     		movs	r1, #0
 1400              	.LBE465:
 1401              	.LBE464:
 1402              	.LBE463:
 1403              	.LBE462:
 1404              	.LBE461:
 1405              		.loc 1 403 11 view .LVU479
 1406 000e 80F82220 		strb	r2, [r0, #34]
 1407              		.loc 1 404 3 is_stmt 1 view .LVU480
 1408              	.LBB472:
 1409              	.LBI461:
 1410              		.loc 3 386 20 view .LVU481
 1411              	.LBB470:
 1412              		.loc 3 388 22 view .LVU482
 1413              		.loc 3 389 33 view .LVU483
 1414              		.loc 3 395 3 view .LVU484
 1415              		.loc 3 395 3 view .LVU485
 1416              		.loc 3 395 3 view .LVU486
 1417              		.loc 3 399 3 view .LVU487
 1418              	.LBB468:
 1419              	.LBI463:
 1420              		.loc 4 618 20 view .LVU488
 1421              	.LBE468:
 1422              	.LBE470:
 1423              	.LBE472:
 1424              		.loc 4 621 3 view .LVU489
ARM GAS  /tmp/cc4ZUYx9.s 			page 26


 1425              	.LVL61:
 1426              	.LBB473:
 1427              	.LBB471:
 1428              	.LBB469:
 1429              	.LBB467:
 1430              	.LBI464:
 1431              		.loc 5 262 57 view .LVU490
 1432              	.LBB466:
 1433              		.loc 5 264 3 view .LVU491
 1434              		.syntax unified
 1435              	@ 264 "../../../os/common/ext/CMSIS/include/cmsis_gcc.h" 1
 1436 0012 81F31188 		MSR basepri, r1
 1437              	@ 0 "" 2
 1438              	.LVL62:
 1439              		.loc 5 264 3 is_stmt 0 view .LVU492
 1440              		.thumb
 1441              		.syntax unified
 1442              	.LBE466:
 1443              	.LBE467:
 1444              	.LBE469:
 1445              	.LBE471:
 1446              	.LBE473:
 1447              		.loc 1 406 3 is_stmt 1 view .LVU493
 1448              		.loc 1 407 1 is_stmt 0 view .LVU494
 1449 0016 7047     		bx	lr
 1450              		.cfi_endproc
 1451              	.LFE253:
 1452              		.size	chThdAddRef, .-chThdAddRef
 1453              		.section	.text.chThdRelease,"ax",%progbits
 1454              		.align	1
 1455              		.p2align 4,,15
 1456              		.global	chThdRelease
 1457              		.syntax unified
 1458              		.thumb
 1459              		.thumb_func
 1460              		.fpu softvfp
 1461              		.type	chThdRelease, %function
 1462              	chThdRelease:
 1463              	.LVL63:
 1464              	.LFB254:
 1465              		.loc 1 425 33 is_stmt 1 view -0
 1466              		.cfi_startproc
 1467              		@ args = 0, pretend = 0, frame = 0
 1468              		@ frame_needed = 0, uses_anonymous_args = 0
 1469              		@ link register save eliminated.
 1470              		.loc 1 427 3 view .LVU496
 1471              	.LBB512:
 1472              	.LBI512:
 1473              		.loc 3 374 20 view .LVU497
 1474              	.LBE512:
 1475              		.loc 3 376 3 view .LVU498
 1476              	.LBB517:
 1477              	.LBB513:
 1478              	.LBI513:
 1479              		.loc 4 594 20 view .LVU499
 1480              	.LBE513:
 1481              	.LBE517:
ARM GAS  /tmp/cc4ZUYx9.s 			page 27


 1482              		.loc 4 602 3 view .LVU500
 1483              	.LBB518:
 1484              	.LBB516:
 1485              	.LBB514:
 1486              	.LBI514:
 1487              		.loc 5 262 57 view .LVU501
 1488              	.LBB515:
 1489              		.loc 5 264 3 view .LVU502
 1490 0000 2023     		movs	r3, #32
 1491              		.syntax unified
 1492              	@ 264 "../../../os/common/ext/CMSIS/include/cmsis_gcc.h" 1
 1493 0002 83F31188 		MSR basepri, r3
 1494              	@ 0 "" 2
 1495              	.LVL64:
 1496              		.loc 5 264 3 is_stmt 0 view .LVU503
 1497              		.thumb
 1498              		.syntax unified
 1499              	.LBE515:
 1500              	.LBE514:
 1501              	.LBE516:
 1502              	.LBE518:
 1503              		.loc 3 377 34 is_stmt 1 view .LVU504
 1504              		.loc 3 378 20 view .LVU505
 1505              		.loc 1 428 3 view .LVU506
 1506              		.loc 1 428 3 view .LVU507
 1507              		.loc 1 428 3 view .LVU508
 1508              		.loc 1 429 3 view .LVU509
 1509              		.loc 1 429 11 is_stmt 0 view .LVU510
 1510 0006 90F82230 		ldrb	r3, [r0, #34]	@ zero_extendqisi2
 1511 000a 013B     		subs	r3, r3, #1
 1512 000c 80F82230 		strb	r3, [r0, #34]
 1513              		.loc 1 434 3 is_stmt 1 view .LVU511
 1514              		.loc 1 434 32 is_stmt 0 view .LVU512
 1515 0010 036A     		ldr	r3, [r0, #32]
 1516 0012 03F0FF13 		and	r3, r3, #16711935
 1517              		.loc 1 434 6 view .LVU513
 1518 0016 0F2B     		cmp	r3, #15
 1519 0018 03D0     		beq	.L32
 1520              		.loc 1 457 3 is_stmt 1 view .LVU514
 1521              	.LBB519:
 1522              	.LBI519:
 1523              		.loc 3 386 20 view .LVU515
 1524              	.LBB520:
 1525              		.loc 3 388 22 view .LVU516
 1526              		.loc 3 389 33 view .LVU517
 1527              		.loc 3 395 3 view .LVU518
 1528              		.loc 3 395 3 view .LVU519
 1529              		.loc 3 395 3 view .LVU520
 1530              		.loc 3 399 3 view .LVU521
 1531              	.LBB521:
 1532              	.LBI521:
 1533              		.loc 4 618 20 view .LVU522
 1534              	.LBE521:
 1535              	.LBE520:
 1536              	.LBE519:
 1537              		.loc 4 621 3 view .LVU523
 1538              	.LVL65:
ARM GAS  /tmp/cc4ZUYx9.s 			page 28


 1539              	.LBB526:
 1540              	.LBB525:
 1541              	.LBB524:
 1542              	.LBB522:
 1543              	.LBI522:
 1544              		.loc 5 262 57 view .LVU524
 1545              	.LBB523:
 1546              		.loc 5 264 3 view .LVU525
 1547 001a 0023     		movs	r3, #0
 1548              		.syntax unified
 1549              	@ 264 "../../../os/common/ext/CMSIS/include/cmsis_gcc.h" 1
 1550 001c 83F31188 		MSR basepri, r3
 1551              	@ 0 "" 2
 1552              	.LVL66:
 1553              		.loc 5 264 3 is_stmt 0 view .LVU526
 1554              		.thumb
 1555              		.syntax unified
 1556              	.LBE523:
 1557              	.LBE522:
 1558              	.LBE524:
 1559              	.LBE525:
 1560              	.LBE526:
 1561              		.loc 1 458 1 view .LVU527
 1562 0020 7047     		bx	lr
 1563              	.L32:
 1564              	.LVL67:
 1565              	.LBB527:
 1566              	.LBI527:
 1567              		.loc 1 425 6 is_stmt 1 view .LVU528
 1568              	.LBB528:
 1569              		.loc 1 435 5 view .LVU529
 1570 0022 D0E90423 		ldrd	r2, r3, [r0, #16]
 1571 0026 1A61     		str	r2, [r3, #16]
 1572              		.loc 1 435 5 view .LVU530
 1573 0028 0169     		ldr	r1, [r0, #16]
 1574              	.LBB529:
 1575              	.LBB530:
 1576              	.LBB531:
 1577              	.LBB532:
 1578              	.LBB533:
 1579              		.loc 5 264 3 is_stmt 0 view .LVU531
 1580 002a 0022     		movs	r2, #0
 1581              	.LBE533:
 1582              	.LBE532:
 1583              	.LBE531:
 1584              	.LBE530:
 1585              	.LBE529:
 1586              		.loc 1 435 5 view .LVU532
 1587 002c 4B61     		str	r3, [r1, #20]
 1588              		.loc 1 435 19 is_stmt 1 view .LVU533
 1589              		.loc 1 436 5 view .LVU534
 1590              	.LBB540:
 1591              	.LBI529:
 1592              		.loc 3 386 20 view .LVU535
 1593              	.LBB538:
 1594              		.loc 3 388 22 view .LVU536
 1595              		.loc 3 389 33 view .LVU537
ARM GAS  /tmp/cc4ZUYx9.s 			page 29


 1596              		.loc 3 395 3 view .LVU538
 1597              		.loc 3 395 3 view .LVU539
 1598              		.loc 3 395 3 view .LVU540
 1599              		.loc 3 399 3 view .LVU541
 1600              	.LBB536:
 1601              	.LBI531:
 1602              		.loc 4 618 20 view .LVU542
 1603              	.LBE536:
 1604              	.LBE538:
 1605              	.LBE540:
 1606              	.LBE528:
 1607              	.LBE527:
 1608              		.loc 4 621 3 view .LVU543
 1609              	.LVL68:
 1610              	.LBB547:
 1611              	.LBB546:
 1612              	.LBB541:
 1613              	.LBB539:
 1614              	.LBB537:
 1615              	.LBB535:
 1616              	.LBI532:
 1617              		.loc 5 262 57 view .LVU544
 1618              	.LBB534:
 1619              		.loc 5 264 3 view .LVU545
 1620              		.syntax unified
 1621              	@ 264 "../../../os/common/ext/CMSIS/include/cmsis_gcc.h" 1
 1622 002e 82F31188 		MSR basepri, r2
 1623              	@ 0 "" 2
 1624              	.LVL69:
 1625              		.loc 5 264 3 is_stmt 0 view .LVU546
 1626              		.thumb
 1627              		.syntax unified
 1628              	.LBE534:
 1629              	.LBE535:
 1630              	.LBE537:
 1631              	.LBE539:
 1632              	.LBE541:
 1633              		.loc 1 439 5 is_stmt 1 view .LVU547
 1634 0032 90F82130 		ldrb	r3, [r0, #33]	@ zero_extendqisi2
 1635 0036 03F00303 		and	r3, r3, #3
 1636 003a 012B     		cmp	r3, #1
 1637 003c 06D0     		beq	.L29
 1638 003e 022B     		cmp	r3, #2
 1639 0040 00D0     		beq	.L30
 1640 0042 7047     		bx	lr
 1641              	.L30:
 1642              		.loc 1 447 7 view .LVU548
 1643              	.LVL70:
 1644              	.LBB542:
 1645              	.LBI542:
 1646              		.file 6 "../../../os/rt/include/chthreads.h"
 1647              		.loc 6 329 27 view .LVU549
 1648              	.LBB543:
 1649              		.loc 6 331 3 view .LVU550
 1650              		.loc 6 331 3 is_stmt 0 view .LVU551
 1651              	.LBE543:
 1652              	.LBE542:
ARM GAS  /tmp/cc4ZUYx9.s 			page 30


 1653              		.loc 1 447 7 view .LVU552
 1654 0044 C169     		ldr	r1, [r0, #28]
 1655 0046 006C     		ldr	r0, [r0, #64]
 1656              	.LVL71:
 1657              		.loc 1 447 7 view .LVU553
 1658 0048 FFF7FEBF 		b	chPoolFree
 1659              	.LVL72:
 1660              	.L29:
 1661              		.loc 1 442 7 is_stmt 1 view .LVU554
 1662              	.LBB544:
 1663              	.LBI544:
 1664              		.loc 6 329 27 view .LVU555
 1665              	.LBB545:
 1666              		.loc 6 331 3 view .LVU556
 1667              		.loc 6 331 3 is_stmt 0 view .LVU557
 1668              	.LBE545:
 1669              	.LBE544:
 1670              		.loc 1 442 7 view .LVU558
 1671 004c C069     		ldr	r0, [r0, #28]
 1672              	.LVL73:
 1673              		.loc 1 442 7 view .LVU559
 1674 004e FFF7FEBF 		b	chHeapFree
 1675              	.LVL74:
 1676              	.LBE546:
 1677              	.LBE547:
 1678              		.cfi_endproc
 1679              	.LFE254:
 1680              		.size	chThdRelease, .-chThdRelease
 1681 0052 00BF     		.section	.text.chThdExitS,"ax",%progbits
 1682              		.align	1
 1683              		.p2align 4,,15
 1684              		.global	chThdExitS
 1685              		.syntax unified
 1686              		.thumb
 1687              		.thumb_func
 1688              		.fpu softvfp
 1689              		.type	chThdExitS, %function
 1690              	chThdExitS:
 1691              	.LVL75:
 1692              	.LFB256:
 1693              		.loc 1 499 28 is_stmt 1 view -0
 1694              		.cfi_startproc
 1695              		@ args = 0, pretend = 0, frame = 0
 1696              		@ frame_needed = 0, uses_anonymous_args = 0
 1697              		.loc 1 500 3 view .LVU561
 1698              		.loc 1 500 13 is_stmt 0 view .LVU562
 1699 0000 104A     		ldr	r2, .L39
 1700              		.loc 1 499 28 view .LVU563
 1701 0002 38B5     		push	{r3, r4, r5, lr}
 1702              		.cfi_def_cfa_offset 16
 1703              		.cfi_offset 3, -16
 1704              		.cfi_offset 4, -12
 1705              		.cfi_offset 5, -8
 1706              		.cfi_offset 14, -4
 1707              		.loc 1 500 13 view .LVU564
 1708 0004 9469     		ldr	r4, [r2, #24]
 1709              	.LVL76:
ARM GAS  /tmp/cc4ZUYx9.s 			page 31


 1710              		.loc 1 503 3 is_stmt 1 view .LVU565
 1711              		.loc 1 499 28 is_stmt 0 view .LVU566
 1712 0006 0346     		mov	r3, r0
 1713              	.LBB548:
 1714              	.LBB549:
 1715              		.loc 2 538 20 view .LVU567
 1716 0008 A06A     		ldr	r0, [r4, #40]
 1717              	.LVL77:
 1718              		.loc 2 538 20 view .LVU568
 1719              	.LBE549:
 1720              	.LBE548:
 1721              		.loc 1 503 18 view .LVU569
 1722 000a 6362     		str	r3, [r4, #36]
 1723              		.loc 1 506 3 is_stmt 1 view .LVU570
 1724              		.loc 1 506 30 view .LVU571
 1725              		.loc 1 510 3 view .LVU572
 1726              		.loc 1 510 9 view .LVU573
 1727              		.loc 1 510 10 is_stmt 0 view .LVU574
 1728 000c 04F12805 		add	r5, r4, #40
 1729              	.LVL78:
 1730              	.LBB552:
 1731              	.LBI548:
 1732              		.loc 2 536 20 is_stmt 1 view .LVU575
 1733              	.LBB550:
 1734              		.loc 2 538 3 view .LVU576
 1735              		.loc 2 538 3 is_stmt 0 view .LVU577
 1736              	.LBE550:
 1737              	.LBE552:
 1738              		.loc 1 510 9 view .LVU578
 1739 0010 A842     		cmp	r0, r5
 1740 0012 06D0     		beq	.L34
 1741              	.LVL79:
 1742              	.L35:
 1743              		.loc 1 511 5 is_stmt 1 view .LVU579
 1744              	.LBB553:
 1745              	.LBI553:
 1746              		.loc 2 589 25 view .LVU580
 1747              	.LBB554:
 1748              		.loc 2 591 3 view .LVU581
 1749              		.loc 2 592 3 view .LVU582
 1750              		.loc 2 592 13 is_stmt 0 view .LVU583
 1751 0014 0368     		ldr	r3, [r0]
 1752 0016 A362     		str	r3, [r4, #40]
 1753              		.loc 2 594 3 is_stmt 1 view .LVU584
 1754              	.LVL80:
 1755              		.loc 2 594 3 is_stmt 0 view .LVU585
 1756              	.LBE554:
 1757              	.LBE553:
 1758              		.loc 1 511 12 view .LVU586
 1759 0018 FFF7FEFF 		bl	chSchReadyI
 1760              	.LVL81:
 1761              		.loc 1 510 9 is_stmt 1 view .LVU587
 1762              	.LBB555:
 1763              		.loc 2 536 20 view .LVU588
 1764              	.LBB551:
 1765              		.loc 2 538 3 view .LVU589
 1766              		.loc 2 538 20 is_stmt 0 view .LVU590
ARM GAS  /tmp/cc4ZUYx9.s 			page 32


 1767 001c A06A     		ldr	r0, [r4, #40]
 1768              	.LVL82:
 1769              		.loc 2 538 20 view .LVU591
 1770              	.LBE551:
 1771              	.LBE555:
 1772              		.loc 1 510 9 view .LVU592
 1773 001e A842     		cmp	r0, r5
 1774 0020 F8D1     		bne	.L35
 1775              	.L34:
 1776              		.loc 1 519 3 is_stmt 1 view .LVU593
 1777              		.loc 1 519 6 is_stmt 0 view .LVU594
 1778 0022 94F82230 		ldrb	r3, [r4, #34]	@ zero_extendqisi2
 1779 0026 3BB9     		cbnz	r3, .L36
 1780              		.loc 1 519 32 discriminator 1 view .LVU595
 1781 0028 94F82130 		ldrb	r3, [r4, #33]	@ zero_extendqisi2
 1782 002c 9B07     		lsls	r3, r3, #30
 1783 002e 03D1     		bne	.L36
 1784              		.loc 1 521 5 is_stmt 1 view .LVU596
 1785 0030 D4E90432 		ldrd	r3, r2, [r4, #16]
 1786 0034 1361     		str	r3, [r2, #16]
 1787              		.loc 1 521 5 view .LVU597
 1788 0036 5A61     		str	r2, [r3, #20]
 1789              	.L36:
 1790              		.loc 1 521 19 discriminator 1 view .LVU598
 1791              		.loc 1 531 3 discriminator 1 view .LVU599
 1792              		.loc 1 535 1 is_stmt 0 discriminator 1 view .LVU600
 1793 0038 BDE83840 		pop	{r3, r4, r5, lr}
 1794              		.cfi_restore 14
 1795              		.cfi_restore 5
 1796              		.cfi_restore 4
 1797              		.cfi_restore 3
 1798              		.cfi_def_cfa_offset 0
 1799              	.LVL83:
 1800              		.loc 1 531 3 discriminator 1 view .LVU601
 1801 003c 0F20     		movs	r0, #15
 1802 003e FFF7FEBF 		b	chSchGoSleepS
 1803              	.LVL84:
 1804              	.L40:
 1805 0042 00BF     		.align	2
 1806              	.L39:
 1807 0044 00000000 		.word	ch
 1808              		.cfi_endproc
 1809              	.LFE256:
 1810              		.size	chThdExitS, .-chThdExitS
 1811              		.section	.text.chThdExit,"ax",%progbits
 1812              		.align	1
 1813              		.p2align 4,,15
 1814              		.global	chThdExit
 1815              		.syntax unified
 1816              		.thumb
 1817              		.thumb_func
 1818              		.fpu softvfp
 1819              		.type	chThdExit, %function
 1820              	chThdExit:
 1821              	.LVL85:
 1822              	.LFB255:
 1823              		.loc 1 475 27 is_stmt 1 view -0
ARM GAS  /tmp/cc4ZUYx9.s 			page 33


 1824              		.cfi_startproc
 1825              		@ args = 0, pretend = 0, frame = 0
 1826              		@ frame_needed = 0, uses_anonymous_args = 0
 1827              		@ link register save eliminated.
 1828              		.loc 1 477 3 view .LVU603
 1829              	.LBB556:
 1830              	.LBI556:
 1831              		.loc 3 374 20 view .LVU604
 1832              	.LBE556:
 1833              		.loc 3 376 3 view .LVU605
 1834              	.LBB561:
 1835              	.LBB557:
 1836              	.LBI557:
 1837              		.loc 4 594 20 view .LVU606
 1838              	.LBE557:
 1839              	.LBE561:
 1840              		.loc 4 602 3 view .LVU607
 1841              	.LBB562:
 1842              	.LBB560:
 1843              	.LBB558:
 1844              	.LBI558:
 1845              		.loc 5 262 57 view .LVU608
 1846              	.LBB559:
 1847              		.loc 5 264 3 view .LVU609
 1848 0000 2023     		movs	r3, #32
 1849              		.syntax unified
 1850              	@ 264 "../../../os/common/ext/CMSIS/include/cmsis_gcc.h" 1
 1851 0002 83F31188 		MSR basepri, r3
 1852              	@ 0 "" 2
 1853              	.LVL86:
 1854              		.loc 5 264 3 is_stmt 0 view .LVU610
 1855              		.thumb
 1856              		.syntax unified
 1857              	.LBE559:
 1858              	.LBE558:
 1859              	.LBE560:
 1860              	.LBE562:
 1861              		.loc 3 377 34 is_stmt 1 view .LVU611
 1862              		.loc 3 378 20 view .LVU612
 1863              		.loc 1 478 3 view .LVU613
 1864 0006 FFF7FEBF 		b	chThdExitS
 1865              	.LVL87:
 1866              		.loc 1 478 3 is_stmt 0 view .LVU614
 1867              		.cfi_endproc
 1868              	.LFE255:
 1869              		.size	chThdExit, .-chThdExit
 1870 000a 00BF     		.section	.text.chThdWait,"ax",%progbits
 1871              		.align	1
 1872              		.p2align 4,,15
 1873              		.global	chThdWait
 1874              		.syntax unified
 1875              		.thumb
 1876              		.thumb_func
 1877              		.fpu softvfp
 1878              		.type	chThdWait, %function
 1879              	chThdWait:
 1880              	.LVL88:
ARM GAS  /tmp/cc4ZUYx9.s 			page 34


 1881              	.LFB257:
 1882              		.loc 1 557 31 is_stmt 1 view -0
 1883              		.cfi_startproc
 1884              		@ args = 0, pretend = 0, frame = 0
 1885              		@ frame_needed = 0, uses_anonymous_args = 0
 1886              		.loc 1 558 3 view .LVU616
 1887              		.loc 1 560 3 view .LVU617
 1888              		.loc 1 560 3 view .LVU618
 1889              		.loc 1 560 3 view .LVU619
 1890              		.loc 1 562 3 view .LVU620
 1891              	.LBB605:
 1892              	.LBI605:
 1893              		.loc 3 374 20 view .LVU621
 1894              	.LBE605:
 1895              		.loc 3 376 3 view .LVU622
 1896              	.LBB613:
 1897              	.LBB606:
 1898              	.LBI606:
 1899              		.loc 4 594 20 view .LVU623
 1900              	.LBE606:
 1901              	.LBE613:
 1902              		.loc 4 602 3 view .LVU624
 1903              	.LBB614:
 1904              	.LBB611:
 1905              	.LBB607:
 1906              	.LBI607:
 1907              		.loc 5 262 57 view .LVU625
 1908              	.LBB608:
 1909              		.loc 5 264 3 view .LVU626
 1910              	.LBE608:
 1911              	.LBE607:
 1912              	.LBE611:
 1913              	.LBE614:
 1914              		.loc 1 557 31 is_stmt 0 view .LVU627
 1915 0000 38B5     		push	{r3, r4, r5, lr}
 1916              		.cfi_def_cfa_offset 16
 1917              		.cfi_offset 3, -16
 1918              		.cfi_offset 4, -12
 1919              		.cfi_offset 5, -8
 1920              		.cfi_offset 14, -4
 1921              		.loc 1 557 31 view .LVU628
 1922 0002 0446     		mov	r4, r0
 1923              	.LBB615:
 1924              	.LBB612:
 1925              	.LBB610:
 1926              	.LBB609:
 1927              		.loc 5 264 3 view .LVU629
 1928 0004 2023     		movs	r3, #32
 1929              		.syntax unified
 1930              	@ 264 "../../../os/common/ext/CMSIS/include/cmsis_gcc.h" 1
 1931 0006 83F31188 		MSR basepri, r3
 1932              	@ 0 "" 2
 1933              	.LVL89:
 1934              		.loc 5 264 3 view .LVU630
 1935              		.thumb
 1936              		.syntax unified
 1937              	.LBE609:
ARM GAS  /tmp/cc4ZUYx9.s 			page 35


 1938              	.LBE610:
 1939              	.LBE612:
 1940              	.LBE615:
 1941              		.loc 3 377 34 is_stmt 1 view .LVU631
 1942              		.loc 3 378 20 view .LVU632
 1943              		.loc 1 563 3 view .LVU633
 1944              		.loc 1 563 3 view .LVU634
 1945              		.loc 1 563 3 view .LVU635
 1946              		.loc 1 565 3 view .LVU636
 1947              		.loc 1 565 3 view .LVU637
 1948              		.loc 1 565 3 view .LVU638
 1949              		.loc 1 568 3 view .LVU639
 1950              		.loc 1 568 6 is_stmt 0 view .LVU640
 1951 000a 90F82030 		ldrb	r3, [r0, #32]	@ zero_extendqisi2
 1952 000e 0F2B     		cmp	r3, #15
 1953 0010 07D0     		beq	.L43
 1954              		.loc 1 569 5 is_stmt 1 view .LVU641
 1955 0012 1A4B     		ldr	r3, .L53
 1956              	.LBB616:
 1957              	.LBB617:
 1958              		.loc 2 585 18 is_stmt 0 view .LVU642
 1959 0014 826A     		ldr	r2, [r0, #40]
 1960              	.LBE617:
 1961              	.LBE616:
 1962              		.loc 1 569 5 view .LVU643
 1963 0016 9B69     		ldr	r3, [r3, #24]
 1964              	.LVL90:
 1965              	.LBB620:
 1966              	.LBI616:
 1967              		.loc 2 583 20 is_stmt 1 view .LVU644
 1968              	.LBB618:
 1969              		.loc 2 585 3 view .LVU645
 1970              	.LBE618:
 1971              	.LBE620:
 1972              		.loc 1 570 5 is_stmt 0 view .LVU646
 1973 0018 0920     		movs	r0, #9
 1974              	.LVL91:
 1975              	.LBB621:
 1976              	.LBB619:
 1977              		.loc 2 585 18 view .LVU647
 1978 001a 1A60     		str	r2, [r3]
 1979              		.loc 2 586 3 is_stmt 1 view .LVU648
 1980              		.loc 2 586 13 is_stmt 0 view .LVU649
 1981 001c A362     		str	r3, [r4, #40]
 1982              	.LVL92:
 1983              		.loc 2 586 13 view .LVU650
 1984              	.LBE619:
 1985              	.LBE621:
 1986              		.loc 1 570 5 is_stmt 1 view .LVU651
 1987 001e FFF7FEFF 		bl	chSchGoSleepS
 1988              	.LVL93:
 1989              	.L43:
 1990              		.loc 1 572 3 view .LVU652
 1991              		.loc 1 572 7 is_stmt 0 view .LVU653
 1992 0022 656A     		ldr	r5, [r4, #36]
 1993              	.LVL94:
 1994              		.loc 1 573 3 is_stmt 1 view .LVU654
ARM GAS  /tmp/cc4ZUYx9.s 			page 36


 1995              	.LBB622:
 1996              	.LBI622:
 1997              		.loc 3 386 20 view .LVU655
 1998              	.LBB623:
 1999              		.loc 3 388 22 view .LVU656
 2000              		.loc 3 389 33 view .LVU657
 2001              		.loc 3 395 3 view .LVU658
 2002              		.loc 3 395 3 view .LVU659
 2003              		.loc 3 395 3 view .LVU660
 2004              		.loc 3 399 3 view .LVU661
 2005              	.LBB624:
 2006              	.LBI624:
 2007              		.loc 4 618 20 view .LVU662
 2008              	.LBE624:
 2009              	.LBE623:
 2010              	.LBE622:
 2011              		.loc 4 621 3 view .LVU663
 2012              	.LBB629:
 2013              	.LBB628:
 2014              	.LBB627:
 2015              	.LBB625:
 2016              	.LBI625:
 2017              		.loc 5 262 57 view .LVU664
 2018              	.LBB626:
 2019              		.loc 5 264 3 view .LVU665
 2020 0024 0022     		movs	r2, #0
 2021              		.syntax unified
 2022              	@ 264 "../../../os/common/ext/CMSIS/include/cmsis_gcc.h" 1
 2023 0026 82F31188 		MSR basepri, r2
 2024              	@ 0 "" 2
 2025              	.LVL95:
 2026              		.loc 5 264 3 is_stmt 0 view .LVU666
 2027              		.thumb
 2028              		.syntax unified
 2029              	.LBE626:
 2030              	.LBE625:
 2031              	.LBE627:
 2032              	.LBE628:
 2033              	.LBE629:
 2034              		.loc 1 577 3 is_stmt 1 view .LVU667
 2035              	.LBB630:
 2036              	.LBI630:
 2037              		.loc 1 425 6 view .LVU668
 2038              	.LBB631:
 2039              		.loc 1 427 3 view .LVU669
 2040              	.LBB632:
 2041              	.LBI632:
 2042              		.loc 3 374 20 view .LVU670
 2043              	.LBE632:
 2044              	.LBE631:
 2045              	.LBE630:
 2046              		.loc 3 376 3 view .LVU671
 2047              	.LBB669:
 2048              	.LBB663:
 2049              	.LBB637:
 2050              	.LBB633:
 2051              	.LBI633:
ARM GAS  /tmp/cc4ZUYx9.s 			page 37


 2052              		.loc 4 594 20 view .LVU672
 2053              	.LBE633:
 2054              	.LBE637:
 2055              	.LBE663:
 2056              	.LBE669:
 2057              		.loc 4 602 3 view .LVU673
 2058              	.LBB670:
 2059              	.LBB664:
 2060              	.LBB638:
 2061              	.LBB636:
 2062              	.LBB634:
 2063              	.LBI634:
 2064              		.loc 5 262 57 view .LVU674
 2065              	.LBB635:
 2066              		.loc 5 264 3 view .LVU675
 2067 002a 2023     		movs	r3, #32
 2068              		.syntax unified
 2069              	@ 264 "../../../os/common/ext/CMSIS/include/cmsis_gcc.h" 1
 2070 002c 83F31188 		MSR basepri, r3
 2071              	@ 0 "" 2
 2072              	.LVL96:
 2073              		.loc 5 264 3 is_stmt 0 view .LVU676
 2074              		.thumb
 2075              		.syntax unified
 2076              	.LBE635:
 2077              	.LBE634:
 2078              	.LBE636:
 2079              	.LBE638:
 2080              	.LBE664:
 2081              	.LBE670:
 2082              		.loc 3 377 34 is_stmt 1 view .LVU677
 2083              		.loc 3 378 20 view .LVU678
 2084              	.LBB671:
 2085              	.LBB665:
 2086              		.loc 1 428 3 view .LVU679
 2087              		.loc 1 428 3 view .LVU680
 2088              		.loc 1 428 3 view .LVU681
 2089              		.loc 1 429 3 view .LVU682
 2090              		.loc 1 429 11 is_stmt 0 view .LVU683
 2091 0030 94F82230 		ldrb	r3, [r4, #34]	@ zero_extendqisi2
 2092 0034 013B     		subs	r3, r3, #1
 2093 0036 84F82230 		strb	r3, [r4, #34]
 2094              		.loc 1 434 3 is_stmt 1 view .LVU684
 2095              		.loc 1 434 32 is_stmt 0 view .LVU685
 2096 003a 236A     		ldr	r3, [r4, #32]
 2097 003c 03F0FF13 		and	r3, r3, #16711935
 2098              		.loc 1 434 6 view .LVU686
 2099 0040 0F2B     		cmp	r3, #15
 2100 0042 03D0     		beq	.L52
 2101              		.loc 1 457 3 is_stmt 1 view .LVU687
 2102              	.LBB639:
 2103              	.LBI639:
 2104              		.loc 3 386 20 view .LVU688
 2105              	.LBB640:
 2106              		.loc 3 388 22 view .LVU689
 2107              		.loc 3 389 33 view .LVU690
 2108              		.loc 3 395 3 view .LVU691
ARM GAS  /tmp/cc4ZUYx9.s 			page 38


 2109              		.loc 3 395 3 view .LVU692
 2110              		.loc 3 395 3 view .LVU693
 2111              		.loc 3 399 3 view .LVU694
 2112              	.LBB641:
 2113              	.LBI641:
 2114              		.loc 4 618 20 view .LVU695
 2115              	.LBE641:
 2116              	.LBE640:
 2117              	.LBE639:
 2118              	.LBE665:
 2119              	.LBE671:
 2120              		.loc 4 621 3 view .LVU696
 2121              	.LVL97:
 2122              	.LBB672:
 2123              	.LBB666:
 2124              	.LBB646:
 2125              	.LBB645:
 2126              	.LBB644:
 2127              	.LBB642:
 2128              	.LBI642:
 2129              		.loc 5 262 57 view .LVU697
 2130              	.LBB643:
 2131              		.loc 5 264 3 view .LVU698
 2132              		.syntax unified
 2133              	@ 264 "../../../os/common/ext/CMSIS/include/cmsis_gcc.h" 1
 2134 0044 82F31188 		MSR basepri, r2
 2135              	@ 0 "" 2
 2136              	.LVL98:
 2137              		.loc 5 264 3 is_stmt 0 view .LVU699
 2138              		.thumb
 2139              		.syntax unified
 2140              	.LBE643:
 2141              	.LBE642:
 2142              	.LBE644:
 2143              	.LBE645:
 2144              	.LBE646:
 2145              	.LBE666:
 2146              	.LBE672:
 2147              		.loc 1 580 3 is_stmt 1 view .LVU700
 2148              	.L42:
 2149              		.loc 1 581 1 is_stmt 0 view .LVU701
 2150 0048 2846     		mov	r0, r5
 2151 004a 38BD     		pop	{r3, r4, r5, pc}
 2152              	.LVL99:
 2153              	.L52:
 2154              	.LBB673:
 2155              	.LBB667:
 2156              	.LBB647:
 2157              	.LBI647:
 2158              		.loc 1 425 6 is_stmt 1 view .LVU702
 2159              	.LBB648:
 2160              		.loc 1 435 5 view .LVU703
 2161 004c D4E90413 		ldrd	r1, r3, [r4, #16]
 2162 0050 1961     		str	r1, [r3, #16]
 2163              		.loc 1 435 5 view .LVU704
 2164 0052 2169     		ldr	r1, [r4, #16]
 2165 0054 4B61     		str	r3, [r1, #20]
ARM GAS  /tmp/cc4ZUYx9.s 			page 39


 2166              		.loc 1 435 19 view .LVU705
 2167              		.loc 1 436 5 view .LVU706
 2168              	.LBB649:
 2169              	.LBI649:
 2170              		.loc 3 386 20 view .LVU707
 2171              	.LBB650:
 2172              		.loc 3 388 22 view .LVU708
 2173              		.loc 3 389 33 view .LVU709
 2174              		.loc 3 395 3 view .LVU710
 2175              		.loc 3 395 3 view .LVU711
 2176              		.loc 3 395 3 view .LVU712
 2177              		.loc 3 399 3 view .LVU713
 2178              	.LBB651:
 2179              	.LBI651:
 2180              		.loc 4 618 20 view .LVU714
 2181              	.LBE651:
 2182              	.LBE650:
 2183              	.LBE649:
 2184              	.LBE648:
 2185              	.LBE647:
 2186              	.LBE667:
 2187              	.LBE673:
 2188              		.loc 4 621 3 view .LVU715
 2189              	.LVL100:
 2190              	.LBB674:
 2191              	.LBB668:
 2192              	.LBB662:
 2193              	.LBB661:
 2194              	.LBB656:
 2195              	.LBB655:
 2196              	.LBB654:
 2197              	.LBB652:
 2198              	.LBI652:
 2199              		.loc 5 262 57 view .LVU716
 2200              	.LBB653:
 2201              		.loc 5 264 3 view .LVU717
 2202              		.syntax unified
 2203              	@ 264 "../../../os/common/ext/CMSIS/include/cmsis_gcc.h" 1
 2204 0056 82F31188 		MSR basepri, r2
 2205              	@ 0 "" 2
 2206              	.LVL101:
 2207              		.loc 5 264 3 is_stmt 0 view .LVU718
 2208              		.thumb
 2209              		.syntax unified
 2210              	.LBE653:
 2211              	.LBE652:
 2212              	.LBE654:
 2213              	.LBE655:
 2214              	.LBE656:
 2215              		.loc 1 439 5 is_stmt 1 view .LVU719
 2216 005a 94F82130 		ldrb	r3, [r4, #33]	@ zero_extendqisi2
 2217 005e 03F00303 		and	r3, r3, #3
 2218 0062 012B     		cmp	r3, #1
 2219 0064 06D0     		beq	.L45
 2220 0066 022B     		cmp	r3, #2
 2221 0068 EED1     		bne	.L42
 2222              		.loc 1 447 7 view .LVU720
ARM GAS  /tmp/cc4ZUYx9.s 			page 40


 2223              	.LVL102:
 2224              	.LBB657:
 2225              	.LBI657:
 2226              		.loc 6 329 27 view .LVU721
 2227              	.LBB658:
 2228              		.loc 6 331 3 view .LVU722
 2229              		.loc 6 331 3 is_stmt 0 view .LVU723
 2230              	.LBE658:
 2231              	.LBE657:
 2232              		.loc 1 447 7 view .LVU724
 2233 006a E169     		ldr	r1, [r4, #28]
 2234 006c 206C     		ldr	r0, [r4, #64]
 2235 006e FFF7FEFF 		bl	chPoolFree
 2236              	.LVL103:
 2237              		.loc 1 448 7 is_stmt 1 view .LVU725
 2238 0072 E9E7     		b	.L42
 2239              	.L45:
 2240              		.loc 1 442 7 view .LVU726
 2241              	.LVL104:
 2242              	.LBB659:
 2243              	.LBI659:
 2244              		.loc 6 329 27 view .LVU727
 2245              	.LBB660:
 2246              		.loc 6 331 3 view .LVU728
 2247              		.loc 6 331 3 is_stmt 0 view .LVU729
 2248              	.LBE660:
 2249              	.LBE659:
 2250              		.loc 1 442 7 view .LVU730
 2251 0074 E069     		ldr	r0, [r4, #28]
 2252 0076 FFF7FEFF 		bl	chHeapFree
 2253              	.LVL105:
 2254              		.loc 1 443 7 is_stmt 1 view .LVU731
 2255 007a E5E7     		b	.L42
 2256              	.L54:
 2257              		.align	2
 2258              	.L53:
 2259 007c 00000000 		.word	ch
 2260              	.LBE661:
 2261              	.LBE662:
 2262              	.LBE668:
 2263              	.LBE674:
 2264              		.cfi_endproc
 2265              	.LFE257:
 2266              		.size	chThdWait, .-chThdWait
 2267              		.section	.text.chThdSetPriority,"ax",%progbits
 2268              		.align	1
 2269              		.p2align 4,,15
 2270              		.global	chThdSetPriority
 2271              		.syntax unified
 2272              		.thumb
 2273              		.thumb_func
 2274              		.fpu softvfp
 2275              		.type	chThdSetPriority, %function
 2276              	chThdSetPriority:
 2277              	.LVL106:
 2278              	.LFB258:
 2279              		.loc 1 596 43 view -0
ARM GAS  /tmp/cc4ZUYx9.s 			page 41


 2280              		.cfi_startproc
 2281              		@ args = 0, pretend = 0, frame = 0
 2282              		@ frame_needed = 0, uses_anonymous_args = 0
 2283              		.loc 1 597 3 view .LVU733
 2284              		.loc 1 599 3 view .LVU734
 2285              		.loc 1 599 3 view .LVU735
 2286              		.loc 1 599 3 view .LVU736
 2287              		.loc 1 601 3 view .LVU737
 2288              	.LBB675:
 2289              	.LBI675:
 2290              		.loc 3 374 20 view .LVU738
 2291              	.LBE675:
 2292              		.loc 3 376 3 view .LVU739
 2293              	.LBB683:
 2294              	.LBB676:
 2295              	.LBI676:
 2296              		.loc 4 594 20 view .LVU740
 2297              	.LBE676:
 2298              	.LBE683:
 2299              		.loc 4 602 3 view .LVU741
 2300              	.LBB684:
 2301              	.LBB681:
 2302              	.LBB677:
 2303              	.LBI677:
 2304              		.loc 5 262 57 view .LVU742
 2305              	.LBB678:
 2306              		.loc 5 264 3 view .LVU743
 2307              	.LBE678:
 2308              	.LBE677:
 2309              	.LBE681:
 2310              	.LBE684:
 2311              		.loc 1 596 43 is_stmt 0 view .LVU744
 2312 0000 10B5     		push	{r4, lr}
 2313              		.cfi_def_cfa_offset 8
 2314              		.cfi_offset 4, -8
 2315              		.cfi_offset 14, -4
 2316              	.LBB685:
 2317              	.LBB682:
 2318              	.LBB680:
 2319              	.LBB679:
 2320              		.loc 5 264 3 view .LVU745
 2321 0002 2022     		movs	r2, #32
 2322              		.syntax unified
 2323              	@ 264 "../../../os/common/ext/CMSIS/include/cmsis_gcc.h" 1
 2324 0004 82F31188 		MSR basepri, r2
 2325              	@ 0 "" 2
 2326              	.LVL107:
 2327              		.loc 5 264 3 view .LVU746
 2328              		.thumb
 2329              		.syntax unified
 2330              	.LBE679:
 2331              	.LBE680:
 2332              	.LBE682:
 2333              	.LBE685:
 2334              		.loc 3 377 34 is_stmt 1 view .LVU747
 2335              		.loc 3 378 20 view .LVU748
 2336              		.loc 1 603 3 view .LVU749
ARM GAS  /tmp/cc4ZUYx9.s 			page 42


 2337              		.loc 1 603 13 is_stmt 0 view .LVU750
 2338 0008 084A     		ldr	r2, .L59
 2339 000a 9269     		ldr	r2, [r2, #24]
 2340              		.loc 1 603 11 view .LVU751
 2341 000c D46B     		ldr	r4, [r2, #60]
 2342              	.LVL108:
 2343              		.loc 1 604 3 is_stmt 1 view .LVU752
 2344              		.loc 1 604 13 is_stmt 0 view .LVU753
 2345 000e 9168     		ldr	r1, [r2, #8]
 2346              		.loc 1 604 6 view .LVU754
 2347 0010 A142     		cmp	r1, r4
 2348 0012 01D0     		beq	.L56
 2349              		.loc 1 604 40 discriminator 1 view .LVU755
 2350 0014 8142     		cmp	r1, r0
 2351 0016 00D2     		bcs	.L57
 2352              	.L56:
 2353              		.loc 1 605 5 is_stmt 1 view .LVU756
 2354              		.loc 1 605 17 is_stmt 0 view .LVU757
 2355 0018 9060     		str	r0, [r2, #8]
 2356              	.L57:
 2357              		.loc 1 607 3 is_stmt 1 view .LVU758
 2358              		.loc 1 607 19 is_stmt 0 view .LVU759
 2359 001a D063     		str	r0, [r2, #60]
 2360              		.loc 1 612 3 is_stmt 1 view .LVU760
 2361 001c FFF7FEFF 		bl	chSchRescheduleS
 2362              	.LVL109:
 2363              		.loc 1 613 3 view .LVU761
 2364              	.LBB686:
 2365              	.LBI686:
 2366              		.loc 3 386 20 view .LVU762
 2367              	.LBB687:
 2368              		.loc 3 388 22 view .LVU763
 2369              		.loc 3 389 33 view .LVU764
 2370              		.loc 3 395 3 view .LVU765
 2371              		.loc 3 395 3 view .LVU766
 2372              		.loc 3 395 3 view .LVU767
 2373              		.loc 3 399 3 view .LVU768
 2374              	.LBB688:
 2375              	.LBI688:
 2376              		.loc 4 618 20 view .LVU769
 2377              	.LBE688:
 2378              	.LBE687:
 2379              	.LBE686:
 2380              		.loc 4 621 3 view .LVU770
 2381              	.LBB693:
 2382              	.LBB692:
 2383              	.LBB691:
 2384              	.LBB689:
 2385              	.LBI689:
 2386              		.loc 5 262 57 view .LVU771
 2387              	.LBB690:
 2388              		.loc 5 264 3 view .LVU772
 2389 0020 0023     		movs	r3, #0
 2390              		.syntax unified
 2391              	@ 264 "../../../os/common/ext/CMSIS/include/cmsis_gcc.h" 1
 2392 0022 83F31188 		MSR basepri, r3
 2393              	@ 0 "" 2
ARM GAS  /tmp/cc4ZUYx9.s 			page 43


 2394              	.LVL110:
 2395              		.loc 5 264 3 is_stmt 0 view .LVU773
 2396              		.thumb
 2397              		.syntax unified
 2398              	.LBE690:
 2399              	.LBE689:
 2400              	.LBE691:
 2401              	.LBE692:
 2402              	.LBE693:
 2403              		.loc 1 615 3 is_stmt 1 view .LVU774
 2404              		.loc 1 616 1 is_stmt 0 view .LVU775
 2405 0026 2046     		mov	r0, r4
 2406 0028 10BD     		pop	{r4, pc}
 2407              	.LVL111:
 2408              	.L60:
 2409              		.loc 1 616 1 view .LVU776
 2410 002a 00BF     		.align	2
 2411              	.L59:
 2412 002c 00000000 		.word	ch
 2413              		.cfi_endproc
 2414              	.LFE258:
 2415              		.size	chThdSetPriority, .-chThdSetPriority
 2416              		.section	.text.chThdTerminate,"ax",%progbits
 2417              		.align	1
 2418              		.p2align 4,,15
 2419              		.global	chThdTerminate
 2420              		.syntax unified
 2421              		.thumb
 2422              		.thumb_func
 2423              		.fpu softvfp
 2424              		.type	chThdTerminate, %function
 2425              	chThdTerminate:
 2426              	.LVL112:
 2427              	.LFB259:
 2428              		.loc 1 630 35 is_stmt 1 view -0
 2429              		.cfi_startproc
 2430              		@ args = 0, pretend = 0, frame = 0
 2431              		@ frame_needed = 0, uses_anonymous_args = 0
 2432              		@ link register save eliminated.
 2433              		.loc 1 632 3 view .LVU778
 2434              	.LBB694:
 2435              	.LBI694:
 2436              		.loc 3 374 20 view .LVU779
 2437              	.LBE694:
 2438              		.loc 3 376 3 view .LVU780
 2439              	.LBB699:
 2440              	.LBB695:
 2441              	.LBI695:
 2442              		.loc 4 594 20 view .LVU781
 2443              	.LBE695:
 2444              	.LBE699:
 2445              		.loc 4 602 3 view .LVU782
 2446              	.LBB700:
 2447              	.LBB698:
 2448              	.LBB696:
 2449              	.LBI696:
 2450              		.loc 5 262 57 view .LVU783
ARM GAS  /tmp/cc4ZUYx9.s 			page 44


 2451              	.LBB697:
 2452              		.loc 5 264 3 view .LVU784
 2453 0000 2023     		movs	r3, #32
 2454              		.syntax unified
 2455              	@ 264 "../../../os/common/ext/CMSIS/include/cmsis_gcc.h" 1
 2456 0002 83F31188 		MSR basepri, r3
 2457              	@ 0 "" 2
 2458              	.LVL113:
 2459              		.loc 5 264 3 is_stmt 0 view .LVU785
 2460              		.thumb
 2461              		.syntax unified
 2462              	.LBE697:
 2463              	.LBE696:
 2464              	.LBE698:
 2465              	.LBE700:
 2466              		.loc 3 377 34 is_stmt 1 view .LVU786
 2467              		.loc 3 378 20 view .LVU787
 2468              		.loc 1 633 3 view .LVU788
 2469              		.loc 1 633 13 is_stmt 0 view .LVU789
 2470 0006 90F82130 		ldrb	r3, [r0, #33]	@ zero_extendqisi2
 2471 000a 43F00403 		orr	r3, r3, #4
 2472              	.LBB701:
 2473              	.LBB702:
 2474              	.LBB703:
 2475              	.LBB704:
 2476              	.LBB705:
 2477              		.loc 5 264 3 view .LVU790
 2478 000e 0022     		movs	r2, #0
 2479              	.LBE705:
 2480              	.LBE704:
 2481              	.LBE703:
 2482              	.LBE702:
 2483              	.LBE701:
 2484              		.loc 1 633 13 view .LVU791
 2485 0010 80F82130 		strb	r3, [r0, #33]
 2486              		.loc 1 634 3 is_stmt 1 view .LVU792
 2487              	.LBB712:
 2488              	.LBI701:
 2489              		.loc 3 386 20 view .LVU793
 2490              	.LBB710:
 2491              		.loc 3 388 22 view .LVU794
 2492              		.loc 3 389 33 view .LVU795
 2493              		.loc 3 395 3 view .LVU796
 2494              		.loc 3 395 3 view .LVU797
 2495              		.loc 3 395 3 view .LVU798
 2496              		.loc 3 399 3 view .LVU799
 2497              	.LBB708:
 2498              	.LBI703:
 2499              		.loc 4 618 20 view .LVU800
 2500              	.LBE708:
 2501              	.LBE710:
 2502              	.LBE712:
 2503              		.loc 4 621 3 view .LVU801
 2504              	.LVL114:
 2505              	.LBB713:
 2506              	.LBB711:
 2507              	.LBB709:
ARM GAS  /tmp/cc4ZUYx9.s 			page 45


 2508              	.LBB707:
 2509              	.LBI704:
 2510              		.loc 5 262 57 view .LVU802
 2511              	.LBB706:
 2512              		.loc 5 264 3 view .LVU803
 2513              		.syntax unified
 2514              	@ 264 "../../../os/common/ext/CMSIS/include/cmsis_gcc.h" 1
 2515 0014 82F31188 		MSR basepri, r2
 2516              	@ 0 "" 2
 2517              	.LVL115:
 2518              		.loc 5 264 3 is_stmt 0 view .LVU804
 2519              		.thumb
 2520              		.syntax unified
 2521              	.LBE706:
 2522              	.LBE707:
 2523              	.LBE709:
 2524              	.LBE711:
 2525              	.LBE713:
 2526              		.loc 1 635 1 view .LVU805
 2527 0018 7047     		bx	lr
 2528              		.cfi_endproc
 2529              	.LFE259:
 2530              		.size	chThdTerminate, .-chThdTerminate
 2531 001a 00BF     		.section	.text.chThdSleep,"ax",%progbits
 2532              		.align	1
 2533              		.p2align 4,,15
 2534              		.global	chThdSleep
 2535              		.syntax unified
 2536              		.thumb
 2537              		.thumb_func
 2538              		.fpu softvfp
 2539              		.type	chThdSleep, %function
 2540              	chThdSleep:
 2541              	.LVL116:
 2542              	.LFB260:
 2543              		.loc 1 649 33 is_stmt 1 view -0
 2544              		.cfi_startproc
 2545              		@ args = 0, pretend = 0, frame = 0
 2546              		@ frame_needed = 0, uses_anonymous_args = 0
 2547              		.loc 1 651 3 view .LVU807
 2548              	.LBB714:
 2549              	.LBI714:
 2550              		.loc 3 374 20 view .LVU808
 2551              	.LBE714:
 2552              		.loc 3 376 3 view .LVU809
 2553              	.LBB722:
 2554              	.LBB715:
 2555              	.LBI715:
 2556              		.loc 4 594 20 view .LVU810
 2557              	.LBE715:
 2558              	.LBE722:
 2559              		.loc 4 602 3 view .LVU811
 2560              	.LBB723:
 2561              	.LBB720:
 2562              	.LBB716:
 2563              	.LBI716:
 2564              		.loc 5 262 57 view .LVU812
ARM GAS  /tmp/cc4ZUYx9.s 			page 46


 2565              	.LBB717:
 2566              		.loc 5 264 3 view .LVU813
 2567              	.LBE717:
 2568              	.LBE716:
 2569              	.LBE720:
 2570              	.LBE723:
 2571              		.loc 1 649 33 is_stmt 0 view .LVU814
 2572 0000 08B5     		push	{r3, lr}
 2573              		.cfi_def_cfa_offset 8
 2574              		.cfi_offset 3, -8
 2575              		.cfi_offset 14, -4
 2576              		.loc 1 649 33 view .LVU815
 2577 0002 0146     		mov	r1, r0
 2578              	.LBB724:
 2579              	.LBB721:
 2580              	.LBB719:
 2581              	.LBB718:
 2582              		.loc 5 264 3 view .LVU816
 2583 0004 2023     		movs	r3, #32
 2584              		.syntax unified
 2585              	@ 264 "../../../os/common/ext/CMSIS/include/cmsis_gcc.h" 1
 2586 0006 83F31188 		MSR basepri, r3
 2587              	@ 0 "" 2
 2588              	.LVL117:
 2589              		.loc 5 264 3 view .LVU817
 2590              		.thumb
 2591              		.syntax unified
 2592              	.LBE718:
 2593              	.LBE719:
 2594              	.LBE721:
 2595              	.LBE724:
 2596              		.loc 3 377 34 is_stmt 1 view .LVU818
 2597              		.loc 3 378 20 view .LVU819
 2598              		.loc 1 652 3 view .LVU820
 2599              	.LBB725:
 2600              	.LBI725:
 2601              		.loc 6 390 20 view .LVU821
 2602              	.LBB726:
 2603              		.loc 6 392 3 view .LVU822
 2604              		.loc 6 392 3 view .LVU823
 2605              		.loc 6 392 3 view .LVU824
 2606              		.loc 6 394 3 view .LVU825
 2607              		.loc 6 394 10 is_stmt 0 view .LVU826
 2608 000a 0820     		movs	r0, #8
 2609              	.LVL118:
 2610              		.loc 6 394 10 view .LVU827
 2611 000c FFF7FEFF 		bl	chSchGoSleepTimeoutS
 2612              	.LVL119:
 2613              		.loc 6 394 10 view .LVU828
 2614              	.LBE726:
 2615              	.LBE725:
 2616              		.loc 1 653 3 is_stmt 1 view .LVU829
 2617              	.LBB727:
 2618              	.LBI727:
 2619              		.loc 3 386 20 view .LVU830
 2620              	.LBB728:
 2621              		.loc 3 388 22 view .LVU831
ARM GAS  /tmp/cc4ZUYx9.s 			page 47


 2622              		.loc 3 389 33 view .LVU832
 2623              		.loc 3 395 3 view .LVU833
 2624              		.loc 3 395 3 view .LVU834
 2625              		.loc 3 395 3 view .LVU835
 2626              		.loc 3 399 3 view .LVU836
 2627              	.LBB729:
 2628              	.LBI729:
 2629              		.loc 4 618 20 view .LVU837
 2630              	.LBE729:
 2631              	.LBE728:
 2632              	.LBE727:
 2633              		.loc 4 621 3 view .LVU838
 2634              	.LBB734:
 2635              	.LBB733:
 2636              	.LBB732:
 2637              	.LBB730:
 2638              	.LBI730:
 2639              		.loc 5 262 57 view .LVU839
 2640              	.LBB731:
 2641              		.loc 5 264 3 view .LVU840
 2642 0010 0023     		movs	r3, #0
 2643              		.syntax unified
 2644              	@ 264 "../../../os/common/ext/CMSIS/include/cmsis_gcc.h" 1
 2645 0012 83F31188 		MSR basepri, r3
 2646              	@ 0 "" 2
 2647              	.LVL120:
 2648              		.loc 5 264 3 is_stmt 0 view .LVU841
 2649              		.thumb
 2650              		.syntax unified
 2651              	.LBE731:
 2652              	.LBE730:
 2653              	.LBE732:
 2654              	.LBE733:
 2655              	.LBE734:
 2656              		.loc 1 654 1 view .LVU842
 2657 0016 08BD     		pop	{r3, pc}
 2658              		.cfi_endproc
 2659              	.LFE260:
 2660              		.size	chThdSleep, .-chThdSleep
 2661              		.section	.text.chThdSleepUntil,"ax",%progbits
 2662              		.align	1
 2663              		.p2align 4,,15
 2664              		.global	chThdSleepUntil
 2665              		.syntax unified
 2666              		.thumb
 2667              		.thumb_func
 2668              		.fpu softvfp
 2669              		.type	chThdSleepUntil, %function
 2670              	chThdSleepUntil:
 2671              	.LVL121:
 2672              	.LFB261:
 2673              		.loc 1 669 38 is_stmt 1 view -0
 2674              		.cfi_startproc
 2675              		@ args = 0, pretend = 0, frame = 0
 2676              		@ frame_needed = 0, uses_anonymous_args = 0
 2677              		.loc 1 671 3 view .LVU844
 2678              	.LBB735:
ARM GAS  /tmp/cc4ZUYx9.s 			page 48


 2679              	.LBI735:
 2680              		.loc 3 374 20 view .LVU845
 2681              	.LBE735:
 2682              		.loc 3 376 3 view .LVU846
 2683              	.LBB743:
 2684              	.LBB736:
 2685              	.LBI736:
 2686              		.loc 4 594 20 view .LVU847
 2687              	.LBE736:
 2688              	.LBE743:
 2689              		.loc 4 602 3 view .LVU848
 2690              	.LBB744:
 2691              	.LBB741:
 2692              	.LBB737:
 2693              	.LBI737:
 2694              		.loc 5 262 57 view .LVU849
 2695              	.LBB738:
 2696              		.loc 5 264 3 view .LVU850
 2697              	.LBE738:
 2698              	.LBE737:
 2699              	.LBE741:
 2700              	.LBE744:
 2701              		.loc 1 669 38 is_stmt 0 view .LVU851
 2702 0000 08B5     		push	{r3, lr}
 2703              		.cfi_def_cfa_offset 8
 2704              		.cfi_offset 3, -8
 2705              		.cfi_offset 14, -4
 2706              	.LBB745:
 2707              	.LBB742:
 2708              	.LBB740:
 2709              	.LBB739:
 2710              		.loc 5 264 3 view .LVU852
 2711 0002 2023     		movs	r3, #32
 2712              		.syntax unified
 2713              	@ 264 "../../../os/common/ext/CMSIS/include/cmsis_gcc.h" 1
 2714 0004 83F31188 		MSR basepri, r3
 2715              	@ 0 "" 2
 2716              	.LVL122:
 2717              		.loc 5 264 3 view .LVU853
 2718              		.thumb
 2719              		.syntax unified
 2720              	.LBE739:
 2721              	.LBE740:
 2722              	.LBE742:
 2723              	.LBE745:
 2724              		.loc 3 377 34 is_stmt 1 view .LVU854
 2725              		.loc 3 378 20 view .LVU855
 2726              		.loc 1 672 3 view .LVU856
 2727              	.LBB746:
 2728              	.LBI746:
 2729              		.file 7 "../../../os/rt/include/chvt.h"
 2730              		.loc 7 392 25 view .LVU857
 2731              	.LBE746:
 2732              		.loc 7 397 3 view .LVU858
 2733              	.LBB751:
 2734              	.LBB747:
 2735              	.LBI747:
ARM GAS  /tmp/cc4ZUYx9.s 			page 49


 2736              		.file 8 "../../../os/common/ports/ARMCMx/chcore_timer.h"
 2737              		.loc 8 105 25 view .LVU859
 2738              	.LBE747:
 2739              	.LBE751:
 2740              		.loc 8 107 3 view .LVU860
 2741              	.LBB752:
 2742              	.LBB750:
 2743              	.LBB748:
 2744              	.LBI748:
 2745              		.file 9 "../../../os/hal/ports/STM32/LLD/TIMv1/hal_st_lld.h"
 2746              		.loc 9 139 25 view .LVU861
 2747              	.LBB749:
 2748              		.loc 9 141 3 view .LVU862
 2749              		.loc 9 141 10 is_stmt 0 view .LVU863
 2750 0008 4FF08043 		mov	r3, #1073741824
 2751 000c 596A     		ldr	r1, [r3, #36]
 2752              	.LVL123:
 2753              		.loc 9 141 10 view .LVU864
 2754              	.LBE749:
 2755              	.LBE748:
 2756              	.LBE750:
 2757              	.LBE752:
 2758              		.loc 1 673 3 is_stmt 1 view .LVU865
 2759              		.loc 1 673 6 is_stmt 0 view .LVU866
 2760 000e 411A     		subs	r1, r0, r1
 2761              	.LVL124:
 2762              		.loc 1 673 6 view .LVU867
 2763 0010 03D1     		bne	.L70
 2764              		.loc 1 676 3 is_stmt 1 view .LVU868
 2765              	.LBB753:
 2766              	.LBI753:
 2767              		.loc 3 386 20 view .LVU869
 2768              	.LBB754:
 2769              		.loc 3 388 22 view .LVU870
 2770              		.loc 3 389 33 view .LVU871
 2771              		.loc 3 395 3 view .LVU872
 2772              		.loc 3 395 3 view .LVU873
 2773              		.loc 3 395 3 view .LVU874
 2774              		.loc 3 399 3 view .LVU875
 2775              	.LBB755:
 2776              	.LBI755:
 2777              		.loc 4 618 20 view .LVU876
 2778              	.LBE755:
 2779              	.LBE754:
 2780              	.LBE753:
 2781              		.loc 4 621 3 view .LVU877
 2782              	.LVL125:
 2783              	.LBB766:
 2784              	.LBB763:
 2785              	.LBB760:
 2786              	.LBB756:
 2787              	.LBI756:
 2788              		.loc 5 262 57 view .LVU878
 2789              	.LBB757:
 2790              		.loc 5 264 3 view .LVU879
 2791 0012 0023     		movs	r3, #0
 2792              		.syntax unified
ARM GAS  /tmp/cc4ZUYx9.s 			page 50


 2793              	@ 264 "../../../os/common/ext/CMSIS/include/cmsis_gcc.h" 1
 2794 0014 83F31188 		MSR basepri, r3
 2795              	@ 0 "" 2
 2796              	.LVL126:
 2797              		.loc 5 264 3 is_stmt 0 view .LVU880
 2798              		.thumb
 2799              		.syntax unified
 2800              	.LBE757:
 2801              	.LBE756:
 2802              	.LBE760:
 2803              	.LBE763:
 2804              	.LBE766:
 2805              		.loc 1 677 1 view .LVU881
 2806 0018 08BD     		pop	{r3, pc}
 2807              	.L70:
 2808              		.loc 1 674 5 is_stmt 1 view .LVU882
 2809              	.LVL127:
 2810              	.LBB767:
 2811              	.LBI767:
 2812              		.loc 6 390 20 view .LVU883
 2813              	.LBB768:
 2814              		.loc 6 392 3 view .LVU884
 2815              		.loc 6 392 3 view .LVU885
 2816              		.loc 6 392 3 view .LVU886
 2817              		.loc 6 394 3 view .LVU887
 2818              		.loc 6 394 10 is_stmt 0 view .LVU888
 2819 001a 0820     		movs	r0, #8
 2820 001c FFF7FEFF 		bl	chSchGoSleepTimeoutS
 2821              	.LVL128:
 2822              		.loc 6 394 10 view .LVU889
 2823              	.LBE768:
 2824              	.LBE767:
 2825              		.loc 1 676 3 is_stmt 1 view .LVU890
 2826              	.LBB769:
 2827              		.loc 3 386 20 view .LVU891
 2828              	.LBB764:
 2829              		.loc 3 388 22 view .LVU892
 2830              		.loc 3 389 33 view .LVU893
 2831              		.loc 3 395 3 view .LVU894
 2832              		.loc 3 395 3 view .LVU895
 2833              		.loc 3 395 3 view .LVU896
 2834              		.loc 3 399 3 view .LVU897
 2835              	.LBB761:
 2836              		.loc 4 618 20 view .LVU898
 2837              	.LBE761:
 2838              	.LBE764:
 2839              	.LBE769:
 2840              		.loc 4 621 3 view .LVU899
 2841              	.LBB770:
 2842              	.LBB765:
 2843              	.LBB762:
 2844              	.LBB759:
 2845              		.loc 5 262 57 view .LVU900
 2846              	.LBB758:
 2847              		.loc 5 264 3 view .LVU901
 2848 0020 0023     		movs	r3, #0
 2849              		.syntax unified
ARM GAS  /tmp/cc4ZUYx9.s 			page 51


 2850              	@ 264 "../../../os/common/ext/CMSIS/include/cmsis_gcc.h" 1
 2851 0022 83F31188 		MSR basepri, r3
 2852              	@ 0 "" 2
 2853              	.LVL129:
 2854              		.loc 5 264 3 is_stmt 0 view .LVU902
 2855              		.thumb
 2856              		.syntax unified
 2857              	.LBE758:
 2858              	.LBE759:
 2859              	.LBE762:
 2860              	.LBE765:
 2861              	.LBE770:
 2862              		.loc 1 677 1 view .LVU903
 2863 0026 08BD     		pop	{r3, pc}
 2864              		.cfi_endproc
 2865              	.LFE261:
 2866              		.size	chThdSleepUntil, .-chThdSleepUntil
 2867              		.section	.text.chThdSleepUntilWindowed,"ax",%progbits
 2868              		.align	1
 2869              		.p2align 4,,15
 2870              		.global	chThdSleepUntilWindowed
 2871              		.syntax unified
 2872              		.thumb
 2873              		.thumb_func
 2874              		.fpu softvfp
 2875              		.type	chThdSleepUntilWindowed, %function
 2876              	chThdSleepUntilWindowed:
 2877              	.LVL130:
 2878              	.LFB262:
 2879              		.loc 1 693 67 is_stmt 1 view -0
 2880              		.cfi_startproc
 2881              		@ args = 0, pretend = 0, frame = 0
 2882              		@ frame_needed = 0, uses_anonymous_args = 0
 2883              		.loc 1 694 3 view .LVU905
 2884              		.loc 1 696 3 view .LVU906
 2885              	.LBB771:
 2886              	.LBI771:
 2887              		.loc 3 374 20 view .LVU907
 2888              	.LBE771:
 2889              		.loc 3 376 3 view .LVU908
 2890              	.LBB782:
 2891              	.LBB772:
 2892              	.LBI772:
 2893              		.loc 4 594 20 view .LVU909
 2894              	.LBE772:
 2895              	.LBE782:
 2896              		.loc 4 602 3 view .LVU910
 2897              	.LBB783:
 2898              	.LBB779:
 2899              	.LBB773:
 2900              	.LBI773:
 2901              		.loc 5 262 57 view .LVU911
 2902              	.LBB774:
 2903              		.loc 5 264 3 view .LVU912
 2904              	.LBE774:
 2905              	.LBE773:
 2906              	.LBE779:
ARM GAS  /tmp/cc4ZUYx9.s 			page 52


 2907              	.LBE783:
 2908              		.loc 1 693 67 is_stmt 0 view .LVU913
 2909 0000 10B5     		push	{r4, lr}
 2910              		.cfi_def_cfa_offset 8
 2911              		.cfi_offset 4, -8
 2912              		.cfi_offset 14, -4
 2913              	.LBB784:
 2914              	.LBB780:
 2915              	.LBB777:
 2916              	.LBB775:
 2917              		.loc 5 264 3 view .LVU914
 2918 0002 2023     		movs	r3, #32
 2919              	.LBE775:
 2920              	.LBE777:
 2921              	.LBE780:
 2922              	.LBE784:
 2923              		.loc 1 693 67 view .LVU915
 2924 0004 0C46     		mov	r4, r1
 2925              	.LBB785:
 2926              	.LBB781:
 2927              	.LBB778:
 2928              	.LBB776:
 2929              		.loc 5 264 3 view .LVU916
 2930              		.syntax unified
 2931              	@ 264 "../../../os/common/ext/CMSIS/include/cmsis_gcc.h" 1
 2932 0006 83F31188 		MSR basepri, r3
 2933              	@ 0 "" 2
 2934              	.LVL131:
 2935              		.loc 5 264 3 view .LVU917
 2936              		.thumb
 2937              		.syntax unified
 2938              	.LBE776:
 2939              	.LBE778:
 2940              	.LBE781:
 2941              	.LBE785:
 2942              		.loc 3 377 34 is_stmt 1 view .LVU918
 2943              		.loc 3 378 20 view .LVU919
 2944              		.loc 1 697 3 view .LVU920
 2945              	.LBB786:
 2946              	.LBI786:
 2947              		.loc 7 392 25 view .LVU921
 2948              	.LBE786:
 2949              		.loc 7 397 3 view .LVU922
 2950              	.LBB794:
 2951              	.LBB787:
 2952              	.LBI787:
 2953              		.loc 8 105 25 view .LVU923
 2954              	.LBE787:
 2955              	.LBE794:
 2956              		.loc 8 107 3 view .LVU924
 2957              	.LBB795:
 2958              	.LBB792:
 2959              	.LBB788:
 2960              	.LBI788:
 2961              		.loc 9 139 25 view .LVU925
 2962              	.LBB789:
 2963              		.loc 9 141 3 view .LVU926
ARM GAS  /tmp/cc4ZUYx9.s 			page 53


 2964              		.loc 9 141 10 is_stmt 0 view .LVU927
 2965 000a 4FF08042 		mov	r2, #1073741824
 2966              	.LBE789:
 2967              	.LBE788:
 2968              	.LBE792:
 2969              	.LBE795:
 2970              	.LBB796:
 2971              	.LBB797:
 2972              		.loc 7 452 61 view .LVU928
 2973 000e 0B1A     		subs	r3, r1, r0
 2974              	.LBE797:
 2975              	.LBE796:
 2976              	.LBB799:
 2977              	.LBB793:
 2978              	.LBB791:
 2979              	.LBB790:
 2980              		.loc 9 141 10 view .LVU929
 2981 0010 516A     		ldr	r1, [r2, #36]
 2982              	.LVL132:
 2983              		.loc 9 141 10 view .LVU930
 2984              	.LBE790:
 2985              	.LBE791:
 2986              	.LBE793:
 2987              	.LBE799:
 2988              		.loc 1 698 3 is_stmt 1 view .LVU931
 2989              	.LBB800:
 2990              	.LBI796:
 2991              		.loc 7 448 20 view .LVU932
 2992              	.LBB798:
 2993              		.loc 7 452 3 view .LVU933
 2994              		.loc 7 452 34 is_stmt 0 view .LVU934
 2995 0012 081A     		subs	r0, r1, r0
 2996              	.LVL133:
 2997              		.loc 7 452 34 view .LVU935
 2998              	.LBE798:
 2999              	.LBE800:
 3000              		.loc 1 698 6 view .LVU936
 3001 0014 9842     		cmp	r0, r3
 3002 0016 04D3     		bcc	.L74
 3003              		.loc 1 701 3 is_stmt 1 view .LVU937
 3004              	.LBB801:
 3005              	.LBI801:
 3006              		.loc 3 386 20 view .LVU938
 3007              	.LBB802:
 3008              		.loc 3 388 22 view .LVU939
 3009              		.loc 3 389 33 view .LVU940
 3010              		.loc 3 395 3 view .LVU941
 3011              		.loc 3 395 3 view .LVU942
 3012              		.loc 3 395 3 view .LVU943
 3013              		.loc 3 399 3 view .LVU944
 3014              	.LBB803:
 3015              	.LBI803:
 3016              		.loc 4 618 20 view .LVU945
 3017              	.LBE803:
 3018              	.LBE802:
 3019              	.LBE801:
 3020              		.loc 4 621 3 view .LVU946
ARM GAS  /tmp/cc4ZUYx9.s 			page 54


 3021              	.LVL134:
 3022              	.LBB814:
 3023              	.LBB811:
 3024              	.LBB808:
 3025              	.LBB804:
 3026              	.LBI804:
 3027              		.loc 5 262 57 view .LVU947
 3028              	.LBB805:
 3029              		.loc 5 264 3 view .LVU948
 3030 0018 0023     		movs	r3, #0
 3031              		.syntax unified
 3032              	@ 264 "../../../os/common/ext/CMSIS/include/cmsis_gcc.h" 1
 3033 001a 83F31188 		MSR basepri, r3
 3034              	@ 0 "" 2
 3035              	.LVL135:
 3036              		.loc 5 264 3 is_stmt 0 view .LVU949
 3037              		.thumb
 3038              		.syntax unified
 3039              	.LBE805:
 3040              	.LBE804:
 3041              	.LBE808:
 3042              	.LBE811:
 3043              	.LBE814:
 3044              		.loc 1 703 3 is_stmt 1 view .LVU950
 3045              		.loc 1 704 1 is_stmt 0 view .LVU951
 3046 001e 2046     		mov	r0, r4
 3047 0020 10BD     		pop	{r4, pc}
 3048              	.LVL136:
 3049              	.L74:
 3050              		.loc 1 699 5 is_stmt 1 view .LVU952
 3051              	.LBB815:
 3052              	.LBI815:
 3053              		.loc 6 390 20 view .LVU953
 3054              	.LBB816:
 3055              		.loc 6 392 3 view .LVU954
 3056              		.loc 6 392 3 view .LVU955
 3057              		.loc 6 392 3 view .LVU956
 3058              		.loc 6 394 3 view .LVU957
 3059              		.loc 6 394 10 is_stmt 0 view .LVU958
 3060 0022 611A     		subs	r1, r4, r1
 3061              	.LVL137:
 3062              		.loc 6 394 10 view .LVU959
 3063 0024 0820     		movs	r0, #8
 3064 0026 FFF7FEFF 		bl	chSchGoSleepTimeoutS
 3065              	.LVL138:
 3066              		.loc 6 394 10 view .LVU960
 3067              	.LBE816:
 3068              	.LBE815:
 3069              		.loc 1 701 3 is_stmt 1 view .LVU961
 3070              	.LBB817:
 3071              		.loc 3 386 20 view .LVU962
 3072              	.LBB812:
 3073              		.loc 3 388 22 view .LVU963
 3074              		.loc 3 389 33 view .LVU964
 3075              		.loc 3 395 3 view .LVU965
 3076              		.loc 3 395 3 view .LVU966
 3077              		.loc 3 395 3 view .LVU967
ARM GAS  /tmp/cc4ZUYx9.s 			page 55


 3078              		.loc 3 399 3 view .LVU968
 3079              	.LBB809:
 3080              		.loc 4 618 20 view .LVU969
 3081              	.LBE809:
 3082              	.LBE812:
 3083              	.LBE817:
 3084              		.loc 4 621 3 view .LVU970
 3085              	.LBB818:
 3086              	.LBB813:
 3087              	.LBB810:
 3088              	.LBB807:
 3089              		.loc 5 262 57 view .LVU971
 3090              	.LBB806:
 3091              		.loc 5 264 3 view .LVU972
 3092 002a 0023     		movs	r3, #0
 3093              		.syntax unified
 3094              	@ 264 "../../../os/common/ext/CMSIS/include/cmsis_gcc.h" 1
 3095 002c 83F31188 		MSR basepri, r3
 3096              	@ 0 "" 2
 3097              	.LVL139:
 3098              		.loc 5 264 3 is_stmt 0 view .LVU973
 3099              		.thumb
 3100              		.syntax unified
 3101              	.LBE806:
 3102              	.LBE807:
 3103              	.LBE810:
 3104              	.LBE813:
 3105              	.LBE818:
 3106              		.loc 1 703 3 is_stmt 1 view .LVU974
 3107              		.loc 1 704 1 is_stmt 0 view .LVU975
 3108 0030 2046     		mov	r0, r4
 3109 0032 10BD     		pop	{r4, pc}
 3110              		.loc 1 704 1 view .LVU976
 3111              		.cfi_endproc
 3112              	.LFE262:
 3113              		.size	chThdSleepUntilWindowed, .-chThdSleepUntilWindowed
 3114              		.section	.text.chThdYield,"ax",%progbits
 3115              		.align	1
 3116              		.p2align 4,,15
 3117              		.global	chThdYield
 3118              		.syntax unified
 3119              		.thumb
 3120              		.thumb_func
 3121              		.fpu softvfp
 3122              		.type	chThdYield, %function
 3123              	chThdYield:
 3124              	.LFB263:
 3125              		.loc 1 713 23 is_stmt 1 view -0
 3126              		.cfi_startproc
 3127              		@ args = 0, pretend = 0, frame = 0
 3128              		@ frame_needed = 0, uses_anonymous_args = 0
 3129              		.loc 1 715 3 view .LVU978
 3130              	.LBB832:
 3131              	.LBI832:
 3132              		.loc 3 374 20 view .LVU979
 3133              	.LBE832:
 3134              		.loc 3 376 3 view .LVU980
ARM GAS  /tmp/cc4ZUYx9.s 			page 56


 3135              	.LBB840:
 3136              	.LBB833:
 3137              	.LBI833:
 3138              		.loc 4 594 20 view .LVU981
 3139              	.LBE833:
 3140              	.LBE840:
 3141              		.loc 4 602 3 view .LVU982
 3142              	.LVL140:
 3143              	.LBB841:
 3144              	.LBB838:
 3145              	.LBB834:
 3146              	.LBI834:
 3147              		.loc 5 262 57 view .LVU983
 3148              	.LBB835:
 3149              		.loc 5 264 3 view .LVU984
 3150              	.LBE835:
 3151              	.LBE834:
 3152              	.LBE838:
 3153              	.LBE841:
 3154              		.loc 1 713 23 is_stmt 0 view .LVU985
 3155 0000 08B5     		push	{r3, lr}
 3156              		.cfi_def_cfa_offset 8
 3157              		.cfi_offset 3, -8
 3158              		.cfi_offset 14, -4
 3159              	.LBB842:
 3160              	.LBB839:
 3161              	.LBB837:
 3162              	.LBB836:
 3163              		.loc 5 264 3 view .LVU986
 3164 0002 2023     		movs	r3, #32
 3165              		.syntax unified
 3166              	@ 264 "../../../os/common/ext/CMSIS/include/cmsis_gcc.h" 1
 3167 0004 83F31188 		MSR basepri, r3
 3168              	@ 0 "" 2
 3169              	.LVL141:
 3170              		.loc 5 264 3 view .LVU987
 3171              		.thumb
 3172              		.syntax unified
 3173              	.LBE836:
 3174              	.LBE837:
 3175              	.LBE839:
 3176              	.LBE842:
 3177              		.loc 3 377 34 is_stmt 1 view .LVU988
 3178              		.loc 3 378 20 view .LVU989
 3179              		.loc 1 716 3 view .LVU990
 3180              	.LBB843:
 3181              	.LBI843:
 3182              		.loc 2 687 20 view .LVU991
 3183              	.LBB844:
 3184              		.loc 2 689 21 view .LVU992
 3185              		.loc 2 691 3 view .LVU993
 3186              	.LBB845:
 3187              	.LBI845:
 3188              		.loc 2 673 20 view .LVU994
 3189              	.LBB846:
 3190              		.loc 2 675 21 view .LVU995
 3191              		.loc 2 677 3 view .LVU996
ARM GAS  /tmp/cc4ZUYx9.s 			page 57


 3192              		.loc 2 677 10 is_stmt 0 view .LVU997
 3193 0008 084B     		ldr	r3, .L79
 3194 000a 1A68     		ldr	r2, [r3]
 3195              		.loc 2 677 45 view .LVU998
 3196 000c 9B69     		ldr	r3, [r3, #24]
 3197              	.LBE846:
 3198              	.LBE845:
 3199              		.loc 2 691 6 view .LVU999
 3200 000e 9268     		ldr	r2, [r2, #8]
 3201 0010 9B68     		ldr	r3, [r3, #8]
 3202 0012 9A42     		cmp	r2, r3
 3203 0014 03D2     		bcs	.L78
 3204              	.LBE844:
 3205              	.LBE843:
 3206              		.loc 1 717 3 is_stmt 1 view .LVU1000
 3207              	.LBB848:
 3208              	.LBI848:
 3209              		.loc 3 386 20 view .LVU1001
 3210              	.LBB849:
 3211              		.loc 3 388 22 view .LVU1002
 3212              		.loc 3 389 33 view .LVU1003
 3213              		.loc 3 395 3 view .LVU1004
 3214              		.loc 3 395 3 view .LVU1005
 3215              		.loc 3 395 3 view .LVU1006
 3216              		.loc 3 399 3 view .LVU1007
 3217              	.LBB850:
 3218              	.LBI850:
 3219              		.loc 4 618 20 view .LVU1008
 3220              	.LBE850:
 3221              	.LBE849:
 3222              	.LBE848:
 3223              		.loc 4 621 3 view .LVU1009
 3224              	.LVL142:
 3225              	.LBB861:
 3226              	.LBB858:
 3227              	.LBB855:
 3228              	.LBB851:
 3229              	.LBI851:
 3230              		.loc 5 262 57 view .LVU1010
 3231              	.LBB852:
 3232              		.loc 5 264 3 view .LVU1011
 3233 0016 0023     		movs	r3, #0
 3234              		.syntax unified
 3235              	@ 264 "../../../os/common/ext/CMSIS/include/cmsis_gcc.h" 1
 3236 0018 83F31188 		MSR basepri, r3
 3237              	@ 0 "" 2
 3238              	.LVL143:
 3239              		.loc 5 264 3 is_stmt 0 view .LVU1012
 3240              		.thumb
 3241              		.syntax unified
 3242              	.LBE852:
 3243              	.LBE851:
 3244              	.LBE855:
 3245              	.LBE858:
 3246              	.LBE861:
 3247              		.loc 1 718 1 view .LVU1013
 3248 001c 08BD     		pop	{r3, pc}
ARM GAS  /tmp/cc4ZUYx9.s 			page 58


 3249              	.L78:
 3250              	.LBB862:
 3251              	.LBB847:
 3252              		.loc 2 692 5 is_stmt 1 view .LVU1014
 3253 001e FFF7FEFF 		bl	chSchDoRescheduleBehind
 3254              	.LVL144:
 3255              	.LBE847:
 3256              	.LBE862:
 3257              		.loc 1 717 3 view .LVU1015
 3258              	.LBB863:
 3259              		.loc 3 386 20 view .LVU1016
 3260              	.LBB859:
 3261              		.loc 3 388 22 view .LVU1017
 3262              		.loc 3 389 33 view .LVU1018
 3263              		.loc 3 395 3 view .LVU1019
 3264              		.loc 3 395 3 view .LVU1020
 3265              		.loc 3 395 3 view .LVU1021
 3266              		.loc 3 399 3 view .LVU1022
 3267              	.LBB856:
 3268              		.loc 4 618 20 view .LVU1023
 3269              	.LBE856:
 3270              	.LBE859:
 3271              	.LBE863:
 3272              		.loc 4 621 3 view .LVU1024
 3273              	.LBB864:
 3274              	.LBB860:
 3275              	.LBB857:
 3276              	.LBB854:
 3277              		.loc 5 262 57 view .LVU1025
 3278              	.LBB853:
 3279              		.loc 5 264 3 view .LVU1026
 3280 0022 0023     		movs	r3, #0
 3281              		.syntax unified
 3282              	@ 264 "../../../os/common/ext/CMSIS/include/cmsis_gcc.h" 1
 3283 0024 83F31188 		MSR basepri, r3
 3284              	@ 0 "" 2
 3285              	.LVL145:
 3286              		.loc 5 264 3 is_stmt 0 view .LVU1027
 3287              		.thumb
 3288              		.syntax unified
 3289              	.LBE853:
 3290              	.LBE854:
 3291              	.LBE857:
 3292              	.LBE860:
 3293              	.LBE864:
 3294              		.loc 1 718 1 view .LVU1028
 3295 0028 08BD     		pop	{r3, pc}
 3296              	.L80:
 3297 002a 00BF     		.align	2
 3298              	.L79:
 3299 002c 00000000 		.word	ch
 3300              		.cfi_endproc
 3301              	.LFE263:
 3302              		.size	chThdYield, .-chThdYield
 3303              		.section	.text.chThdSuspendS,"ax",%progbits
 3304              		.align	1
 3305              		.p2align 4,,15
ARM GAS  /tmp/cc4ZUYx9.s 			page 59


 3306              		.global	chThdSuspendS
 3307              		.syntax unified
 3308              		.thumb
 3309              		.thumb_func
 3310              		.fpu softvfp
 3311              		.type	chThdSuspendS, %function
 3312              	chThdSuspendS:
 3313              	.LVL146:
 3314              	.LFB264:
 3315              		.loc 1 730 46 is_stmt 1 view -0
 3316              		.cfi_startproc
 3317              		@ args = 0, pretend = 0, frame = 0
 3318              		@ frame_needed = 0, uses_anonymous_args = 0
 3319              		.loc 1 731 3 view .LVU1030
 3320              	.LBB865:
 3321              	.LBI865:
 3322              		.loc 6 284 25 view .LVU1031
 3323              	.LBB866:
 3324              		.loc 6 286 3 view .LVU1032
 3325              	.LBE866:
 3326              	.LBE865:
 3327              		.loc 1 730 46 is_stmt 0 view .LVU1033
 3328 0000 10B5     		push	{r4, lr}
 3329              		.cfi_def_cfa_offset 8
 3330              		.cfi_offset 4, -8
 3331              		.cfi_offset 14, -4
 3332              	.LBB869:
 3333              	.LBB867:
 3334              		.loc 6 286 18 view .LVU1034
 3335 0002 054C     		ldr	r4, .L83
 3336              	.LBE867:
 3337              	.LBE869:
 3338              		.loc 1 730 46 view .LVU1035
 3339 0004 0346     		mov	r3, r0
 3340              	.LBB870:
 3341              	.LBB868:
 3342              		.loc 6 286 18 view .LVU1036
 3343 0006 A269     		ldr	r2, [r4, #24]
 3344              	.LVL147:
 3345              		.loc 6 286 18 view .LVU1037
 3346              	.LBE868:
 3347              	.LBE870:
 3348              		.loc 1 733 3 is_stmt 1 view .LVU1038
 3349              		.loc 1 733 3 view .LVU1039
 3350              		.loc 1 733 3 view .LVU1040
 3351              		.loc 1 735 3 view .LVU1041
 3352              		.loc 1 735 8 is_stmt 0 view .LVU1042
 3353 0008 1A60     		str	r2, [r3]
 3354              		.loc 1 736 3 is_stmt 1 view .LVU1043
 3355              		.loc 1 737 3 is_stmt 0 view .LVU1044
 3356 000a 0320     		movs	r0, #3
 3357              	.LVL148:
 3358              		.loc 1 736 15 view .LVU1045
 3359 000c 5362     		str	r3, [r2, #36]
 3360              		.loc 1 737 3 is_stmt 1 view .LVU1046
 3361 000e FFF7FEFF 		bl	chSchGoSleepS
 3362              	.LVL149:
ARM GAS  /tmp/cc4ZUYx9.s 			page 60


 3363              		.loc 1 739 3 view .LVU1047
 3364              	.LBB871:
 3365              	.LBI871:
 3366              		.loc 6 284 25 view .LVU1048
 3367              	.LBB872:
 3368              		.loc 6 286 3 view .LVU1049
 3369              	.LBE872:
 3370              	.LBE871:
 3371              		.loc 1 739 28 is_stmt 0 view .LVU1050
 3372 0012 A369     		ldr	r3, [r4, #24]
 3373              		.loc 1 740 1 view .LVU1051
 3374 0014 586A     		ldr	r0, [r3, #36]
 3375 0016 10BD     		pop	{r4, pc}
 3376              	.L84:
 3377              		.align	2
 3378              	.L83:
 3379 0018 00000000 		.word	ch
 3380              		.cfi_endproc
 3381              	.LFE264:
 3382              		.size	chThdSuspendS, .-chThdSuspendS
 3383              		.section	.text.chThdSuspendTimeoutS,"ax",%progbits
 3384              		.align	1
 3385              		.p2align 4,,15
 3386              		.global	chThdSuspendTimeoutS
 3387              		.syntax unified
 3388              		.thumb
 3389              		.thumb_func
 3390              		.fpu softvfp
 3391              		.type	chThdSuspendTimeoutS, %function
 3392              	chThdSuspendTimeoutS:
 3393              	.LVL150:
 3394              	.LFB265:
 3395              		.loc 1 761 72 is_stmt 1 view -0
 3396              		.cfi_startproc
 3397              		@ args = 0, pretend = 0, frame = 0
 3398              		@ frame_needed = 0, uses_anonymous_args = 0
 3399              		@ link register save eliminated.
 3400              		.loc 1 762 3 view .LVU1053
 3401              	.LBB873:
 3402              	.LBI873:
 3403              		.loc 6 284 25 view .LVU1054
 3404              	.LBB874:
 3405              		.loc 6 286 3 view .LVU1055
 3406              		.loc 6 286 18 is_stmt 0 view .LVU1056
 3407 0000 054B     		ldr	r3, .L87
 3408 0002 9A69     		ldr	r2, [r3, #24]
 3409              	.LVL151:
 3410              		.loc 6 286 18 view .LVU1057
 3411              	.LBE874:
 3412              	.LBE873:
 3413              		.loc 1 764 3 is_stmt 1 view .LVU1058
 3414              		.loc 1 764 3 view .LVU1059
 3415              		.loc 1 764 3 view .LVU1060
 3416              		.loc 1 766 3 view .LVU1061
 3417              		.loc 1 761 72 is_stmt 0 view .LVU1062
 3418 0004 0346     		mov	r3, r0
 3419              		.loc 1 766 6 view .LVU1063
ARM GAS  /tmp/cc4ZUYx9.s 			page 61


 3420 0006 21B1     		cbz	r1, .L86
 3421              		.loc 1 770 3 is_stmt 1 view .LVU1064
 3422              		.loc 1 770 8 is_stmt 0 view .LVU1065
 3423 0008 0260     		str	r2, [r0]
 3424              		.loc 1 771 3 is_stmt 1 view .LVU1066
 3425              		.loc 1 773 10 is_stmt 0 view .LVU1067
 3426 000a 0320     		movs	r0, #3
 3427              	.LVL152:
 3428              		.loc 1 771 15 view .LVU1068
 3429 000c 5362     		str	r3, [r2, #36]
 3430              		.loc 1 773 3 is_stmt 1 view .LVU1069
 3431              		.loc 1 773 10 is_stmt 0 view .LVU1070
 3432 000e FFF7FEBF 		b	chSchGoSleepTimeoutS
 3433              	.LVL153:
 3434              	.L86:
 3435              		.loc 1 774 1 view .LVU1071
 3436 0012 4FF0FF30 		mov	r0, #-1
 3437              	.LVL154:
 3438              		.loc 1 774 1 view .LVU1072
 3439 0016 7047     		bx	lr
 3440              	.L88:
 3441              		.align	2
 3442              	.L87:
 3443 0018 00000000 		.word	ch
 3444              		.cfi_endproc
 3445              	.LFE265:
 3446              		.size	chThdSuspendTimeoutS, .-chThdSuspendTimeoutS
 3447              		.section	.text.chThdResumeI,"ax",%progbits
 3448              		.align	1
 3449              		.p2align 4,,15
 3450              		.global	chThdResumeI
 3451              		.syntax unified
 3452              		.thumb
 3453              		.thumb_func
 3454              		.fpu softvfp
 3455              		.type	chThdResumeI, %function
 3456              	chThdResumeI:
 3457              	.LVL155:
 3458              	.LFB266:
 3459              		.loc 1 786 55 is_stmt 1 view -0
 3460              		.cfi_startproc
 3461              		@ args = 0, pretend = 0, frame = 0
 3462              		@ frame_needed = 0, uses_anonymous_args = 0
 3463              		@ link register save eliminated.
 3464              		.loc 1 788 3 view .LVU1074
 3465              		.loc 1 786 55 is_stmt 0 view .LVU1075
 3466 0000 0346     		mov	r3, r0
 3467              		.loc 1 788 7 view .LVU1076
 3468 0002 0068     		ldr	r0, [r0]
 3469              	.LVL156:
 3470              		.loc 1 788 6 view .LVU1077
 3471 0004 20B1     		cbz	r0, .L89
 3472              	.LBB875:
 3473              		.loc 1 789 5 is_stmt 1 view .LVU1078
 3474              	.LVL157:
 3475              		.loc 1 791 5 view .LVU1079
 3476              		.loc 1 791 5 view .LVU1080
ARM GAS  /tmp/cc4ZUYx9.s 			page 62


 3477              		.loc 1 791 5 view .LVU1081
 3478              		.loc 1 793 5 view .LVU1082
 3479              		.loc 1 793 10 is_stmt 0 view .LVU1083
 3480 0006 0022     		movs	r2, #0
 3481 0008 1A60     		str	r2, [r3]
 3482              		.loc 1 794 5 is_stmt 1 view .LVU1084
 3483              		.loc 1 794 18 is_stmt 0 view .LVU1085
 3484 000a 4162     		str	r1, [r0, #36]
 3485              		.loc 1 795 5 is_stmt 1 view .LVU1086
 3486              		.loc 1 795 12 is_stmt 0 view .LVU1087
 3487 000c FFF7FEBF 		b	chSchReadyI
 3488              	.LVL158:
 3489              	.L89:
 3490              		.loc 1 795 12 view .LVU1088
 3491              	.LBE875:
 3492              		.loc 1 797 1 view .LVU1089
 3493 0010 7047     		bx	lr
 3494              		.cfi_endproc
 3495              	.LFE266:
 3496              		.size	chThdResumeI, .-chThdResumeI
 3497 0012 00BF     		.section	.text.chThdResumeS,"ax",%progbits
 3498              		.align	1
 3499              		.p2align 4,,15
 3500              		.global	chThdResumeS
 3501              		.syntax unified
 3502              		.thumb
 3503              		.thumb_func
 3504              		.fpu softvfp
 3505              		.type	chThdResumeS, %function
 3506              	chThdResumeS:
 3507              	.LVL159:
 3508              	.LFB267:
 3509              		.loc 1 809 55 is_stmt 1 view -0
 3510              		.cfi_startproc
 3511              		@ args = 0, pretend = 0, frame = 0
 3512              		@ frame_needed = 0, uses_anonymous_args = 0
 3513              		@ link register save eliminated.
 3514              		.loc 1 811 3 view .LVU1091
 3515              		.loc 1 809 55 is_stmt 0 view .LVU1092
 3516 0000 0346     		mov	r3, r0
 3517              		.loc 1 811 7 view .LVU1093
 3518 0002 0068     		ldr	r0, [r0]
 3519              	.LVL160:
 3520              		.loc 1 811 6 view .LVU1094
 3521 0004 18B1     		cbz	r0, .L91
 3522              	.LBB876:
 3523              		.loc 1 812 5 is_stmt 1 view .LVU1095
 3524              	.LVL161:
 3525              		.loc 1 814 5 view .LVU1096
 3526              		.loc 1 814 5 view .LVU1097
 3527              		.loc 1 814 5 view .LVU1098
 3528              		.loc 1 816 5 view .LVU1099
 3529              		.loc 1 816 10 is_stmt 0 view .LVU1100
 3530 0006 0022     		movs	r2, #0
 3531 0008 1A60     		str	r2, [r3]
 3532              		.loc 1 817 5 is_stmt 1 view .LVU1101
 3533 000a FFF7FEBF 		b	chSchWakeupS
ARM GAS  /tmp/cc4ZUYx9.s 			page 63


 3534              	.LVL162:
 3535              	.L91:
 3536              		.loc 1 817 5 is_stmt 0 view .LVU1102
 3537              	.LBE876:
 3538              		.loc 1 819 1 view .LVU1103
 3539 000e 7047     		bx	lr
 3540              		.cfi_endproc
 3541              	.LFE267:
 3542              		.size	chThdResumeS, .-chThdResumeS
 3543              		.section	.text.chThdResume,"ax",%progbits
 3544              		.align	1
 3545              		.p2align 4,,15
 3546              		.global	chThdResume
 3547              		.syntax unified
 3548              		.thumb
 3549              		.thumb_func
 3550              		.fpu softvfp
 3551              		.type	chThdResume, %function
 3552              	chThdResume:
 3553              	.LVL163:
 3554              	.LFB268:
 3555              		.loc 1 831 54 is_stmt 1 view -0
 3556              		.cfi_startproc
 3557              		@ args = 0, pretend = 0, frame = 0
 3558              		@ frame_needed = 0, uses_anonymous_args = 0
 3559              		.loc 1 831 54 is_stmt 0 view .LVU1105
 3560 0000 08B5     		push	{r3, lr}
 3561              		.cfi_def_cfa_offset 8
 3562              		.cfi_offset 3, -8
 3563              		.cfi_offset 14, -4
 3564              	.LBB877:
 3565              	.LBB878:
 3566              	.LBB879:
 3567              	.LBB880:
 3568              		.loc 5 264 3 view .LVU1106
 3569 0002 2022     		movs	r2, #32
 3570              	.LBE880:
 3571              	.LBE879:
 3572              	.LBE878:
 3573              	.LBE877:
 3574              		.loc 1 831 54 view .LVU1107
 3575 0004 0346     		mov	r3, r0
 3576              		.loc 1 833 3 is_stmt 1 view .LVU1108
 3577              	.LBB885:
 3578              	.LBI877:
 3579              		.loc 3 374 20 view .LVU1109
 3580              	.LBE885:
 3581              		.loc 3 376 3 view .LVU1110
 3582              	.LBB886:
 3583              	.LBB883:
 3584              	.LBI878:
 3585              		.loc 4 594 20 view .LVU1111
 3586              	.LBE883:
 3587              	.LBE886:
 3588              		.loc 4 602 3 view .LVU1112
 3589              	.LVL164:
 3590              	.LBB887:
ARM GAS  /tmp/cc4ZUYx9.s 			page 64


 3591              	.LBB884:
 3592              	.LBB882:
 3593              	.LBI879:
 3594              		.loc 5 262 57 view .LVU1113
 3595              	.LBB881:
 3596              		.loc 5 264 3 view .LVU1114
 3597              		.syntax unified
 3598              	@ 264 "../../../os/common/ext/CMSIS/include/cmsis_gcc.h" 1
 3599 0006 82F31188 		MSR basepri, r2
 3600              	@ 0 "" 2
 3601              	.LVL165:
 3602              		.loc 5 264 3 is_stmt 0 view .LVU1115
 3603              		.thumb
 3604              		.syntax unified
 3605              	.LBE881:
 3606              	.LBE882:
 3607              	.LBE884:
 3608              	.LBE887:
 3609              		.loc 3 377 34 is_stmt 1 view .LVU1116
 3610              		.loc 3 378 20 view .LVU1117
 3611              		.loc 1 834 3 view .LVU1118
 3612              	.LBB888:
 3613              	.LBI888:
 3614              		.loc 1 809 6 view .LVU1119
 3615              	.LBB889:
 3616              		.loc 1 811 3 view .LVU1120
 3617              		.loc 1 811 7 is_stmt 0 view .LVU1121
 3618 000a 0068     		ldr	r0, [r0]
 3619              	.LVL166:
 3620              		.loc 1 811 6 view .LVU1122
 3621 000c 18B1     		cbz	r0, .L94
 3622              	.LBB890:
 3623              		.loc 1 812 5 is_stmt 1 view .LVU1123
 3624              	.LVL167:
 3625              		.loc 1 814 5 view .LVU1124
 3626              		.loc 1 814 5 view .LVU1125
 3627              		.loc 1 814 5 view .LVU1126
 3628              		.loc 1 816 5 view .LVU1127
 3629              		.loc 1 816 10 is_stmt 0 view .LVU1128
 3630 000e 0022     		movs	r2, #0
 3631 0010 1A60     		str	r2, [r3]
 3632              		.loc 1 817 5 is_stmt 1 view .LVU1129
 3633 0012 FFF7FEFF 		bl	chSchWakeupS
 3634              	.LVL168:
 3635              	.L94:
 3636              		.loc 1 817 5 is_stmt 0 view .LVU1130
 3637              	.LBE890:
 3638              	.LBE889:
 3639              	.LBE888:
 3640              		.loc 1 835 3 is_stmt 1 view .LVU1131
 3641              	.LBB891:
 3642              	.LBI891:
 3643              		.loc 3 386 20 view .LVU1132
 3644              	.LBB892:
 3645              		.loc 3 388 22 view .LVU1133
 3646              		.loc 3 389 33 view .LVU1134
 3647              		.loc 3 395 3 view .LVU1135
ARM GAS  /tmp/cc4ZUYx9.s 			page 65


 3648              		.loc 3 395 3 view .LVU1136
 3649              		.loc 3 395 3 view .LVU1137
 3650              		.loc 3 399 3 view .LVU1138
 3651              	.LBB893:
 3652              	.LBI893:
 3653              		.loc 4 618 20 view .LVU1139
 3654              	.LBE893:
 3655              	.LBE892:
 3656              	.LBE891:
 3657              		.loc 4 621 3 view .LVU1140
 3658              	.LBB898:
 3659              	.LBB897:
 3660              	.LBB896:
 3661              	.LBB894:
 3662              	.LBI894:
 3663              		.loc 5 262 57 view .LVU1141
 3664              	.LBB895:
 3665              		.loc 5 264 3 view .LVU1142
 3666 0016 0023     		movs	r3, #0
 3667              		.syntax unified
 3668              	@ 264 "../../../os/common/ext/CMSIS/include/cmsis_gcc.h" 1
 3669 0018 83F31188 		MSR basepri, r3
 3670              	@ 0 "" 2
 3671              	.LVL169:
 3672              		.loc 5 264 3 is_stmt 0 view .LVU1143
 3673              		.thumb
 3674              		.syntax unified
 3675              	.LBE895:
 3676              	.LBE894:
 3677              	.LBE896:
 3678              	.LBE897:
 3679              	.LBE898:
 3680              		.loc 1 836 1 view .LVU1144
 3681 001c 08BD     		pop	{r3, pc}
 3682              		.cfi_endproc
 3683              	.LFE268:
 3684              		.size	chThdResume, .-chThdResume
 3685 001e 00BF     		.section	.text.chThdEnqueueTimeoutS,"ax",%progbits
 3686              		.align	1
 3687              		.p2align 4,,15
 3688              		.global	chThdEnqueueTimeoutS
 3689              		.syntax unified
 3690              		.thumb
 3691              		.thumb_func
 3692              		.fpu softvfp
 3693              		.type	chThdEnqueueTimeoutS, %function
 3694              	chThdEnqueueTimeoutS:
 3695              	.LVL170:
 3696              	.LFB269:
 3697              		.loc 1 861 69 is_stmt 1 view -0
 3698              		.cfi_startproc
 3699              		@ args = 0, pretend = 0, frame = 0
 3700              		@ frame_needed = 0, uses_anonymous_args = 0
 3701              		@ link register save eliminated.
 3702              		.loc 1 863 3 view .LVU1146
 3703              		.loc 1 863 6 is_stmt 0 view .LVU1147
 3704 0000 61B1     		cbz	r1, .L100
ARM GAS  /tmp/cc4ZUYx9.s 			page 66


 3705              		.loc 1 867 3 view .LVU1148
 3706 0002 084A     		ldr	r2, .L104
 3707              		.loc 1 861 69 view .LVU1149
 3708 0004 10B4     		push	{r4}
 3709              		.cfi_def_cfa_offset 4
 3710              		.cfi_offset 4, -4
 3711              		.loc 1 867 3 view .LVU1150
 3712 0006 9269     		ldr	r2, [r2, #24]
 3713              	.LBB899:
 3714              	.LBB900:
 3715              		.loc 2 612 35 view .LVU1151
 3716 0008 4468     		ldr	r4, [r0, #4]
 3717 000a 0346     		mov	r3, r0
 3718              	.LBE900:
 3719              	.LBE899:
 3720              		.loc 1 867 3 is_stmt 1 view .LVU1152
 3721              	.LVL171:
 3722              	.LBB904:
 3723              	.LBI899:
 3724              		.loc 2 609 20 view .LVU1153
 3725              	.LBB901:
 3726              		.loc 2 611 3 view .LVU1154
 3727              		.loc 2 612 30 is_stmt 0 view .LVU1155
 3728 000c C2E90034 		strd	r3, r4, [r2]
 3729              		.loc 2 613 3 is_stmt 1 view .LVU1156
 3730              	.LBE901:
 3731              	.LBE904:
 3732              		.loc 1 869 10 is_stmt 0 view .LVU1157
 3733 0010 0420     		movs	r0, #4
 3734              	.LVL172:
 3735              	.LBB905:
 3736              	.LBB902:
 3737              		.loc 2 613 30 view .LVU1158
 3738 0012 2260     		str	r2, [r4]
 3739              		.loc 2 614 3 is_stmt 1 view .LVU1159
 3740              	.LBE902:
 3741              	.LBE905:
 3742              		.loc 1 870 1 is_stmt 0 view .LVU1160
 3743 0014 10BC     		pop	{r4}
 3744              		.cfi_restore 4
 3745              		.cfi_def_cfa_offset 0
 3746              	.LBB906:
 3747              	.LBB903:
 3748              		.loc 2 614 30 view .LVU1161
 3749 0016 5A60     		str	r2, [r3, #4]
 3750              	.LVL173:
 3751              		.loc 2 614 30 view .LVU1162
 3752              	.LBE903:
 3753              	.LBE906:
 3754              		.loc 1 869 3 is_stmt 1 view .LVU1163
 3755              		.loc 1 869 10 is_stmt 0 view .LVU1164
 3756 0018 FFF7FEBF 		b	chSchGoSleepTimeoutS
 3757              	.LVL174:
 3758              	.L100:
 3759              		.loc 1 870 1 view .LVU1165
 3760 001c 4FF0FF30 		mov	r0, #-1
 3761              	.LVL175:
ARM GAS  /tmp/cc4ZUYx9.s 			page 67


 3762              		.loc 1 870 1 view .LVU1166
 3763 0020 7047     		bx	lr
 3764              	.L105:
 3765 0022 00BF     		.align	2
 3766              	.L104:
 3767 0024 00000000 		.word	ch
 3768              		.cfi_endproc
 3769              	.LFE269:
 3770              		.size	chThdEnqueueTimeoutS, .-chThdEnqueueTimeoutS
 3771              		.section	.text.chThdDequeueNextI,"ax",%progbits
 3772              		.align	1
 3773              		.p2align 4,,15
 3774              		.global	chThdDequeueNextI
 3775              		.syntax unified
 3776              		.thumb
 3777              		.thumb_func
 3778              		.fpu softvfp
 3779              		.type	chThdDequeueNextI, %function
 3780              	chThdDequeueNextI:
 3781              	.LVL176:
 3782              	.LFB270:
 3783              		.loc 1 881 57 is_stmt 1 view -0
 3784              		.cfi_startproc
 3785              		@ args = 0, pretend = 0, frame = 0
 3786              		@ frame_needed = 0, uses_anonymous_args = 0
 3787              		@ link register save eliminated.
 3788              		.loc 1 883 3 view .LVU1168
 3789              		.loc 1 881 57 is_stmt 0 view .LVU1169
 3790 0000 0346     		mov	r3, r0
 3791              	.LVL177:
 3792              	.LBB907:
 3793              	.LBI907:
 3794              		.loc 2 575 20 is_stmt 1 view .LVU1170
 3795              	.LBB908:
 3796              		.loc 2 577 3 view .LVU1171
 3797              		.loc 2 577 20 is_stmt 0 view .LVU1172
 3798 0002 0068     		ldr	r0, [r0]
 3799              	.LVL178:
 3800              		.loc 2 577 20 view .LVU1173
 3801              	.LBE908:
 3802              	.LBE907:
 3803              		.loc 1 883 6 view .LVU1174
 3804 0004 8342     		cmp	r3, r0
 3805 0006 05D0     		beq	.L106
 3806              		.loc 1 884 5 is_stmt 1 view .LVU1175
 3807              	.LVL179:
 3808              	.LBB909:
 3809              	.LBI909:
 3810              		.loc 6 437 20 view .LVU1176
 3811              	.LBB910:
 3812              		.loc 6 438 3 view .LVU1177
 3813              		.loc 6 440 3 view .LVU1178
 3814              		.loc 6 440 3 view .LVU1179
 3815              		.loc 6 440 3 view .LVU1180
 3816              		.loc 6 442 3 view .LVU1181
 3817              	.LBB911:
 3818              	.LBI911:
ARM GAS  /tmp/cc4ZUYx9.s 			page 68


 3819              		.loc 2 617 25 view .LVU1182
 3820              	.LBB912:
 3821              		.loc 2 618 3 view .LVU1183
 3822              		.loc 2 620 3 view .LVU1184
 3823              		.loc 2 620 36 is_stmt 0 view .LVU1185
 3824 0008 0268     		ldr	r2, [r0]
 3825              		.loc 2 620 25 view .LVU1186
 3826 000a 1A60     		str	r2, [r3]
 3827              		.loc 2 621 3 is_stmt 1 view .LVU1187
 3828              		.loc 2 621 25 is_stmt 0 view .LVU1188
 3829 000c 5360     		str	r3, [r2, #4]
 3830              		.loc 2 623 3 is_stmt 1 view .LVU1189
 3831              	.LVL180:
 3832              		.loc 2 623 3 is_stmt 0 view .LVU1190
 3833              	.LBE912:
 3834              	.LBE911:
 3835              		.loc 6 444 3 is_stmt 1 view .LVU1191
 3836              		.loc 6 444 3 view .LVU1192
 3837              		.loc 6 444 3 view .LVU1193
 3838              		.loc 6 446 3 view .LVU1194
 3839              		.loc 6 446 16 is_stmt 0 view .LVU1195
 3840 000e 4162     		str	r1, [r0, #36]
 3841              		.loc 6 447 3 is_stmt 1 view .LVU1196
 3842              		.loc 6 447 10 is_stmt 0 view .LVU1197
 3843 0010 FFF7FEBF 		b	chSchReadyI
 3844              	.LVL181:
 3845              	.L106:
 3846              		.loc 6 447 10 view .LVU1198
 3847              	.LBE910:
 3848              	.LBE909:
 3849              		.loc 1 886 1 view .LVU1199
 3850 0014 7047     		bx	lr
 3851              		.cfi_endproc
 3852              	.LFE270:
 3853              		.size	chThdDequeueNextI, .-chThdDequeueNextI
 3854 0016 00BF     		.section	.text.chThdDequeueAllI,"ax",%progbits
 3855              		.align	1
 3856              		.p2align 4,,15
 3857              		.global	chThdDequeueAllI
 3858              		.syntax unified
 3859              		.thumb
 3860              		.thumb_func
 3861              		.fpu softvfp
 3862              		.type	chThdDequeueAllI, %function
 3863              	chThdDequeueAllI:
 3864              	.LVL182:
 3865              	.LFB271:
 3866              		.loc 1 896 56 is_stmt 1 view -0
 3867              		.cfi_startproc
 3868              		@ args = 0, pretend = 0, frame = 0
 3869              		@ frame_needed = 0, uses_anonymous_args = 0
 3870              		.loc 1 898 3 view .LVU1201
 3871              		.loc 1 898 9 view .LVU1202
 3872              		.loc 1 896 56 is_stmt 0 view .LVU1203
 3873 0000 38B5     		push	{r3, r4, r5, lr}
 3874              		.cfi_def_cfa_offset 16
 3875              		.cfi_offset 3, -16
ARM GAS  /tmp/cc4ZUYx9.s 			page 69


 3876              		.cfi_offset 4, -12
 3877              		.cfi_offset 5, -8
 3878              		.cfi_offset 14, -4
 3879              		.loc 1 896 56 view .LVU1204
 3880 0002 0446     		mov	r4, r0
 3881              	.LVL183:
 3882              	.LBB913:
 3883              	.LBI913:
 3884              		.loc 2 575 20 is_stmt 1 view .LVU1205
 3885              	.LBB914:
 3886              		.loc 2 577 3 view .LVU1206
 3887              		.loc 2 577 20 is_stmt 0 view .LVU1207
 3888 0004 0068     		ldr	r0, [r0]
 3889              	.LVL184:
 3890              		.loc 2 577 20 view .LVU1208
 3891              	.LBE914:
 3892              	.LBE913:
 3893              		.loc 1 898 9 view .LVU1209
 3894 0006 8442     		cmp	r4, r0
 3895 0008 09D0     		beq	.L108
 3896 000a 0D46     		mov	r5, r1
 3897              	.LVL185:
 3898              	.L110:
 3899              		.loc 1 899 5 is_stmt 1 view .LVU1210
 3900              	.LBB916:
 3901              	.LBI916:
 3902              		.loc 6 437 20 view .LVU1211
 3903              	.LBB917:
 3904              		.loc 6 438 3 view .LVU1212
 3905              		.loc 6 440 3 view .LVU1213
 3906              		.loc 6 440 3 view .LVU1214
 3907              		.loc 6 440 3 view .LVU1215
 3908              		.loc 6 442 3 view .LVU1216
 3909              	.LBB918:
 3910              	.LBI918:
 3911              		.loc 2 617 25 view .LVU1217
 3912              	.LBB919:
 3913              		.loc 2 618 3 view .LVU1218
 3914              		.loc 2 620 3 view .LVU1219
 3915              		.loc 2 620 36 is_stmt 0 view .LVU1220
 3916 000c 0368     		ldr	r3, [r0]
 3917              		.loc 2 620 25 view .LVU1221
 3918 000e 2360     		str	r3, [r4]
 3919              		.loc 2 621 3 is_stmt 1 view .LVU1222
 3920              		.loc 2 621 25 is_stmt 0 view .LVU1223
 3921 0010 5C60     		str	r4, [r3, #4]
 3922              		.loc 2 623 3 is_stmt 1 view .LVU1224
 3923              	.LVL186:
 3924              		.loc 2 623 3 is_stmt 0 view .LVU1225
 3925              	.LBE919:
 3926              	.LBE918:
 3927              		.loc 6 444 3 is_stmt 1 view .LVU1226
 3928              		.loc 6 444 3 view .LVU1227
 3929              		.loc 6 444 3 view .LVU1228
 3930              		.loc 6 446 3 view .LVU1229
 3931              		.loc 6 446 16 is_stmt 0 view .LVU1230
 3932 0012 4562     		str	r5, [r0, #36]
ARM GAS  /tmp/cc4ZUYx9.s 			page 70


 3933              		.loc 6 447 3 is_stmt 1 view .LVU1231
 3934              		.loc 6 447 10 is_stmt 0 view .LVU1232
 3935 0014 FFF7FEFF 		bl	chSchReadyI
 3936              	.LVL187:
 3937              		.loc 6 447 10 view .LVU1233
 3938              	.LBE917:
 3939              	.LBE916:
 3940              		.loc 1 898 9 is_stmt 1 view .LVU1234
 3941              	.LBB920:
 3942              		.loc 2 575 20 view .LVU1235
 3943              	.LBB915:
 3944              		.loc 2 577 3 view .LVU1236
 3945              		.loc 2 577 20 is_stmt 0 view .LVU1237
 3946 0018 2068     		ldr	r0, [r4]
 3947              	.LVL188:
 3948              		.loc 2 577 20 view .LVU1238
 3949              	.LBE915:
 3950              	.LBE920:
 3951              		.loc 1 898 9 view .LVU1239
 3952 001a 8442     		cmp	r4, r0
 3953 001c F6D1     		bne	.L110
 3954              	.LVL189:
 3955              	.L108:
 3956              		.loc 1 901 1 view .LVU1240
 3957 001e 38BD     		pop	{r3, r4, r5, pc}
 3958              		.loc 1 901 1 view .LVU1241
 3959              		.cfi_endproc
 3960              	.LFE271:
 3961              		.size	chThdDequeueAllI, .-chThdDequeueAllI
 3962              		.text
 3963              	.Letext0:
 3964              		.file 10 "/usr/lib/gcc/arm-none-eabi/10.3.1/include/stddef.h"
 3965              		.file 11 "/usr/lib/gcc/arm-none-eabi/10.3.1/include/stdint.h"
 3966              		.file 12 "../../../os/common/ports/ARMCMx/compilers/GCC/chtypes.h"
 3967              		.file 13 "../../../os/rt/include/chsystypes.h"
 3968              		.file 14 "../../../os/common/ports/ARMCMx/chcore.h"
 3969              		.file 15 "../../../os/hal/ports/STM32/LLD/TIMv1/stm32_tim.h"
 3970              		.file 16 "../../../os/rt/include/chtm.h"
 3971              		.file 17 "../../../os/rt/include/chsem.h"
 3972              		.file 18 "../../../os/rt/include/chmtx.h"
 3973              		.file 19 "../../../os/common/oslib/include/chmempools.h"
 3974              		.file 20 "../../../os/common/oslib/include/chheap.h"
 3975              		.section	.debug_info,"",%progbits
 3976              	.Ldebug_info0:
 3977 0000 84260000 		.4byte	0x2684
 3978 0004 0400     		.2byte	0x4
 3979 0006 00000000 		.4byte	.Ldebug_abbrev0
 3980 000a 04       		.byte	0x4
 3981 000b 01       		.uleb128 0x1
 3982 000c 2E040000 		.4byte	.LASF167
 3983 0010 0C       		.byte	0xc
 3984 0011 A9050000 		.4byte	.LASF168
 3985 0015 00000000 		.4byte	.LASF169
 3986 0019 C0070000 		.4byte	.Ldebug_ranges0+0x7c0
 3987 001d 00000000 		.4byte	0
 3988 0021 00000000 		.4byte	.Ldebug_line0
 3989 0025 02       		.uleb128 0x2
ARM GAS  /tmp/cc4ZUYx9.s 			page 71


 3990 0026 04       		.byte	0x4
 3991 0027 05       		.byte	0x5
 3992 0028 696E7400 		.ascii	"int\000"
 3993 002c 03       		.uleb128 0x3
 3994 002d 65000000 		.4byte	.LASF5
 3995 0031 0A       		.byte	0xa
 3996 0032 D1       		.byte	0xd1
 3997 0033 17       		.byte	0x17
 3998 0034 38000000 		.4byte	0x38
 3999 0038 04       		.uleb128 0x4
 4000 0039 04       		.byte	0x4
 4001 003a 07       		.byte	0x7
 4002 003b D7020000 		.4byte	.LASF0
 4003 003f 04       		.uleb128 0x4
 4004 0040 08       		.byte	0x8
 4005 0041 05       		.byte	0x5
 4006 0042 4B020000 		.4byte	.LASF1
 4007 0046 04       		.uleb128 0x4
 4008 0047 08       		.byte	0x8
 4009 0048 04       		.byte	0x4
 4010 0049 22040000 		.4byte	.LASF2
 4011 004d 04       		.uleb128 0x4
 4012 004e 01       		.byte	0x1
 4013 004f 06       		.byte	0x6
 4014 0050 B4010000 		.4byte	.LASF3
 4015 0054 04       		.uleb128 0x4
 4016 0055 02       		.byte	0x2
 4017 0056 05       		.byte	0x5
 4018 0057 02060000 		.4byte	.LASF4
 4019 005b 03       		.uleb128 0x3
 4020 005c EC050000 		.4byte	.LASF6
 4021 0060 0B       		.byte	0xb
 4022 0061 28       		.byte	0x28
 4023 0062 18       		.byte	0x18
 4024 0063 67000000 		.4byte	0x67
 4025 0067 04       		.uleb128 0x4
 4026 0068 04       		.byte	0x4
 4027 0069 05       		.byte	0x5
 4028 006a 20020000 		.4byte	.LASF7
 4029 006e 03       		.uleb128 0x3
 4030 006f DC070000 		.4byte	.LASF8
 4031 0073 0B       		.byte	0xb
 4032 0074 2E       		.byte	0x2e
 4033 0075 18       		.byte	0x18
 4034 0076 7A000000 		.4byte	0x7a
 4035 007a 04       		.uleb128 0x4
 4036 007b 01       		.byte	0x1
 4037 007c 08       		.byte	0x8
 4038 007d F4050000 		.4byte	.LASF9
 4039 0081 04       		.uleb128 0x4
 4040 0082 02       		.byte	0x2
 4041 0083 07       		.byte	0x7
 4042 0084 56070000 		.4byte	.LASF10
 4043 0088 03       		.uleb128 0x3
 4044 0089 A4060000 		.4byte	.LASF11
 4045 008d 0B       		.byte	0xb
 4046 008e 34       		.byte	0x34
ARM GAS  /tmp/cc4ZUYx9.s 			page 72


 4047 008f 19       		.byte	0x19
 4048 0090 99000000 		.4byte	0x99
 4049 0094 05       		.uleb128 0x5
 4050 0095 88000000 		.4byte	0x88
 4051 0099 04       		.uleb128 0x4
 4052 009a 04       		.byte	0x4
 4053 009b 07       		.byte	0x7
 4054 009c D6060000 		.4byte	.LASF12
 4055 00a0 03       		.uleb128 0x3
 4056 00a1 84000000 		.4byte	.LASF13
 4057 00a5 0B       		.byte	0xb
 4058 00a6 37       		.byte	0x37
 4059 00a7 19       		.byte	0x19
 4060 00a8 AC000000 		.4byte	0xac
 4061 00ac 04       		.uleb128 0x4
 4062 00ad 08       		.byte	0x8
 4063 00ae 07       		.byte	0x7
 4064 00af 23010000 		.4byte	.LASF14
 4065 00b3 03       		.uleb128 0x3
 4066 00b4 F0030000 		.4byte	.LASF15
 4067 00b8 0C       		.byte	0xc
 4068 00b9 39       		.byte	0x39
 4069 00ba 1D       		.byte	0x1d
 4070 00bb 88000000 		.4byte	0x88
 4071 00bf 03       		.uleb128 0x3
 4072 00c0 3A080000 		.4byte	.LASF16
 4073 00c4 0C       		.byte	0xc
 4074 00c5 3C       		.byte	0x3c
 4075 00c6 1D       		.byte	0x1d
 4076 00c7 6E000000 		.4byte	0x6e
 4077 00cb 03       		.uleb128 0x3
 4078 00cc 29020000 		.4byte	.LASF17
 4079 00d0 0C       		.byte	0xc
 4080 00d1 3D       		.byte	0x3d
 4081 00d2 1D       		.byte	0x1d
 4082 00d3 6E000000 		.4byte	0x6e
 4083 00d7 03       		.uleb128 0x3
 4084 00d8 84050000 		.4byte	.LASF18
 4085 00dc 0C       		.byte	0xc
 4086 00dd 3E       		.byte	0x3e
 4087 00de 1D       		.byte	0x1d
 4088 00df 6E000000 		.4byte	0x6e
 4089 00e3 03       		.uleb128 0x3
 4090 00e4 A1050000 		.4byte	.LASF19
 4091 00e8 0C       		.byte	0xc
 4092 00e9 40       		.byte	0x40
 4093 00ea 1D       		.byte	0x1d
 4094 00eb 88000000 		.4byte	0x88
 4095 00ef 03       		.uleb128 0x3
 4096 00f0 2C030000 		.4byte	.LASF20
 4097 00f4 0C       		.byte	0xc
 4098 00f5 41       		.byte	0x41
 4099 00f6 1D       		.byte	0x1d
 4100 00f7 5B000000 		.4byte	0x5b
 4101 00fb 03       		.uleb128 0x3
 4102 00fc 85030000 		.4byte	.LASF21
 4103 0100 0C       		.byte	0xc
ARM GAS  /tmp/cc4ZUYx9.s 			page 73


 4104 0101 43       		.byte	0x43
 4105 0102 1D       		.byte	0x1d
 4106 0103 88000000 		.4byte	0x88
 4107 0107 03       		.uleb128 0x3
 4108 0108 BE020000 		.4byte	.LASF22
 4109 010c 0C       		.byte	0xc
 4110 010d 45       		.byte	0x45
 4111 010e 1D       		.byte	0x1d
 4112 010f 5B000000 		.4byte	0x5b
 4113 0113 03       		.uleb128 0x3
 4114 0114 2E070000 		.4byte	.LASF23
 4115 0118 0D       		.byte	0xd
 4116 0119 33       		.byte	0x33
 4117 011a 12       		.byte	0x12
 4118 011b 88000000 		.4byte	0x88
 4119 011f 03       		.uleb128 0x3
 4120 0120 FF060000 		.4byte	.LASF24
 4121 0124 0D       		.byte	0xd
 4122 0125 3F       		.byte	0x3f
 4123 0126 1A       		.byte	0x1a
 4124 0127 2B010000 		.4byte	0x12b
 4125 012b 06       		.uleb128 0x6
 4126 012c 22030000 		.4byte	.LASF42
 4127 0130 44       		.byte	0x44
 4128 0131 02       		.byte	0x2
 4129 0132 9A       		.byte	0x9a
 4130 0133 08       		.byte	0x8
 4131 0134 1B020000 		.4byte	0x21b
 4132 0138 07       		.uleb128 0x7
 4133 0139 59020000 		.4byte	.LASF25
 4134 013d 02       		.byte	0x2
 4135 013e 9B       		.byte	0x9b
 4136 013f 19       		.byte	0x19
 4137 0140 54020000 		.4byte	0x254
 4138 0144 00       		.byte	0
 4139 0145 07       		.uleb128 0x7
 4140 0146 42050000 		.4byte	.LASF26
 4141 014a 02       		.byte	0x2
 4142 014b 9C       		.byte	0x9c
 4143 014c 19       		.byte	0x19
 4144 014d E3000000 		.4byte	0xe3
 4145 0151 08       		.byte	0x8
 4146 0152 08       		.uleb128 0x8
 4147 0153 63747800 		.ascii	"ctx\000"
 4148 0157 02       		.byte	0x2
 4149 0158 9D       		.byte	0x9d
 4150 0159 19       		.byte	0x19
 4151 015a 9A040000 		.4byte	0x49a
 4152 015e 0C       		.byte	0xc
 4153 015f 07       		.uleb128 0x7
 4154 0160 7D070000 		.4byte	.LASF27
 4155 0164 02       		.byte	0x2
 4156 0165 9F       		.byte	0x9f
 4157 0166 1A       		.byte	0x1a
 4158 0167 27020000 		.4byte	0x227
 4159 016b 10       		.byte	0x10
 4160 016c 07       		.uleb128 0x7
ARM GAS  /tmp/cc4ZUYx9.s 			page 74


 4161 016d F4060000 		.4byte	.LASF28
 4162 0171 02       		.byte	0x2
 4163 0172 A0       		.byte	0xa0
 4164 0173 1A       		.byte	0x1a
 4165 0174 27020000 		.4byte	0x227
 4166 0178 14       		.byte	0x14
 4167 0179 07       		.uleb128 0x7
 4168 017a 12030000 		.4byte	.LASF29
 4169 017e 02       		.byte	0x2
 4170 017f A7       		.byte	0xa7
 4171 0180 1A       		.byte	0x1a
 4172 0181 6C070000 		.4byte	0x76c
 4173 0185 18       		.byte	0x18
 4174 0186 07       		.uleb128 0x7
 4175 0187 E8060000 		.4byte	.LASF30
 4176 018b 02       		.byte	0x2
 4177 018c B0       		.byte	0xb0
 4178 018d 1A       		.byte	0x1a
 4179 018e 83070000 		.4byte	0x783
 4180 0192 1C       		.byte	0x1c
 4181 0193 07       		.uleb128 0x7
 4182 0194 1A020000 		.4byte	.LASF31
 4183 0198 02       		.byte	0x2
 4184 0199 B5       		.byte	0xb5
 4185 019a 19       		.byte	0x19
 4186 019b CB000000 		.4byte	0xcb
 4187 019f 20       		.byte	0x20
 4188 01a0 07       		.uleb128 0x7
 4189 01a1 EF070000 		.4byte	.LASF32
 4190 01a5 02       		.byte	0x2
 4191 01a6 B9       		.byte	0xb9
 4192 01a7 19       		.byte	0x19
 4193 01a8 BF000000 		.4byte	0xbf
 4194 01ac 21       		.byte	0x21
 4195 01ad 07       		.uleb128 0x7
 4196 01ae 8C050000 		.4byte	.LASF33
 4197 01b2 02       		.byte	0x2
 4198 01b3 BE       		.byte	0xbe
 4199 01b4 19       		.byte	0x19
 4200 01b5 D7000000 		.4byte	0xd7
 4201 01b9 22       		.byte	0x22
 4202 01ba 09       		.uleb128 0x9
 4203 01bb 7500     		.ascii	"u\000"
 4204 01bd 02       		.byte	0x2
 4205 01be 0F01     		.2byte	0x10f
 4206 01c0 19       		.byte	0x19
 4207 01c1 91060000 		.4byte	0x691
 4208 01c5 24       		.byte	0x24
 4209 01c6 0A       		.uleb128 0xa
 4210 01c7 2A060000 		.4byte	.LASF34
 4211 01cb 02       		.byte	0x2
 4212 01cc 1401     		.2byte	0x114
 4213 01ce 19       		.byte	0x19
 4214 01cf 2D020000 		.4byte	0x22d
 4215 01d3 28       		.byte	0x28
 4216 01d4 0A       		.uleb128 0xa
 4217 01d5 9D030000 		.4byte	.LASF35
ARM GAS  /tmp/cc4ZUYx9.s 			page 75


 4218 01d9 02       		.byte	0x2
 4219 01da 1A01     		.2byte	0x11a
 4220 01dc 19       		.byte	0x19
 4221 01dd 54020000 		.4byte	0x254
 4222 01e1 2C       		.byte	0x2c
 4223 01e2 0A       		.uleb128 0xa
 4224 01e3 32030000 		.4byte	.LASF36
 4225 01e7 02       		.byte	0x2
 4226 01e8 2001     		.2byte	0x120
 4227 01ea 19       		.byte	0x19
 4228 01eb FB000000 		.4byte	0xfb
 4229 01ef 34       		.byte	0x34
 4230 01f0 0A       		.uleb128 0xa
 4231 01f1 69080000 		.4byte	.LASF37
 4232 01f5 02       		.byte	0x2
 4233 01f6 2701     		.2byte	0x127
 4234 01f8 1A       		.byte	0x1a
 4235 01f9 66070000 		.4byte	0x766
 4236 01fd 38       		.byte	0x38
 4237 01fe 0A       		.uleb128 0xa
 4238 01ff D2030000 		.4byte	.LASF38
 4239 0203 02       		.byte	0x2
 4240 0204 2B01     		.2byte	0x12b
 4241 0206 19       		.byte	0x19
 4242 0207 E3000000 		.4byte	0xe3
 4243 020b 3C       		.byte	0x3c
 4244 020c 0A       		.uleb128 0xa
 4245 020d 17030000 		.4byte	.LASF39
 4246 0211 02       		.byte	0x2
 4247 0212 3201     		.2byte	0x132
 4248 0214 1A       		.byte	0x1a
 4249 0215 19030000 		.4byte	0x319
 4250 0219 40       		.byte	0x40
 4251 021a 00       		.byte	0
 4252 021b 03       		.uleb128 0x3
 4253 021c F8030000 		.4byte	.LASF40
 4254 0220 0D       		.byte	0xd
 4255 0221 44       		.byte	0x44
 4256 0222 14       		.byte	0x14
 4257 0223 27020000 		.4byte	0x227
 4258 0227 0B       		.uleb128 0xb
 4259 0228 04       		.byte	0x4
 4260 0229 1F010000 		.4byte	0x11f
 4261 022d 03       		.uleb128 0x3
 4262 022e C3030000 		.4byte	.LASF41
 4263 0232 0D       		.byte	0xd
 4264 0233 49       		.byte	0x49
 4265 0234 20       		.byte	0x20
 4266 0235 39020000 		.4byte	0x239
 4267 0239 06       		.uleb128 0x6
 4268 023a C0060000 		.4byte	.LASF43
 4269 023e 04       		.byte	0x4
 4270 023f 02       		.byte	0x2
 4271 0240 88       		.byte	0x88
 4272 0241 08       		.byte	0x8
 4273 0242 54020000 		.4byte	0x254
 4274 0246 07       		.uleb128 0x7
ARM GAS  /tmp/cc4ZUYx9.s 			page 76


 4275 0247 6C000000 		.4byte	.LASF44
 4276 024b 02       		.byte	0x2
 4277 024c 89       		.byte	0x89
 4278 024d 1A       		.byte	0x1a
 4279 024e 27020000 		.4byte	0x227
 4280 0252 00       		.byte	0
 4281 0253 00       		.byte	0
 4282 0254 03       		.uleb128 0x3
 4283 0255 AF070000 		.4byte	.LASF45
 4284 0259 0D       		.byte	0xd
 4285 025a 50       		.byte	0x50
 4286 025b 21       		.byte	0x21
 4287 025c 65020000 		.4byte	0x265
 4288 0260 0C       		.uleb128 0xc
 4289 0261 54020000 		.4byte	0x254
 4290 0265 06       		.uleb128 0x6
 4291 0266 71010000 		.4byte	.LASF46
 4292 026a 08       		.byte	0x8
 4293 026b 02       		.byte	0x2
 4294 026c 8F       		.byte	0x8f
 4295 026d 08       		.byte	0x8
 4296 026e 8D020000 		.4byte	0x28d
 4297 0272 07       		.uleb128 0x7
 4298 0273 6C000000 		.4byte	.LASF44
 4299 0277 02       		.byte	0x2
 4300 0278 90       		.byte	0x90
 4301 0279 1A       		.byte	0x1a
 4302 027a 27020000 		.4byte	0x227
 4303 027e 00       		.byte	0
 4304 027f 07       		.uleb128 0x7
 4305 0280 B0000000 		.4byte	.LASF47
 4306 0284 02       		.byte	0x2
 4307 0285 91       		.byte	0x91
 4308 0286 1A       		.byte	0x1a
 4309 0287 27020000 		.4byte	0x227
 4310 028b 04       		.byte	0x4
 4311 028c 00       		.byte	0
 4312 028d 03       		.uleb128 0x3
 4313 028e 53000000 		.4byte	.LASF48
 4314 0292 0D       		.byte	0xd
 4315 0293 57       		.byte	0x57
 4316 0294 1E       		.byte	0x1e
 4317 0295 99020000 		.4byte	0x299
 4318 0299 0D       		.uleb128 0xd
 4319 029a 77030000 		.4byte	.LASF49
 4320 029e 1C       		.byte	0x1c
 4321 029f 02       		.byte	0x2
 4322 02a0 6A01     		.2byte	0x16a
 4323 02a2 08       		.byte	0x8
 4324 02a3 FC020000 		.4byte	0x2fc
 4325 02a7 0A       		.uleb128 0xa
 4326 02a8 59020000 		.4byte	.LASF25
 4327 02ac 02       		.byte	0x2
 4328 02ad 6B01     		.2byte	0x16b
 4329 02af 19       		.byte	0x19
 4330 02b0 54020000 		.4byte	0x254
 4331 02b4 00       		.byte	0
ARM GAS  /tmp/cc4ZUYx9.s 			page 77


 4332 02b5 0A       		.uleb128 0xa
 4333 02b6 42050000 		.4byte	.LASF26
 4334 02ba 02       		.byte	0x2
 4335 02bb 6C01     		.2byte	0x16c
 4336 02bd 19       		.byte	0x19
 4337 02be E3000000 		.4byte	0xe3
 4338 02c2 08       		.byte	0x8
 4339 02c3 09       		.uleb128 0x9
 4340 02c4 63747800 		.ascii	"ctx\000"
 4341 02c8 02       		.byte	0x2
 4342 02c9 6E01     		.2byte	0x16e
 4343 02cb 19       		.byte	0x19
 4344 02cc 9A040000 		.4byte	0x49a
 4345 02d0 0C       		.byte	0xc
 4346 02d1 0A       		.uleb128 0xa
 4347 02d2 7D070000 		.4byte	.LASF27
 4348 02d6 02       		.byte	0x2
 4349 02d7 7101     		.2byte	0x171
 4350 02d9 1A       		.byte	0x1a
 4351 02da 27020000 		.4byte	0x227
 4352 02de 10       		.byte	0x10
 4353 02df 0A       		.uleb128 0xa
 4354 02e0 F4060000 		.4byte	.LASF28
 4355 02e4 02       		.byte	0x2
 4356 02e5 7201     		.2byte	0x172
 4357 02e7 1A       		.byte	0x1a
 4358 02e8 27020000 		.4byte	0x227
 4359 02ec 14       		.byte	0x14
 4360 02ed 0A       		.uleb128 0xa
 4361 02ee 62050000 		.4byte	.LASF50
 4362 02f2 02       		.byte	0x2
 4363 02f3 7501     		.2byte	0x175
 4364 02f5 1A       		.byte	0x1a
 4365 02f6 27020000 		.4byte	0x227
 4366 02fa 18       		.byte	0x18
 4367 02fb 00       		.byte	0
 4368 02fc 03       		.uleb128 0x3
 4369 02fd 38070000 		.4byte	.LASF51
 4370 0301 0D       		.byte	0xd
 4371 0302 5C       		.byte	0x5c
 4372 0303 10       		.byte	0x10
 4373 0304 08030000 		.4byte	0x308
 4374 0308 0B       		.uleb128 0xb
 4375 0309 04       		.byte	0x4
 4376 030a 0E030000 		.4byte	0x30e
 4377 030e 0E       		.uleb128 0xe
 4378 030f 19030000 		.4byte	0x319
 4379 0313 0F       		.uleb128 0xf
 4380 0314 19030000 		.4byte	0x319
 4381 0318 00       		.byte	0
 4382 0319 10       		.uleb128 0x10
 4383 031a 04       		.byte	0x4
 4384 031b 03       		.uleb128 0x3
 4385 031c 91050000 		.4byte	.LASF52
 4386 0320 0D       		.byte	0xd
 4387 0321 61       		.byte	0x61
 4388 0322 21       		.byte	0x21
ARM GAS  /tmp/cc4ZUYx9.s 			page 78


 4389 0323 27030000 		.4byte	0x327
 4390 0327 0D       		.uleb128 0xd
 4391 0328 63060000 		.4byte	.LASF53
 4392 032c 14       		.byte	0x14
 4393 032d 02       		.byte	0x2
 4394 032e 4501     		.2byte	0x145
 4395 0330 08       		.byte	0x8
 4396 0331 7C030000 		.4byte	0x37c
 4397 0335 0A       		.uleb128 0xa
 4398 0336 6C000000 		.4byte	.LASF44
 4399 033a 02       		.byte	0x2
 4400 033b 4601     		.2byte	0x146
 4401 033d 1A       		.byte	0x1a
 4402 033e 89070000 		.4byte	0x789
 4403 0342 00       		.byte	0
 4404 0343 0A       		.uleb128 0xa
 4405 0344 B0000000 		.4byte	.LASF47
 4406 0348 02       		.byte	0x2
 4407 0349 4701     		.2byte	0x147
 4408 034b 1A       		.byte	0x1a
 4409 034c 89070000 		.4byte	0x789
 4410 0350 04       		.byte	0x4
 4411 0351 0A       		.uleb128 0xa
 4412 0352 71000000 		.4byte	.LASF54
 4413 0356 02       		.byte	0x2
 4414 0357 4801     		.2byte	0x148
 4415 0359 19       		.byte	0x19
 4416 035a 13010000 		.4byte	0x113
 4417 035e 08       		.byte	0x8
 4418 035f 0A       		.uleb128 0xa
 4419 0360 41020000 		.4byte	.LASF55
 4420 0364 02       		.byte	0x2
 4421 0365 4901     		.2byte	0x149
 4422 0367 19       		.byte	0x19
 4423 0368 FC020000 		.4byte	0x2fc
 4424 036c 0C       		.byte	0xc
 4425 036d 09       		.uleb128 0x9
 4426 036e 70617200 		.ascii	"par\000"
 4427 0372 02       		.byte	0x2
 4428 0373 4B01     		.2byte	0x14b
 4429 0375 1A       		.byte	0x1a
 4430 0376 19030000 		.4byte	0x319
 4431 037a 10       		.byte	0x10
 4432 037b 00       		.byte	0
 4433 037c 03       		.uleb128 0x3
 4434 037d 56010000 		.4byte	.LASF56
 4435 0381 0D       		.byte	0xd
 4436 0382 66       		.byte	0x66
 4437 0383 28       		.byte	0x28
 4438 0384 88030000 		.4byte	0x388
 4439 0388 0D       		.uleb128 0xd
 4440 0389 0B040000 		.4byte	.LASF57
 4441 038d 10       		.byte	0x10
 4442 038e 02       		.byte	0x2
 4443 038f 5501     		.2byte	0x155
 4444 0391 08       		.byte	0x8
 4445 0392 CF030000 		.4byte	0x3cf
ARM GAS  /tmp/cc4ZUYx9.s 			page 79


 4446 0396 0A       		.uleb128 0xa
 4447 0397 6C000000 		.4byte	.LASF44
 4448 039b 02       		.byte	0x2
 4449 039c 5601     		.2byte	0x156
 4450 039e 1A       		.byte	0x1a
 4451 039f 89070000 		.4byte	0x789
 4452 03a3 00       		.byte	0
 4453 03a4 0A       		.uleb128 0xa
 4454 03a5 B0000000 		.4byte	.LASF47
 4455 03a9 02       		.byte	0x2
 4456 03aa 5801     		.2byte	0x158
 4457 03ac 1A       		.byte	0x1a
 4458 03ad 89070000 		.4byte	0x789
 4459 03b1 04       		.byte	0x4
 4460 03b2 0A       		.uleb128 0xa
 4461 03b3 71000000 		.4byte	.LASF54
 4462 03b7 02       		.byte	0x2
 4463 03b8 5A01     		.2byte	0x15a
 4464 03ba 19       		.byte	0x19
 4465 03bb 13010000 		.4byte	0x113
 4466 03bf 08       		.byte	0x8
 4467 03c0 0A       		.uleb128 0xa
 4468 03c1 0C060000 		.4byte	.LASF58
 4469 03c5 02       		.byte	0x2
 4470 03c6 6201     		.2byte	0x162
 4471 03c8 19       		.byte	0x19
 4472 03c9 13010000 		.4byte	0x113
 4473 03cd 0C       		.byte	0xc
 4474 03ce 00       		.byte	0
 4475 03cf 03       		.uleb128 0x3
 4476 03d0 C1000000 		.4byte	.LASF59
 4477 03d4 0D       		.byte	0xd
 4478 03d5 6B       		.byte	0x6b
 4479 03d6 20       		.byte	0x20
 4480 03d7 DB030000 		.4byte	0x3db
 4481 03db 0D       		.uleb128 0xd
 4482 03dc D6050000 		.4byte	.LASF60
 4483 03e0 04       		.byte	0x4
 4484 03e1 02       		.byte	0x2
 4485 03e2 7C01     		.2byte	0x17c
 4486 03e4 08       		.byte	0x8
 4487 03e5 F8030000 		.4byte	0x3f8
 4488 03e9 0A       		.uleb128 0xa
 4489 03ea 8C010000 		.4byte	.LASF61
 4490 03ee 02       		.byte	0x2
 4491 03ef 8401     		.2byte	0x184
 4492 03f1 24       		.byte	0x24
 4493 03f2 72070000 		.4byte	0x772
 4494 03f6 00       		.byte	0
 4495 03f7 00       		.byte	0
 4496 03f8 03       		.uleb128 0x3
 4497 03f9 3B030000 		.4byte	.LASF62
 4498 03fd 0D       		.byte	0xd
 4499 03fe 70       		.byte	0x70
 4500 03ff 1A       		.byte	0x1a
 4501 0400 04040000 		.4byte	0x404
 4502 0404 0D       		.uleb128 0xd
ARM GAS  /tmp/cc4ZUYx9.s 			page 80


 4503 0405 39060000 		.4byte	.LASF63
 4504 0409 78       		.byte	0x78
 4505 040a 02       		.byte	0x2
 4506 040b 9C01     		.2byte	0x19c
 4507 040d 08       		.byte	0x8
 4508 040e 58040000 		.4byte	0x458
 4509 0412 0A       		.uleb128 0xa
 4510 0413 C8070000 		.4byte	.LASF64
 4511 0417 02       		.byte	0x2
 4512 0418 A001     		.2byte	0x1a0
 4513 041a 19       		.byte	0x19
 4514 041b 8D020000 		.4byte	0x28d
 4515 041f 00       		.byte	0
 4516 0420 0A       		.uleb128 0xa
 4517 0421 FA010000 		.4byte	.LASF65
 4518 0425 02       		.byte	0x2
 4519 0426 A401     		.2byte	0x1a4
 4520 0428 19       		.byte	0x19
 4521 0429 7C030000 		.4byte	0x37c
 4522 042d 1C       		.byte	0x1c
 4523 042e 09       		.uleb128 0x9
 4524 042f 64626700 		.ascii	"dbg\000"
 4525 0433 02       		.byte	0x2
 4526 0434 A801     		.2byte	0x1a8
 4527 0436 19       		.byte	0x19
 4528 0437 CF030000 		.4byte	0x3cf
 4529 043b 2C       		.byte	0x2c
 4530 043c 0A       		.uleb128 0xa
 4531 043d 43010000 		.4byte	.LASF66
 4532 0441 02       		.byte	0x2
 4533 0442 AC01     		.2byte	0x1ac
 4534 0444 19       		.byte	0x19
 4535 0445 1F010000 		.4byte	0x11f
 4536 0449 30       		.byte	0x30
 4537 044a 09       		.uleb128 0x9
 4538 044b 746D00   		.ascii	"tm\000"
 4539 044e 02       		.byte	0x2
 4540 044f B101     		.2byte	0x1b1
 4541 0451 19       		.byte	0x19
 4542 0452 85060000 		.4byte	0x685
 4543 0456 74       		.byte	0x74
 4544 0457 00       		.byte	0
 4545 0458 11       		.uleb128 0x11
 4546 0459 94000000 		.4byte	0x94
 4547 045d 68040000 		.4byte	0x468
 4548 0461 12       		.uleb128 0x12
 4549 0462 38000000 		.4byte	0x38
 4550 0466 01       		.byte	0x1
 4551 0467 00       		.byte	0
 4552 0468 05       		.uleb128 0x5
 4553 0469 58040000 		.4byte	0x458
 4554 046d 11       		.uleb128 0x11
 4555 046e 94000000 		.4byte	0x94
 4556 0472 7D040000 		.4byte	0x47d
 4557 0476 12       		.uleb128 0x12
 4558 0477 38000000 		.4byte	0x38
 4559 047b 03       		.byte	0x3
ARM GAS  /tmp/cc4ZUYx9.s 			page 81


 4560 047c 00       		.byte	0
 4561 047d 05       		.uleb128 0x5
 4562 047e 6D040000 		.4byte	0x46d
 4563 0482 03       		.uleb128 0x3
 4564 0483 89020000 		.4byte	.LASF67
 4565 0487 0E       		.byte	0xe
 4566 0488 65       		.byte	0x65
 4567 0489 0F       		.byte	0xf
 4568 048a 19030000 		.4byte	0x319
 4569 048e 03       		.uleb128 0x3
 4570 048f A6030000 		.4byte	.LASF68
 4571 0493 0E       		.byte	0xe
 4572 0494 6D       		.byte	0x6d
 4573 0495 12       		.byte	0x12
 4574 0496 A0000000 		.4byte	0xa0
 4575 049a 06       		.uleb128 0x6
 4576 049b 11010000 		.4byte	.LASF69
 4577 049f 04       		.byte	0x4
 4578 04a0 0E       		.byte	0xe
 4579 04a1 89       		.byte	0x89
 4580 04a2 08       		.byte	0x8
 4581 04a3 B4040000 		.4byte	0x4b4
 4582 04a7 08       		.uleb128 0x8
 4583 04a8 737000   		.ascii	"sp\000"
 4584 04ab 0E       		.byte	0xe
 4585 04ac 8A       		.byte	0x8a
 4586 04ad 17       		.byte	0x17
 4587 04ae 3A050000 		.4byte	0x53a
 4588 04b2 00       		.byte	0
 4589 04b3 00       		.byte	0
 4590 04b4 0D       		.uleb128 0xd
 4591 04b5 B5000000 		.4byte	.LASF70
 4592 04b9 24       		.byte	0x24
 4593 04ba 04       		.byte	0x4
 4594 04bb 5901     		.2byte	0x159
 4595 04bd 08       		.byte	0x8
 4596 04be 3A050000 		.4byte	0x53a
 4597 04c2 09       		.uleb128 0x9
 4598 04c3 723400   		.ascii	"r4\000"
 4599 04c6 04       		.byte	0x4
 4600 04c7 6C01     		.2byte	0x16c
 4601 04c9 11       		.byte	0x11
 4602 04ca 82040000 		.4byte	0x482
 4603 04ce 00       		.byte	0
 4604 04cf 09       		.uleb128 0x9
 4605 04d0 723500   		.ascii	"r5\000"
 4606 04d3 04       		.byte	0x4
 4607 04d4 6D01     		.2byte	0x16d
 4608 04d6 11       		.byte	0x11
 4609 04d7 82040000 		.4byte	0x482
 4610 04db 04       		.byte	0x4
 4611 04dc 09       		.uleb128 0x9
 4612 04dd 723600   		.ascii	"r6\000"
 4613 04e0 04       		.byte	0x4
 4614 04e1 6E01     		.2byte	0x16e
 4615 04e3 11       		.byte	0x11
 4616 04e4 82040000 		.4byte	0x482
ARM GAS  /tmp/cc4ZUYx9.s 			page 82


 4617 04e8 08       		.byte	0x8
 4618 04e9 09       		.uleb128 0x9
 4619 04ea 723700   		.ascii	"r7\000"
 4620 04ed 04       		.byte	0x4
 4621 04ee 6F01     		.2byte	0x16f
 4622 04f0 11       		.byte	0x11
 4623 04f1 82040000 		.4byte	0x482
 4624 04f5 0C       		.byte	0xc
 4625 04f6 09       		.uleb128 0x9
 4626 04f7 723800   		.ascii	"r8\000"
 4627 04fa 04       		.byte	0x4
 4628 04fb 7001     		.2byte	0x170
 4629 04fd 11       		.byte	0x11
 4630 04fe 82040000 		.4byte	0x482
 4631 0502 10       		.byte	0x10
 4632 0503 09       		.uleb128 0x9
 4633 0504 723900   		.ascii	"r9\000"
 4634 0507 04       		.byte	0x4
 4635 0508 7101     		.2byte	0x171
 4636 050a 11       		.byte	0x11
 4637 050b 82040000 		.4byte	0x482
 4638 050f 14       		.byte	0x14
 4639 0510 09       		.uleb128 0x9
 4640 0511 72313000 		.ascii	"r10\000"
 4641 0515 04       		.byte	0x4
 4642 0516 7201     		.2byte	0x172
 4643 0518 11       		.byte	0x11
 4644 0519 82040000 		.4byte	0x482
 4645 051d 18       		.byte	0x18
 4646 051e 09       		.uleb128 0x9
 4647 051f 72313100 		.ascii	"r11\000"
 4648 0523 04       		.byte	0x4
 4649 0524 7301     		.2byte	0x173
 4650 0526 11       		.byte	0x11
 4651 0527 82040000 		.4byte	0x482
 4652 052b 1C       		.byte	0x1c
 4653 052c 09       		.uleb128 0x9
 4654 052d 6C7200   		.ascii	"lr\000"
 4655 0530 04       		.byte	0x4
 4656 0531 7401     		.2byte	0x174
 4657 0533 11       		.byte	0x11
 4658 0534 82040000 		.4byte	0x482
 4659 0538 20       		.byte	0x20
 4660 0539 00       		.byte	0
 4661 053a 0B       		.uleb128 0xb
 4662 053b 04       		.byte	0x4
 4663 053c B4040000 		.4byte	0x4b4
 4664 0540 13       		.uleb128 0x13
 4665 0541 60       		.byte	0x60
 4666 0542 0F       		.byte	0xf
 4667 0543 A101     		.2byte	0x1a1
 4668 0545 09       		.byte	0x9
 4669 0546 61060000 		.4byte	0x661
 4670 054a 09       		.uleb128 0x9
 4671 054b 43523100 		.ascii	"CR1\000"
 4672 054f 0F       		.byte	0xf
 4673 0550 A201     		.2byte	0x1a2
ARM GAS  /tmp/cc4ZUYx9.s 			page 83


 4674 0552 19       		.byte	0x19
 4675 0553 94000000 		.4byte	0x94
 4676 0557 00       		.byte	0
 4677 0558 09       		.uleb128 0x9
 4678 0559 43523200 		.ascii	"CR2\000"
 4679 055d 0F       		.byte	0xf
 4680 055e A301     		.2byte	0x1a3
 4681 0560 19       		.byte	0x19
 4682 0561 94000000 		.4byte	0x94
 4683 0565 04       		.byte	0x4
 4684 0566 0A       		.uleb128 0xa
 4685 0567 1D030000 		.4byte	.LASF71
 4686 056b 0F       		.byte	0xf
 4687 056c A401     		.2byte	0x1a4
 4688 056e 19       		.byte	0x19
 4689 056f 94000000 		.4byte	0x94
 4690 0573 08       		.byte	0x8
 4691 0574 0A       		.uleb128 0xa
 4692 0575 60000000 		.4byte	.LASF72
 4693 0579 0F       		.byte	0xf
 4694 057a A501     		.2byte	0x1a5
 4695 057c 19       		.byte	0x19
 4696 057d 94000000 		.4byte	0x94
 4697 0581 0C       		.byte	0xc
 4698 0582 09       		.uleb128 0x9
 4699 0583 535200   		.ascii	"SR\000"
 4700 0586 0F       		.byte	0xf
 4701 0587 A601     		.2byte	0x1a6
 4702 0589 19       		.byte	0x19
 4703 058a 94000000 		.4byte	0x94
 4704 058e 10       		.byte	0x10
 4705 058f 09       		.uleb128 0x9
 4706 0590 45475200 		.ascii	"EGR\000"
 4707 0594 0F       		.byte	0xf
 4708 0595 A701     		.2byte	0x1a7
 4709 0597 19       		.byte	0x19
 4710 0598 94000000 		.4byte	0x94
 4711 059c 14       		.byte	0x14
 4712 059d 0A       		.uleb128 0xa
 4713 059e A2010000 		.4byte	.LASF73
 4714 05a2 0F       		.byte	0xf
 4715 05a3 A801     		.2byte	0x1a8
 4716 05a5 19       		.byte	0x19
 4717 05a6 94000000 		.4byte	0x94
 4718 05aa 18       		.byte	0x18
 4719 05ab 0A       		.uleb128 0xa
 4720 05ac A8010000 		.4byte	.LASF74
 4721 05b0 0F       		.byte	0xf
 4722 05b1 A901     		.2byte	0x1a9
 4723 05b3 19       		.byte	0x19
 4724 05b4 94000000 		.4byte	0x94
 4725 05b8 1C       		.byte	0x1c
 4726 05b9 0A       		.uleb128 0xa
 4727 05ba 46020000 		.4byte	.LASF75
 4728 05be 0F       		.byte	0xf
 4729 05bf AA01     		.2byte	0x1aa
 4730 05c1 19       		.byte	0x19
ARM GAS  /tmp/cc4ZUYx9.s 			page 84


 4731 05c2 94000000 		.4byte	0x94
 4732 05c6 20       		.byte	0x20
 4733 05c7 09       		.uleb128 0x9
 4734 05c8 434E5400 		.ascii	"CNT\000"
 4735 05cc 0F       		.byte	0xf
 4736 05cd AB01     		.2byte	0x1ab
 4737 05cf 19       		.byte	0x19
 4738 05d0 94000000 		.4byte	0x94
 4739 05d4 24       		.byte	0x24
 4740 05d5 09       		.uleb128 0x9
 4741 05d6 50534300 		.ascii	"PSC\000"
 4742 05da 0F       		.byte	0xf
 4743 05db AC01     		.2byte	0x1ac
 4744 05dd 19       		.byte	0x19
 4745 05de 94000000 		.4byte	0x94
 4746 05e2 28       		.byte	0x28
 4747 05e3 09       		.uleb128 0x9
 4748 05e4 41525200 		.ascii	"ARR\000"
 4749 05e8 0F       		.byte	0xf
 4750 05e9 AD01     		.2byte	0x1ad
 4751 05eb 19       		.byte	0x19
 4752 05ec 94000000 		.4byte	0x94
 4753 05f0 2C       		.byte	0x2c
 4754 05f1 09       		.uleb128 0x9
 4755 05f2 52435200 		.ascii	"RCR\000"
 4756 05f6 0F       		.byte	0xf
 4757 05f7 AE01     		.2byte	0x1ae
 4758 05f9 19       		.byte	0x19
 4759 05fa 94000000 		.4byte	0x94
 4760 05fe 30       		.byte	0x30
 4761 05ff 09       		.uleb128 0x9
 4762 0600 43435200 		.ascii	"CCR\000"
 4763 0604 0F       		.byte	0xf
 4764 0605 AF01     		.2byte	0x1af
 4765 0607 19       		.byte	0x19
 4766 0608 7D040000 		.4byte	0x47d
 4767 060c 34       		.byte	0x34
 4768 060d 0A       		.uleb128 0xa
 4769 060e 6C010000 		.4byte	.LASF76
 4770 0612 0F       		.byte	0xf
 4771 0613 B001     		.2byte	0x1b0
 4772 0615 19       		.byte	0x19
 4773 0616 94000000 		.4byte	0x94
 4774 061a 44       		.byte	0x44
 4775 061b 09       		.uleb128 0x9
 4776 061c 44435200 		.ascii	"DCR\000"
 4777 0620 0F       		.byte	0xf
 4778 0621 B101     		.2byte	0x1b1
 4779 0623 19       		.byte	0x19
 4780 0624 94000000 		.4byte	0x94
 4781 0628 48       		.byte	0x48
 4782 0629 0A       		.uleb128 0xa
 4783 062a FA060000 		.4byte	.LASF77
 4784 062e 0F       		.byte	0xf
 4785 062f B201     		.2byte	0x1b2
 4786 0631 19       		.byte	0x19
 4787 0632 94000000 		.4byte	0x94
ARM GAS  /tmp/cc4ZUYx9.s 			page 85


 4788 0636 4C       		.byte	0x4c
 4789 0637 09       		.uleb128 0x9
 4790 0638 4F5200   		.ascii	"OR\000"
 4791 063b 0F       		.byte	0xf
 4792 063c B301     		.2byte	0x1b3
 4793 063e 19       		.byte	0x19
 4794 063f 94000000 		.4byte	0x94
 4795 0643 50       		.byte	0x50
 4796 0644 0A       		.uleb128 0xa
 4797 0645 AE010000 		.4byte	.LASF78
 4798 0649 0F       		.byte	0xf
 4799 064a B401     		.2byte	0x1b4
 4800 064c 19       		.byte	0x19
 4801 064d 94000000 		.4byte	0x94
 4802 0651 54       		.byte	0x54
 4803 0652 0A       		.uleb128 0xa
 4804 0653 81060000 		.4byte	.LASF79
 4805 0657 0F       		.byte	0xf
 4806 0658 B501     		.2byte	0x1b5
 4807 065a 19       		.byte	0x19
 4808 065b 68040000 		.4byte	0x468
 4809 065f 58       		.byte	0x58
 4810 0660 00       		.byte	0
 4811 0661 14       		.uleb128 0x14
 4812 0662 5C030000 		.4byte	.LASF80
 4813 0666 0F       		.byte	0xf
 4814 0667 B601     		.2byte	0x1b6
 4815 0669 03       		.byte	0x3
 4816 066a 40050000 		.4byte	0x540
 4817 066e 15       		.uleb128 0x15
 4818 066f 04       		.byte	0x4
 4819 0670 10       		.byte	0x10
 4820 0671 38       		.byte	0x38
 4821 0672 09       		.byte	0x9
 4822 0673 85060000 		.4byte	0x685
 4823 0677 07       		.uleb128 0x7
 4824 0678 4F070000 		.4byte	.LASF81
 4825 067c 10       		.byte	0x10
 4826 067d 3C       		.byte	0x3c
 4827 067e 19       		.byte	0x19
 4828 067f B3000000 		.4byte	0xb3
 4829 0683 00       		.byte	0
 4830 0684 00       		.byte	0
 4831 0685 03       		.uleb128 0x3
 4832 0686 20050000 		.4byte	.LASF82
 4833 068a 10       		.byte	0x10
 4834 068b 3D       		.byte	0x3d
 4835 068c 03       		.byte	0x3
 4836 068d 6E060000 		.4byte	0x66e
 4837 0691 16       		.uleb128 0x16
 4838 0692 04       		.byte	0x4
 4839 0693 02       		.byte	0x2
 4840 0694 D2       		.byte	0xd2
 4841 0695 03       		.byte	0x3
 4842 0696 FD060000 		.4byte	0x6fd
 4843 069a 17       		.uleb128 0x17
 4844 069b 77000000 		.4byte	.LASF83
ARM GAS  /tmp/cc4ZUYx9.s 			page 86


 4845 069f 02       		.byte	0x2
 4846 06a0 D9       		.byte	0xd9
 4847 06a1 19       		.byte	0x19
 4848 06a2 EF000000 		.4byte	0xef
 4849 06a6 17       		.uleb128 0x17
 4850 06a7 3A010000 		.4byte	.LASF84
 4851 06ab 02       		.byte	0x2
 4852 06ac E0       		.byte	0xe0
 4853 06ad 19       		.byte	0x19
 4854 06ae EF000000 		.4byte	0xef
 4855 06b2 17       		.uleb128 0x17
 4856 06b3 00080000 		.4byte	.LASF85
 4857 06b7 02       		.byte	0x2
 4858 06b8 E7       		.byte	0xe7
 4859 06b9 1A       		.byte	0x1a
 4860 06ba 19030000 		.4byte	0x319
 4861 06be 17       		.uleb128 0x17
 4862 06bf F8020000 		.4byte	.LASF86
 4863 06c3 02       		.byte	0x2
 4864 06c4 EE       		.byte	0xee
 4865 06c5 1A       		.byte	0x1a
 4866 06c6 FD060000 		.4byte	0x6fd
 4867 06ca 17       		.uleb128 0x17
 4868 06cb 4E010000 		.4byte	.LASF87
 4869 06cf 02       		.byte	0x2
 4870 06d0 F3       		.byte	0xf3
 4871 06d1 19       		.byte	0x19
 4872 06d2 EF000000 		.4byte	0xef
 4873 06d6 17       		.uleb128 0x17
 4874 06d7 F1020000 		.4byte	.LASF88
 4875 06db 02       		.byte	0x2
 4876 06dc FC       		.byte	0xfc
 4877 06dd 1A       		.byte	0x1a
 4878 06de 2B070000 		.4byte	0x72b
 4879 06e2 18       		.uleb128 0x18
 4880 06e3 AD060000 		.4byte	.LASF89
 4881 06e7 02       		.byte	0x2
 4882 06e8 0501     		.2byte	0x105
 4883 06ea 1A       		.byte	0x1a
 4884 06eb 66070000 		.4byte	0x766
 4885 06ef 18       		.uleb128 0x18
 4886 06f0 32060000 		.4byte	.LASF90
 4887 06f4 02       		.byte	0x2
 4888 06f5 0D01     		.2byte	0x10d
 4889 06f7 19       		.byte	0x19
 4890 06f8 FB000000 		.4byte	0xfb
 4891 06fc 00       		.byte	0
 4892 06fd 0B       		.uleb128 0xb
 4893 06fe 04       		.byte	0x4
 4894 06ff 1B020000 		.4byte	0x21b
 4895 0703 06       		.uleb128 0x6
 4896 0704 74060000 		.4byte	.LASF91
 4897 0708 0C       		.byte	0xc
 4898 0709 11       		.byte	0x11
 4899 070a 34       		.byte	0x34
 4900 070b 10       		.byte	0x10
 4901 070c 2B070000 		.4byte	0x72b
ARM GAS  /tmp/cc4ZUYx9.s 			page 87


 4902 0710 07       		.uleb128 0x7
 4903 0711 59020000 		.4byte	.LASF25
 4904 0715 11       		.byte	0x11
 4905 0716 35       		.byte	0x35
 4906 0717 19       		.byte	0x19
 4907 0718 54020000 		.4byte	0x254
 4908 071c 00       		.byte	0
 4909 071d 08       		.uleb128 0x8
 4910 071e 636E7400 		.ascii	"cnt\000"
 4911 0722 11       		.byte	0x11
 4912 0723 37       		.byte	0x37
 4913 0724 19       		.byte	0x19
 4914 0725 07010000 		.4byte	0x107
 4915 0729 08       		.byte	0x8
 4916 072a 00       		.byte	0
 4917 072b 0B       		.uleb128 0xb
 4918 072c 04       		.byte	0x4
 4919 072d 03070000 		.4byte	0x703
 4920 0731 06       		.uleb128 0x6
 4921 0732 BF070000 		.4byte	.LASF92
 4922 0736 10       		.byte	0x10
 4923 0737 12       		.byte	0x12
 4924 0738 39       		.byte	0x39
 4925 0739 08       		.byte	0x8
 4926 073a 66070000 		.4byte	0x766
 4927 073e 07       		.uleb128 0x7
 4928 073f 59020000 		.4byte	.LASF25
 4929 0743 12       		.byte	0x12
 4930 0744 3A       		.byte	0x3a
 4931 0745 19       		.byte	0x19
 4932 0746 54020000 		.4byte	0x254
 4933 074a 00       		.byte	0
 4934 074b 07       		.uleb128 0x7
 4935 074c D0060000 		.4byte	.LASF93
 4936 0750 12       		.byte	0x12
 4937 0751 3C       		.byte	0x3c
 4938 0752 1A       		.byte	0x1a
 4939 0753 27020000 		.4byte	0x227
 4940 0757 08       		.byte	0x8
 4941 0758 07       		.uleb128 0x7
 4942 0759 6C000000 		.4byte	.LASF44
 4943 075d 12       		.byte	0x12
 4944 075e 3E       		.byte	0x3e
 4945 075f 1A       		.byte	0x1a
 4946 0760 1C080000 		.4byte	0x81c
 4947 0764 0C       		.byte	0xc
 4948 0765 00       		.byte	0
 4949 0766 0B       		.uleb128 0xb
 4950 0767 04       		.byte	0x4
 4951 0768 31070000 		.4byte	0x731
 4952 076c 0B       		.uleb128 0xb
 4953 076d 04       		.byte	0x4
 4954 076e 7E070000 		.4byte	0x77e
 4955 0772 05       		.uleb128 0x5
 4956 0773 6C070000 		.4byte	0x76c
 4957 0777 04       		.uleb128 0x4
 4958 0778 01       		.byte	0x1
ARM GAS  /tmp/cc4ZUYx9.s 			page 88


 4959 0779 08       		.byte	0x8
 4960 077a EF060000 		.4byte	.LASF94
 4961 077e 0C       		.uleb128 0xc
 4962 077f 77070000 		.4byte	0x777
 4963 0783 0B       		.uleb128 0xb
 4964 0784 04       		.byte	0x4
 4965 0785 8E040000 		.4byte	0x48e
 4966 0789 0B       		.uleb128 0xb
 4967 078a 04       		.byte	0x4
 4968 078b 1B030000 		.4byte	0x31b
 4969 078f 19       		.uleb128 0x19
 4970 0790 636800   		.ascii	"ch\000"
 4971 0793 02       		.byte	0x2
 4972 0794 D201     		.2byte	0x1d2
 4973 0796 14       		.byte	0x14
 4974 0797 F8030000 		.4byte	0x3f8
 4975 079b 03       		.uleb128 0x3
 4976 079c 43000000 		.4byte	.LASF95
 4977 07a0 06       		.byte	0x6
 4978 07a1 40       		.byte	0x40
 4979 07a2 10       		.byte	0x10
 4980 07a3 08030000 		.4byte	0x308
 4981 07a7 15       		.uleb128 0x15
 4982 07a8 18       		.byte	0x18
 4983 07a9 06       		.byte	0x6
 4984 07aa 45       		.byte	0x45
 4985 07ab 09       		.byte	0x9
 4986 07ac FF070000 		.4byte	0x7ff
 4987 07b0 07       		.uleb128 0x7
 4988 07b1 12030000 		.4byte	.LASF29
 4989 07b5 06       		.byte	0x6
 4990 07b6 49       		.byte	0x49
 4991 07b7 16       		.byte	0x16
 4992 07b8 6C070000 		.4byte	0x76c
 4993 07bc 00       		.byte	0
 4994 07bd 07       		.uleb128 0x7
 4995 07be 1A050000 		.4byte	.LASF96
 4996 07c2 06       		.byte	0x6
 4997 07c3 4D       		.byte	0x4d
 4998 07c4 16       		.byte	0x16
 4999 07c5 83070000 		.4byte	0x783
 5000 07c9 04       		.byte	0x4
 5001 07ca 07       		.uleb128 0x7
 5002 07cb 1E010000 		.4byte	.LASF97
 5003 07cf 06       		.byte	0x6
 5004 07d0 51       		.byte	0x51
 5005 07d1 16       		.byte	0x16
 5006 07d2 83070000 		.4byte	0x783
 5007 07d6 08       		.byte	0x8
 5008 07d7 07       		.uleb128 0x7
 5009 07d8 42050000 		.4byte	.LASF26
 5010 07dc 06       		.byte	0x6
 5011 07dd 55       		.byte	0x55
 5012 07de 15       		.byte	0x15
 5013 07df E3000000 		.4byte	0xe3
 5014 07e3 0C       		.byte	0xc
 5015 07e4 07       		.uleb128 0x7
ARM GAS  /tmp/cc4ZUYx9.s 			page 89


 5016 07e5 7E000000 		.4byte	.LASF98
 5017 07e9 06       		.byte	0x6
 5018 07ea 59       		.byte	0x59
 5019 07eb 15       		.byte	0x15
 5020 07ec 9B070000 		.4byte	0x79b
 5021 07f0 10       		.byte	0x10
 5022 07f1 08       		.uleb128 0x8
 5023 07f2 61726700 		.ascii	"arg\000"
 5024 07f6 06       		.byte	0x6
 5025 07f7 5D       		.byte	0x5d
 5026 07f8 16       		.byte	0x16
 5027 07f9 19030000 		.4byte	0x319
 5028 07fd 14       		.byte	0x14
 5029 07fe 00       		.byte	0
 5030 07ff 03       		.uleb128 0x3
 5031 0800 F3000000 		.4byte	.LASF99
 5032 0804 06       		.byte	0x6
 5033 0805 5E       		.byte	0x5e
 5034 0806 03       		.byte	0x3
 5035 0807 A7070000 		.4byte	0x7a7
 5036 080b 0C       		.uleb128 0xc
 5037 080c FF070000 		.4byte	0x7ff
 5038 0810 03       		.uleb128 0x3
 5039 0811 9F020000 		.4byte	.LASF100
 5040 0815 12       		.byte	0x12
 5041 0816 34       		.byte	0x34
 5042 0817 19       		.byte	0x19
 5043 0818 31070000 		.4byte	0x731
 5044 081c 0B       		.uleb128 0xb
 5045 081d 04       		.byte	0x4
 5046 081e 10080000 		.4byte	0x810
 5047 0822 04       		.uleb128 0x4
 5048 0823 01       		.byte	0x1
 5049 0824 02       		.byte	0x2
 5050 0825 E6050000 		.4byte	.LASF101
 5051 0829 1A       		.uleb128 0x1a
 5052 082a 8D000000 		.4byte	.LASF102
 5053 082e 01       		.byte	0x1
 5054 082f 8003     		.2byte	0x380
 5055 0831 06       		.byte	0x6
 5056 0832 00000000 		.4byte	.LFB271
 5057 0836 20000000 		.4byte	.LFE271-.LFB271
 5058 083a 01       		.uleb128 0x1
 5059 083b 9C       		.byte	0x9c
 5060 083c 0B090000 		.4byte	0x90b
 5061 0840 1B       		.uleb128 0x1b
 5062 0841 74717000 		.ascii	"tqp\000"
 5063 0845 01       		.byte	0x1
 5064 0846 8003     		.2byte	0x380
 5065 0848 28       		.byte	0x28
 5066 0849 0B090000 		.4byte	0x90b
 5067 084d 04000000 		.4byte	.LLST129
 5068 0851 00000000 		.4byte	.LVUS129
 5069 0855 1B       		.uleb128 0x1b
 5070 0856 6D736700 		.ascii	"msg\000"
 5071 085a 01       		.byte	0x1
 5072 085b 8003     		.2byte	0x380
ARM GAS  /tmp/cc4ZUYx9.s 			page 90


 5073 085d 33       		.byte	0x33
 5074 085e EF000000 		.4byte	0xef
 5075 0862 28000000 		.4byte	.LLST130
 5076 0866 22000000 		.4byte	.LVUS130
 5077 086a 1C       		.uleb128 0x1c
 5078 086b 63220000 		.4byte	0x2263
 5079 086f 04000000 		.4byte	.LBI913
 5080 0873 00       		.byte	.LVU1205
 5081 0874 A8070000 		.4byte	.Ldebug_ranges0+0x7a8
 5082 0878 01       		.byte	0x1
 5083 0879 8203     		.2byte	0x382
 5084 087b 0A       		.byte	0xa
 5085 087c 8E080000 		.4byte	0x88e
 5086 0880 1D       		.uleb128 0x1d
 5087 0881 75220000 		.4byte	0x2275
 5088 0885 58000000 		.4byte	.LLST131
 5089 0889 54000000 		.4byte	.LVUS131
 5090 088d 00       		.byte	0
 5091 088e 1E       		.uleb128 0x1e
 5092 088f 8E200000 		.4byte	0x208e
 5093 0893 0C000000 		.4byte	.LBI916
 5094 0897 01       		.byte	.LVU1211
 5095 0898 0C000000 		.4byte	.LBB916
 5096 089c 0C000000 		.4byte	.LBE916-.LBB916
 5097 08a0 01       		.byte	0x1
 5098 08a1 8303     		.2byte	0x383
 5099 08a3 05       		.byte	0x5
 5100 08a4 1D       		.uleb128 0x1d
 5101 08a5 A9200000 		.4byte	0x20a9
 5102 08a9 78000000 		.4byte	.LLST132
 5103 08ad 76000000 		.4byte	.LVUS132
 5104 08b1 1D       		.uleb128 0x1d
 5105 08b2 9C200000 		.4byte	0x209c
 5106 08b6 8D000000 		.4byte	.LLST133
 5107 08ba 8B000000 		.4byte	.LVUS133
 5108 08be 1F       		.uleb128 0x1f
 5109 08bf B6200000 		.4byte	0x20b6
 5110 08c3 A2000000 		.4byte	.LLST134
 5111 08c7 A0000000 		.4byte	.LVUS134
 5112 08cb 20       		.uleb128 0x20
 5113 08cc B5210000 		.4byte	0x21b5
 5114 08d0 0C000000 		.4byte	.LBI918
 5115 08d4 07       		.byte	.LVU1217
 5116 08d5 0C000000 		.4byte	.LBB918
 5117 08d9 06000000 		.4byte	.LBE918-.LBB918
 5118 08dd 06       		.byte	0x6
 5119 08de BA01     		.2byte	0x1ba
 5120 08e0 08       		.byte	0x8
 5121 08e1 00090000 		.4byte	0x900
 5122 08e5 1D       		.uleb128 0x1d
 5123 08e6 C7210000 		.4byte	0x21c7
 5124 08ea B7000000 		.4byte	.LLST135
 5125 08ee B5000000 		.4byte	.LVUS135
 5126 08f2 1F       		.uleb128 0x1f
 5127 08f3 D4210000 		.4byte	0x21d4
 5128 08f7 CC000000 		.4byte	.LLST136
 5129 08fb CA000000 		.4byte	.LVUS136
ARM GAS  /tmp/cc4ZUYx9.s 			page 91


 5130 08ff 00       		.byte	0
 5131 0900 21       		.uleb128 0x21
 5132 0901 18000000 		.4byte	.LVL187
 5133 0905 21260000 		.4byte	0x2621
 5134 0909 00       		.byte	0
 5135 090a 00       		.byte	0
 5136 090b 0B       		.uleb128 0xb
 5137 090c 04       		.byte	0x4
 5138 090d 54020000 		.4byte	0x254
 5139 0911 1A       		.uleb128 0x1a
 5140 0912 9E000000 		.4byte	.LASF103
 5141 0916 01       		.byte	0x1
 5142 0917 7103     		.2byte	0x371
 5143 0919 06       		.byte	0x6
 5144 091a 00000000 		.4byte	.LFB270
 5145 091e 16000000 		.4byte	.LFE270-.LFB270
 5146 0922 01       		.uleb128 0x1
 5147 0923 9C       		.byte	0x9c
 5148 0924 F7090000 		.4byte	0x9f7
 5149 0928 1B       		.uleb128 0x1b
 5150 0929 74717000 		.ascii	"tqp\000"
 5151 092d 01       		.byte	0x1
 5152 092e 7103     		.2byte	0x371
 5153 0930 29       		.byte	0x29
 5154 0931 0B090000 		.4byte	0x90b
 5155 0935 E7000000 		.4byte	.LLST121
 5156 0939 DF000000 		.4byte	.LVUS121
 5157 093d 1B       		.uleb128 0x1b
 5158 093e 6D736700 		.ascii	"msg\000"
 5159 0942 01       		.byte	0x1
 5160 0943 7103     		.2byte	0x371
 5161 0945 34       		.byte	0x34
 5162 0946 EF000000 		.4byte	0xef
 5163 094a 24010000 		.4byte	.LLST122
 5164 094e 1E010000 		.4byte	.LVUS122
 5165 0952 20       		.uleb128 0x20
 5166 0953 63220000 		.4byte	0x2263
 5167 0957 02000000 		.4byte	.LBI907
 5168 095b 00       		.byte	.LVU1170
 5169 095c 02000000 		.4byte	.LBB907
 5170 0960 02000000 		.4byte	.LBE907-.LBB907
 5171 0964 01       		.byte	0x1
 5172 0965 7303     		.2byte	0x373
 5173 0967 07       		.byte	0x7
 5174 0968 7A090000 		.4byte	0x97a
 5175 096c 1D       		.uleb128 0x1d
 5176 096d 75220000 		.4byte	0x2275
 5177 0971 52010000 		.4byte	.LLST123
 5178 0975 50010000 		.4byte	.LVUS123
 5179 0979 00       		.byte	0
 5180 097a 1E       		.uleb128 0x1e
 5181 097b 8E200000 		.4byte	0x208e
 5182 097f 08000000 		.4byte	.LBI909
 5183 0983 01       		.byte	.LVU1176
 5184 0984 08000000 		.4byte	.LBB909
 5185 0988 0C000000 		.4byte	.LBE909-.LBB909
 5186 098c 01       		.byte	0x1
ARM GAS  /tmp/cc4ZUYx9.s 			page 92


 5187 098d 7403     		.2byte	0x374
 5188 098f 05       		.byte	0x5
 5189 0990 1D       		.uleb128 0x1d
 5190 0991 A9200000 		.4byte	0x20a9
 5191 0995 69010000 		.4byte	.LLST124
 5192 0999 65010000 		.4byte	.LVUS124
 5193 099d 1D       		.uleb128 0x1d
 5194 099e 9C200000 		.4byte	0x209c
 5195 09a2 8E010000 		.4byte	.LLST125
 5196 09a6 8A010000 		.4byte	.LVUS125
 5197 09aa 1F       		.uleb128 0x1f
 5198 09ab B6200000 		.4byte	0x20b6
 5199 09af B1010000 		.4byte	.LLST126
 5200 09b3 AF010000 		.4byte	.LVUS126
 5201 09b7 20       		.uleb128 0x20
 5202 09b8 B5210000 		.4byte	0x21b5
 5203 09bc 08000000 		.4byte	.LBI911
 5204 09c0 07       		.byte	.LVU1182
 5205 09c1 08000000 		.4byte	.LBB911
 5206 09c5 06000000 		.4byte	.LBE911-.LBB911
 5207 09c9 06       		.byte	0x6
 5208 09ca BA01     		.2byte	0x1ba
 5209 09cc 08       		.byte	0x8
 5210 09cd EC090000 		.4byte	0x9ec
 5211 09d1 1D       		.uleb128 0x1d
 5212 09d2 C7210000 		.4byte	0x21c7
 5213 09d6 C6010000 		.4byte	.LLST127
 5214 09da C4010000 		.4byte	.LVUS127
 5215 09de 1F       		.uleb128 0x1f
 5216 09df D4210000 		.4byte	0x21d4
 5217 09e3 DB010000 		.4byte	.LLST128
 5218 09e7 D9010000 		.4byte	.LVUS128
 5219 09eb 00       		.byte	0
 5220 09ec 22       		.uleb128 0x22
 5221 09ed 14000000 		.4byte	.LVL181
 5222 09f1 21260000 		.4byte	0x2621
 5223 09f5 00       		.byte	0
 5224 09f6 00       		.byte	0
 5225 09f7 23       		.uleb128 0x23
 5226 09f8 71080000 		.4byte	.LASF108
 5227 09fc 01       		.byte	0x1
 5228 09fd 5D03     		.2byte	0x35d
 5229 09ff 07       		.byte	0x7
 5230 0a00 EF000000 		.4byte	0xef
 5231 0a04 00000000 		.4byte	.LFB269
 5232 0a08 28000000 		.4byte	.LFE269-.LFB269
 5233 0a0c 01       		.uleb128 0x1
 5234 0a0d 9C       		.byte	0x9c
 5235 0a0e 840A0000 		.4byte	0xa84
 5236 0a12 1B       		.uleb128 0x1b
 5237 0a13 74717000 		.ascii	"tqp\000"
 5238 0a17 01       		.byte	0x1
 5239 0a18 5D03     		.2byte	0x35d
 5240 0a1a 2D       		.byte	0x2d
 5241 0a1b 0B090000 		.4byte	0x90b
 5242 0a1f F8010000 		.4byte	.LLST117
 5243 0a23 EE010000 		.4byte	.LVUS117
ARM GAS  /tmp/cc4ZUYx9.s 			page 93


 5244 0a27 24       		.uleb128 0x24
 5245 0a28 0A030000 		.4byte	.LASF104
 5246 0a2c 01       		.byte	0x1
 5247 0a2d 5D03     		.2byte	0x35d
 5248 0a2f 3C       		.byte	0x3c
 5249 0a30 13010000 		.4byte	0x113
 5250 0a34 43020000 		.4byte	.LLST118
 5251 0a38 3D020000 		.4byte	.LVUS118
 5252 0a3c 1C       		.uleb128 0x1c
 5253 0a3d E1210000 		.4byte	0x21e1
 5254 0a41 0C000000 		.4byte	.LBI899
 5255 0a45 01       		.byte	.LVU1153
 5256 0a46 80070000 		.4byte	.Ldebug_ranges0+0x780
 5257 0a4a 01       		.byte	0x1
 5258 0a4b 6303     		.2byte	0x363
 5259 0a4d 03       		.byte	0x3
 5260 0a4e 6D0A0000 		.4byte	0xa6d
 5261 0a52 1D       		.uleb128 0x1d
 5262 0a53 FB210000 		.4byte	0x21fb
 5263 0a57 73020000 		.4byte	.LLST119
 5264 0a5b 6F020000 		.4byte	.LVUS119
 5265 0a5f 1D       		.uleb128 0x1d
 5266 0a60 EF210000 		.4byte	0x21ef
 5267 0a64 93020000 		.4byte	.LLST120
 5268 0a68 91020000 		.4byte	.LVUS120
 5269 0a6c 00       		.byte	0
 5270 0a6d 25       		.uleb128 0x25
 5271 0a6e 1C000000 		.4byte	.LVL174
 5272 0a72 2E260000 		.4byte	0x262e
 5273 0a76 26       		.uleb128 0x26
 5274 0a77 01       		.uleb128 0x1
 5275 0a78 50       		.byte	0x50
 5276 0a79 01       		.uleb128 0x1
 5277 0a7a 34       		.byte	0x34
 5278 0a7b 26       		.uleb128 0x26
 5279 0a7c 01       		.uleb128 0x1
 5280 0a7d 51       		.byte	0x51
 5281 0a7e 03       		.uleb128 0x3
 5282 0a7f F3       		.byte	0xf3
 5283 0a80 01       		.uleb128 0x1
 5284 0a81 51       		.byte	0x51
 5285 0a82 00       		.byte	0
 5286 0a83 00       		.byte	0
 5287 0a84 1A       		.uleb128 0x1a
 5288 0a85 96010000 		.4byte	.LASF105
 5289 0a89 01       		.byte	0x1
 5290 0a8a 3F03     		.2byte	0x33f
 5291 0a8c 06       		.byte	0x6
 5292 0a8d 00000000 		.4byte	.LFB268
 5293 0a91 1E000000 		.4byte	.LFE268-.LFB268
 5294 0a95 01       		.uleb128 0x1
 5295 0a96 9C       		.byte	0x9c
 5296 0a97 C10B0000 		.4byte	0xbc1
 5297 0a9b 1B       		.uleb128 0x1b
 5298 0a9c 74727000 		.ascii	"trp\000"
 5299 0aa0 01       		.byte	0x1
 5300 0aa1 3F03     		.2byte	0x33f
ARM GAS  /tmp/cc4ZUYx9.s 			page 94


 5301 0aa3 26       		.byte	0x26
 5302 0aa4 FD060000 		.4byte	0x6fd
 5303 0aa8 AC020000 		.4byte	.LLST110
 5304 0aac A6020000 		.4byte	.LVUS110
 5305 0ab0 1B       		.uleb128 0x1b
 5306 0ab1 6D736700 		.ascii	"msg\000"
 5307 0ab5 01       		.byte	0x1
 5308 0ab6 3F03     		.2byte	0x33f
 5309 0ab8 31       		.byte	0x31
 5310 0ab9 EF000000 		.4byte	0xef
 5311 0abd DC020000 		.4byte	.LLST111
 5312 0ac1 D8020000 		.4byte	.LVUS111
 5313 0ac5 1C       		.uleb128 0x1c
 5314 0ac6 93210000 		.4byte	0x2193
 5315 0aca 06000000 		.4byte	.LBI877
 5316 0ace 01       		.byte	.LVU1109
 5317 0acf 08070000 		.4byte	.Ldebug_ranges0+0x708
 5318 0ad3 01       		.byte	0x1
 5319 0ad4 4103     		.2byte	0x341
 5320 0ad6 03       		.byte	0x3
 5321 0ad7 0F0B0000 		.4byte	0xb0f
 5322 0adb 27       		.uleb128 0x27
 5323 0adc 05230000 		.4byte	0x2305
 5324 0ae0 06000000 		.4byte	.LBI878
 5325 0ae4 03       		.byte	.LVU1111
 5326 0ae5 30070000 		.4byte	.Ldebug_ranges0+0x730
 5327 0ae9 03       		.byte	0x3
 5328 0aea 7801     		.2byte	0x178
 5329 0aec 03       		.byte	0x3
 5330 0aed 27       		.uleb128 0x27
 5331 0aee 0F230000 		.4byte	0x230f
 5332 0af2 06000000 		.4byte	.LBI879
 5333 0af6 05       		.byte	.LVU1113
 5334 0af7 50070000 		.4byte	.Ldebug_ranges0+0x750
 5335 0afb 04       		.byte	0x4
 5336 0afc 5A02     		.2byte	0x25a
 5337 0afe 03       		.byte	0x3
 5338 0aff 1D       		.uleb128 0x1d
 5339 0b00 1D230000 		.4byte	0x231d
 5340 0b04 FF020000 		.4byte	.LLST112
 5341 0b08 FD020000 		.4byte	.LVUS112
 5342 0b0c 00       		.byte	0
 5343 0b0d 00       		.byte	0
 5344 0b0e 00       		.byte	0
 5345 0b0f 20       		.uleb128 0x20
 5346 0b10 C10B0000 		.4byte	0xbc1
 5347 0b14 0A000000 		.4byte	.LBI888
 5348 0b18 04       		.byte	.LVU1119
 5349 0b19 0A000000 		.4byte	.LBB888
 5350 0b1d 0C000000 		.4byte	.LBE888-.LBB888
 5351 0b21 01       		.byte	0x1
 5352 0b22 4203     		.2byte	0x342
 5353 0b24 03       		.byte	0x3
 5354 0b25 700B0000 		.4byte	0xb70
 5355 0b29 1D       		.uleb128 0x1d
 5356 0b2a DC0B0000 		.4byte	0xbdc
 5357 0b2e 18030000 		.4byte	.LLST113
ARM GAS  /tmp/cc4ZUYx9.s 			page 95


 5358 0b32 14030000 		.4byte	.LVUS113
 5359 0b36 1D       		.uleb128 0x1d
 5360 0b37 CF0B0000 		.4byte	0xbcf
 5361 0b3b 3F030000 		.4byte	.LLST114
 5362 0b3f 39030000 		.4byte	.LVUS114
 5363 0b43 28       		.uleb128 0x28
 5364 0b44 F20B0000 		.4byte	0xbf2
 5365 0b48 0E000000 		.4byte	.LBB890
 5366 0b4c 08000000 		.4byte	.LBE890-.LBB890
 5367 0b50 1F       		.uleb128 0x1f
 5368 0b51 F30B0000 		.4byte	0xbf3
 5369 0b55 6D030000 		.4byte	.LLST115
 5370 0b59 6B030000 		.4byte	.LVUS115
 5371 0b5d 29       		.uleb128 0x29
 5372 0b5e 16000000 		.4byte	.LVL168
 5373 0b62 3B260000 		.4byte	0x263b
 5374 0b66 26       		.uleb128 0x26
 5375 0b67 01       		.uleb128 0x1
 5376 0b68 51       		.byte	0x51
 5377 0b69 03       		.uleb128 0x3
 5378 0b6a F3       		.byte	0xf3
 5379 0b6b 01       		.uleb128 0x1
 5380 0b6c 51       		.byte	0x51
 5381 0b6d 00       		.byte	0
 5382 0b6e 00       		.byte	0
 5383 0b6f 00       		.byte	0
 5384 0b70 27       		.uleb128 0x27
 5385 0b71 7B210000 		.4byte	0x217b
 5386 0b75 16000000 		.4byte	.LBI891
 5387 0b79 02       		.byte	.LVU1132
 5388 0b7a 68070000 		.4byte	.Ldebug_ranges0+0x768
 5389 0b7e 01       		.byte	0x1
 5390 0b7f 4303     		.2byte	0x343
 5391 0b81 03       		.byte	0x3
 5392 0b82 2A       		.uleb128 0x2a
 5393 0b83 68070000 		.4byte	.Ldebug_ranges0+0x768
 5394 0b87 27       		.uleb128 0x27
 5395 0b88 FB220000 		.4byte	0x22fb
 5396 0b8c 16000000 		.4byte	.LBI893
 5397 0b90 09       		.byte	.LVU1139
 5398 0b91 68070000 		.4byte	.Ldebug_ranges0+0x768
 5399 0b95 03       		.byte	0x3
 5400 0b96 8F01     		.2byte	0x18f
 5401 0b98 03       		.byte	0x3
 5402 0b99 1E       		.uleb128 0x1e
 5403 0b9a 0F230000 		.4byte	0x230f
 5404 0b9e 16000000 		.4byte	.LBI894
 5405 0ba2 0B       		.byte	.LVU1141
 5406 0ba3 16000000 		.4byte	.LBB894
 5407 0ba7 06000000 		.4byte	.LBE894-.LBB894
 5408 0bab 04       		.byte	0x4
 5409 0bac 6D02     		.2byte	0x26d
 5410 0bae 03       		.byte	0x3
 5411 0baf 1D       		.uleb128 0x1d
 5412 0bb0 1D230000 		.4byte	0x231d
 5413 0bb4 82030000 		.4byte	.LLST116
 5414 0bb8 80030000 		.4byte	.LVUS116
ARM GAS  /tmp/cc4ZUYx9.s 			page 96


 5415 0bbc 00       		.byte	0
 5416 0bbd 00       		.byte	0
 5417 0bbe 00       		.byte	0
 5418 0bbf 00       		.byte	0
 5419 0bc0 00       		.byte	0
 5420 0bc1 2B       		.uleb128 0x2b
 5421 0bc2 92020000 		.4byte	.LASF123
 5422 0bc6 01       		.byte	0x1
 5423 0bc7 2903     		.2byte	0x329
 5424 0bc9 06       		.byte	0x6
 5425 0bca 01       		.byte	0x1
 5426 0bcb 120C0000 		.4byte	0xc12
 5427 0bcf 2C       		.uleb128 0x2c
 5428 0bd0 74727000 		.ascii	"trp\000"
 5429 0bd4 01       		.byte	0x1
 5430 0bd5 2903     		.2byte	0x329
 5431 0bd7 27       		.byte	0x27
 5432 0bd8 FD060000 		.4byte	0x6fd
 5433 0bdc 2C       		.uleb128 0x2c
 5434 0bdd 6D736700 		.ascii	"msg\000"
 5435 0be1 01       		.byte	0x1
 5436 0be2 2903     		.2byte	0x329
 5437 0be4 32       		.byte	0x32
 5438 0be5 EF000000 		.4byte	0xef
 5439 0be9 2D       		.uleb128 0x2d
 5440 0bea 43060000 		.4byte	.LASF107
 5441 0bee 220C0000 		.4byte	0xc22
 5442 0bf2 2E       		.uleb128 0x2e
 5443 0bf3 2F       		.uleb128 0x2f
 5444 0bf4 747000   		.ascii	"tp\000"
 5445 0bf7 01       		.byte	0x1
 5446 0bf8 2C03     		.2byte	0x32c
 5447 0bfa 0F       		.byte	0xf
 5448 0bfb 27020000 		.4byte	0x227
 5449 0bff 25       		.uleb128 0x25
 5450 0c00 0E000000 		.4byte	.LVL162
 5451 0c04 3B260000 		.4byte	0x263b
 5452 0c08 26       		.uleb128 0x26
 5453 0c09 01       		.uleb128 0x1
 5454 0c0a 51       		.byte	0x51
 5455 0c0b 03       		.uleb128 0x3
 5456 0c0c F3       		.byte	0xf3
 5457 0c0d 01       		.uleb128 0x1
 5458 0c0e 51       		.byte	0x51
 5459 0c0f 00       		.byte	0
 5460 0c10 00       		.byte	0
 5461 0c11 00       		.byte	0
 5462 0c12 11       		.uleb128 0x11
 5463 0c13 7E070000 		.4byte	0x77e
 5464 0c17 220C0000 		.4byte	0xc22
 5465 0c1b 12       		.uleb128 0x12
 5466 0c1c 38000000 		.4byte	0x38
 5467 0c20 0C       		.byte	0xc
 5468 0c21 00       		.byte	0
 5469 0c22 0C       		.uleb128 0xc
 5470 0c23 120C0000 		.4byte	0xc12
 5471 0c27 1A       		.uleb128 0x1a
ARM GAS  /tmp/cc4ZUYx9.s 			page 97


 5472 0c28 7C020000 		.4byte	.LASF106
 5473 0c2c 01       		.byte	0x1
 5474 0c2d 1203     		.2byte	0x312
 5475 0c2f 06       		.byte	0x6
 5476 0c30 00000000 		.4byte	.LFB266
 5477 0c34 12000000 		.4byte	.LFE266-.LFB266
 5478 0c38 01       		.uleb128 0x1
 5479 0c39 9C       		.byte	0x9c
 5480 0c3a 990C0000 		.4byte	0xc99
 5481 0c3e 1B       		.uleb128 0x1b
 5482 0c3f 74727000 		.ascii	"trp\000"
 5483 0c43 01       		.byte	0x1
 5484 0c44 1203     		.2byte	0x312
 5485 0c46 27       		.byte	0x27
 5486 0c47 FD060000 		.4byte	0x6fd
 5487 0c4b 9E030000 		.4byte	.LLST104
 5488 0c4f 96030000 		.4byte	.LVUS104
 5489 0c53 1B       		.uleb128 0x1b
 5490 0c54 6D736700 		.ascii	"msg\000"
 5491 0c58 01       		.byte	0x1
 5492 0c59 1203     		.2byte	0x312
 5493 0c5b 32       		.byte	0x32
 5494 0c5c EF000000 		.4byte	0xef
 5495 0c60 DB030000 		.4byte	.LLST105
 5496 0c64 D5030000 		.4byte	.LVUS105
 5497 0c68 2D       		.uleb128 0x2d
 5498 0c69 43060000 		.4byte	.LASF107
 5499 0c6d 220C0000 		.4byte	0xc22
 5500 0c71 30       		.uleb128 0x30
 5501 0c72 06000000 		.4byte	.LBB875
 5502 0c76 0A000000 		.4byte	.LBE875-.LBB875
 5503 0c7a 31       		.uleb128 0x31
 5504 0c7b 747000   		.ascii	"tp\000"
 5505 0c7e 01       		.byte	0x1
 5506 0c7f 1503     		.2byte	0x315
 5507 0c81 0F       		.byte	0xf
 5508 0c82 27020000 		.4byte	0x227
 5509 0c86 09040000 		.4byte	.LLST106
 5510 0c8a 07040000 		.4byte	.LVUS106
 5511 0c8e 22       		.uleb128 0x22
 5512 0c8f 10000000 		.4byte	.LVL158
 5513 0c93 21260000 		.4byte	0x2621
 5514 0c97 00       		.byte	0
 5515 0c98 00       		.byte	0
 5516 0c99 23       		.uleb128 0x23
 5517 0c9a DB030000 		.4byte	.LASF109
 5518 0c9e 01       		.byte	0x1
 5519 0c9f F902     		.2byte	0x2f9
 5520 0ca1 07       		.byte	0x7
 5521 0ca2 EF000000 		.4byte	0xef
 5522 0ca6 00000000 		.4byte	.LFB265
 5523 0caa 1C000000 		.4byte	.LFE265-.LFB265
 5524 0cae 01       		.uleb128 0x1
 5525 0caf 9C       		.byte	0x9c
 5526 0cb0 280D0000 		.4byte	0xd28
 5527 0cb4 1B       		.uleb128 0x1b
 5528 0cb5 74727000 		.ascii	"trp\000"
ARM GAS  /tmp/cc4ZUYx9.s 			page 98


 5529 0cb9 01       		.byte	0x1
 5530 0cba F902     		.2byte	0x2f9
 5531 0cbc 30       		.byte	0x30
 5532 0cbd FD060000 		.4byte	0x6fd
 5533 0cc1 26040000 		.4byte	.LLST101
 5534 0cc5 1C040000 		.4byte	.LVUS101
 5535 0cc9 24       		.uleb128 0x24
 5536 0cca 0A030000 		.4byte	.LASF104
 5537 0cce 01       		.byte	0x1
 5538 0ccf F902     		.2byte	0x2f9
 5539 0cd1 3F       		.byte	0x3f
 5540 0cd2 13010000 		.4byte	0x113
 5541 0cd6 6E040000 		.4byte	.LLST102
 5542 0cda 68040000 		.4byte	.LVUS102
 5543 0cde 31       		.uleb128 0x31
 5544 0cdf 747000   		.ascii	"tp\000"
 5545 0ce2 01       		.byte	0x1
 5546 0ce3 FA02     		.2byte	0x2fa
 5547 0ce5 0D       		.byte	0xd
 5548 0ce6 27020000 		.4byte	0x227
 5549 0cea 9E040000 		.4byte	.LLST103
 5550 0cee 9A040000 		.4byte	.LVUS103
 5551 0cf2 2D       		.uleb128 0x2d
 5552 0cf3 43060000 		.4byte	.LASF107
 5553 0cf7 380D0000 		.4byte	0xd38
 5554 0cfb 32       		.uleb128 0x32
 5555 0cfc 25210000 		.4byte	0x2125
 5556 0d00 00000000 		.4byte	.LBI873
 5557 0d04 02       		.byte	.LVU1054
 5558 0d05 00000000 		.4byte	.LBB873
 5559 0d09 04000000 		.4byte	.LBE873-.LBB873
 5560 0d0d 01       		.byte	0x1
 5561 0d0e FA02     		.2byte	0x2fa
 5562 0d10 12       		.byte	0x12
 5563 0d11 25       		.uleb128 0x25
 5564 0d12 12000000 		.4byte	.LVL153
 5565 0d16 2E260000 		.4byte	0x262e
 5566 0d1a 26       		.uleb128 0x26
 5567 0d1b 01       		.uleb128 0x1
 5568 0d1c 50       		.byte	0x50
 5569 0d1d 01       		.uleb128 0x1
 5570 0d1e 33       		.byte	0x33
 5571 0d1f 26       		.uleb128 0x26
 5572 0d20 01       		.uleb128 0x1
 5573 0d21 51       		.byte	0x51
 5574 0d22 03       		.uleb128 0x3
 5575 0d23 F3       		.byte	0xf3
 5576 0d24 01       		.uleb128 0x1
 5577 0d25 51       		.byte	0x51
 5578 0d26 00       		.byte	0
 5579 0d27 00       		.byte	0
 5580 0d28 11       		.uleb128 0x11
 5581 0d29 7E070000 		.4byte	0x77e
 5582 0d2d 380D0000 		.4byte	0xd38
 5583 0d31 12       		.uleb128 0x12
 5584 0d32 38000000 		.4byte	0x38
 5585 0d36 14       		.byte	0x14
ARM GAS  /tmp/cc4ZUYx9.s 			page 99


 5586 0d37 00       		.byte	0
 5587 0d38 0C       		.uleb128 0xc
 5588 0d39 280D0000 		.4byte	0xd28
 5589 0d3d 23       		.uleb128 0x23
 5590 0d3e 6A050000 		.4byte	.LASF110
 5591 0d42 01       		.byte	0x1
 5592 0d43 DA02     		.2byte	0x2da
 5593 0d45 07       		.byte	0x7
 5594 0d46 EF000000 		.4byte	0xef
 5595 0d4a 00000000 		.4byte	.LFB264
 5596 0d4e 1C000000 		.4byte	.LFE264-.LFB264
 5597 0d52 01       		.uleb128 0x1
 5598 0d53 9C       		.byte	0x9c
 5599 0d54 C20D0000 		.4byte	0xdc2
 5600 0d58 1B       		.uleb128 0x1b
 5601 0d59 74727000 		.ascii	"trp\000"
 5602 0d5d 01       		.byte	0x1
 5603 0d5e DA02     		.2byte	0x2da
 5604 0d60 29       		.byte	0x29
 5605 0d61 FD060000 		.4byte	0x6fd
 5606 0d65 C2040000 		.4byte	.LLST99
 5607 0d69 BC040000 		.4byte	.LVUS99
 5608 0d6d 31       		.uleb128 0x31
 5609 0d6e 747000   		.ascii	"tp\000"
 5610 0d71 01       		.byte	0x1
 5611 0d72 DB02     		.2byte	0x2db
 5612 0d74 0D       		.byte	0xd
 5613 0d75 27020000 		.4byte	0x227
 5614 0d79 F0040000 		.4byte	.LLST100
 5615 0d7d EE040000 		.4byte	.LVUS100
 5616 0d81 2D       		.uleb128 0x2d
 5617 0d82 43060000 		.4byte	.LASF107
 5618 0d86 D20D0000 		.4byte	0xdd2
 5619 0d8a 33       		.uleb128 0x33
 5620 0d8b 25210000 		.4byte	0x2125
 5621 0d8f 00000000 		.4byte	.LBI865
 5622 0d93 02       		.byte	.LVU1031
 5623 0d94 E8060000 		.4byte	.Ldebug_ranges0+0x6e8
 5624 0d98 01       		.byte	0x1
 5625 0d99 DB02     		.2byte	0x2db
 5626 0d9b 12       		.byte	0x12
 5627 0d9c 32       		.uleb128 0x32
 5628 0d9d 25210000 		.4byte	0x2125
 5629 0da1 12000000 		.4byte	.LBI871
 5630 0da5 01       		.byte	.LVU1048
 5631 0da6 12000000 		.4byte	.LBB871
 5632 0daa 00000000 		.4byte	.LBE871-.LBB871
 5633 0dae 01       		.byte	0x1
 5634 0daf E302     		.2byte	0x2e3
 5635 0db1 0A       		.byte	0xa
 5636 0db2 29       		.uleb128 0x29
 5637 0db3 12000000 		.4byte	.LVL149
 5638 0db7 48260000 		.4byte	0x2648
 5639 0dbb 26       		.uleb128 0x26
 5640 0dbc 01       		.uleb128 0x1
 5641 0dbd 50       		.byte	0x50
 5642 0dbe 01       		.uleb128 0x1
ARM GAS  /tmp/cc4ZUYx9.s 			page 100


 5643 0dbf 33       		.byte	0x33
 5644 0dc0 00       		.byte	0
 5645 0dc1 00       		.byte	0
 5646 0dc2 11       		.uleb128 0x11
 5647 0dc3 7E070000 		.4byte	0x77e
 5648 0dc7 D20D0000 		.4byte	0xdd2
 5649 0dcb 12       		.uleb128 0x12
 5650 0dcc 38000000 		.4byte	0x38
 5651 0dd0 0D       		.byte	0xd
 5652 0dd1 00       		.byte	0
 5653 0dd2 0C       		.uleb128 0xc
 5654 0dd3 C20D0000 		.4byte	0xdc2
 5655 0dd7 1A       		.uleb128 0x1a
 5656 0dd8 F5070000 		.4byte	.LASF111
 5657 0ddc 01       		.byte	0x1
 5658 0ddd C902     		.2byte	0x2c9
 5659 0ddf 06       		.byte	0x6
 5660 0de0 00000000 		.4byte	.LFB263
 5661 0de4 30000000 		.4byte	.LFE263-.LFB263
 5662 0de8 01       		.uleb128 0x1
 5663 0de9 9C       		.byte	0x9c
 5664 0dea BB0E0000 		.4byte	0xebb
 5665 0dee 1C       		.uleb128 0x1c
 5666 0def 93210000 		.4byte	0x2193
 5667 0df3 00000000 		.4byte	.LBI832
 5668 0df7 02       		.byte	.LVU979
 5669 0df8 68060000 		.4byte	.Ldebug_ranges0+0x668
 5670 0dfc 01       		.byte	0x1
 5671 0dfd CB02     		.2byte	0x2cb
 5672 0dff 03       		.byte	0x3
 5673 0e00 380E0000 		.4byte	0xe38
 5674 0e04 27       		.uleb128 0x27
 5675 0e05 05230000 		.4byte	0x2305
 5676 0e09 00000000 		.4byte	.LBI833
 5677 0e0d 04       		.byte	.LVU981
 5678 0e0e 70060000 		.4byte	.Ldebug_ranges0+0x670
 5679 0e12 03       		.byte	0x3
 5680 0e13 7801     		.2byte	0x178
 5681 0e15 03       		.byte	0x3
 5682 0e16 27       		.uleb128 0x27
 5683 0e17 0F230000 		.4byte	0x230f
 5684 0e1b 00000000 		.4byte	.LBI834
 5685 0e1f 06       		.byte	.LVU983
 5686 0e20 78060000 		.4byte	.Ldebug_ranges0+0x678
 5687 0e24 04       		.byte	0x4
 5688 0e25 5A02     		.2byte	0x25a
 5689 0e27 03       		.byte	0x3
 5690 0e28 1D       		.uleb128 0x1d
 5691 0e29 1D230000 		.4byte	0x231d
 5692 0e2d 05050000 		.4byte	.LLST97
 5693 0e31 03050000 		.4byte	.LVUS97
 5694 0e35 00       		.byte	0
 5695 0e36 00       		.byte	0
 5696 0e37 00       		.byte	0
 5697 0e38 1C       		.uleb128 0x1c
 5698 0e39 9D210000 		.4byte	0x219d
 5699 0e3d 08000000 		.4byte	.LBI843
ARM GAS  /tmp/cc4ZUYx9.s 			page 101


 5700 0e41 04       		.byte	.LVU991
 5701 0e42 90060000 		.4byte	.Ldebug_ranges0+0x690
 5702 0e46 01       		.byte	0x1
 5703 0e47 CC02     		.2byte	0x2cc
 5704 0e49 03       		.byte	0x3
 5705 0e4a 6E0E0000 		.4byte	0xe6e
 5706 0e4e 32       		.uleb128 0x32
 5707 0e4f A7210000 		.4byte	0x21a7
 5708 0e53 08000000 		.4byte	.LBI845
 5709 0e57 07       		.byte	.LVU994
 5710 0e58 08000000 		.4byte	.LBB845
 5711 0e5c 06000000 		.4byte	.LBE845-.LBB845
 5712 0e60 02       		.byte	0x2
 5713 0e61 B302     		.2byte	0x2b3
 5714 0e63 07       		.byte	0x7
 5715 0e64 21       		.uleb128 0x21
 5716 0e65 22000000 		.4byte	.LVL144
 5717 0e69 55260000 		.4byte	0x2655
 5718 0e6d 00       		.byte	0
 5719 0e6e 27       		.uleb128 0x27
 5720 0e6f 7B210000 		.4byte	0x217b
 5721 0e73 16000000 		.4byte	.LBI848
 5722 0e77 01       		.byte	.LVU1001
 5723 0e78 A8060000 		.4byte	.Ldebug_ranges0+0x6a8
 5724 0e7c 01       		.byte	0x1
 5725 0e7d CD02     		.2byte	0x2cd
 5726 0e7f 03       		.byte	0x3
 5727 0e80 2A       		.uleb128 0x2a
 5728 0e81 A8060000 		.4byte	.Ldebug_ranges0+0x6a8
 5729 0e85 27       		.uleb128 0x27
 5730 0e86 FB220000 		.4byte	0x22fb
 5731 0e8a 16000000 		.4byte	.LBI850
 5732 0e8e 08       		.byte	.LVU1008
 5733 0e8f A8060000 		.4byte	.Ldebug_ranges0+0x6a8
 5734 0e93 03       		.byte	0x3
 5735 0e94 8F01     		.2byte	0x18f
 5736 0e96 03       		.byte	0x3
 5737 0e97 27       		.uleb128 0x27
 5738 0e98 0F230000 		.4byte	0x230f
 5739 0e9c 16000000 		.4byte	.LBI851
 5740 0ea0 0A       		.byte	.LVU1010
 5741 0ea1 D0060000 		.4byte	.Ldebug_ranges0+0x6d0
 5742 0ea5 04       		.byte	0x4
 5743 0ea6 6D02     		.2byte	0x26d
 5744 0ea8 03       		.byte	0x3
 5745 0ea9 1D       		.uleb128 0x1d
 5746 0eaa 1D230000 		.4byte	0x231d
 5747 0eae 1E050000 		.4byte	.LLST98
 5748 0eb2 1A050000 		.4byte	.LVUS98
 5749 0eb6 00       		.byte	0
 5750 0eb7 00       		.byte	0
 5751 0eb8 00       		.byte	0
 5752 0eb9 00       		.byte	0
 5753 0eba 00       		.byte	0
 5754 0ebb 23       		.uleb128 0x23
 5755 0ebc D0000000 		.4byte	.LASF112
 5756 0ec0 01       		.byte	0x1
ARM GAS  /tmp/cc4ZUYx9.s 			page 102


 5757 0ec1 B502     		.2byte	0x2b5
 5758 0ec3 0B       		.byte	0xb
 5759 0ec4 13010000 		.4byte	0x113
 5760 0ec8 00000000 		.4byte	.LFB262
 5761 0ecc 34000000 		.4byte	.LFE262-.LFB262
 5762 0ed0 01       		.uleb128 0x1
 5763 0ed1 9C       		.byte	0x9c
 5764 0ed2 5C100000 		.4byte	0x105c
 5765 0ed6 24       		.uleb128 0x24
 5766 0ed7 B0000000 		.4byte	.LASF47
 5767 0edb 01       		.byte	0x1
 5768 0edc B502     		.2byte	0x2b5
 5769 0ede 2D       		.byte	0x2d
 5770 0edf 13010000 		.4byte	0x113
 5771 0ee3 42050000 		.4byte	.LLST88
 5772 0ee7 3E050000 		.4byte	.LVUS88
 5773 0eeb 24       		.uleb128 0x24
 5774 0eec 6C000000 		.4byte	.LASF44
 5775 0ef0 01       		.byte	0x1
 5776 0ef1 B502     		.2byte	0x2b5
 5777 0ef3 3D       		.byte	0x3d
 5778 0ef4 13010000 		.4byte	0x113
 5779 0ef8 67050000 		.4byte	.LLST89
 5780 0efc 63050000 		.4byte	.LVUS89
 5781 0f00 34       		.uleb128 0x34
 5782 0f01 31050000 		.4byte	.LASF113
 5783 0f05 01       		.byte	0x1
 5784 0f06 B602     		.2byte	0x2b6
 5785 0f08 0D       		.byte	0xd
 5786 0f09 13010000 		.4byte	0x113
 5787 0f0d 87050000 		.4byte	.LLST90
 5788 0f11 85050000 		.4byte	.LVUS90
 5789 0f15 1C       		.uleb128 0x1c
 5790 0f16 93210000 		.4byte	0x2193
 5791 0f1a 00000000 		.4byte	.LBI771
 5792 0f1e 03       		.byte	.LVU907
 5793 0f1f B8050000 		.4byte	.Ldebug_ranges0+0x5b8
 5794 0f23 01       		.byte	0x1
 5795 0f24 B802     		.2byte	0x2b8
 5796 0f26 03       		.byte	0x3
 5797 0f27 5F0F0000 		.4byte	0xf5f
 5798 0f2b 27       		.uleb128 0x27
 5799 0f2c 05230000 		.4byte	0x2305
 5800 0f30 00000000 		.4byte	.LBI772
 5801 0f34 05       		.byte	.LVU909
 5802 0f35 C0050000 		.4byte	.Ldebug_ranges0+0x5c0
 5803 0f39 03       		.byte	0x3
 5804 0f3a 7801     		.2byte	0x178
 5805 0f3c 03       		.byte	0x3
 5806 0f3d 27       		.uleb128 0x27
 5807 0f3e 0F230000 		.4byte	0x230f
 5808 0f42 00000000 		.4byte	.LBI773
 5809 0f46 07       		.byte	.LVU911
 5810 0f47 C8050000 		.4byte	.Ldebug_ranges0+0x5c8
 5811 0f4b 04       		.byte	0x4
 5812 0f4c 5A02     		.2byte	0x25a
 5813 0f4e 03       		.byte	0x3
ARM GAS  /tmp/cc4ZUYx9.s 			page 103


 5814 0f4f 1D       		.uleb128 0x1d
 5815 0f50 1D230000 		.4byte	0x231d
 5816 0f54 9C050000 		.4byte	.LLST91
 5817 0f58 9A050000 		.4byte	.LVUS91
 5818 0f5c 00       		.byte	0
 5819 0f5d 00       		.byte	0
 5820 0f5e 00       		.byte	0
 5821 0f5f 1C       		.uleb128 0x1c
 5822 0f60 6D210000 		.4byte	0x216d
 5823 0f64 0A000000 		.4byte	.LBI786
 5824 0f68 04       		.byte	.LVU921
 5825 0f69 E8050000 		.4byte	.Ldebug_ranges0+0x5e8
 5826 0f6d 01       		.byte	0x1
 5827 0f6e B902     		.2byte	0x2b9
 5828 0f70 0A       		.byte	0xa
 5829 0f71 9A0F0000 		.4byte	0xf9a
 5830 0f75 27       		.uleb128 0x27
 5831 0f76 E1220000 		.4byte	0x22e1
 5832 0f7a 0A000000 		.4byte	.LBI787
 5833 0f7e 06       		.byte	.LVU923
 5834 0f7f F0050000 		.4byte	.Ldebug_ranges0+0x5f0
 5835 0f83 07       		.byte	0x7
 5836 0f84 8D01     		.2byte	0x18d
 5837 0f86 0A       		.byte	0xa
 5838 0f87 35       		.uleb128 0x35
 5839 0f88 EE220000 		.4byte	0x22ee
 5840 0f8c 0A000000 		.4byte	.LBI788
 5841 0f90 08       		.byte	.LVU925
 5842 0f91 F8050000 		.4byte	.Ldebug_ranges0+0x5f8
 5843 0f95 08       		.byte	0x8
 5844 0f96 6B       		.byte	0x6b
 5845 0f97 0A       		.byte	0xa
 5846 0f98 00       		.byte	0
 5847 0f99 00       		.byte	0
 5848 0f9a 1C       		.uleb128 0x1c
 5849 0f9b 33210000 		.4byte	0x2133
 5850 0f9f 12000000 		.4byte	.LBI796
 5851 0fa3 02       		.byte	.LVU932
 5852 0fa4 10060000 		.4byte	.Ldebug_ranges0+0x610
 5853 0fa8 01       		.byte	0x1
 5854 0fa9 BA02     		.2byte	0x2ba
 5855 0fab 07       		.byte	0x7
 5856 0fac D80F0000 		.4byte	0xfd8
 5857 0fb0 1D       		.uleb128 0x1d
 5858 0fb1 5F210000 		.4byte	0x215f
 5859 0fb5 B3050000 		.4byte	.LLST92
 5860 0fb9 B1050000 		.4byte	.LVUS92
 5861 0fbd 1D       		.uleb128 0x1d
 5862 0fbe 52210000 		.4byte	0x2152
 5863 0fc2 C8050000 		.4byte	.LLST93
 5864 0fc6 C6050000 		.4byte	.LVUS93
 5865 0fca 1D       		.uleb128 0x1d
 5866 0fcb 45210000 		.4byte	0x2145
 5867 0fcf DD050000 		.4byte	.LLST94
 5868 0fd3 DB050000 		.4byte	.LVUS94
 5869 0fd7 00       		.byte	0
 5870 0fd8 1C       		.uleb128 0x1c
ARM GAS  /tmp/cc4ZUYx9.s 			page 104


 5871 0fd9 7B210000 		.4byte	0x217b
 5872 0fdd 18000000 		.4byte	.LBI801
 5873 0fe1 01       		.byte	.LVU938
 5874 0fe2 28060000 		.4byte	.Ldebug_ranges0+0x628
 5875 0fe6 01       		.byte	0x1
 5876 0fe7 BD02     		.2byte	0x2bd
 5877 0fe9 03       		.byte	0x3
 5878 0fea 28100000 		.4byte	0x1028
 5879 0fee 2A       		.uleb128 0x2a
 5880 0fef 28060000 		.4byte	.Ldebug_ranges0+0x628
 5881 0ff3 27       		.uleb128 0x27
 5882 0ff4 FB220000 		.4byte	0x22fb
 5883 0ff8 18000000 		.4byte	.LBI803
 5884 0ffc 08       		.byte	.LVU945
 5885 0ffd 28060000 		.4byte	.Ldebug_ranges0+0x628
 5886 1001 03       		.byte	0x3
 5887 1002 8F01     		.2byte	0x18f
 5888 1004 03       		.byte	0x3
 5889 1005 27       		.uleb128 0x27
 5890 1006 0F230000 		.4byte	0x230f
 5891 100a 18000000 		.4byte	.LBI804
 5892 100e 0A       		.byte	.LVU947
 5893 100f 50060000 		.4byte	.Ldebug_ranges0+0x650
 5894 1013 04       		.byte	0x4
 5895 1014 6D02     		.2byte	0x26d
 5896 1016 03       		.byte	0x3
 5897 1017 1D       		.uleb128 0x1d
 5898 1018 1D230000 		.4byte	0x231d
 5899 101c F4050000 		.4byte	.LLST95
 5900 1020 F0050000 		.4byte	.LVUS95
 5901 1024 00       		.byte	0
 5902 1025 00       		.byte	0
 5903 1026 00       		.byte	0
 5904 1027 00       		.byte	0
 5905 1028 1E       		.uleb128 0x1e
 5906 1029 E1200000 		.4byte	0x20e1
 5907 102d 22000000 		.4byte	.LBI815
 5908 1031 01       		.byte	.LVU953
 5909 1032 22000000 		.4byte	.LBB815
 5910 1036 08000000 		.4byte	.LBE815-.LBB815
 5911 103a 01       		.byte	0x1
 5912 103b BB02     		.2byte	0x2bb
 5913 103d 05       		.byte	0x5
 5914 103e 1D       		.uleb128 0x1d
 5915 103f EF200000 		.4byte	0x20ef
 5916 1043 18060000 		.4byte	.LLST96
 5917 1047 14060000 		.4byte	.LVUS96
 5918 104b 29       		.uleb128 0x29
 5919 104c 2A000000 		.4byte	.LVL138
 5920 1050 2E260000 		.4byte	0x262e
 5921 1054 26       		.uleb128 0x26
 5922 1055 01       		.uleb128 0x1
 5923 1056 50       		.byte	0x50
 5924 1057 01       		.uleb128 0x1
 5925 1058 38       		.byte	0x38
 5926 1059 00       		.byte	0
 5927 105a 00       		.byte	0
ARM GAS  /tmp/cc4ZUYx9.s 			page 105


 5928 105b 00       		.byte	0
 5929 105c 1A       		.uleb128 0x1a
 5930 105d 47050000 		.4byte	.LASF114
 5931 1061 01       		.byte	0x1
 5932 1062 9D02     		.2byte	0x29d
 5933 1064 06       		.byte	0x6
 5934 1065 00000000 		.4byte	.LFB261
 5935 1069 28000000 		.4byte	.LFE261-.LFB261
 5936 106d 01       		.uleb128 0x1
 5937 106e 9C       		.byte	0x9c
 5938 106f 95110000 		.4byte	0x1195
 5939 1073 24       		.uleb128 0x24
 5940 1074 31050000 		.4byte	.LASF113
 5941 1078 01       		.byte	0x1
 5942 1079 9D02     		.2byte	0x29d
 5943 107b 20       		.byte	0x20
 5944 107c 13010000 		.4byte	0x113
 5945 1080 41060000 		.4byte	.LLST84
 5946 1084 3B060000 		.4byte	.LVUS84
 5947 1088 1C       		.uleb128 0x1c
 5948 1089 93210000 		.4byte	0x2193
 5949 108d 00000000 		.4byte	.LBI735
 5950 1091 02       		.byte	.LVU845
 5951 1092 30050000 		.4byte	.Ldebug_ranges0+0x530
 5952 1096 01       		.byte	0x1
 5953 1097 9F02     		.2byte	0x29f
 5954 1099 03       		.byte	0x3
 5955 109a D2100000 		.4byte	0x10d2
 5956 109e 27       		.uleb128 0x27
 5957 109f 05230000 		.4byte	0x2305
 5958 10a3 00000000 		.4byte	.LBI736
 5959 10a7 04       		.byte	.LVU847
 5960 10a8 38050000 		.4byte	.Ldebug_ranges0+0x538
 5961 10ac 03       		.byte	0x3
 5962 10ad 7801     		.2byte	0x178
 5963 10af 03       		.byte	0x3
 5964 10b0 27       		.uleb128 0x27
 5965 10b1 0F230000 		.4byte	0x230f
 5966 10b5 00000000 		.4byte	.LBI737
 5967 10b9 06       		.byte	.LVU849
 5968 10ba 40050000 		.4byte	.Ldebug_ranges0+0x540
 5969 10be 04       		.byte	0x4
 5970 10bf 5A02     		.2byte	0x25a
 5971 10c1 03       		.byte	0x3
 5972 10c2 1D       		.uleb128 0x1d
 5973 10c3 1D230000 		.4byte	0x231d
 5974 10c7 71060000 		.4byte	.LLST85
 5975 10cb 6F060000 		.4byte	.LVUS85
 5976 10cf 00       		.byte	0
 5977 10d0 00       		.byte	0
 5978 10d1 00       		.byte	0
 5979 10d2 1C       		.uleb128 0x1c
 5980 10d3 6D210000 		.4byte	0x216d
 5981 10d7 08000000 		.4byte	.LBI746
 5982 10db 04       		.byte	.LVU857
 5983 10dc 58050000 		.4byte	.Ldebug_ranges0+0x558
 5984 10e0 01       		.byte	0x1
ARM GAS  /tmp/cc4ZUYx9.s 			page 106


 5985 10e1 A002     		.2byte	0x2a0
 5986 10e3 0B       		.byte	0xb
 5987 10e4 11110000 		.4byte	0x1111
 5988 10e8 27       		.uleb128 0x27
 5989 10e9 E1220000 		.4byte	0x22e1
 5990 10ed 08000000 		.4byte	.LBI747
 5991 10f1 06       		.byte	.LVU859
 5992 10f2 60050000 		.4byte	.Ldebug_ranges0+0x560
 5993 10f6 07       		.byte	0x7
 5994 10f7 8D01     		.2byte	0x18d
 5995 10f9 0A       		.byte	0xa
 5996 10fa 36       		.uleb128 0x36
 5997 10fb EE220000 		.4byte	0x22ee
 5998 10ff 08000000 		.4byte	.LBI748
 5999 1103 08       		.byte	.LVU861
 6000 1104 08000000 		.4byte	.LBB748
 6001 1108 06000000 		.4byte	.LBE748-.LBB748
 6002 110c 08       		.byte	0x8
 6003 110d 6B       		.byte	0x6b
 6004 110e 0A       		.byte	0xa
 6005 110f 00       		.byte	0
 6006 1110 00       		.byte	0
 6007 1111 1C       		.uleb128 0x1c
 6008 1112 7B210000 		.4byte	0x217b
 6009 1116 12000000 		.4byte	.LBI753
 6010 111a 01       		.byte	.LVU869
 6011 111b 78050000 		.4byte	.Ldebug_ranges0+0x578
 6012 111f 01       		.byte	0x1
 6013 1120 A402     		.2byte	0x2a4
 6014 1122 03       		.byte	0x3
 6015 1123 61110000 		.4byte	0x1161
 6016 1127 2A       		.uleb128 0x2a
 6017 1128 78050000 		.4byte	.Ldebug_ranges0+0x578
 6018 112c 27       		.uleb128 0x27
 6019 112d FB220000 		.4byte	0x22fb
 6020 1131 12000000 		.4byte	.LBI755
 6021 1135 08       		.byte	.LVU876
 6022 1136 78050000 		.4byte	.Ldebug_ranges0+0x578
 6023 113a 03       		.byte	0x3
 6024 113b 8F01     		.2byte	0x18f
 6025 113d 03       		.byte	0x3
 6026 113e 27       		.uleb128 0x27
 6027 113f 0F230000 		.4byte	0x230f
 6028 1143 12000000 		.4byte	.LBI756
 6029 1147 0A       		.byte	.LVU878
 6030 1148 A0050000 		.4byte	.Ldebug_ranges0+0x5a0
 6031 114c 04       		.byte	0x4
 6032 114d 6D02     		.2byte	0x26d
 6033 114f 03       		.byte	0x3
 6034 1150 1D       		.uleb128 0x1d
 6035 1151 1D230000 		.4byte	0x231d
 6036 1155 8A060000 		.4byte	.LLST86
 6037 1159 86060000 		.4byte	.LVUS86
 6038 115d 00       		.byte	0
 6039 115e 00       		.byte	0
 6040 115f 00       		.byte	0
 6041 1160 00       		.byte	0
ARM GAS  /tmp/cc4ZUYx9.s 			page 107


 6042 1161 1E       		.uleb128 0x1e
 6043 1162 E1200000 		.4byte	0x20e1
 6044 1166 1A000000 		.4byte	.LBI767
 6045 116a 01       		.byte	.LVU883
 6046 116b 1A000000 		.4byte	.LBB767
 6047 116f 06000000 		.4byte	.LBE767-.LBB767
 6048 1173 01       		.byte	0x1
 6049 1174 A202     		.2byte	0x2a2
 6050 1176 05       		.byte	0x5
 6051 1177 1D       		.uleb128 0x1d
 6052 1178 EF200000 		.4byte	0x20ef
 6053 117c AC060000 		.4byte	.LLST87
 6054 1180 AA060000 		.4byte	.LVUS87
 6055 1184 29       		.uleb128 0x29
 6056 1185 20000000 		.4byte	.LVL128
 6057 1189 2E260000 		.4byte	0x262e
 6058 118d 26       		.uleb128 0x26
 6059 118e 01       		.uleb128 0x1
 6060 118f 50       		.byte	0x50
 6061 1190 01       		.uleb128 0x1
 6062 1191 38       		.byte	0x38
 6063 1192 00       		.byte	0
 6064 1193 00       		.byte	0
 6065 1194 00       		.byte	0
 6066 1195 1A       		.uleb128 0x1a
 6067 1196 86060000 		.4byte	.LASF115
 6068 119a 01       		.byte	0x1
 6069 119b 8902     		.2byte	0x289
 6070 119d 06       		.byte	0x6
 6071 119e 00000000 		.4byte	.LFB260
 6072 11a2 18000000 		.4byte	.LFE260-.LFB260
 6073 11a6 01       		.uleb128 0x1
 6074 11a7 9C       		.byte	0x9c
 6075 11a8 9A120000 		.4byte	0x129a
 6076 11ac 24       		.uleb128 0x24
 6077 11ad 31050000 		.4byte	.LASF113
 6078 11b1 01       		.byte	0x1
 6079 11b2 8902     		.2byte	0x289
 6080 11b4 1B       		.byte	0x1b
 6081 11b5 13010000 		.4byte	0x113
 6082 11b9 C5060000 		.4byte	.LLST80
 6083 11bd BF060000 		.4byte	.LVUS80
 6084 11c1 1C       		.uleb128 0x1c
 6085 11c2 93210000 		.4byte	0x2193
 6086 11c6 00000000 		.4byte	.LBI714
 6087 11ca 02       		.byte	.LVU808
 6088 11cb F0040000 		.4byte	.Ldebug_ranges0+0x4f0
 6089 11cf 01       		.byte	0x1
 6090 11d0 8B02     		.2byte	0x28b
 6091 11d2 03       		.byte	0x3
 6092 11d3 0B120000 		.4byte	0x120b
 6093 11d7 27       		.uleb128 0x27
 6094 11d8 05230000 		.4byte	0x2305
 6095 11dc 00000000 		.4byte	.LBI715
 6096 11e0 04       		.byte	.LVU810
 6097 11e1 F8040000 		.4byte	.Ldebug_ranges0+0x4f8
 6098 11e5 03       		.byte	0x3
ARM GAS  /tmp/cc4ZUYx9.s 			page 108


 6099 11e6 7801     		.2byte	0x178
 6100 11e8 03       		.byte	0x3
 6101 11e9 27       		.uleb128 0x27
 6102 11ea 0F230000 		.4byte	0x230f
 6103 11ee 00000000 		.4byte	.LBI716
 6104 11f2 06       		.byte	.LVU812
 6105 11f3 00050000 		.4byte	.Ldebug_ranges0+0x500
 6106 11f7 04       		.byte	0x4
 6107 11f8 5A02     		.2byte	0x25a
 6108 11fa 03       		.byte	0x3
 6109 11fb 1D       		.uleb128 0x1d
 6110 11fc 1D230000 		.4byte	0x231d
 6111 1200 F3060000 		.4byte	.LLST81
 6112 1204 F1060000 		.4byte	.LVUS81
 6113 1208 00       		.byte	0
 6114 1209 00       		.byte	0
 6115 120a 00       		.byte	0
 6116 120b 20       		.uleb128 0x20
 6117 120c E1200000 		.4byte	0x20e1
 6118 1210 0A000000 		.4byte	.LBI725
 6119 1214 04       		.byte	.LVU821
 6120 1215 0A000000 		.4byte	.LBB725
 6121 1219 06000000 		.4byte	.LBE725-.LBB725
 6122 121d 01       		.byte	0x1
 6123 121e 8C02     		.2byte	0x28c
 6124 1220 03       		.byte	0x3
 6125 1221 49120000 		.4byte	0x1249
 6126 1225 1D       		.uleb128 0x1d
 6127 1226 EF200000 		.4byte	0x20ef
 6128 122a 0E070000 		.4byte	.LLST82
 6129 122e 08070000 		.4byte	.LVUS82
 6130 1232 29       		.uleb128 0x29
 6131 1233 10000000 		.4byte	.LVL119
 6132 1237 2E260000 		.4byte	0x262e
 6133 123b 26       		.uleb128 0x26
 6134 123c 01       		.uleb128 0x1
 6135 123d 50       		.byte	0x50
 6136 123e 01       		.uleb128 0x1
 6137 123f 38       		.byte	0x38
 6138 1240 26       		.uleb128 0x26
 6139 1241 01       		.uleb128 0x1
 6140 1242 51       		.byte	0x51
 6141 1243 03       		.uleb128 0x3
 6142 1244 F3       		.byte	0xf3
 6143 1245 01       		.uleb128 0x1
 6144 1246 50       		.byte	0x50
 6145 1247 00       		.byte	0
 6146 1248 00       		.byte	0
 6147 1249 27       		.uleb128 0x27
 6148 124a 7B210000 		.4byte	0x217b
 6149 124e 10000000 		.4byte	.LBI727
 6150 1252 02       		.byte	.LVU830
 6151 1253 18050000 		.4byte	.Ldebug_ranges0+0x518
 6152 1257 01       		.byte	0x1
 6153 1258 8D02     		.2byte	0x28d
 6154 125a 03       		.byte	0x3
 6155 125b 2A       		.uleb128 0x2a
ARM GAS  /tmp/cc4ZUYx9.s 			page 109


 6156 125c 18050000 		.4byte	.Ldebug_ranges0+0x518
 6157 1260 27       		.uleb128 0x27
 6158 1261 FB220000 		.4byte	0x22fb
 6159 1265 10000000 		.4byte	.LBI729
 6160 1269 09       		.byte	.LVU837
 6161 126a 18050000 		.4byte	.Ldebug_ranges0+0x518
 6162 126e 03       		.byte	0x3
 6163 126f 8F01     		.2byte	0x18f
 6164 1271 03       		.byte	0x3
 6165 1272 1E       		.uleb128 0x1e
 6166 1273 0F230000 		.4byte	0x230f
 6167 1277 10000000 		.4byte	.LBI730
 6168 127b 0B       		.byte	.LVU839
 6169 127c 10000000 		.4byte	.LBB730
 6170 1280 06000000 		.4byte	.LBE730-.LBB730
 6171 1284 04       		.byte	0x4
 6172 1285 6D02     		.2byte	0x26d
 6173 1287 03       		.byte	0x3
 6174 1288 1D       		.uleb128 0x1d
 6175 1289 1D230000 		.4byte	0x231d
 6176 128d 3C070000 		.4byte	.LLST83
 6177 1291 3A070000 		.4byte	.LVUS83
 6178 1295 00       		.byte	0
 6179 1296 00       		.byte	0
 6180 1297 00       		.byte	0
 6181 1298 00       		.byte	0
 6182 1299 00       		.byte	0
 6183 129a 1A       		.uleb128 0x1a
 6184 129b 68030000 		.4byte	.LASF116
 6185 129f 01       		.byte	0x1
 6186 12a0 7602     		.2byte	0x276
 6187 12a2 06       		.byte	0x6
 6188 12a3 00000000 		.4byte	.LFB259
 6189 12a7 1A000000 		.4byte	.LFE259-.LFB259
 6190 12ab 01       		.uleb128 0x1
 6191 12ac 9C       		.byte	0x9c
 6192 12ad 5A130000 		.4byte	0x135a
 6193 12b1 37       		.uleb128 0x37
 6194 12b2 747000   		.ascii	"tp\000"
 6195 12b5 01       		.byte	0x1
 6196 12b6 7602     		.2byte	0x276
 6197 12b8 1F       		.byte	0x1f
 6198 12b9 27020000 		.4byte	0x227
 6199 12bd 01       		.uleb128 0x1
 6200 12be 50       		.byte	0x50
 6201 12bf 1C       		.uleb128 0x1c
 6202 12c0 93210000 		.4byte	0x2193
 6203 12c4 00000000 		.4byte	.LBI694
 6204 12c8 02       		.byte	.LVU779
 6205 12c9 98040000 		.4byte	.Ldebug_ranges0+0x498
 6206 12cd 01       		.byte	0x1
 6207 12ce 7802     		.2byte	0x278
 6208 12d0 03       		.byte	0x3
 6209 12d1 0D130000 		.4byte	0x130d
 6210 12d5 27       		.uleb128 0x27
 6211 12d6 05230000 		.4byte	0x2305
 6212 12da 00000000 		.4byte	.LBI695
ARM GAS  /tmp/cc4ZUYx9.s 			page 110


 6213 12de 04       		.byte	.LVU781
 6214 12df A0040000 		.4byte	.Ldebug_ranges0+0x4a0
 6215 12e3 03       		.byte	0x3
 6216 12e4 7801     		.2byte	0x178
 6217 12e6 03       		.byte	0x3
 6218 12e7 1E       		.uleb128 0x1e
 6219 12e8 0F230000 		.4byte	0x230f
 6220 12ec 00000000 		.4byte	.LBI696
 6221 12f0 06       		.byte	.LVU783
 6222 12f1 00000000 		.4byte	.LBB696
 6223 12f5 06000000 		.4byte	.LBE696-.LBB696
 6224 12f9 04       		.byte	0x4
 6225 12fa 5A02     		.2byte	0x25a
 6226 12fc 03       		.byte	0x3
 6227 12fd 1D       		.uleb128 0x1d
 6228 12fe 1D230000 		.4byte	0x231d
 6229 1302 52070000 		.4byte	.LLST78
 6230 1306 50070000 		.4byte	.LVUS78
 6231 130a 00       		.byte	0
 6232 130b 00       		.byte	0
 6233 130c 00       		.byte	0
 6234 130d 27       		.uleb128 0x27
 6235 130e 7B210000 		.4byte	0x217b
 6236 1312 14000000 		.4byte	.LBI701
 6237 1316 01       		.byte	.LVU793
 6238 1317 B8040000 		.4byte	.Ldebug_ranges0+0x4b8
 6239 131b 01       		.byte	0x1
 6240 131c 7A02     		.2byte	0x27a
 6241 131e 03       		.byte	0x3
 6242 131f 2A       		.uleb128 0x2a
 6243 1320 B8040000 		.4byte	.Ldebug_ranges0+0x4b8
 6244 1324 27       		.uleb128 0x27
 6245 1325 FB220000 		.4byte	0x22fb
 6246 1329 14000000 		.4byte	.LBI703
 6247 132d 08       		.byte	.LVU800
 6248 132e B8040000 		.4byte	.Ldebug_ranges0+0x4b8
 6249 1332 03       		.byte	0x3
 6250 1333 8F01     		.2byte	0x18f
 6251 1335 03       		.byte	0x3
 6252 1336 27       		.uleb128 0x27
 6253 1337 0F230000 		.4byte	0x230f
 6254 133b 14000000 		.4byte	.LBI704
 6255 133f 0A       		.byte	.LVU802
 6256 1340 D8040000 		.4byte	.Ldebug_ranges0+0x4d8
 6257 1344 04       		.byte	0x4
 6258 1345 6D02     		.2byte	0x26d
 6259 1347 03       		.byte	0x3
 6260 1348 1D       		.uleb128 0x1d
 6261 1349 1D230000 		.4byte	0x231d
 6262 134d 69070000 		.4byte	.LLST79
 6263 1351 67070000 		.4byte	.LVUS79
 6264 1355 00       		.byte	0
 6265 1356 00       		.byte	0
 6266 1357 00       		.byte	0
 6267 1358 00       		.byte	0
 6268 1359 00       		.byte	0
 6269 135a 23       		.uleb128 0x23
ARM GAS  /tmp/cc4ZUYx9.s 			page 111


 6270 135b AD020000 		.4byte	.LASF117
 6271 135f 01       		.byte	0x1
 6272 1360 5402     		.2byte	0x254
 6273 1362 09       		.byte	0x9
 6274 1363 E3000000 		.4byte	0xe3
 6275 1367 00000000 		.4byte	.LFB258
 6276 136b 30000000 		.4byte	.LFE258-.LFB258
 6277 136f 01       		.uleb128 0x1
 6278 1370 9C       		.byte	0x9c
 6279 1371 50140000 		.4byte	0x1450
 6280 1375 24       		.uleb128 0x24
 6281 1376 54030000 		.4byte	.LASF118
 6282 137a 01       		.byte	0x1
 6283 137b 5402     		.2byte	0x254
 6284 137d 22       		.byte	0x22
 6285 137e E3000000 		.4byte	0xe3
 6286 1382 81070000 		.4byte	.LLST74
 6287 1386 7D070000 		.4byte	.LVUS74
 6288 138a 34       		.uleb128 0x34
 6289 138b 4B000000 		.4byte	.LASF119
 6290 138f 01       		.byte	0x1
 6291 1390 5502     		.2byte	0x255
 6292 1392 0B       		.byte	0xb
 6293 1393 E3000000 		.4byte	0xe3
 6294 1397 A6070000 		.4byte	.LLST75
 6295 139b A2070000 		.4byte	.LVUS75
 6296 139f 2D       		.uleb128 0x2d
 6297 13a0 43060000 		.4byte	.LASF107
 6298 13a4 60140000 		.4byte	0x1460
 6299 13a8 1C       		.uleb128 0x1c
 6300 13a9 93210000 		.4byte	0x2193
 6301 13ad 00000000 		.4byte	.LBI675
 6302 13b1 06       		.byte	.LVU738
 6303 13b2 58040000 		.4byte	.Ldebug_ranges0+0x458
 6304 13b6 01       		.byte	0x1
 6305 13b7 5902     		.2byte	0x259
 6306 13b9 03       		.byte	0x3
 6307 13ba F2130000 		.4byte	0x13f2
 6308 13be 27       		.uleb128 0x27
 6309 13bf 05230000 		.4byte	0x2305
 6310 13c3 00000000 		.4byte	.LBI676
 6311 13c7 08       		.byte	.LVU740
 6312 13c8 60040000 		.4byte	.Ldebug_ranges0+0x460
 6313 13cc 03       		.byte	0x3
 6314 13cd 7801     		.2byte	0x178
 6315 13cf 03       		.byte	0x3
 6316 13d0 27       		.uleb128 0x27
 6317 13d1 0F230000 		.4byte	0x230f
 6318 13d5 00000000 		.4byte	.LBI677
 6319 13d9 0A       		.byte	.LVU742
 6320 13da 68040000 		.4byte	.Ldebug_ranges0+0x468
 6321 13de 04       		.byte	0x4
 6322 13df 5A02     		.2byte	0x25a
 6323 13e1 03       		.byte	0x3
 6324 13e2 1D       		.uleb128 0x1d
 6325 13e3 1D230000 		.4byte	0x231d
 6326 13e7 C6070000 		.4byte	.LLST76
ARM GAS  /tmp/cc4ZUYx9.s 			page 112


 6327 13eb C4070000 		.4byte	.LVUS76
 6328 13ef 00       		.byte	0
 6329 13f0 00       		.byte	0
 6330 13f1 00       		.byte	0
 6331 13f2 1C       		.uleb128 0x1c
 6332 13f3 7B210000 		.4byte	0x217b
 6333 13f7 20000000 		.4byte	.LBI686
 6334 13fb 01       		.byte	.LVU762
 6335 13fc 80040000 		.4byte	.Ldebug_ranges0+0x480
 6336 1400 01       		.byte	0x1
 6337 1401 6502     		.2byte	0x265
 6338 1403 03       		.byte	0x3
 6339 1404 46140000 		.4byte	0x1446
 6340 1408 2A       		.uleb128 0x2a
 6341 1409 80040000 		.4byte	.Ldebug_ranges0+0x480
 6342 140d 27       		.uleb128 0x27
 6343 140e FB220000 		.4byte	0x22fb
 6344 1412 20000000 		.4byte	.LBI688
 6345 1416 08       		.byte	.LVU769
 6346 1417 80040000 		.4byte	.Ldebug_ranges0+0x480
 6347 141b 03       		.byte	0x3
 6348 141c 8F01     		.2byte	0x18f
 6349 141e 03       		.byte	0x3
 6350 141f 1E       		.uleb128 0x1e
 6351 1420 0F230000 		.4byte	0x230f
 6352 1424 20000000 		.4byte	.LBI689
 6353 1428 0A       		.byte	.LVU771
 6354 1429 20000000 		.4byte	.LBB689
 6355 142d 06000000 		.4byte	.LBE689-.LBB689
 6356 1431 04       		.byte	0x4
 6357 1432 6D02     		.2byte	0x26d
 6358 1434 03       		.byte	0x3
 6359 1435 1D       		.uleb128 0x1d
 6360 1436 1D230000 		.4byte	0x231d
 6361 143a DD070000 		.4byte	.LLST77
 6362 143e DB070000 		.4byte	.LVUS77
 6363 1442 00       		.byte	0
 6364 1443 00       		.byte	0
 6365 1444 00       		.byte	0
 6366 1445 00       		.byte	0
 6367 1446 21       		.uleb128 0x21
 6368 1447 20000000 		.4byte	.LVL109
 6369 144b 62260000 		.4byte	0x2662
 6370 144f 00       		.byte	0
 6371 1450 11       		.uleb128 0x11
 6372 1451 7E070000 		.4byte	0x77e
 6373 1455 60140000 		.4byte	0x1460
 6374 1459 12       		.uleb128 0x12
 6375 145a 38000000 		.4byte	0x38
 6376 145e 10       		.byte	0x10
 6377 145f 00       		.byte	0
 6378 1460 0C       		.uleb128 0xc
 6379 1461 50140000 		.4byte	0x1450
 6380 1465 23       		.uleb128 0x23
 6381 1466 83070000 		.4byte	.LASF120
 6382 146a 01       		.byte	0x1
 6383 146b 2D02     		.2byte	0x22d
ARM GAS  /tmp/cc4ZUYx9.s 			page 113


 6384 146d 07       		.byte	0x7
 6385 146e EF000000 		.4byte	0xef
 6386 1472 00000000 		.4byte	.LFB257
 6387 1476 80000000 		.4byte	.LFE257-.LFB257
 6388 147a 01       		.uleb128 0x1
 6389 147b 9C       		.byte	0x9c
 6390 147c 39170000 		.4byte	0x1739
 6391 1480 1B       		.uleb128 0x1b
 6392 1481 747000   		.ascii	"tp\000"
 6393 1484 01       		.byte	0x1
 6394 1485 2D02     		.2byte	0x22d
 6395 1487 1B       		.byte	0x1b
 6396 1488 27020000 		.4byte	0x227
 6397 148c F5070000 		.4byte	.LLST61
 6398 1490 F1070000 		.4byte	.LVUS61
 6399 1494 31       		.uleb128 0x31
 6400 1495 6D736700 		.ascii	"msg\000"
 6401 1499 01       		.byte	0x1
 6402 149a 2E02     		.2byte	0x22e
 6403 149c 09       		.byte	0x9
 6404 149d EF000000 		.4byte	0xef
 6405 14a1 15080000 		.4byte	.LLST62
 6406 14a5 13080000 		.4byte	.LVUS62
 6407 14a9 2D       		.uleb128 0x2d
 6408 14aa 43060000 		.4byte	.LASF107
 6409 14ae 49170000 		.4byte	0x1749
 6410 14b2 1C       		.uleb128 0x1c
 6411 14b3 93210000 		.4byte	0x2193
 6412 14b7 00000000 		.4byte	.LBI605
 6413 14bb 06       		.byte	.LVU621
 6414 14bc 68030000 		.4byte	.Ldebug_ranges0+0x368
 6415 14c0 01       		.byte	0x1
 6416 14c1 3202     		.2byte	0x232
 6417 14c3 03       		.byte	0x3
 6418 14c4 FC140000 		.4byte	0x14fc
 6419 14c8 27       		.uleb128 0x27
 6420 14c9 05230000 		.4byte	0x2305
 6421 14cd 00000000 		.4byte	.LBI606
 6422 14d1 08       		.byte	.LVU623
 6423 14d2 70030000 		.4byte	.Ldebug_ranges0+0x370
 6424 14d6 03       		.byte	0x3
 6425 14d7 7801     		.2byte	0x178
 6426 14d9 03       		.byte	0x3
 6427 14da 27       		.uleb128 0x27
 6428 14db 0F230000 		.4byte	0x230f
 6429 14df 00000000 		.4byte	.LBI607
 6430 14e3 0A       		.byte	.LVU625
 6431 14e4 78030000 		.4byte	.Ldebug_ranges0+0x378
 6432 14e8 04       		.byte	0x4
 6433 14e9 5A02     		.2byte	0x25a
 6434 14eb 03       		.byte	0x3
 6435 14ec 1D       		.uleb128 0x1d
 6436 14ed 1D230000 		.4byte	0x231d
 6437 14f1 2A080000 		.4byte	.LLST63
 6438 14f5 28080000 		.4byte	.LVUS63
 6439 14f9 00       		.byte	0
 6440 14fa 00       		.byte	0
ARM GAS  /tmp/cc4ZUYx9.s 			page 114


 6441 14fb 00       		.byte	0
 6442 14fc 1C       		.uleb128 0x1c
 6443 14fd 3B220000 		.4byte	0x223b
 6444 1501 18000000 		.4byte	.LBI616
 6445 1505 00       		.byte	.LVU644
 6446 1506 90030000 		.4byte	.Ldebug_ranges0+0x390
 6447 150a 01       		.byte	0x1
 6448 150b 3902     		.2byte	0x239
 6449 150d 05       		.byte	0x5
 6450 150e 2D150000 		.4byte	0x152d
 6451 1512 1D       		.uleb128 0x1d
 6452 1513 55220000 		.4byte	0x2255
 6453 1517 43080000 		.4byte	.LLST64
 6454 151b 3F080000 		.4byte	.LVUS64
 6455 151f 1D       		.uleb128 0x1d
 6456 1520 49220000 		.4byte	0x2249
 6457 1524 67080000 		.4byte	.LLST65
 6458 1528 65080000 		.4byte	.LVUS65
 6459 152c 00       		.byte	0
 6460 152d 1C       		.uleb128 0x1c
 6461 152e 7B210000 		.4byte	0x217b
 6462 1532 24000000 		.4byte	.LBI622
 6463 1536 01       		.byte	.LVU655
 6464 1537 B0030000 		.4byte	.Ldebug_ranges0+0x3b0
 6465 153b 01       		.byte	0x1
 6466 153c 3D02     		.2byte	0x23d
 6467 153e 03       		.byte	0x3
 6468 153f 81150000 		.4byte	0x1581
 6469 1543 2A       		.uleb128 0x2a
 6470 1544 B0030000 		.4byte	.Ldebug_ranges0+0x3b0
 6471 1548 27       		.uleb128 0x27
 6472 1549 FB220000 		.4byte	0x22fb
 6473 154d 24000000 		.4byte	.LBI624
 6474 1551 08       		.byte	.LVU662
 6475 1552 B0030000 		.4byte	.Ldebug_ranges0+0x3b0
 6476 1556 03       		.byte	0x3
 6477 1557 8F01     		.2byte	0x18f
 6478 1559 03       		.byte	0x3
 6479 155a 1E       		.uleb128 0x1e
 6480 155b 0F230000 		.4byte	0x230f
 6481 155f 24000000 		.4byte	.LBI625
 6482 1563 0A       		.byte	.LVU664
 6483 1564 24000000 		.4byte	.LBB625
 6484 1568 06000000 		.4byte	.LBE625-.LBB625
 6485 156c 04       		.byte	0x4
 6486 156d 6D02     		.2byte	0x26d
 6487 156f 03       		.byte	0x3
 6488 1570 1D       		.uleb128 0x1d
 6489 1571 1D230000 		.4byte	0x231d
 6490 1575 7C080000 		.4byte	.LLST66
 6491 1579 7A080000 		.4byte	.LVUS66
 6492 157d 00       		.byte	0
 6493 157e 00       		.byte	0
 6494 157f 00       		.byte	0
 6495 1580 00       		.byte	0
 6496 1581 1C       		.uleb128 0x1c
 6497 1582 AA180000 		.4byte	0x18aa
ARM GAS  /tmp/cc4ZUYx9.s 			page 115


 6498 1586 2A000000 		.4byte	.LBI630
 6499 158a 02       		.byte	.LVU668
 6500 158b C8030000 		.4byte	.Ldebug_ranges0+0x3c8
 6501 158f 01       		.byte	0x1
 6502 1590 4102     		.2byte	0x241
 6503 1592 03       		.byte	0x3
 6504 1593 29170000 		.4byte	0x1729
 6505 1597 1D       		.uleb128 0x1d
 6506 1598 B8180000 		.4byte	0x18b8
 6507 159c 94080000 		.4byte	.LLST67
 6508 15a0 90080000 		.4byte	.LVUS67
 6509 15a4 2A       		.uleb128 0x2a
 6510 15a5 C8030000 		.4byte	.Ldebug_ranges0+0x3c8
 6511 15a9 1C       		.uleb128 0x1c
 6512 15aa 93210000 		.4byte	0x2193
 6513 15ae 2A000000 		.4byte	.LBI632
 6514 15b2 04       		.byte	.LVU670
 6515 15b3 08040000 		.4byte	.Ldebug_ranges0+0x408
 6516 15b7 01       		.byte	0x1
 6517 15b8 AB01     		.2byte	0x1ab
 6518 15ba 03       		.byte	0x3
 6519 15bb F7150000 		.4byte	0x15f7
 6520 15bf 27       		.uleb128 0x27
 6521 15c0 05230000 		.4byte	0x2305
 6522 15c4 2A000000 		.4byte	.LBI633
 6523 15c8 06       		.byte	.LVU672
 6524 15c9 10040000 		.4byte	.Ldebug_ranges0+0x410
 6525 15cd 03       		.byte	0x3
 6526 15ce 7801     		.2byte	0x178
 6527 15d0 03       		.byte	0x3
 6528 15d1 1E       		.uleb128 0x1e
 6529 15d2 0F230000 		.4byte	0x230f
 6530 15d6 2A000000 		.4byte	.LBI634
 6531 15da 08       		.byte	.LVU674
 6532 15db 2A000000 		.4byte	.LBB634
 6533 15df 06000000 		.4byte	.LBE634-.LBB634
 6534 15e3 04       		.byte	0x4
 6535 15e4 5A02     		.2byte	0x25a
 6536 15e6 03       		.byte	0x3
 6537 15e7 1D       		.uleb128 0x1d
 6538 15e8 1D230000 		.4byte	0x231d
 6539 15ec B4080000 		.4byte	.LLST68
 6540 15f0 B2080000 		.4byte	.LVUS68
 6541 15f4 00       		.byte	0
 6542 15f5 00       		.byte	0
 6543 15f6 00       		.byte	0
 6544 15f7 1C       		.uleb128 0x1c
 6545 15f8 7B210000 		.4byte	0x217b
 6546 15fc 44000000 		.4byte	.LBI639
 6547 1600 01       		.byte	.LVU688
 6548 1601 28040000 		.4byte	.Ldebug_ranges0+0x428
 6549 1605 01       		.byte	0x1
 6550 1606 C901     		.2byte	0x1c9
 6551 1608 03       		.byte	0x3
 6552 1609 4B160000 		.4byte	0x164b
 6553 160d 2A       		.uleb128 0x2a
 6554 160e 28040000 		.4byte	.Ldebug_ranges0+0x428
ARM GAS  /tmp/cc4ZUYx9.s 			page 116


 6555 1612 27       		.uleb128 0x27
 6556 1613 FB220000 		.4byte	0x22fb
 6557 1617 44000000 		.4byte	.LBI641
 6558 161b 08       		.byte	.LVU695
 6559 161c 28040000 		.4byte	.Ldebug_ranges0+0x428
 6560 1620 03       		.byte	0x3
 6561 1621 8F01     		.2byte	0x18f
 6562 1623 03       		.byte	0x3
 6563 1624 1E       		.uleb128 0x1e
 6564 1625 0F230000 		.4byte	0x230f
 6565 1629 44000000 		.4byte	.LBI642
 6566 162d 0A       		.byte	.LVU697
 6567 162e 44000000 		.4byte	.LBB642
 6568 1632 04000000 		.4byte	.LBE642-.LBB642
 6569 1636 04       		.byte	0x4
 6570 1637 6D02     		.2byte	0x26d
 6571 1639 03       		.byte	0x3
 6572 163a 1D       		.uleb128 0x1d
 6573 163b 1D230000 		.4byte	0x231d
 6574 163f CB080000 		.4byte	.LLST69
 6575 1643 C9080000 		.4byte	.LVUS69
 6576 1647 00       		.byte	0
 6577 1648 00       		.byte	0
 6578 1649 00       		.byte	0
 6579 164a 00       		.byte	0
 6580 164b 27       		.uleb128 0x27
 6581 164c AA180000 		.4byte	0x18aa
 6582 1650 4C000000 		.4byte	.LBI647
 6583 1654 00       		.byte	.LVU702
 6584 1655 F0030000 		.4byte	.Ldebug_ranges0+0x3f0
 6585 1659 01       		.byte	0x1
 6586 165a A901     		.2byte	0x1a9
 6587 165c 06       		.byte	0x6
 6588 165d 1D       		.uleb128 0x1d
 6589 165e B8180000 		.4byte	0x18b8
 6590 1662 E1080000 		.4byte	.LLST70
 6591 1666 DF080000 		.4byte	.LVUS70
 6592 166a 2A       		.uleb128 0x2a
 6593 166b F0030000 		.4byte	.Ldebug_ranges0+0x3f0
 6594 166f 1C       		.uleb128 0x1c
 6595 1670 7B210000 		.4byte	0x217b
 6596 1674 56000000 		.4byte	.LBI649
 6597 1678 02       		.byte	.LVU707
 6598 1679 40040000 		.4byte	.Ldebug_ranges0+0x440
 6599 167d 01       		.byte	0x1
 6600 167e B401     		.2byte	0x1b4
 6601 1680 05       		.byte	0x5
 6602 1681 C3160000 		.4byte	0x16c3
 6603 1685 2A       		.uleb128 0x2a
 6604 1686 40040000 		.4byte	.Ldebug_ranges0+0x440
 6605 168a 27       		.uleb128 0x27
 6606 168b FB220000 		.4byte	0x22fb
 6607 168f 56000000 		.4byte	.LBI651
 6608 1693 09       		.byte	.LVU714
 6609 1694 40040000 		.4byte	.Ldebug_ranges0+0x440
 6610 1698 03       		.byte	0x3
 6611 1699 8F01     		.2byte	0x18f
ARM GAS  /tmp/cc4ZUYx9.s 			page 117


 6612 169b 03       		.byte	0x3
 6613 169c 1E       		.uleb128 0x1e
 6614 169d 0F230000 		.4byte	0x230f
 6615 16a1 56000000 		.4byte	.LBI652
 6616 16a5 0B       		.byte	.LVU716
 6617 16a6 56000000 		.4byte	.LBB652
 6618 16aa 04000000 		.4byte	.LBE652-.LBB652
 6619 16ae 04       		.byte	0x4
 6620 16af 6D02     		.2byte	0x26d
 6621 16b1 03       		.byte	0x3
 6622 16b2 1D       		.uleb128 0x1d
 6623 16b3 1D230000 		.4byte	0x231d
 6624 16b7 F6080000 		.4byte	.LLST71
 6625 16bb F4080000 		.4byte	.LVUS71
 6626 16bf 00       		.byte	0
 6627 16c0 00       		.byte	0
 6628 16c1 00       		.byte	0
 6629 16c2 00       		.byte	0
 6630 16c3 20       		.uleb128 0x20
 6631 16c4 06210000 		.4byte	0x2106
 6632 16c8 6A000000 		.4byte	.LBI657
 6633 16cc 01       		.byte	.LVU721
 6634 16cd 6A000000 		.4byte	.LBB657
 6635 16d1 00000000 		.4byte	.LBE657-.LBB657
 6636 16d5 01       		.byte	0x1
 6637 16d6 BF01     		.2byte	0x1bf
 6638 16d8 1D       		.byte	0x1d
 6639 16d9 EB160000 		.4byte	0x16eb
 6640 16dd 1D       		.uleb128 0x1d
 6641 16de 18210000 		.4byte	0x2118
 6642 16e2 0C090000 		.4byte	.LLST72
 6643 16e6 0A090000 		.4byte	.LVUS72
 6644 16ea 00       		.byte	0
 6645 16eb 20       		.uleb128 0x20
 6646 16ec 06210000 		.4byte	0x2106
 6647 16f0 74000000 		.4byte	.LBI659
 6648 16f4 01       		.byte	.LVU727
 6649 16f5 74000000 		.4byte	.LBB659
 6650 16f9 00000000 		.4byte	.LBE659-.LBB659
 6651 16fd 01       		.byte	0x1
 6652 16fe BA01     		.2byte	0x1ba
 6653 1700 12       		.byte	0x12
 6654 1701 13170000 		.4byte	0x1713
 6655 1705 1D       		.uleb128 0x1d
 6656 1706 18210000 		.4byte	0x2118
 6657 170a 21090000 		.4byte	.LLST73
 6658 170e 1F090000 		.4byte	.LVUS73
 6659 1712 00       		.byte	0
 6660 1713 21       		.uleb128 0x21
 6661 1714 72000000 		.4byte	.LVL103
 6662 1718 6F260000 		.4byte	0x266f
 6663 171c 21       		.uleb128 0x21
 6664 171d 7A000000 		.4byte	.LVL105
 6665 1721 7B260000 		.4byte	0x267b
 6666 1725 00       		.byte	0
 6667 1726 00       		.byte	0
 6668 1727 00       		.byte	0
ARM GAS  /tmp/cc4ZUYx9.s 			page 118


 6669 1728 00       		.byte	0
 6670 1729 29       		.uleb128 0x29
 6671 172a 22000000 		.4byte	.LVL93
 6672 172e 48260000 		.4byte	0x2648
 6673 1732 26       		.uleb128 0x26
 6674 1733 01       		.uleb128 0x1
 6675 1734 50       		.byte	0x50
 6676 1735 01       		.uleb128 0x1
 6677 1736 39       		.byte	0x39
 6678 1737 00       		.byte	0
 6679 1738 00       		.byte	0
 6680 1739 11       		.uleb128 0x11
 6681 173a 7E070000 		.4byte	0x77e
 6682 173e 49170000 		.4byte	0x1749
 6683 1742 12       		.uleb128 0x12
 6684 1743 38000000 		.4byte	0x38
 6685 1747 09       		.byte	0x9
 6686 1748 00       		.byte	0
 6687 1749 0C       		.uleb128 0xc
 6688 174a 39170000 		.4byte	0x1739
 6689 174e 1A       		.uleb128 0x1a
 6690 174f 86080000 		.4byte	.LASF121
 6691 1753 01       		.byte	0x1
 6692 1754 F301     		.2byte	0x1f3
 6693 1756 06       		.byte	0x6
 6694 1757 00000000 		.4byte	.LFB256
 6695 175b 48000000 		.4byte	.LFE256-.LFB256
 6696 175f 01       		.uleb128 0x1
 6697 1760 9C       		.byte	0x9c
 6698 1761 09180000 		.4byte	0x1809
 6699 1765 1B       		.uleb128 0x1b
 6700 1766 6D736700 		.ascii	"msg\000"
 6701 176a 01       		.byte	0x1
 6702 176b F301     		.2byte	0x1f3
 6703 176d 17       		.byte	0x17
 6704 176e EF000000 		.4byte	0xef
 6705 1772 3A090000 		.4byte	.LLST54
 6706 1776 34090000 		.4byte	.LVUS54
 6707 177a 31       		.uleb128 0x31
 6708 177b 747000   		.ascii	"tp\000"
 6709 177e 01       		.byte	0x1
 6710 177f F401     		.2byte	0x1f4
 6711 1781 0D       		.byte	0xd
 6712 1782 27020000 		.4byte	0x227
 6713 1786 68090000 		.4byte	.LLST55
 6714 178a 66090000 		.4byte	.LVUS55
 6715 178e 2D       		.uleb128 0x2d
 6716 178f 43060000 		.4byte	.LASF107
 6717 1793 19180000 		.4byte	0x1819
 6718 1797 1C       		.uleb128 0x1c
 6719 1798 A5220000 		.4byte	0x22a5
 6720 179c 10000000 		.4byte	.LBI548
 6721 17a0 00       		.byte	.LVU575
 6722 17a1 28030000 		.4byte	.Ldebug_ranges0+0x328
 6723 17a5 01       		.byte	0x1
 6724 17a6 FE01     		.2byte	0x1fe
 6725 17a8 0A       		.byte	0xa
ARM GAS  /tmp/cc4ZUYx9.s 			page 119


 6726 17a9 BB170000 		.4byte	0x17bb
 6727 17ad 1D       		.uleb128 0x1d
 6728 17ae B7220000 		.4byte	0x22b7
 6729 17b2 7F090000 		.4byte	.LLST56
 6730 17b6 7B090000 		.4byte	.LVUS56
 6731 17ba 00       		.byte	0
 6732 17bb 20       		.uleb128 0x20
 6733 17bc 09220000 		.4byte	0x2209
 6734 17c0 14000000 		.4byte	.LBI553
 6735 17c4 01       		.byte	.LVU580
 6736 17c5 14000000 		.4byte	.LBB553
 6737 17c9 04000000 		.4byte	.LBE553-.LBB553
 6738 17cd 01       		.byte	0x1
 6739 17ce FF01     		.2byte	0x1ff
 6740 17d0 0C       		.byte	0xc
 6741 17d1 F0170000 		.4byte	0x17f0
 6742 17d5 1D       		.uleb128 0x1d
 6743 17d6 1B220000 		.4byte	0x221b
 6744 17da 9F090000 		.4byte	.LLST57
 6745 17de 9D090000 		.4byte	.LVUS57
 6746 17e2 1F       		.uleb128 0x1f
 6747 17e3 28220000 		.4byte	0x2228
 6748 17e7 B4090000 		.4byte	.LLST58
 6749 17eb B2090000 		.4byte	.LVUS58
 6750 17ef 00       		.byte	0
 6751 17f0 21       		.uleb128 0x21
 6752 17f1 1C000000 		.4byte	.LVL81
 6753 17f5 21260000 		.4byte	0x2621
 6754 17f9 25       		.uleb128 0x25
 6755 17fa 42000000 		.4byte	.LVL84
 6756 17fe 48260000 		.4byte	0x2648
 6757 1802 26       		.uleb128 0x26
 6758 1803 01       		.uleb128 0x1
 6759 1804 50       		.byte	0x50
 6760 1805 01       		.uleb128 0x1
 6761 1806 3F       		.byte	0x3f
 6762 1807 00       		.byte	0
 6763 1808 00       		.byte	0
 6764 1809 11       		.uleb128 0x11
 6765 180a 7E070000 		.4byte	0x77e
 6766 180e 19180000 		.4byte	0x1819
 6767 1812 12       		.uleb128 0x12
 6768 1813 38000000 		.4byte	0x38
 6769 1817 0A       		.byte	0xa
 6770 1818 00       		.byte	0
 6771 1819 0C       		.uleb128 0xc
 6772 181a 09180000 		.4byte	0x1809
 6773 181e 1A       		.uleb128 0x1a
 6774 181f C0010000 		.4byte	.LASF122
 6775 1823 01       		.byte	0x1
 6776 1824 DB01     		.2byte	0x1db
 6777 1826 06       		.byte	0x6
 6778 1827 00000000 		.4byte	.LFB255
 6779 182b 0A000000 		.4byte	.LFE255-.LFB255
 6780 182f 01       		.uleb128 0x1
 6781 1830 9C       		.byte	0x9c
 6782 1831 AA180000 		.4byte	0x18aa
ARM GAS  /tmp/cc4ZUYx9.s 			page 120


 6783 1835 1B       		.uleb128 0x1b
 6784 1836 6D736700 		.ascii	"msg\000"
 6785 183a 01       		.byte	0x1
 6786 183b DB01     		.2byte	0x1db
 6787 183d 16       		.byte	0x16
 6788 183e EF000000 		.4byte	0xef
 6789 1842 CB090000 		.4byte	.LLST59
 6790 1846 C7090000 		.4byte	.LVUS59
 6791 184a 1C       		.uleb128 0x1c
 6792 184b 93210000 		.4byte	0x2193
 6793 184f 00000000 		.4byte	.LBI556
 6794 1853 02       		.byte	.LVU604
 6795 1854 48030000 		.4byte	.Ldebug_ranges0+0x348
 6796 1858 01       		.byte	0x1
 6797 1859 DD01     		.2byte	0x1dd
 6798 185b 03       		.byte	0x3
 6799 185c 98180000 		.4byte	0x1898
 6800 1860 27       		.uleb128 0x27
 6801 1861 05230000 		.4byte	0x2305
 6802 1865 00000000 		.4byte	.LBI557
 6803 1869 04       		.byte	.LVU606
 6804 186a 50030000 		.4byte	.Ldebug_ranges0+0x350
 6805 186e 03       		.byte	0x3
 6806 186f 7801     		.2byte	0x178
 6807 1871 03       		.byte	0x3
 6808 1872 1E       		.uleb128 0x1e
 6809 1873 0F230000 		.4byte	0x230f
 6810 1877 00000000 		.4byte	.LBI558
 6811 187b 06       		.byte	.LVU608
 6812 187c 00000000 		.4byte	.LBB558
 6813 1880 06000000 		.4byte	.LBE558-.LBB558
 6814 1884 04       		.byte	0x4
 6815 1885 5A02     		.2byte	0x25a
 6816 1887 03       		.byte	0x3
 6817 1888 1D       		.uleb128 0x1d
 6818 1889 1D230000 		.4byte	0x231d
 6819 188d EE090000 		.4byte	.LLST60
 6820 1891 EC090000 		.4byte	.LVUS60
 6821 1895 00       		.byte	0
 6822 1896 00       		.byte	0
 6823 1897 00       		.byte	0
 6824 1898 25       		.uleb128 0x25
 6825 1899 0A000000 		.4byte	.LVL87
 6826 189d 4E170000 		.4byte	0x174e
 6827 18a1 26       		.uleb128 0x26
 6828 18a2 01       		.uleb128 0x1
 6829 18a3 50       		.byte	0x50
 6830 18a4 03       		.uleb128 0x3
 6831 18a5 F3       		.byte	0xf3
 6832 18a6 01       		.uleb128 0x1
 6833 18a7 50       		.byte	0x50
 6834 18a8 00       		.byte	0
 6835 18a9 00       		.byte	0
 6836 18aa 2B       		.uleb128 0x2b
 6837 18ab 56060000 		.4byte	.LASF124
 6838 18af 01       		.byte	0x1
 6839 18b0 A901     		.2byte	0x1a9
ARM GAS  /tmp/cc4ZUYx9.s 			page 121


 6840 18b2 06       		.byte	0x6
 6841 18b3 01       		.byte	0x1
 6842 18b4 CE180000 		.4byte	0x18ce
 6843 18b8 2C       		.uleb128 0x2c
 6844 18b9 747000   		.ascii	"tp\000"
 6845 18bc 01       		.byte	0x1
 6846 18bd A901     		.2byte	0x1a9
 6847 18bf 1D       		.byte	0x1d
 6848 18c0 27020000 		.4byte	0x227
 6849 18c4 2D       		.uleb128 0x2d
 6850 18c5 43060000 		.4byte	.LASF107
 6851 18c9 220C0000 		.4byte	0xc22
 6852 18cd 00       		.byte	0
 6853 18ce 23       		.uleb128 0x23
 6854 18cf 91030000 		.4byte	.LASF125
 6855 18d3 01       		.byte	0x1
 6856 18d4 8F01     		.2byte	0x18f
 6857 18d6 0B       		.byte	0xb
 6858 18d7 27020000 		.4byte	0x227
 6859 18db 00000000 		.4byte	.LFB253
 6860 18df 18000000 		.4byte	.LFE253-.LFB253
 6861 18e3 01       		.uleb128 0x1
 6862 18e4 9C       		.byte	0x9c
 6863 18e5 9B190000 		.4byte	0x199b
 6864 18e9 37       		.uleb128 0x37
 6865 18ea 747000   		.ascii	"tp\000"
 6866 18ed 01       		.byte	0x1
 6867 18ee 8F01     		.2byte	0x18f
 6868 18f0 21       		.byte	0x21
 6869 18f1 27020000 		.4byte	0x227
 6870 18f5 01       		.uleb128 0x1
 6871 18f6 50       		.byte	0x50
 6872 18f7 2D       		.uleb128 0x2d
 6873 18f8 43060000 		.4byte	.LASF107
 6874 18fc AB190000 		.4byte	0x19ab
 6875 1900 1C       		.uleb128 0x1c
 6876 1901 93210000 		.4byte	0x2193
 6877 1905 00000000 		.4byte	.LBI454
 6878 1909 02       		.byte	.LVU464
 6879 190a 48020000 		.4byte	.Ldebug_ranges0+0x248
 6880 190e 01       		.byte	0x1
 6881 190f 9101     		.2byte	0x191
 6882 1911 03       		.byte	0x3
 6883 1912 4E190000 		.4byte	0x194e
 6884 1916 27       		.uleb128 0x27
 6885 1917 05230000 		.4byte	0x2305
 6886 191b 00000000 		.4byte	.LBI455
 6887 191f 04       		.byte	.LVU466
 6888 1920 50020000 		.4byte	.Ldebug_ranges0+0x250
 6889 1924 03       		.byte	0x3
 6890 1925 7801     		.2byte	0x178
 6891 1927 03       		.byte	0x3
 6892 1928 1E       		.uleb128 0x1e
 6893 1929 0F230000 		.4byte	0x230f
 6894 192d 00000000 		.4byte	.LBI456
 6895 1931 06       		.byte	.LVU468
 6896 1932 00000000 		.4byte	.LBB456
ARM GAS  /tmp/cc4ZUYx9.s 			page 122


 6897 1936 06000000 		.4byte	.LBE456-.LBB456
 6898 193a 04       		.byte	0x4
 6899 193b 5A02     		.2byte	0x25a
 6900 193d 03       		.byte	0x3
 6901 193e 1D       		.uleb128 0x1d
 6902 193f 1D230000 		.4byte	0x231d
 6903 1943 050A0000 		.4byte	.LLST45
 6904 1947 030A0000 		.4byte	.LVUS45
 6905 194b 00       		.byte	0
 6906 194c 00       		.byte	0
 6907 194d 00       		.byte	0
 6908 194e 27       		.uleb128 0x27
 6909 194f 7B210000 		.4byte	0x217b
 6910 1953 12000000 		.4byte	.LBI461
 6911 1957 01       		.byte	.LVU481
 6912 1958 68020000 		.4byte	.Ldebug_ranges0+0x268
 6913 195c 01       		.byte	0x1
 6914 195d 9401     		.2byte	0x194
 6915 195f 03       		.byte	0x3
 6916 1960 2A       		.uleb128 0x2a
 6917 1961 68020000 		.4byte	.Ldebug_ranges0+0x268
 6918 1965 27       		.uleb128 0x27
 6919 1966 FB220000 		.4byte	0x22fb
 6920 196a 12000000 		.4byte	.LBI463
 6921 196e 08       		.byte	.LVU488
 6922 196f 68020000 		.4byte	.Ldebug_ranges0+0x268
 6923 1973 03       		.byte	0x3
 6924 1974 8F01     		.2byte	0x18f
 6925 1976 03       		.byte	0x3
 6926 1977 27       		.uleb128 0x27
 6927 1978 0F230000 		.4byte	0x230f
 6928 197c 12000000 		.4byte	.LBI464
 6929 1980 0A       		.byte	.LVU490
 6930 1981 88020000 		.4byte	.Ldebug_ranges0+0x288
 6931 1985 04       		.byte	0x4
 6932 1986 6D02     		.2byte	0x26d
 6933 1988 03       		.byte	0x3
 6934 1989 1D       		.uleb128 0x1d
 6935 198a 1D230000 		.4byte	0x231d
 6936 198e 1C0A0000 		.4byte	.LLST46
 6937 1992 1A0A0000 		.4byte	.LVUS46
 6938 1996 00       		.byte	0
 6939 1997 00       		.byte	0
 6940 1998 00       		.byte	0
 6941 1999 00       		.byte	0
 6942 199a 00       		.byte	0
 6943 199b 11       		.uleb128 0x11
 6944 199c 7E070000 		.4byte	0x77e
 6945 19a0 AB190000 		.4byte	0x19ab
 6946 19a4 12       		.uleb128 0x12
 6947 19a5 38000000 		.4byte	0x38
 6948 19a9 0B       		.byte	0xb
 6949 19aa 00       		.byte	0
 6950 19ab 0C       		.uleb128 0xc
 6951 19ac 9B190000 		.4byte	0x199b
 6952 19b0 23       		.uleb128 0x23
 6953 19b1 57050000 		.4byte	.LASF126
ARM GAS  /tmp/cc4ZUYx9.s 			page 123


 6954 19b5 01       		.byte	0x1
 6955 19b6 7901     		.2byte	0x179
 6956 19b8 0B       		.byte	0xb
 6957 19b9 27020000 		.4byte	0x227
 6958 19bd 00000000 		.4byte	.LFB252
 6959 19c1 1A000000 		.4byte	.LFE252-.LFB252
 6960 19c5 01       		.uleb128 0x1
 6961 19c6 9C       		.byte	0x9c
 6962 19c7 9C1A0000 		.4byte	0x1a9c
 6963 19cb 1B       		.uleb128 0x1b
 6964 19cc 747000   		.ascii	"tp\000"
 6965 19cf 01       		.byte	0x1
 6966 19d0 7901     		.2byte	0x179
 6967 19d2 20       		.byte	0x20
 6968 19d3 27020000 		.4byte	0x227
 6969 19d7 340A0000 		.4byte	.LLST42
 6970 19db 300A0000 		.4byte	.LVUS42
 6971 19df 2D       		.uleb128 0x2d
 6972 19e0 43060000 		.4byte	.LASF107
 6973 19e4 19180000 		.4byte	0x1819
 6974 19e8 1C       		.uleb128 0x1c
 6975 19e9 93210000 		.4byte	0x2193
 6976 19ed 00000000 		.4byte	.LBI431
 6977 19f1 02       		.byte	.LVU429
 6978 19f2 00020000 		.4byte	.Ldebug_ranges0+0x200
 6979 19f6 01       		.byte	0x1
 6980 19f7 7B01     		.2byte	0x17b
 6981 19f9 03       		.byte	0x3
 6982 19fa 321A0000 		.4byte	0x1a32
 6983 19fe 27       		.uleb128 0x27
 6984 19ff 05230000 		.4byte	0x2305
 6985 1a03 00000000 		.4byte	.LBI432
 6986 1a07 04       		.byte	.LVU431
 6987 1a08 08020000 		.4byte	.Ldebug_ranges0+0x208
 6988 1a0c 03       		.byte	0x3
 6989 1a0d 7801     		.2byte	0x178
 6990 1a0f 03       		.byte	0x3
 6991 1a10 27       		.uleb128 0x27
 6992 1a11 0F230000 		.4byte	0x230f
 6993 1a15 00000000 		.4byte	.LBI433
 6994 1a19 06       		.byte	.LVU433
 6995 1a1a 10020000 		.4byte	.Ldebug_ranges0+0x210
 6996 1a1e 04       		.byte	0x4
 6997 1a1f 5A02     		.2byte	0x25a
 6998 1a21 03       		.byte	0x3
 6999 1a22 1D       		.uleb128 0x1d
 7000 1a23 1D230000 		.4byte	0x231d
 7001 1a27 540A0000 		.4byte	.LLST43
 7002 1a2b 520A0000 		.4byte	.LVUS43
 7003 1a2f 00       		.byte	0
 7004 1a30 00       		.byte	0
 7005 1a31 00       		.byte	0
 7006 1a32 1C       		.uleb128 0x1c
 7007 1a33 7B210000 		.4byte	0x217b
 7008 1a37 10000000 		.4byte	.LBI446
 7009 1a3b 01       		.byte	.LVU447
 7010 1a3c 30020000 		.4byte	.Ldebug_ranges0+0x230
ARM GAS  /tmp/cc4ZUYx9.s 			page 124


 7011 1a40 01       		.byte	0x1
 7012 1a41 7E01     		.2byte	0x17e
 7013 1a43 03       		.byte	0x3
 7014 1a44 861A0000 		.4byte	0x1a86
 7015 1a48 2A       		.uleb128 0x2a
 7016 1a49 30020000 		.4byte	.Ldebug_ranges0+0x230
 7017 1a4d 27       		.uleb128 0x27
 7018 1a4e FB220000 		.4byte	0x22fb
 7019 1a52 10000000 		.4byte	.LBI448
 7020 1a56 08       		.byte	.LVU454
 7021 1a57 30020000 		.4byte	.Ldebug_ranges0+0x230
 7022 1a5b 03       		.byte	0x3
 7023 1a5c 8F01     		.2byte	0x18f
 7024 1a5e 03       		.byte	0x3
 7025 1a5f 1E       		.uleb128 0x1e
 7026 1a60 0F230000 		.4byte	0x230f
 7027 1a64 10000000 		.4byte	.LBI449
 7028 1a68 0A       		.byte	.LVU456
 7029 1a69 10000000 		.4byte	.LBB449
 7030 1a6d 06000000 		.4byte	.LBE449-.LBB449
 7031 1a71 04       		.byte	0x4
 7032 1a72 6D02     		.2byte	0x26d
 7033 1a74 03       		.byte	0x3
 7034 1a75 1D       		.uleb128 0x1d
 7035 1a76 1D230000 		.4byte	0x231d
 7036 1a7a 6B0A0000 		.4byte	.LLST44
 7037 1a7e 690A0000 		.4byte	.LVUS44
 7038 1a82 00       		.byte	0
 7039 1a83 00       		.byte	0
 7040 1a84 00       		.byte	0
 7041 1a85 00       		.byte	0
 7042 1a86 29       		.uleb128 0x29
 7043 1a87 10000000 		.4byte	.LVL57
 7044 1a8b 3B260000 		.4byte	0x263b
 7045 1a8f 26       		.uleb128 0x26
 7046 1a90 01       		.uleb128 0x1
 7047 1a91 50       		.byte	0x50
 7048 1a92 02       		.uleb128 0x2
 7049 1a93 74       		.byte	0x74
 7050 1a94 00       		.sleb128 0
 7051 1a95 26       		.uleb128 0x26
 7052 1a96 01       		.uleb128 0x1
 7053 1a97 51       		.byte	0x51
 7054 1a98 01       		.uleb128 0x1
 7055 1a99 30       		.byte	0x30
 7056 1a9a 00       		.byte	0
 7057 1a9b 00       		.byte	0
 7058 1a9c 23       		.uleb128 0x23
 7059 1a9d B1030000 		.4byte	.LASF127
 7060 1aa1 01       		.byte	0x1
 7061 1aa2 4201     		.2byte	0x142
 7062 1aa4 0B       		.byte	0xb
 7063 1aa5 27020000 		.4byte	0x227
 7064 1aa9 00000000 		.4byte	.LFB251
 7065 1aad 74000000 		.4byte	.LFE251-.LFB251
 7066 1ab1 01       		.uleb128 0x1
 7067 1ab2 9C       		.byte	0x9c
ARM GAS  /tmp/cc4ZUYx9.s 			page 125


 7068 1ab3 751C0000 		.4byte	0x1c75
 7069 1ab7 1B       		.uleb128 0x1b
 7070 1ab8 77737000 		.ascii	"wsp\000"
 7071 1abc 01       		.byte	0x1
 7072 1abd 4201     		.2byte	0x142
 7073 1abf 23       		.byte	0x23
 7074 1ac0 19030000 		.4byte	0x319
 7075 1ac4 850A0000 		.4byte	.LLST29
 7076 1ac8 7F0A0000 		.4byte	.LVUS29
 7077 1acc 24       		.uleb128 0x24
 7078 1acd 15080000 		.4byte	.LASF128
 7079 1ad1 01       		.byte	0x1
 7080 1ad2 4201     		.2byte	0x142
 7081 1ad4 2F       		.byte	0x2f
 7082 1ad5 2C000000 		.4byte	0x2c
 7083 1ad9 B80A0000 		.4byte	.LLST30
 7084 1add B20A0000 		.4byte	.LVUS30
 7085 1ae1 24       		.uleb128 0x24
 7086 1ae2 42050000 		.4byte	.LASF26
 7087 1ae6 01       		.byte	0x1
 7088 1ae7 4301     		.2byte	0x143
 7089 1ae9 25       		.byte	0x25
 7090 1aea E3000000 		.4byte	0xe3
 7091 1aee ED0A0000 		.4byte	.LLST31
 7092 1af2 E70A0000 		.4byte	.LVUS31
 7093 1af6 1B       		.uleb128 0x1b
 7094 1af7 706600   		.ascii	"pf\000"
 7095 1afa 01       		.byte	0x1
 7096 1afb 4301     		.2byte	0x143
 7097 1afd 33       		.byte	0x33
 7098 1afe 9B070000 		.4byte	0x79b
 7099 1b02 240B0000 		.4byte	.LLST32
 7100 1b06 1A0B0000 		.4byte	.LVUS32
 7101 1b0a 1B       		.uleb128 0x1b
 7102 1b0b 61726700 		.ascii	"arg\000"
 7103 1b0f 01       		.byte	0x1
 7104 1b10 4301     		.2byte	0x143
 7105 1b12 3D       		.byte	0x3d
 7106 1b13 19030000 		.4byte	0x319
 7107 1b17 6E0B0000 		.4byte	.LLST33
 7108 1b1b 6A0B0000 		.4byte	.LVUS33
 7109 1b1f 31       		.uleb128 0x31
 7110 1b20 747000   		.ascii	"tp\000"
 7111 1b23 01       		.byte	0x1
 7112 1b24 4401     		.2byte	0x144
 7113 1b26 0D       		.byte	0xd
 7114 1b27 27020000 		.4byte	0x227
 7115 1b2b 920B0000 		.4byte	.LLST34
 7116 1b2f 8E0B0000 		.4byte	.LVUS34
 7117 1b33 2D       		.uleb128 0x2d
 7118 1b34 43060000 		.4byte	.LASF107
 7119 1b38 851C0000 		.4byte	0x1c85
 7120 1b3c 1C       		.uleb128 0x1c
 7121 1b3d 93210000 		.4byte	0x2193
 7122 1b41 00000000 		.4byte	.LBI398
 7123 1b45 09       		.byte	.LVU338
 7124 1b46 80010000 		.4byte	.Ldebug_ranges0+0x180
ARM GAS  /tmp/cc4ZUYx9.s 			page 126


 7125 1b4a 01       		.byte	0x1
 7126 1b4b 5701     		.2byte	0x157
 7127 1b4d 03       		.byte	0x3
 7128 1b4e 861B0000 		.4byte	0x1b86
 7129 1b52 27       		.uleb128 0x27
 7130 1b53 05230000 		.4byte	0x2305
 7131 1b57 00000000 		.4byte	.LBI399
 7132 1b5b 0B       		.byte	.LVU340
 7133 1b5c 88010000 		.4byte	.Ldebug_ranges0+0x188
 7134 1b60 03       		.byte	0x3
 7135 1b61 7801     		.2byte	0x178
 7136 1b63 03       		.byte	0x3
 7137 1b64 27       		.uleb128 0x27
 7138 1b65 0F230000 		.4byte	0x230f
 7139 1b69 00000000 		.4byte	.LBI400
 7140 1b6d 0D       		.byte	.LVU342
 7141 1b6e 90010000 		.4byte	.Ldebug_ranges0+0x190
 7142 1b72 04       		.byte	0x4
 7143 1b73 5A02     		.2byte	0x25a
 7144 1b75 03       		.byte	0x3
 7145 1b76 1D       		.uleb128 0x1d
 7146 1b77 1D230000 		.4byte	0x231d
 7147 1b7b B20B0000 		.4byte	.LLST35
 7148 1b7f B00B0000 		.4byte	.LVUS35
 7149 1b83 00       		.byte	0
 7150 1b84 00       		.byte	0
 7151 1b85 00       		.byte	0
 7152 1b86 1C       		.uleb128 0x1c
 7153 1b87 59200000 		.4byte	0x2059
 7154 1b8b 28000000 		.4byte	.LBI409
 7155 1b8f 06       		.byte	.LVU367
 7156 1b90 A8010000 		.4byte	.Ldebug_ranges0+0x1a8
 7157 1b94 01       		.byte	0x1
 7158 1b95 6701     		.2byte	0x167
 7159 1b97 08       		.byte	0x8
 7160 1b98 0A1C0000 		.4byte	0x1c0a
 7161 1b9c 1D       		.uleb128 0x1d
 7162 1b9d 81200000 		.4byte	0x2081
 7163 1ba1 CB0B0000 		.4byte	.LLST36
 7164 1ba5 C70B0000 		.4byte	.LVUS36
 7165 1ba9 1D       		.uleb128 0x1d
 7166 1baa 75200000 		.4byte	0x2075
 7167 1bae EC0B0000 		.4byte	.LLST37
 7168 1bb2 EA0B0000 		.4byte	.LVUS37
 7169 1bb6 1D       		.uleb128 0x1d
 7170 1bb7 6A200000 		.4byte	0x206a
 7171 1bbb 060C0000 		.4byte	.LLST38
 7172 1bbf 040C0000 		.4byte	.LVUS38
 7173 1bc3 38       		.uleb128 0x38
 7174 1bc4 89220000 		.4byte	0x2289
 7175 1bc8 5A000000 		.4byte	.LBI411
 7176 1bcc 06       		.byte	.LVU402
 7177 1bcd D0010000 		.4byte	.Ldebug_ranges0+0x1d0
 7178 1bd1 01       		.byte	0x1
 7179 1bd2 75       		.byte	0x75
 7180 1bd3 03       		.byte	0x3
 7181 1bd4 E61B0000 		.4byte	0x1be6
ARM GAS  /tmp/cc4ZUYx9.s 			page 127


 7182 1bd8 1D       		.uleb128 0x1d
 7183 1bd9 97220000 		.4byte	0x2297
 7184 1bdd 1B0C0000 		.4byte	.LLST39
 7185 1be1 190C0000 		.4byte	.LVUS39
 7186 1be5 00       		.byte	0
 7187 1be6 39       		.uleb128 0x39
 7188 1be7 C5220000 		.4byte	0x22c5
 7189 1beb 5A000000 		.4byte	.LBI414
 7190 1bef 02       		.byte	.LVU398
 7191 1bf0 5A000000 		.4byte	.LBB414
 7192 1bf4 00000000 		.4byte	.LBE414-.LBB414
 7193 1bf8 01       		.byte	0x1
 7194 1bf9 72       		.byte	0x72
 7195 1bfa 03       		.byte	0x3
 7196 1bfb 1D       		.uleb128 0x1d
 7197 1bfc D3220000 		.4byte	0x22d3
 7198 1c00 300C0000 		.4byte	.LLST40
 7199 1c04 2E0C0000 		.4byte	.LVUS40
 7200 1c08 00       		.byte	0
 7201 1c09 00       		.byte	0
 7202 1c0a 1C       		.uleb128 0x1c
 7203 1c0b 7B210000 		.4byte	0x217b
 7204 1c0f 5E000000 		.4byte	.LBI423
 7205 1c13 01       		.byte	.LVU412
 7206 1c14 E8010000 		.4byte	.Ldebug_ranges0+0x1e8
 7207 1c18 01       		.byte	0x1
 7208 1c19 6B01     		.2byte	0x16b
 7209 1c1b 03       		.byte	0x3
 7210 1c1c 5E1C0000 		.4byte	0x1c5e
 7211 1c20 2A       		.uleb128 0x2a
 7212 1c21 E8010000 		.4byte	.Ldebug_ranges0+0x1e8
 7213 1c25 27       		.uleb128 0x27
 7214 1c26 FB220000 		.4byte	0x22fb
 7215 1c2a 5E000000 		.4byte	.LBI425
 7216 1c2e 08       		.byte	.LVU419
 7217 1c2f E8010000 		.4byte	.Ldebug_ranges0+0x1e8
 7218 1c33 03       		.byte	0x3
 7219 1c34 8F01     		.2byte	0x18f
 7220 1c36 03       		.byte	0x3
 7221 1c37 1E       		.uleb128 0x1e
 7222 1c38 0F230000 		.4byte	0x230f
 7223 1c3c 5E000000 		.4byte	.LBI426
 7224 1c40 0A       		.byte	.LVU421
 7225 1c41 5E000000 		.4byte	.LBB426
 7226 1c45 04000000 		.4byte	.LBE426-.LBB426
 7227 1c49 04       		.byte	0x4
 7228 1c4a 6D02     		.2byte	0x26d
 7229 1c4c 03       		.byte	0x3
 7230 1c4d 1D       		.uleb128 0x1d
 7231 1c4e 1D230000 		.4byte	0x231d
 7232 1c52 470C0000 		.4byte	.LLST41
 7233 1c56 450C0000 		.4byte	.LVUS41
 7234 1c5a 00       		.byte	0
 7235 1c5b 00       		.byte	0
 7236 1c5c 00       		.byte	0
 7237 1c5d 00       		.byte	0
 7238 1c5e 29       		.uleb128 0x29
ARM GAS  /tmp/cc4ZUYx9.s 			page 128


 7239 1c5f 5E000000 		.4byte	.LVL52
 7240 1c63 3B260000 		.4byte	0x263b
 7241 1c67 26       		.uleb128 0x26
 7242 1c68 01       		.uleb128 0x1
 7243 1c69 50       		.byte	0x50
 7244 1c6a 02       		.uleb128 0x2
 7245 1c6b 74       		.byte	0x74
 7246 1c6c 00       		.sleb128 0
 7247 1c6d 26       		.uleb128 0x26
 7248 1c6e 01       		.uleb128 0x1
 7249 1c6f 51       		.byte	0x51
 7250 1c70 02       		.uleb128 0x2
 7251 1c71 75       		.byte	0x75
 7252 1c72 00       		.sleb128 0
 7253 1c73 00       		.byte	0
 7254 1c74 00       		.byte	0
 7255 1c75 11       		.uleb128 0x11
 7256 1c76 7E070000 		.4byte	0x77e
 7257 1c7a 851C0000 		.4byte	0x1c85
 7258 1c7e 12       		.uleb128 0x12
 7259 1c7f 38000000 		.4byte	0x38
 7260 1c83 11       		.byte	0x11
 7261 1c84 00       		.byte	0
 7262 1c85 0C       		.uleb128 0xc
 7263 1c86 751C0000 		.4byte	0x1c75
 7264 1c8a 23       		.uleb128 0x23
 7265 1c8b 78050000 		.4byte	.LASF129
 7266 1c8f 01       		.byte	0x1
 7267 1c90 1801     		.2byte	0x118
 7268 1c92 0B       		.byte	0xb
 7269 1c93 27020000 		.4byte	0x227
 7270 1c97 00000000 		.4byte	.LFB250
 7271 1c9b 1E000000 		.4byte	.LFE250-.LFB250
 7272 1c9f 01       		.uleb128 0x1
 7273 1ca0 9C       		.byte	0x9c
 7274 1ca1 A01D0000 		.4byte	0x1da0
 7275 1ca5 1B       		.uleb128 0x1b
 7276 1ca6 74647000 		.ascii	"tdp\000"
 7277 1caa 01       		.byte	0x1
 7278 1cab 1801     		.2byte	0x118
 7279 1cad 32       		.byte	0x32
 7280 1cae A01D0000 		.4byte	0x1da0
 7281 1cb2 5F0C0000 		.4byte	.LLST25
 7282 1cb6 5B0C0000 		.4byte	.LVUS25
 7283 1cba 31       		.uleb128 0x31
 7284 1cbb 747000   		.ascii	"tp\000"
 7285 1cbe 01       		.byte	0x1
 7286 1cbf 1901     		.2byte	0x119
 7287 1cc1 0D       		.byte	0xd
 7288 1cc2 27020000 		.4byte	0x227
 7289 1cc6 840C0000 		.4byte	.LLST26
 7290 1cca 800C0000 		.4byte	.LVUS26
 7291 1cce 2D       		.uleb128 0x2d
 7292 1ccf 43060000 		.4byte	.LASF107
 7293 1cd3 AB190000 		.4byte	0x19ab
 7294 1cd7 1C       		.uleb128 0x1c
 7295 1cd8 93210000 		.4byte	0x2193
ARM GAS  /tmp/cc4ZUYx9.s 			page 129


 7296 1cdc 00000000 		.4byte	.LBI379
 7297 1ce0 06       		.byte	.LVU297
 7298 1ce1 40010000 		.4byte	.Ldebug_ranges0+0x140
 7299 1ce5 01       		.byte	0x1
 7300 1ce6 2601     		.2byte	0x126
 7301 1ce8 03       		.byte	0x3
 7302 1ce9 211D0000 		.4byte	0x1d21
 7303 1ced 27       		.uleb128 0x27
 7304 1cee 05230000 		.4byte	0x2305
 7305 1cf2 00000000 		.4byte	.LBI380
 7306 1cf6 08       		.byte	.LVU299
 7307 1cf7 48010000 		.4byte	.Ldebug_ranges0+0x148
 7308 1cfb 03       		.byte	0x3
 7309 1cfc 7801     		.2byte	0x178
 7310 1cfe 03       		.byte	0x3
 7311 1cff 27       		.uleb128 0x27
 7312 1d00 0F230000 		.4byte	0x230f
 7313 1d04 00000000 		.4byte	.LBI381
 7314 1d08 0A       		.byte	.LVU301
 7315 1d09 50010000 		.4byte	.Ldebug_ranges0+0x150
 7316 1d0d 04       		.byte	0x4
 7317 1d0e 5A02     		.2byte	0x25a
 7318 1d10 03       		.byte	0x3
 7319 1d11 1D       		.uleb128 0x1d
 7320 1d12 1D230000 		.4byte	0x231d
 7321 1d16 A40C0000 		.4byte	.LLST27
 7322 1d1a A20C0000 		.4byte	.LVUS27
 7323 1d1e 00       		.byte	0
 7324 1d1f 00       		.byte	0
 7325 1d20 00       		.byte	0
 7326 1d21 1C       		.uleb128 0x1c
 7327 1d22 7B210000 		.4byte	0x217b
 7328 1d26 14000000 		.4byte	.LBI390
 7329 1d2a 01       		.byte	.LVU314
 7330 1d2b 68010000 		.4byte	.Ldebug_ranges0+0x168
 7331 1d2f 01       		.byte	0x1
 7332 1d30 2901     		.2byte	0x129
 7333 1d32 03       		.byte	0x3
 7334 1d33 751D0000 		.4byte	0x1d75
 7335 1d37 2A       		.uleb128 0x2a
 7336 1d38 68010000 		.4byte	.Ldebug_ranges0+0x168
 7337 1d3c 27       		.uleb128 0x27
 7338 1d3d FB220000 		.4byte	0x22fb
 7339 1d41 14000000 		.4byte	.LBI392
 7340 1d45 08       		.byte	.LVU321
 7341 1d46 68010000 		.4byte	.Ldebug_ranges0+0x168
 7342 1d4a 03       		.byte	0x3
 7343 1d4b 8F01     		.2byte	0x18f
 7344 1d4d 03       		.byte	0x3
 7345 1d4e 1E       		.uleb128 0x1e
 7346 1d4f 0F230000 		.4byte	0x230f
 7347 1d53 14000000 		.4byte	.LBI393
 7348 1d57 0A       		.byte	.LVU323
 7349 1d58 14000000 		.4byte	.LBB393
 7350 1d5c 06000000 		.4byte	.LBE393-.LBB393
 7351 1d60 04       		.byte	0x4
 7352 1d61 6D02     		.2byte	0x26d
ARM GAS  /tmp/cc4ZUYx9.s 			page 130


 7353 1d63 03       		.byte	0x3
 7354 1d64 1D       		.uleb128 0x1d
 7355 1d65 1D230000 		.4byte	0x231d
 7356 1d69 BB0C0000 		.4byte	.LLST28
 7357 1d6d B90C0000 		.4byte	.LVUS28
 7358 1d71 00       		.byte	0
 7359 1d72 00       		.byte	0
 7360 1d73 00       		.byte	0
 7361 1d74 00       		.byte	0
 7362 1d75 3A       		.uleb128 0x3a
 7363 1d76 0C000000 		.4byte	.LVL36
 7364 1d7a 12200000 		.4byte	0x2012
 7365 1d7e 8A1D0000 		.4byte	0x1d8a
 7366 1d82 26       		.uleb128 0x26
 7367 1d83 01       		.uleb128 0x1
 7368 1d84 50       		.byte	0x50
 7369 1d85 03       		.uleb128 0x3
 7370 1d86 F3       		.byte	0xf3
 7371 1d87 01       		.uleb128 0x1
 7372 1d88 50       		.byte	0x50
 7373 1d89 00       		.byte	0
 7374 1d8a 29       		.uleb128 0x29
 7375 1d8b 14000000 		.4byte	.LVL38
 7376 1d8f 3B260000 		.4byte	0x263b
 7377 1d93 26       		.uleb128 0x26
 7378 1d94 01       		.uleb128 0x1
 7379 1d95 50       		.byte	0x50
 7380 1d96 02       		.uleb128 0x2
 7381 1d97 74       		.byte	0x74
 7382 1d98 00       		.sleb128 0
 7383 1d99 26       		.uleb128 0x26
 7384 1d9a 01       		.uleb128 0x1
 7385 1d9b 51       		.byte	0x51
 7386 1d9c 01       		.uleb128 0x1
 7387 1d9d 30       		.byte	0x30
 7388 1d9e 00       		.byte	0
 7389 1d9f 00       		.byte	0
 7390 1da0 0B       		.uleb128 0xb
 7391 1da1 04       		.byte	0x4
 7392 1da2 0B080000 		.4byte	0x80b
 7393 1da6 23       		.uleb128 0x23
 7394 1da7 0D020000 		.4byte	.LASF130
 7395 1dab 01       		.byte	0x1
 7396 1dac 0301     		.2byte	0x103
 7397 1dae 0B       		.byte	0xb
 7398 1daf 27020000 		.4byte	0x227
 7399 1db3 00000000 		.4byte	.LFB249
 7400 1db7 7C000000 		.4byte	.LFE249-.LFB249
 7401 1dbb 01       		.uleb128 0x1
 7402 1dbc 9C       		.byte	0x9c
 7403 1dbd 8D1E0000 		.4byte	0x1e8d
 7404 1dc1 1B       		.uleb128 0x1b
 7405 1dc2 74647000 		.ascii	"tdp\000"
 7406 1dc6 01       		.byte	0x1
 7407 1dc7 0301     		.2byte	0x103
 7408 1dc9 33       		.byte	0x33
 7409 1dca A01D0000 		.4byte	0x1da0
ARM GAS  /tmp/cc4ZUYx9.s 			page 131


 7410 1dce D50C0000 		.4byte	.LLST18
 7411 1dd2 CF0C0000 		.4byte	.LVUS18
 7412 1dd6 1C       		.uleb128 0x1c
 7413 1dd7 12200000 		.4byte	0x2012
 7414 1ddb 06000000 		.4byte	.LBI355
 7415 1ddf 00       		.byte	.LVU220
 7416 1de0 E0000000 		.4byte	.Ldebug_ranges0+0xe0
 7417 1de4 01       		.byte	0x1
 7418 1de5 0501     		.2byte	0x105
 7419 1de7 0A       		.byte	0xa
 7420 1de8 831E0000 		.4byte	0x1e83
 7421 1dec 1D       		.uleb128 0x1d
 7422 1ded 23200000 		.4byte	0x2023
 7423 1df1 070D0000 		.4byte	.LLST19
 7424 1df5 010D0000 		.4byte	.LVUS19
 7425 1df9 2A       		.uleb128 0x2a
 7426 1dfa E0000000 		.4byte	.Ldebug_ranges0+0xe0
 7427 1dfe 1F       		.uleb128 0x1f
 7428 1dff 2F200000 		.4byte	0x202f
 7429 1e03 350D0000 		.4byte	.LLST20
 7430 1e07 330D0000 		.4byte	.LVUS20
 7431 1e0b 3B       		.uleb128 0x3b
 7432 1e0c 59200000 		.4byte	0x2059
 7433 1e10 62000000 		.4byte	.LBI357
 7434 1e14 05       		.byte	.LVU264
 7435 1e15 00010000 		.4byte	.Ldebug_ranges0+0x100
 7436 1e19 01       		.byte	0x1
 7437 1e1a C1       		.byte	0xc1
 7438 1e1b 0A       		.byte	0xa
 7439 1e1c 1D       		.uleb128 0x1d
 7440 1e1d 81200000 		.4byte	0x2081
 7441 1e21 4A0D0000 		.4byte	.LLST21
 7442 1e25 480D0000 		.4byte	.LVUS21
 7443 1e29 1D       		.uleb128 0x1d
 7444 1e2a 75200000 		.4byte	0x2075
 7445 1e2e 600D0000 		.4byte	.LLST22
 7446 1e32 5E0D0000 		.4byte	.LVUS22
 7447 1e36 1D       		.uleb128 0x1d
 7448 1e37 6A200000 		.4byte	0x206a
 7449 1e3b 760D0000 		.4byte	.LLST23
 7450 1e3f 740D0000 		.4byte	.LVUS23
 7451 1e43 3C       		.uleb128 0x3c
 7452 1e44 C5220000 		.4byte	0x22c5
 7453 1e48 66000000 		.4byte	.LBI359
 7454 1e4c 02       		.byte	.LVU279
 7455 1e4d 66000000 		.4byte	.LBB359
 7456 1e51 00000000 		.4byte	.LBE359-.LBB359
 7457 1e55 01       		.byte	0x1
 7458 1e56 72       		.byte	0x72
 7459 1e57 03       		.byte	0x3
 7460 1e58 6A1E0000 		.4byte	0x1e6a
 7461 1e5c 1D       		.uleb128 0x1d
 7462 1e5d D3220000 		.4byte	0x22d3
 7463 1e61 8D0D0000 		.4byte	.LLST24
 7464 1e65 890D0000 		.4byte	.LVUS24
 7465 1e69 00       		.byte	0
 7466 1e6a 3D       		.uleb128 0x3d
ARM GAS  /tmp/cc4ZUYx9.s 			page 132


 7467 1e6b 89220000 		.4byte	0x2289
 7468 1e6f 66000000 		.4byte	.LBB361
 7469 1e73 08000000 		.4byte	.LBE361-.LBB361
 7470 1e77 01       		.byte	0x1
 7471 1e78 75       		.byte	0x75
 7472 1e79 03       		.byte	0x3
 7473 1e7a 3E       		.uleb128 0x3e
 7474 1e7b 97220000 		.4byte	0x2297
 7475 1e7f 00       		.byte	0
 7476 1e80 00       		.byte	0
 7477 1e81 00       		.byte	0
 7478 1e82 00       		.byte	0
 7479 1e83 22       		.uleb128 0x22
 7480 1e84 74000000 		.4byte	.LVL33
 7481 1e88 21260000 		.4byte	0x2621
 7482 1e8c 00       		.byte	0
 7483 1e8d 3F       		.uleb128 0x3f
 7484 1e8e 9A070000 		.4byte	.LASF131
 7485 1e92 01       		.byte	0x1
 7486 1e93 D8       		.byte	0xd8
 7487 1e94 0B       		.byte	0xb
 7488 1e95 27020000 		.4byte	0x227
 7489 1e99 00000000 		.4byte	.LFB248
 7490 1e9d 88000000 		.4byte	.LFE248-.LFB248
 7491 1ea1 01       		.uleb128 0x1
 7492 1ea2 9C       		.byte	0x9c
 7493 1ea3 12200000 		.4byte	0x2012
 7494 1ea7 40       		.uleb128 0x40
 7495 1ea8 74647000 		.ascii	"tdp\000"
 7496 1eac 01       		.byte	0x1
 7497 1ead D8       		.byte	0xd8
 7498 1eae 3B       		.byte	0x3b
 7499 1eaf A01D0000 		.4byte	0x1da0
 7500 1eb3 B30D0000 		.4byte	.LLST9
 7501 1eb7 AD0D0000 		.4byte	.LVUS9
 7502 1ebb 41       		.uleb128 0x41
 7503 1ebc 747000   		.ascii	"tp\000"
 7504 1ebf 01       		.byte	0x1
 7505 1ec0 D9       		.byte	0xd9
 7506 1ec1 0D       		.byte	0xd
 7507 1ec2 27020000 		.4byte	0x227
 7508 1ec6 E10D0000 		.4byte	.LLST10
 7509 1eca DF0D0000 		.4byte	.LVUS10
 7510 1ece 2D       		.uleb128 0x2d
 7511 1ecf 43060000 		.4byte	.LASF107
 7512 1ed3 380D0000 		.4byte	0xd38
 7513 1ed7 38       		.uleb128 0x38
 7514 1ed8 93210000 		.4byte	0x2193
 7515 1edc 00000000 		.4byte	.LBI310
 7516 1ee0 06       		.byte	.LVU118
 7517 1ee1 68000000 		.4byte	.Ldebug_ranges0+0x68
 7518 1ee5 01       		.byte	0x1
 7519 1ee6 E6       		.byte	0xe6
 7520 1ee7 03       		.byte	0x3
 7521 1ee8 201F0000 		.4byte	0x1f20
 7522 1eec 27       		.uleb128 0x27
 7523 1eed 05230000 		.4byte	0x2305
ARM GAS  /tmp/cc4ZUYx9.s 			page 133


 7524 1ef1 00000000 		.4byte	.LBI311
 7525 1ef5 08       		.byte	.LVU120
 7526 1ef6 70000000 		.4byte	.Ldebug_ranges0+0x70
 7527 1efa 03       		.byte	0x3
 7528 1efb 7801     		.2byte	0x178
 7529 1efd 03       		.byte	0x3
 7530 1efe 27       		.uleb128 0x27
 7531 1eff 0F230000 		.4byte	0x230f
 7532 1f03 00000000 		.4byte	.LBI312
 7533 1f07 0A       		.byte	.LVU122
 7534 1f08 78000000 		.4byte	.Ldebug_ranges0+0x78
 7535 1f0c 04       		.byte	0x4
 7536 1f0d 5A02     		.2byte	0x25a
 7537 1f0f 03       		.byte	0x3
 7538 1f10 1D       		.uleb128 0x1d
 7539 1f11 1D230000 		.4byte	0x231d
 7540 1f15 F60D0000 		.4byte	.LLST11
 7541 1f19 F40D0000 		.4byte	.LVUS11
 7542 1f1d 00       		.byte	0
 7543 1f1e 00       		.byte	0
 7544 1f1f 00       		.byte	0
 7545 1f20 3C       		.uleb128 0x3c
 7546 1f21 12200000 		.4byte	0x2012
 7547 1f25 0A000000 		.4byte	.LBI321
 7548 1f29 04       		.byte	.LVU131
 7549 1f2a 0A000000 		.4byte	.LBB321
 7550 1f2e 6E000000 		.4byte	.LBE321-.LBB321
 7551 1f32 01       		.byte	0x1
 7552 1f33 E7       		.byte	0xe7
 7553 1f34 08       		.byte	0x8
 7554 1f35 C21F0000 		.4byte	0x1fc2
 7555 1f39 1D       		.uleb128 0x1d
 7556 1f3a 23200000 		.4byte	0x2023
 7557 1f3e 110E0000 		.4byte	.LLST12
 7558 1f42 0B0E0000 		.4byte	.LVUS12
 7559 1f46 1F       		.uleb128 0x1f
 7560 1f47 2F200000 		.4byte	0x202f
 7561 1f4b 3F0E0000 		.4byte	.LLST13
 7562 1f4f 3D0E0000 		.4byte	.LVUS13
 7563 1f53 3B       		.uleb128 0x3b
 7564 1f54 59200000 		.4byte	0x2059
 7565 1f58 68000000 		.4byte	.LBI323
 7566 1f5c 05       		.byte	.LVU175
 7567 1f5d 90000000 		.4byte	.Ldebug_ranges0+0x90
 7568 1f61 01       		.byte	0x1
 7569 1f62 C1       		.byte	0xc1
 7570 1f63 0A       		.byte	0xa
 7571 1f64 1D       		.uleb128 0x1d
 7572 1f65 81200000 		.4byte	0x2081
 7573 1f69 540E0000 		.4byte	.LLST14
 7574 1f6d 520E0000 		.4byte	.LVUS14
 7575 1f71 3E       		.uleb128 0x3e
 7576 1f72 75200000 		.4byte	0x2075
 7577 1f76 1D       		.uleb128 0x1d
 7578 1f77 6A200000 		.4byte	0x206a
 7579 1f7b 6A0E0000 		.4byte	.LLST15
 7580 1f7f 680E0000 		.4byte	.LVUS15
ARM GAS  /tmp/cc4ZUYx9.s 			page 134


 7581 1f83 3C       		.uleb128 0x3c
 7582 1f84 C5220000 		.4byte	0x22c5
 7583 1f88 6C000000 		.4byte	.LBI325
 7584 1f8c 02       		.byte	.LVU190
 7585 1f8d 6C000000 		.4byte	.LBB325
 7586 1f91 00000000 		.4byte	.LBE325-.LBB325
 7587 1f95 01       		.byte	0x1
 7588 1f96 72       		.byte	0x72
 7589 1f97 03       		.byte	0x3
 7590 1f98 AA1F0000 		.4byte	0x1faa
 7591 1f9c 1D       		.uleb128 0x1d
 7592 1f9d D3220000 		.4byte	0x22d3
 7593 1fa1 830E0000 		.4byte	.LLST16
 7594 1fa5 7D0E0000 		.4byte	.LVUS16
 7595 1fa9 00       		.byte	0
 7596 1faa 3D       		.uleb128 0x3d
 7597 1fab 89220000 		.4byte	0x2289
 7598 1faf 70000000 		.4byte	.LBB327
 7599 1fb3 08000000 		.4byte	.LBE327-.LBB327
 7600 1fb7 01       		.byte	0x1
 7601 1fb8 75       		.byte	0x75
 7602 1fb9 03       		.byte	0x3
 7603 1fba 3E       		.uleb128 0x3e
 7604 1fbb 97220000 		.4byte	0x2297
 7605 1fbf 00       		.byte	0
 7606 1fc0 00       		.byte	0
 7607 1fc1 00       		.byte	0
 7608 1fc2 3B       		.uleb128 0x3b
 7609 1fc3 7B210000 		.4byte	0x217b
 7610 1fc7 78000000 		.4byte	.LBI339
 7611 1fcb 05       		.byte	.LVU201
 7612 1fcc C8000000 		.4byte	.Ldebug_ranges0+0xc8
 7613 1fd0 01       		.byte	0x1
 7614 1fd1 E8       		.byte	0xe8
 7615 1fd2 03       		.byte	0x3
 7616 1fd3 2A       		.uleb128 0x2a
 7617 1fd4 C8000000 		.4byte	.Ldebug_ranges0+0xc8
 7618 1fd8 27       		.uleb128 0x27
 7619 1fd9 FB220000 		.4byte	0x22fb
 7620 1fdd 78000000 		.4byte	.LBI341
 7621 1fe1 0C       		.byte	.LVU208
 7622 1fe2 C8000000 		.4byte	.Ldebug_ranges0+0xc8
 7623 1fe6 03       		.byte	0x3
 7624 1fe7 8F01     		.2byte	0x18f
 7625 1fe9 03       		.byte	0x3
 7626 1fea 1E       		.uleb128 0x1e
 7627 1feb 0F230000 		.4byte	0x230f
 7628 1fef 78000000 		.4byte	.LBI342
 7629 1ff3 0E       		.byte	.LVU210
 7630 1ff4 78000000 		.4byte	.LBB342
 7631 1ff8 04000000 		.4byte	.LBE342-.LBB342
 7632 1ffc 04       		.byte	0x4
 7633 1ffd 6D02     		.2byte	0x26d
 7634 1fff 03       		.byte	0x3
 7635 2000 1D       		.uleb128 0x1d
 7636 2001 1D230000 		.4byte	0x231d
 7637 2005 B20E0000 		.4byte	.LLST17
ARM GAS  /tmp/cc4ZUYx9.s 			page 135


 7638 2009 B00E0000 		.4byte	.LVUS17
 7639 200d 00       		.byte	0
 7640 200e 00       		.byte	0
 7641 200f 00       		.byte	0
 7642 2010 00       		.byte	0
 7643 2011 00       		.byte	0
 7644 2012 42       		.uleb128 0x42
 7645 2013 D9010000 		.4byte	.LASF132
 7646 2017 01       		.byte	0x1
 7647 2018 A7       		.byte	0xa7
 7648 2019 0B       		.byte	0xb
 7649 201a 27020000 		.4byte	0x227
 7650 201e 01       		.byte	0x1
 7651 201f 44200000 		.4byte	0x2044
 7652 2023 43       		.uleb128 0x43
 7653 2024 74647000 		.ascii	"tdp\000"
 7654 2028 01       		.byte	0x1
 7655 2029 A7       		.byte	0xa7
 7656 202a 3C       		.byte	0x3c
 7657 202b A01D0000 		.4byte	0x1da0
 7658 202f 44       		.uleb128 0x44
 7659 2030 747000   		.ascii	"tp\000"
 7660 2033 01       		.byte	0x1
 7661 2034 A8       		.byte	0xa8
 7662 2035 0D       		.byte	0xd
 7663 2036 27020000 		.4byte	0x227
 7664 203a 2D       		.uleb128 0x2d
 7665 203b 43060000 		.4byte	.LASF107
 7666 203f 54200000 		.4byte	0x2054
 7667 2043 00       		.byte	0
 7668 2044 11       		.uleb128 0x11
 7669 2045 7E070000 		.4byte	0x77e
 7670 2049 54200000 		.4byte	0x2054
 7671 204d 12       		.uleb128 0x12
 7672 204e 38000000 		.4byte	0x38
 7673 2052 15       		.byte	0x15
 7674 2053 00       		.byte	0
 7675 2054 0C       		.uleb128 0xc
 7676 2055 44200000 		.4byte	0x2044
 7677 2059 42       		.uleb128 0x42
 7678 205a E4020000 		.4byte	.LASF133
 7679 205e 01       		.byte	0x1
 7680 205f 58       		.byte	0x58
 7681 2060 0B       		.byte	0xb
 7682 2061 27020000 		.4byte	0x227
 7683 2065 01       		.byte	0x1
 7684 2066 8E200000 		.4byte	0x208e
 7685 206a 43       		.uleb128 0x43
 7686 206b 747000   		.ascii	"tp\000"
 7687 206e 01       		.byte	0x1
 7688 206f 58       		.byte	0x58
 7689 2070 22       		.byte	0x22
 7690 2071 27020000 		.4byte	0x227
 7691 2075 45       		.uleb128 0x45
 7692 2076 12030000 		.4byte	.LASF29
 7693 207a 01       		.byte	0x1
 7694 207b 58       		.byte	0x58
ARM GAS  /tmp/cc4ZUYx9.s 			page 136


 7695 207c 32       		.byte	0x32
 7696 207d 6C070000 		.4byte	0x76c
 7697 2081 45       		.uleb128 0x45
 7698 2082 42050000 		.4byte	.LASF26
 7699 2086 01       		.byte	0x1
 7700 2087 58       		.byte	0x58
 7701 2088 40       		.byte	0x40
 7702 2089 E3000000 		.4byte	0xe3
 7703 208d 00       		.byte	0
 7704 208e 46       		.uleb128 0x46
 7705 208f 08070000 		.4byte	.LASF134
 7706 2093 06       		.byte	0x6
 7707 2094 B501     		.2byte	0x1b5
 7708 2096 14       		.byte	0x14
 7709 2097 03       		.byte	0x3
 7710 2098 CC200000 		.4byte	0x20cc
 7711 209c 2C       		.uleb128 0x2c
 7712 209d 74717000 		.ascii	"tqp\000"
 7713 20a1 06       		.byte	0x6
 7714 20a2 B501     		.2byte	0x1b5
 7715 20a4 39       		.byte	0x39
 7716 20a5 0B090000 		.4byte	0x90b
 7717 20a9 2C       		.uleb128 0x2c
 7718 20aa 6D736700 		.ascii	"msg\000"
 7719 20ae 06       		.byte	0x6
 7720 20af B501     		.2byte	0x1b5
 7721 20b1 44       		.byte	0x44
 7722 20b2 EF000000 		.4byte	0xef
 7723 20b6 2F       		.uleb128 0x2f
 7724 20b7 747000   		.ascii	"tp\000"
 7725 20ba 06       		.byte	0x6
 7726 20bb B601     		.2byte	0x1b6
 7727 20bd 0D       		.byte	0xd
 7728 20be 27020000 		.4byte	0x227
 7729 20c2 2D       		.uleb128 0x2d
 7730 20c3 43060000 		.4byte	.LASF107
 7731 20c7 DC200000 		.4byte	0x20dc
 7732 20cb 00       		.byte	0
 7733 20cc 11       		.uleb128 0x11
 7734 20cd 7E070000 		.4byte	0x77e
 7735 20d1 DC200000 		.4byte	0x20dc
 7736 20d5 12       		.uleb128 0x12
 7737 20d6 38000000 		.4byte	0x38
 7738 20da 13       		.byte	0x13
 7739 20db 00       		.byte	0
 7740 20dc 0C       		.uleb128 0xc
 7741 20dd CC200000 		.4byte	0x20cc
 7742 20e1 46       		.uleb128 0x46
 7743 20e2 FE020000 		.4byte	.LASF135
 7744 20e6 06       		.byte	0x6
 7745 20e7 8601     		.2byte	0x186
 7746 20e9 14       		.byte	0x14
 7747 20ea 03       		.byte	0x3
 7748 20eb 06210000 		.4byte	0x2106
 7749 20ef 47       		.uleb128 0x47
 7750 20f0 31050000 		.4byte	.LASF113
 7751 20f4 06       		.byte	0x6
ARM GAS  /tmp/cc4ZUYx9.s 			page 137


 7752 20f5 8601     		.2byte	0x186
 7753 20f7 2A       		.byte	0x2a
 7754 20f8 13010000 		.4byte	0x113
 7755 20fc 2D       		.uleb128 0x2d
 7756 20fd 43060000 		.4byte	.LASF107
 7757 2101 AB190000 		.4byte	0x19ab
 7758 2105 00       		.byte	0
 7759 2106 48       		.uleb128 0x48
 7760 2107 15060000 		.4byte	.LASF136
 7761 210b 06       		.byte	0x6
 7762 210c 4901     		.2byte	0x149
 7763 210e 1B       		.byte	0x1b
 7764 210f 83070000 		.4byte	0x783
 7765 2113 03       		.byte	0x3
 7766 2114 25210000 		.4byte	0x2125
 7767 2118 2C       		.uleb128 0x2c
 7768 2119 747000   		.ascii	"tp\000"
 7769 211c 06       		.byte	0x6
 7770 211d 4901     		.2byte	0x149
 7771 211f 3A       		.byte	0x3a
 7772 2120 27020000 		.4byte	0x227
 7773 2124 00       		.byte	0
 7774 2125 49       		.uleb128 0x49
 7775 2126 CE070000 		.4byte	.LASF139
 7776 212a 06       		.byte	0x6
 7777 212b 1C01     		.2byte	0x11c
 7778 212d 19       		.byte	0x19
 7779 212e 27020000 		.4byte	0x227
 7780 2132 03       		.byte	0x3
 7781 2133 48       		.uleb128 0x48
 7782 2134 28080000 		.4byte	.LASF137
 7783 2138 07       		.byte	0x7
 7784 2139 C001     		.2byte	0x1c0
 7785 213b 14       		.byte	0x14
 7786 213c 22080000 		.4byte	0x822
 7787 2140 03       		.byte	0x3
 7788 2141 6D210000 		.4byte	0x216d
 7789 2145 47       		.uleb128 0x47
 7790 2146 31050000 		.4byte	.LASF113
 7791 214a 07       		.byte	0x7
 7792 214b C001     		.2byte	0x1c0
 7793 214d 30       		.byte	0x30
 7794 214e 13010000 		.4byte	0x113
 7795 2152 47       		.uleb128 0x47
 7796 2153 63080000 		.4byte	.LASF138
 7797 2157 07       		.byte	0x7
 7798 2158 C101     		.2byte	0x1c1
 7799 215a 30       		.byte	0x30
 7800 215b 13010000 		.4byte	0x113
 7801 215f 2C       		.uleb128 0x2c
 7802 2160 656E6400 		.ascii	"end\000"
 7803 2164 07       		.byte	0x7
 7804 2165 C201     		.2byte	0x1c2
 7805 2167 30       		.byte	0x30
 7806 2168 13010000 		.4byte	0x113
 7807 216c 00       		.byte	0
 7808 216d 49       		.uleb128 0x49
ARM GAS  /tmp/cc4ZUYx9.s 			page 138


 7809 216e C4020000 		.4byte	.LASF140
 7810 2172 07       		.byte	0x7
 7811 2173 8801     		.2byte	0x188
 7812 2175 19       		.byte	0x19
 7813 2176 13010000 		.4byte	0x113
 7814 217a 03       		.byte	0x3
 7815 217b 46       		.uleb128 0x46
 7816 217c 57080000 		.4byte	.LASF141
 7817 2180 03       		.byte	0x3
 7818 2181 8201     		.2byte	0x182
 7819 2183 14       		.byte	0x14
 7820 2184 03       		.byte	0x3
 7821 2185 93210000 		.4byte	0x2193
 7822 2189 2D       		.uleb128 0x2d
 7823 218a 43060000 		.4byte	.LASF107
 7824 218e AB190000 		.4byte	0x19ab
 7825 2192 00       		.byte	0
 7826 2193 4A       		.uleb128 0x4a
 7827 2194 4C060000 		.4byte	.LASF142
 7828 2198 03       		.byte	0x3
 7829 2199 7601     		.2byte	0x176
 7830 219b 14       		.byte	0x14
 7831 219c 03       		.byte	0x3
 7832 219d 4A       		.uleb128 0x4a
 7833 219e 07080000 		.4byte	.LASF143
 7834 21a2 02       		.byte	0x2
 7835 21a3 AF02     		.2byte	0x2af
 7836 21a5 14       		.byte	0x14
 7837 21a6 03       		.byte	0x3
 7838 21a7 49       		.uleb128 0x49
 7839 21a8 CA010000 		.4byte	.LASF144
 7840 21ac 02       		.byte	0x2
 7841 21ad A102     		.2byte	0x2a1
 7842 21af 14       		.byte	0x14
 7843 21b0 22080000 		.4byte	0x822
 7844 21b4 03       		.byte	0x3
 7845 21b5 48       		.uleb128 0x48
 7846 21b6 1C070000 		.4byte	.LASF145
 7847 21ba 02       		.byte	0x2
 7848 21bb 6902     		.2byte	0x269
 7849 21bd 19       		.byte	0x19
 7850 21be 27020000 		.4byte	0x227
 7851 21c2 03       		.byte	0x3
 7852 21c3 E1210000 		.4byte	0x21e1
 7853 21c7 2C       		.uleb128 0x2c
 7854 21c8 74717000 		.ascii	"tqp\000"
 7855 21cc 02       		.byte	0x2
 7856 21cd 6902     		.2byte	0x269
 7857 21cf 3C       		.byte	0x3c
 7858 21d0 0B090000 		.4byte	0x90b
 7859 21d4 2F       		.uleb128 0x2f
 7860 21d5 747000   		.ascii	"tp\000"
 7861 21d8 02       		.byte	0x2
 7862 21d9 6A02     		.2byte	0x26a
 7863 21db 0D       		.byte	0xd
 7864 21dc 27020000 		.4byte	0x227
 7865 21e0 00       		.byte	0
ARM GAS  /tmp/cc4ZUYx9.s 			page 139


 7866 21e1 46       		.uleb128 0x46
 7867 21e2 47030000 		.4byte	.LASF146
 7868 21e6 02       		.byte	0x2
 7869 21e7 6102     		.2byte	0x261
 7870 21e9 14       		.byte	0x14
 7871 21ea 03       		.byte	0x3
 7872 21eb 09220000 		.4byte	0x2209
 7873 21ef 2C       		.uleb128 0x2c
 7874 21f0 747000   		.ascii	"tp\000"
 7875 21f3 02       		.byte	0x2
 7876 21f4 6102     		.2byte	0x261
 7877 21f6 2B       		.byte	0x2b
 7878 21f7 27020000 		.4byte	0x227
 7879 21fb 2C       		.uleb128 0x2c
 7880 21fc 74717000 		.ascii	"tqp\000"
 7881 2200 02       		.byte	0x2
 7882 2201 6102     		.2byte	0x261
 7883 2203 40       		.byte	0x40
 7884 2204 0B090000 		.4byte	0x90b
 7885 2208 00       		.byte	0
 7886 2209 48       		.uleb128 0x48
 7887 220a 5F020000 		.4byte	.LASF147
 7888 220e 02       		.byte	0x2
 7889 220f 4D02     		.2byte	0x24d
 7890 2211 19       		.byte	0x19
 7891 2212 27020000 		.4byte	0x227
 7892 2216 03       		.byte	0x3
 7893 2217 35220000 		.4byte	0x2235
 7894 221b 2C       		.uleb128 0x2c
 7895 221c 746C7000 		.ascii	"tlp\000"
 7896 2220 02       		.byte	0x2
 7897 2221 4D02     		.2byte	0x24d
 7898 2223 35       		.byte	0x35
 7899 2224 35220000 		.4byte	0x2235
 7900 2228 2F       		.uleb128 0x2f
 7901 2229 747000   		.ascii	"tp\000"
 7902 222c 02       		.byte	0x2
 7903 222d 4F02     		.2byte	0x24f
 7904 222f 0D       		.byte	0xd
 7905 2230 27020000 		.4byte	0x227
 7906 2234 00       		.byte	0
 7907 2235 0B       		.uleb128 0xb
 7908 2236 04       		.byte	0x4
 7909 2237 2D020000 		.4byte	0x22d
 7910 223b 46       		.uleb128 0x46
 7911 223c 36050000 		.4byte	.LASF148
 7912 2240 02       		.byte	0x2
 7913 2241 4702     		.2byte	0x247
 7914 2243 14       		.byte	0x14
 7915 2244 03       		.byte	0x3
 7916 2245 63220000 		.4byte	0x2263
 7917 2249 2C       		.uleb128 0x2c
 7918 224a 747000   		.ascii	"tp\000"
 7919 224d 02       		.byte	0x2
 7920 224e 4702     		.2byte	0x247
 7921 2250 2A       		.byte	0x2a
 7922 2251 27020000 		.4byte	0x227
ARM GAS  /tmp/cc4ZUYx9.s 			page 140


 7923 2255 2C       		.uleb128 0x2c
 7924 2256 746C7000 		.ascii	"tlp\000"
 7925 225a 02       		.byte	0x2
 7926 225b 4702     		.2byte	0x247
 7927 225d 3E       		.byte	0x3e
 7928 225e 35220000 		.4byte	0x2235
 7929 2262 00       		.byte	0
 7930 2263 48       		.uleb128 0x48
 7931 2264 32020000 		.4byte	.LASF149
 7932 2268 02       		.byte	0x2
 7933 2269 3F02     		.2byte	0x23f
 7934 226b 14       		.byte	0x14
 7935 226c 22080000 		.4byte	0x822
 7936 2270 03       		.byte	0x3
 7937 2271 83220000 		.4byte	0x2283
 7938 2275 2C       		.uleb128 0x2c
 7939 2276 74717000 		.ascii	"tqp\000"
 7940 227a 02       		.byte	0x2
 7941 227b 3F02     		.2byte	0x23f
 7942 227d 3A       		.byte	0x3a
 7943 227e 83220000 		.4byte	0x2283
 7944 2282 00       		.byte	0
 7945 2283 0B       		.uleb128 0xb
 7946 2284 04       		.byte	0x4
 7947 2285 60020000 		.4byte	0x260
 7948 2289 46       		.uleb128 0x46
 7949 228a E8000000 		.4byte	.LASF150
 7950 228e 02       		.byte	0x2
 7951 228f 2402     		.2byte	0x224
 7952 2291 14       		.byte	0x14
 7953 2292 03       		.byte	0x3
 7954 2293 A5220000 		.4byte	0x22a5
 7955 2297 2C       		.uleb128 0x2c
 7956 2298 74717000 		.ascii	"tqp\000"
 7957 229c 02       		.byte	0x2
 7958 229d 2402     		.2byte	0x224
 7959 229f 30       		.byte	0x30
 7960 22a0 0B090000 		.4byte	0x90b
 7961 22a4 00       		.byte	0
 7962 22a5 48       		.uleb128 0x48
 7963 22a6 1A080000 		.4byte	.LASF151
 7964 22aa 02       		.byte	0x2
 7965 22ab 1802     		.2byte	0x218
 7966 22ad 14       		.byte	0x14
 7967 22ae 22080000 		.4byte	0x822
 7968 22b2 03       		.byte	0x3
 7969 22b3 C5220000 		.4byte	0x22c5
 7970 22b7 2C       		.uleb128 0x2c
 7971 22b8 746C7000 		.ascii	"tlp\000"
 7972 22bc 02       		.byte	0x2
 7973 22bd 1802     		.2byte	0x218
 7974 22bf 32       		.byte	0x32
 7975 22c0 35220000 		.4byte	0x2235
 7976 22c4 00       		.byte	0
 7977 22c5 46       		.uleb128 0x46
 7978 22c6 82010000 		.4byte	.LASF152
 7979 22ca 02       		.byte	0x2
ARM GAS  /tmp/cc4ZUYx9.s 			page 141


 7980 22cb FE01     		.2byte	0x1fe
 7981 22cd 14       		.byte	0x14
 7982 22ce 03       		.byte	0x3
 7983 22cf E1220000 		.4byte	0x22e1
 7984 22d3 2C       		.uleb128 0x2c
 7985 22d4 746C7000 		.ascii	"tlp\000"
 7986 22d8 02       		.byte	0x2
 7987 22d9 FE01     		.2byte	0x1fe
 7988 22db 2E       		.byte	0x2e
 7989 22dc 35220000 		.4byte	0x2235
 7990 22e0 00       		.byte	0
 7991 22e1 4B       		.uleb128 0x4b
 7992 22e2 69070000 		.4byte	.LASF153
 7993 22e6 08       		.byte	0x8
 7994 22e7 69       		.byte	0x69
 7995 22e8 19       		.byte	0x19
 7996 22e9 13010000 		.4byte	0x113
 7997 22ed 03       		.byte	0x3
 7998 22ee 4B       		.uleb128 0x4b
 7999 22ef 91060000 		.4byte	.LASF154
 8000 22f3 09       		.byte	0x9
 8001 22f4 8B       		.byte	0x8b
 8002 22f5 19       		.byte	0x19
 8003 22f6 13010000 		.4byte	0x113
 8004 22fa 03       		.byte	0x3
 8005 22fb 4A       		.uleb128 0x4a
 8006 22fc 01020000 		.4byte	.LASF155
 8007 2300 04       		.byte	0x4
 8008 2301 6A02     		.2byte	0x26a
 8009 2303 14       		.byte	0x14
 8010 2304 03       		.byte	0x3
 8011 2305 4A       		.uleb128 0x4a
 8012 2306 07010000 		.4byte	.LASF156
 8013 230a 04       		.byte	0x4
 8014 230b 5202     		.2byte	0x252
 8015 230d 14       		.byte	0x14
 8016 230e 03       		.byte	0x3
 8017 230f 46       		.uleb128 0x46
 8018 2310 41070000 		.4byte	.LASF157
 8019 2314 05       		.byte	0x5
 8020 2315 0601     		.2byte	0x106
 8021 2317 39       		.byte	0x39
 8022 2318 03       		.byte	0x3
 8023 2319 2B230000 		.4byte	0x232b
 8024 231d 47       		.uleb128 0x47
 8025 231e A7020000 		.4byte	.LASF158
 8026 2322 05       		.byte	0x5
 8027 2323 0601     		.2byte	0x106
 8028 2325 50       		.byte	0x50
 8029 2326 88000000 		.4byte	0x88
 8030 232a 00       		.byte	0
 8031 232b 4C       		.uleb128 0x4c
 8032 232c 59200000 		.4byte	0x2059
 8033 2330 00000000 		.4byte	.LFB246
 8034 2334 3C000000 		.4byte	.LFE246-.LFB246
 8035 2338 01       		.uleb128 0x1
 8036 2339 9C       		.byte	0x9c
ARM GAS  /tmp/cc4ZUYx9.s 			page 142


 8037 233a 99230000 		.4byte	0x2399
 8038 233e 4D       		.uleb128 0x4d
 8039 233f 6A200000 		.4byte	0x206a
 8040 2343 01       		.uleb128 0x1
 8041 2344 50       		.byte	0x50
 8042 2345 1D       		.uleb128 0x1d
 8043 2346 75200000 		.4byte	0x2075
 8044 234a CA0E0000 		.4byte	.LLST0
 8045 234e C60E0000 		.4byte	.LVUS0
 8046 2352 1D       		.uleb128 0x1d
 8047 2353 81200000 		.4byte	0x2081
 8048 2357 ED0E0000 		.4byte	.LLST1
 8049 235b E90E0000 		.4byte	.LVUS1
 8050 235f 4E       		.uleb128 0x4e
 8051 2360 89220000 		.4byte	0x2289
 8052 2364 00000000 		.4byte	.Ldebug_ranges0+0
 8053 2368 01       		.byte	0x1
 8054 2369 75       		.byte	0x75
 8055 236a 03       		.byte	0x3
 8056 236b 75230000 		.4byte	0x2375
 8057 236f 3E       		.uleb128 0x3e
 8058 2370 97220000 		.4byte	0x2297
 8059 2374 00       		.byte	0
 8060 2375 39       		.uleb128 0x39
 8061 2376 C5220000 		.4byte	0x22c5
 8062 237a 30000000 		.4byte	.LBI263
 8063 237e 02       		.byte	.LVU32
 8064 237f 30000000 		.4byte	.LBB263
 8065 2383 00000000 		.4byte	.LBE263-.LBB263
 8066 2387 01       		.byte	0x1
 8067 2388 72       		.byte	0x72
 8068 2389 03       		.byte	0x3
 8069 238a 1D       		.uleb128 0x1d
 8070 238b D3220000 		.4byte	0x22d3
 8071 238f 100F0000 		.4byte	.LLST2
 8072 2393 0C0F0000 		.4byte	.LVUS2
 8073 2397 00       		.byte	0
 8074 2398 00       		.byte	0
 8075 2399 4C       		.uleb128 0x4c
 8076 239a 12200000 		.4byte	0x2012
 8077 239e 00000000 		.4byte	.LFB247
 8078 23a2 7C000000 		.4byte	.LFE247-.LFB247
 8079 23a6 01       		.uleb128 0x1
 8080 23a7 9C       		.byte	0x9c
 8081 23a8 3D240000 		.4byte	0x243d
 8082 23ac 1D       		.uleb128 0x1d
 8083 23ad 23200000 		.4byte	0x2023
 8084 23b1 360F0000 		.4byte	.LLST3
 8085 23b5 300F0000 		.4byte	.LVUS3
 8086 23b9 1F       		.uleb128 0x1f
 8087 23ba 2F200000 		.4byte	0x202f
 8088 23be 640F0000 		.4byte	.LLST4
 8089 23c2 620F0000 		.4byte	.LVUS4
 8090 23c6 3B       		.uleb128 0x3b
 8091 23c7 59200000 		.4byte	0x2059
 8092 23cb 62000000 		.4byte	.LBI273
 8093 23cf 05       		.byte	.LVU86
ARM GAS  /tmp/cc4ZUYx9.s 			page 143


 8094 23d0 20000000 		.4byte	.Ldebug_ranges0+0x20
 8095 23d4 01       		.byte	0x1
 8096 23d5 C1       		.byte	0xc1
 8097 23d6 0A       		.byte	0xa
 8098 23d7 1D       		.uleb128 0x1d
 8099 23d8 81200000 		.4byte	0x2081
 8100 23dc 790F0000 		.4byte	.LLST5
 8101 23e0 770F0000 		.4byte	.LVUS5
 8102 23e4 1D       		.uleb128 0x1d
 8103 23e5 75200000 		.4byte	0x2075
 8104 23e9 8F0F0000 		.4byte	.LLST6
 8105 23ed 8D0F0000 		.4byte	.LVUS6
 8106 23f1 1D       		.uleb128 0x1d
 8107 23f2 6A200000 		.4byte	0x206a
 8108 23f6 A50F0000 		.4byte	.LLST7
 8109 23fa A30F0000 		.4byte	.LVUS7
 8110 23fe 3C       		.uleb128 0x3c
 8111 23ff C5220000 		.4byte	0x22c5
 8112 2403 66000000 		.4byte	.LBI275
 8113 2407 02       		.byte	.LVU101
 8114 2408 66000000 		.4byte	.LBB275
 8115 240c 00000000 		.4byte	.LBE275-.LBB275
 8116 2410 01       		.byte	0x1
 8117 2411 72       		.byte	0x72
 8118 2412 03       		.byte	0x3
 8119 2413 25240000 		.4byte	0x2425
 8120 2417 1D       		.uleb128 0x1d
 8121 2418 D3220000 		.4byte	0x22d3
 8122 241c BC0F0000 		.4byte	.LLST8
 8123 2420 B80F0000 		.4byte	.LVUS8
 8124 2424 00       		.byte	0
 8125 2425 3D       		.uleb128 0x3d
 8126 2426 89220000 		.4byte	0x2289
 8127 242a 66000000 		.4byte	.LBB277
 8128 242e 08000000 		.4byte	.LBE277-.LBB277
 8129 2432 01       		.byte	0x1
 8130 2433 75       		.byte	0x75
 8131 2434 03       		.byte	0x3
 8132 2435 3E       		.uleb128 0x3e
 8133 2436 97220000 		.4byte	0x2297
 8134 243a 00       		.byte	0
 8135 243b 00       		.byte	0
 8136 243c 00       		.byte	0
 8137 243d 4C       		.uleb128 0x4c
 8138 243e AA180000 		.4byte	0x18aa
 8139 2442 00000000 		.4byte	.LFB254
 8140 2446 52000000 		.4byte	.LFE254-.LFB254
 8141 244a 01       		.uleb128 0x1
 8142 244b 9C       		.byte	0x9c
 8143 244c D8250000 		.4byte	0x25d8
 8144 2450 1D       		.uleb128 0x1d
 8145 2451 B8180000 		.4byte	0x18b8
 8146 2455 E40F0000 		.4byte	.LLST47
 8147 2459 DC0F0000 		.4byte	.LVUS47
 8148 245d 1C       		.uleb128 0x1c
 8149 245e 93210000 		.4byte	0x2193
 8150 2462 00000000 		.4byte	.LBI512
ARM GAS  /tmp/cc4ZUYx9.s 			page 144


 8151 2466 02       		.byte	.LVU497
 8152 2467 A0020000 		.4byte	.Ldebug_ranges0+0x2a0
 8153 246b 01       		.byte	0x1
 8154 246c AB01     		.2byte	0x1ab
 8155 246e 03       		.byte	0x3
 8156 246f AB240000 		.4byte	0x24ab
 8157 2473 27       		.uleb128 0x27
 8158 2474 05230000 		.4byte	0x2305
 8159 2478 00000000 		.4byte	.LBI513
 8160 247c 04       		.byte	.LVU499
 8161 247d A8020000 		.4byte	.Ldebug_ranges0+0x2a8
 8162 2481 03       		.byte	0x3
 8163 2482 7801     		.2byte	0x178
 8164 2484 03       		.byte	0x3
 8165 2485 1E       		.uleb128 0x1e
 8166 2486 0F230000 		.4byte	0x230f
 8167 248a 00000000 		.4byte	.LBI514
 8168 248e 06       		.byte	.LVU501
 8169 248f 00000000 		.4byte	.LBB514
 8170 2493 06000000 		.4byte	.LBE514-.LBB514
 8171 2497 04       		.byte	0x4
 8172 2498 5A02     		.2byte	0x25a
 8173 249a 03       		.byte	0x3
 8174 249b 1D       		.uleb128 0x1d
 8175 249c 1D230000 		.4byte	0x231d
 8176 24a0 20100000 		.4byte	.LLST48
 8177 24a4 1E100000 		.4byte	.LVUS48
 8178 24a8 00       		.byte	0
 8179 24a9 00       		.byte	0
 8180 24aa 00       		.byte	0
 8181 24ab 1C       		.uleb128 0x1c
 8182 24ac 7B210000 		.4byte	0x217b
 8183 24b0 1A000000 		.4byte	.LBI519
 8184 24b4 01       		.byte	.LVU515
 8185 24b5 C0020000 		.4byte	.Ldebug_ranges0+0x2c0
 8186 24b9 01       		.byte	0x1
 8187 24ba C901     		.2byte	0x1c9
 8188 24bc 03       		.byte	0x3
 8189 24bd FF240000 		.4byte	0x24ff
 8190 24c1 2A       		.uleb128 0x2a
 8191 24c2 C0020000 		.4byte	.Ldebug_ranges0+0x2c0
 8192 24c6 27       		.uleb128 0x27
 8193 24c7 FB220000 		.4byte	0x22fb
 8194 24cb 1A000000 		.4byte	.LBI521
 8195 24cf 08       		.byte	.LVU522
 8196 24d0 C0020000 		.4byte	.Ldebug_ranges0+0x2c0
 8197 24d4 03       		.byte	0x3
 8198 24d5 8F01     		.2byte	0x18f
 8199 24d7 03       		.byte	0x3
 8200 24d8 1E       		.uleb128 0x1e
 8201 24d9 0F230000 		.4byte	0x230f
 8202 24dd 1A000000 		.4byte	.LBI522
 8203 24e1 0A       		.byte	.LVU524
 8204 24e2 1A000000 		.4byte	.LBB522
 8205 24e6 06000000 		.4byte	.LBE522-.LBB522
 8206 24ea 04       		.byte	0x4
 8207 24eb 6D02     		.2byte	0x26d
ARM GAS  /tmp/cc4ZUYx9.s 			page 145


 8208 24ed 03       		.byte	0x3
 8209 24ee 1D       		.uleb128 0x1d
 8210 24ef 1D230000 		.4byte	0x231d
 8211 24f3 37100000 		.4byte	.LLST49
 8212 24f7 35100000 		.4byte	.LVUS49
 8213 24fb 00       		.byte	0
 8214 24fc 00       		.byte	0
 8215 24fd 00       		.byte	0
 8216 24fe 00       		.byte	0
 8217 24ff 27       		.uleb128 0x27
 8218 2500 AA180000 		.4byte	0x18aa
 8219 2504 22000000 		.4byte	.LBI527
 8220 2508 00       		.byte	.LVU528
 8221 2509 D8020000 		.4byte	.Ldebug_ranges0+0x2d8
 8222 250d 01       		.byte	0x1
 8223 250e A901     		.2byte	0x1a9
 8224 2510 06       		.byte	0x6
 8225 2511 1D       		.uleb128 0x1d
 8226 2512 B8180000 		.4byte	0x18b8
 8227 2516 53100000 		.4byte	.LLST50
 8228 251a 4B100000 		.4byte	.LVUS50
 8229 251e 2A       		.uleb128 0x2a
 8230 251f D8020000 		.4byte	.Ldebug_ranges0+0x2d8
 8231 2523 1C       		.uleb128 0x1c
 8232 2524 7B210000 		.4byte	0x217b
 8233 2528 2E000000 		.4byte	.LBI529
 8234 252c 02       		.byte	.LVU535
 8235 252d F0020000 		.4byte	.Ldebug_ranges0+0x2f0
 8236 2531 01       		.byte	0x1
 8237 2532 B401     		.2byte	0x1b4
 8238 2534 05       		.byte	0x5
 8239 2535 73250000 		.4byte	0x2573
 8240 2539 2A       		.uleb128 0x2a
 8241 253a F0020000 		.4byte	.Ldebug_ranges0+0x2f0
 8242 253e 27       		.uleb128 0x27
 8243 253f FB220000 		.4byte	0x22fb
 8244 2543 2E000000 		.4byte	.LBI531
 8245 2547 09       		.byte	.LVU542
 8246 2548 F0020000 		.4byte	.Ldebug_ranges0+0x2f0
 8247 254c 03       		.byte	0x3
 8248 254d 8F01     		.2byte	0x18f
 8249 254f 03       		.byte	0x3
 8250 2550 27       		.uleb128 0x27
 8251 2551 0F230000 		.4byte	0x230f
 8252 2555 2E000000 		.4byte	.LBI532
 8253 2559 0B       		.byte	.LVU544
 8254 255a 10030000 		.4byte	.Ldebug_ranges0+0x310
 8255 255e 04       		.byte	0x4
 8256 255f 6D02     		.2byte	0x26d
 8257 2561 03       		.byte	0x3
 8258 2562 1D       		.uleb128 0x1d
 8259 2563 1D230000 		.4byte	0x231d
 8260 2567 8F100000 		.4byte	.LLST51
 8261 256b 8D100000 		.4byte	.LVUS51
 8262 256f 00       		.byte	0
 8263 2570 00       		.byte	0
 8264 2571 00       		.byte	0
ARM GAS  /tmp/cc4ZUYx9.s 			page 146


 8265 2572 00       		.byte	0
 8266 2573 20       		.uleb128 0x20
 8267 2574 06210000 		.4byte	0x2106
 8268 2578 44000000 		.4byte	.LBI542
 8269 257c 01       		.byte	.LVU549
 8270 257d 44000000 		.4byte	.LBB542
 8271 2581 00000000 		.4byte	.LBE542-.LBB542
 8272 2585 01       		.byte	0x1
 8273 2586 BF01     		.2byte	0x1bf
 8274 2588 1D       		.byte	0x1d
 8275 2589 9B250000 		.4byte	0x259b
 8276 258d 1D       		.uleb128 0x1d
 8277 258e 18210000 		.4byte	0x2118
 8278 2592 A5100000 		.4byte	.LLST52
 8279 2596 A3100000 		.4byte	.LVUS52
 8280 259a 00       		.byte	0
 8281 259b 20       		.uleb128 0x20
 8282 259c 06210000 		.4byte	0x2106
 8283 25a0 4C000000 		.4byte	.LBI544
 8284 25a4 01       		.byte	.LVU555
 8285 25a5 4C000000 		.4byte	.LBB544
 8286 25a9 00000000 		.4byte	.LBE544-.LBB544
 8287 25ad 01       		.byte	0x1
 8288 25ae BA01     		.2byte	0x1ba
 8289 25b0 12       		.byte	0x12
 8290 25b1 C3250000 		.4byte	0x25c3
 8291 25b5 1D       		.uleb128 0x1d
 8292 25b6 18210000 		.4byte	0x2118
 8293 25ba BA100000 		.4byte	.LLST53
 8294 25be B8100000 		.4byte	.LVUS53
 8295 25c2 00       		.byte	0
 8296 25c3 22       		.uleb128 0x22
 8297 25c4 4C000000 		.4byte	.LVL72
 8298 25c8 6F260000 		.4byte	0x266f
 8299 25cc 22       		.uleb128 0x22
 8300 25cd 52000000 		.4byte	.LVL74
 8301 25d1 7B260000 		.4byte	0x267b
 8302 25d5 00       		.byte	0
 8303 25d6 00       		.byte	0
 8304 25d7 00       		.byte	0
 8305 25d8 4C       		.uleb128 0x4c
 8306 25d9 C10B0000 		.4byte	0xbc1
 8307 25dd 00000000 		.4byte	.LFB267
 8308 25e1 10000000 		.4byte	.LFE267-.LFB267
 8309 25e5 01       		.uleb128 0x1
 8310 25e6 9C       		.byte	0x9c
 8311 25e7 21260000 		.4byte	0x2621
 8312 25eb 1D       		.uleb128 0x1d
 8313 25ec CF0B0000 		.4byte	0xbcf
 8314 25f0 D5100000 		.4byte	.LLST107
 8315 25f4 CD100000 		.4byte	.LVUS107
 8316 25f8 1D       		.uleb128 0x1d
 8317 25f9 DC0B0000 		.4byte	0xbdc
 8318 25fd 12110000 		.4byte	.LLST108
 8319 2601 0C110000 		.4byte	.LVUS108
 8320 2605 28       		.uleb128 0x28
 8321 2606 F20B0000 		.4byte	0xbf2
ARM GAS  /tmp/cc4ZUYx9.s 			page 147


 8322 260a 06000000 		.4byte	.LBB876
 8323 260e 08000000 		.4byte	.LBE876-.LBB876
 8324 2612 1F       		.uleb128 0x1f
 8325 2613 F30B0000 		.4byte	0xbf3
 8326 2617 40110000 		.4byte	.LLST109
 8327 261b 3E110000 		.4byte	.LVUS109
 8328 261f 00       		.byte	0
 8329 2620 00       		.byte	0
 8330 2621 4F       		.uleb128 0x4f
 8331 2622 B4060000 		.4byte	.LASF159
 8332 2626 B4060000 		.4byte	.LASF159
 8333 262a 02       		.byte	0x2
 8334 262b DC01     		.2byte	0x1dc
 8335 262d 0D       		.byte	0xd
 8336 262e 4F       		.uleb128 0x4f
 8337 262f 42080000 		.4byte	.LASF160
 8338 2633 42080000 		.4byte	.LASF160
 8339 2637 02       		.byte	0x2
 8340 2638 DF01     		.2byte	0x1df
 8341 263a 09       		.byte	0x9
 8342 263b 4F       		.uleb128 0x4f
 8343 263c 8D070000 		.4byte	.LASF161
 8344 2640 8D070000 		.4byte	.LASF161
 8345 2644 02       		.byte	0x2
 8346 2645 E001     		.2byte	0x1e0
 8347 2647 08       		.byte	0x8
 8348 2648 4F       		.uleb128 0x4f
 8349 2649 C8050000 		.4byte	.LASF162
 8350 264d C8050000 		.4byte	.LASF162
 8351 2651 02       		.byte	0x2
 8352 2652 DE01     		.2byte	0x1de
 8353 2654 08       		.byte	0x8
 8354 2655 4F       		.uleb128 0x4f
 8355 2656 02050000 		.4byte	.LASF163
 8356 265a 02050000 		.4byte	.LASF163
 8357 265e 02       		.byte	0x2
 8358 265f E301     		.2byte	0x1e3
 8359 2661 08       		.byte	0x8
 8360 2662 4F       		.uleb128 0x4f
 8361 2663 6B020000 		.4byte	.LASF164
 8362 2667 6B020000 		.4byte	.LASF164
 8363 266b 02       		.byte	0x2
 8364 266c E101     		.2byte	0x1e1
 8365 266e 08       		.byte	0x8
 8366 266f 50       		.uleb128 0x50
 8367 2670 E4070000 		.4byte	.LASF165
 8368 2674 E4070000 		.4byte	.LASF165
 8369 2678 13       		.byte	0x13
 8370 2679 96       		.byte	0x96
 8371 267a 08       		.byte	0x8
 8372 267b 50       		.uleb128 0x50
 8373 267c EF010000 		.4byte	.LASF166
 8374 2680 EF010000 		.4byte	.LASF166
 8375 2684 14       		.byte	0x14
 8376 2685 81       		.byte	0x81
 8377 2686 08       		.byte	0x8
 8378 2687 00       		.byte	0
ARM GAS  /tmp/cc4ZUYx9.s 			page 148


 8379              		.section	.debug_abbrev,"",%progbits
 8380              	.Ldebug_abbrev0:
 8381 0000 01       		.uleb128 0x1
 8382 0001 11       		.uleb128 0x11
 8383 0002 01       		.byte	0x1
 8384 0003 25       		.uleb128 0x25
 8385 0004 0E       		.uleb128 0xe
 8386 0005 13       		.uleb128 0x13
 8387 0006 0B       		.uleb128 0xb
 8388 0007 03       		.uleb128 0x3
 8389 0008 0E       		.uleb128 0xe
 8390 0009 1B       		.uleb128 0x1b
 8391 000a 0E       		.uleb128 0xe
 8392 000b 55       		.uleb128 0x55
 8393 000c 17       		.uleb128 0x17
 8394 000d 11       		.uleb128 0x11
 8395 000e 01       		.uleb128 0x1
 8396 000f 10       		.uleb128 0x10
 8397 0010 17       		.uleb128 0x17
 8398 0011 00       		.byte	0
 8399 0012 00       		.byte	0
 8400 0013 02       		.uleb128 0x2
 8401 0014 24       		.uleb128 0x24
 8402 0015 00       		.byte	0
 8403 0016 0B       		.uleb128 0xb
 8404 0017 0B       		.uleb128 0xb
 8405 0018 3E       		.uleb128 0x3e
 8406 0019 0B       		.uleb128 0xb
 8407 001a 03       		.uleb128 0x3
 8408 001b 08       		.uleb128 0x8
 8409 001c 00       		.byte	0
 8410 001d 00       		.byte	0
 8411 001e 03       		.uleb128 0x3
 8412 001f 16       		.uleb128 0x16
 8413 0020 00       		.byte	0
 8414 0021 03       		.uleb128 0x3
 8415 0022 0E       		.uleb128 0xe
 8416 0023 3A       		.uleb128 0x3a
 8417 0024 0B       		.uleb128 0xb
 8418 0025 3B       		.uleb128 0x3b
 8419 0026 0B       		.uleb128 0xb
 8420 0027 39       		.uleb128 0x39
 8421 0028 0B       		.uleb128 0xb
 8422 0029 49       		.uleb128 0x49
 8423 002a 13       		.uleb128 0x13
 8424 002b 00       		.byte	0
 8425 002c 00       		.byte	0
 8426 002d 04       		.uleb128 0x4
 8427 002e 24       		.uleb128 0x24
 8428 002f 00       		.byte	0
 8429 0030 0B       		.uleb128 0xb
 8430 0031 0B       		.uleb128 0xb
 8431 0032 3E       		.uleb128 0x3e
 8432 0033 0B       		.uleb128 0xb
 8433 0034 03       		.uleb128 0x3
 8434 0035 0E       		.uleb128 0xe
 8435 0036 00       		.byte	0
ARM GAS  /tmp/cc4ZUYx9.s 			page 149


 8436 0037 00       		.byte	0
 8437 0038 05       		.uleb128 0x5
 8438 0039 35       		.uleb128 0x35
 8439 003a 00       		.byte	0
 8440 003b 49       		.uleb128 0x49
 8441 003c 13       		.uleb128 0x13
 8442 003d 00       		.byte	0
 8443 003e 00       		.byte	0
 8444 003f 06       		.uleb128 0x6
 8445 0040 13       		.uleb128 0x13
 8446 0041 01       		.byte	0x1
 8447 0042 03       		.uleb128 0x3
 8448 0043 0E       		.uleb128 0xe
 8449 0044 0B       		.uleb128 0xb
 8450 0045 0B       		.uleb128 0xb
 8451 0046 3A       		.uleb128 0x3a
 8452 0047 0B       		.uleb128 0xb
 8453 0048 3B       		.uleb128 0x3b
 8454 0049 0B       		.uleb128 0xb
 8455 004a 39       		.uleb128 0x39
 8456 004b 0B       		.uleb128 0xb
 8457 004c 01       		.uleb128 0x1
 8458 004d 13       		.uleb128 0x13
 8459 004e 00       		.byte	0
 8460 004f 00       		.byte	0
 8461 0050 07       		.uleb128 0x7
 8462 0051 0D       		.uleb128 0xd
 8463 0052 00       		.byte	0
 8464 0053 03       		.uleb128 0x3
 8465 0054 0E       		.uleb128 0xe
 8466 0055 3A       		.uleb128 0x3a
 8467 0056 0B       		.uleb128 0xb
 8468 0057 3B       		.uleb128 0x3b
 8469 0058 0B       		.uleb128 0xb
 8470 0059 39       		.uleb128 0x39
 8471 005a 0B       		.uleb128 0xb
 8472 005b 49       		.uleb128 0x49
 8473 005c 13       		.uleb128 0x13
 8474 005d 38       		.uleb128 0x38
 8475 005e 0B       		.uleb128 0xb
 8476 005f 00       		.byte	0
 8477 0060 00       		.byte	0
 8478 0061 08       		.uleb128 0x8
 8479 0062 0D       		.uleb128 0xd
 8480 0063 00       		.byte	0
 8481 0064 03       		.uleb128 0x3
 8482 0065 08       		.uleb128 0x8
 8483 0066 3A       		.uleb128 0x3a
 8484 0067 0B       		.uleb128 0xb
 8485 0068 3B       		.uleb128 0x3b
 8486 0069 0B       		.uleb128 0xb
 8487 006a 39       		.uleb128 0x39
 8488 006b 0B       		.uleb128 0xb
 8489 006c 49       		.uleb128 0x49
 8490 006d 13       		.uleb128 0x13
 8491 006e 38       		.uleb128 0x38
 8492 006f 0B       		.uleb128 0xb
ARM GAS  /tmp/cc4ZUYx9.s 			page 150


 8493 0070 00       		.byte	0
 8494 0071 00       		.byte	0
 8495 0072 09       		.uleb128 0x9
 8496 0073 0D       		.uleb128 0xd
 8497 0074 00       		.byte	0
 8498 0075 03       		.uleb128 0x3
 8499 0076 08       		.uleb128 0x8
 8500 0077 3A       		.uleb128 0x3a
 8501 0078 0B       		.uleb128 0xb
 8502 0079 3B       		.uleb128 0x3b
 8503 007a 05       		.uleb128 0x5
 8504 007b 39       		.uleb128 0x39
 8505 007c 0B       		.uleb128 0xb
 8506 007d 49       		.uleb128 0x49
 8507 007e 13       		.uleb128 0x13
 8508 007f 38       		.uleb128 0x38
 8509 0080 0B       		.uleb128 0xb
 8510 0081 00       		.byte	0
 8511 0082 00       		.byte	0
 8512 0083 0A       		.uleb128 0xa
 8513 0084 0D       		.uleb128 0xd
 8514 0085 00       		.byte	0
 8515 0086 03       		.uleb128 0x3
 8516 0087 0E       		.uleb128 0xe
 8517 0088 3A       		.uleb128 0x3a
 8518 0089 0B       		.uleb128 0xb
 8519 008a 3B       		.uleb128 0x3b
 8520 008b 05       		.uleb128 0x5
 8521 008c 39       		.uleb128 0x39
 8522 008d 0B       		.uleb128 0xb
 8523 008e 49       		.uleb128 0x49
 8524 008f 13       		.uleb128 0x13
 8525 0090 38       		.uleb128 0x38
 8526 0091 0B       		.uleb128 0xb
 8527 0092 00       		.byte	0
 8528 0093 00       		.byte	0
 8529 0094 0B       		.uleb128 0xb
 8530 0095 0F       		.uleb128 0xf
 8531 0096 00       		.byte	0
 8532 0097 0B       		.uleb128 0xb
 8533 0098 0B       		.uleb128 0xb
 8534 0099 49       		.uleb128 0x49
 8535 009a 13       		.uleb128 0x13
 8536 009b 00       		.byte	0
 8537 009c 00       		.byte	0
 8538 009d 0C       		.uleb128 0xc
 8539 009e 26       		.uleb128 0x26
 8540 009f 00       		.byte	0
 8541 00a0 49       		.uleb128 0x49
 8542 00a1 13       		.uleb128 0x13
 8543 00a2 00       		.byte	0
 8544 00a3 00       		.byte	0
 8545 00a4 0D       		.uleb128 0xd
 8546 00a5 13       		.uleb128 0x13
 8547 00a6 01       		.byte	0x1
 8548 00a7 03       		.uleb128 0x3
 8549 00a8 0E       		.uleb128 0xe
ARM GAS  /tmp/cc4ZUYx9.s 			page 151


 8550 00a9 0B       		.uleb128 0xb
 8551 00aa 0B       		.uleb128 0xb
 8552 00ab 3A       		.uleb128 0x3a
 8553 00ac 0B       		.uleb128 0xb
 8554 00ad 3B       		.uleb128 0x3b
 8555 00ae 05       		.uleb128 0x5
 8556 00af 39       		.uleb128 0x39
 8557 00b0 0B       		.uleb128 0xb
 8558 00b1 01       		.uleb128 0x1
 8559 00b2 13       		.uleb128 0x13
 8560 00b3 00       		.byte	0
 8561 00b4 00       		.byte	0
 8562 00b5 0E       		.uleb128 0xe
 8563 00b6 15       		.uleb128 0x15
 8564 00b7 01       		.byte	0x1
 8565 00b8 27       		.uleb128 0x27
 8566 00b9 19       		.uleb128 0x19
 8567 00ba 01       		.uleb128 0x1
 8568 00bb 13       		.uleb128 0x13
 8569 00bc 00       		.byte	0
 8570 00bd 00       		.byte	0
 8571 00be 0F       		.uleb128 0xf
 8572 00bf 05       		.uleb128 0x5
 8573 00c0 00       		.byte	0
 8574 00c1 49       		.uleb128 0x49
 8575 00c2 13       		.uleb128 0x13
 8576 00c3 00       		.byte	0
 8577 00c4 00       		.byte	0
 8578 00c5 10       		.uleb128 0x10
 8579 00c6 0F       		.uleb128 0xf
 8580 00c7 00       		.byte	0
 8581 00c8 0B       		.uleb128 0xb
 8582 00c9 0B       		.uleb128 0xb
 8583 00ca 00       		.byte	0
 8584 00cb 00       		.byte	0
 8585 00cc 11       		.uleb128 0x11
 8586 00cd 01       		.uleb128 0x1
 8587 00ce 01       		.byte	0x1
 8588 00cf 49       		.uleb128 0x49
 8589 00d0 13       		.uleb128 0x13
 8590 00d1 01       		.uleb128 0x1
 8591 00d2 13       		.uleb128 0x13
 8592 00d3 00       		.byte	0
 8593 00d4 00       		.byte	0
 8594 00d5 12       		.uleb128 0x12
 8595 00d6 21       		.uleb128 0x21
 8596 00d7 00       		.byte	0
 8597 00d8 49       		.uleb128 0x49
 8598 00d9 13       		.uleb128 0x13
 8599 00da 2F       		.uleb128 0x2f
 8600 00db 0B       		.uleb128 0xb
 8601 00dc 00       		.byte	0
 8602 00dd 00       		.byte	0
 8603 00de 13       		.uleb128 0x13
 8604 00df 13       		.uleb128 0x13
 8605 00e0 01       		.byte	0x1
 8606 00e1 0B       		.uleb128 0xb
ARM GAS  /tmp/cc4ZUYx9.s 			page 152


 8607 00e2 0B       		.uleb128 0xb
 8608 00e3 3A       		.uleb128 0x3a
 8609 00e4 0B       		.uleb128 0xb
 8610 00e5 3B       		.uleb128 0x3b
 8611 00e6 05       		.uleb128 0x5
 8612 00e7 39       		.uleb128 0x39
 8613 00e8 0B       		.uleb128 0xb
 8614 00e9 01       		.uleb128 0x1
 8615 00ea 13       		.uleb128 0x13
 8616 00eb 00       		.byte	0
 8617 00ec 00       		.byte	0
 8618 00ed 14       		.uleb128 0x14
 8619 00ee 16       		.uleb128 0x16
 8620 00ef 00       		.byte	0
 8621 00f0 03       		.uleb128 0x3
 8622 00f1 0E       		.uleb128 0xe
 8623 00f2 3A       		.uleb128 0x3a
 8624 00f3 0B       		.uleb128 0xb
 8625 00f4 3B       		.uleb128 0x3b
 8626 00f5 05       		.uleb128 0x5
 8627 00f6 39       		.uleb128 0x39
 8628 00f7 0B       		.uleb128 0xb
 8629 00f8 49       		.uleb128 0x49
 8630 00f9 13       		.uleb128 0x13
 8631 00fa 00       		.byte	0
 8632 00fb 00       		.byte	0
 8633 00fc 15       		.uleb128 0x15
 8634 00fd 13       		.uleb128 0x13
 8635 00fe 01       		.byte	0x1
 8636 00ff 0B       		.uleb128 0xb
 8637 0100 0B       		.uleb128 0xb
 8638 0101 3A       		.uleb128 0x3a
 8639 0102 0B       		.uleb128 0xb
 8640 0103 3B       		.uleb128 0x3b
 8641 0104 0B       		.uleb128 0xb
 8642 0105 39       		.uleb128 0x39
 8643 0106 0B       		.uleb128 0xb
 8644 0107 01       		.uleb128 0x1
 8645 0108 13       		.uleb128 0x13
 8646 0109 00       		.byte	0
 8647 010a 00       		.byte	0
 8648 010b 16       		.uleb128 0x16
 8649 010c 17       		.uleb128 0x17
 8650 010d 01       		.byte	0x1
 8651 010e 0B       		.uleb128 0xb
 8652 010f 0B       		.uleb128 0xb
 8653 0110 3A       		.uleb128 0x3a
 8654 0111 0B       		.uleb128 0xb
 8655 0112 3B       		.uleb128 0x3b
 8656 0113 0B       		.uleb128 0xb
 8657 0114 39       		.uleb128 0x39
 8658 0115 0B       		.uleb128 0xb
 8659 0116 01       		.uleb128 0x1
 8660 0117 13       		.uleb128 0x13
 8661 0118 00       		.byte	0
 8662 0119 00       		.byte	0
 8663 011a 17       		.uleb128 0x17
ARM GAS  /tmp/cc4ZUYx9.s 			page 153


 8664 011b 0D       		.uleb128 0xd
 8665 011c 00       		.byte	0
 8666 011d 03       		.uleb128 0x3
 8667 011e 0E       		.uleb128 0xe
 8668 011f 3A       		.uleb128 0x3a
 8669 0120 0B       		.uleb128 0xb
 8670 0121 3B       		.uleb128 0x3b
 8671 0122 0B       		.uleb128 0xb
 8672 0123 39       		.uleb128 0x39
 8673 0124 0B       		.uleb128 0xb
 8674 0125 49       		.uleb128 0x49
 8675 0126 13       		.uleb128 0x13
 8676 0127 00       		.byte	0
 8677 0128 00       		.byte	0
 8678 0129 18       		.uleb128 0x18
 8679 012a 0D       		.uleb128 0xd
 8680 012b 00       		.byte	0
 8681 012c 03       		.uleb128 0x3
 8682 012d 0E       		.uleb128 0xe
 8683 012e 3A       		.uleb128 0x3a
 8684 012f 0B       		.uleb128 0xb
 8685 0130 3B       		.uleb128 0x3b
 8686 0131 05       		.uleb128 0x5
 8687 0132 39       		.uleb128 0x39
 8688 0133 0B       		.uleb128 0xb
 8689 0134 49       		.uleb128 0x49
 8690 0135 13       		.uleb128 0x13
 8691 0136 00       		.byte	0
 8692 0137 00       		.byte	0
 8693 0138 19       		.uleb128 0x19
 8694 0139 34       		.uleb128 0x34
 8695 013a 00       		.byte	0
 8696 013b 03       		.uleb128 0x3
 8697 013c 08       		.uleb128 0x8
 8698 013d 3A       		.uleb128 0x3a
 8699 013e 0B       		.uleb128 0xb
 8700 013f 3B       		.uleb128 0x3b
 8701 0140 05       		.uleb128 0x5
 8702 0141 39       		.uleb128 0x39
 8703 0142 0B       		.uleb128 0xb
 8704 0143 49       		.uleb128 0x49
 8705 0144 13       		.uleb128 0x13
 8706 0145 3F       		.uleb128 0x3f
 8707 0146 19       		.uleb128 0x19
 8708 0147 3C       		.uleb128 0x3c
 8709 0148 19       		.uleb128 0x19
 8710 0149 00       		.byte	0
 8711 014a 00       		.byte	0
 8712 014b 1A       		.uleb128 0x1a
 8713 014c 2E       		.uleb128 0x2e
 8714 014d 01       		.byte	0x1
 8715 014e 3F       		.uleb128 0x3f
 8716 014f 19       		.uleb128 0x19
 8717 0150 03       		.uleb128 0x3
 8718 0151 0E       		.uleb128 0xe
 8719 0152 3A       		.uleb128 0x3a
 8720 0153 0B       		.uleb128 0xb
ARM GAS  /tmp/cc4ZUYx9.s 			page 154


 8721 0154 3B       		.uleb128 0x3b
 8722 0155 05       		.uleb128 0x5
 8723 0156 39       		.uleb128 0x39
 8724 0157 0B       		.uleb128 0xb
 8725 0158 27       		.uleb128 0x27
 8726 0159 19       		.uleb128 0x19
 8727 015a 11       		.uleb128 0x11
 8728 015b 01       		.uleb128 0x1
 8729 015c 12       		.uleb128 0x12
 8730 015d 06       		.uleb128 0x6
 8731 015e 40       		.uleb128 0x40
 8732 015f 18       		.uleb128 0x18
 8733 0160 9742     		.uleb128 0x2117
 8734 0162 19       		.uleb128 0x19
 8735 0163 01       		.uleb128 0x1
 8736 0164 13       		.uleb128 0x13
 8737 0165 00       		.byte	0
 8738 0166 00       		.byte	0
 8739 0167 1B       		.uleb128 0x1b
 8740 0168 05       		.uleb128 0x5
 8741 0169 00       		.byte	0
 8742 016a 03       		.uleb128 0x3
 8743 016b 08       		.uleb128 0x8
 8744 016c 3A       		.uleb128 0x3a
 8745 016d 0B       		.uleb128 0xb
 8746 016e 3B       		.uleb128 0x3b
 8747 016f 05       		.uleb128 0x5
 8748 0170 39       		.uleb128 0x39
 8749 0171 0B       		.uleb128 0xb
 8750 0172 49       		.uleb128 0x49
 8751 0173 13       		.uleb128 0x13
 8752 0174 02       		.uleb128 0x2
 8753 0175 17       		.uleb128 0x17
 8754 0176 B742     		.uleb128 0x2137
 8755 0178 17       		.uleb128 0x17
 8756 0179 00       		.byte	0
 8757 017a 00       		.byte	0
 8758 017b 1C       		.uleb128 0x1c
 8759 017c 1D       		.uleb128 0x1d
 8760 017d 01       		.byte	0x1
 8761 017e 31       		.uleb128 0x31
 8762 017f 13       		.uleb128 0x13
 8763 0180 52       		.uleb128 0x52
 8764 0181 01       		.uleb128 0x1
 8765 0182 B842     		.uleb128 0x2138
 8766 0184 0B       		.uleb128 0xb
 8767 0185 55       		.uleb128 0x55
 8768 0186 17       		.uleb128 0x17
 8769 0187 58       		.uleb128 0x58
 8770 0188 0B       		.uleb128 0xb
 8771 0189 59       		.uleb128 0x59
 8772 018a 05       		.uleb128 0x5
 8773 018b 57       		.uleb128 0x57
 8774 018c 0B       		.uleb128 0xb
 8775 018d 01       		.uleb128 0x1
 8776 018e 13       		.uleb128 0x13
 8777 018f 00       		.byte	0
ARM GAS  /tmp/cc4ZUYx9.s 			page 155


 8778 0190 00       		.byte	0
 8779 0191 1D       		.uleb128 0x1d
 8780 0192 05       		.uleb128 0x5
 8781 0193 00       		.byte	0
 8782 0194 31       		.uleb128 0x31
 8783 0195 13       		.uleb128 0x13
 8784 0196 02       		.uleb128 0x2
 8785 0197 17       		.uleb128 0x17
 8786 0198 B742     		.uleb128 0x2137
 8787 019a 17       		.uleb128 0x17
 8788 019b 00       		.byte	0
 8789 019c 00       		.byte	0
 8790 019d 1E       		.uleb128 0x1e
 8791 019e 1D       		.uleb128 0x1d
 8792 019f 01       		.byte	0x1
 8793 01a0 31       		.uleb128 0x31
 8794 01a1 13       		.uleb128 0x13
 8795 01a2 52       		.uleb128 0x52
 8796 01a3 01       		.uleb128 0x1
 8797 01a4 B842     		.uleb128 0x2138
 8798 01a6 0B       		.uleb128 0xb
 8799 01a7 11       		.uleb128 0x11
 8800 01a8 01       		.uleb128 0x1
 8801 01a9 12       		.uleb128 0x12
 8802 01aa 06       		.uleb128 0x6
 8803 01ab 58       		.uleb128 0x58
 8804 01ac 0B       		.uleb128 0xb
 8805 01ad 59       		.uleb128 0x59
 8806 01ae 05       		.uleb128 0x5
 8807 01af 57       		.uleb128 0x57
 8808 01b0 0B       		.uleb128 0xb
 8809 01b1 00       		.byte	0
 8810 01b2 00       		.byte	0
 8811 01b3 1F       		.uleb128 0x1f
 8812 01b4 34       		.uleb128 0x34
 8813 01b5 00       		.byte	0
 8814 01b6 31       		.uleb128 0x31
 8815 01b7 13       		.uleb128 0x13
 8816 01b8 02       		.uleb128 0x2
 8817 01b9 17       		.uleb128 0x17
 8818 01ba B742     		.uleb128 0x2137
 8819 01bc 17       		.uleb128 0x17
 8820 01bd 00       		.byte	0
 8821 01be 00       		.byte	0
 8822 01bf 20       		.uleb128 0x20
 8823 01c0 1D       		.uleb128 0x1d
 8824 01c1 01       		.byte	0x1
 8825 01c2 31       		.uleb128 0x31
 8826 01c3 13       		.uleb128 0x13
 8827 01c4 52       		.uleb128 0x52
 8828 01c5 01       		.uleb128 0x1
 8829 01c6 B842     		.uleb128 0x2138
 8830 01c8 0B       		.uleb128 0xb
 8831 01c9 11       		.uleb128 0x11
 8832 01ca 01       		.uleb128 0x1
 8833 01cb 12       		.uleb128 0x12
 8834 01cc 06       		.uleb128 0x6
ARM GAS  /tmp/cc4ZUYx9.s 			page 156


 8835 01cd 58       		.uleb128 0x58
 8836 01ce 0B       		.uleb128 0xb
 8837 01cf 59       		.uleb128 0x59
 8838 01d0 05       		.uleb128 0x5
 8839 01d1 57       		.uleb128 0x57
 8840 01d2 0B       		.uleb128 0xb
 8841 01d3 01       		.uleb128 0x1
 8842 01d4 13       		.uleb128 0x13
 8843 01d5 00       		.byte	0
 8844 01d6 00       		.byte	0
 8845 01d7 21       		.uleb128 0x21
 8846 01d8 898201   		.uleb128 0x4109
 8847 01db 00       		.byte	0
 8848 01dc 11       		.uleb128 0x11
 8849 01dd 01       		.uleb128 0x1
 8850 01de 31       		.uleb128 0x31
 8851 01df 13       		.uleb128 0x13
 8852 01e0 00       		.byte	0
 8853 01e1 00       		.byte	0
 8854 01e2 22       		.uleb128 0x22
 8855 01e3 898201   		.uleb128 0x4109
 8856 01e6 00       		.byte	0
 8857 01e7 11       		.uleb128 0x11
 8858 01e8 01       		.uleb128 0x1
 8859 01e9 9542     		.uleb128 0x2115
 8860 01eb 19       		.uleb128 0x19
 8861 01ec 31       		.uleb128 0x31
 8862 01ed 13       		.uleb128 0x13
 8863 01ee 00       		.byte	0
 8864 01ef 00       		.byte	0
 8865 01f0 23       		.uleb128 0x23
 8866 01f1 2E       		.uleb128 0x2e
 8867 01f2 01       		.byte	0x1
 8868 01f3 3F       		.uleb128 0x3f
 8869 01f4 19       		.uleb128 0x19
 8870 01f5 03       		.uleb128 0x3
 8871 01f6 0E       		.uleb128 0xe
 8872 01f7 3A       		.uleb128 0x3a
 8873 01f8 0B       		.uleb128 0xb
 8874 01f9 3B       		.uleb128 0x3b
 8875 01fa 05       		.uleb128 0x5
 8876 01fb 39       		.uleb128 0x39
 8877 01fc 0B       		.uleb128 0xb
 8878 01fd 27       		.uleb128 0x27
 8879 01fe 19       		.uleb128 0x19
 8880 01ff 49       		.uleb128 0x49
 8881 0200 13       		.uleb128 0x13
 8882 0201 11       		.uleb128 0x11
 8883 0202 01       		.uleb128 0x1
 8884 0203 12       		.uleb128 0x12
 8885 0204 06       		.uleb128 0x6
 8886 0205 40       		.uleb128 0x40
 8887 0206 18       		.uleb128 0x18
 8888 0207 9742     		.uleb128 0x2117
 8889 0209 19       		.uleb128 0x19
 8890 020a 01       		.uleb128 0x1
 8891 020b 13       		.uleb128 0x13
ARM GAS  /tmp/cc4ZUYx9.s 			page 157


 8892 020c 00       		.byte	0
 8893 020d 00       		.byte	0
 8894 020e 24       		.uleb128 0x24
 8895 020f 05       		.uleb128 0x5
 8896 0210 00       		.byte	0
 8897 0211 03       		.uleb128 0x3
 8898 0212 0E       		.uleb128 0xe
 8899 0213 3A       		.uleb128 0x3a
 8900 0214 0B       		.uleb128 0xb
 8901 0215 3B       		.uleb128 0x3b
 8902 0216 05       		.uleb128 0x5
 8903 0217 39       		.uleb128 0x39
 8904 0218 0B       		.uleb128 0xb
 8905 0219 49       		.uleb128 0x49
 8906 021a 13       		.uleb128 0x13
 8907 021b 02       		.uleb128 0x2
 8908 021c 17       		.uleb128 0x17
 8909 021d B742     		.uleb128 0x2137
 8910 021f 17       		.uleb128 0x17
 8911 0220 00       		.byte	0
 8912 0221 00       		.byte	0
 8913 0222 25       		.uleb128 0x25
 8914 0223 898201   		.uleb128 0x4109
 8915 0226 01       		.byte	0x1
 8916 0227 11       		.uleb128 0x11
 8917 0228 01       		.uleb128 0x1
 8918 0229 9542     		.uleb128 0x2115
 8919 022b 19       		.uleb128 0x19
 8920 022c 31       		.uleb128 0x31
 8921 022d 13       		.uleb128 0x13
 8922 022e 00       		.byte	0
 8923 022f 00       		.byte	0
 8924 0230 26       		.uleb128 0x26
 8925 0231 8A8201   		.uleb128 0x410a
 8926 0234 00       		.byte	0
 8927 0235 02       		.uleb128 0x2
 8928 0236 18       		.uleb128 0x18
 8929 0237 9142     		.uleb128 0x2111
 8930 0239 18       		.uleb128 0x18
 8931 023a 00       		.byte	0
 8932 023b 00       		.byte	0
 8933 023c 27       		.uleb128 0x27
 8934 023d 1D       		.uleb128 0x1d
 8935 023e 01       		.byte	0x1
 8936 023f 31       		.uleb128 0x31
 8937 0240 13       		.uleb128 0x13
 8938 0241 52       		.uleb128 0x52
 8939 0242 01       		.uleb128 0x1
 8940 0243 B842     		.uleb128 0x2138
 8941 0245 0B       		.uleb128 0xb
 8942 0246 55       		.uleb128 0x55
 8943 0247 17       		.uleb128 0x17
 8944 0248 58       		.uleb128 0x58
 8945 0249 0B       		.uleb128 0xb
 8946 024a 59       		.uleb128 0x59
 8947 024b 05       		.uleb128 0x5
 8948 024c 57       		.uleb128 0x57
ARM GAS  /tmp/cc4ZUYx9.s 			page 158


 8949 024d 0B       		.uleb128 0xb
 8950 024e 00       		.byte	0
 8951 024f 00       		.byte	0
 8952 0250 28       		.uleb128 0x28
 8953 0251 0B       		.uleb128 0xb
 8954 0252 01       		.byte	0x1
 8955 0253 31       		.uleb128 0x31
 8956 0254 13       		.uleb128 0x13
 8957 0255 11       		.uleb128 0x11
 8958 0256 01       		.uleb128 0x1
 8959 0257 12       		.uleb128 0x12
 8960 0258 06       		.uleb128 0x6
 8961 0259 00       		.byte	0
 8962 025a 00       		.byte	0
 8963 025b 29       		.uleb128 0x29
 8964 025c 898201   		.uleb128 0x4109
 8965 025f 01       		.byte	0x1
 8966 0260 11       		.uleb128 0x11
 8967 0261 01       		.uleb128 0x1
 8968 0262 31       		.uleb128 0x31
 8969 0263 13       		.uleb128 0x13
 8970 0264 00       		.byte	0
 8971 0265 00       		.byte	0
 8972 0266 2A       		.uleb128 0x2a
 8973 0267 0B       		.uleb128 0xb
 8974 0268 01       		.byte	0x1
 8975 0269 55       		.uleb128 0x55
 8976 026a 17       		.uleb128 0x17
 8977 026b 00       		.byte	0
 8978 026c 00       		.byte	0
 8979 026d 2B       		.uleb128 0x2b
 8980 026e 2E       		.uleb128 0x2e
 8981 026f 01       		.byte	0x1
 8982 0270 3F       		.uleb128 0x3f
 8983 0271 19       		.uleb128 0x19
 8984 0272 03       		.uleb128 0x3
 8985 0273 0E       		.uleb128 0xe
 8986 0274 3A       		.uleb128 0x3a
 8987 0275 0B       		.uleb128 0xb
 8988 0276 3B       		.uleb128 0x3b
 8989 0277 05       		.uleb128 0x5
 8990 0278 39       		.uleb128 0x39
 8991 0279 0B       		.uleb128 0xb
 8992 027a 27       		.uleb128 0x27
 8993 027b 19       		.uleb128 0x19
 8994 027c 20       		.uleb128 0x20
 8995 027d 0B       		.uleb128 0xb
 8996 027e 01       		.uleb128 0x1
 8997 027f 13       		.uleb128 0x13
 8998 0280 00       		.byte	0
 8999 0281 00       		.byte	0
 9000 0282 2C       		.uleb128 0x2c
 9001 0283 05       		.uleb128 0x5
 9002 0284 00       		.byte	0
 9003 0285 03       		.uleb128 0x3
 9004 0286 08       		.uleb128 0x8
 9005 0287 3A       		.uleb128 0x3a
ARM GAS  /tmp/cc4ZUYx9.s 			page 159


 9006 0288 0B       		.uleb128 0xb
 9007 0289 3B       		.uleb128 0x3b
 9008 028a 05       		.uleb128 0x5
 9009 028b 39       		.uleb128 0x39
 9010 028c 0B       		.uleb128 0xb
 9011 028d 49       		.uleb128 0x49
 9012 028e 13       		.uleb128 0x13
 9013 028f 00       		.byte	0
 9014 0290 00       		.byte	0
 9015 0291 2D       		.uleb128 0x2d
 9016 0292 34       		.uleb128 0x34
 9017 0293 00       		.byte	0
 9018 0294 03       		.uleb128 0x3
 9019 0295 0E       		.uleb128 0xe
 9020 0296 49       		.uleb128 0x49
 9021 0297 13       		.uleb128 0x13
 9022 0298 34       		.uleb128 0x34
 9023 0299 19       		.uleb128 0x19
 9024 029a 00       		.byte	0
 9025 029b 00       		.byte	0
 9026 029c 2E       		.uleb128 0x2e
 9027 029d 0B       		.uleb128 0xb
 9028 029e 01       		.byte	0x1
 9029 029f 00       		.byte	0
 9030 02a0 00       		.byte	0
 9031 02a1 2F       		.uleb128 0x2f
 9032 02a2 34       		.uleb128 0x34
 9033 02a3 00       		.byte	0
 9034 02a4 03       		.uleb128 0x3
 9035 02a5 08       		.uleb128 0x8
 9036 02a6 3A       		.uleb128 0x3a
 9037 02a7 0B       		.uleb128 0xb
 9038 02a8 3B       		.uleb128 0x3b
 9039 02a9 05       		.uleb128 0x5
 9040 02aa 39       		.uleb128 0x39
 9041 02ab 0B       		.uleb128 0xb
 9042 02ac 49       		.uleb128 0x49
 9043 02ad 13       		.uleb128 0x13
 9044 02ae 00       		.byte	0
 9045 02af 00       		.byte	0
 9046 02b0 30       		.uleb128 0x30
 9047 02b1 0B       		.uleb128 0xb
 9048 02b2 01       		.byte	0x1
 9049 02b3 11       		.uleb128 0x11
 9050 02b4 01       		.uleb128 0x1
 9051 02b5 12       		.uleb128 0x12
 9052 02b6 06       		.uleb128 0x6
 9053 02b7 00       		.byte	0
 9054 02b8 00       		.byte	0
 9055 02b9 31       		.uleb128 0x31
 9056 02ba 34       		.uleb128 0x34
 9057 02bb 00       		.byte	0
 9058 02bc 03       		.uleb128 0x3
 9059 02bd 08       		.uleb128 0x8
 9060 02be 3A       		.uleb128 0x3a
 9061 02bf 0B       		.uleb128 0xb
 9062 02c0 3B       		.uleb128 0x3b
ARM GAS  /tmp/cc4ZUYx9.s 			page 160


 9063 02c1 05       		.uleb128 0x5
 9064 02c2 39       		.uleb128 0x39
 9065 02c3 0B       		.uleb128 0xb
 9066 02c4 49       		.uleb128 0x49
 9067 02c5 13       		.uleb128 0x13
 9068 02c6 02       		.uleb128 0x2
 9069 02c7 17       		.uleb128 0x17
 9070 02c8 B742     		.uleb128 0x2137
 9071 02ca 17       		.uleb128 0x17
 9072 02cb 00       		.byte	0
 9073 02cc 00       		.byte	0
 9074 02cd 32       		.uleb128 0x32
 9075 02ce 1D       		.uleb128 0x1d
 9076 02cf 00       		.byte	0
 9077 02d0 31       		.uleb128 0x31
 9078 02d1 13       		.uleb128 0x13
 9079 02d2 52       		.uleb128 0x52
 9080 02d3 01       		.uleb128 0x1
 9081 02d4 B842     		.uleb128 0x2138
 9082 02d6 0B       		.uleb128 0xb
 9083 02d7 11       		.uleb128 0x11
 9084 02d8 01       		.uleb128 0x1
 9085 02d9 12       		.uleb128 0x12
 9086 02da 06       		.uleb128 0x6
 9087 02db 58       		.uleb128 0x58
 9088 02dc 0B       		.uleb128 0xb
 9089 02dd 59       		.uleb128 0x59
 9090 02de 05       		.uleb128 0x5
 9091 02df 57       		.uleb128 0x57
 9092 02e0 0B       		.uleb128 0xb
 9093 02e1 00       		.byte	0
 9094 02e2 00       		.byte	0
 9095 02e3 33       		.uleb128 0x33
 9096 02e4 1D       		.uleb128 0x1d
 9097 02e5 00       		.byte	0
 9098 02e6 31       		.uleb128 0x31
 9099 02e7 13       		.uleb128 0x13
 9100 02e8 52       		.uleb128 0x52
 9101 02e9 01       		.uleb128 0x1
 9102 02ea B842     		.uleb128 0x2138
 9103 02ec 0B       		.uleb128 0xb
 9104 02ed 55       		.uleb128 0x55
 9105 02ee 17       		.uleb128 0x17
 9106 02ef 58       		.uleb128 0x58
 9107 02f0 0B       		.uleb128 0xb
 9108 02f1 59       		.uleb128 0x59
 9109 02f2 05       		.uleb128 0x5
 9110 02f3 57       		.uleb128 0x57
 9111 02f4 0B       		.uleb128 0xb
 9112 02f5 00       		.byte	0
 9113 02f6 00       		.byte	0
 9114 02f7 34       		.uleb128 0x34
 9115 02f8 34       		.uleb128 0x34
 9116 02f9 00       		.byte	0
 9117 02fa 03       		.uleb128 0x3
 9118 02fb 0E       		.uleb128 0xe
 9119 02fc 3A       		.uleb128 0x3a
ARM GAS  /tmp/cc4ZUYx9.s 			page 161


 9120 02fd 0B       		.uleb128 0xb
 9121 02fe 3B       		.uleb128 0x3b
 9122 02ff 05       		.uleb128 0x5
 9123 0300 39       		.uleb128 0x39
 9124 0301 0B       		.uleb128 0xb
 9125 0302 49       		.uleb128 0x49
 9126 0303 13       		.uleb128 0x13
 9127 0304 02       		.uleb128 0x2
 9128 0305 17       		.uleb128 0x17
 9129 0306 B742     		.uleb128 0x2137
 9130 0308 17       		.uleb128 0x17
 9131 0309 00       		.byte	0
 9132 030a 00       		.byte	0
 9133 030b 35       		.uleb128 0x35
 9134 030c 1D       		.uleb128 0x1d
 9135 030d 00       		.byte	0
 9136 030e 31       		.uleb128 0x31
 9137 030f 13       		.uleb128 0x13
 9138 0310 52       		.uleb128 0x52
 9139 0311 01       		.uleb128 0x1
 9140 0312 B842     		.uleb128 0x2138
 9141 0314 0B       		.uleb128 0xb
 9142 0315 55       		.uleb128 0x55
 9143 0316 17       		.uleb128 0x17
 9144 0317 58       		.uleb128 0x58
 9145 0318 0B       		.uleb128 0xb
 9146 0319 59       		.uleb128 0x59
 9147 031a 0B       		.uleb128 0xb
 9148 031b 57       		.uleb128 0x57
 9149 031c 0B       		.uleb128 0xb
 9150 031d 00       		.byte	0
 9151 031e 00       		.byte	0
 9152 031f 36       		.uleb128 0x36
 9153 0320 1D       		.uleb128 0x1d
 9154 0321 00       		.byte	0
 9155 0322 31       		.uleb128 0x31
 9156 0323 13       		.uleb128 0x13
 9157 0324 52       		.uleb128 0x52
 9158 0325 01       		.uleb128 0x1
 9159 0326 B842     		.uleb128 0x2138
 9160 0328 0B       		.uleb128 0xb
 9161 0329 11       		.uleb128 0x11
 9162 032a 01       		.uleb128 0x1
 9163 032b 12       		.uleb128 0x12
 9164 032c 06       		.uleb128 0x6
 9165 032d 58       		.uleb128 0x58
 9166 032e 0B       		.uleb128 0xb
 9167 032f 59       		.uleb128 0x59
 9168 0330 0B       		.uleb128 0xb
 9169 0331 57       		.uleb128 0x57
 9170 0332 0B       		.uleb128 0xb
 9171 0333 00       		.byte	0
 9172 0334 00       		.byte	0
 9173 0335 37       		.uleb128 0x37
 9174 0336 05       		.uleb128 0x5
 9175 0337 00       		.byte	0
 9176 0338 03       		.uleb128 0x3
ARM GAS  /tmp/cc4ZUYx9.s 			page 162


 9177 0339 08       		.uleb128 0x8
 9178 033a 3A       		.uleb128 0x3a
 9179 033b 0B       		.uleb128 0xb
 9180 033c 3B       		.uleb128 0x3b
 9181 033d 05       		.uleb128 0x5
 9182 033e 39       		.uleb128 0x39
 9183 033f 0B       		.uleb128 0xb
 9184 0340 49       		.uleb128 0x49
 9185 0341 13       		.uleb128 0x13
 9186 0342 02       		.uleb128 0x2
 9187 0343 18       		.uleb128 0x18
 9188 0344 00       		.byte	0
 9189 0345 00       		.byte	0
 9190 0346 38       		.uleb128 0x38
 9191 0347 1D       		.uleb128 0x1d
 9192 0348 01       		.byte	0x1
 9193 0349 31       		.uleb128 0x31
 9194 034a 13       		.uleb128 0x13
 9195 034b 52       		.uleb128 0x52
 9196 034c 01       		.uleb128 0x1
 9197 034d B842     		.uleb128 0x2138
 9198 034f 0B       		.uleb128 0xb
 9199 0350 55       		.uleb128 0x55
 9200 0351 17       		.uleb128 0x17
 9201 0352 58       		.uleb128 0x58
 9202 0353 0B       		.uleb128 0xb
 9203 0354 59       		.uleb128 0x59
 9204 0355 0B       		.uleb128 0xb
 9205 0356 57       		.uleb128 0x57
 9206 0357 0B       		.uleb128 0xb
 9207 0358 01       		.uleb128 0x1
 9208 0359 13       		.uleb128 0x13
 9209 035a 00       		.byte	0
 9210 035b 00       		.byte	0
 9211 035c 39       		.uleb128 0x39
 9212 035d 1D       		.uleb128 0x1d
 9213 035e 01       		.byte	0x1
 9214 035f 31       		.uleb128 0x31
 9215 0360 13       		.uleb128 0x13
 9216 0361 52       		.uleb128 0x52
 9217 0362 01       		.uleb128 0x1
 9218 0363 B842     		.uleb128 0x2138
 9219 0365 0B       		.uleb128 0xb
 9220 0366 11       		.uleb128 0x11
 9221 0367 01       		.uleb128 0x1
 9222 0368 12       		.uleb128 0x12
 9223 0369 06       		.uleb128 0x6
 9224 036a 58       		.uleb128 0x58
 9225 036b 0B       		.uleb128 0xb
 9226 036c 59       		.uleb128 0x59
 9227 036d 0B       		.uleb128 0xb
 9228 036e 57       		.uleb128 0x57
 9229 036f 0B       		.uleb128 0xb
 9230 0370 00       		.byte	0
 9231 0371 00       		.byte	0
 9232 0372 3A       		.uleb128 0x3a
 9233 0373 898201   		.uleb128 0x4109
ARM GAS  /tmp/cc4ZUYx9.s 			page 163


 9234 0376 01       		.byte	0x1
 9235 0377 11       		.uleb128 0x11
 9236 0378 01       		.uleb128 0x1
 9237 0379 31       		.uleb128 0x31
 9238 037a 13       		.uleb128 0x13
 9239 037b 01       		.uleb128 0x1
 9240 037c 13       		.uleb128 0x13
 9241 037d 00       		.byte	0
 9242 037e 00       		.byte	0
 9243 037f 3B       		.uleb128 0x3b
 9244 0380 1D       		.uleb128 0x1d
 9245 0381 01       		.byte	0x1
 9246 0382 31       		.uleb128 0x31
 9247 0383 13       		.uleb128 0x13
 9248 0384 52       		.uleb128 0x52
 9249 0385 01       		.uleb128 0x1
 9250 0386 B842     		.uleb128 0x2138
 9251 0388 0B       		.uleb128 0xb
 9252 0389 55       		.uleb128 0x55
 9253 038a 17       		.uleb128 0x17
 9254 038b 58       		.uleb128 0x58
 9255 038c 0B       		.uleb128 0xb
 9256 038d 59       		.uleb128 0x59
 9257 038e 0B       		.uleb128 0xb
 9258 038f 57       		.uleb128 0x57
 9259 0390 0B       		.uleb128 0xb
 9260 0391 00       		.byte	0
 9261 0392 00       		.byte	0
 9262 0393 3C       		.uleb128 0x3c
 9263 0394 1D       		.uleb128 0x1d
 9264 0395 01       		.byte	0x1
 9265 0396 31       		.uleb128 0x31
 9266 0397 13       		.uleb128 0x13
 9267 0398 52       		.uleb128 0x52
 9268 0399 01       		.uleb128 0x1
 9269 039a B842     		.uleb128 0x2138
 9270 039c 0B       		.uleb128 0xb
 9271 039d 11       		.uleb128 0x11
 9272 039e 01       		.uleb128 0x1
 9273 039f 12       		.uleb128 0x12
 9274 03a0 06       		.uleb128 0x6
 9275 03a1 58       		.uleb128 0x58
 9276 03a2 0B       		.uleb128 0xb
 9277 03a3 59       		.uleb128 0x59
 9278 03a4 0B       		.uleb128 0xb
 9279 03a5 57       		.uleb128 0x57
 9280 03a6 0B       		.uleb128 0xb
 9281 03a7 01       		.uleb128 0x1
 9282 03a8 13       		.uleb128 0x13
 9283 03a9 00       		.byte	0
 9284 03aa 00       		.byte	0
 9285 03ab 3D       		.uleb128 0x3d
 9286 03ac 1D       		.uleb128 0x1d
 9287 03ad 01       		.byte	0x1
 9288 03ae 31       		.uleb128 0x31
 9289 03af 13       		.uleb128 0x13
 9290 03b0 11       		.uleb128 0x11
ARM GAS  /tmp/cc4ZUYx9.s 			page 164


 9291 03b1 01       		.uleb128 0x1
 9292 03b2 12       		.uleb128 0x12
 9293 03b3 06       		.uleb128 0x6
 9294 03b4 58       		.uleb128 0x58
 9295 03b5 0B       		.uleb128 0xb
 9296 03b6 59       		.uleb128 0x59
 9297 03b7 0B       		.uleb128 0xb
 9298 03b8 57       		.uleb128 0x57
 9299 03b9 0B       		.uleb128 0xb
 9300 03ba 00       		.byte	0
 9301 03bb 00       		.byte	0
 9302 03bc 3E       		.uleb128 0x3e
 9303 03bd 05       		.uleb128 0x5
 9304 03be 00       		.byte	0
 9305 03bf 31       		.uleb128 0x31
 9306 03c0 13       		.uleb128 0x13
 9307 03c1 00       		.byte	0
 9308 03c2 00       		.byte	0
 9309 03c3 3F       		.uleb128 0x3f
 9310 03c4 2E       		.uleb128 0x2e
 9311 03c5 01       		.byte	0x1
 9312 03c6 3F       		.uleb128 0x3f
 9313 03c7 19       		.uleb128 0x19
 9314 03c8 03       		.uleb128 0x3
 9315 03c9 0E       		.uleb128 0xe
 9316 03ca 3A       		.uleb128 0x3a
 9317 03cb 0B       		.uleb128 0xb
 9318 03cc 3B       		.uleb128 0x3b
 9319 03cd 0B       		.uleb128 0xb
 9320 03ce 39       		.uleb128 0x39
 9321 03cf 0B       		.uleb128 0xb
 9322 03d0 27       		.uleb128 0x27
 9323 03d1 19       		.uleb128 0x19
 9324 03d2 49       		.uleb128 0x49
 9325 03d3 13       		.uleb128 0x13
 9326 03d4 11       		.uleb128 0x11
 9327 03d5 01       		.uleb128 0x1
 9328 03d6 12       		.uleb128 0x12
 9329 03d7 06       		.uleb128 0x6
 9330 03d8 40       		.uleb128 0x40
 9331 03d9 18       		.uleb128 0x18
 9332 03da 9742     		.uleb128 0x2117
 9333 03dc 19       		.uleb128 0x19
 9334 03dd 01       		.uleb128 0x1
 9335 03de 13       		.uleb128 0x13
 9336 03df 00       		.byte	0
 9337 03e0 00       		.byte	0
 9338 03e1 40       		.uleb128 0x40
 9339 03e2 05       		.uleb128 0x5
 9340 03e3 00       		.byte	0
 9341 03e4 03       		.uleb128 0x3
 9342 03e5 08       		.uleb128 0x8
 9343 03e6 3A       		.uleb128 0x3a
 9344 03e7 0B       		.uleb128 0xb
 9345 03e8 3B       		.uleb128 0x3b
 9346 03e9 0B       		.uleb128 0xb
 9347 03ea 39       		.uleb128 0x39
ARM GAS  /tmp/cc4ZUYx9.s 			page 165


 9348 03eb 0B       		.uleb128 0xb
 9349 03ec 49       		.uleb128 0x49
 9350 03ed 13       		.uleb128 0x13
 9351 03ee 02       		.uleb128 0x2
 9352 03ef 17       		.uleb128 0x17
 9353 03f0 B742     		.uleb128 0x2137
 9354 03f2 17       		.uleb128 0x17
 9355 03f3 00       		.byte	0
 9356 03f4 00       		.byte	0
 9357 03f5 41       		.uleb128 0x41
 9358 03f6 34       		.uleb128 0x34
 9359 03f7 00       		.byte	0
 9360 03f8 03       		.uleb128 0x3
 9361 03f9 08       		.uleb128 0x8
 9362 03fa 3A       		.uleb128 0x3a
 9363 03fb 0B       		.uleb128 0xb
 9364 03fc 3B       		.uleb128 0x3b
 9365 03fd 0B       		.uleb128 0xb
 9366 03fe 39       		.uleb128 0x39
 9367 03ff 0B       		.uleb128 0xb
 9368 0400 49       		.uleb128 0x49
 9369 0401 13       		.uleb128 0x13
 9370 0402 02       		.uleb128 0x2
 9371 0403 17       		.uleb128 0x17
 9372 0404 B742     		.uleb128 0x2137
 9373 0406 17       		.uleb128 0x17
 9374 0407 00       		.byte	0
 9375 0408 00       		.byte	0
 9376 0409 42       		.uleb128 0x42
 9377 040a 2E       		.uleb128 0x2e
 9378 040b 01       		.byte	0x1
 9379 040c 3F       		.uleb128 0x3f
 9380 040d 19       		.uleb128 0x19
 9381 040e 03       		.uleb128 0x3
 9382 040f 0E       		.uleb128 0xe
 9383 0410 3A       		.uleb128 0x3a
 9384 0411 0B       		.uleb128 0xb
 9385 0412 3B       		.uleb128 0x3b
 9386 0413 0B       		.uleb128 0xb
 9387 0414 39       		.uleb128 0x39
 9388 0415 0B       		.uleb128 0xb
 9389 0416 27       		.uleb128 0x27
 9390 0417 19       		.uleb128 0x19
 9391 0418 49       		.uleb128 0x49
 9392 0419 13       		.uleb128 0x13
 9393 041a 20       		.uleb128 0x20
 9394 041b 0B       		.uleb128 0xb
 9395 041c 01       		.uleb128 0x1
 9396 041d 13       		.uleb128 0x13
 9397 041e 00       		.byte	0
 9398 041f 00       		.byte	0
 9399 0420 43       		.uleb128 0x43
 9400 0421 05       		.uleb128 0x5
 9401 0422 00       		.byte	0
 9402 0423 03       		.uleb128 0x3
 9403 0424 08       		.uleb128 0x8
 9404 0425 3A       		.uleb128 0x3a
ARM GAS  /tmp/cc4ZUYx9.s 			page 166


 9405 0426 0B       		.uleb128 0xb
 9406 0427 3B       		.uleb128 0x3b
 9407 0428 0B       		.uleb128 0xb
 9408 0429 39       		.uleb128 0x39
 9409 042a 0B       		.uleb128 0xb
 9410 042b 49       		.uleb128 0x49
 9411 042c 13       		.uleb128 0x13
 9412 042d 00       		.byte	0
 9413 042e 00       		.byte	0
 9414 042f 44       		.uleb128 0x44
 9415 0430 34       		.uleb128 0x34
 9416 0431 00       		.byte	0
 9417 0432 03       		.uleb128 0x3
 9418 0433 08       		.uleb128 0x8
 9419 0434 3A       		.uleb128 0x3a
 9420 0435 0B       		.uleb128 0xb
 9421 0436 3B       		.uleb128 0x3b
 9422 0437 0B       		.uleb128 0xb
 9423 0438 39       		.uleb128 0x39
 9424 0439 0B       		.uleb128 0xb
 9425 043a 49       		.uleb128 0x49
 9426 043b 13       		.uleb128 0x13
 9427 043c 00       		.byte	0
 9428 043d 00       		.byte	0
 9429 043e 45       		.uleb128 0x45
 9430 043f 05       		.uleb128 0x5
 9431 0440 00       		.byte	0
 9432 0441 03       		.uleb128 0x3
 9433 0442 0E       		.uleb128 0xe
 9434 0443 3A       		.uleb128 0x3a
 9435 0444 0B       		.uleb128 0xb
 9436 0445 3B       		.uleb128 0x3b
 9437 0446 0B       		.uleb128 0xb
 9438 0447 39       		.uleb128 0x39
 9439 0448 0B       		.uleb128 0xb
 9440 0449 49       		.uleb128 0x49
 9441 044a 13       		.uleb128 0x13
 9442 044b 00       		.byte	0
 9443 044c 00       		.byte	0
 9444 044d 46       		.uleb128 0x46
 9445 044e 2E       		.uleb128 0x2e
 9446 044f 01       		.byte	0x1
 9447 0450 03       		.uleb128 0x3
 9448 0451 0E       		.uleb128 0xe
 9449 0452 3A       		.uleb128 0x3a
 9450 0453 0B       		.uleb128 0xb
 9451 0454 3B       		.uleb128 0x3b
 9452 0455 05       		.uleb128 0x5
 9453 0456 39       		.uleb128 0x39
 9454 0457 0B       		.uleb128 0xb
 9455 0458 27       		.uleb128 0x27
 9456 0459 19       		.uleb128 0x19
 9457 045a 20       		.uleb128 0x20
 9458 045b 0B       		.uleb128 0xb
 9459 045c 01       		.uleb128 0x1
 9460 045d 13       		.uleb128 0x13
 9461 045e 00       		.byte	0
ARM GAS  /tmp/cc4ZUYx9.s 			page 167


 9462 045f 00       		.byte	0
 9463 0460 47       		.uleb128 0x47
 9464 0461 05       		.uleb128 0x5
 9465 0462 00       		.byte	0
 9466 0463 03       		.uleb128 0x3
 9467 0464 0E       		.uleb128 0xe
 9468 0465 3A       		.uleb128 0x3a
 9469 0466 0B       		.uleb128 0xb
 9470 0467 3B       		.uleb128 0x3b
 9471 0468 05       		.uleb128 0x5
 9472 0469 39       		.uleb128 0x39
 9473 046a 0B       		.uleb128 0xb
 9474 046b 49       		.uleb128 0x49
 9475 046c 13       		.uleb128 0x13
 9476 046d 00       		.byte	0
 9477 046e 00       		.byte	0
 9478 046f 48       		.uleb128 0x48
 9479 0470 2E       		.uleb128 0x2e
 9480 0471 01       		.byte	0x1
 9481 0472 03       		.uleb128 0x3
 9482 0473 0E       		.uleb128 0xe
 9483 0474 3A       		.uleb128 0x3a
 9484 0475 0B       		.uleb128 0xb
 9485 0476 3B       		.uleb128 0x3b
 9486 0477 05       		.uleb128 0x5
 9487 0478 39       		.uleb128 0x39
 9488 0479 0B       		.uleb128 0xb
 9489 047a 27       		.uleb128 0x27
 9490 047b 19       		.uleb128 0x19
 9491 047c 49       		.uleb128 0x49
 9492 047d 13       		.uleb128 0x13
 9493 047e 20       		.uleb128 0x20
 9494 047f 0B       		.uleb128 0xb
 9495 0480 01       		.uleb128 0x1
 9496 0481 13       		.uleb128 0x13
 9497 0482 00       		.byte	0
 9498 0483 00       		.byte	0
 9499 0484 49       		.uleb128 0x49
 9500 0485 2E       		.uleb128 0x2e
 9501 0486 00       		.byte	0
 9502 0487 03       		.uleb128 0x3
 9503 0488 0E       		.uleb128 0xe
 9504 0489 3A       		.uleb128 0x3a
 9505 048a 0B       		.uleb128 0xb
 9506 048b 3B       		.uleb128 0x3b
 9507 048c 05       		.uleb128 0x5
 9508 048d 39       		.uleb128 0x39
 9509 048e 0B       		.uleb128 0xb
 9510 048f 27       		.uleb128 0x27
 9511 0490 19       		.uleb128 0x19
 9512 0491 49       		.uleb128 0x49
 9513 0492 13       		.uleb128 0x13
 9514 0493 20       		.uleb128 0x20
 9515 0494 0B       		.uleb128 0xb
 9516 0495 00       		.byte	0
 9517 0496 00       		.byte	0
 9518 0497 4A       		.uleb128 0x4a
ARM GAS  /tmp/cc4ZUYx9.s 			page 168


 9519 0498 2E       		.uleb128 0x2e
 9520 0499 00       		.byte	0
 9521 049a 03       		.uleb128 0x3
 9522 049b 0E       		.uleb128 0xe
 9523 049c 3A       		.uleb128 0x3a
 9524 049d 0B       		.uleb128 0xb
 9525 049e 3B       		.uleb128 0x3b
 9526 049f 05       		.uleb128 0x5
 9527 04a0 39       		.uleb128 0x39
 9528 04a1 0B       		.uleb128 0xb
 9529 04a2 27       		.uleb128 0x27
 9530 04a3 19       		.uleb128 0x19
 9531 04a4 20       		.uleb128 0x20
 9532 04a5 0B       		.uleb128 0xb
 9533 04a6 00       		.byte	0
 9534 04a7 00       		.byte	0
 9535 04a8 4B       		.uleb128 0x4b
 9536 04a9 2E       		.uleb128 0x2e
 9537 04aa 00       		.byte	0
 9538 04ab 03       		.uleb128 0x3
 9539 04ac 0E       		.uleb128 0xe
 9540 04ad 3A       		.uleb128 0x3a
 9541 04ae 0B       		.uleb128 0xb
 9542 04af 3B       		.uleb128 0x3b
 9543 04b0 0B       		.uleb128 0xb
 9544 04b1 39       		.uleb128 0x39
 9545 04b2 0B       		.uleb128 0xb
 9546 04b3 27       		.uleb128 0x27
 9547 04b4 19       		.uleb128 0x19
 9548 04b5 49       		.uleb128 0x49
 9549 04b6 13       		.uleb128 0x13
 9550 04b7 20       		.uleb128 0x20
 9551 04b8 0B       		.uleb128 0xb
 9552 04b9 00       		.byte	0
 9553 04ba 00       		.byte	0
 9554 04bb 4C       		.uleb128 0x4c
 9555 04bc 2E       		.uleb128 0x2e
 9556 04bd 01       		.byte	0x1
 9557 04be 31       		.uleb128 0x31
 9558 04bf 13       		.uleb128 0x13
 9559 04c0 11       		.uleb128 0x11
 9560 04c1 01       		.uleb128 0x1
 9561 04c2 12       		.uleb128 0x12
 9562 04c3 06       		.uleb128 0x6
 9563 04c4 40       		.uleb128 0x40
 9564 04c5 18       		.uleb128 0x18
 9565 04c6 9742     		.uleb128 0x2117
 9566 04c8 19       		.uleb128 0x19
 9567 04c9 01       		.uleb128 0x1
 9568 04ca 13       		.uleb128 0x13
 9569 04cb 00       		.byte	0
 9570 04cc 00       		.byte	0
 9571 04cd 4D       		.uleb128 0x4d
 9572 04ce 05       		.uleb128 0x5
 9573 04cf 00       		.byte	0
 9574 04d0 31       		.uleb128 0x31
 9575 04d1 13       		.uleb128 0x13
ARM GAS  /tmp/cc4ZUYx9.s 			page 169


 9576 04d2 02       		.uleb128 0x2
 9577 04d3 18       		.uleb128 0x18
 9578 04d4 00       		.byte	0
 9579 04d5 00       		.byte	0
 9580 04d6 4E       		.uleb128 0x4e
 9581 04d7 1D       		.uleb128 0x1d
 9582 04d8 01       		.byte	0x1
 9583 04d9 31       		.uleb128 0x31
 9584 04da 13       		.uleb128 0x13
 9585 04db 55       		.uleb128 0x55
 9586 04dc 17       		.uleb128 0x17
 9587 04dd 58       		.uleb128 0x58
 9588 04de 0B       		.uleb128 0xb
 9589 04df 59       		.uleb128 0x59
 9590 04e0 0B       		.uleb128 0xb
 9591 04e1 57       		.uleb128 0x57
 9592 04e2 0B       		.uleb128 0xb
 9593 04e3 01       		.uleb128 0x1
 9594 04e4 13       		.uleb128 0x13
 9595 04e5 00       		.byte	0
 9596 04e6 00       		.byte	0
 9597 04e7 4F       		.uleb128 0x4f
 9598 04e8 2E       		.uleb128 0x2e
 9599 04e9 00       		.byte	0
 9600 04ea 3F       		.uleb128 0x3f
 9601 04eb 19       		.uleb128 0x19
 9602 04ec 3C       		.uleb128 0x3c
 9603 04ed 19       		.uleb128 0x19
 9604 04ee 6E       		.uleb128 0x6e
 9605 04ef 0E       		.uleb128 0xe
 9606 04f0 03       		.uleb128 0x3
 9607 04f1 0E       		.uleb128 0xe
 9608 04f2 3A       		.uleb128 0x3a
 9609 04f3 0B       		.uleb128 0xb
 9610 04f4 3B       		.uleb128 0x3b
 9611 04f5 05       		.uleb128 0x5
 9612 04f6 39       		.uleb128 0x39
 9613 04f7 0B       		.uleb128 0xb
 9614 04f8 00       		.byte	0
 9615 04f9 00       		.byte	0
 9616 04fa 50       		.uleb128 0x50
 9617 04fb 2E       		.uleb128 0x2e
 9618 04fc 00       		.byte	0
 9619 04fd 3F       		.uleb128 0x3f
 9620 04fe 19       		.uleb128 0x19
 9621 04ff 3C       		.uleb128 0x3c
 9622 0500 19       		.uleb128 0x19
 9623 0501 6E       		.uleb128 0x6e
 9624 0502 0E       		.uleb128 0xe
 9625 0503 03       		.uleb128 0x3
 9626 0504 0E       		.uleb128 0xe
 9627 0505 3A       		.uleb128 0x3a
 9628 0506 0B       		.uleb128 0xb
 9629 0507 3B       		.uleb128 0x3b
 9630 0508 0B       		.uleb128 0xb
 9631 0509 39       		.uleb128 0x39
 9632 050a 0B       		.uleb128 0xb
ARM GAS  /tmp/cc4ZUYx9.s 			page 170


 9633 050b 00       		.byte	0
 9634 050c 00       		.byte	0
 9635 050d 00       		.byte	0
 9636              		.section	.debug_loc,"",%progbits
 9637              	.Ldebug_loc0:
 9638              	.LVUS129:
 9639 0000 00       		.uleb128 0
 9640 0001 00       		.uleb128 .LVU1208
 9641 0002 00       		.uleb128 .LVU1208
 9642 0003 00       		.uleb128 0
 9643              	.LLST129:
 9644 0004 00000000 		.4byte	.LVL182
 9645 0008 06000000 		.4byte	.LVL184
 9646 000c 0100     		.2byte	0x1
 9647 000e 50       		.byte	0x50
 9648 000f 06000000 		.4byte	.LVL184
 9649 0013 20000000 		.4byte	.LFE271
 9650 0017 0100     		.2byte	0x1
 9651 0019 54       		.byte	0x54
 9652 001a 00000000 		.4byte	0
 9653 001e 00000000 		.4byte	0
 9654              	.LVUS130:
 9655 0022 00       		.uleb128 0
 9656 0023 00       		.uleb128 .LVU1210
 9657 0024 00       		.uleb128 .LVU1210
 9658 0025 00       		.uleb128 .LVU1240
 9659 0026 00       		.uleb128 .LVU1240
 9660 0027 00       		.uleb128 0
 9661              	.LLST130:
 9662 0028 00000000 		.4byte	.LVL182
 9663 002c 0C000000 		.4byte	.LVL185
 9664 0030 0100     		.2byte	0x1
 9665 0032 51       		.byte	0x51
 9666 0033 0C000000 		.4byte	.LVL185
 9667 0037 1E000000 		.4byte	.LVL189
 9668 003b 0100     		.2byte	0x1
 9669 003d 55       		.byte	0x55
 9670 003e 1E000000 		.4byte	.LVL189
 9671 0042 20000000 		.4byte	.LFE271
 9672 0046 0400     		.2byte	0x4
 9673 0048 F3       		.byte	0xf3
 9674 0049 01       		.uleb128 0x1
 9675 004a 51       		.byte	0x51
 9676 004b 9F       		.byte	0x9f
 9677 004c 00000000 		.4byte	0
 9678 0050 00000000 		.4byte	0
 9679              	.LVUS131:
 9680 0054 00       		.uleb128 .LVU1205
 9681 0055 00       		.uleb128 .LVU1208
 9682 0056 02       		.uleb128 .LVU1235
 9683 0057 00       		.uleb128 .LVU1238
 9684              	.LLST131:
 9685 0058 04000000 		.4byte	.LVL183
 9686 005c 06000000 		.4byte	.LVL184
 9687 0060 0100     		.2byte	0x1
 9688 0062 50       		.byte	0x50
 9689 0063 18000000 		.4byte	.LVL187
ARM GAS  /tmp/cc4ZUYx9.s 			page 171


 9690 0067 1A000000 		.4byte	.LVL188
 9691 006b 0100     		.2byte	0x1
 9692 006d 54       		.byte	0x54
 9693 006e 00000000 		.4byte	0
 9694 0072 00000000 		.4byte	0
 9695              	.LVUS132:
 9696 0076 01       		.uleb128 .LVU1211
 9697 0077 00       		.uleb128 .LVU1233
 9698              	.LLST132:
 9699 0078 0C000000 		.4byte	.LVL185
 9700 007c 18000000 		.4byte	.LVL187
 9701 0080 0100     		.2byte	0x1
 9702 0082 55       		.byte	0x55
 9703 0083 00000000 		.4byte	0
 9704 0087 00000000 		.4byte	0
 9705              	.LVUS133:
 9706 008b 01       		.uleb128 .LVU1211
 9707 008c 00       		.uleb128 .LVU1233
 9708              	.LLST133:
 9709 008d 0C000000 		.4byte	.LVL185
 9710 0091 18000000 		.4byte	.LVL187
 9711 0095 0100     		.2byte	0x1
 9712 0097 54       		.byte	0x54
 9713 0098 00000000 		.4byte	0
 9714 009c 00000000 		.4byte	0
 9715              	.LVUS134:
 9716 00a0 01       		.uleb128 .LVU1225
 9717 00a1 00       		.uleb128 .LVU1233
 9718              	.LLST134:
 9719 00a2 12000000 		.4byte	.LVL186
 9720 00a6 17000000 		.4byte	.LVL187-1
 9721 00aa 0100     		.2byte	0x1
 9722 00ac 50       		.byte	0x50
 9723 00ad 00000000 		.4byte	0
 9724 00b1 00000000 		.4byte	0
 9725              	.LVUS135:
 9726 00b5 07       		.uleb128 .LVU1217
 9727 00b6 01       		.uleb128 .LVU1225
 9728              	.LLST135:
 9729 00b7 0C000000 		.4byte	.LVL185
 9730 00bb 12000000 		.4byte	.LVL186
 9731 00bf 0100     		.2byte	0x1
 9732 00c1 54       		.byte	0x54
 9733 00c2 00000000 		.4byte	0
 9734 00c6 00000000 		.4byte	0
 9735              	.LVUS136:
 9736 00ca 09       		.uleb128 .LVU1219
 9737 00cb 01       		.uleb128 .LVU1225
 9738              	.LLST136:
 9739 00cc 0C000000 		.4byte	.LVL185
 9740 00d0 12000000 		.4byte	.LVL186
 9741 00d4 0100     		.2byte	0x1
 9742 00d6 50       		.byte	0x50
 9743 00d7 00000000 		.4byte	0
 9744 00db 00000000 		.4byte	0
 9745              	.LVUS121:
 9746 00df 00       		.uleb128 0
ARM GAS  /tmp/cc4ZUYx9.s 			page 172


 9747 00e0 00       		.uleb128 .LVU1173
 9748 00e1 00       		.uleb128 .LVU1173
 9749 00e2 00       		.uleb128 .LVU1198
 9750 00e3 00       		.uleb128 .LVU1198
 9751 00e4 00       		.uleb128 .LVU1198
 9752 00e5 00       		.uleb128 .LVU1198
 9753 00e6 00       		.uleb128 0
 9754              	.LLST121:
 9755 00e7 00000000 		.4byte	.LVL176
 9756 00eb 04000000 		.4byte	.LVL178
 9757 00ef 0100     		.2byte	0x1
 9758 00f1 50       		.byte	0x50
 9759 00f2 04000000 		.4byte	.LVL178
 9760 00f6 13000000 		.4byte	.LVL181-1
 9761 00fa 0100     		.2byte	0x1
 9762 00fc 53       		.byte	0x53
 9763 00fd 13000000 		.4byte	.LVL181-1
 9764 0101 14000000 		.4byte	.LVL181
 9765 0105 0400     		.2byte	0x4
 9766 0107 F3       		.byte	0xf3
 9767 0108 01       		.uleb128 0x1
 9768 0109 50       		.byte	0x50
 9769 010a 9F       		.byte	0x9f
 9770 010b 14000000 		.4byte	.LVL181
 9771 010f 16000000 		.4byte	.LFE270
 9772 0113 0100     		.2byte	0x1
 9773 0115 53       		.byte	0x53
 9774 0116 00000000 		.4byte	0
 9775 011a 00000000 		.4byte	0
 9776              	.LVUS122:
 9777 011e 00       		.uleb128 0
 9778 011f 00       		.uleb128 .LVU1198
 9779 0120 00       		.uleb128 .LVU1198
 9780 0121 00       		.uleb128 .LVU1198
 9781 0122 00       		.uleb128 .LVU1198
 9782 0123 00       		.uleb128 0
 9783              	.LLST122:
 9784 0124 00000000 		.4byte	.LVL176
 9785 0128 13000000 		.4byte	.LVL181-1
 9786 012c 0100     		.2byte	0x1
 9787 012e 51       		.byte	0x51
 9788 012f 13000000 		.4byte	.LVL181-1
 9789 0133 14000000 		.4byte	.LVL181
 9790 0137 0400     		.2byte	0x4
 9791 0139 F3       		.byte	0xf3
 9792 013a 01       		.uleb128 0x1
 9793 013b 51       		.byte	0x51
 9794 013c 9F       		.byte	0x9f
 9795 013d 14000000 		.4byte	.LVL181
 9796 0141 16000000 		.4byte	.LFE270
 9797 0145 0100     		.2byte	0x1
 9798 0147 51       		.byte	0x51
 9799 0148 00000000 		.4byte	0
 9800 014c 00000000 		.4byte	0
 9801              	.LVUS123:
 9802 0150 00       		.uleb128 .LVU1170
 9803 0151 00       		.uleb128 .LVU1173
ARM GAS  /tmp/cc4ZUYx9.s 			page 173


 9804              	.LLST123:
 9805 0152 02000000 		.4byte	.LVL177
 9806 0156 04000000 		.4byte	.LVL178
 9807 015a 0100     		.2byte	0x1
 9808 015c 50       		.byte	0x50
 9809 015d 00000000 		.4byte	0
 9810 0161 00000000 		.4byte	0
 9811              	.LVUS124:
 9812 0165 01       		.uleb128 .LVU1176
 9813 0166 00       		.uleb128 .LVU1198
 9814 0167 00       		.uleb128 .LVU1198
 9815 0168 00       		.uleb128 .LVU1198
 9816              	.LLST124:
 9817 0169 08000000 		.4byte	.LVL179
 9818 016d 13000000 		.4byte	.LVL181-1
 9819 0171 0100     		.2byte	0x1
 9820 0173 51       		.byte	0x51
 9821 0174 13000000 		.4byte	.LVL181-1
 9822 0178 14000000 		.4byte	.LVL181
 9823 017c 0400     		.2byte	0x4
 9824 017e F3       		.byte	0xf3
 9825 017f 01       		.uleb128 0x1
 9826 0180 51       		.byte	0x51
 9827 0181 9F       		.byte	0x9f
 9828 0182 00000000 		.4byte	0
 9829 0186 00000000 		.4byte	0
 9830              	.LVUS125:
 9831 018a 01       		.uleb128 .LVU1176
 9832 018b 00       		.uleb128 .LVU1198
 9833 018c 00       		.uleb128 .LVU1198
 9834 018d 00       		.uleb128 .LVU1198
 9835              	.LLST125:
 9836 018e 08000000 		.4byte	.LVL179
 9837 0192 13000000 		.4byte	.LVL181-1
 9838 0196 0100     		.2byte	0x1
 9839 0198 53       		.byte	0x53
 9840 0199 13000000 		.4byte	.LVL181-1
 9841 019d 14000000 		.4byte	.LVL181
 9842 01a1 0400     		.2byte	0x4
 9843 01a3 F3       		.byte	0xf3
 9844 01a4 01       		.uleb128 0x1
 9845 01a5 50       		.byte	0x50
 9846 01a6 9F       		.byte	0x9f
 9847 01a7 00000000 		.4byte	0
 9848 01ab 00000000 		.4byte	0
 9849              	.LVUS126:
 9850 01af 01       		.uleb128 .LVU1190
 9851 01b0 00       		.uleb128 .LVU1198
 9852              	.LLST126:
 9853 01b1 0E000000 		.4byte	.LVL180
 9854 01b5 13000000 		.4byte	.LVL181-1
 9855 01b9 0100     		.2byte	0x1
 9856 01bb 50       		.byte	0x50
 9857 01bc 00000000 		.4byte	0
 9858 01c0 00000000 		.4byte	0
 9859              	.LVUS127:
 9860 01c4 07       		.uleb128 .LVU1182
ARM GAS  /tmp/cc4ZUYx9.s 			page 174


 9861 01c5 01       		.uleb128 .LVU1190
 9862              	.LLST127:
 9863 01c6 08000000 		.4byte	.LVL179
 9864 01ca 0E000000 		.4byte	.LVL180
 9865 01ce 0100     		.2byte	0x1
 9866 01d0 53       		.byte	0x53
 9867 01d1 00000000 		.4byte	0
 9868 01d5 00000000 		.4byte	0
 9869              	.LVUS128:
 9870 01d9 09       		.uleb128 .LVU1184
 9871 01da 01       		.uleb128 .LVU1190
 9872              	.LLST128:
 9873 01db 08000000 		.4byte	.LVL179
 9874 01df 0E000000 		.4byte	.LVL180
 9875 01e3 0100     		.2byte	0x1
 9876 01e5 50       		.byte	0x50
 9877 01e6 00000000 		.4byte	0
 9878 01ea 00000000 		.4byte	0
 9879              	.LVUS117:
 9880 01ee 00       		.uleb128 0
 9881 01ef 00       		.uleb128 .LVU1158
 9882 01f0 00       		.uleb128 .LVU1158
 9883 01f1 00       		.uleb128 .LVU1165
 9884 01f2 00       		.uleb128 .LVU1165
 9885 01f3 00       		.uleb128 .LVU1165
 9886 01f4 00       		.uleb128 .LVU1165
 9887 01f5 00       		.uleb128 .LVU1166
 9888 01f6 00       		.uleb128 .LVU1166
 9889 01f7 00       		.uleb128 0
 9890              	.LLST117:
 9891 01f8 00000000 		.4byte	.LVL170
 9892 01fc 12000000 		.4byte	.LVL172
 9893 0200 0100     		.2byte	0x1
 9894 0202 50       		.byte	0x50
 9895 0203 12000000 		.4byte	.LVL172
 9896 0207 1B000000 		.4byte	.LVL174-1
 9897 020b 0100     		.2byte	0x1
 9898 020d 53       		.byte	0x53
 9899 020e 1B000000 		.4byte	.LVL174-1
 9900 0212 1C000000 		.4byte	.LVL174
 9901 0216 0400     		.2byte	0x4
 9902 0218 F3       		.byte	0xf3
 9903 0219 01       		.uleb128 0x1
 9904 021a 50       		.byte	0x50
 9905 021b 9F       		.byte	0x9f
 9906 021c 1C000000 		.4byte	.LVL174
 9907 0220 20000000 		.4byte	.LVL175
 9908 0224 0100     		.2byte	0x1
 9909 0226 50       		.byte	0x50
 9910 0227 20000000 		.4byte	.LVL175
 9911 022b 28000000 		.4byte	.LFE269
 9912 022f 0400     		.2byte	0x4
 9913 0231 F3       		.byte	0xf3
 9914 0232 01       		.uleb128 0x1
 9915 0233 50       		.byte	0x50
 9916 0234 9F       		.byte	0x9f
 9917 0235 00000000 		.4byte	0
ARM GAS  /tmp/cc4ZUYx9.s 			page 175


 9918 0239 00000000 		.4byte	0
 9919              	.LVUS118:
 9920 023d 00       		.uleb128 0
 9921 023e 00       		.uleb128 .LVU1165
 9922 023f 00       		.uleb128 .LVU1165
 9923 0240 00       		.uleb128 .LVU1165
 9924 0241 00       		.uleb128 .LVU1165
 9925 0242 00       		.uleb128 0
 9926              	.LLST118:
 9927 0243 00000000 		.4byte	.LVL170
 9928 0247 1B000000 		.4byte	.LVL174-1
 9929 024b 0100     		.2byte	0x1
 9930 024d 51       		.byte	0x51
 9931 024e 1B000000 		.4byte	.LVL174-1
 9932 0252 1C000000 		.4byte	.LVL174
 9933 0256 0400     		.2byte	0x4
 9934 0258 F3       		.byte	0xf3
 9935 0259 01       		.uleb128 0x1
 9936 025a 51       		.byte	0x51
 9937 025b 9F       		.byte	0x9f
 9938 025c 1C000000 		.4byte	.LVL174
 9939 0260 28000000 		.4byte	.LFE269
 9940 0264 0100     		.2byte	0x1
 9941 0266 51       		.byte	0x51
 9942 0267 00000000 		.4byte	0
 9943 026b 00000000 		.4byte	0
 9944              	.LVUS119:
 9945 026f 01       		.uleb128 .LVU1153
 9946 0270 00       		.uleb128 .LVU1158
 9947 0271 00       		.uleb128 .LVU1158
 9948 0272 00       		.uleb128 .LVU1162
 9949              	.LLST119:
 9950 0273 0C000000 		.4byte	.LVL171
 9951 0277 12000000 		.4byte	.LVL172
 9952 027b 0100     		.2byte	0x1
 9953 027d 50       		.byte	0x50
 9954 027e 12000000 		.4byte	.LVL172
 9955 0282 18000000 		.4byte	.LVL173
 9956 0286 0100     		.2byte	0x1
 9957 0288 53       		.byte	0x53
 9958 0289 00000000 		.4byte	0
 9959 028d 00000000 		.4byte	0
 9960              	.LVUS120:
 9961 0291 01       		.uleb128 .LVU1153
 9962 0292 00       		.uleb128 .LVU1162
 9963              	.LLST120:
 9964 0293 0C000000 		.4byte	.LVL171
 9965 0297 18000000 		.4byte	.LVL173
 9966 029b 0100     		.2byte	0x1
 9967 029d 52       		.byte	0x52
 9968 029e 00000000 		.4byte	0
 9969 02a2 00000000 		.4byte	0
 9970              	.LVUS110:
 9971 02a6 00       		.uleb128 0
 9972 02a7 00       		.uleb128 .LVU1122
 9973 02a8 00       		.uleb128 .LVU1122
 9974 02a9 00       		.uleb128 .LVU1130
ARM GAS  /tmp/cc4ZUYx9.s 			page 176


 9975 02aa 00       		.uleb128 .LVU1130
 9976 02ab 00       		.uleb128 0
 9977              	.LLST110:
 9978 02ac 00000000 		.4byte	.LVL163
 9979 02b0 0C000000 		.4byte	.LVL166
 9980 02b4 0100     		.2byte	0x1
 9981 02b6 50       		.byte	0x50
 9982 02b7 0C000000 		.4byte	.LVL166
 9983 02bb 15000000 		.4byte	.LVL168-1
 9984 02bf 0100     		.2byte	0x1
 9985 02c1 53       		.byte	0x53
 9986 02c2 15000000 		.4byte	.LVL168-1
 9987 02c6 1E000000 		.4byte	.LFE268
 9988 02ca 0400     		.2byte	0x4
 9989 02cc F3       		.byte	0xf3
 9990 02cd 01       		.uleb128 0x1
 9991 02ce 50       		.byte	0x50
 9992 02cf 9F       		.byte	0x9f
 9993 02d0 00000000 		.4byte	0
 9994 02d4 00000000 		.4byte	0
 9995              	.LVUS111:
 9996 02d8 00       		.uleb128 0
 9997 02d9 00       		.uleb128 .LVU1130
 9998 02da 00       		.uleb128 .LVU1130
 9999 02db 00       		.uleb128 0
 10000              	.LLST111:
 10001 02dc 00000000 		.4byte	.LVL163
 10002 02e0 15000000 		.4byte	.LVL168-1
 10003 02e4 0100     		.2byte	0x1
 10004 02e6 51       		.byte	0x51
 10005 02e7 15000000 		.4byte	.LVL168-1
 10006 02eb 1E000000 		.4byte	.LFE268
 10007 02ef 0400     		.2byte	0x4
 10008 02f1 F3       		.byte	0xf3
 10009 02f2 01       		.uleb128 0x1
 10010 02f3 51       		.byte	0x51
 10011 02f4 9F       		.byte	0x9f
 10012 02f5 00000000 		.4byte	0
 10013 02f9 00000000 		.4byte	0
 10014              	.LVUS112:
 10015 02fd 05       		.uleb128 .LVU1113
 10016 02fe 00       		.uleb128 .LVU1115
 10017              	.LLST112:
 10018 02ff 06000000 		.4byte	.LVL164
 10019 0303 0A000000 		.4byte	.LVL165
 10020 0307 0300     		.2byte	0x3
 10021 0309 08       		.byte	0x8
 10022 030a 20       		.byte	0x20
 10023 030b 9F       		.byte	0x9f
 10024 030c 00000000 		.4byte	0
 10025 0310 00000000 		.4byte	0
 10026              	.LVUS113:
 10027 0314 04       		.uleb128 .LVU1119
 10028 0315 00       		.uleb128 .LVU1130
 10029 0316 00       		.uleb128 .LVU1130
 10030 0317 00       		.uleb128 .LVU1130
 10031              	.LLST113:
ARM GAS  /tmp/cc4ZUYx9.s 			page 177


 10032 0318 0A000000 		.4byte	.LVL165
 10033 031c 15000000 		.4byte	.LVL168-1
 10034 0320 0100     		.2byte	0x1
 10035 0322 51       		.byte	0x51
 10036 0323 15000000 		.4byte	.LVL168-1
 10037 0327 16000000 		.4byte	.LVL168
 10038 032b 0400     		.2byte	0x4
 10039 032d F3       		.byte	0xf3
 10040 032e 01       		.uleb128 0x1
 10041 032f 51       		.byte	0x51
 10042 0330 9F       		.byte	0x9f
 10043 0331 00000000 		.4byte	0
 10044 0335 00000000 		.4byte	0
 10045              	.LVUS114:
 10046 0339 04       		.uleb128 .LVU1119
 10047 033a 00       		.uleb128 .LVU1122
 10048 033b 00       		.uleb128 .LVU1122
 10049 033c 00       		.uleb128 .LVU1130
 10050 033d 00       		.uleb128 .LVU1130
 10051 033e 00       		.uleb128 .LVU1130
 10052              	.LLST114:
 10053 033f 0A000000 		.4byte	.LVL165
 10054 0343 0C000000 		.4byte	.LVL166
 10055 0347 0100     		.2byte	0x1
 10056 0349 50       		.byte	0x50
 10057 034a 0C000000 		.4byte	.LVL166
 10058 034e 15000000 		.4byte	.LVL168-1
 10059 0352 0100     		.2byte	0x1
 10060 0354 53       		.byte	0x53
 10061 0355 15000000 		.4byte	.LVL168-1
 10062 0359 16000000 		.4byte	.LVL168
 10063 035d 0400     		.2byte	0x4
 10064 035f F3       		.byte	0xf3
 10065 0360 01       		.uleb128 0x1
 10066 0361 50       		.byte	0x50
 10067 0362 9F       		.byte	0x9f
 10068 0363 00000000 		.4byte	0
 10069 0367 00000000 		.4byte	0
 10070              	.LVUS115:
 10071 036b 01       		.uleb128 .LVU1124
 10072 036c 00       		.uleb128 .LVU1130
 10073              	.LLST115:
 10074 036d 0E000000 		.4byte	.LVL167
 10075 0371 15000000 		.4byte	.LVL168-1
 10076 0375 0100     		.2byte	0x1
 10077 0377 50       		.byte	0x50
 10078 0378 00000000 		.4byte	0
 10079 037c 00000000 		.4byte	0
 10080              	.LVUS116:
 10081 0380 0B       		.uleb128 .LVU1141
 10082 0381 00       		.uleb128 .LVU1143
 10083              	.LLST116:
 10084 0382 16000000 		.4byte	.LVL168
 10085 0386 1C000000 		.4byte	.LVL169
 10086 038a 0200     		.2byte	0x2
 10087 038c 30       		.byte	0x30
 10088 038d 9F       		.byte	0x9f
ARM GAS  /tmp/cc4ZUYx9.s 			page 178


 10089 038e 00000000 		.4byte	0
 10090 0392 00000000 		.4byte	0
 10091              	.LVUS104:
 10092 0396 00       		.uleb128 0
 10093 0397 00       		.uleb128 .LVU1077
 10094 0398 00       		.uleb128 .LVU1077
 10095 0399 00       		.uleb128 .LVU1088
 10096 039a 00       		.uleb128 .LVU1088
 10097 039b 00       		.uleb128 .LVU1088
 10098 039c 00       		.uleb128 .LVU1088
 10099 039d 00       		.uleb128 0
 10100              	.LLST104:
 10101 039e 00000000 		.4byte	.LVL155
 10102 03a2 04000000 		.4byte	.LVL156
 10103 03a6 0100     		.2byte	0x1
 10104 03a8 50       		.byte	0x50
 10105 03a9 04000000 		.4byte	.LVL156
 10106 03ad 0F000000 		.4byte	.LVL158-1
 10107 03b1 0100     		.2byte	0x1
 10108 03b3 53       		.byte	0x53
 10109 03b4 0F000000 		.4byte	.LVL158-1
 10110 03b8 10000000 		.4byte	.LVL158
 10111 03bc 0400     		.2byte	0x4
 10112 03be F3       		.byte	0xf3
 10113 03bf 01       		.uleb128 0x1
 10114 03c0 50       		.byte	0x50
 10115 03c1 9F       		.byte	0x9f
 10116 03c2 10000000 		.4byte	.LVL158
 10117 03c6 12000000 		.4byte	.LFE266
 10118 03ca 0100     		.2byte	0x1
 10119 03cc 53       		.byte	0x53
 10120 03cd 00000000 		.4byte	0
 10121 03d1 00000000 		.4byte	0
 10122              	.LVUS105:
 10123 03d5 00       		.uleb128 0
 10124 03d6 00       		.uleb128 .LVU1088
 10125 03d7 00       		.uleb128 .LVU1088
 10126 03d8 00       		.uleb128 .LVU1088
 10127 03d9 00       		.uleb128 .LVU1088
 10128 03da 00       		.uleb128 0
 10129              	.LLST105:
 10130 03db 00000000 		.4byte	.LVL155
 10131 03df 0F000000 		.4byte	.LVL158-1
 10132 03e3 0100     		.2byte	0x1
 10133 03e5 51       		.byte	0x51
 10134 03e6 0F000000 		.4byte	.LVL158-1
 10135 03ea 10000000 		.4byte	.LVL158
 10136 03ee 0400     		.2byte	0x4
 10137 03f0 F3       		.byte	0xf3
 10138 03f1 01       		.uleb128 0x1
 10139 03f2 51       		.byte	0x51
 10140 03f3 9F       		.byte	0x9f
 10141 03f4 10000000 		.4byte	.LVL158
 10142 03f8 12000000 		.4byte	.LFE266
 10143 03fc 0100     		.2byte	0x1
 10144 03fe 51       		.byte	0x51
 10145 03ff 00000000 		.4byte	0
ARM GAS  /tmp/cc4ZUYx9.s 			page 179


 10146 0403 00000000 		.4byte	0
 10147              	.LVUS106:
 10148 0407 01       		.uleb128 .LVU1079
 10149 0408 00       		.uleb128 .LVU1088
 10150              	.LLST106:
 10151 0409 06000000 		.4byte	.LVL157
 10152 040d 0F000000 		.4byte	.LVL158-1
 10153 0411 0100     		.2byte	0x1
 10154 0413 50       		.byte	0x50
 10155 0414 00000000 		.4byte	0
 10156 0418 00000000 		.4byte	0
 10157              	.LVUS101:
 10158 041c 00       		.uleb128 0
 10159 041d 00       		.uleb128 .LVU1068
 10160 041e 00       		.uleb128 .LVU1068
 10161 041f 00       		.uleb128 .LVU1071
 10162 0420 00       		.uleb128 .LVU1071
 10163 0421 00       		.uleb128 .LVU1071
 10164 0422 00       		.uleb128 .LVU1071
 10165 0423 00       		.uleb128 .LVU1072
 10166 0424 00       		.uleb128 .LVU1072
 10167 0425 00       		.uleb128 0
 10168              	.LLST101:
 10169 0426 00000000 		.4byte	.LVL150
 10170 042a 0C000000 		.4byte	.LVL152
 10171 042e 0100     		.2byte	0x1
 10172 0430 50       		.byte	0x50
 10173 0431 0C000000 		.4byte	.LVL152
 10174 0435 11000000 		.4byte	.LVL153-1
 10175 0439 0100     		.2byte	0x1
 10176 043b 53       		.byte	0x53
 10177 043c 11000000 		.4byte	.LVL153-1
 10178 0440 12000000 		.4byte	.LVL153
 10179 0444 0400     		.2byte	0x4
 10180 0446 F3       		.byte	0xf3
 10181 0447 01       		.uleb128 0x1
 10182 0448 50       		.byte	0x50
 10183 0449 9F       		.byte	0x9f
 10184 044a 12000000 		.4byte	.LVL153
 10185 044e 16000000 		.4byte	.LVL154
 10186 0452 0100     		.2byte	0x1
 10187 0454 50       		.byte	0x50
 10188 0455 16000000 		.4byte	.LVL154
 10189 0459 1C000000 		.4byte	.LFE265
 10190 045d 0100     		.2byte	0x1
 10191 045f 53       		.byte	0x53
 10192 0460 00000000 		.4byte	0
 10193 0464 00000000 		.4byte	0
 10194              	.LVUS102:
 10195 0468 00       		.uleb128 0
 10196 0469 00       		.uleb128 .LVU1071
 10197 046a 00       		.uleb128 .LVU1071
 10198 046b 00       		.uleb128 .LVU1071
 10199 046c 00       		.uleb128 .LVU1071
 10200 046d 00       		.uleb128 0
 10201              	.LLST102:
 10202 046e 00000000 		.4byte	.LVL150
ARM GAS  /tmp/cc4ZUYx9.s 			page 180


 10203 0472 11000000 		.4byte	.LVL153-1
 10204 0476 0100     		.2byte	0x1
 10205 0478 51       		.byte	0x51
 10206 0479 11000000 		.4byte	.LVL153-1
 10207 047d 12000000 		.4byte	.LVL153
 10208 0481 0400     		.2byte	0x4
 10209 0483 F3       		.byte	0xf3
 10210 0484 01       		.uleb128 0x1
 10211 0485 51       		.byte	0x51
 10212 0486 9F       		.byte	0x9f
 10213 0487 12000000 		.4byte	.LVL153
 10214 048b 1C000000 		.4byte	.LFE265
 10215 048f 0100     		.2byte	0x1
 10216 0491 51       		.byte	0x51
 10217 0492 00000000 		.4byte	0
 10218 0496 00000000 		.4byte	0
 10219              	.LVUS103:
 10220 049a 00       		.uleb128 .LVU1057
 10221 049b 00       		.uleb128 .LVU1071
 10222 049c 00       		.uleb128 .LVU1071
 10223 049d 00       		.uleb128 0
 10224              	.LLST103:
 10225 049e 04000000 		.4byte	.LVL151
 10226 04a2 11000000 		.4byte	.LVL153-1
 10227 04a6 0100     		.2byte	0x1
 10228 04a8 52       		.byte	0x52
 10229 04a9 12000000 		.4byte	.LVL153
 10230 04ad 1C000000 		.4byte	.LFE265
 10231 04b1 0100     		.2byte	0x1
 10232 04b3 52       		.byte	0x52
 10233 04b4 00000000 		.4byte	0
 10234 04b8 00000000 		.4byte	0
 10235              	.LVUS99:
 10236 04bc 00       		.uleb128 0
 10237 04bd 00       		.uleb128 .LVU1045
 10238 04be 00       		.uleb128 .LVU1045
 10239 04bf 00       		.uleb128 .LVU1047
 10240 04c0 00       		.uleb128 .LVU1047
 10241 04c1 00       		.uleb128 0
 10242              	.LLST99:
 10243 04c2 00000000 		.4byte	.LVL146
 10244 04c6 0C000000 		.4byte	.LVL148
 10245 04ca 0100     		.2byte	0x1
 10246 04cc 50       		.byte	0x50
 10247 04cd 0C000000 		.4byte	.LVL148
 10248 04d1 11000000 		.4byte	.LVL149-1
 10249 04d5 0100     		.2byte	0x1
 10250 04d7 53       		.byte	0x53
 10251 04d8 11000000 		.4byte	.LVL149-1
 10252 04dc 1C000000 		.4byte	.LFE264
 10253 04e0 0400     		.2byte	0x4
 10254 04e2 F3       		.byte	0xf3
 10255 04e3 01       		.uleb128 0x1
 10256 04e4 50       		.byte	0x50
 10257 04e5 9F       		.byte	0x9f
 10258 04e6 00000000 		.4byte	0
 10259 04ea 00000000 		.4byte	0
ARM GAS  /tmp/cc4ZUYx9.s 			page 181


 10260              	.LVUS100:
 10261 04ee 00       		.uleb128 .LVU1037
 10262 04ef 00       		.uleb128 .LVU1047
 10263              	.LLST100:
 10264 04f0 08000000 		.4byte	.LVL147
 10265 04f4 11000000 		.4byte	.LVL149-1
 10266 04f8 0100     		.2byte	0x1
 10267 04fa 52       		.byte	0x52
 10268 04fb 00000000 		.4byte	0
 10269 04ff 00000000 		.4byte	0
 10270              	.LVUS97:
 10271 0503 06       		.uleb128 .LVU983
 10272 0504 00       		.uleb128 .LVU987
 10273              	.LLST97:
 10274 0505 00000000 		.4byte	.LVL140
 10275 0509 08000000 		.4byte	.LVL141
 10276 050d 0300     		.2byte	0x3
 10277 050f 08       		.byte	0x8
 10278 0510 20       		.byte	0x20
 10279 0511 9F       		.byte	0x9f
 10280 0512 00000000 		.4byte	0
 10281 0516 00000000 		.4byte	0
 10282              	.LVUS98:
 10283 051a 0A       		.uleb128 .LVU1010
 10284 051b 00       		.uleb128 .LVU1012
 10285 051c 0A       		.uleb128 .LVU1025
 10286 051d 00       		.uleb128 .LVU1027
 10287              	.LLST98:
 10288 051e 16000000 		.4byte	.LVL142
 10289 0522 1C000000 		.4byte	.LVL143
 10290 0526 0200     		.2byte	0x2
 10291 0528 30       		.byte	0x30
 10292 0529 9F       		.byte	0x9f
 10293 052a 22000000 		.4byte	.LVL144
 10294 052e 28000000 		.4byte	.LVL145
 10295 0532 0200     		.2byte	0x2
 10296 0534 30       		.byte	0x30
 10297 0535 9F       		.byte	0x9f
 10298 0536 00000000 		.4byte	0
 10299 053a 00000000 		.4byte	0
 10300              	.LVUS88:
 10301 053e 00       		.uleb128 0
 10302 053f 00       		.uleb128 .LVU935
 10303 0540 00       		.uleb128 .LVU935
 10304 0541 00       		.uleb128 0
 10305              	.LLST88:
 10306 0542 00000000 		.4byte	.LVL130
 10307 0546 14000000 		.4byte	.LVL133
 10308 054a 0100     		.2byte	0x1
 10309 054c 50       		.byte	0x50
 10310 054d 14000000 		.4byte	.LVL133
 10311 0551 34000000 		.4byte	.LFE262
 10312 0555 0400     		.2byte	0x4
 10313 0557 F3       		.byte	0xf3
 10314 0558 01       		.uleb128 0x1
 10315 0559 50       		.byte	0x50
 10316 055a 9F       		.byte	0x9f
ARM GAS  /tmp/cc4ZUYx9.s 			page 182


 10317 055b 00000000 		.4byte	0
 10318 055f 00000000 		.4byte	0
 10319              	.LVUS89:
 10320 0563 00       		.uleb128 0
 10321 0564 00       		.uleb128 .LVU930
 10322 0565 00       		.uleb128 .LVU930
 10323 0566 00       		.uleb128 0
 10324              	.LLST89:
 10325 0567 00000000 		.4byte	.LVL130
 10326 056b 12000000 		.4byte	.LVL132
 10327 056f 0100     		.2byte	0x1
 10328 0571 51       		.byte	0x51
 10329 0572 12000000 		.4byte	.LVL132
 10330 0576 34000000 		.4byte	.LFE262
 10331 057a 0100     		.2byte	0x1
 10332 057c 54       		.byte	0x54
 10333 057d 00000000 		.4byte	0
 10334 0581 00000000 		.4byte	0
 10335              	.LVUS90:
 10336 0585 00       		.uleb128 .LVU930
 10337 0586 00       		.uleb128 .LVU959
 10338              	.LLST90:
 10339 0587 12000000 		.4byte	.LVL132
 10340 058b 24000000 		.4byte	.LVL137
 10341 058f 0100     		.2byte	0x1
 10342 0591 51       		.byte	0x51
 10343 0592 00000000 		.4byte	0
 10344 0596 00000000 		.4byte	0
 10345              	.LVUS91:
 10346 059a 07       		.uleb128 .LVU911
 10347 059b 00       		.uleb128 .LVU917
 10348              	.LLST91:
 10349 059c 00000000 		.4byte	.LVL130
 10350 05a0 0A000000 		.4byte	.LVL131
 10351 05a4 0300     		.2byte	0x3
 10352 05a6 08       		.byte	0x8
 10353 05a7 20       		.byte	0x20
 10354 05a8 9F       		.byte	0x9f
 10355 05a9 00000000 		.4byte	0
 10356 05ad 00000000 		.4byte	0
 10357              	.LVUS92:
 10358 05b1 02       		.uleb128 .LVU932
 10359 05b2 04       		.uleb128 .LVU934
 10360              	.LLST92:
 10361 05b3 12000000 		.4byte	.LVL132
 10362 05b7 12000000 		.4byte	.LVL132
 10363 05bb 0100     		.2byte	0x1
 10364 05bd 54       		.byte	0x54
 10365 05be 00000000 		.4byte	0
 10366 05c2 00000000 		.4byte	0
 10367              	.LVUS93:
 10368 05c6 02       		.uleb128 .LVU932
 10369 05c7 04       		.uleb128 .LVU934
 10370              	.LLST93:
 10371 05c8 12000000 		.4byte	.LVL132
 10372 05cc 12000000 		.4byte	.LVL132
 10373 05d0 0100     		.2byte	0x1
ARM GAS  /tmp/cc4ZUYx9.s 			page 183


 10374 05d2 50       		.byte	0x50
 10375 05d3 00000000 		.4byte	0
 10376 05d7 00000000 		.4byte	0
 10377              	.LVUS94:
 10378 05db 02       		.uleb128 .LVU932
 10379 05dc 04       		.uleb128 .LVU934
 10380              	.LLST94:
 10381 05dd 12000000 		.4byte	.LVL132
 10382 05e1 12000000 		.4byte	.LVL132
 10383 05e5 0100     		.2byte	0x1
 10384 05e7 51       		.byte	0x51
 10385 05e8 00000000 		.4byte	0
 10386 05ec 00000000 		.4byte	0
 10387              	.LVUS95:
 10388 05f0 0A       		.uleb128 .LVU947
 10389 05f1 00       		.uleb128 .LVU949
 10390 05f2 0B       		.uleb128 .LVU971
 10391 05f3 00       		.uleb128 .LVU973
 10392              	.LLST95:
 10393 05f4 18000000 		.4byte	.LVL134
 10394 05f8 1E000000 		.4byte	.LVL135
 10395 05fc 0200     		.2byte	0x2
 10396 05fe 30       		.byte	0x30
 10397 05ff 9F       		.byte	0x9f
 10398 0600 2A000000 		.4byte	.LVL138
 10399 0604 30000000 		.4byte	.LVL139
 10400 0608 0200     		.2byte	0x2
 10401 060a 30       		.byte	0x30
 10402 060b 9F       		.byte	0x9f
 10403 060c 00000000 		.4byte	0
 10404 0610 00000000 		.4byte	0
 10405              	.LVUS96:
 10406 0614 01       		.uleb128 .LVU953
 10407 0615 00       		.uleb128 .LVU959
 10408 0616 00       		.uleb128 .LVU959
 10409 0617 00       		.uleb128 .LVU960
 10410              	.LLST96:
 10411 0618 22000000 		.4byte	.LVL136
 10412 061c 24000000 		.4byte	.LVL137
 10413 0620 0600     		.2byte	0x6
 10414 0622 74       		.byte	0x74
 10415 0623 00       		.sleb128 0
 10416 0624 71       		.byte	0x71
 10417 0625 00       		.sleb128 0
 10418 0626 1C       		.byte	0x1c
 10419 0627 9F       		.byte	0x9f
 10420 0628 24000000 		.4byte	.LVL137
 10421 062c 29000000 		.4byte	.LVL138-1
 10422 0630 0100     		.2byte	0x1
 10423 0632 51       		.byte	0x51
 10424 0633 00000000 		.4byte	0
 10425 0637 00000000 		.4byte	0
 10426              	.LVUS84:
 10427 063b 00       		.uleb128 0
 10428 063c 00       		.uleb128 .LVU864
 10429 063d 00       		.uleb128 .LVU864
 10430 063e 00       		.uleb128 .LVU867
ARM GAS  /tmp/cc4ZUYx9.s 			page 184


 10431 063f 00       		.uleb128 .LVU867
 10432 0640 00       		.uleb128 .LVU889
 10433              	.LLST84:
 10434 0641 00000000 		.4byte	.LVL121
 10435 0645 0E000000 		.4byte	.LVL123
 10436 0649 0100     		.2byte	0x1
 10437 064b 50       		.byte	0x50
 10438 064c 0E000000 		.4byte	.LVL123
 10439 0650 10000000 		.4byte	.LVL124
 10440 0654 0600     		.2byte	0x6
 10441 0656 70       		.byte	0x70
 10442 0657 00       		.sleb128 0
 10443 0658 71       		.byte	0x71
 10444 0659 00       		.sleb128 0
 10445 065a 1C       		.byte	0x1c
 10446 065b 9F       		.byte	0x9f
 10447 065c 10000000 		.4byte	.LVL124
 10448 0660 1F000000 		.4byte	.LVL128-1
 10449 0664 0100     		.2byte	0x1
 10450 0666 51       		.byte	0x51
 10451 0667 00000000 		.4byte	0
 10452 066b 00000000 		.4byte	0
 10453              	.LVUS85:
 10454 066f 06       		.uleb128 .LVU849
 10455 0670 00       		.uleb128 .LVU853
 10456              	.LLST85:
 10457 0671 00000000 		.4byte	.LVL121
 10458 0675 08000000 		.4byte	.LVL122
 10459 0679 0300     		.2byte	0x3
 10460 067b 08       		.byte	0x8
 10461 067c 20       		.byte	0x20
 10462 067d 9F       		.byte	0x9f
 10463 067e 00000000 		.4byte	0
 10464 0682 00000000 		.4byte	0
 10465              	.LVUS86:
 10466 0686 0A       		.uleb128 .LVU878
 10467 0687 00       		.uleb128 .LVU880
 10468 0688 0B       		.uleb128 .LVU900
 10469 0689 00       		.uleb128 .LVU902
 10470              	.LLST86:
 10471 068a 12000000 		.4byte	.LVL125
 10472 068e 18000000 		.4byte	.LVL126
 10473 0692 0200     		.2byte	0x2
 10474 0694 30       		.byte	0x30
 10475 0695 9F       		.byte	0x9f
 10476 0696 20000000 		.4byte	.LVL128
 10477 069a 26000000 		.4byte	.LVL129
 10478 069e 0200     		.2byte	0x2
 10479 06a0 30       		.byte	0x30
 10480 06a1 9F       		.byte	0x9f
 10481 06a2 00000000 		.4byte	0
 10482 06a6 00000000 		.4byte	0
 10483              	.LVUS87:
 10484 06aa 01       		.uleb128 .LVU883
 10485 06ab 00       		.uleb128 .LVU889
 10486              	.LLST87:
 10487 06ac 1A000000 		.4byte	.LVL127
ARM GAS  /tmp/cc4ZUYx9.s 			page 185


 10488 06b0 1F000000 		.4byte	.LVL128-1
 10489 06b4 0100     		.2byte	0x1
 10490 06b6 51       		.byte	0x51
 10491 06b7 00000000 		.4byte	0
 10492 06bb 00000000 		.4byte	0
 10493              	.LVUS80:
 10494 06bf 00       		.uleb128 0
 10495 06c0 00       		.uleb128 .LVU827
 10496 06c1 00       		.uleb128 .LVU827
 10497 06c2 00       		.uleb128 .LVU828
 10498 06c3 00       		.uleb128 .LVU828
 10499 06c4 00       		.uleb128 0
 10500              	.LLST80:
 10501 06c5 00000000 		.4byte	.LVL116
 10502 06c9 0C000000 		.4byte	.LVL118
 10503 06cd 0100     		.2byte	0x1
 10504 06cf 50       		.byte	0x50
 10505 06d0 0C000000 		.4byte	.LVL118
 10506 06d4 0F000000 		.4byte	.LVL119-1
 10507 06d8 0100     		.2byte	0x1
 10508 06da 51       		.byte	0x51
 10509 06db 0F000000 		.4byte	.LVL119-1
 10510 06df 18000000 		.4byte	.LFE260
 10511 06e3 0400     		.2byte	0x4
 10512 06e5 F3       		.byte	0xf3
 10513 06e6 01       		.uleb128 0x1
 10514 06e7 50       		.byte	0x50
 10515 06e8 9F       		.byte	0x9f
 10516 06e9 00000000 		.4byte	0
 10517 06ed 00000000 		.4byte	0
 10518              	.LVUS81:
 10519 06f1 06       		.uleb128 .LVU812
 10520 06f2 00       		.uleb128 .LVU817
 10521              	.LLST81:
 10522 06f3 00000000 		.4byte	.LVL116
 10523 06f7 0A000000 		.4byte	.LVL117
 10524 06fb 0300     		.2byte	0x3
 10525 06fd 08       		.byte	0x8
 10526 06fe 20       		.byte	0x20
 10527 06ff 9F       		.byte	0x9f
 10528 0700 00000000 		.4byte	0
 10529 0704 00000000 		.4byte	0
 10530              	.LVUS82:
 10531 0708 04       		.uleb128 .LVU821
 10532 0709 00       		.uleb128 .LVU827
 10533 070a 00       		.uleb128 .LVU827
 10534 070b 00       		.uleb128 .LVU828
 10535 070c 00       		.uleb128 .LVU828
 10536 070d 00       		.uleb128 .LVU828
 10537              	.LLST82:
 10538 070e 0A000000 		.4byte	.LVL117
 10539 0712 0C000000 		.4byte	.LVL118
 10540 0716 0100     		.2byte	0x1
 10541 0718 50       		.byte	0x50
 10542 0719 0C000000 		.4byte	.LVL118
 10543 071d 0F000000 		.4byte	.LVL119-1
 10544 0721 0100     		.2byte	0x1
ARM GAS  /tmp/cc4ZUYx9.s 			page 186


 10545 0723 51       		.byte	0x51
 10546 0724 0F000000 		.4byte	.LVL119-1
 10547 0728 10000000 		.4byte	.LVL119
 10548 072c 0400     		.2byte	0x4
 10549 072e F3       		.byte	0xf3
 10550 072f 01       		.uleb128 0x1
 10551 0730 50       		.byte	0x50
 10552 0731 9F       		.byte	0x9f
 10553 0732 00000000 		.4byte	0
 10554 0736 00000000 		.4byte	0
 10555              	.LVUS83:
 10556 073a 0B       		.uleb128 .LVU839
 10557 073b 00       		.uleb128 .LVU841
 10558              	.LLST83:
 10559 073c 10000000 		.4byte	.LVL119
 10560 0740 16000000 		.4byte	.LVL120
 10561 0744 0200     		.2byte	0x2
 10562 0746 30       		.byte	0x30
 10563 0747 9F       		.byte	0x9f
 10564 0748 00000000 		.4byte	0
 10565 074c 00000000 		.4byte	0
 10566              	.LVUS78:
 10567 0750 06       		.uleb128 .LVU783
 10568 0751 00       		.uleb128 .LVU785
 10569              	.LLST78:
 10570 0752 00000000 		.4byte	.LVL112
 10571 0756 06000000 		.4byte	.LVL113
 10572 075a 0300     		.2byte	0x3
 10573 075c 08       		.byte	0x8
 10574 075d 20       		.byte	0x20
 10575 075e 9F       		.byte	0x9f
 10576 075f 00000000 		.4byte	0
 10577 0763 00000000 		.4byte	0
 10578              	.LVUS79:
 10579 0767 0A       		.uleb128 .LVU802
 10580 0768 00       		.uleb128 .LVU804
 10581              	.LLST79:
 10582 0769 14000000 		.4byte	.LVL114
 10583 076d 18000000 		.4byte	.LVL115
 10584 0771 0200     		.2byte	0x2
 10585 0773 30       		.byte	0x30
 10586 0774 9F       		.byte	0x9f
 10587 0775 00000000 		.4byte	0
 10588 0779 00000000 		.4byte	0
 10589              	.LVUS74:
 10590 077d 00       		.uleb128 0
 10591 077e 00       		.uleb128 .LVU761
 10592 077f 00       		.uleb128 .LVU761
 10593 0780 00       		.uleb128 0
 10594              	.LLST74:
 10595 0781 00000000 		.4byte	.LVL106
 10596 0785 1F000000 		.4byte	.LVL109-1
 10597 0789 0100     		.2byte	0x1
 10598 078b 50       		.byte	0x50
 10599 078c 1F000000 		.4byte	.LVL109-1
 10600 0790 30000000 		.4byte	.LFE258
 10601 0794 0400     		.2byte	0x4
ARM GAS  /tmp/cc4ZUYx9.s 			page 187


 10602 0796 F3       		.byte	0xf3
 10603 0797 01       		.uleb128 0x1
 10604 0798 50       		.byte	0x50
 10605 0799 9F       		.byte	0x9f
 10606 079a 00000000 		.4byte	0
 10607 079e 00000000 		.4byte	0
 10608              	.LVUS75:
 10609 07a2 00       		.uleb128 .LVU752
 10610 07a3 00       		.uleb128 .LVU776
 10611 07a4 00       		.uleb128 .LVU776
 10612 07a5 00       		.uleb128 0
 10613              	.LLST75:
 10614 07a6 0E000000 		.4byte	.LVL108
 10615 07aa 2A000000 		.4byte	.LVL111
 10616 07ae 0100     		.2byte	0x1
 10617 07b0 54       		.byte	0x54
 10618 07b1 2A000000 		.4byte	.LVL111
 10619 07b5 30000000 		.4byte	.LFE258
 10620 07b9 0100     		.2byte	0x1
 10621 07bb 50       		.byte	0x50
 10622 07bc 00000000 		.4byte	0
 10623 07c0 00000000 		.4byte	0
 10624              	.LVUS76:
 10625 07c4 0A       		.uleb128 .LVU742
 10626 07c5 00       		.uleb128 .LVU746
 10627              	.LLST76:
 10628 07c6 00000000 		.4byte	.LVL106
 10629 07ca 08000000 		.4byte	.LVL107
 10630 07ce 0300     		.2byte	0x3
 10631 07d0 08       		.byte	0x8
 10632 07d1 20       		.byte	0x20
 10633 07d2 9F       		.byte	0x9f
 10634 07d3 00000000 		.4byte	0
 10635 07d7 00000000 		.4byte	0
 10636              	.LVUS77:
 10637 07db 0A       		.uleb128 .LVU771
 10638 07dc 00       		.uleb128 .LVU773
 10639              	.LLST77:
 10640 07dd 20000000 		.4byte	.LVL109
 10641 07e1 26000000 		.4byte	.LVL110
 10642 07e5 0200     		.2byte	0x2
 10643 07e7 30       		.byte	0x30
 10644 07e8 9F       		.byte	0x9f
 10645 07e9 00000000 		.4byte	0
 10646 07ed 00000000 		.4byte	0
 10647              	.LVUS61:
 10648 07f1 00       		.uleb128 0
 10649 07f2 00       		.uleb128 .LVU647
 10650 07f3 00       		.uleb128 .LVU647
 10651 07f4 00       		.uleb128 0
 10652              	.LLST61:
 10653 07f5 00000000 		.4byte	.LVL88
 10654 07f9 1A000000 		.4byte	.LVL91
 10655 07fd 0100     		.2byte	0x1
 10656 07ff 50       		.byte	0x50
 10657 0800 1A000000 		.4byte	.LVL91
 10658 0804 80000000 		.4byte	.LFE257
ARM GAS  /tmp/cc4ZUYx9.s 			page 188


 10659 0808 0100     		.2byte	0x1
 10660 080a 54       		.byte	0x54
 10661 080b 00000000 		.4byte	0
 10662 080f 00000000 		.4byte	0
 10663              	.LVUS62:
 10664 0813 00       		.uleb128 .LVU654
 10665 0814 00       		.uleb128 0
 10666              	.LLST62:
 10667 0815 24000000 		.4byte	.LVL94
 10668 0819 80000000 		.4byte	.LFE257
 10669 081d 0100     		.2byte	0x1
 10670 081f 55       		.byte	0x55
 10671 0820 00000000 		.4byte	0
 10672 0824 00000000 		.4byte	0
 10673              	.LVUS63:
 10674 0828 0A       		.uleb128 .LVU625
 10675 0829 00       		.uleb128 .LVU630
 10676              	.LLST63:
 10677 082a 00000000 		.4byte	.LVL88
 10678 082e 0A000000 		.4byte	.LVL89
 10679 0832 0300     		.2byte	0x3
 10680 0834 08       		.byte	0x8
 10681 0835 20       		.byte	0x20
 10682 0836 9F       		.byte	0x9f
 10683 0837 00000000 		.4byte	0
 10684 083b 00000000 		.4byte	0
 10685              	.LVUS64:
 10686 083f 00       		.uleb128 .LVU644
 10687 0840 00       		.uleb128 .LVU647
 10688 0841 00       		.uleb128 .LVU647
 10689 0842 00       		.uleb128 .LVU650
 10690              	.LLST64:
 10691 0843 18000000 		.4byte	.LVL90
 10692 0847 1A000000 		.4byte	.LVL91
 10693 084b 0300     		.2byte	0x3
 10694 084d 70       		.byte	0x70
 10695 084e 28       		.sleb128 40
 10696 084f 9F       		.byte	0x9f
 10697 0850 1A000000 		.4byte	.LVL91
 10698 0854 1E000000 		.4byte	.LVL92
 10699 0858 0300     		.2byte	0x3
 10700 085a 74       		.byte	0x74
 10701 085b 28       		.sleb128 40
 10702 085c 9F       		.byte	0x9f
 10703 085d 00000000 		.4byte	0
 10704 0861 00000000 		.4byte	0
 10705              	.LVUS65:
 10706 0865 00       		.uleb128 .LVU644
 10707 0866 00       		.uleb128 .LVU650
 10708              	.LLST65:
 10709 0867 18000000 		.4byte	.LVL90
 10710 086b 1E000000 		.4byte	.LVL92
 10711 086f 0100     		.2byte	0x1
 10712 0871 53       		.byte	0x53
 10713 0872 00000000 		.4byte	0
 10714 0876 00000000 		.4byte	0
 10715              	.LVUS66:
ARM GAS  /tmp/cc4ZUYx9.s 			page 189


 10716 087a 0A       		.uleb128 .LVU664
 10717 087b 00       		.uleb128 .LVU666
 10718              	.LLST66:
 10719 087c 24000000 		.4byte	.LVL94
 10720 0880 2A000000 		.4byte	.LVL95
 10721 0884 0200     		.2byte	0x2
 10722 0886 30       		.byte	0x30
 10723 0887 9F       		.byte	0x9f
 10724 0888 00000000 		.4byte	0
 10725 088c 00000000 		.4byte	0
 10726              	.LVUS67:
 10727 0890 02       		.uleb128 .LVU668
 10728 0891 00       		.uleb128 .LVU699
 10729 0892 00       		.uleb128 .LVU702
 10730 0893 00       		.uleb128 0
 10731              	.LLST67:
 10732 0894 2A000000 		.4byte	.LVL95
 10733 0898 48000000 		.4byte	.LVL98
 10734 089c 0100     		.2byte	0x1
 10735 089e 54       		.byte	0x54
 10736 089f 4C000000 		.4byte	.LVL99
 10737 08a3 80000000 		.4byte	.LFE257
 10738 08a7 0100     		.2byte	0x1
 10739 08a9 54       		.byte	0x54
 10740 08aa 00000000 		.4byte	0
 10741 08ae 00000000 		.4byte	0
 10742              	.LVUS68:
 10743 08b2 08       		.uleb128 .LVU674
 10744 08b3 00       		.uleb128 .LVU676
 10745              	.LLST68:
 10746 08b4 2A000000 		.4byte	.LVL95
 10747 08b8 30000000 		.4byte	.LVL96
 10748 08bc 0300     		.2byte	0x3
 10749 08be 08       		.byte	0x8
 10750 08bf 20       		.byte	0x20
 10751 08c0 9F       		.byte	0x9f
 10752 08c1 00000000 		.4byte	0
 10753 08c5 00000000 		.4byte	0
 10754              	.LVUS69:
 10755 08c9 0A       		.uleb128 .LVU697
 10756 08ca 00       		.uleb128 .LVU699
 10757              	.LLST69:
 10758 08cb 44000000 		.4byte	.LVL97
 10759 08cf 48000000 		.4byte	.LVL98
 10760 08d3 0200     		.2byte	0x2
 10761 08d5 30       		.byte	0x30
 10762 08d6 9F       		.byte	0x9f
 10763 08d7 00000000 		.4byte	0
 10764 08db 00000000 		.4byte	0
 10765              	.LVUS70:
 10766 08df 00       		.uleb128 .LVU702
 10767 08e0 00       		.uleb128 0
 10768              	.LLST70:
 10769 08e1 4C000000 		.4byte	.LVL99
 10770 08e5 80000000 		.4byte	.LFE257
 10771 08e9 0100     		.2byte	0x1
 10772 08eb 54       		.byte	0x54
ARM GAS  /tmp/cc4ZUYx9.s 			page 190


 10773 08ec 00000000 		.4byte	0
 10774 08f0 00000000 		.4byte	0
 10775              	.LVUS71:
 10776 08f4 0B       		.uleb128 .LVU716
 10777 08f5 00       		.uleb128 .LVU718
 10778              	.LLST71:
 10779 08f6 56000000 		.4byte	.LVL100
 10780 08fa 5A000000 		.4byte	.LVL101
 10781 08fe 0200     		.2byte	0x2
 10782 0900 30       		.byte	0x30
 10783 0901 9F       		.byte	0x9f
 10784 0902 00000000 		.4byte	0
 10785 0906 00000000 		.4byte	0
 10786              	.LVUS72:
 10787 090a 01       		.uleb128 .LVU721
 10788 090b 03       		.uleb128 .LVU723
 10789              	.LLST72:
 10790 090c 6A000000 		.4byte	.LVL102
 10791 0910 6A000000 		.4byte	.LVL102
 10792 0914 0100     		.2byte	0x1
 10793 0916 54       		.byte	0x54
 10794 0917 00000000 		.4byte	0
 10795 091b 00000000 		.4byte	0
 10796              	.LVUS73:
 10797 091f 01       		.uleb128 .LVU727
 10798 0920 03       		.uleb128 .LVU729
 10799              	.LLST73:
 10800 0921 74000000 		.4byte	.LVL104
 10801 0925 74000000 		.4byte	.LVL104
 10802 0929 0100     		.2byte	0x1
 10803 092b 54       		.byte	0x54
 10804 092c 00000000 		.4byte	0
 10805 0930 00000000 		.4byte	0
 10806              	.LVUS54:
 10807 0934 00       		.uleb128 0
 10808 0935 00       		.uleb128 .LVU568
 10809 0936 00       		.uleb128 .LVU568
 10810 0937 00       		.uleb128 .LVU579
 10811 0938 00       		.uleb128 .LVU579
 10812 0939 00       		.uleb128 0
 10813              	.LLST54:
 10814 093a 00000000 		.4byte	.LVL75
 10815 093e 0A000000 		.4byte	.LVL77
 10816 0942 0100     		.2byte	0x1
 10817 0944 50       		.byte	0x50
 10818 0945 0A000000 		.4byte	.LVL77
 10819 0949 14000000 		.4byte	.LVL79
 10820 094d 0100     		.2byte	0x1
 10821 094f 53       		.byte	0x53
 10822 0950 14000000 		.4byte	.LVL79
 10823 0954 48000000 		.4byte	.LFE256
 10824 0958 0400     		.2byte	0x4
 10825 095a F3       		.byte	0xf3
 10826 095b 01       		.uleb128 0x1
 10827 095c 50       		.byte	0x50
 10828 095d 9F       		.byte	0x9f
 10829 095e 00000000 		.4byte	0
ARM GAS  /tmp/cc4ZUYx9.s 			page 191


 10830 0962 00000000 		.4byte	0
 10831              	.LVUS55:
 10832 0966 00       		.uleb128 .LVU565
 10833 0967 00       		.uleb128 .LVU601
 10834              	.LLST55:
 10835 0968 06000000 		.4byte	.LVL76
 10836 096c 3C000000 		.4byte	.LVL83
 10837 0970 0100     		.2byte	0x1
 10838 0972 54       		.byte	0x54
 10839 0973 00000000 		.4byte	0
 10840 0977 00000000 		.4byte	0
 10841              	.LVUS56:
 10842 097b 00       		.uleb128 .LVU575
 10843 097c 02       		.uleb128 .LVU577
 10844 097d 01       		.uleb128 .LVU588
 10845 097e 00       		.uleb128 .LVU591
 10846              	.LLST56:
 10847 097f 10000000 		.4byte	.LVL78
 10848 0983 10000000 		.4byte	.LVL78
 10849 0987 0100     		.2byte	0x1
 10850 0989 55       		.byte	0x55
 10851 098a 1C000000 		.4byte	.LVL81
 10852 098e 1E000000 		.4byte	.LVL82
 10853 0992 0100     		.2byte	0x1
 10854 0994 55       		.byte	0x55
 10855 0995 00000000 		.4byte	0
 10856 0999 00000000 		.4byte	0
 10857              	.LVUS57:
 10858 099d 01       		.uleb128 .LVU580
 10859 099e 01       		.uleb128 .LVU585
 10860              	.LLST57:
 10861 099f 14000000 		.4byte	.LVL79
 10862 09a3 18000000 		.4byte	.LVL80
 10863 09a7 0100     		.2byte	0x1
 10864 09a9 55       		.byte	0x55
 10865 09aa 00000000 		.4byte	0
 10866 09ae 00000000 		.4byte	0
 10867              	.LVUS58:
 10868 09b2 03       		.uleb128 .LVU582
 10869 09b3 01       		.uleb128 .LVU585
 10870              	.LLST58:
 10871 09b4 14000000 		.4byte	.LVL79
 10872 09b8 18000000 		.4byte	.LVL80
 10873 09bc 0100     		.2byte	0x1
 10874 09be 50       		.byte	0x50
 10875 09bf 00000000 		.4byte	0
 10876 09c3 00000000 		.4byte	0
 10877              	.LVUS59:
 10878 09c7 00       		.uleb128 0
 10879 09c8 00       		.uleb128 .LVU614
 10880 09c9 00       		.uleb128 .LVU614
 10881 09ca 00       		.uleb128 0
 10882              	.LLST59:
 10883 09cb 00000000 		.4byte	.LVL85
 10884 09cf 09000000 		.4byte	.LVL87-1
 10885 09d3 0100     		.2byte	0x1
 10886 09d5 50       		.byte	0x50
ARM GAS  /tmp/cc4ZUYx9.s 			page 192


 10887 09d6 09000000 		.4byte	.LVL87-1
 10888 09da 0A000000 		.4byte	.LFE255
 10889 09de 0400     		.2byte	0x4
 10890 09e0 F3       		.byte	0xf3
 10891 09e1 01       		.uleb128 0x1
 10892 09e2 50       		.byte	0x50
 10893 09e3 9F       		.byte	0x9f
 10894 09e4 00000000 		.4byte	0
 10895 09e8 00000000 		.4byte	0
 10896              	.LVUS60:
 10897 09ec 06       		.uleb128 .LVU608
 10898 09ed 00       		.uleb128 .LVU610
 10899              	.LLST60:
 10900 09ee 00000000 		.4byte	.LVL85
 10901 09f2 06000000 		.4byte	.LVL86
 10902 09f6 0300     		.2byte	0x3
 10903 09f8 08       		.byte	0x8
 10904 09f9 20       		.byte	0x20
 10905 09fa 9F       		.byte	0x9f
 10906 09fb 00000000 		.4byte	0
 10907 09ff 00000000 		.4byte	0
 10908              	.LVUS45:
 10909 0a03 06       		.uleb128 .LVU468
 10910 0a04 00       		.uleb128 .LVU470
 10911              	.LLST45:
 10912 0a05 00000000 		.4byte	.LVL59
 10913 0a09 06000000 		.4byte	.LVL60
 10914 0a0d 0300     		.2byte	0x3
 10915 0a0f 08       		.byte	0x8
 10916 0a10 20       		.byte	0x20
 10917 0a11 9F       		.byte	0x9f
 10918 0a12 00000000 		.4byte	0
 10919 0a16 00000000 		.4byte	0
 10920              	.LVUS46:
 10921 0a1a 0A       		.uleb128 .LVU490
 10922 0a1b 00       		.uleb128 .LVU492
 10923              	.LLST46:
 10924 0a1c 12000000 		.4byte	.LVL61
 10925 0a20 16000000 		.4byte	.LVL62
 10926 0a24 0200     		.2byte	0x2
 10927 0a26 30       		.byte	0x30
 10928 0a27 9F       		.byte	0x9f
 10929 0a28 00000000 		.4byte	0
 10930 0a2c 00000000 		.4byte	0
 10931              	.LVUS42:
 10932 0a30 00       		.uleb128 0
 10933 0a31 00       		.uleb128 .LVU446
 10934 0a32 00       		.uleb128 .LVU446
 10935 0a33 00       		.uleb128 0
 10936              	.LLST42:
 10937 0a34 00000000 		.4byte	.LVL55
 10938 0a38 0F000000 		.4byte	.LVL57-1
 10939 0a3c 0100     		.2byte	0x1
 10940 0a3e 50       		.byte	0x50
 10941 0a3f 0F000000 		.4byte	.LVL57-1
 10942 0a43 1A000000 		.4byte	.LFE252
 10943 0a47 0100     		.2byte	0x1
ARM GAS  /tmp/cc4ZUYx9.s 			page 193


 10944 0a49 54       		.byte	0x54
 10945 0a4a 00000000 		.4byte	0
 10946 0a4e 00000000 		.4byte	0
 10947              	.LVUS43:
 10948 0a52 06       		.uleb128 .LVU433
 10949 0a53 00       		.uleb128 .LVU439
 10950              	.LLST43:
 10951 0a54 00000000 		.4byte	.LVL55
 10952 0a58 0A000000 		.4byte	.LVL56
 10953 0a5c 0300     		.2byte	0x3
 10954 0a5e 08       		.byte	0x8
 10955 0a5f 20       		.byte	0x20
 10956 0a60 9F       		.byte	0x9f
 10957 0a61 00000000 		.4byte	0
 10958 0a65 00000000 		.4byte	0
 10959              	.LVUS44:
 10960 0a69 0A       		.uleb128 .LVU456
 10961 0a6a 00       		.uleb128 .LVU458
 10962              	.LLST44:
 10963 0a6b 10000000 		.4byte	.LVL57
 10964 0a6f 16000000 		.4byte	.LVL58
 10965 0a73 0200     		.2byte	0x2
 10966 0a75 30       		.byte	0x30
 10967 0a76 9F       		.byte	0x9f
 10968 0a77 00000000 		.4byte	0
 10969 0a7b 00000000 		.4byte	0
 10970              	.LVUS29:
 10971 0a7f 00       		.uleb128 0
 10972 0a80 00       		.uleb128 .LVU374
 10973 0a81 00       		.uleb128 .LVU374
 10974 0a82 00       		.uleb128 .LVU411
 10975 0a83 00       		.uleb128 .LVU411
 10976 0a84 00       		.uleb128 0
 10977              	.LLST29:
 10978 0a85 00000000 		.4byte	.LVL40
 10979 0a89 2C000000 		.4byte	.LVL49
 10980 0a8d 0100     		.2byte	0x1
 10981 0a8f 50       		.byte	0x50
 10982 0a90 2C000000 		.4byte	.LVL49
 10983 0a94 5D000000 		.4byte	.LVL52-1
 10984 0a98 0200     		.2byte	0x2
 10985 0a9a 74       		.byte	0x74
 10986 0a9b 1C       		.sleb128 28
 10987 0a9c 5D000000 		.4byte	.LVL52-1
 10988 0aa0 74000000 		.4byte	.LFE251
 10989 0aa4 0400     		.2byte	0x4
 10990 0aa6 F3       		.byte	0xf3
 10991 0aa7 01       		.uleb128 0x1
 10992 0aa8 50       		.byte	0x50
 10993 0aa9 9F       		.byte	0x9f
 10994 0aaa 00000000 		.4byte	0
 10995 0aae 00000000 		.4byte	0
 10996              	.LVUS30:
 10997 0ab2 00       		.uleb128 0
 10998 0ab3 00       		.uleb128 .LVU351
 10999 0ab4 00       		.uleb128 .LVU351
 11000 0ab5 00       		.uleb128 .LVU354
ARM GAS  /tmp/cc4ZUYx9.s 			page 194


 11001 0ab6 00       		.uleb128 .LVU354
 11002 0ab7 00       		.uleb128 0
 11003              	.LLST30:
 11004 0ab8 00000000 		.4byte	.LVL40
 11005 0abc 0A000000 		.4byte	.LVL42
 11006 0ac0 0100     		.2byte	0x1
 11007 0ac2 51       		.byte	0x51
 11008 0ac3 0A000000 		.4byte	.LVL42
 11009 0ac7 0E000000 		.4byte	.LVL44
 11010 0acb 0400     		.2byte	0x4
 11011 0acd 71       		.byte	0x71
 11012 0ace C800     		.sleb128 72
 11013 0ad0 9F       		.byte	0x9f
 11014 0ad1 0E000000 		.4byte	.LVL44
 11015 0ad5 74000000 		.4byte	.LFE251
 11016 0ad9 0400     		.2byte	0x4
 11017 0adb F3       		.byte	0xf3
 11018 0adc 01       		.uleb128 0x1
 11019 0add 51       		.byte	0x51
 11020 0ade 9F       		.byte	0x9f
 11021 0adf 00000000 		.4byte	0
 11022 0ae3 00000000 		.4byte	0
 11023              	.LVUS31:
 11024 0ae7 00       		.uleb128 0
 11025 0ae8 00       		.uleb128 .LVU384
 11026 0ae9 00       		.uleb128 .LVU384
 11027 0aea 00       		.uleb128 .LVU411
 11028 0aeb 00       		.uleb128 .LVU411
 11029 0aec 00       		.uleb128 0
 11030              	.LLST31:
 11031 0aed 00000000 		.4byte	.LVL40
 11032 0af1 46000000 		.4byte	.LVL50
 11033 0af5 0100     		.2byte	0x1
 11034 0af7 52       		.byte	0x52
 11035 0af8 46000000 		.4byte	.LVL50
 11036 0afc 5D000000 		.4byte	.LVL52-1
 11037 0b00 0200     		.2byte	0x2
 11038 0b02 74       		.byte	0x74
 11039 0b03 08       		.sleb128 8
 11040 0b04 5D000000 		.4byte	.LVL52-1
 11041 0b08 74000000 		.4byte	.LFE251
 11042 0b0c 0400     		.2byte	0x4
 11043 0b0e F3       		.byte	0xf3
 11044 0b0f 01       		.uleb128 0x1
 11045 0b10 52       		.byte	0x52
 11046 0b11 9F       		.byte	0x9f
 11047 0b12 00000000 		.4byte	0
 11048 0b16 00000000 		.4byte	0
 11049              	.LVUS32:
 11050 0b1a 00       		.uleb128 0
 11051 0b1b 00       		.uleb128 .LVU356
 11052 0b1c 00       		.uleb128 .LVU356
 11053 0b1d 00       		.uleb128 .LVU357
 11054 0b1e 00       		.uleb128 .LVU357
 11055 0b1f 00       		.uleb128 .LVU359
 11056 0b20 00       		.uleb128 .LVU359
 11057 0b21 00       		.uleb128 .LVU411
ARM GAS  /tmp/cc4ZUYx9.s 			page 195


 11058 0b22 00       		.uleb128 .LVU411
 11059 0b23 00       		.uleb128 0
 11060              	.LLST32:
 11061 0b24 00000000 		.4byte	.LVL40
 11062 0b28 14000000 		.4byte	.LVL45
 11063 0b2c 0100     		.2byte	0x1
 11064 0b2e 53       		.byte	0x53
 11065 0b2f 14000000 		.4byte	.LVL45
 11066 0b33 22000000 		.4byte	.LVL46
 11067 0b37 0200     		.2byte	0x2
 11068 0b39 74       		.byte	0x74
 11069 0b3a 5C       		.sleb128 -36
 11070 0b3b 22000000 		.4byte	.LVL46
 11071 0b3f 26000000 		.4byte	.LVL47
 11072 0b43 0200     		.2byte	0x2
 11073 0b45 73       		.byte	0x73
 11074 0b46 00       		.sleb128 0
 11075 0b47 26000000 		.4byte	.LVL47
 11076 0b4b 5D000000 		.4byte	.LVL52-1
 11077 0b4f 0300     		.2byte	0x3
 11078 0b51 74       		.byte	0x74
 11079 0b52 0C       		.sleb128 12
 11080 0b53 06       		.byte	0x6
 11081 0b54 5D000000 		.4byte	.LVL52-1
 11082 0b58 74000000 		.4byte	.LFE251
 11083 0b5c 0400     		.2byte	0x4
 11084 0b5e F3       		.byte	0xf3
 11085 0b5f 01       		.uleb128 0x1
 11086 0b60 53       		.byte	0x53
 11087 0b61 9F       		.byte	0x9f
 11088 0b62 00000000 		.4byte	0
 11089 0b66 00000000 		.4byte	0
 11090              	.LVUS33:
 11091 0b6a 00       		.uleb128 0
 11092 0b6b 00       		.uleb128 .LVU426
 11093 0b6c 00       		.uleb128 .LVU426
 11094 0b6d 00       		.uleb128 0
 11095              	.LLST33:
 11096 0b6e 00000000 		.4byte	.LVL40
 11097 0b72 66000000 		.4byte	.LVL54
 11098 0b76 0200     		.2byte	0x2
 11099 0b78 91       		.byte	0x91
 11100 0b79 00       		.sleb128 0
 11101 0b7a 66000000 		.4byte	.LVL54
 11102 0b7e 74000000 		.4byte	.LFE251
 11103 0b82 0200     		.2byte	0x2
 11104 0b84 7D       		.byte	0x7d
 11105 0b85 00       		.sleb128 0
 11106 0b86 00000000 		.4byte	0
 11107 0b8a 00000000 		.4byte	0
 11108              	.LVUS34:
 11109 0b8e 00       		.uleb128 .LVU352
 11110 0b8f 00       		.uleb128 .LVU426
 11111 0b90 00       		.uleb128 .LVU426
 11112 0b91 00       		.uleb128 0
 11113              	.LLST34:
 11114 0b92 0C000000 		.4byte	.LVL43
ARM GAS  /tmp/cc4ZUYx9.s 			page 196


 11115 0b96 66000000 		.4byte	.LVL54
 11116 0b9a 0100     		.2byte	0x1
 11117 0b9c 54       		.byte	0x54
 11118 0b9d 66000000 		.4byte	.LVL54
 11119 0ba1 74000000 		.4byte	.LFE251
 11120 0ba5 0100     		.2byte	0x1
 11121 0ba7 50       		.byte	0x50
 11122 0ba8 00000000 		.4byte	0
 11123 0bac 00000000 		.4byte	0
 11124              	.LVUS35:
 11125 0bb0 0D       		.uleb128 .LVU342
 11126 0bb1 00       		.uleb128 .LVU346
 11127              	.LLST35:
 11128 0bb2 00000000 		.4byte	.LVL40
 11129 0bb6 08000000 		.4byte	.LVL41
 11130 0bba 0300     		.2byte	0x3
 11131 0bbc 08       		.byte	0x8
 11132 0bbd 20       		.byte	0x20
 11133 0bbe 9F       		.byte	0x9f
 11134 0bbf 00000000 		.4byte	0
 11135 0bc3 00000000 		.4byte	0
 11136              	.LVUS36:
 11137 0bc7 06       		.uleb128 .LVU367
 11138 0bc8 00       		.uleb128 .LVU384
 11139 0bc9 00       		.uleb128 .LVU384
 11140 0bca 0D       		.uleb128 .LVU409
 11141              	.LLST36:
 11142 0bcb 28000000 		.4byte	.LVL48
 11143 0bcf 46000000 		.4byte	.LVL50
 11144 0bd3 0100     		.2byte	0x1
 11145 0bd5 52       		.byte	0x52
 11146 0bd6 46000000 		.4byte	.LVL50
 11147 0bda 5A000000 		.4byte	.LVL51
 11148 0bde 0200     		.2byte	0x2
 11149 0be0 74       		.byte	0x74
 11150 0be1 08       		.sleb128 8
 11151 0be2 00000000 		.4byte	0
 11152 0be6 00000000 		.4byte	0
 11153              	.LVUS37:
 11154 0bea 06       		.uleb128 .LVU367
 11155 0beb 0D       		.uleb128 .LVU409
 11156              	.LLST37:
 11157 0bec 28000000 		.4byte	.LVL48
 11158 0bf0 5A000000 		.4byte	.LVL51
 11159 0bf4 0600     		.2byte	0x6
 11160 0bf6 03       		.byte	0x3
 11161 0bf7 00000000 		.4byte	.LC0
 11162 0bfb 9F       		.byte	0x9f
 11163 0bfc 00000000 		.4byte	0
 11164 0c00 00000000 		.4byte	0
 11165              	.LVUS38:
 11166 0c04 06       		.uleb128 .LVU367
 11167 0c05 0D       		.uleb128 .LVU409
 11168              	.LLST38:
 11169 0c06 28000000 		.4byte	.LVL48
 11170 0c0a 5A000000 		.4byte	.LVL51
 11171 0c0e 0100     		.2byte	0x1
ARM GAS  /tmp/cc4ZUYx9.s 			page 197


 11172 0c10 54       		.byte	0x54
 11173 0c11 00000000 		.4byte	0
 11174 0c15 00000000 		.4byte	0
 11175              	.LVUS39:
 11176 0c19 06       		.uleb128 .LVU402
 11177 0c1a 09       		.uleb128 .LVU405
 11178              	.LLST39:
 11179 0c1b 5A000000 		.4byte	.LVL51
 11180 0c1f 5A000000 		.4byte	.LVL51
 11181 0c23 0100     		.2byte	0x1
 11182 0c25 52       		.byte	0x52
 11183 0c26 00000000 		.4byte	0
 11184 0c2a 00000000 		.4byte	0
 11185              	.LVUS40:
 11186 0c2e 02       		.uleb128 .LVU398
 11187 0c2f 04       		.uleb128 .LVU400
 11188              	.LLST40:
 11189 0c30 5A000000 		.4byte	.LVL51
 11190 0c34 5A000000 		.4byte	.LVL51
 11191 0c38 0300     		.2byte	0x3
 11192 0c3a 74       		.byte	0x74
 11193 0c3b 28       		.sleb128 40
 11194 0c3c 9F       		.byte	0x9f
 11195 0c3d 00000000 		.4byte	0
 11196 0c41 00000000 		.4byte	0
 11197              	.LVUS41:
 11198 0c45 0A       		.uleb128 .LVU421
 11199 0c46 00       		.uleb128 .LVU423
 11200              	.LLST41:
 11201 0c47 5E000000 		.4byte	.LVL52
 11202 0c4b 62000000 		.4byte	.LVL53
 11203 0c4f 0200     		.2byte	0x2
 11204 0c51 30       		.byte	0x30
 11205 0c52 9F       		.byte	0x9f
 11206 0c53 00000000 		.4byte	0
 11207 0c57 00000000 		.4byte	0
 11208              	.LVUS25:
 11209 0c5b 00       		.uleb128 0
 11210 0c5c 00       		.uleb128 .LVU310
 11211 0c5d 00       		.uleb128 .LVU310
 11212 0c5e 00       		.uleb128 0
 11213              	.LLST25:
 11214 0c5f 00000000 		.4byte	.LVL34
 11215 0c63 0B000000 		.4byte	.LVL36-1
 11216 0c67 0100     		.2byte	0x1
 11217 0c69 50       		.byte	0x50
 11218 0c6a 0B000000 		.4byte	.LVL36-1
 11219 0c6e 1E000000 		.4byte	.LFE250
 11220 0c72 0400     		.2byte	0x4
 11221 0c74 F3       		.byte	0xf3
 11222 0c75 01       		.uleb128 0x1
 11223 0c76 50       		.byte	0x50
 11224 0c77 9F       		.byte	0x9f
 11225 0c78 00000000 		.4byte	0
 11226 0c7c 00000000 		.4byte	0
 11227              	.LVUS26:
 11228 0c80 00       		.uleb128 .LVU312
ARM GAS  /tmp/cc4ZUYx9.s 			page 198


 11229 0c81 00       		.uleb128 .LVU313
 11230 0c82 00       		.uleb128 .LVU313
 11231 0c83 00       		.uleb128 0
 11232              	.LLST26:
 11233 0c84 10000000 		.4byte	.LVL37
 11234 0c88 13000000 		.4byte	.LVL38-1
 11235 0c8c 0100     		.2byte	0x1
 11236 0c8e 50       		.byte	0x50
 11237 0c8f 13000000 		.4byte	.LVL38-1
 11238 0c93 1E000000 		.4byte	.LFE250
 11239 0c97 0100     		.2byte	0x1
 11240 0c99 54       		.byte	0x54
 11241 0c9a 00000000 		.4byte	0
 11242 0c9e 00000000 		.4byte	0
 11243              	.LVUS27:
 11244 0ca2 0A       		.uleb128 .LVU301
 11245 0ca3 00       		.uleb128 .LVU305
 11246              	.LLST27:
 11247 0ca4 00000000 		.4byte	.LVL34
 11248 0ca8 08000000 		.4byte	.LVL35
 11249 0cac 0300     		.2byte	0x3
 11250 0cae 08       		.byte	0x8
 11251 0caf 20       		.byte	0x20
 11252 0cb0 9F       		.byte	0x9f
 11253 0cb1 00000000 		.4byte	0
 11254 0cb5 00000000 		.4byte	0
 11255              	.LVUS28:
 11256 0cb9 0A       		.uleb128 .LVU323
 11257 0cba 00       		.uleb128 .LVU325
 11258              	.LLST28:
 11259 0cbb 14000000 		.4byte	.LVL38
 11260 0cbf 1A000000 		.4byte	.LVL39
 11261 0cc3 0200     		.2byte	0x2
 11262 0cc5 30       		.byte	0x30
 11263 0cc6 9F       		.byte	0x9f
 11264 0cc7 00000000 		.4byte	0
 11265 0ccb 00000000 		.4byte	0
 11266              	.LVUS18:
 11267 0ccf 00       		.uleb128 0
 11268 0cd0 00       		.uleb128 .LVU235
 11269 0cd1 00       		.uleb128 .LVU235
 11270 0cd2 00       		.uleb128 .LVU241
 11271 0cd3 00       		.uleb128 .LVU241
 11272 0cd4 00       		.uleb128 0
 11273              	.LLST18:
 11274 0cd5 00000000 		.4byte	.LVL24
 11275 0cd9 0C000000 		.4byte	.LVL26
 11276 0cdd 0100     		.2byte	0x1
 11277 0cdf 50       		.byte	0x50
 11278 0ce0 0C000000 		.4byte	.LVL26
 11279 0ce4 1E000000 		.4byte	.LVL27
 11280 0ce8 0100     		.2byte	0x1
 11281 0cea 52       		.byte	0x52
 11282 0ceb 1E000000 		.4byte	.LVL27
 11283 0cef 7C000000 		.4byte	.LFE249
 11284 0cf3 0400     		.2byte	0x4
 11285 0cf5 F3       		.byte	0xf3
ARM GAS  /tmp/cc4ZUYx9.s 			page 199


 11286 0cf6 01       		.uleb128 0x1
 11287 0cf7 50       		.byte	0x50
 11288 0cf8 9F       		.byte	0x9f
 11289 0cf9 00000000 		.4byte	0
 11290 0cfd 00000000 		.4byte	0
 11291              	.LVUS19:
 11292 0d01 00       		.uleb128 .LVU220
 11293 0d02 00       		.uleb128 .LVU235
 11294 0d03 00       		.uleb128 .LVU235
 11295 0d04 00       		.uleb128 .LVU241
 11296 0d05 00       		.uleb128 .LVU241
 11297 0d06 03       		.uleb128 .LVU287
 11298              	.LLST19:
 11299 0d07 06000000 		.4byte	.LVL25
 11300 0d0b 0C000000 		.4byte	.LVL26
 11301 0d0f 0100     		.2byte	0x1
 11302 0d11 50       		.byte	0x50
 11303 0d12 0C000000 		.4byte	.LVL26
 11304 0d16 1E000000 		.4byte	.LVL27
 11305 0d1a 0100     		.2byte	0x1
 11306 0d1c 52       		.byte	0x52
 11307 0d1d 1E000000 		.4byte	.LVL27
 11308 0d21 6E000000 		.4byte	.LVL31
 11309 0d25 0400     		.2byte	0x4
 11310 0d27 F3       		.byte	0xf3
 11311 0d28 01       		.uleb128 0x1
 11312 0d29 50       		.byte	0x50
 11313 0d2a 9F       		.byte	0x9f
 11314 0d2b 00000000 		.4byte	0
 11315 0d2f 00000000 		.4byte	0
 11316              	.LVUS20:
 11317 0d33 00       		.uleb128 .LVU252
 11318 0d34 03       		.uleb128 .LVU287
 11319              	.LLST20:
 11320 0d35 4E000000 		.4byte	.LVL28
 11321 0d39 6E000000 		.4byte	.LVL31
 11322 0d3d 0100     		.2byte	0x1
 11323 0d3f 50       		.byte	0x50
 11324 0d40 00000000 		.4byte	0
 11325 0d44 00000000 		.4byte	0
 11326              	.LVUS21:
 11327 0d48 05       		.uleb128 .LVU264
 11328 0d49 03       		.uleb128 .LVU287
 11329              	.LLST21:
 11330 0d4a 62000000 		.4byte	.LVL29
 11331 0d4e 6E000000 		.4byte	.LVL31
 11332 0d52 0200     		.2byte	0x2
 11333 0d54 73       		.byte	0x73
 11334 0d55 74       		.sleb128 -12
 11335 0d56 00000000 		.4byte	0
 11336 0d5a 00000000 		.4byte	0
 11337              	.LVUS22:
 11338 0d5e 05       		.uleb128 .LVU264
 11339 0d5f 03       		.uleb128 .LVU287
 11340              	.LLST22:
 11341 0d60 62000000 		.4byte	.LVL29
 11342 0d64 6E000000 		.4byte	.LVL31
ARM GAS  /tmp/cc4ZUYx9.s 			page 200


 11343 0d68 0200     		.2byte	0x2
 11344 0d6a 73       		.byte	0x73
 11345 0d6b 50       		.sleb128 -48
 11346 0d6c 00000000 		.4byte	0
 11347 0d70 00000000 		.4byte	0
 11348              	.LVUS23:
 11349 0d74 05       		.uleb128 .LVU264
 11350 0d75 03       		.uleb128 .LVU287
 11351              	.LLST23:
 11352 0d76 62000000 		.4byte	.LVL29
 11353 0d7a 6E000000 		.4byte	.LVL31
 11354 0d7e 0100     		.2byte	0x1
 11355 0d80 50       		.byte	0x50
 11356 0d81 00000000 		.4byte	0
 11357 0d85 00000000 		.4byte	0
 11358              	.LVUS24:
 11359 0d89 02       		.uleb128 .LVU279
 11360 0d8a 00       		.uleb128 .LVU289
 11361 0d8b 00       		.uleb128 .LVU289
 11362 0d8c 00       		.uleb128 .LVU290
 11363              	.LLST24:
 11364 0d8d 66000000 		.4byte	.LVL30
 11365 0d91 70000000 		.4byte	.LVL32
 11366 0d95 0100     		.2byte	0x1
 11367 0d97 55       		.byte	0x55
 11368 0d98 70000000 		.4byte	.LVL32
 11369 0d9c 73000000 		.4byte	.LVL33-1
 11370 0da0 0300     		.2byte	0x3
 11371 0da2 73       		.byte	0x73
 11372 0da3 60       		.sleb128 -32
 11373 0da4 9F       		.byte	0x9f
 11374 0da5 00000000 		.4byte	0
 11375 0da9 00000000 		.4byte	0
 11376              	.LVUS9:
 11377 0dad 00       		.uleb128 0
 11378 0dae 00       		.uleb128 .LVU146
 11379 0daf 00       		.uleb128 .LVU146
 11380 0db0 00       		.uleb128 .LVU153
 11381 0db1 00       		.uleb128 .LVU153
 11382 0db2 00       		.uleb128 0
 11383              	.LLST9:
 11384 0db3 00000000 		.4byte	.LVL13
 11385 0db7 12000000 		.4byte	.LVL15
 11386 0dbb 0100     		.2byte	0x1
 11387 0dbd 50       		.byte	0x50
 11388 0dbe 12000000 		.4byte	.LVL15
 11389 0dc2 28000000 		.4byte	.LVL16
 11390 0dc6 0100     		.2byte	0x1
 11391 0dc8 52       		.byte	0x52
 11392 0dc9 28000000 		.4byte	.LVL16
 11393 0dcd 88000000 		.4byte	.LFE248
 11394 0dd1 0400     		.2byte	0x4
 11395 0dd3 F3       		.byte	0xf3
 11396 0dd4 01       		.uleb128 0x1
 11397 0dd5 50       		.byte	0x50
 11398 0dd6 9F       		.byte	0x9f
 11399 0dd7 00000000 		.4byte	0
ARM GAS  /tmp/cc4ZUYx9.s 			page 201


 11400 0ddb 00000000 		.4byte	0
 11401              	.LVUS10:
 11402 0ddf 03       		.uleb128 .LVU199
 11403 0de0 00       		.uleb128 0
 11404              	.LLST10:
 11405 0de1 78000000 		.4byte	.LVL21
 11406 0de5 88000000 		.4byte	.LFE248
 11407 0de9 0100     		.2byte	0x1
 11408 0deb 50       		.byte	0x50
 11409 0dec 00000000 		.4byte	0
 11410 0df0 00000000 		.4byte	0
 11411              	.LVUS11:
 11412 0df4 0A       		.uleb128 .LVU122
 11413 0df5 00       		.uleb128 .LVU127
 11414              	.LLST11:
 11415 0df6 00000000 		.4byte	.LVL13
 11416 0dfa 0A000000 		.4byte	.LVL14
 11417 0dfe 0300     		.2byte	0x3
 11418 0e00 08       		.byte	0x8
 11419 0e01 20       		.byte	0x20
 11420 0e02 9F       		.byte	0x9f
 11421 0e03 00000000 		.4byte	0
 11422 0e07 00000000 		.4byte	0
 11423              	.LVUS12:
 11424 0e0b 04       		.uleb128 .LVU131
 11425 0e0c 00       		.uleb128 .LVU146
 11426 0e0d 00       		.uleb128 .LVU146
 11427 0e0e 00       		.uleb128 .LVU153
 11428 0e0f 00       		.uleb128 .LVU153
 11429 0e10 03       		.uleb128 .LVU199
 11430              	.LLST12:
 11431 0e11 0A000000 		.4byte	.LVL14
 11432 0e15 12000000 		.4byte	.LVL15
 11433 0e19 0100     		.2byte	0x1
 11434 0e1b 50       		.byte	0x50
 11435 0e1c 12000000 		.4byte	.LVL15
 11436 0e20 28000000 		.4byte	.LVL16
 11437 0e24 0100     		.2byte	0x1
 11438 0e26 52       		.byte	0x52
 11439 0e27 28000000 		.4byte	.LVL16
 11440 0e2b 78000000 		.4byte	.LVL21
 11441 0e2f 0400     		.2byte	0x4
 11442 0e31 F3       		.byte	0xf3
 11443 0e32 01       		.uleb128 0x1
 11444 0e33 50       		.byte	0x50
 11445 0e34 9F       		.byte	0x9f
 11446 0e35 00000000 		.4byte	0
 11447 0e39 00000000 		.4byte	0
 11448              	.LVUS13:
 11449 0e3d 00       		.uleb128 .LVU161
 11450 0e3e 03       		.uleb128 .LVU199
 11451              	.LLST13:
 11452 0e3f 48000000 		.4byte	.LVL17
 11453 0e43 78000000 		.4byte	.LVL21
 11454 0e47 0100     		.2byte	0x1
 11455 0e49 50       		.byte	0x50
 11456 0e4a 00000000 		.4byte	0
ARM GAS  /tmp/cc4ZUYx9.s 			page 202


 11457 0e4e 00000000 		.4byte	0
 11458              	.LVUS14:
 11459 0e52 05       		.uleb128 .LVU175
 11460 0e53 03       		.uleb128 .LVU199
 11461              	.LLST14:
 11462 0e54 68000000 		.4byte	.LVL18
 11463 0e58 78000000 		.4byte	.LVL21
 11464 0e5c 0200     		.2byte	0x2
 11465 0e5e 73       		.byte	0x73
 11466 0e5f 74       		.sleb128 -12
 11467 0e60 00000000 		.4byte	0
 11468 0e64 00000000 		.4byte	0
 11469              	.LVUS15:
 11470 0e68 05       		.uleb128 .LVU175
 11471 0e69 03       		.uleb128 .LVU199
 11472              	.LLST15:
 11473 0e6a 68000000 		.4byte	.LVL18
 11474 0e6e 78000000 		.4byte	.LVL21
 11475 0e72 0100     		.2byte	0x1
 11476 0e74 50       		.byte	0x50
 11477 0e75 00000000 		.4byte	0
 11478 0e79 00000000 		.4byte	0
 11479              	.LVUS16:
 11480 0e7d 02       		.uleb128 .LVU190
 11481 0e7e 00       		.uleb128 .LVU193
 11482 0e7f 00       		.uleb128 .LVU193
 11483 0e80 00       		.uleb128 .LVU215
 11484 0e81 00       		.uleb128 .LVU215
 11485 0e82 00       		.uleb128 0
 11486              	.LLST16:
 11487 0e83 6C000000 		.4byte	.LVL19
 11488 0e87 70000000 		.4byte	.LVL20
 11489 0e8b 0300     		.2byte	0x3
 11490 0e8d 73       		.byte	0x73
 11491 0e8e 60       		.sleb128 -32
 11492 0e8f 9F       		.byte	0x9f
 11493 0e90 70000000 		.4byte	.LVL20
 11494 0e94 7E000000 		.4byte	.LVL23
 11495 0e98 0100     		.2byte	0x1
 11496 0e9a 54       		.byte	0x54
 11497 0e9b 7E000000 		.4byte	.LVL23
 11498 0e9f 88000000 		.4byte	.LFE248
 11499 0ea3 0300     		.2byte	0x3
 11500 0ea5 73       		.byte	0x73
 11501 0ea6 60       		.sleb128 -32
 11502 0ea7 9F       		.byte	0x9f
 11503 0ea8 00000000 		.4byte	0
 11504 0eac 00000000 		.4byte	0
 11505              	.LVUS17:
 11506 0eb0 0E       		.uleb128 .LVU210
 11507 0eb1 00       		.uleb128 .LVU212
 11508              	.LLST17:
 11509 0eb2 78000000 		.4byte	.LVL21
 11510 0eb6 7C000000 		.4byte	.LVL22
 11511 0eba 0200     		.2byte	0x2
 11512 0ebc 30       		.byte	0x30
 11513 0ebd 9F       		.byte	0x9f
ARM GAS  /tmp/cc4ZUYx9.s 			page 203


 11514 0ebe 00000000 		.4byte	0
 11515 0ec2 00000000 		.4byte	0
 11516              	.LVUS0:
 11517 0ec6 00       		.uleb128 0
 11518 0ec7 00       		.uleb128 .LVU6
 11519 0ec8 00       		.uleb128 .LVU6
 11520 0ec9 00       		.uleb128 0
 11521              	.LLST0:
 11522 0eca 00000000 		.4byte	.LVL0
 11523 0ece 08000000 		.4byte	.LVL1
 11524 0ed2 0100     		.2byte	0x1
 11525 0ed4 51       		.byte	0x51
 11526 0ed5 08000000 		.4byte	.LVL1
 11527 0ed9 3C000000 		.4byte	.LFE246
 11528 0edd 0200     		.2byte	0x2
 11529 0edf 70       		.byte	0x70
 11530 0ee0 18       		.sleb128 24
 11531 0ee1 00000000 		.4byte	0
 11532 0ee5 00000000 		.4byte	0
 11533              	.LVUS1:
 11534 0ee9 00       		.uleb128 0
 11535 0eea 00       		.uleb128 .LVU13
 11536 0eeb 00       		.uleb128 .LVU13
 11537 0eec 00       		.uleb128 0
 11538              	.LLST1:
 11539 0eed 00000000 		.4byte	.LVL0
 11540 0ef1 10000000 		.4byte	.LVL2
 11541 0ef5 0100     		.2byte	0x1
 11542 0ef7 52       		.byte	0x52
 11543 0ef8 10000000 		.4byte	.LVL2
 11544 0efc 3C000000 		.4byte	.LFE246
 11545 0f00 0200     		.2byte	0x2
 11546 0f02 70       		.byte	0x70
 11547 0f03 08       		.sleb128 8
 11548 0f04 00000000 		.4byte	0
 11549 0f08 00000000 		.4byte	0
 11550              	.LVUS2:
 11551 0f0c 02       		.uleb128 .LVU32
 11552 0f0d 00       		.uleb128 .LVU36
 11553 0f0e 00       		.uleb128 .LVU36
 11554 0f0f 00       		.uleb128 0
 11555              	.LLST2:
 11556 0f10 30000000 		.4byte	.LVL3
 11557 0f14 32000000 		.4byte	.LVL4
 11558 0f18 0100     		.2byte	0x1
 11559 0f1a 54       		.byte	0x54
 11560 0f1b 32000000 		.4byte	.LVL4
 11561 0f1f 3C000000 		.4byte	.LFE246
 11562 0f23 0300     		.2byte	0x3
 11563 0f25 70       		.byte	0x70
 11564 0f26 28       		.sleb128 40
 11565 0f27 9F       		.byte	0x9f
 11566 0f28 00000000 		.4byte	0
 11567 0f2c 00000000 		.4byte	0
 11568              	.LVUS3:
 11569 0f30 00       		.uleb128 0
 11570 0f31 00       		.uleb128 .LVU57
ARM GAS  /tmp/cc4ZUYx9.s 			page 204


 11571 0f32 00       		.uleb128 .LVU57
 11572 0f33 00       		.uleb128 .LVU63
 11573 0f34 00       		.uleb128 .LVU63
 11574 0f35 00       		.uleb128 0
 11575              	.LLST3:
 11576 0f36 00000000 		.4byte	.LVL5
 11577 0f3a 0C000000 		.4byte	.LVL6
 11578 0f3e 0100     		.2byte	0x1
 11579 0f40 50       		.byte	0x50
 11580 0f41 0C000000 		.4byte	.LVL6
 11581 0f45 1E000000 		.4byte	.LVL7
 11582 0f49 0100     		.2byte	0x1
 11583 0f4b 52       		.byte	0x52
 11584 0f4c 1E000000 		.4byte	.LVL7
 11585 0f50 7C000000 		.4byte	.LFE247
 11586 0f54 0400     		.2byte	0x4
 11587 0f56 F3       		.byte	0xf3
 11588 0f57 01       		.uleb128 0x1
 11589 0f58 50       		.byte	0x50
 11590 0f59 9F       		.byte	0x9f
 11591 0f5a 00000000 		.4byte	0
 11592 0f5e 00000000 		.4byte	0
 11593              	.LVUS4:
 11594 0f62 00       		.uleb128 .LVU72
 11595 0f63 00       		.uleb128 0
 11596              	.LLST4:
 11597 0f64 44000000 		.4byte	.LVL8
 11598 0f68 7C000000 		.4byte	.LFE247
 11599 0f6c 0100     		.2byte	0x1
 11600 0f6e 50       		.byte	0x50
 11601 0f6f 00000000 		.4byte	0
 11602 0f73 00000000 		.4byte	0
 11603              	.LVUS5:
 11604 0f77 05       		.uleb128 .LVU86
 11605 0f78 03       		.uleb128 .LVU109
 11606              	.LLST5:
 11607 0f79 62000000 		.4byte	.LVL9
 11608 0f7d 6E000000 		.4byte	.LVL11
 11609 0f81 0200     		.2byte	0x2
 11610 0f83 73       		.byte	0x73
 11611 0f84 74       		.sleb128 -12
 11612 0f85 00000000 		.4byte	0
 11613 0f89 00000000 		.4byte	0
 11614              	.LVUS6:
 11615 0f8d 05       		.uleb128 .LVU86
 11616 0f8e 03       		.uleb128 .LVU109
 11617              	.LLST6:
 11618 0f8f 62000000 		.4byte	.LVL9
 11619 0f93 6E000000 		.4byte	.LVL11
 11620 0f97 0200     		.2byte	0x2
 11621 0f99 73       		.byte	0x73
 11622 0f9a 50       		.sleb128 -48
 11623 0f9b 00000000 		.4byte	0
 11624 0f9f 00000000 		.4byte	0
 11625              	.LVUS7:
 11626 0fa3 05       		.uleb128 .LVU86
 11627 0fa4 03       		.uleb128 .LVU109
ARM GAS  /tmp/cc4ZUYx9.s 			page 205


 11628              	.LLST7:
 11629 0fa5 62000000 		.4byte	.LVL9
 11630 0fa9 6E000000 		.4byte	.LVL11
 11631 0fad 0100     		.2byte	0x1
 11632 0faf 50       		.byte	0x50
 11633 0fb0 00000000 		.4byte	0
 11634 0fb4 00000000 		.4byte	0
 11635              	.LVUS8:
 11636 0fb8 02       		.uleb128 .LVU101
 11637 0fb9 00       		.uleb128 .LVU111
 11638 0fba 00       		.uleb128 .LVU111
 11639 0fbb 00       		.uleb128 0
 11640              	.LLST8:
 11641 0fbc 66000000 		.4byte	.LVL10
 11642 0fc0 70000000 		.4byte	.LVL12
 11643 0fc4 0100     		.2byte	0x1
 11644 0fc6 55       		.byte	0x55
 11645 0fc7 70000000 		.4byte	.LVL12
 11646 0fcb 7C000000 		.4byte	.LFE247
 11647 0fcf 0300     		.2byte	0x3
 11648 0fd1 73       		.byte	0x73
 11649 0fd2 60       		.sleb128 -32
 11650 0fd3 9F       		.byte	0x9f
 11651 0fd4 00000000 		.4byte	0
 11652 0fd8 00000000 		.4byte	0
 11653              	.LVUS47:
 11654 0fdc 00       		.uleb128 0
 11655 0fdd 00       		.uleb128 .LVU553
 11656 0fde 00       		.uleb128 .LVU553
 11657 0fdf 00       		.uleb128 .LVU554
 11658 0fe0 00       		.uleb128 .LVU554
 11659 0fe1 00       		.uleb128 .LVU559
 11660 0fe2 00       		.uleb128 .LVU559
 11661 0fe3 00       		.uleb128 0
 11662              	.LLST47:
 11663 0fe4 00000000 		.4byte	.LVL63
 11664 0fe8 48000000 		.4byte	.LVL71
 11665 0fec 0100     		.2byte	0x1
 11666 0fee 50       		.byte	0x50
 11667 0fef 48000000 		.4byte	.LVL71
 11668 0ff3 4C000000 		.4byte	.LVL72
 11669 0ff7 0400     		.2byte	0x4
 11670 0ff9 F3       		.byte	0xf3
 11671 0ffa 01       		.uleb128 0x1
 11672 0ffb 50       		.byte	0x50
 11673 0ffc 9F       		.byte	0x9f
 11674 0ffd 4C000000 		.4byte	.LVL72
 11675 1001 4E000000 		.4byte	.LVL73
 11676 1005 0100     		.2byte	0x1
 11677 1007 50       		.byte	0x50
 11678 1008 4E000000 		.4byte	.LVL73
 11679 100c 52000000 		.4byte	.LFE254
 11680 1010 0400     		.2byte	0x4
 11681 1012 F3       		.byte	0xf3
 11682 1013 01       		.uleb128 0x1
 11683 1014 50       		.byte	0x50
 11684 1015 9F       		.byte	0x9f
ARM GAS  /tmp/cc4ZUYx9.s 			page 206


 11685 1016 00000000 		.4byte	0
 11686 101a 00000000 		.4byte	0
 11687              	.LVUS48:
 11688 101e 06       		.uleb128 .LVU501
 11689 101f 00       		.uleb128 .LVU503
 11690              	.LLST48:
 11691 1020 00000000 		.4byte	.LVL63
 11692 1024 06000000 		.4byte	.LVL64
 11693 1028 0300     		.2byte	0x3
 11694 102a 08       		.byte	0x8
 11695 102b 20       		.byte	0x20
 11696 102c 9F       		.byte	0x9f
 11697 102d 00000000 		.4byte	0
 11698 1031 00000000 		.4byte	0
 11699              	.LVUS49:
 11700 1035 0A       		.uleb128 .LVU524
 11701 1036 00       		.uleb128 .LVU526
 11702              	.LLST49:
 11703 1037 1A000000 		.4byte	.LVL65
 11704 103b 20000000 		.4byte	.LVL66
 11705 103f 0200     		.2byte	0x2
 11706 1041 30       		.byte	0x30
 11707 1042 9F       		.byte	0x9f
 11708 1043 00000000 		.4byte	0
 11709 1047 00000000 		.4byte	0
 11710              	.LVUS50:
 11711 104b 00       		.uleb128 .LVU528
 11712 104c 00       		.uleb128 .LVU553
 11713 104d 00       		.uleb128 .LVU553
 11714 104e 00       		.uleb128 .LVU554
 11715 104f 00       		.uleb128 .LVU554
 11716 1050 00       		.uleb128 .LVU559
 11717 1051 00       		.uleb128 .LVU559
 11718 1052 00       		.uleb128 0
 11719              	.LLST50:
 11720 1053 22000000 		.4byte	.LVL67
 11721 1057 48000000 		.4byte	.LVL71
 11722 105b 0100     		.2byte	0x1
 11723 105d 50       		.byte	0x50
 11724 105e 48000000 		.4byte	.LVL71
 11725 1062 4C000000 		.4byte	.LVL72
 11726 1066 0400     		.2byte	0x4
 11727 1068 F3       		.byte	0xf3
 11728 1069 01       		.uleb128 0x1
 11729 106a 50       		.byte	0x50
 11730 106b 9F       		.byte	0x9f
 11731 106c 4C000000 		.4byte	.LVL72
 11732 1070 4E000000 		.4byte	.LVL73
 11733 1074 0100     		.2byte	0x1
 11734 1076 50       		.byte	0x50
 11735 1077 4E000000 		.4byte	.LVL73
 11736 107b 52000000 		.4byte	.LFE254
 11737 107f 0400     		.2byte	0x4
 11738 1081 F3       		.byte	0xf3
 11739 1082 01       		.uleb128 0x1
 11740 1083 50       		.byte	0x50
 11741 1084 9F       		.byte	0x9f
ARM GAS  /tmp/cc4ZUYx9.s 			page 207


 11742 1085 00000000 		.4byte	0
 11743 1089 00000000 		.4byte	0
 11744              	.LVUS51:
 11745 108d 0B       		.uleb128 .LVU544
 11746 108e 00       		.uleb128 .LVU546
 11747              	.LLST51:
 11748 108f 2E000000 		.4byte	.LVL68
 11749 1093 32000000 		.4byte	.LVL69
 11750 1097 0200     		.2byte	0x2
 11751 1099 30       		.byte	0x30
 11752 109a 9F       		.byte	0x9f
 11753 109b 00000000 		.4byte	0
 11754 109f 00000000 		.4byte	0
 11755              	.LVUS52:
 11756 10a3 01       		.uleb128 .LVU549
 11757 10a4 03       		.uleb128 .LVU551
 11758              	.LLST52:
 11759 10a5 44000000 		.4byte	.LVL70
 11760 10a9 44000000 		.4byte	.LVL70
 11761 10ad 0100     		.2byte	0x1
 11762 10af 50       		.byte	0x50
 11763 10b0 00000000 		.4byte	0
 11764 10b4 00000000 		.4byte	0
 11765              	.LVUS53:
 11766 10b8 01       		.uleb128 .LVU555
 11767 10b9 03       		.uleb128 .LVU557
 11768              	.LLST53:
 11769 10ba 4C000000 		.4byte	.LVL72
 11770 10be 4C000000 		.4byte	.LVL72
 11771 10c2 0100     		.2byte	0x1
 11772 10c4 50       		.byte	0x50
 11773 10c5 00000000 		.4byte	0
 11774 10c9 00000000 		.4byte	0
 11775              	.LVUS107:
 11776 10cd 00       		.uleb128 0
 11777 10ce 00       		.uleb128 .LVU1094
 11778 10cf 00       		.uleb128 .LVU1094
 11779 10d0 00       		.uleb128 .LVU1102
 11780 10d1 00       		.uleb128 .LVU1102
 11781 10d2 00       		.uleb128 .LVU1102
 11782 10d3 00       		.uleb128 .LVU1102
 11783 10d4 00       		.uleb128 0
 11784              	.LLST107:
 11785 10d5 00000000 		.4byte	.LVL159
 11786 10d9 04000000 		.4byte	.LVL160
 11787 10dd 0100     		.2byte	0x1
 11788 10df 50       		.byte	0x50
 11789 10e0 04000000 		.4byte	.LVL160
 11790 10e4 0D000000 		.4byte	.LVL162-1
 11791 10e8 0100     		.2byte	0x1
 11792 10ea 53       		.byte	0x53
 11793 10eb 0D000000 		.4byte	.LVL162-1
 11794 10ef 0E000000 		.4byte	.LVL162
 11795 10f3 0400     		.2byte	0x4
 11796 10f5 F3       		.byte	0xf3
 11797 10f6 01       		.uleb128 0x1
 11798 10f7 50       		.byte	0x50
ARM GAS  /tmp/cc4ZUYx9.s 			page 208


 11799 10f8 9F       		.byte	0x9f
 11800 10f9 0E000000 		.4byte	.LVL162
 11801 10fd 10000000 		.4byte	.LFE267
 11802 1101 0100     		.2byte	0x1
 11803 1103 53       		.byte	0x53
 11804 1104 00000000 		.4byte	0
 11805 1108 00000000 		.4byte	0
 11806              	.LVUS108:
 11807 110c 00       		.uleb128 0
 11808 110d 00       		.uleb128 .LVU1102
 11809 110e 00       		.uleb128 .LVU1102
 11810 110f 00       		.uleb128 .LVU1102
 11811 1110 00       		.uleb128 .LVU1102
 11812 1111 00       		.uleb128 0
 11813              	.LLST108:
 11814 1112 00000000 		.4byte	.LVL159
 11815 1116 0D000000 		.4byte	.LVL162-1
 11816 111a 0100     		.2byte	0x1
 11817 111c 51       		.byte	0x51
 11818 111d 0D000000 		.4byte	.LVL162-1
 11819 1121 0E000000 		.4byte	.LVL162
 11820 1125 0400     		.2byte	0x4
 11821 1127 F3       		.byte	0xf3
 11822 1128 01       		.uleb128 0x1
 11823 1129 51       		.byte	0x51
 11824 112a 9F       		.byte	0x9f
 11825 112b 0E000000 		.4byte	.LVL162
 11826 112f 10000000 		.4byte	.LFE267
 11827 1133 0100     		.2byte	0x1
 11828 1135 51       		.byte	0x51
 11829 1136 00000000 		.4byte	0
 11830 113a 00000000 		.4byte	0
 11831              	.LVUS109:
 11832 113e 01       		.uleb128 .LVU1096
 11833 113f 00       		.uleb128 .LVU1102
 11834              	.LLST109:
 11835 1140 06000000 		.4byte	.LVL161
 11836 1144 0D000000 		.4byte	.LVL162-1
 11837 1148 0100     		.2byte	0x1
 11838 114a 50       		.byte	0x50
 11839 114b 00000000 		.4byte	0
 11840 114f 00000000 		.4byte	0
 11841              		.section	.debug_aranges,"",%progbits
 11842 0000 E4000000 		.4byte	0xe4
 11843 0004 0200     		.2byte	0x2
 11844 0006 00000000 		.4byte	.Ldebug_info0
 11845 000a 04       		.byte	0x4
 11846 000b 00       		.byte	0
 11847 000c 0000     		.2byte	0
 11848 000e 0000     		.2byte	0
 11849 0010 00000000 		.4byte	.LFB246
 11850 0014 3C000000 		.4byte	.LFE246-.LFB246
 11851 0018 00000000 		.4byte	.LFB247
 11852 001c 7C000000 		.4byte	.LFE247-.LFB247
 11853 0020 00000000 		.4byte	.LFB248
 11854 0024 88000000 		.4byte	.LFE248-.LFB248
 11855 0028 00000000 		.4byte	.LFB249
ARM GAS  /tmp/cc4ZUYx9.s 			page 209


 11856 002c 7C000000 		.4byte	.LFE249-.LFB249
 11857 0030 00000000 		.4byte	.LFB250
 11858 0034 1E000000 		.4byte	.LFE250-.LFB250
 11859 0038 00000000 		.4byte	.LFB251
 11860 003c 74000000 		.4byte	.LFE251-.LFB251
 11861 0040 00000000 		.4byte	.LFB252
 11862 0044 1A000000 		.4byte	.LFE252-.LFB252
 11863 0048 00000000 		.4byte	.LFB253
 11864 004c 18000000 		.4byte	.LFE253-.LFB253
 11865 0050 00000000 		.4byte	.LFB254
 11866 0054 52000000 		.4byte	.LFE254-.LFB254
 11867 0058 00000000 		.4byte	.LFB256
 11868 005c 48000000 		.4byte	.LFE256-.LFB256
 11869 0060 00000000 		.4byte	.LFB255
 11870 0064 0A000000 		.4byte	.LFE255-.LFB255
 11871 0068 00000000 		.4byte	.LFB257
 11872 006c 80000000 		.4byte	.LFE257-.LFB257
 11873 0070 00000000 		.4byte	.LFB258
 11874 0074 30000000 		.4byte	.LFE258-.LFB258
 11875 0078 00000000 		.4byte	.LFB259
 11876 007c 1A000000 		.4byte	.LFE259-.LFB259
 11877 0080 00000000 		.4byte	.LFB260
 11878 0084 18000000 		.4byte	.LFE260-.LFB260
 11879 0088 00000000 		.4byte	.LFB261
 11880 008c 28000000 		.4byte	.LFE261-.LFB261
 11881 0090 00000000 		.4byte	.LFB262
 11882 0094 34000000 		.4byte	.LFE262-.LFB262
 11883 0098 00000000 		.4byte	.LFB263
 11884 009c 30000000 		.4byte	.LFE263-.LFB263
 11885 00a0 00000000 		.4byte	.LFB264
 11886 00a4 1C000000 		.4byte	.LFE264-.LFB264
 11887 00a8 00000000 		.4byte	.LFB265
 11888 00ac 1C000000 		.4byte	.LFE265-.LFB265
 11889 00b0 00000000 		.4byte	.LFB266
 11890 00b4 12000000 		.4byte	.LFE266-.LFB266
 11891 00b8 00000000 		.4byte	.LFB267
 11892 00bc 10000000 		.4byte	.LFE267-.LFB267
 11893 00c0 00000000 		.4byte	.LFB268
 11894 00c4 1E000000 		.4byte	.LFE268-.LFB268
 11895 00c8 00000000 		.4byte	.LFB269
 11896 00cc 28000000 		.4byte	.LFE269-.LFB269
 11897 00d0 00000000 		.4byte	.LFB270
 11898 00d4 16000000 		.4byte	.LFE270-.LFB270
 11899 00d8 00000000 		.4byte	.LFB271
 11900 00dc 20000000 		.4byte	.LFE271-.LFB271
 11901 00e0 00000000 		.4byte	0
 11902 00e4 00000000 		.4byte	0
 11903              		.section	.debug_ranges,"",%progbits
 11904              	.Ldebug_ranges0:
 11905 0000 2A000000 		.4byte	.LBB259
 11906 0004 2E000000 		.4byte	.LBE259
 11907 0008 30000000 		.4byte	.LBB265
 11908 000c 30000000 		.4byte	.LBE265
 11909 0010 32000000 		.4byte	.LBB266
 11910 0014 34000000 		.4byte	.LBE266
 11911 0018 00000000 		.4byte	0
 11912 001c 00000000 		.4byte	0
ARM GAS  /tmp/cc4ZUYx9.s 			page 210


 11913 0020 10000000 		.4byte	.LBB273
 11914 0024 14000000 		.4byte	.LBE273
 11915 0028 18000000 		.4byte	.LBB286
 11916 002c 1A000000 		.4byte	.LBE286
 11917 0030 1E000000 		.4byte	.LBB287
 11918 0034 38000000 		.4byte	.LBE287
 11919 0038 3C000000 		.4byte	.LBB288
 11920 003c 40000000 		.4byte	.LBE288
 11921 0040 44000000 		.4byte	.LBB289
 11922 0044 48000000 		.4byte	.LBE289
 11923 0048 4E000000 		.4byte	.LBB290
 11924 004c 56000000 		.4byte	.LBE290
 11925 0050 5A000000 		.4byte	.LBB291
 11926 0054 5E000000 		.4byte	.LBE291
 11927 0058 62000000 		.4byte	.LBB292
 11928 005c 6E000000 		.4byte	.LBE292
 11929 0060 00000000 		.4byte	0
 11930 0064 00000000 		.4byte	0
 11931 0068 00000000 		.4byte	.LBB310
 11932 006c 00000000 		.4byte	.LBE310
 11933 0070 00000000 		.4byte	.LBB318
 11934 0074 00000000 		.4byte	.LBE318
 11935 0078 00000000 		.4byte	.LBB319
 11936 007c 00000000 		.4byte	.LBE319
 11937 0080 04000000 		.4byte	.LBB320
 11938 0084 0A000000 		.4byte	.LBE320
 11939 0088 00000000 		.4byte	0
 11940 008c 00000000 		.4byte	0
 11941 0090 16000000 		.4byte	.LBB323
 11942 0094 1A000000 		.4byte	.LBE323
 11943 0098 1E000000 		.4byte	.LBB334
 11944 009c 24000000 		.4byte	.LBE334
 11945 00a0 28000000 		.4byte	.LBB335
 11946 00a4 38000000 		.4byte	.LBE335
 11947 00a8 3A000000 		.4byte	.LBB336
 11948 00ac 3C000000 		.4byte	.LBE336
 11949 00b0 4C000000 		.4byte	.LBB337
 11950 00b4 64000000 		.4byte	.LBE337
 11951 00b8 68000000 		.4byte	.LBB338
 11952 00bc 78000000 		.4byte	.LBE338
 11953 00c0 00000000 		.4byte	0
 11954 00c4 00000000 		.4byte	0
 11955 00c8 78000000 		.4byte	.LBB339
 11956 00cc 78000000 		.4byte	.LBE339
 11957 00d0 78000000 		.4byte	.LBB346
 11958 00d4 7C000000 		.4byte	.LBE346
 11959 00d8 00000000 		.4byte	0
 11960 00dc 00000000 		.4byte	0
 11961 00e0 00000000 		.4byte	.LBB355
 11962 00e4 04000000 		.4byte	.LBE355
 11963 00e8 06000000 		.4byte	.LBB377
 11964 00ec 06000000 		.4byte	.LBE377
 11965 00f0 08000000 		.4byte	.LBB378
 11966 00f4 6E000000 		.4byte	.LBE378
 11967 00f8 00000000 		.4byte	0
 11968 00fc 00000000 		.4byte	0
 11969 0100 10000000 		.4byte	.LBB357
ARM GAS  /tmp/cc4ZUYx9.s 			page 211


 11970 0104 14000000 		.4byte	.LBE357
 11971 0108 18000000 		.4byte	.LBB369
 11972 010c 1A000000 		.4byte	.LBE369
 11973 0110 1E000000 		.4byte	.LBB370
 11974 0114 38000000 		.4byte	.LBE370
 11975 0118 3C000000 		.4byte	.LBB371
 11976 011c 44000000 		.4byte	.LBE371
 11977 0120 4E000000 		.4byte	.LBB372
 11978 0124 56000000 		.4byte	.LBE372
 11979 0128 5A000000 		.4byte	.LBB373
 11980 012c 5E000000 		.4byte	.LBE373
 11981 0130 62000000 		.4byte	.LBB374
 11982 0134 6E000000 		.4byte	.LBE374
 11983 0138 00000000 		.4byte	0
 11984 013c 00000000 		.4byte	0
 11985 0140 00000000 		.4byte	.LBB379
 11986 0144 00000000 		.4byte	.LBE379
 11987 0148 00000000 		.4byte	.LBB387
 11988 014c 00000000 		.4byte	.LBE387
 11989 0150 00000000 		.4byte	.LBB388
 11990 0154 00000000 		.4byte	.LBE388
 11991 0158 02000000 		.4byte	.LBB389
 11992 015c 08000000 		.4byte	.LBE389
 11993 0160 00000000 		.4byte	0
 11994 0164 00000000 		.4byte	0
 11995 0168 14000000 		.4byte	.LBB390
 11996 016c 14000000 		.4byte	.LBE390
 11997 0170 14000000 		.4byte	.LBB397
 11998 0174 1A000000 		.4byte	.LBE397
 11999 0178 00000000 		.4byte	0
 12000 017c 00000000 		.4byte	0
 12001 0180 00000000 		.4byte	.LBB398
 12002 0184 00000000 		.4byte	.LBE398
 12003 0188 00000000 		.4byte	.LBB406
 12004 018c 00000000 		.4byte	.LBE406
 12005 0190 00000000 		.4byte	.LBB407
 12006 0194 00000000 		.4byte	.LBE407
 12007 0198 02000000 		.4byte	.LBB408
 12008 019c 08000000 		.4byte	.LBE408
 12009 01a0 00000000 		.4byte	0
 12010 01a4 00000000 		.4byte	0
 12011 01a8 0C000000 		.4byte	.LBB409
 12012 01ac 0E000000 		.4byte	.LBE409
 12013 01b0 24000000 		.4byte	.LBB420
 12014 01b4 26000000 		.4byte	.LBE420
 12015 01b8 28000000 		.4byte	.LBB421
 12016 01bc 54000000 		.4byte	.LBE421
 12017 01c0 58000000 		.4byte	.LBB422
 12018 01c4 5A000000 		.4byte	.LBE422
 12019 01c8 00000000 		.4byte	0
 12020 01cc 00000000 		.4byte	0
 12021 01d0 4E000000 		.4byte	.LBB411
 12022 01d4 54000000 		.4byte	.LBE411
 12023 01d8 5A000000 		.4byte	.LBB416
 12024 01dc 5A000000 		.4byte	.LBE416
 12025 01e0 00000000 		.4byte	0
 12026 01e4 00000000 		.4byte	0
ARM GAS  /tmp/cc4ZUYx9.s 			page 212


 12027 01e8 5E000000 		.4byte	.LBB423
 12028 01ec 5E000000 		.4byte	.LBE423
 12029 01f0 5E000000 		.4byte	.LBB430
 12030 01f4 62000000 		.4byte	.LBE430
 12031 01f8 00000000 		.4byte	0
 12032 01fc 00000000 		.4byte	0
 12033 0200 00000000 		.4byte	.LBB431
 12034 0204 00000000 		.4byte	.LBE431
 12035 0208 00000000 		.4byte	.LBB442
 12036 020c 00000000 		.4byte	.LBE442
 12037 0210 00000000 		.4byte	.LBB443
 12038 0214 00000000 		.4byte	.LBE443
 12039 0218 02000000 		.4byte	.LBB444
 12040 021c 04000000 		.4byte	.LBE444
 12041 0220 06000000 		.4byte	.LBB445
 12042 0224 0A000000 		.4byte	.LBE445
 12043 0228 00000000 		.4byte	0
 12044 022c 00000000 		.4byte	0
 12045 0230 10000000 		.4byte	.LBB446
 12046 0234 10000000 		.4byte	.LBE446
 12047 0238 10000000 		.4byte	.LBB453
 12048 023c 16000000 		.4byte	.LBE453
 12049 0240 00000000 		.4byte	0
 12050 0244 00000000 		.4byte	0
 12051 0248 00000000 		.4byte	.LBB454
 12052 024c 00000000 		.4byte	.LBE454
 12053 0250 00000000 		.4byte	.LBB459
 12054 0254 00000000 		.4byte	.LBE459
 12055 0258 00000000 		.4byte	.LBB460
 12056 025c 06000000 		.4byte	.LBE460
 12057 0260 00000000 		.4byte	0
 12058 0264 00000000 		.4byte	0
 12059 0268 0C000000 		.4byte	.LBB461
 12060 026c 0E000000 		.4byte	.LBE461
 12061 0270 12000000 		.4byte	.LBB472
 12062 0274 12000000 		.4byte	.LBE472
 12063 0278 12000000 		.4byte	.LBB473
 12064 027c 16000000 		.4byte	.LBE473
 12065 0280 00000000 		.4byte	0
 12066 0284 00000000 		.4byte	0
 12067 0288 0C000000 		.4byte	.LBB464
 12068 028c 0E000000 		.4byte	.LBE464
 12069 0290 12000000 		.4byte	.LBB467
 12070 0294 16000000 		.4byte	.LBE467
 12071 0298 00000000 		.4byte	0
 12072 029c 00000000 		.4byte	0
 12073 02a0 00000000 		.4byte	.LBB512
 12074 02a4 00000000 		.4byte	.LBE512
 12075 02a8 00000000 		.4byte	.LBB517
 12076 02ac 00000000 		.4byte	.LBE517
 12077 02b0 00000000 		.4byte	.LBB518
 12078 02b4 06000000 		.4byte	.LBE518
 12079 02b8 00000000 		.4byte	0
 12080 02bc 00000000 		.4byte	0
 12081 02c0 1A000000 		.4byte	.LBB519
 12082 02c4 1A000000 		.4byte	.LBE519
 12083 02c8 1A000000 		.4byte	.LBB526
ARM GAS  /tmp/cc4ZUYx9.s 			page 213


 12084 02cc 20000000 		.4byte	.LBE526
 12085 02d0 00000000 		.4byte	0
 12086 02d4 00000000 		.4byte	0
 12087 02d8 22000000 		.4byte	.LBB527
 12088 02dc 2E000000 		.4byte	.LBE527
 12089 02e0 2E000000 		.4byte	.LBB547
 12090 02e4 52000000 		.4byte	.LBE547
 12091 02e8 00000000 		.4byte	0
 12092 02ec 00000000 		.4byte	0
 12093 02f0 2A000000 		.4byte	.LBB529
 12094 02f4 2C000000 		.4byte	.LBE529
 12095 02f8 2E000000 		.4byte	.LBB540
 12096 02fc 2E000000 		.4byte	.LBE540
 12097 0300 2E000000 		.4byte	.LBB541
 12098 0304 32000000 		.4byte	.LBE541
 12099 0308 00000000 		.4byte	0
 12100 030c 00000000 		.4byte	0
 12101 0310 2A000000 		.4byte	.LBB532
 12102 0314 2C000000 		.4byte	.LBE532
 12103 0318 2E000000 		.4byte	.LBB535
 12104 031c 32000000 		.4byte	.LBE535
 12105 0320 00000000 		.4byte	0
 12106 0324 00000000 		.4byte	0
 12107 0328 08000000 		.4byte	.LBB548
 12108 032c 0A000000 		.4byte	.LBE548
 12109 0330 10000000 		.4byte	.LBB552
 12110 0334 10000000 		.4byte	.LBE552
 12111 0338 1C000000 		.4byte	.LBB555
 12112 033c 1E000000 		.4byte	.LBE555
 12113 0340 00000000 		.4byte	0
 12114 0344 00000000 		.4byte	0
 12115 0348 00000000 		.4byte	.LBB556
 12116 034c 00000000 		.4byte	.LBE556
 12117 0350 00000000 		.4byte	.LBB561
 12118 0354 00000000 		.4byte	.LBE561
 12119 0358 00000000 		.4byte	.LBB562
 12120 035c 06000000 		.4byte	.LBE562
 12121 0360 00000000 		.4byte	0
 12122 0364 00000000 		.4byte	0
 12123 0368 00000000 		.4byte	.LBB605
 12124 036c 00000000 		.4byte	.LBE605
 12125 0370 00000000 		.4byte	.LBB613
 12126 0374 00000000 		.4byte	.LBE613
 12127 0378 00000000 		.4byte	.LBB614
 12128 037c 00000000 		.4byte	.LBE614
 12129 0380 04000000 		.4byte	.LBB615
 12130 0384 0A000000 		.4byte	.LBE615
 12131 0388 00000000 		.4byte	0
 12132 038c 00000000 		.4byte	0
 12133 0390 14000000 		.4byte	.LBB616
 12134 0394 16000000 		.4byte	.LBE616
 12135 0398 18000000 		.4byte	.LBB620
 12136 039c 18000000 		.4byte	.LBE620
 12137 03a0 1A000000 		.4byte	.LBB621
 12138 03a4 1E000000 		.4byte	.LBE621
 12139 03a8 00000000 		.4byte	0
 12140 03ac 00000000 		.4byte	0
ARM GAS  /tmp/cc4ZUYx9.s 			page 214


 12141 03b0 24000000 		.4byte	.LBB622
 12142 03b4 24000000 		.4byte	.LBE622
 12143 03b8 24000000 		.4byte	.LBB629
 12144 03bc 2A000000 		.4byte	.LBE629
 12145 03c0 00000000 		.4byte	0
 12146 03c4 00000000 		.4byte	0
 12147 03c8 2A000000 		.4byte	.LBB630
 12148 03cc 2A000000 		.4byte	.LBE630
 12149 03d0 2A000000 		.4byte	.LBB669
 12150 03d4 2A000000 		.4byte	.LBE669
 12151 03d8 2A000000 		.4byte	.LBB670
 12152 03dc 30000000 		.4byte	.LBE670
 12153 03e0 30000000 		.4byte	.LBB671
 12154 03e4 44000000 		.4byte	.LBE671
 12155 03e8 44000000 		.4byte	.LBB672
 12156 03ec 48000000 		.4byte	.LBE672
 12157 03f0 4C000000 		.4byte	.LBB673
 12158 03f4 56000000 		.4byte	.LBE673
 12159 03f8 56000000 		.4byte	.LBB674
 12160 03fc 80000000 		.4byte	.LBE674
 12161 0400 00000000 		.4byte	0
 12162 0404 00000000 		.4byte	0
 12163 0408 2A000000 		.4byte	.LBB632
 12164 040c 2A000000 		.4byte	.LBE632
 12165 0410 2A000000 		.4byte	.LBB637
 12166 0414 2A000000 		.4byte	.LBE637
 12167 0418 2A000000 		.4byte	.LBB638
 12168 041c 30000000 		.4byte	.LBE638
 12169 0420 00000000 		.4byte	0
 12170 0424 00000000 		.4byte	0
 12171 0428 44000000 		.4byte	.LBB639
 12172 042c 44000000 		.4byte	.LBE639
 12173 0430 44000000 		.4byte	.LBB646
 12174 0434 48000000 		.4byte	.LBE646
 12175 0438 00000000 		.4byte	0
 12176 043c 00000000 		.4byte	0
 12177 0440 56000000 		.4byte	.LBB649
 12178 0444 56000000 		.4byte	.LBE649
 12179 0448 56000000 		.4byte	.LBB656
 12180 044c 5A000000 		.4byte	.LBE656
 12181 0450 00000000 		.4byte	0
 12182 0454 00000000 		.4byte	0
 12183 0458 00000000 		.4byte	.LBB675
 12184 045c 00000000 		.4byte	.LBE675
 12185 0460 00000000 		.4byte	.LBB683
 12186 0464 00000000 		.4byte	.LBE683
 12187 0468 00000000 		.4byte	.LBB684
 12188 046c 00000000 		.4byte	.LBE684
 12189 0470 02000000 		.4byte	.LBB685
 12190 0474 08000000 		.4byte	.LBE685
 12191 0478 00000000 		.4byte	0
 12192 047c 00000000 		.4byte	0
 12193 0480 20000000 		.4byte	.LBB686
 12194 0484 20000000 		.4byte	.LBE686
 12195 0488 20000000 		.4byte	.LBB693
 12196 048c 26000000 		.4byte	.LBE693
 12197 0490 00000000 		.4byte	0
ARM GAS  /tmp/cc4ZUYx9.s 			page 215


 12198 0494 00000000 		.4byte	0
 12199 0498 00000000 		.4byte	.LBB694
 12200 049c 00000000 		.4byte	.LBE694
 12201 04a0 00000000 		.4byte	.LBB699
 12202 04a4 00000000 		.4byte	.LBE699
 12203 04a8 00000000 		.4byte	.LBB700
 12204 04ac 06000000 		.4byte	.LBE700
 12205 04b0 00000000 		.4byte	0
 12206 04b4 00000000 		.4byte	0
 12207 04b8 0E000000 		.4byte	.LBB701
 12208 04bc 10000000 		.4byte	.LBE701
 12209 04c0 14000000 		.4byte	.LBB712
 12210 04c4 14000000 		.4byte	.LBE712
 12211 04c8 14000000 		.4byte	.LBB713
 12212 04cc 18000000 		.4byte	.LBE713
 12213 04d0 00000000 		.4byte	0
 12214 04d4 00000000 		.4byte	0
 12215 04d8 0E000000 		.4byte	.LBB704
 12216 04dc 10000000 		.4byte	.LBE704
 12217 04e0 14000000 		.4byte	.LBB707
 12218 04e4 18000000 		.4byte	.LBE707
 12219 04e8 00000000 		.4byte	0
 12220 04ec 00000000 		.4byte	0
 12221 04f0 00000000 		.4byte	.LBB714
 12222 04f4 00000000 		.4byte	.LBE714
 12223 04f8 00000000 		.4byte	.LBB722
 12224 04fc 00000000 		.4byte	.LBE722
 12225 0500 00000000 		.4byte	.LBB723
 12226 0504 00000000 		.4byte	.LBE723
 12227 0508 04000000 		.4byte	.LBB724
 12228 050c 0A000000 		.4byte	.LBE724
 12229 0510 00000000 		.4byte	0
 12230 0514 00000000 		.4byte	0
 12231 0518 10000000 		.4byte	.LBB727
 12232 051c 10000000 		.4byte	.LBE727
 12233 0520 10000000 		.4byte	.LBB734
 12234 0524 16000000 		.4byte	.LBE734
 12235 0528 00000000 		.4byte	0
 12236 052c 00000000 		.4byte	0
 12237 0530 00000000 		.4byte	.LBB735
 12238 0534 00000000 		.4byte	.LBE735
 12239 0538 00000000 		.4byte	.LBB743
 12240 053c 00000000 		.4byte	.LBE743
 12241 0540 00000000 		.4byte	.LBB744
 12242 0544 00000000 		.4byte	.LBE744
 12243 0548 02000000 		.4byte	.LBB745
 12244 054c 08000000 		.4byte	.LBE745
 12245 0550 00000000 		.4byte	0
 12246 0554 00000000 		.4byte	0
 12247 0558 08000000 		.4byte	.LBB746
 12248 055c 08000000 		.4byte	.LBE746
 12249 0560 08000000 		.4byte	.LBB751
 12250 0564 08000000 		.4byte	.LBE751
 12251 0568 08000000 		.4byte	.LBB752
 12252 056c 0E000000 		.4byte	.LBE752
 12253 0570 00000000 		.4byte	0
 12254 0574 00000000 		.4byte	0
ARM GAS  /tmp/cc4ZUYx9.s 			page 216


 12255 0578 12000000 		.4byte	.LBB753
 12256 057c 12000000 		.4byte	.LBE753
 12257 0580 12000000 		.4byte	.LBB766
 12258 0584 18000000 		.4byte	.LBE766
 12259 0588 20000000 		.4byte	.LBB769
 12260 058c 20000000 		.4byte	.LBE769
 12261 0590 20000000 		.4byte	.LBB770
 12262 0594 26000000 		.4byte	.LBE770
 12263 0598 00000000 		.4byte	0
 12264 059c 00000000 		.4byte	0
 12265 05a0 12000000 		.4byte	.LBB756
 12266 05a4 18000000 		.4byte	.LBE756
 12267 05a8 20000000 		.4byte	.LBB759
 12268 05ac 26000000 		.4byte	.LBE759
 12269 05b0 00000000 		.4byte	0
 12270 05b4 00000000 		.4byte	0
 12271 05b8 00000000 		.4byte	.LBB771
 12272 05bc 00000000 		.4byte	.LBE771
 12273 05c0 00000000 		.4byte	.LBB782
 12274 05c4 00000000 		.4byte	.LBE782
 12275 05c8 00000000 		.4byte	.LBB783
 12276 05cc 00000000 		.4byte	.LBE783
 12277 05d0 02000000 		.4byte	.LBB784
 12278 05d4 04000000 		.4byte	.LBE784
 12279 05d8 06000000 		.4byte	.LBB785
 12280 05dc 0A000000 		.4byte	.LBE785
 12281 05e0 00000000 		.4byte	0
 12282 05e4 00000000 		.4byte	0
 12283 05e8 0A000000 		.4byte	.LBB786
 12284 05ec 0A000000 		.4byte	.LBE786
 12285 05f0 0A000000 		.4byte	.LBB794
 12286 05f4 0A000000 		.4byte	.LBE794
 12287 05f8 0A000000 		.4byte	.LBB795
 12288 05fc 0E000000 		.4byte	.LBE795
 12289 0600 10000000 		.4byte	.LBB799
 12290 0604 12000000 		.4byte	.LBE799
 12291 0608 00000000 		.4byte	0
 12292 060c 00000000 		.4byte	0
 12293 0610 0E000000 		.4byte	.LBB796
 12294 0614 10000000 		.4byte	.LBE796
 12295 0618 12000000 		.4byte	.LBB800
 12296 061c 14000000 		.4byte	.LBE800
 12297 0620 00000000 		.4byte	0
 12298 0624 00000000 		.4byte	0
 12299 0628 18000000 		.4byte	.LBB801
 12300 062c 18000000 		.4byte	.LBE801
 12301 0630 18000000 		.4byte	.LBB814
 12302 0634 1E000000 		.4byte	.LBE814
 12303 0638 2A000000 		.4byte	.LBB817
 12304 063c 2A000000 		.4byte	.LBE817
 12305 0640 2A000000 		.4byte	.LBB818
 12306 0644 30000000 		.4byte	.LBE818
 12307 0648 00000000 		.4byte	0
 12308 064c 00000000 		.4byte	0
 12309 0650 18000000 		.4byte	.LBB804
 12310 0654 1E000000 		.4byte	.LBE804
 12311 0658 2A000000 		.4byte	.LBB807
ARM GAS  /tmp/cc4ZUYx9.s 			page 217


 12312 065c 30000000 		.4byte	.LBE807
 12313 0660 00000000 		.4byte	0
 12314 0664 00000000 		.4byte	0
 12315 0668 00000000 		.4byte	.LBB832
 12316 066c 00000000 		.4byte	.LBE832
 12317 0670 00000000 		.4byte	.LBB840
 12318 0674 00000000 		.4byte	.LBE840
 12319 0678 00000000 		.4byte	.LBB841
 12320 067c 00000000 		.4byte	.LBE841
 12321 0680 02000000 		.4byte	.LBB842
 12322 0684 08000000 		.4byte	.LBE842
 12323 0688 00000000 		.4byte	0
 12324 068c 00000000 		.4byte	0
 12325 0690 08000000 		.4byte	.LBB843
 12326 0694 16000000 		.4byte	.LBE843
 12327 0698 1E000000 		.4byte	.LBB862
 12328 069c 22000000 		.4byte	.LBE862
 12329 06a0 00000000 		.4byte	0
 12330 06a4 00000000 		.4byte	0
 12331 06a8 16000000 		.4byte	.LBB848
 12332 06ac 16000000 		.4byte	.LBE848
 12333 06b0 16000000 		.4byte	.LBB861
 12334 06b4 1C000000 		.4byte	.LBE861
 12335 06b8 22000000 		.4byte	.LBB863
 12336 06bc 22000000 		.4byte	.LBE863
 12337 06c0 22000000 		.4byte	.LBB864
 12338 06c4 28000000 		.4byte	.LBE864
 12339 06c8 00000000 		.4byte	0
 12340 06cc 00000000 		.4byte	0
 12341 06d0 16000000 		.4byte	.LBB851
 12342 06d4 1C000000 		.4byte	.LBE851
 12343 06d8 22000000 		.4byte	.LBB854
 12344 06dc 28000000 		.4byte	.LBE854
 12345 06e0 00000000 		.4byte	0
 12346 06e4 00000000 		.4byte	0
 12347 06e8 00000000 		.4byte	.LBB865
 12348 06ec 00000000 		.4byte	.LBE865
 12349 06f0 02000000 		.4byte	.LBB869
 12350 06f4 04000000 		.4byte	.LBE869
 12351 06f8 06000000 		.4byte	.LBB870
 12352 06fc 08000000 		.4byte	.LBE870
 12353 0700 00000000 		.4byte	0
 12354 0704 00000000 		.4byte	0
 12355 0708 02000000 		.4byte	.LBB877
 12356 070c 04000000 		.4byte	.LBE877
 12357 0710 06000000 		.4byte	.LBB885
 12358 0714 06000000 		.4byte	.LBE885
 12359 0718 06000000 		.4byte	.LBB886
 12360 071c 06000000 		.4byte	.LBE886
 12361 0720 06000000 		.4byte	.LBB887
 12362 0724 0A000000 		.4byte	.LBE887
 12363 0728 00000000 		.4byte	0
 12364 072c 00000000 		.4byte	0
 12365 0730 02000000 		.4byte	.LBB878
 12366 0734 04000000 		.4byte	.LBE878
 12367 0738 06000000 		.4byte	.LBB883
 12368 073c 06000000 		.4byte	.LBE883
ARM GAS  /tmp/cc4ZUYx9.s 			page 218


 12369 0740 06000000 		.4byte	.LBB884
 12370 0744 0A000000 		.4byte	.LBE884
 12371 0748 00000000 		.4byte	0
 12372 074c 00000000 		.4byte	0
 12373 0750 02000000 		.4byte	.LBB879
 12374 0754 04000000 		.4byte	.LBE879
 12375 0758 06000000 		.4byte	.LBB882
 12376 075c 0A000000 		.4byte	.LBE882
 12377 0760 00000000 		.4byte	0
 12378 0764 00000000 		.4byte	0
 12379 0768 16000000 		.4byte	.LBB891
 12380 076c 16000000 		.4byte	.LBE891
 12381 0770 16000000 		.4byte	.LBB898
 12382 0774 1C000000 		.4byte	.LBE898
 12383 0778 00000000 		.4byte	0
 12384 077c 00000000 		.4byte	0
 12385 0780 08000000 		.4byte	.LBB899
 12386 0784 0C000000 		.4byte	.LBE899
 12387 0788 0C000000 		.4byte	.LBB904
 12388 078c 10000000 		.4byte	.LBE904
 12389 0790 12000000 		.4byte	.LBB905
 12390 0794 14000000 		.4byte	.LBE905
 12391 0798 16000000 		.4byte	.LBB906
 12392 079c 18000000 		.4byte	.LBE906
 12393 07a0 00000000 		.4byte	0
 12394 07a4 00000000 		.4byte	0
 12395 07a8 04000000 		.4byte	.LBB913
 12396 07ac 06000000 		.4byte	.LBE913
 12397 07b0 18000000 		.4byte	.LBB920
 12398 07b4 1A000000 		.4byte	.LBE920
 12399 07b8 00000000 		.4byte	0
 12400 07bc 00000000 		.4byte	0
 12401 07c0 00000000 		.4byte	.LFB246
 12402 07c4 3C000000 		.4byte	.LFE246
 12403 07c8 00000000 		.4byte	.LFB247
 12404 07cc 7C000000 		.4byte	.LFE247
 12405 07d0 00000000 		.4byte	.LFB248
 12406 07d4 88000000 		.4byte	.LFE248
 12407 07d8 00000000 		.4byte	.LFB249
 12408 07dc 7C000000 		.4byte	.LFE249
 12409 07e0 00000000 		.4byte	.LFB250
 12410 07e4 1E000000 		.4byte	.LFE250
 12411 07e8 00000000 		.4byte	.LFB251
 12412 07ec 74000000 		.4byte	.LFE251
 12413 07f0 00000000 		.4byte	.LFB252
 12414 07f4 1A000000 		.4byte	.LFE252
 12415 07f8 00000000 		.4byte	.LFB253
 12416 07fc 18000000 		.4byte	.LFE253
 12417 0800 00000000 		.4byte	.LFB254
 12418 0804 52000000 		.4byte	.LFE254
 12419 0808 00000000 		.4byte	.LFB256
 12420 080c 48000000 		.4byte	.LFE256
 12421 0810 00000000 		.4byte	.LFB255
 12422 0814 0A000000 		.4byte	.LFE255
 12423 0818 00000000 		.4byte	.LFB257
 12424 081c 80000000 		.4byte	.LFE257
 12425 0820 00000000 		.4byte	.LFB258
ARM GAS  /tmp/cc4ZUYx9.s 			page 219


 12426 0824 30000000 		.4byte	.LFE258
 12427 0828 00000000 		.4byte	.LFB259
 12428 082c 1A000000 		.4byte	.LFE259
 12429 0830 00000000 		.4byte	.LFB260
 12430 0834 18000000 		.4byte	.LFE260
 12431 0838 00000000 		.4byte	.LFB261
 12432 083c 28000000 		.4byte	.LFE261
 12433 0840 00000000 		.4byte	.LFB262
 12434 0844 34000000 		.4byte	.LFE262
 12435 0848 00000000 		.4byte	.LFB263
 12436 084c 30000000 		.4byte	.LFE263
 12437 0850 00000000 		.4byte	.LFB264
 12438 0854 1C000000 		.4byte	.LFE264
 12439 0858 00000000 		.4byte	.LFB265
 12440 085c 1C000000 		.4byte	.LFE265
 12441 0860 00000000 		.4byte	.LFB266
 12442 0864 12000000 		.4byte	.LFE266
 12443 0868 00000000 		.4byte	.LFB267
 12444 086c 10000000 		.4byte	.LFE267
 12445 0870 00000000 		.4byte	.LFB268
 12446 0874 1E000000 		.4byte	.LFE268
 12447 0878 00000000 		.4byte	.LFB269
 12448 087c 28000000 		.4byte	.LFE269
 12449 0880 00000000 		.4byte	.LFB270
 12450 0884 16000000 		.4byte	.LFE270
 12451 0888 00000000 		.4byte	.LFB271
 12452 088c 20000000 		.4byte	.LFE271
 12453 0890 00000000 		.4byte	0
 12454 0894 00000000 		.4byte	0
 12455              		.section	.debug_line,"",%progbits
 12456              	.Ldebug_line0:
 12457 0000 C3160000 		.section	.debug_str,"MS",%progbits,1
 12457      03002D02 
 12457      00000201 
 12457      FB0E0D00 
 12457      01010101 
 12458              	.LASF169:
 12459 0000 2F686F6D 		.ascii	"/home/tfateba/nlab/ip/trunk/demos/STM32/RT-STM32F40"
 12459      652F7466 
 12459      61746562 
 12459      612F6E6C 
 12459      61622F69 
 12460 0033 372D4449 		.ascii	"7-DISCOVERY-G++\000"
 12460      53434F56 
 12460      4552592D 
 12460      472B2B00 
 12461              	.LASF95:
 12462 0043 7466756E 		.ascii	"tfunc_t\000"
 12462      635F7400 
 12463              	.LASF119:
 12464 004b 6F6C6470 		.ascii	"oldprio\000"
 12464      72696F00 
 12465              	.LASF48:
 12466 0053 72656164 		.ascii	"ready_list_t\000"
 12466      795F6C69 
 12466      73745F74 
 12466      00
ARM GAS  /tmp/cc4ZUYx9.s 			page 220


 12467              	.LASF72:
 12468 0060 44494552 		.ascii	"DIER\000"
 12468      00
 12469              	.LASF5:
 12470 0065 73697A65 		.ascii	"size_t\000"
 12470      5F7400
 12471              	.LASF44:
 12472 006c 6E657874 		.ascii	"next\000"
 12472      00
 12473              	.LASF54:
 12474 0071 64656C74 		.ascii	"delta\000"
 12474      6100
 12475              	.LASF83:
 12476 0077 7264796D 		.ascii	"rdymsg\000"
 12476      736700
 12477              	.LASF98:
 12478 007e 66756E63 		.ascii	"funcp\000"
 12478      7000
 12479              	.LASF13:
 12480 0084 75696E74 		.ascii	"uint64_t\000"
 12480      36345F74 
 12480      00
 12481              	.LASF102:
 12482 008d 63685468 		.ascii	"chThdDequeueAllI\000"
 12482      64446571 
 12482      75657565 
 12482      416C6C49 
 12482      00
 12483              	.LASF103:
 12484 009e 63685468 		.ascii	"chThdDequeueNextI\000"
 12484      64446571 
 12484      75657565 
 12484      4E657874 
 12484      4900
 12485              	.LASF47:
 12486 00b0 70726576 		.ascii	"prev\000"
 12486      00
 12487              	.LASF70:
 12488 00b5 706F7274 		.ascii	"port_intctx\000"
 12488      5F696E74 
 12488      63747800 
 12489              	.LASF59:
 12490 00c1 73797374 		.ascii	"system_debug_t\000"
 12490      656D5F64 
 12490      65627567 
 12490      5F7400
 12491              	.LASF112:
 12492 00d0 63685468 		.ascii	"chThdSleepUntilWindowed\000"
 12492      64536C65 
 12492      6570556E 
 12492      74696C57 
 12492      696E646F 
 12493              	.LASF150:
 12494 00e8 71756575 		.ascii	"queue_init\000"
 12494      655F696E 
 12494      697400
 12495              	.LASF99:
ARM GAS  /tmp/cc4ZUYx9.s 			page 221


 12496 00f3 74687265 		.ascii	"thread_descriptor_t\000"
 12496      61645F64 
 12496      65736372 
 12496      6970746F 
 12496      725F7400 
 12497              	.LASF156:
 12498 0107 706F7274 		.ascii	"port_lock\000"
 12498      5F6C6F63 
 12498      6B00
 12499              	.LASF69:
 12500 0111 706F7274 		.ascii	"port_context\000"
 12500      5F636F6E 
 12500      74657874 
 12500      00
 12501              	.LASF97:
 12502 011e 77656E64 		.ascii	"wend\000"
 12502      00
 12503              	.LASF14:
 12504 0123 6C6F6E67 		.ascii	"long long unsigned int\000"
 12504      206C6F6E 
 12504      6720756E 
 12504      7369676E 
 12504      65642069 
 12505              	.LASF84:
 12506 013a 65786974 		.ascii	"exitcode\000"
 12506      636F6465 
 12506      00
 12507              	.LASF66:
 12508 0143 6D61696E 		.ascii	"mainthread\000"
 12508      74687265 
 12508      616400
 12509              	.LASF87:
 12510 014e 73656E74 		.ascii	"sentmsg\000"
 12510      6D736700 
 12511              	.LASF56:
 12512 0156 76697274 		.ascii	"virtual_timers_list_t\000"
 12512      75616C5F 
 12512      74696D65 
 12512      72735F6C 
 12512      6973745F 
 12513              	.LASF76:
 12514 016c 42445452 		.ascii	"BDTR\000"
 12514      00
 12515              	.LASF46:
 12516 0171 63685F74 		.ascii	"ch_threads_queue\000"
 12516      68726561 
 12516      64735F71 
 12516      75657565 
 12516      00
 12517              	.LASF152:
 12518 0182 6C697374 		.ascii	"list_init\000"
 12518      5F696E69 
 12518      7400
 12519              	.LASF61:
 12520 018c 70616E69 		.ascii	"panic_msg\000"
 12520      635F6D73 
 12520      6700
ARM GAS  /tmp/cc4ZUYx9.s 			page 222


 12521              	.LASF105:
 12522 0196 63685468 		.ascii	"chThdResume\000"
 12522      64526573 
 12522      756D6500 
 12523              	.LASF73:
 12524 01a2 43434D52 		.ascii	"CCMR1\000"
 12524      3100
 12525              	.LASF74:
 12526 01a8 43434D52 		.ascii	"CCMR2\000"
 12526      3200
 12527              	.LASF78:
 12528 01ae 43434D52 		.ascii	"CCMR3\000"
 12528      3300
 12529              	.LASF3:
 12530 01b4 7369676E 		.ascii	"signed char\000"
 12530      65642063 
 12530      68617200 
 12531              	.LASF122:
 12532 01c0 63685468 		.ascii	"chThdExit\000"
 12532      64457869 
 12532      7400
 12533              	.LASF144:
 12534 01ca 63685363 		.ascii	"chSchCanYieldS\000"
 12534      6843616E 
 12534      5969656C 
 12534      645300
 12535              	.LASF132:
 12536 01d9 63685468 		.ascii	"chThdCreateSuspendedI\000"
 12536      64437265 
 12536      61746553 
 12536      75737065 
 12536      6E646564 
 12537              	.LASF166:
 12538 01ef 63684865 		.ascii	"chHeapFree\000"
 12538      61704672 
 12538      656500
 12539              	.LASF65:
 12540 01fa 76746C69 		.ascii	"vtlist\000"
 12540      737400
 12541              	.LASF155:
 12542 0201 706F7274 		.ascii	"port_unlock\000"
 12542      5F756E6C 
 12542      6F636B00 
 12543              	.LASF130:
 12544 020d 63685468 		.ascii	"chThdCreateI\000"
 12544      64437265 
 12544      61746549 
 12544      00
 12545              	.LASF31:
 12546 021a 73746174 		.ascii	"state\000"
 12546      6500
 12547              	.LASF7:
 12548 0220 6C6F6E67 		.ascii	"long int\000"
 12548      20696E74 
 12548      00
 12549              	.LASF17:
 12550 0229 74737461 		.ascii	"tstate_t\000"
ARM GAS  /tmp/cc4ZUYx9.s 			page 223


 12550      74655F74 
 12550      00
 12551              	.LASF149:
 12552 0232 71756575 		.ascii	"queue_notempty\000"
 12552      655F6E6F 
 12552      74656D70 
 12552      747900
 12553              	.LASF55:
 12554 0241 66756E63 		.ascii	"func\000"
 12554      00
 12555              	.LASF75:
 12556 0246 43434552 		.ascii	"CCER\000"
 12556      00
 12557              	.LASF1:
 12558 024b 6C6F6E67 		.ascii	"long long int\000"
 12558      206C6F6E 
 12558      6720696E 
 12558      7400
 12559              	.LASF25:
 12560 0259 71756575 		.ascii	"queue\000"
 12560      6500
 12561              	.LASF147:
 12562 025f 6C697374 		.ascii	"list_remove\000"
 12562      5F72656D 
 12562      6F766500 
 12563              	.LASF164:
 12564 026b 63685363 		.ascii	"chSchRescheduleS\000"
 12564      68526573 
 12564      63686564 
 12564      756C6553 
 12564      00
 12565              	.LASF106:
 12566 027c 63685468 		.ascii	"chThdResumeI\000"
 12566      64526573 
 12566      756D6549 
 12566      00
 12567              	.LASF67:
 12568 0289 72656761 		.ascii	"regarm_t\000"
 12568      726D5F74 
 12568      00
 12569              	.LASF123:
 12570 0292 63685468 		.ascii	"chThdResumeS\000"
 12570      64526573 
 12570      756D6553 
 12570      00
 12571              	.LASF100:
 12572 029f 6D757465 		.ascii	"mutex_t\000"
 12572      785F7400 
 12573              	.LASF158:
 12574 02a7 76616C75 		.ascii	"value\000"
 12574      6500
 12575              	.LASF117:
 12576 02ad 63685468 		.ascii	"chThdSetPriority\000"
 12576      64536574 
 12576      5072696F 
 12576      72697479 
 12576      00
ARM GAS  /tmp/cc4ZUYx9.s 			page 224


 12577              	.LASF22:
 12578 02be 636E745F 		.ascii	"cnt_t\000"
 12578      7400
 12579              	.LASF140:
 12580 02c4 63685654 		.ascii	"chVTGetSystemTimeX\000"
 12580      47657453 
 12580      79737465 
 12580      6D54696D 
 12580      655800
 12581              	.LASF0:
 12582 02d7 756E7369 		.ascii	"unsigned int\000"
 12582      676E6564 
 12582      20696E74 
 12582      00
 12583              	.LASF133:
 12584 02e4 5F746872 		.ascii	"_thread_init\000"
 12584      6561645F 
 12584      696E6974 
 12584      00
 12585              	.LASF88:
 12586 02f1 77747365 		.ascii	"wtsemp\000"
 12586      6D7000
 12587              	.LASF86:
 12588 02f8 77747472 		.ascii	"wttrp\000"
 12588      7000
 12589              	.LASF135:
 12590 02fe 63685468 		.ascii	"chThdSleepS\000"
 12590      64536C65 
 12590      65705300 
 12591              	.LASF104:
 12592 030a 74696D65 		.ascii	"timeout\000"
 12592      6F757400 
 12593              	.LASF29:
 12594 0312 6E616D65 		.ascii	"name\000"
 12594      00
 12595              	.LASF39:
 12596 0317 6D706F6F 		.ascii	"mpool\000"
 12596      6C00
 12597              	.LASF71:
 12598 031d 534D4352 		.ascii	"SMCR\000"
 12598      00
 12599              	.LASF42:
 12600 0322 63685F74 		.ascii	"ch_thread\000"
 12600      68726561 
 12600      6400
 12601              	.LASF20:
 12602 032c 6D73675F 		.ascii	"msg_t\000"
 12602      7400
 12603              	.LASF36:
 12604 0332 6570656E 		.ascii	"epending\000"
 12604      64696E67 
 12604      00
 12605              	.LASF62:
 12606 033b 63685F73 		.ascii	"ch_system_t\000"
 12606      79737465 
 12606      6D5F7400 
 12607              	.LASF146:
ARM GAS  /tmp/cc4ZUYx9.s 			page 225


 12608 0347 71756575 		.ascii	"queue_insert\000"
 12608      655F696E 
 12608      73657274 
 12608      00
 12609              	.LASF118:
 12610 0354 6E657770 		.ascii	"newprio\000"
 12610      72696F00 
 12611              	.LASF80:
 12612 035c 73746D33 		.ascii	"stm32_tim_t\000"
 12612      325F7469 
 12612      6D5F7400 
 12613              	.LASF116:
 12614 0368 63685468 		.ascii	"chThdTerminate\000"
 12614      64546572 
 12614      6D696E61 
 12614      746500
 12615              	.LASF49:
 12616 0377 63685F72 		.ascii	"ch_ready_list\000"
 12616      65616479 
 12616      5F6C6973 
 12616      7400
 12617              	.LASF21:
 12618 0385 6576656E 		.ascii	"eventmask_t\000"
 12618      746D6173 
 12618      6B5F7400 
 12619              	.LASF125:
 12620 0391 63685468 		.ascii	"chThdAddRef\000"
 12620      64416464 
 12620      52656600 
 12621              	.LASF35:
 12622 039d 6D736771 		.ascii	"msgqueue\000"
 12622      75657565 
 12622      00
 12623              	.LASF68:
 12624 03a6 73746B61 		.ascii	"stkalign_t\000"
 12624      6C69676E 
 12624      5F7400
 12625              	.LASF127:
 12626 03b1 63685468 		.ascii	"chThdCreateStatic\000"
 12626      64437265 
 12626      61746553 
 12626      74617469 
 12626      6300
 12627              	.LASF41:
 12628 03c3 74687265 		.ascii	"threads_list_t\000"
 12628      6164735F 
 12628      6C697374 
 12628      5F7400
 12629              	.LASF38:
 12630 03d2 7265616C 		.ascii	"realprio\000"
 12630      7072696F 
 12630      00
 12631              	.LASF109:
 12632 03db 63685468 		.ascii	"chThdSuspendTimeoutS\000"
 12632      64537573 
 12632      70656E64 
 12632      54696D65 
ARM GAS  /tmp/cc4ZUYx9.s 			page 226


 12632      6F757453 
 12633              	.LASF15:
 12634 03f0 7274636E 		.ascii	"rtcnt_t\000"
 12634      745F7400 
 12635              	.LASF40:
 12636 03f8 74687265 		.ascii	"thread_reference_t\000"
 12636      61645F72 
 12636      65666572 
 12636      656E6365 
 12636      5F7400
 12637              	.LASF57:
 12638 040b 63685F76 		.ascii	"ch_virtual_timers_list\000"
 12638      69727475 
 12638      616C5F74 
 12638      696D6572 
 12638      735F6C69 
 12639              	.LASF2:
 12640 0422 6C6F6E67 		.ascii	"long double\000"
 12640      20646F75 
 12640      626C6500 
 12641              	.LASF167:
 12642 042e 474E5520 		.ascii	"GNU C17 10.3.1 20210621 (release) -mcpu=cortex-m4 -"
 12642      43313720 
 12642      31302E33 
 12642      2E312032 
 12642      30323130 
 12643 0461 6D6E6F2D 		.ascii	"mno-thumb-interwork -mthumb -mfloat-abi=soft -march"
 12643      7468756D 
 12643      622D696E 
 12643      74657277 
 12643      6F726B20 
 12644 0494 3D61726D 		.ascii	"=armv7e-m -ggdb -O2 -fomit-frame-pointer -falign-fu"
 12644      7637652D 
 12644      6D202D67 
 12644      67646220 
 12644      2D4F3220 
 12645 04c7 6E637469 		.ascii	"nctions=16 -ffunction-sections -fdata-sections -fno"
 12645      6F6E733D 
 12645      3136202D 
 12645      6666756E 
 12645      6374696F 
 12646 04fa 2D636F6D 		.ascii	"-common\000"
 12646      6D6F6E00 
 12647              	.LASF163:
 12648 0502 63685363 		.ascii	"chSchDoRescheduleBehind\000"
 12648      68446F52 
 12648      65736368 
 12648      6564756C 
 12648      65426568 
 12649              	.LASF96:
 12650 051a 77626173 		.ascii	"wbase\000"
 12650      6500
 12651              	.LASF82:
 12652 0520 746D5F63 		.ascii	"tm_calibration_t\000"
 12652      616C6962 
 12652      72617469 
 12652      6F6E5F74 
ARM GAS  /tmp/cc4ZUYx9.s 			page 227


 12652      00
 12653              	.LASF113:
 12654 0531 74696D65 		.ascii	"time\000"
 12654      00
 12655              	.LASF148:
 12656 0536 6C697374 		.ascii	"list_insert\000"
 12656      5F696E73 
 12656      65727400 
 12657              	.LASF26:
 12658 0542 7072696F 		.ascii	"prio\000"
 12658      00
 12659              	.LASF114:
 12660 0547 63685468 		.ascii	"chThdSleepUntil\000"
 12660      64536C65 
 12660      6570556E 
 12660      74696C00 
 12661              	.LASF126:
 12662 0557 63685468 		.ascii	"chThdStart\000"
 12662      64537461 
 12662      727400
 12663              	.LASF50:
 12664 0562 63757272 		.ascii	"current\000"
 12664      656E7400 
 12665              	.LASF110:
 12666 056a 63685468 		.ascii	"chThdSuspendS\000"
 12666      64537573 
 12666      70656E64 
 12666      5300
 12667              	.LASF129:
 12668 0578 63685468 		.ascii	"chThdCreate\000"
 12668      64437265 
 12668      61746500 
 12669              	.LASF18:
 12670 0584 74726566 		.ascii	"trefs_t\000"
 12670      735F7400 
 12671              	.LASF33:
 12672 058c 72656673 		.ascii	"refs\000"
 12672      00
 12673              	.LASF52:
 12674 0591 76697274 		.ascii	"virtual_timer_t\000"
 12674      75616C5F 
 12674      74696D65 
 12674      725F7400 
 12675              	.LASF19:
 12676 05a1 74707269 		.ascii	"tprio_t\000"
 12676      6F5F7400 
 12677              	.LASF168:
 12678 05a9 2E2E2F2E 		.ascii	"../../../os/rt/src/chthreads.c\000"
 12678      2E2F2E2E 
 12678      2F6F732F 
 12678      72742F73 
 12678      72632F63 
 12679              	.LASF162:
 12680 05c8 63685363 		.ascii	"chSchGoSleepS\000"
 12680      68476F53 
 12680      6C656570 
 12680      5300
ARM GAS  /tmp/cc4ZUYx9.s 			page 228


 12681              	.LASF60:
 12682 05d6 63685F73 		.ascii	"ch_system_debug\000"
 12682      79737465 
 12682      6D5F6465 
 12682      62756700 
 12683              	.LASF101:
 12684 05e6 5F426F6F 		.ascii	"_Bool\000"
 12684      6C00
 12685              	.LASF6:
 12686 05ec 696E7433 		.ascii	"int32_t\000"
 12686      325F7400 
 12687              	.LASF9:
 12688 05f4 756E7369 		.ascii	"unsigned char\000"
 12688      676E6564 
 12688      20636861 
 12688      7200
 12689              	.LASF4:
 12690 0602 73686F72 		.ascii	"short int\000"
 12690      7420696E 
 12690      7400
 12691              	.LASF58:
 12692 060c 6C617374 		.ascii	"lasttime\000"
 12692      74696D65 
 12692      00
 12693              	.LASF136:
 12694 0615 63685468 		.ascii	"chThdGetWorkingAreaX\000"
 12694      64476574 
 12694      576F726B 
 12694      696E6741 
 12694      72656158 
 12695              	.LASF34:
 12696 062a 77616974 		.ascii	"waiting\000"
 12696      696E6700 
 12697              	.LASF90:
 12698 0632 65776D61 		.ascii	"ewmask\000"
 12698      736B00
 12699              	.LASF63:
 12700 0639 63685F73 		.ascii	"ch_system\000"
 12700      79737465 
 12700      6D00
 12701              	.LASF107:
 12702 0643 5F5F6675 		.ascii	"__func__\000"
 12702      6E635F5F 
 12702      00
 12703              	.LASF142:
 12704 064c 63685379 		.ascii	"chSysLock\000"
 12704      734C6F63 
 12704      6B00
 12705              	.LASF124:
 12706 0656 63685468 		.ascii	"chThdRelease\000"
 12706      6452656C 
 12706      65617365 
 12706      00
 12707              	.LASF53:
 12708 0663 63685F76 		.ascii	"ch_virtual_timer\000"
 12708      69727475 
 12708      616C5F74 
ARM GAS  /tmp/cc4ZUYx9.s 			page 229


 12708      696D6572 
 12708      00
 12709              	.LASF91:
 12710 0674 63685F73 		.ascii	"ch_semaphore\000"
 12710      656D6170 
 12710      686F7265 
 12710      00
 12711              	.LASF79:
 12712 0681 43435852 		.ascii	"CCXR\000"
 12712      00
 12713              	.LASF115:
 12714 0686 63685468 		.ascii	"chThdSleep\000"
 12714      64536C65 
 12714      657000
 12715              	.LASF154:
 12716 0691 73745F6C 		.ascii	"st_lld_get_counter\000"
 12716      6C645F67 
 12716      65745F63 
 12716      6F756E74 
 12716      657200
 12717              	.LASF11:
 12718 06a4 75696E74 		.ascii	"uint32_t\000"
 12718      33325F74 
 12718      00
 12719              	.LASF89:
 12720 06ad 77746D74 		.ascii	"wtmtxp\000"
 12720      787000
 12721              	.LASF159:
 12722 06b4 63685363 		.ascii	"chSchReadyI\000"
 12722      68526561 
 12722      64794900 
 12723              	.LASF43:
 12724 06c0 63685F74 		.ascii	"ch_threads_list\000"
 12724      68726561 
 12724      64735F6C 
 12724      69737400 
 12725              	.LASF93:
 12726 06d0 6F776E65 		.ascii	"owner\000"
 12726      7200
 12727              	.LASF12:
 12728 06d6 6C6F6E67 		.ascii	"long unsigned int\000"
 12728      20756E73 
 12728      69676E65 
 12728      6420696E 
 12728      7400
 12729              	.LASF30:
 12730 06e8 77616261 		.ascii	"wabase\000"
 12730      736500
 12731              	.LASF94:
 12732 06ef 63686172 		.ascii	"char\000"
 12732      00
 12733              	.LASF28:
 12734 06f4 6F6C6465 		.ascii	"older\000"
 12734      7200
 12735              	.LASF77:
 12736 06fa 444D4152 		.ascii	"DMAR\000"
 12736      00
ARM GAS  /tmp/cc4ZUYx9.s 			page 230


 12737              	.LASF24:
 12738 06ff 74687265 		.ascii	"thread_t\000"
 12738      61645F74 
 12738      00
 12739              	.LASF134:
 12740 0708 63685468 		.ascii	"chThdDoDequeueNextI\000"
 12740      64446F44 
 12740      65717565 
 12740      75654E65 
 12740      78744900 
 12741              	.LASF145:
 12742 071c 71756575 		.ascii	"queue_fifo_remove\000"
 12742      655F6669 
 12742      666F5F72 
 12742      656D6F76 
 12742      6500
 12743              	.LASF23:
 12744 072e 73797374 		.ascii	"systime_t\000"
 12744      696D655F 
 12744      7400
 12745              	.LASF51:
 12746 0738 76746675 		.ascii	"vtfunc_t\000"
 12746      6E635F74 
 12746      00
 12747              	.LASF157:
 12748 0741 5F5F7365 		.ascii	"__set_BASEPRI\000"
 12748      745F4241 
 12748      53455052 
 12748      4900
 12749              	.LASF81:
 12750 074f 6F666673 		.ascii	"offset\000"
 12750      657400
 12751              	.LASF10:
 12752 0756 73686F72 		.ascii	"short unsigned int\000"
 12752      7420756E 
 12752      7369676E 
 12752      65642069 
 12752      6E7400
 12753              	.LASF153:
 12754 0769 706F7274 		.ascii	"port_timer_get_time\000"
 12754      5F74696D 
 12754      65725F67 
 12754      65745F74 
 12754      696D6500 
 12755              	.LASF27:
 12756 077d 6E657765 		.ascii	"newer\000"
 12756      7200
 12757              	.LASF120:
 12758 0783 63685468 		.ascii	"chThdWait\000"
 12758      64576169 
 12758      7400
 12759              	.LASF161:
 12760 078d 63685363 		.ascii	"chSchWakeupS\000"
 12760      6857616B 
 12760      65757053 
 12760      00
 12761              	.LASF131:
ARM GAS  /tmp/cc4ZUYx9.s 			page 231


 12762 079a 63685468 		.ascii	"chThdCreateSuspended\000"
 12762      64437265 
 12762      61746553 
 12762      75737065 
 12762      6E646564 
 12763              	.LASF45:
 12764 07af 74687265 		.ascii	"threads_queue_t\000"
 12764      6164735F 
 12764      71756575 
 12764      655F7400 
 12765              	.LASF92:
 12766 07bf 63685F6D 		.ascii	"ch_mutex\000"
 12766      75746578 
 12766      00
 12767              	.LASF64:
 12768 07c8 726C6973 		.ascii	"rlist\000"
 12768      7400
 12769              	.LASF139:
 12770 07ce 63685468 		.ascii	"chThdGetSelfX\000"
 12770      64476574 
 12770      53656C66 
 12770      5800
 12771              	.LASF8:
 12772 07dc 75696E74 		.ascii	"uint8_t\000"
 12772      385F7400 
 12773              	.LASF165:
 12774 07e4 6368506F 		.ascii	"chPoolFree\000"
 12774      6F6C4672 
 12774      656500
 12775              	.LASF32:
 12776 07ef 666C6167 		.ascii	"flags\000"
 12776      7300
 12777              	.LASF111:
 12778 07f5 63685468 		.ascii	"chThdYield\000"
 12778      64596965 
 12778      6C6400
 12779              	.LASF85:
 12780 0800 77746F62 		.ascii	"wtobjp\000"
 12780      6A7000
 12781              	.LASF143:
 12782 0807 63685363 		.ascii	"chSchDoYieldS\000"
 12782      68446F59 
 12782      69656C64 
 12782      5300
 12783              	.LASF128:
 12784 0815 73697A65 		.ascii	"size\000"
 12784      00
 12785              	.LASF151:
 12786 081a 6C697374 		.ascii	"list_notempty\000"
 12786      5F6E6F74 
 12786      656D7074 
 12786      7900
 12787              	.LASF137:
 12788 0828 63685654 		.ascii	"chVTIsTimeWithinX\000"
 12788      49735469 
 12788      6D655769 
 12788      7468696E 
ARM GAS  /tmp/cc4ZUYx9.s 			page 232


 12788      5800
 12789              	.LASF16:
 12790 083a 746D6F64 		.ascii	"tmode_t\000"
 12790      655F7400 
 12791              	.LASF160:
 12792 0842 63685363 		.ascii	"chSchGoSleepTimeoutS\000"
 12792      68476F53 
 12792      6C656570 
 12792      54696D65 
 12792      6F757453 
 12793              	.LASF141:
 12794 0857 63685379 		.ascii	"chSysUnlock\000"
 12794      73556E6C 
 12794      6F636B00 
 12795              	.LASF138:
 12796 0863 73746172 		.ascii	"start\000"
 12796      7400
 12797              	.LASF37:
 12798 0869 6D74786C 		.ascii	"mtxlist\000"
 12798      69737400 
 12799              	.LASF108:
 12800 0871 63685468 		.ascii	"chThdEnqueueTimeoutS\000"
 12800      64456E71 
 12800      75657565 
 12800      54696D65 
 12800      6F757453 
 12801              	.LASF121:
 12802 0886 63685468 		.ascii	"chThdExitS\000"
 12802      64457869 
 12802      745300
 12803              		.ident	"GCC: (15:10.3-2021.07-4) 10.3.1 20210621 (release)"
ARM GAS  /tmp/cc4ZUYx9.s 			page 233


DEFINED SYMBOLS
                            *ABS*:0000000000000000 chthreads.c
     /tmp/cc4ZUYx9.s:16     .text._thread_init:0000000000000000 $t
     /tmp/cc4ZUYx9.s:25     .text._thread_init:0000000000000000 _thread_init
     /tmp/cc4ZUYx9.s:125    .text._thread_init:0000000000000038 $d
     /tmp/cc4ZUYx9.s:130    .text.chThdCreateSuspendedI:0000000000000000 $t
     /tmp/cc4ZUYx9.s:138    .text.chThdCreateSuspendedI:0000000000000000 chThdCreateSuspendedI
     /tmp/cc4ZUYx9.s:314    .text.chThdCreateSuspendedI:0000000000000074 $d
     /tmp/cc4ZUYx9.s:320    .text.chThdCreateSuspended:0000000000000000 $t
     /tmp/cc4ZUYx9.s:328    .text.chThdCreateSuspended:0000000000000000 chThdCreateSuspended
     /tmp/cc4ZUYx9.s:596    .text.chThdCreateSuspended:0000000000000080 $d
     /tmp/cc4ZUYx9.s:602    .text.chThdCreateI:0000000000000000 $t
     /tmp/cc4ZUYx9.s:610    .text.chThdCreateI:0000000000000000 chThdCreateI
     /tmp/cc4ZUYx9.s:801    .text.chThdCreateI:0000000000000074 $d
     /tmp/cc4ZUYx9.s:807    .text.chThdCreate:0000000000000000 $t
     /tmp/cc4ZUYx9.s:815    .text.chThdCreate:0000000000000000 chThdCreate
     /tmp/cc4ZUYx9.s:936    .rodata.chThdCreateStatic.str1.4:0000000000000000 $d
     /tmp/cc4ZUYx9.s:940    .text.chThdCreateStatic:0000000000000000 $t
     /tmp/cc4ZUYx9.s:948    .text.chThdCreateStatic:0000000000000000 chThdCreateStatic
     /tmp/cc4ZUYx9.s:1197   .text.chThdCreateStatic:0000000000000068 $d
     /tmp/cc4ZUYx9.s:1204   .text.chThdStart:0000000000000000 $t
     /tmp/cc4ZUYx9.s:1212   .text.chThdStart:0000000000000000 chThdStart
     /tmp/cc4ZUYx9.s:1335   .text.chThdAddRef:0000000000000000 $t
     /tmp/cc4ZUYx9.s:1343   .text.chThdAddRef:0000000000000000 chThdAddRef
     /tmp/cc4ZUYx9.s:1454   .text.chThdRelease:0000000000000000 $t
     /tmp/cc4ZUYx9.s:1462   .text.chThdRelease:0000000000000000 chThdRelease
     /tmp/cc4ZUYx9.s:1682   .text.chThdExitS:0000000000000000 $t
     /tmp/cc4ZUYx9.s:1690   .text.chThdExitS:0000000000000000 chThdExitS
     /tmp/cc4ZUYx9.s:1807   .text.chThdExitS:0000000000000044 $d
     /tmp/cc4ZUYx9.s:1812   .text.chThdExit:0000000000000000 $t
     /tmp/cc4ZUYx9.s:1820   .text.chThdExit:0000000000000000 chThdExit
     /tmp/cc4ZUYx9.s:1871   .text.chThdWait:0000000000000000 $t
     /tmp/cc4ZUYx9.s:1879   .text.chThdWait:0000000000000000 chThdWait
     /tmp/cc4ZUYx9.s:2259   .text.chThdWait:000000000000007c $d
     /tmp/cc4ZUYx9.s:2268   .text.chThdSetPriority:0000000000000000 $t
     /tmp/cc4ZUYx9.s:2276   .text.chThdSetPriority:0000000000000000 chThdSetPriority
     /tmp/cc4ZUYx9.s:2412   .text.chThdSetPriority:000000000000002c $d
     /tmp/cc4ZUYx9.s:2417   .text.chThdTerminate:0000000000000000 $t
     /tmp/cc4ZUYx9.s:2425   .text.chThdTerminate:0000000000000000 chThdTerminate
     /tmp/cc4ZUYx9.s:2532   .text.chThdSleep:0000000000000000 $t
     /tmp/cc4ZUYx9.s:2540   .text.chThdSleep:0000000000000000 chThdSleep
     /tmp/cc4ZUYx9.s:2662   .text.chThdSleepUntil:0000000000000000 $t
     /tmp/cc4ZUYx9.s:2670   .text.chThdSleepUntil:0000000000000000 chThdSleepUntil
     /tmp/cc4ZUYx9.s:2868   .text.chThdSleepUntilWindowed:0000000000000000 $t
     /tmp/cc4ZUYx9.s:2876   .text.chThdSleepUntilWindowed:0000000000000000 chThdSleepUntilWindowed
     /tmp/cc4ZUYx9.s:3115   .text.chThdYield:0000000000000000 $t
     /tmp/cc4ZUYx9.s:3123   .text.chThdYield:0000000000000000 chThdYield
     /tmp/cc4ZUYx9.s:3299   .text.chThdYield:000000000000002c $d
     /tmp/cc4ZUYx9.s:3304   .text.chThdSuspendS:0000000000000000 $t
     /tmp/cc4ZUYx9.s:3312   .text.chThdSuspendS:0000000000000000 chThdSuspendS
     /tmp/cc4ZUYx9.s:3379   .text.chThdSuspendS:0000000000000018 $d
     /tmp/cc4ZUYx9.s:3384   .text.chThdSuspendTimeoutS:0000000000000000 $t
     /tmp/cc4ZUYx9.s:3392   .text.chThdSuspendTimeoutS:0000000000000000 chThdSuspendTimeoutS
     /tmp/cc4ZUYx9.s:3443   .text.chThdSuspendTimeoutS:0000000000000018 $d
     /tmp/cc4ZUYx9.s:3448   .text.chThdResumeI:0000000000000000 $t
     /tmp/cc4ZUYx9.s:3456   .text.chThdResumeI:0000000000000000 chThdResumeI
     /tmp/cc4ZUYx9.s:3498   .text.chThdResumeS:0000000000000000 $t
ARM GAS  /tmp/cc4ZUYx9.s 			page 234


     /tmp/cc4ZUYx9.s:3506   .text.chThdResumeS:0000000000000000 chThdResumeS
     /tmp/cc4ZUYx9.s:3544   .text.chThdResume:0000000000000000 $t
     /tmp/cc4ZUYx9.s:3552   .text.chThdResume:0000000000000000 chThdResume
     /tmp/cc4ZUYx9.s:3686   .text.chThdEnqueueTimeoutS:0000000000000000 $t
     /tmp/cc4ZUYx9.s:3694   .text.chThdEnqueueTimeoutS:0000000000000000 chThdEnqueueTimeoutS
     /tmp/cc4ZUYx9.s:3767   .text.chThdEnqueueTimeoutS:0000000000000024 $d
     /tmp/cc4ZUYx9.s:3772   .text.chThdDequeueNextI:0000000000000000 $t
     /tmp/cc4ZUYx9.s:3780   .text.chThdDequeueNextI:0000000000000000 chThdDequeueNextI
     /tmp/cc4ZUYx9.s:3855   .text.chThdDequeueAllI:0000000000000000 $t
     /tmp/cc4ZUYx9.s:3863   .text.chThdDequeueAllI:0000000000000000 chThdDequeueAllI

UNDEFINED SYMBOLS
ch
_port_thread_start
chSchReadyI
chSchWakeupS
chPoolFree
chHeapFree
chSchGoSleepS
chSchRescheduleS
chSchGoSleepTimeoutS
chSchDoRescheduleBehind
