ARM GAS  /tmp/cc3aDBgv.s 			page 1


   1              		.cpu cortex-m4
   2              		.eabi_attribute 20, 1
   3              		.eabi_attribute 21, 1
   4              		.eabi_attribute 23, 3
   5              		.eabi_attribute 24, 1
   6              		.eabi_attribute 25, 1
   7              		.eabi_attribute 26, 1
   8              		.eabi_attribute 30, 2
   9              		.eabi_attribute 34, 1
  10              		.eabi_attribute 18, 4
  11              		.file	"chtm.c"
  12              		.text
  13              	.Ltext0:
  14              		.cfi_sections	.debug_frame
  15              		.section	.text.chTMObjectInit,"ax",%progbits
  16              		.align	1
  17              		.p2align 4,,15
  18              		.global	chTMObjectInit
  19              		.arch armv7e-m
  20              		.syntax unified
  21              		.thumb
  22              		.thumb_func
  23              		.fpu softvfp
  24              		.type	chTMObjectInit, %function
  25              	chTMObjectInit:
  26              	.LVL0:
  27              	.LFB248:
  28              		.file 1 "../../../os/rt/src/chtm.c"
  29              		.loc 1 97 46 view -0
  30              		.cfi_startproc
  31              		@ args = 0, pretend = 0, frame = 0
  32              		@ frame_needed = 0, uses_anonymous_args = 0
  33              		@ link register save eliminated.
  34              		.loc 1 99 3 view .LVU1
  35              		.loc 1 103 19 is_stmt 0 view .LVU2
  36 0000 0022     		movs	r2, #0
  37 0002 0023     		movs	r3, #0
  38 0004 C0E90423 		strd	r2, [r0, #16]
  39              		.loc 1 100 19 view .LVU3
  40 0008 0023     		movs	r3, #0
  41              		.loc 1 99 19 view .LVU4
  42 000a 4FF0FF32 		mov	r2, #-1
  43              		.loc 1 100 19 view .LVU5
  44 000e C0E90023 		strd	r2, r3, [r0]
  45              		.loc 1 101 3 is_stmt 1 view .LVU6
  46              		.loc 1 102 19 is_stmt 0 view .LVU7
  47 0012 C0E90233 		strd	r3, r3, [r0, #8]
  48              		.loc 1 103 3 is_stmt 1 view .LVU8
  49              		.loc 1 104 1 is_stmt 0 view .LVU9
  50 0016 7047     		bx	lr
  51              		.cfi_endproc
  52              	.LFE248:
  53              		.size	chTMObjectInit, .-chTMObjectInit
  54              		.section	.text.chTMStartMeasurementX,"ax",%progbits
  55              		.align	1
  56              		.p2align 4,,15
  57              		.global	chTMStartMeasurementX
ARM GAS  /tmp/cc3aDBgv.s 			page 2


  58              		.syntax unified
  59              		.thumb
  60              		.thumb_func
  61              		.fpu softvfp
  62              		.type	chTMStartMeasurementX, %function
  63              	chTMStartMeasurementX:
  64              	.LVL1:
  65              	.LFB249:
  66              		.loc 1 114 62 is_stmt 1 view -0
  67              		.cfi_startproc
  68              		@ args = 0, pretend = 0, frame = 0
  69              		@ frame_needed = 0, uses_anonymous_args = 0
  70              		@ link register save eliminated.
  71              		.loc 1 116 3 view .LVU11
  72              	.LBB10:
  73              	.LBI10:
  74              		.file 2 "../../../os/common/ports/ARMCMx/chcore_v7m.h"
  75              		.loc 2 706 23 view .LVU12
  76              	.LBB11:
  77              		.loc 2 708 3 view .LVU13
  78              		.loc 2 708 13 is_stmt 0 view .LVU14
  79 0000 014B     		ldr	r3, .L4
  80 0002 5B68     		ldr	r3, [r3, #4]
  81              	.LBE11:
  82              	.LBE10:
  83              		.loc 1 116 13 view .LVU15
  84 0004 8360     		str	r3, [r0, #8]
  85              		.loc 1 117 1 view .LVU16
  86 0006 7047     		bx	lr
  87              	.L5:
  88              		.align	2
  89              	.L4:
  90 0008 001000E0 		.word	-536866816
  91              		.cfi_endproc
  92              	.LFE249:
  93              		.size	chTMStartMeasurementX, .-chTMStartMeasurementX
  94              		.section	.text.chTMStopMeasurementX,"ax",%progbits
  95              		.align	1
  96              		.p2align 4,,15
  97              		.global	chTMStopMeasurementX
  98              		.syntax unified
  99              		.thumb
 100              		.thumb_func
 101              		.fpu softvfp
 102              		.type	chTMStopMeasurementX, %function
 103              	chTMStopMeasurementX:
 104              	.LVL2:
 105              	.LFB250:
 106              		.loc 1 127 61 is_stmt 1 view -0
 107              		.cfi_startproc
 108              		@ args = 0, pretend = 0, frame = 0
 109              		@ frame_needed = 0, uses_anonymous_args = 0
 110              		@ link register save eliminated.
 111              		.loc 1 129 3 view .LVU18
 112              	.LBB16:
 113              	.LBI16:
 114              		.loc 2 706 23 view .LVU19
ARM GAS  /tmp/cc3aDBgv.s 			page 3


 115              	.LBB17:
 116              		.loc 2 708 3 view .LVU20
 117              	.LBE17:
 118              	.LBE16:
 119              		.loc 1 129 3 is_stmt 0 view .LVU21
 120 0000 0E4A     		ldr	r2, .L10
 121              	.LBB20:
 122              	.LBB18:
 123              		.loc 2 708 13 view .LVU22
 124 0002 0F4B     		ldr	r3, .L10+4
 125              	.LBE18:
 126              	.LBE20:
 127              	.LBB21:
 128              	.LBB22:
 129              		.loc 1 58 33 view .LVU23
 130 0004 8168     		ldr	r1, [r0, #8]
 131              	.LBE22:
 132              	.LBE21:
 133              	.LBB25:
 134              	.LBB19:
 135              		.loc 2 708 13 view .LVU24
 136 0006 5B68     		ldr	r3, [r3, #4]
 137              	.LBE19:
 138              	.LBE25:
 139              		.loc 1 127 61 view .LVU25
 140 0008 10B4     		push	{r4}
 141              		.cfi_def_cfa_offset 4
 142              		.cfi_offset 4, -4
 143              		.loc 1 129 3 view .LVU26
 144 000a 546F     		ldr	r4, [r2, #116]
 145              	.LVL3:
 146              	.LBB26:
 147              	.LBI21:
 148              		.loc 1 53 20 is_stmt 1 view .LVU27
 149              	.LBB23:
 150              		.loc 1 57 3 view .LVU28
 151              		.loc 1 59 19 is_stmt 0 view .LVU29
 152 000c 0269     		ldr	r2, [r0, #16]
 153              		.loc 1 58 33 view .LVU30
 154 000e 1B1B     		subs	r3, r3, r4
 155              	.LVL4:
 156              		.loc 1 58 33 view .LVU31
 157 0010 5B1A     		subs	r3, r3, r1
 158              		.loc 1 59 19 view .LVU32
 159 0012 D218     		adds	r2, r2, r3
 160 0014 4169     		ldr	r1, [r0, #20]
 161 0016 0261     		str	r2, [r0, #16]
 162              		.loc 1 60 6 view .LVU33
 163 0018 4268     		ldr	r2, [r0, #4]
 164              		.loc 1 57 9 view .LVU34
 165 001a C468     		ldr	r4, [r0, #12]
 166              	.LVL5:
 167              		.loc 1 59 19 view .LVU35
 168 001c 41F10001 		adc	r1, r1, #0
 169              		.loc 1 60 6 view .LVU36
 170 0020 9342     		cmp	r3, r2
 171              		.loc 1 63 6 view .LVU37
ARM GAS  /tmp/cc3aDBgv.s 			page 4


 172 0022 0268     		ldr	r2, [r0]
 173              		.loc 1 61 16 view .LVU38
 174 0024 88BF     		it	hi
 175 0026 4360     		strhi	r3, [r0, #4]
 176              		.loc 1 57 9 view .LVU39
 177 0028 0134     		adds	r4, r4, #1
 178              		.loc 1 63 6 view .LVU40
 179 002a 9342     		cmp	r3, r2
 180              		.loc 1 58 13 view .LVU41
 181 002c C0E90234 		strd	r3, r4, [r0, #8]
 182              		.loc 1 59 3 is_stmt 1 view .LVU42
 183              		.loc 1 59 19 is_stmt 0 view .LVU43
 184 0030 4161     		str	r1, [r0, #20]
 185              		.loc 1 60 3 is_stmt 1 view .LVU44
 186              		.loc 1 61 5 view .LVU45
 187              		.loc 1 63 3 view .LVU46
 188              		.loc 1 64 5 view .LVU47
 189              	.LBE23:
 190              	.LBE26:
 191              		.loc 1 130 1 is_stmt 0 view .LVU48
 192 0032 10BC     		pop	{r4}
 193              		.cfi_restore 4
 194              		.cfi_def_cfa_offset 0
 195              	.LBB27:
 196              	.LBB24:
 197              		.loc 1 64 15 view .LVU49
 198 0034 38BF     		it	cc
 199 0036 0360     		strcc	r3, [r0]
 200              	.LVL6:
 201              		.loc 1 64 15 view .LVU50
 202              	.LBE24:
 203              	.LBE27:
 204              		.loc 1 130 1 view .LVU51
 205 0038 7047     		bx	lr
 206              	.L11:
 207 003a 00BF     		.align	2
 208              	.L10:
 209 003c 00000000 		.word	ch
 210 0040 001000E0 		.word	-536866816
 211              		.cfi_endproc
 212              	.LFE250:
 213              		.size	chTMStopMeasurementX, .-chTMStopMeasurementX
 214              		.section	.text._tm_init,"ax",%progbits
 215              		.align	1
 216              		.p2align 4,,15
 217              		.global	_tm_init
 218              		.syntax unified
 219              		.thumb
 220              		.thumb_func
 221              		.fpu softvfp
 222              		.type	_tm_init, %function
 223              	_tm_init:
 224              	.LFB247:
 225              		.loc 1 77 21 is_stmt 1 view -0
 226              		.cfi_startproc
 227              		@ args = 0, pretend = 0, frame = 24
 228              		@ frame_needed = 0, uses_anonymous_args = 0
ARM GAS  /tmp/cc3aDBgv.s 			page 5


 229              		.loc 1 78 3 view .LVU53
 230              		.loc 1 83 3 view .LVU54
 231              		.loc 1 77 21 is_stmt 0 view .LVU55
 232 0000 D0B5     		push	{r4, r6, r7, lr}
 233              		.cfi_def_cfa_offset 16
 234              		.cfi_offset 4, -16
 235              		.cfi_offset 6, -12
 236              		.cfi_offset 7, -8
 237              		.cfi_offset 14, -4
 238              		.loc 1 83 16 view .LVU56
 239 0002 0B4C     		ldr	r4, .L14
 240              		.loc 1 77 21 view .LVU57
 241 0004 86B0     		sub	sp, sp, #24
 242              		.cfi_def_cfa_offset 40
 243              		.loc 1 83 16 view .LVU58
 244 0006 0023     		movs	r3, #0
 245              		.loc 1 85 3 view .LVU59
 246 0008 6846     		mov	r0, sp
 247              	.LBB28:
 248              	.LBB29:
 249              		.loc 1 99 19 view .LVU60
 250 000a 4FF0FF32 		mov	r2, #-1
 251              		.loc 1 103 19 view .LVU61
 252 000e 0026     		movs	r6, #0
 253 0010 0027     		movs	r7, #0
 254              		.loc 1 101 19 view .LVU62
 255 0012 CDE90133 		strd	r3, r3, [sp, #4]
 256              	.LBE29:
 257              	.LBE28:
 258              		.loc 1 83 16 view .LVU63
 259 0016 6367     		str	r3, [r4, #116]
 260              		.loc 1 84 3 is_stmt 1 view .LVU64
 261              	.LVL7:
 262              	.LBB32:
 263              	.LBI28:
 264              		.loc 1 97 6 view .LVU65
 265              	.LBB30:
 266              		.loc 1 99 3 view .LVU66
 267              		.loc 1 102 19 is_stmt 0 view .LVU67
 268 0018 0393     		str	r3, [sp, #12]
 269              		.loc 1 99 19 view .LVU68
 270 001a 0092     		str	r2, [sp]
 271              		.loc 1 100 3 is_stmt 1 view .LVU69
 272              		.loc 1 102 3 view .LVU70
 273              		.loc 1 103 3 view .LVU71
 274              	.LVL8:
 275              		.loc 1 103 3 is_stmt 0 view .LVU72
 276              	.LBE30:
 277              	.LBE32:
 278              		.loc 1 85 3 is_stmt 1 view .LVU73
 279              	.LBB33:
 280              	.LBB31:
 281              		.loc 1 103 19 is_stmt 0 view .LVU74
 282 001c CDE90467 		strd	r6, [sp, #16]
 283              	.LBE31:
 284              	.LBE33:
 285              		.loc 1 85 3 view .LVU75
ARM GAS  /tmp/cc3aDBgv.s 			page 6


 286 0020 FFF7FEFF 		bl	chTMStartMeasurementX
 287              	.LVL9:
 288              		.loc 1 86 3 is_stmt 1 view .LVU76
 289 0024 FFF7FEFF 		bl	chTMStopMeasurementX
 290              	.LVL10:
 291              		.loc 1 87 3 view .LVU77
 292              		.loc 1 87 16 is_stmt 0 view .LVU78
 293 0028 029B     		ldr	r3, [sp, #8]
 294 002a 6367     		str	r3, [r4, #116]
 295              		.loc 1 88 1 view .LVU79
 296 002c 06B0     		add	sp, sp, #24
 297              		.cfi_def_cfa_offset 16
 298              		@ sp needed
 299 002e D0BD     		pop	{r4, r6, r7, pc}
 300              	.L15:
 301              		.align	2
 302              	.L14:
 303 0030 00000000 		.word	ch
 304              		.cfi_endproc
 305              	.LFE247:
 306              		.size	_tm_init, .-_tm_init
 307              		.section	.text.chTMChainMeasurementToX,"ax",%progbits
 308              		.align	1
 309              		.p2align 4,,15
 310              		.global	chTMChainMeasurementToX
 311              		.syntax unified
 312              		.thumb
 313              		.thumb_func
 314              		.fpu softvfp
 315              		.type	chTMChainMeasurementToX, %function
 316              	chTMChainMeasurementToX:
 317              	.LVL11:
 318              	.LFB251:
 319              		.loc 1 145 65 is_stmt 1 view -0
 320              		.cfi_startproc
 321              		@ args = 0, pretend = 0, frame = 0
 322              		@ frame_needed = 0, uses_anonymous_args = 0
 323              		@ link register save eliminated.
 324              		.loc 1 148 3 view .LVU81
 325              	.LBB38:
 326              	.LBI38:
 327              		.loc 2 706 23 view .LVU82
 328              	.LBB39:
 329              		.loc 2 708 3 view .LVU83
 330              		.loc 2 708 13 is_stmt 0 view .LVU84
 331 0000 0D4B     		ldr	r3, .L20
 332 0002 5B68     		ldr	r3, [r3, #4]
 333              	.LBE39:
 334              	.LBE38:
 335              		.loc 1 145 65 view .LVU85
 336 0004 10B4     		push	{r4}
 337              		.cfi_def_cfa_offset 4
 338              		.cfi_offset 4, -4
 339              		.loc 1 148 14 view .LVU86
 340 0006 8B60     		str	r3, [r1, #8]
 341              		.loc 1 151 3 is_stmt 1 view .LVU87
 342              	.LVL12:
ARM GAS  /tmp/cc3aDBgv.s 			page 7


 343              	.LBB40:
 344              	.LBI40:
 345              		.loc 1 53 20 view .LVU88
 346              	.LBB41:
 347              		.loc 1 57 3 view .LVU89
 348              		.loc 1 57 9 is_stmt 0 view .LVU90
 349 0008 D0E90342 		ldrd	r4, r2, [r0, #12]
 350              		.loc 1 58 20 view .LVU91
 351 000c 8168     		ldr	r1, [r0, #8]
 352              	.LVL13:
 353              		.loc 1 58 20 view .LVU92
 354 000e 5B1A     		subs	r3, r3, r1
 355              	.LVL14:
 356              		.loc 1 59 19 view .LVU93
 357 0010 D218     		adds	r2, r2, r3
 358 0012 4169     		ldr	r1, [r0, #20]
 359 0014 0261     		str	r2, [r0, #16]
 360              		.loc 1 60 6 view .LVU94
 361 0016 4268     		ldr	r2, [r0, #4]
 362              		.loc 1 59 19 view .LVU95
 363 0018 41F10001 		adc	r1, r1, #0
 364              		.loc 1 60 6 view .LVU96
 365 001c 9342     		cmp	r3, r2
 366              		.loc 1 63 6 view .LVU97
 367 001e 0268     		ldr	r2, [r0]
 368              		.loc 1 61 16 view .LVU98
 369 0020 88BF     		it	hi
 370 0022 4360     		strhi	r3, [r0, #4]
 371              		.loc 1 57 9 view .LVU99
 372 0024 0134     		adds	r4, r4, #1
 373              		.loc 1 63 6 view .LVU100
 374 0026 9342     		cmp	r3, r2
 375              		.loc 1 58 13 view .LVU101
 376 0028 C0E90234 		strd	r3, r4, [r0, #8]
 377              	.LVL15:
 378              		.loc 1 59 3 is_stmt 1 view .LVU102
 379              		.loc 1 59 19 is_stmt 0 view .LVU103
 380 002c 4161     		str	r1, [r0, #20]
 381              		.loc 1 60 3 is_stmt 1 view .LVU104
 382              		.loc 1 61 5 view .LVU105
 383              		.loc 1 63 3 view .LVU106
 384              		.loc 1 64 5 view .LVU107
 385              	.LBE41:
 386              	.LBE40:
 387              		.loc 1 152 1 is_stmt 0 view .LVU108
 388 002e 10BC     		pop	{r4}
 389              		.cfi_restore 4
 390              		.cfi_def_cfa_offset 0
 391              	.LBB43:
 392              	.LBB42:
 393              		.loc 1 64 15 view .LVU109
 394 0030 38BF     		it	cc
 395 0032 0360     		strcc	r3, [r0]
 396              	.LVL16:
 397              		.loc 1 64 15 view .LVU110
 398              	.LBE42:
 399              	.LBE43:
ARM GAS  /tmp/cc3aDBgv.s 			page 8


 400              		.loc 1 152 1 view .LVU111
 401 0034 7047     		bx	lr
 402              	.L21:
 403 0036 00BF     		.align	2
 404              	.L20:
 405 0038 001000E0 		.word	-536866816
 406              		.cfi_endproc
 407              	.LFE251:
 408              		.size	chTMChainMeasurementToX, .-chTMChainMeasurementToX
 409              		.text
 410              	.Letext0:
 411              		.file 3 "/usr/lib/gcc/arm-none-eabi/10.3.1/include/stdint.h"
 412              		.file 4 "../../../os/common/ports/ARMCMx/compilers/GCC/chtypes.h"
 413              		.file 5 "../../../os/rt/include/chsystypes.h"
 414              		.file 6 "../../../os/rt/include/chschd.h"
 415              		.file 7 "../../../os/common/ext/CMSIS/include/core_cm4.h"
 416              		.file 8 "../../../os/common/ports/ARMCMx/chcore.h"
 417              		.file 9 "../../../os/rt/include/chtm.h"
 418              		.file 10 "../../../os/rt/include/chsem.h"
 419              		.file 11 "../../../os/rt/include/chmtx.h"