ARM GAS  /tmp/cctJI0Jp.s 			page 1


   1              		.cpu cortex-m4
   2              		.eabi_attribute 20, 1
   3              		.eabi_attribute 21, 1
   4              		.eabi_attribute 23, 3
   5              		.eabi_attribute 24, 1
   6              		.eabi_attribute 25, 1
   7              		.eabi_attribute 26, 1
   8              		.eabi_attribute 30, 2
   9              		.eabi_attribute 34, 1
  10              		.eabi_attribute 18, 4
  11              		.file	"chvt.c"
  12              		.text
  13              	.Ltext0:
  14              		.cfi_sections	.debug_frame
  15              		.section	.text._vt_init,"ax",%progbits
  16              		.align	1
  17              		.p2align 4,,15
  18              		.global	_vt_init
  19              		.arch armv7e-m
  20              		.syntax unified
  21              		.thumb
  22              		.thumb_func
  23              		.fpu softvfp
  24              		.type	_vt_init, %function
  25              	_vt_init:
  26              	.LFB246:
  27              		.file 1 "../../../os/rt/src/chvt.c"
  28              		.loc 1 61 21 view -0
  29              		.cfi_startproc
  30              		@ args = 0, pretend = 0, frame = 0
  31              		@ frame_needed = 0, uses_anonymous_args = 0
  32              		@ link register save eliminated.
  33              		.loc 1 63 3 view .LVU1
  34              		.loc 1 63 18 is_stmt 0 view .LVU2
  35 0000 054B     		ldr	r3, .L3
  36              		.loc 1 65 19 view .LVU3
  37 0002 4FF0FF30 		mov	r0, #-1
  38              		.loc 1 63 18 view .LVU4
  39 0006 03F11C02 		add	r2, r3, #28
  40              		.loc 1 69 22 view .LVU5
  41 000a 0021     		movs	r1, #0
  42              		.loc 1 64 18 view .LVU6
  43 000c C3E90722 		strd	r2, r2, [r3, #28]
  44              		.loc 1 65 3 is_stmt 1 view .LVU7
  45              		.loc 1 69 22 is_stmt 0 view .LVU8
  46 0010 C3E90901 		strd	r0, r1, [r3, #36]
  47              		.loc 1 71 1 view .LVU9
  48 0014 7047     		bx	lr
  49              	.L4:
  50 0016 00BF     		.align	2
  51              	.L3:
  52 0018 00000000 		.word	ch
  53              		.cfi_endproc
  54              	.LFE246:
  55              		.size	_vt_init, .-_vt_init
  56              		.section	.text.chVTDoSetI,"ax",%progbits
  57              		.align	1
ARM GAS  /tmp/cctJI0Jp.s 			page 2


  58              		.p2align 4,,15
  59              		.global	chVTDoSetI
  60              		.syntax unified
  61              		.thumb
  62              		.thumb_func
  63              		.fpu softvfp
  64              		.type	chVTDoSetI, %function
  65              	chVTDoSetI:
  66              	.LVL0:
  67              	.LFB247:
  68              		.loc 1 96 45 is_stmt 1 view -0
  69              		.cfi_startproc
  70              		@ args = 0, pretend = 0, frame = 0
  71              		@ frame_needed = 0, uses_anonymous_args = 0
  72              		.loc 1 97 3 view .LVU11
  73              		.loc 1 98 3 view .LVU12
  74              		.loc 1 100 21 view .LVU13
  75              		.loc 1 101 3 view .LVU14
  76              		.loc 1 101 3 view .LVU15
  77              		.loc 1 101 3 view .LVU16
  78              		.loc 1 103 3 view .LVU17
  79              		.loc 1 96 45 is_stmt 0 view .LVU18
  80 0000 F8B5     		push	{r3, r4, r5, r6, r7, lr}
  81              		.cfi_def_cfa_offset 24
  82              		.cfi_offset 3, -24
  83              		.cfi_offset 4, -20
  84              		.cfi_offset 5, -16
  85              		.cfi_offset 6, -12
  86              		.cfi_offset 7, -8
  87              		.cfi_offset 14, -4
  88              		.loc 1 96 45 view .LVU19
  89 0002 0646     		mov	r6, r0
  90              	.LBB27:
  91              		.loc 1 117 57 view .LVU20
  92 0004 1B4F     		ldr	r7, .L18
  93              	.LBB28:
  94              	.LBB29:
  95              	.LBB30:
  96              	.LBB31:
  97              		.file 2 "../../../os/hal/ports/STM32/LLD/TIMv1/hal_st_lld.h"
  98              		.loc 2 141 10 view .LVU21
  99 0006 4FF08040 		mov	r0, #1073741824
 100              	.LVL1:
 101              		.loc 2 141 10 view .LVU22
 102 000a 0229     		cmp	r1, #2
 103 000c 446A     		ldr	r4, [r0, #36]
 104              	.LBE31:
 105              	.LBE30:
 106              	.LBE29:
 107              	.LBE28:
 108              	.LBE27:
 109              		.loc 1 104 13 view .LVU23
 110 000e C6E90323 		strd	r2, r3, [r6, #12]
 111              	.LBB49:
 112              		.loc 1 108 5 is_stmt 1 view .LVU24
 113              	.LBB36:
 114              	.LBI28:
ARM GAS  /tmp/cctJI0Jp.s 			page 3


 115              		.file 3 "../../../os/rt/include/chvt.h"
 116              		.loc 3 392 25 view .LVU25
 117              	.LBE36:
 118              	.LBE49:
 119              		.loc 3 397 3 view .LVU26
 120              	.LBB50:
 121              	.LBB37:
 122              	.LBB34:
 123              	.LBI29:
 124              		.file 4 "../../../os/common/ports/ARMCMx/chcore_timer.h"
 125              		.loc 4 105 25 view .LVU27
 126              	.LBE34:
 127              	.LBE37:
 128              	.LBE50:
 129              		.loc 4 107 3 view .LVU28
 130              	.LBB51:
 131              	.LBB38:
 132              	.LBB35:
 133              	.LBB33:
 134              	.LBI30:
 135              		.loc 2 139 25 view .LVU29
 136              	.LBB32:
 137              		.loc 2 141 3 view .LVU30
 138              	.LVL2:
 139              		.loc 2 141 3 is_stmt 0 view .LVU31
 140              	.LBE32:
 141              	.LBE33:
 142              	.LBE35:
 143              	.LBE38:
 144              		.loc 1 112 5 is_stmt 1 view .LVU32
 145              		.loc 1 117 57 is_stmt 0 view .LVU33
 146 0012 3B46     		mov	r3, r7
 147              	.LVL3:
 148              		.loc 1 117 57 view .LVU34
 149 0014 38BF     		it	cc
 150 0016 0221     		movcc	r1, #2
 151              	.LVL4:
 152              		.loc 1 117 5 is_stmt 1 view .LVU35
 153              		.loc 1 117 57 is_stmt 0 view .LVU36
 154 0018 53F81C5F 		ldr	r5, [r3, #28]!
 155              		.loc 1 117 8 view .LVU37
 156 001c 9D42     		cmp	r5, r3
 157 001e 1DD0     		beq	.L17
 158              		.loc 1 135 5 is_stmt 1 view .LVU38
 159              	.LVL5:
 160              		.loc 1 139 5 view .LVU39
 161              		.loc 1 139 28 is_stmt 0 view .LVU40
 162 0020 B86A     		ldr	r0, [r7, #40]
 163              		.loc 1 145 13 view .LVU41
 164 0022 AB68     		ldr	r3, [r5, #8]
 165              		.loc 1 139 17 view .LVU42
 166 0024 241A     		subs	r4, r4, r0
 167              	.LVL6:
 168              		.loc 1 139 17 view .LVU43
 169 0026 6418     		adds	r4, r4, r1
 170              	.LVL7:
 171              		.loc 1 141 5 is_stmt 1 view .LVU44
ARM GAS  /tmp/cctJI0Jp.s 			page 4


 172              		.loc 1 141 8 is_stmt 0 view .LVU45
 173 0028 11D3     		bcc	.L9
 174              	.LVL8:
 175              	.L16:
 176              		.loc 1 145 7 is_stmt 1 view .LVU46
 177              		.loc 1 146 9 is_stmt 0 view .LVU47
 178 002a 2D68     		ldr	r5, [r5]
 179              	.LVL9:
 180              		.loc 1 145 13 view .LVU48
 181 002c E41A     		subs	r4, r4, r3
 182              	.LVL10:
 183              		.loc 1 146 7 is_stmt 1 view .LVU49
 184              		.loc 1 146 7 is_stmt 0 view .LVU50
 185              	.LBE51:
 186              		.loc 1 164 11 view .LVU51
 187 002e AB68     		ldr	r3, [r5, #8]
 188              	.L12:
 189              		.loc 1 164 9 is_stmt 1 view .LVU52
 190 0030 A342     		cmp	r3, r4
 191 0032 FAD3     		bcc	.L16
 192              		.loc 1 170 3 view .LVU53
 193              		.loc 1 171 24 is_stmt 0 view .LVU54
 194 0034 6B68     		ldr	r3, [r5, #4]
 195              		.loc 1 171 13 view .LVU55
 196 0036 C6E90053 		strd	r5, r3, [r6]
 197              		.loc 1 172 3 is_stmt 1 view .LVU56
 198              		.loc 1 172 19 is_stmt 0 view .LVU57
 199 003a 1E60     		str	r6, [r3]
 200              		.loc 1 173 3 is_stmt 1 view .LVU58
 201              		.loc 1 173 11 is_stmt 0 view .LVU59
 202 003c 6E60     		str	r6, [r5, #4]
 203              		.loc 1 174 3 is_stmt 1 view .LVU60
 204              		.loc 1 174 14 is_stmt 0 view .LVU61
 205 003e B460     		str	r4, [r6, #8]
 206              		.loc 1 178 3 is_stmt 1 view .LVU62
 207              		.loc 1 178 12 is_stmt 0 view .LVU63
 208 0040 AB68     		ldr	r3, [r5, #8]
 209              		.loc 1 179 19 view .LVU64
 210 0042 4FF0FF32 		mov	r2, #-1
 211              		.loc 1 178 12 view .LVU65
 212 0046 1B1B     		subs	r3, r3, r4
 213 0048 AB60     		str	r3, [r5, #8]
 214              		.loc 1 179 3 is_stmt 1 view .LVU66
 215              		.loc 1 179 19 is_stmt 0 view .LVU67
 216 004a 7A62     		str	r2, [r7, #36]
 217              		.loc 1 180 1 view .LVU68
 218 004c F8BD     		pop	{r3, r4, r5, r6, r7, pc}
 219              	.LVL11:
 220              	.L9:
 221              	.LBB52:
 222              		.loc 1 148 10 is_stmt 1 view .LVU69
 223              		.loc 1 148 13 is_stmt 0 view .LVU70
 224 004e A342     		cmp	r3, r4
 225 0050 EED9     		bls	.L12
 226              		.loc 1 151 7 is_stmt 1 view .LVU71
 227              	.LVL12:
 228              	.LBB39:
ARM GAS  /tmp/cctJI0Jp.s 			page 5


 229              	.LBI39:
 230              		.loc 4 93 20 view .LVU72
 231              	.LBB40:
 232              		.loc 4 95 3 view .LVU73
 233 0052 2044     		add	r0, r0, r4
 234              	.LVL13:
 235              		.loc 4 95 3 is_stmt 0 view .LVU74
 236 0054 FFF7FEFF 		bl	stSetAlarm
 237              	.LVL14:
 238              		.loc 4 95 3 view .LVU75
 239              	.LBE40:
 240              	.LBE39:
 241              	.LBE52:
 242              		.loc 1 164 11 view .LVU76
 243 0058 AB68     		ldr	r3, [r5, #8]
 244              	.LBB53:
 245              	.LBB42:
 246              	.LBB41:
 247              		.loc 4 96 1 view .LVU77
 248 005a E9E7     		b	.L12
 249              	.LVL15:
 250              	.L17:
 251              		.loc 4 96 1 view .LVU78
 252              	.LBE41:
 253              	.LBE42:
 254              		.loc 1 121 7 is_stmt 1 view .LVU79
 255              		.loc 1 123 22 is_stmt 0 view .LVU80
 256 005c C7E90766 		strd	r6, r6, [r7, #28]
 257              		.loc 1 121 26 view .LVU81
 258 0060 BC62     		str	r4, [r7, #40]
 259              		.loc 1 122 7 is_stmt 1 view .LVU82
 260              		.loc 1 124 7 view .LVU83
 261              	.LBB43:
 262              	.LBB44:
 263              		.loc 4 73 3 is_stmt 0 view .LVU84
 264 0062 0819     		adds	r0, r1, r4
 265              	.LBE44:
 266              	.LBE43:
 267              		.loc 1 125 17 view .LVU85
 268 0064 C6E90055 		strd	r5, r5, [r6]
 269              		.loc 1 126 7 is_stmt 1 view .LVU86
 270              		.loc 1 126 18 is_stmt 0 view .LVU87
 271 0068 B160     		str	r1, [r6, #8]
 272              		.loc 1 129 7 is_stmt 1 view .LVU88
 273              	.LVL16:
 274              	.LBB47:
 275              	.LBI43:
 276              		.loc 4 71 20 view .LVU89
 277              	.LBB45:
 278              		.loc 4 73 3 view .LVU90
 279              	.LBE45:
 280              	.LBE47:
 281              	.LBE53:
 282              		.loc 1 180 1 is_stmt 0 view .LVU91
 283 006a BDE8F840 		pop	{r3, r4, r5, r6, r7, lr}
 284              		.cfi_restore 14
 285              		.cfi_restore 7
ARM GAS  /tmp/cctJI0Jp.s 			page 6


 286              		.cfi_restore 6
 287              		.cfi_restore 5
 288              		.cfi_restore 4
 289              		.cfi_restore 3
 290              		.cfi_def_cfa_offset 0
 291              	.LVL17:
 292              	.LBB54:
 293              	.LBB48:
 294              	.LBB46:
 295              		.loc 4 73 3 view .LVU92
 296 006e FFF7FEBF 		b	stStartAlarm
 297              	.LVL18:
 298              	.L19:
 299              		.loc 4 73 3 view .LVU93
 300 0072 00BF     		.align	2
 301              	.L18:
 302 0074 00000000 		.word	ch
 303              	.LBE46:
 304              	.LBE48:
 305              	.LBE54:
 306              		.cfi_endproc
 307              	.LFE247:
 308              		.size	chVTDoSetI, .-chVTDoSetI
 309              		.section	.text.chVTDoResetI,"ax",%progbits
 310              		.align	1
 311              		.p2align 4,,15
 312              		.global	chVTDoResetI
 313              		.syntax unified
 314              		.thumb
 315              		.thumb_func
 316              		.fpu softvfp
 317              		.type	chVTDoResetI, %function
 318              	chVTDoResetI:
 319              	.LVL19:
 320              	.LFB248:
 321              		.loc 1 190 41 is_stmt 1 view -0
 322              		.cfi_startproc
 323              		@ args = 0, pretend = 0, frame = 0
 324              		@ frame_needed = 0, uses_anonymous_args = 0
 325              		@ link register save eliminated.
 326              		.loc 1 192 21 view .LVU95
 327              		.loc 1 193 3 view .LVU96
 328              		.loc 1 193 3 view .LVU97
 329              		.loc 1 193 3 view .LVU98
 330              		.loc 1 194 3 view .LVU99
 331              		.loc 1 194 3 view .LVU100
 332              		.loc 1 194 3 view .LVU101
 333              		.loc 1 210 3 view .LVU102
 334              		.loc 1 214 3 view .LVU103
 335              		.loc 1 214 16 is_stmt 0 view .LVU104
 336 0000 194B     		ldr	r3, .L28
 337              		.loc 1 214 6 view .LVU105
 338 0002 DA69     		ldr	r2, [r3, #28]
 339 0004 8242     		cmp	r2, r0
 340              		.loc 1 190 41 view .LVU106
 341 0006 10B4     		push	{r4}
 342              		.cfi_def_cfa_offset 4
ARM GAS  /tmp/cctJI0Jp.s 			page 7


 343              		.cfi_offset 4, -4
 344              		.loc 1 214 6 view .LVU107
 345 0008 0ED0     		beq	.L21
 346              		.loc 1 216 5 is_stmt 1 view .LVU108
 347              		.loc 1 216 26 is_stmt 0 view .LVU109
 348 000a D0E90021 		ldrd	r2, r1, [r0]
 349              		.loc 1 221 8 view .LVU110
 350 000e 1C33     		adds	r3, r3, #28
 351              		.loc 1 218 15 view .LVU111
 352 0010 0024     		movs	r4, #0
 353              		.loc 1 221 8 view .LVU112
 354 0012 9A42     		cmp	r2, r3
 355              		.loc 1 216 21 view .LVU113
 356 0014 0A60     		str	r2, [r1]
 357              		.loc 1 217 5 is_stmt 1 view .LVU114
 358              		.loc 1 217 21 is_stmt 0 view .LVU115
 359 0016 5160     		str	r1, [r2, #4]
 360              		.loc 1 218 5 is_stmt 1 view .LVU116
 361              		.loc 1 218 15 is_stmt 0 view .LVU117
 362 0018 C460     		str	r4, [r0, #12]
 363              		.loc 1 221 5 is_stmt 1 view .LVU118
 364              		.loc 1 221 8 is_stmt 0 view .LVU119
 365 001a 03D0     		beq	.L20
 366              		.loc 1 222 7 is_stmt 1 view .LVU120
 367              		.loc 1 222 24 is_stmt 0 view .LVU121
 368 001c 9368     		ldr	r3, [r2, #8]
 369 001e 8168     		ldr	r1, [r0, #8]
 370 0020 0B44     		add	r3, r3, r1
 371 0022 9360     		str	r3, [r2, #8]
 372              	.LVL20:
 373              	.L20:
 374              		.loc 1 268 1 view .LVU122
 375 0024 10BC     		pop	{r4}
 376              		.cfi_remember_state
 377              		.cfi_restore 4
 378              		.cfi_def_cfa_offset 0
 379 0026 7047     		bx	lr
 380              	.LVL21:
 381              	.L21:
 382              		.cfi_restore_state
 383              		.loc 1 228 3 is_stmt 1 view .LVU123
 384              		.loc 1 228 18 is_stmt 0 view .LVU124
 385 0028 1846     		mov	r0, r3
 386              	.LVL22:
 387              		.loc 1 228 23 view .LVU125
 388 002a 1168     		ldr	r1, [r2]
 389              		.loc 1 228 18 view .LVU126
 390 002c 40F81C1F 		str	r1, [r0, #28]!
 391              		.loc 1 229 3 is_stmt 1 view .LVU127
 392              		.loc 1 230 13 is_stmt 0 view .LVU128
 393 0030 0024     		movs	r4, #0
 394              		.loc 1 233 6 view .LVU129
 395 0032 8142     		cmp	r1, r0
 396              		.loc 1 229 24 view .LVU130
 397 0034 4860     		str	r0, [r1, #4]
 398              		.loc 1 230 3 is_stmt 1 view .LVU131
 399              		.loc 1 230 13 is_stmt 0 view .LVU132
ARM GAS  /tmp/cctJI0Jp.s 			page 8


 400 0036 D460     		str	r4, [r2, #12]
 401              		.loc 1 233 3 is_stmt 1 view .LVU133
 402              		.loc 1 233 6 is_stmt 0 view .LVU134
 403 0038 13D0     		beq	.L27
 404              		.loc 1 240 3 is_stmt 1 view .LVU135
 405              		.loc 1 240 25 is_stmt 0 view .LVU136
 406 003a 8868     		ldr	r0, [r1, #8]
 407 003c 9268     		ldr	r2, [r2, #8]
 408              		.loc 1 249 46 view .LVU137
 409 003e 9B6A     		ldr	r3, [r3, #40]
 410              		.loc 1 240 25 view .LVU138
 411 0040 0244     		add	r2, r2, r0
 412              	.LBB55:
 413              	.LBB56:
 414              	.LBB57:
 415              	.LBB58:
 416              		.loc 2 141 10 view .LVU139
 417 0042 4FF08044 		mov	r4, #1073741824
 418              	.LBE58:
 419              	.LBE57:
 420              	.LBE56:
 421              	.LBE55:
 422              		.loc 1 240 25 view .LVU140
 423 0046 8A60     		str	r2, [r1, #8]
 424              		.loc 1 249 3 is_stmt 1 view .LVU141
 425              	.LBB63:
 426              	.LBI55:
 427              		.loc 3 392 25 view .LVU142
 428              	.LBE63:
 429              		.loc 3 397 3 view .LVU143
 430              	.LBB64:
 431              	.LBB61:
 432              	.LBI56:
 433              		.loc 4 105 25 view .LVU144
 434              	.LBE61:
 435              	.LBE64:
 436              		.loc 4 107 3 view .LVU145
 437              	.LBB65:
 438              	.LBB62:
 439              	.LBB60:
 440              	.LBI57:
 441              		.loc 2 139 25 view .LVU146
 442              	.LBB59:
 443              		.loc 2 141 3 view .LVU147
 444              		.loc 2 141 10 is_stmt 0 view .LVU148
 445 0048 606A     		ldr	r0, [r4, #36]
 446              	.LVL23:
 447              		.loc 2 141 10 view .LVU149
 448              	.LBE59:
 449              	.LBE60:
 450              	.LBE62:
 451              	.LBE65:
 452              		.loc 1 253 3 is_stmt 1 view .LVU150
 453              		.loc 1 249 12 is_stmt 0 view .LVU151
 454 004a C11A     		subs	r1, r0, r3
 455              	.LVL24:
 456              		.loc 1 253 6 view .LVU152
ARM GAS  /tmp/cctJI0Jp.s 			page 9


 457 004c 8A42     		cmp	r2, r1
 458 004e E9D9     		bls	.L20
 459              		.loc 1 258 3 is_stmt 1 view .LVU153
 460              		.loc 1 258 9 is_stmt 0 view .LVU154
 461 0050 1B1A     		subs	r3, r3, r0
 462 0052 1A44     		add	r2, r2, r3
 463              	.LVL25:
 464              		.loc 1 262 3 is_stmt 1 view .LVU155
 465              		.loc 1 266 3 view .LVU156
 466              	.LBB66:
 467              	.LBI66:
 468              		.loc 4 93 20 view .LVU157
 469              	.LBB67:
 470              		.loc 4 95 3 view .LVU158
 471              	.LBE67:
 472              	.LBE66:
 473              		.loc 1 268 1 is_stmt 0 view .LVU159
 474 0054 10BC     		pop	{r4}
 475              		.cfi_remember_state
 476              		.cfi_restore 4
 477              		.cfi_def_cfa_offset 0
 478              	.LBB69:
 479              	.LBB68:
 480              		.loc 4 95 3 view .LVU160
 481 0056 022A     		cmp	r2, #2
 482 0058 2CBF     		ite	cs
 483 005a 8018     		addcs	r0, r0, r2
 484 005c 0230     		addcc	r0, r0, #2
 485              	.LVL26:
 486              		.loc 4 95 3 view .LVU161
 487 005e FFF7FEBF 		b	stSetAlarm
 488              	.LVL27:
 489              	.L27:
 490              		.cfi_restore_state
 491              		.loc 4 95 3 view .LVU162
 492              	.LBE68:
 493              	.LBE69:
 494              		.loc 1 234 5 is_stmt 1 view .LVU163
 495              	.LBB70:
 496              	.LBI70:
 497              		.loc 4 81 20 view .LVU164
 498              	.LBB71:
 499              		.loc 4 83 3 view .LVU165
 500              	.LBE71:
 501              	.LBE70:
 502              		.loc 1 268 1 is_stmt 0 view .LVU166
 503 0062 10BC     		pop	{r4}
 504              		.cfi_restore 4
 505              		.cfi_def_cfa_offset 0
 506              	.LBB73:
 507              	.LBB72:
 508              		.loc 4 83 3 view .LVU167
 509 0064 FFF7FEBF 		b	stStopAlarm
 510              	.LVL28:
 511              	.L29:
 512              		.align	2
 513              	.L28:
ARM GAS  /tmp/cctJI0Jp.s 			page 10


 514 0068 00000000 		.word	ch
 515              	.LBE72:
 516              	.LBE73:
 517              		.cfi_endproc
 518              	.LFE248:
 519              		.size	chVTDoResetI, .-chVTDoResetI
 520              		.text
 521              	.Letext0:
 522              		.file 5 "/usr/lib/gcc/arm-none-eabi/10.3.1/include/stdint.h"
 523              		.file 6 "../../../os/common/ports/ARMCMx/compilers/GCC/chtypes.h"
 524              		.file 7 "../../../os/rt/include/chsystypes.h"
 525              		.file 8 "../../../os/rt/include/chschd.h"
 526              		.file 9 "../../../os/common/ports/ARMCMx/chcore.h"
 527              		.file 10 "../../../os/common/ports/ARMCMx/chcore_v7m.h"
 528              		.file 11 "../../../os/hal/ports/STM32/LLD/TIMv1/stm32_tim.h"
 529              		.file 12 "../../../os/rt/include/chtm.h"
 530              		.file 13 "../../../os/rt/include/chsem.h"
 531              		.file 14 "../../../os/rt/include/chmtx.h"
 532              		.file 15 "../../../os/hal/include/hal_st.h"