ARM GAS  /tmp/cctJI0Jp.s 			page 1


   1              		.cpu cortex-m4
   2              		.eabi_attribute 20, 1
   3              		.eabi_attribute 21, 1
   4              		.eabi_attribute 23, 3
   5              		.eabi_attribute 24, 1
   6              		.eabi_attribute 25, 1
   7              		.eabi_attribute 26, 1
   8              		.eabi_attribute 30, 2
   9              		.eabi_attribute 34, 1
  10              		.eabi_attribute 18, 4
  11              		.file	"chvt.c"
  12              		.text
  13              	.Ltext0:
  14              		.cfi_sections	.debug_frame
  15              		.section	.text._vt_init,"ax",%progbits
  16              		.align	1
  17              		.p2align 4,,15
  18              		.global	_vt_init
  19              		.arch armv7e-m
  20              		.syntax unified
  21              		.thumb
  22              		.thumb_func
  23              		.fpu softvfp
  24              		.type	_vt_init, %function
  25              	_vt_init:
  26              	.LFB246:
  27              		.file 1 "../../../os/rt/src/chvt.c"
  28              		.loc 1 61 21 view -0
  29              		.cfi_startproc
  30              		@ args = 0, pretend = 0, frame = 0
  31              		@ frame_needed = 0, uses_anonymous_args = 0
  32              		@ link register save eliminated.
  33              		.loc 1 63 3 view .LVU1
  34              		.loc 1 63 18 is_stmt 0 view .LVU2
  35 0000 054B     		ldr	r3, .L3
  36              		.loc 1 65 19 view .LVU3
  37 0002 4FF0FF30 		mov	r0, #-1
  38              		.loc 1 63 18 view .LVU4
  39 0006 03F11C02 		add	r2, r3, #28
  40              		.loc 1 69 22 view .LVU5
  41 000a 0021     		movs	r1, #0
  42              		.loc 1 64 18 view .LVU6
  43 000c C3E90722 		strd	r2, r2, [r3, #28]
  44              		.loc 1 65 3 is_stmt 1 view .LVU7
  45              		.loc 1 69 22 is_stmt 0 view .LVU8
  46 0010 C3E90901 		strd	r0, r1, [r3, #36]
  47              		.loc 1 71 1 view .LVU9
  48 0014 7047     		bx	lr
  49              	.L4:
  50 0016 00BF     		.align	2
  51              	.L3:
  52 0018 00000000 		.word	ch
  53              		.cfi_endproc
  54              	.LFE246:
  55              		.size	_vt_init, .-_vt_init
  56              		.section	.text.chVTDoSetI,"ax",%progbits
  57              		.align	1
ARM GAS  /tmp/cctJI0Jp.s 			page 2


  58              		.p2align 4,,15
  59              		.global	chVTDoSetI
  60              		.syntax unified
  61              		.thumb
  62              		.thumb_func
  63              		.fpu softvfp
  64              		.type	chVTDoSetI, %function
  65              	chVTDoSetI:
  66              	.LVL0:
  67              	.LFB247:
  68              		.loc 1 96 45 is_stmt 1 view -0
  69              		.cfi_startproc
  70              		@ args = 0, pretend = 0, frame = 0
  71              		@ frame_needed = 0, uses_anonymous_args = 0
  72              		.loc 1 97 3 view .LVU11
  73              		.loc 1 98 3 view .LVU12
  74              		.loc 1 100 21 view .LVU13
  75              		.loc 1 101 3 view .LVU14
  76              		.loc 1 101 3 view .LVU15
  77              		.loc 1 101 3 view .LVU16
  78              		.loc 1 103 3 view .LVU17
  79              		.loc 1 96 45 is_stmt 0 view .LVU18
  80 0000 F8B5     		push	{r3, r4, r5, r6, r7, lr}
  81              		.cfi_def_cfa_offset 24
  82              		.cfi_offset 3, -24
  83              		.cfi_offset 4, -20
  84              		.cfi_offset 5, -16
  85              		.cfi_offset 6, -12
  86              		.cfi_offset 7, -8
  87              		.cfi_offset 14, -4
  88              		.loc 1 96 45 view .LVU19
  89 0002 0646     		mov	r6, r0
  90              	.LBB27:
  91              		.loc 1 117 57 view .LVU20
  92 0004 1B4F     		ldr	r7, .L18
  93              	.LBB28:
  94              	.LBB29:
  95              	.LBB30:
  96              	.LBB31:
  97              		.file 2 "../../../os/hal/ports/STM32/LLD/TIMv1/hal_st_lld.h"
  98              		.loc 2 141 10 view .LVU21
  99 0006 4FF08040 		mov	r0, #1073741824
 100              	.LVL1:
 101              		.loc 2 141 10 view .LVU22
 102 000a 0229     		cmp	r1, #2
 103 000c 446A     		ldr	r4, [r0, #36]
 104              	.LBE31:
 105              	.LBE30:
 106              	.LBE29:
 107              	.LBE28:
 108              	.LBE27:
 109              		.loc 1 104 13 view .LVU23
 110 000e C6E90323 		strd	r2, r3, [r6, #12]
 111              	.LBB49:
 112              		.loc 1 108 5 is_stmt 1 view .LVU24
 113              	.LBB36:
 114              	.LBI28:
ARM GAS  /tmp/cctJI0Jp.s 			page 3


 115              		.file 3 "../../../os/rt/include/chvt.h"
 116              		.loc 3 392 25 view .LVU25
 117              	.LBE36:
 118              	.LBE49:
 119              		.loc 3 397 3 view .LVU26
 120              	.LBB50:
 121              	.LBB37:
 122              	.LBB34:
 123              	.LBI29:
 124              		.file 4 "../../../os/common/ports/ARMCMx/chcore_timer.h"
 125              		.loc 4 105 25 view .LVU27
 126              	.LBE34:
 127              	.LBE37:
 128              	.LBE50:
 129              		.loc 4 107 3 view .LVU28
 130              	.LBB51:
 131              	.LBB38:
 132              	.LBB35:
 133              	.LBB33:
 134              	.LBI30:
 135              		.loc 2 139 25 view .LVU29
 136              	.LBB32:
 137              		.loc 2 141 3 view .LVU30
 138              	.LVL2:
 139              		.loc 2 141 3 is_stmt 0 view .LVU31
 140              	.LBE32:
 141              	.LBE33:
 142              	.LBE35:
 143              	.LBE38:
 144              		.loc 1 112 5 is_stmt 1 view .LVU32
 145              		.loc 1 117 57 is_stmt 0 view .LVU33
 146 0012 3B46     		mov	r3, r7
 147              	.LVL3:
 148              		.loc 1 117 57 view .LVU34
 149 0014 38BF     		it	cc
 150 0016 0221     		movcc	r1, #2
 151              	.LVL4:
 152              		.loc 1 117 5 is_stmt 1 view .LVU35
 153              		.loc 1 117 57 is_stmt 0 view .LVU36
 154 0018 53F81C5F 		ldr	r5, [r3, #28]!
 155              		.loc 1 117 8 view .LVU37
 156 001c 9D42     		cmp	r5, r3
 157 001e 1DD0     		beq	.L17
 158              		.loc 1 135 5 is_stmt 1 view .LVU38
 159              	.LVL5:
 160              		.loc 1 139 5 view .LVU39
 161              		.loc 1 139 28 is_stmt 0 view .LVU40
 162 0020 B86A     		ldr	r0, [r7, #40]
 163              		.loc 1 145 13 view .LVU41
 164 0022 AB68     		ldr	r3, [r5, #8]
 165              		.loc 1 139 17 view .LVU42
 166 0024 241A     		subs	r4, r4, r0
 167              	.LVL6:
 168              		.loc 1 139 17 view .LVU43
 169 0026 6418     		adds	r4, r4, r1
 170              	.LVL7:
 171              		.loc 1 141 5 is_stmt 1 view .LVU44
ARM GAS  /tmp/cctJI0Jp.s 			page 4


 172              		.loc 1 141 8 is_stmt 0 view .LVU45
 173 0028 11D3     		bcc	.L9
 174              	.LVL8:
 175              	.L16:
 176              		.loc 1 145 7 is_stmt 1 view .LVU46
 177              		.loc 1 146 9 is_stmt 0 view .LVU47
 178 002a 2D68     		ldr	r5, [r5]
 179              	.LVL9:
 180              		.loc 1 145 13 view .LVU48
 181 002c E41A     		subs	r4, r4, r3
 182              	.LVL10:
 183              		.loc 1 146 7 is_stmt 1 view .LVU49
 184              		.loc 1 146 7 is_stmt 0 view .LVU50
 185              	.LBE51:
 186              		.loc 1 164 11 view .LVU51
 187 002e AB68     		ldr	r3, [r5, #8]
 188              	.L12:
 189              		.loc 1 164 9 is_stmt 1 view .LVU52
 190 0030 A342     		cmp	r3, r4
 191 0032 FAD3     		bcc	.L16
 192              		.loc 1 170 3 view .LVU53
 193              		.loc 1 171 24 is_stmt 0 view .LVU54
 194 0034 6B68     		ldr	r3, [r5, #4]
 195              		.loc 1 171 13 view .LVU55
 196 0036 C6E90053 		strd	r5, r3, [r6]
 197              		.loc 1 172 3 is_stmt 1 view .LVU56
 198              		.loc 1 172 19 is_stmt 0 view .LVU57
 199 003a 1E60     		str	r6, [r3]
 200              		.loc 1 173 3 is_stmt 1 view .LVU58
 201              		.loc 1 173 11 is_stmt 0 view .LVU59
 202 003c 6E60     		str	r6, [r5, #4]
 203              		.loc 1 174 3 is_stmt 1 view .LVU60
 204              		.loc 1 174 14 is_stmt 0 view .LVU61
 205 003e B460     		str	r4, [r6, #8]
 206              		.loc 1 178 3 is_stmt 1 view .LVU62
 207              		.loc 1 178 12 is_stmt 0 view .LVU63
 208 0040 AB68     		ldr	r3, [r5, #8]
 209              		.loc 1 179 19 view .LVU64
 210 0042 4FF0FF32 		mov	r2, #-1
 211              		.loc 1 178 12 view .LVU65
 212 0046 1B1B     		subs	r3, r3, r4
 213 0048 AB60     		str	r3, [r5, #8]
 214              		.loc 1 179 3 is_stmt 1 view .LVU66
 215              		.loc 1 179 19 is_stmt 0 view .LVU67
 216 004a 7A62     		str	r2, [r7, #36]
 217              		.loc 1 180 1 view .LVU68
 218 004c F8BD     		pop	{r3, r4, r5, r6, r7, pc}
 219              	.LVL11:
 220              	.L9:
 221              	.LBB52:
 222              		.loc 1 148 10 is_stmt 1 view .LVU69
 223              		.loc 1 148 13 is_stmt 0 view .LVU70
 224 004e A342     		cmp	r3, r4
 225 0050 EED9     		bls	.L12
 226              		.loc 1 151 7 is_stmt 1 view .LVU71
 227              	.LVL12:
 228              	.LBB39:
ARM GAS  /tmp/cctJI0Jp.s 			page 5


 229              	.LBI39:
 230              		.loc 4 93 20 view .LVU72
 231              	.LBB40:
 232              		.loc 4 95 3 view .LVU73
 233 0052 2044     		add	r0, r0, r4
 234              	.LVL13:
 235              		.loc 4 95 3 is_stmt 0 view .LVU74
 236 0054 FFF7FEFF 		bl	stSetAlarm
 237              	.LVL14:
 238              		.loc 4 95 3 view .LVU75
 239              	.LBE40:
 240              	.LBE39:
 241              	.LBE52:
 242              		.loc 1 164 11 view .LVU76
 243 0058 AB68     		ldr	r3, [r5, #8]
 244              	.LBB53:
 245              	.LBB42:
 246              	.LBB41:
 247              		.loc 4 96 1 view .LVU77
 248 005a E9E7     		b	.L12
 249              	.LVL15:
 250              	.L17:
 251              		.loc 4 96 1 view .LVU78
 252              	.LBE41:
 253              	.LBE42:
 254              		.loc 1 121 7 is_stmt 1 view .LVU79
 255              		.loc 1 123 22 is_stmt 0 view .LVU80
 256 005c C7E90766 		strd	r6, r6, [r7, #28]
 257              		.loc 1 121 26 view .LVU81
 258 0060 BC62     		str	r4, [r7, #40]
 259              		.loc 1 122 7 is_stmt 1 view .LVU82
 260              		.loc 1 124 7 view .LVU83
 261              	.LBB43:
 262              	.LBB44:
 263              		.loc 4 73 3 is_stmt 0 view .LVU84
 264 0062 0819     		adds	r0, r1, r4
 265              	.LBE44:
 266              	.LBE43:
 267              		.loc 1 125 17 view .LVU85
 268 0064 C6E90055 		strd	r5, r5, [r6]
 269              		.loc 1 126 7 is_stmt 1 view .LVU86
 270              		.loc 1 126 18 is_stmt 0 view .LVU87
 271 0068 B160     		str	r1, [r6, #8]
 272              		.loc 1 129 7 is_stmt 1 view .LVU88
 273              	.LVL16:
 274              	.LBB47:
 275              	.LBI43:
 276              		.loc 4 71 20 view .LVU89
 277              	.LBB45:
 278              		.loc 4 73 3 view .LVU90
 279              	.LBE45:
 280              	.LBE47:
 281              	.LBE53:
 282              		.loc 1 180 1 is_stmt 0 view .LVU91
 283 006a BDE8F840 		pop	{r3, r4, r5, r6, r7, lr}
 284              		.cfi_restore 14
 285              		.cfi_restore 7
ARM GAS  /tmp/cctJI0Jp.s 			page 6


 286              		.cfi_restore 6
 287              		.cfi_restore 5
 288              		.cfi_restore 4
 289              		.cfi_restore 3
 290              		.cfi_def_cfa_offset 0
 291              	.LVL17:
 292              	.LBB54:
 293              	.LBB48:
 294              	.LBB46:
 295              		.loc 4 73 3 view .LVU92
 296 006e FFF7FEBF 		b	stStartAlarm
 297              	.LVL18:
 298              	.L19:
 299              		.loc 4 73 3 view .LVU93
 300 0072 00BF     		.align	2
 301              	.L18:
 302 0074 00000000 		.word	ch
 303              	.LBE46:
 304              	.LBE48:
 305              	.LBE54:
 306              		.cfi_endproc
 307              	.LFE247:
 308              		.size	chVTDoSetI, .-chVTDoSetI
 309              		.section	.text.chVTDoResetI,"ax",%progbits
 310              		.align	1
 311              		.p2align 4,,15
 312              		.global	chVTDoResetI
 313              		.syntax unified
 314              		.thumb
 315              		.thumb_func
 316              		.fpu softvfp
 317              		.type	chVTDoResetI, %function
 318              	chVTDoResetI:
 319              	.LVL19:
 320              	.LFB248:
 321              		.loc 1 190 41 is_stmt 1 view -0
 322              		.cfi_startproc
 323              		@ args = 0, pretend = 0, frame = 0
 324              		@ frame_needed = 0, uses_anonymous_args = 0
 325              		@ link register save eliminated.
 326              		.loc 1 192 21 view .LVU95
 327              		.loc 1 193 3 view .LVU96
 328              		.loc 1 193 3 view .LVU97
 329              		.loc 1 193 3 view .LVU98
 330              		.loc 1 194 3 view .LVU99
 331              		.loc 1 194 3 view .LVU100
 332              		.loc 1 194 3 view .LVU101
 333              		.loc 1 210 3 view .LVU102
 334              		.loc 1 214 3 view .LVU103
 335              		.loc 1 214 16 is_stmt 0 view .LVU104
 336 0000 194B     		ldr	r3, .L28
 337              		.loc 1 214 6 view .LVU105
 338 0002 DA69     		ldr	r2, [r3, #28]
 339 0004 8242     		cmp	r2, r0
 340              		.loc 1 190 41 view .LVU106
 341 0006 10B4     		push	{r4}
 342              		.cfi_def_cfa_offset 4
ARM GAS  /tmp/cctJI0Jp.s 			page 7


 343              		.cfi_offset 4, -4
 344              		.loc 1 214 6 view .LVU107
 345 0008 0ED0     		beq	.L21
 346              		.loc 1 216 5 is_stmt 1 view .LVU108
 347              		.loc 1 216 26 is_stmt 0 view .LVU109
 348 000a D0E90021 		ldrd	r2, r1, [r0]
 349              		.loc 1 221 8 view .LVU110
 350 000e 1C33     		adds	r3, r3, #28
 351              		.loc 1 218 15 view .LVU111
 352 0010 0024     		movs	r4, #0
 353              		.loc 1 221 8 view .LVU112
 354 0012 9A42     		cmp	r2, r3
 355              		.loc 1 216 21 view .LVU113
 356 0014 0A60     		str	r2, [r1]
 357              		.loc 1 217 5 is_stmt 1 view .LVU114
 358              		.loc 1 217 21 is_stmt 0 view .LVU115
 359 0016 5160     		str	r1, [r2, #4]
 360              		.loc 1 218 5 is_stmt 1 view .LVU116
 361              		.loc 1 218 15 is_stmt 0 view .LVU117
 362 0018 C460     		str	r4, [r0, #12]
 363              		.loc 1 221 5 is_stmt 1 view .LVU118
 364              		.loc 1 221 8 is_stmt 0 view .LVU119
 365 001a 03D0     		beq	.L20
 366              		.loc 1 222 7 is_stmt 1 view .LVU120
 367              		.loc 1 222 24 is_stmt 0 view .LVU121
 368 001c 9368     		ldr	r3, [r2, #8]
 369 001e 8168     		ldr	r1, [r0, #8]
 370 0020 0B44     		add	r3, r3, r1
 371 0022 9360     		str	r3, [r2, #8]
 372              	.LVL20:
 373              	.L20:
 374              		.loc 1 268 1 view .LVU122
 375 0024 10BC     		pop	{r4}
 376              		.cfi_remember_state
 377              		.cfi_restore 4
 378              		.cfi_def_cfa_offset 0
 379 0026 7047     		bx	lr
 380              	.LVL21:
 381              	.L21:
 382              		.cfi_restore_state
 383              		.loc 1 228 3 is_stmt 1 view .LVU123
 384              		.loc 1 228 18 is_stmt 0 view .LVU124
 385 0028 1846     		mov	r0, r3
 386              	.LVL22:
 387              		.loc 1 228 23 view .LVU125
 388 002a 1168     		ldr	r1, [r2]
 389              		.loc 1 228 18 view .LVU126
 390 002c 40F81C1F 		str	r1, [r0, #28]!
 391              		.loc 1 229 3 is_stmt 1 view .LVU127
 392              		.loc 1 230 13 is_stmt 0 view .LVU128
 393 0030 0024     		movs	r4, #0
 394              		.loc 1 233 6 view .LVU129
 395 0032 8142     		cmp	r1, r0
 396              		.loc 1 229 24 view .LVU130
 397 0034 4860     		str	r0, [r1, #4]
 398              		.loc 1 230 3 is_stmt 1 view .LVU131
 399              		.loc 1 230 13 is_stmt 0 view .LVU132
ARM GAS  /tmp/cctJI0Jp.s 			page 8


 400 0036 D460     		str	r4, [r2, #12]
 401              		.loc 1 233 3 is_stmt 1 view .LVU133
 402              		.loc 1 233 6 is_stmt 0 view .LVU134
 403 0038 13D0     		beq	.L27
 404              		.loc 1 240 3 is_stmt 1 view .LVU135
 405              		.loc 1 240 25 is_stmt 0 view .LVU136
 406 003a 8868     		ldr	r0, [r1, #8]
 407 003c 9268     		ldr	r2, [r2, #8]
 408              		.loc 1 249 46 view .LVU137
 409 003e 9B6A     		ldr	r3, [r3, #40]
 410              		.loc 1 240 25 view .LVU138
 411 0040 0244     		add	r2, r2, r0
 412              	.LBB55:
 413              	.LBB56:
 414              	.LBB57:
 415              	.LBB58:
 416              		.loc 2 141 10 view .LVU139
 417 0042 4FF08044 		mov	r4, #1073741824
 418              	.LBE58:
 419              	.LBE57:
 420              	.LBE56:
 421              	.LBE55:
 422              		.loc 1 240 25 view .LVU140
 423 0046 8A60     		str	r2, [r1, #8]
 424              		.loc 1 249 3 is_stmt 1 view .LVU141
 425              	.LBB63:
 426              	.LBI55:
 427              		.loc 3 392 25 view .LVU142
 428              	.LBE63:
 429              		.loc 3 397 3 view .LVU143
 430              	.LBB64:
 431              	.LBB61:
 432              	.LBI56:
 433              		.loc 4 105 25 view .LVU144
 434              	.LBE61:
 435              	.LBE64:
 436              		.loc 4 107 3 view .LVU145
 437              	.LBB65:
 438              	.LBB62:
 439              	.LBB60:
 440              	.LBI57:
 441              		.loc 2 139 25 view .LVU146
 442              	.LBB59:
 443              		.loc 2 141 3 view .LVU147
 444              		.loc 2 141 10 is_stmt 0 view .LVU148
 445 0048 606A     		ldr	r0, [r4, #36]
 446              	.LVL23:
 447              		.loc 2 141 10 view .LVU149
 448              	.LBE59:
 449              	.LBE60:
 450              	.LBE62:
 451              	.LBE65:
 452              		.loc 1 253 3 is_stmt 1 view .LVU150
 453              		.loc 1 249 12 is_stmt 0 view .LVU151
 454 004a C11A     		subs	r1, r0, r3
 455              	.LVL24:
 456              		.loc 1 253 6 view .LVU152
ARM GAS  /tmp/cctJI0Jp.s 			page 9


 457 004c 8A42     		cmp	r2, r1
 458 004e E9D9     		bls	.L20
 459              		.loc 1 258 3 is_stmt 1 view .LVU153
 460              		.loc 1 258 9 is_stmt 0 view .LVU154
 461 0050 1B1A     		subs	r3, r3, r0
 462 0052 1A44     		add	r2, r2, r3
 463              	.LVL25:
 464              		.loc 1 262 3 is_stmt 1 view .LVU155
 465              		.loc 1 266 3 view .LVU156
 466              	.LBB66:
 467              	.LBI66:
 468              		.loc 4 93 20 view .LVU157
 469              	.LBB67:
 470              		.loc 4 95 3 view .LVU158
 471              	.LBE67:
 472              	.LBE66:
 473              		.loc 1 268 1 is_stmt 0 view .LVU159
 474 0054 10BC     		pop	{r4}
 475              		.cfi_remember_state
 476              		.cfi_restore 4
 477              		.cfi_def_cfa_offset 0
 478              	.LBB69:
 479              	.LBB68:
 480              		.loc 4 95 3 view .LVU160
 481 0056 022A     		cmp	r2, #2
 482 0058 2CBF     		ite	cs
 483 005a 8018     		addcs	r0, r0, r2
 484 005c 0230     		addcc	r0, r0, #2
 485              	.LVL26:
 486              		.loc 4 95 3 view .LVU161
 487 005e FFF7FEBF 		b	stSetAlarm
 488              	.LVL27:
 489              	.L27:
 490              		.cfi_restore_state
 491              		.loc 4 95 3 view .LVU162
 492              	.LBE68:
 493              	.LBE69:
 494              		.loc 1 234 5 is_stmt 1 view .LVU163
 495              	.LBB70:
 496              	.LBI70:
 497              		.loc 4 81 20 view .LVU164
 498              	.LBB71:
 499              		.loc 4 83 3 view .LVU165
 500              	.LBE71:
 501              	.LBE70:
 502              		.loc 1 268 1 is_stmt 0 view .LVU166
 503 0062 10BC     		pop	{r4}
 504              		.cfi_restore 4
 505              		.cfi_def_cfa_offset 0
 506              	.LBB73:
 507              	.LBB72:
 508              		.loc 4 83 3 view .LVU167
 509 0064 FFF7FEBF 		b	stStopAlarm
 510              	.LVL28:
 511              	.L29:
 512              		.align	2
 513              	.L28:
ARM GAS  /tmp/cctJI0Jp.s 			page 10


 514 0068 00000000 		.word	ch
 515              	.LBE72:
 516              	.LBE73:
 517              		.cfi_endproc
 518              	.LFE248:
 519              		.size	chVTDoResetI, .-chVTDoResetI
 520              		.text
 521              	.Letext0:
 522              		.file 5 "/usr/lib/gcc/arm-none-eabi/10.3.1/include/stdint.h"
 523              		.file 6 "../../../os/common/ports/ARMCMx/compilers/GCC/chtypes.h"
 524              		.file 7 "../../../os/rt/include/chsystypes.h"
 525              		.file 8 "../../../os/rt/include/chschd.h"
 526              		.file 9 "../../../os/common/ports/ARMCMx/chcore.h"
 527              		.file 10 "../../../os/common/ports/ARMCMx/chcore_v7m.h"
 528              		.file 11 "../../../os/hal/ports/STM32/LLD/TIMv1/stm32_tim.h"
 529              		.file 12 "../../../os/rt/include/chtm.h"
 530              		.file 13 "../../../os/rt/include/chsem.h"
 531              		.file 14 "../../../os/rt/include/chmtx.h"
 532              		.file 15 "../../../os/hal/include/hal_st.h"
 533              		.section	.debug_info,"",%progbits
 534              	.Ldebug_info0:
 535 0000 810A0000 		.4byte	0xa81
 536 0004 0400     		.2byte	0x4
 537 0006 00000000 		.4byte	.Ldebug_abbrev0
 538 000a 04       		.byte	0x4
 539 000b 01       		.uleb128 0x1
 540 000c 90020000 		.4byte	.LASF111
 541 0010 0C       		.byte	0xc
 542 0011 35050000 		.4byte	.LASF112
 543 0015 00000000 		.4byte	.LASF113
 544 0019 68010000 		.4byte	.Ldebug_ranges0+0x168
 545 001d 00000000 		.4byte	0
 546 0021 00000000 		.4byte	.Ldebug_line0
 547 0025 02       		.uleb128 0x2
 548 0026 04       		.byte	0x4
 549 0027 05       		.byte	0x5
 550 0028 696E7400 		.ascii	"int\000"
 551 002c 03       		.uleb128 0x3
 552 002d 04       		.byte	0x4
 553 002e 07       		.byte	0x7
 554 002f A6040000 		.4byte	.LASF0
 555 0033 03       		.uleb128 0x3
 556 0034 08       		.byte	0x8
 557 0035 05       		.byte	0x5
 558 0036 71010000 		.4byte	.LASF1
 559 003a 03       		.uleb128 0x3
 560 003b 08       		.byte	0x8
 561 003c 04       		.byte	0x4
 562 003d 7C040000 		.4byte	.LASF2
 563 0041 03       		.uleb128 0x3
 564 0042 01       		.byte	0x1
 565 0043 06       		.byte	0x6
 566 0044 33010000 		.4byte	.LASF3
 567 0048 03       		.uleb128 0x3
 568 0049 02       		.byte	0x2
 569 004a 05       		.byte	0x5
 570 004b EB030000 		.4byte	.LASF4
ARM GAS  /tmp/cctJI0Jp.s 			page 11


 571 004f 04       		.uleb128 0x4
 572 0050 CF030000 		.4byte	.LASF6
 573 0054 05       		.byte	0x5
 574 0055 28       		.byte	0x28
 575 0056 18       		.byte	0x18
 576 0057 5B000000 		.4byte	0x5b
 577 005b 03       		.uleb128 0x3
 578 005c 04       		.byte	0x4
 579 005d 05       		.byte	0x5
 580 005e 55010000 		.4byte	.LASF5
 581 0062 04       		.uleb128 0x4
 582 0063 0F040000 		.4byte	.LASF7
 583 0067 05       		.byte	0x5
 584 0068 2E       		.byte	0x2e
 585 0069 18       		.byte	0x18
 586 006a 6E000000 		.4byte	0x6e
 587 006e 03       		.uleb128 0x3
 588 006f 01       		.byte	0x1
 589 0070 08       		.byte	0x8
 590 0071 D7030000 		.4byte	.LASF8
 591 0075 03       		.uleb128 0x3
 592 0076 02       		.byte	0x2
 593 0077 07       		.byte	0x7
 594 0078 E8040000 		.4byte	.LASF9
 595 007c 04       		.uleb128 0x4
 596 007d 56040000 		.4byte	.LASF10
 597 0081 05       		.byte	0x5
 598 0082 34       		.byte	0x34
 599 0083 19       		.byte	0x19
 600 0084 8D000000 		.4byte	0x8d
 601 0088 05       		.uleb128 0x5
 602 0089 7C000000 		.4byte	0x7c
 603 008d 03       		.uleb128 0x3
 604 008e 04       		.byte	0x4
 605 008f 07       		.byte	0x7
 606 0090 C7010000 		.4byte	.LASF11
 607 0094 04       		.uleb128 0x4
 608 0095 6D000000 		.4byte	.LASF12
 609 0099 05       		.byte	0x5
 610 009a 37       		.byte	0x37
 611 009b 19       		.byte	0x19
 612 009c A0000000 		.4byte	0xa0
 613 00a0 03       		.uleb128 0x3
 614 00a1 08       		.byte	0x8
 615 00a2 07       		.byte	0x7
 616 00a3 A8000000 		.4byte	.LASF13
 617 00a7 04       		.uleb128 0x4
 618 00a8 5E020000 		.4byte	.LASF14
 619 00ac 06       		.byte	0x6
 620 00ad 39       		.byte	0x39
 621 00ae 1D       		.byte	0x1d
 622 00af 7C000000 		.4byte	0x7c
 623 00b3 04       		.uleb128 0x4
 624 00b4 A7050000 		.4byte	.LASF15
 625 00b8 06       		.byte	0x6
 626 00b9 3C       		.byte	0x3c
 627 00ba 1D       		.byte	0x1d
ARM GAS  /tmp/cctJI0Jp.s 			page 12


 628 00bb 62000000 		.4byte	0x62
 629 00bf 04       		.uleb128 0x4
 630 00c0 5E010000 		.4byte	.LASF16
 631 00c4 06       		.byte	0x6
 632 00c5 3D       		.byte	0x3d
 633 00c6 1D       		.byte	0x1d
 634 00c7 62000000 		.4byte	0x62
 635 00cb 04       		.uleb128 0x4
 636 00cc 94030000 		.4byte	.LASF17
 637 00d0 06       		.byte	0x6
 638 00d1 3E       		.byte	0x3e
 639 00d2 1D       		.byte	0x1d
 640 00d3 62000000 		.4byte	0x62
 641 00d7 04       		.uleb128 0x4
 642 00d8 B1030000 		.4byte	.LASF18
 643 00dc 06       		.byte	0x6
 644 00dd 40       		.byte	0x40
 645 00de 1D       		.byte	0x1d
 646 00df 7C000000 		.4byte	0x7c
 647 00e3 04       		.uleb128 0x4
 648 00e4 0F050000 		.4byte	.LASF19
 649 00e8 06       		.byte	0x6
 650 00e9 41       		.byte	0x41
 651 00ea 1D       		.byte	0x1d
 652 00eb 4F000000 		.4byte	0x4f
 653 00ef 04       		.uleb128 0x4
 654 00f0 76000000 		.4byte	.LASF20
 655 00f4 06       		.byte	0x6
 656 00f5 43       		.byte	0x43
 657 00f6 1D       		.byte	0x1d
 658 00f7 7C000000 		.4byte	0x7c
 659 00fb 04       		.uleb128 0x4
 660 00fc 9E010000 		.4byte	.LASF21
 661 0100 06       		.byte	0x6
 662 0101 45       		.byte	0x45
 663 0102 1D       		.byte	0x1d
 664 0103 4F000000 		.4byte	0x4f
 665 0107 04       		.uleb128 0x4
 666 0108 C1040000 		.4byte	.LASF22
 667 010c 07       		.byte	0x7
 668 010d 33       		.byte	0x33
 669 010e 12       		.byte	0x12
 670 010f 7C000000 		.4byte	0x7c
 671 0113 04       		.uleb128 0x4
 672 0114 B8040000 		.4byte	.LASF23
 673 0118 07       		.byte	0x7
 674 0119 3F       		.byte	0x3f
 675 011a 1A       		.byte	0x1a
 676 011b 1F010000 		.4byte	0x11f
 677 011f 06       		.uleb128 0x6
 678 0120 E9010000 		.4byte	.LASF41
 679 0124 44       		.byte	0x44
 680 0125 08       		.byte	0x8
 681 0126 9A       		.byte	0x9a
 682 0127 08       		.byte	0x8
 683 0128 0F020000 		.4byte	0x20f
 684 012c 07       		.uleb128 0x7
ARM GAS  /tmp/cctJI0Jp.s 			page 13


 685 012d 7F010000 		.4byte	.LASF24
 686 0131 08       		.byte	0x8
 687 0132 9B       		.byte	0x9b
 688 0133 19       		.byte	0x19
 689 0134 48020000 		.4byte	0x248
 690 0138 00       		.byte	0
 691 0139 07       		.uleb128 0x7
 692 013a 87030000 		.4byte	.LASF25
 693 013e 08       		.byte	0x8
 694 013f 9C       		.byte	0x9c
 695 0140 19       		.byte	0x19
 696 0141 D7000000 		.4byte	0xd7
 697 0145 08       		.byte	0x8
 698 0146 08       		.uleb128 0x8
 699 0147 63747800 		.ascii	"ctx\000"
 700 014b 08       		.byte	0x8
 701 014c 9D       		.byte	0x9d
 702 014d 19       		.byte	0x19
 703 014e 89040000 		.4byte	0x489
 704 0152 0C       		.byte	0xc
 705 0153 07       		.uleb128 0x7
 706 0154 4F020000 		.4byte	.LASF26
 707 0158 08       		.byte	0x8
 708 0159 9F       		.byte	0x9f
 709 015a 1A       		.byte	0x1a
 710 015b 1B020000 		.4byte	0x21b
 711 015f 10       		.byte	0x10
 712 0160 07       		.uleb128 0x7
 713 0161 A0040000 		.4byte	.LASF27
 714 0165 08       		.byte	0x8
 715 0166 A0       		.byte	0xa0
 716 0167 1A       		.byte	0x1a
 717 0168 1B020000 		.4byte	0x21b
 718 016c 14       		.byte	0x14
 719 016d 07       		.uleb128 0x7
 720 016e D9010000 		.4byte	.LASF28
 721 0172 08       		.byte	0x8
 722 0173 A7       		.byte	0xa7
 723 0174 1A       		.byte	0x1a
 724 0175 5B070000 		.4byte	0x75b
 725 0179 18       		.byte	0x18
 726 017a 07       		.uleb128 0x7
 727 017b 88040000 		.4byte	.LASF29
 728 017f 08       		.byte	0x8
 729 0180 B0       		.byte	0xb0
 730 0181 1A       		.byte	0x1a
 731 0182 72070000 		.4byte	0x772
 732 0186 1C       		.byte	0x1c
 733 0187 07       		.uleb128 0x7
 734 0188 4F010000 		.4byte	.LASF30
 735 018c 08       		.byte	0x8
 736 018d B5       		.byte	0xb5
 737 018e 19       		.byte	0x19
 738 018f BF000000 		.4byte	0xbf
 739 0193 20       		.byte	0x20
 740 0194 07       		.uleb128 0x7
 741 0195 60050000 		.4byte	.LASF31
ARM GAS  /tmp/cctJI0Jp.s 			page 14


 742 0199 08       		.byte	0x8
 743 019a B9       		.byte	0xb9
 744 019b 19       		.byte	0x19
 745 019c B3000000 		.4byte	0xb3
 746 01a0 21       		.byte	0x21
 747 01a1 07       		.uleb128 0x7
 748 01a2 9C030000 		.4byte	.LASF32
 749 01a6 08       		.byte	0x8
 750 01a7 BE       		.byte	0xbe
 751 01a8 19       		.byte	0x19
 752 01a9 CB000000 		.4byte	0xcb
 753 01ad 22       		.byte	0x22
 754 01ae 09       		.uleb128 0x9
 755 01af 7500     		.ascii	"u\000"
 756 01b1 08       		.byte	0x8
 757 01b2 0F01     		.2byte	0x10f
 758 01b4 19       		.byte	0x19
 759 01b5 80060000 		.4byte	0x680
 760 01b9 24       		.byte	0x24
 761 01ba 0A       		.uleb128 0xa
 762 01bb 8E010000 		.4byte	.LASF33
 763 01bf 08       		.byte	0x8
 764 01c0 1401     		.2byte	0x114
 765 01c2 19       		.byte	0x19
 766 01c3 21020000 		.4byte	0x221
 767 01c7 28       		.byte	0x28
 768 01c8 0A       		.uleb128 0xa
 769 01c9 46010000 		.4byte	.LASF34
 770 01cd 08       		.byte	0x8
 771 01ce 1A01     		.2byte	0x11a
 772 01d0 19       		.byte	0x19
 773 01d1 48020000 		.4byte	0x248
 774 01d5 2C       		.byte	0x2c
 775 01d6 0A       		.uleb128 0xa
 776 01d7 0A020000 		.4byte	.LASF35
 777 01db 08       		.byte	0x8
 778 01dc 2001     		.2byte	0x120
 779 01de 19       		.byte	0x19
 780 01df EF000000 		.4byte	0xef
 781 01e3 34       		.byte	0x34
 782 01e4 0A       		.uleb128 0xa
 783 01e5 AF050000 		.4byte	.LASF36
 784 01e9 08       		.byte	0x8
 785 01ea 2701     		.2byte	0x127
 786 01ec 1A       		.byte	0x1a
 787 01ed 55070000 		.4byte	0x755
 788 01f1 38       		.byte	0x38
 789 01f2 0A       		.uleb128 0xa
 790 01f3 55020000 		.4byte	.LASF37
 791 01f7 08       		.byte	0x8
 792 01f8 2B01     		.2byte	0x12b
 793 01fa 19       		.byte	0x19
 794 01fb D7000000 		.4byte	0xd7
 795 01ff 3C       		.byte	0x3c
 796 0200 0A       		.uleb128 0xa
 797 0201 DE010000 		.4byte	.LASF38
 798 0205 08       		.byte	0x8
ARM GAS  /tmp/cctJI0Jp.s 			page 15


 799 0206 3201     		.2byte	0x132
 800 0208 1A       		.byte	0x1a
 801 0209 08030000 		.4byte	0x308
 802 020d 40       		.byte	0x40
 803 020e 00       		.byte	0
 804 020f 04       		.uleb128 0x4
 805 0210 66020000 		.4byte	.LASF39
 806 0214 07       		.byte	0x7
 807 0215 44       		.byte	0x44
 808 0216 14       		.byte	0x14
 809 0217 1B020000 		.4byte	0x21b
 810 021b 0B       		.uleb128 0xb
 811 021c 04       		.byte	0x4
 812 021d 13010000 		.4byte	0x113
 813 0221 04       		.uleb128 0x4
 814 0222 98050000 		.4byte	.LASF40
 815 0226 07       		.byte	0x7
 816 0227 49       		.byte	0x49
 817 0228 20       		.byte	0x20
 818 0229 2D020000 		.4byte	0x22d
 819 022d 06       		.uleb128 0x6
 820 022e 66040000 		.4byte	.LASF42
 821 0232 04       		.byte	0x4
 822 0233 08       		.byte	0x8
 823 0234 88       		.byte	0x88
 824 0235 08       		.byte	0x8
 825 0236 48020000 		.4byte	0x248
 826 023a 07       		.uleb128 0x7
 827 023b 5B000000 		.4byte	.LASF43
 828 023f 08       		.byte	0x8
 829 0240 89       		.byte	0x89
 830 0241 1A       		.byte	0x1a
 831 0242 1B020000 		.4byte	0x21b
 832 0246 00       		.byte	0
 833 0247 00       		.byte	0
 834 0248 04       		.uleb128 0x4
 835 0249 1C050000 		.4byte	.LASF44
 836 024d 07       		.byte	0x7
 837 024e 50       		.byte	0x50
 838 024f 21       		.byte	0x21
 839 0250 54020000 		.4byte	0x254
 840 0254 06       		.uleb128 0x6
 841 0255 03010000 		.4byte	.LASF45
 842 0259 08       		.byte	0x8
 843 025a 08       		.byte	0x8
 844 025b 8F       		.byte	0x8f
 845 025c 08       		.byte	0x8
 846 025d 7C020000 		.4byte	0x27c
 847 0261 07       		.uleb128 0x7
 848 0262 5B000000 		.4byte	.LASF43
 849 0266 08       		.byte	0x8
 850 0267 90       		.byte	0x90
 851 0268 1A       		.byte	0x1a
 852 0269 1B020000 		.4byte	0x21b
 853 026d 00       		.byte	0
 854 026e 07       		.uleb128 0x7
 855 026f 82000000 		.4byte	.LASF46
ARM GAS  /tmp/cctJI0Jp.s 			page 16


 856 0273 08       		.byte	0x8
 857 0274 91       		.byte	0x91
 858 0275 1A       		.byte	0x1a
 859 0276 1B020000 		.4byte	0x21b
 860 027a 04       		.byte	0x4
 861 027b 00       		.byte	0
 862 027c 04       		.uleb128 0x4
 863 027d 43000000 		.4byte	.LASF47
 864 0281 07       		.byte	0x7
 865 0282 57       		.byte	0x57
 866 0283 1E       		.byte	0x1e
 867 0284 88020000 		.4byte	0x288
 868 0288 0C       		.uleb128 0xc
 869 0289 2B020000 		.4byte	.LASF48
 870 028d 1C       		.byte	0x1c
 871 028e 08       		.byte	0x8
 872 028f 6A01     		.2byte	0x16a
 873 0291 08       		.byte	0x8
 874 0292 EB020000 		.4byte	0x2eb
 875 0296 0A       		.uleb128 0xa
 876 0297 7F010000 		.4byte	.LASF24
 877 029b 08       		.byte	0x8
 878 029c 6B01     		.2byte	0x16b
 879 029e 19       		.byte	0x19
 880 029f 48020000 		.4byte	0x248
 881 02a3 00       		.byte	0
 882 02a4 0A       		.uleb128 0xa
 883 02a5 87030000 		.4byte	.LASF25
 884 02a9 08       		.byte	0x8
 885 02aa 6C01     		.2byte	0x16c
 886 02ac 19       		.byte	0x19
 887 02ad D7000000 		.4byte	0xd7
 888 02b1 08       		.byte	0x8
 889 02b2 09       		.uleb128 0x9
 890 02b3 63747800 		.ascii	"ctx\000"
 891 02b7 08       		.byte	0x8
 892 02b8 6E01     		.2byte	0x16e
 893 02ba 19       		.byte	0x19
 894 02bb 89040000 		.4byte	0x489
 895 02bf 0C       		.byte	0xc
 896 02c0 0A       		.uleb128 0xa
 897 02c1 4F020000 		.4byte	.LASF26
 898 02c5 08       		.byte	0x8
 899 02c6 7101     		.2byte	0x171
 900 02c8 1A       		.byte	0x1a
 901 02c9 1B020000 		.4byte	0x21b
 902 02cd 10       		.byte	0x10
 903 02ce 0A       		.uleb128 0xa
 904 02cf A0040000 		.4byte	.LASF27
 905 02d3 08       		.byte	0x8
 906 02d4 7201     		.2byte	0x172
 907 02d6 1A       		.byte	0x1a
 908 02d7 1B020000 		.4byte	0x21b
 909 02db 14       		.byte	0x14
 910 02dc 0A       		.uleb128 0xa
 911 02dd 8C030000 		.4byte	.LASF49
 912 02e1 08       		.byte	0x8
ARM GAS  /tmp/cctJI0Jp.s 			page 17


 913 02e2 7501     		.2byte	0x175
 914 02e4 1A       		.byte	0x1a
 915 02e5 1B020000 		.4byte	0x21b
 916 02e9 18       		.byte	0x18
 917 02ea 00       		.byte	0
 918 02eb 04       		.uleb128 0x4
 919 02ec CB040000 		.4byte	.LASF50
 920 02f0 07       		.byte	0x7
 921 02f1 5C       		.byte	0x5c
 922 02f2 10       		.byte	0x10
 923 02f3 F7020000 		.4byte	0x2f7
 924 02f7 0B       		.uleb128 0xb
 925 02f8 04       		.byte	0x4
 926 02f9 FD020000 		.4byte	0x2fd
 927 02fd 0D       		.uleb128 0xd
 928 02fe 08030000 		.4byte	0x308
 929 0302 0E       		.uleb128 0xe
 930 0303 08030000 		.4byte	0x308
 931 0307 00       		.byte	0
 932 0308 0F       		.uleb128 0xf
 933 0309 04       		.byte	0x4
 934 030a 04       		.uleb128 0x4
 935 030b A1030000 		.4byte	.LASF51
 936 030f 07       		.byte	0x7
 937 0310 61       		.byte	0x61
 938 0311 21       		.byte	0x21
 939 0312 16030000 		.4byte	0x316
 940 0316 0C       		.uleb128 0xc
 941 0317 20040000 		.4byte	.LASF52
 942 031b 14       		.byte	0x14
 943 031c 08       		.byte	0x8
 944 031d 4501     		.2byte	0x145
 945 031f 08       		.byte	0x8
 946 0320 6B030000 		.4byte	0x36b
 947 0324 0A       		.uleb128 0xa
 948 0325 5B000000 		.4byte	.LASF43
 949 0329 08       		.byte	0x8
 950 032a 4601     		.2byte	0x146
 951 032c 1A       		.byte	0x1a
 952 032d 78070000 		.4byte	0x778
 953 0331 00       		.byte	0
 954 0332 0A       		.uleb128 0xa
 955 0333 82000000 		.4byte	.LASF46
 956 0337 08       		.byte	0x8
 957 0338 4701     		.2byte	0x147
 958 033a 1A       		.byte	0x1a
 959 033b 78070000 		.4byte	0x778
 960 033f 04       		.byte	0x4
 961 0340 0A       		.uleb128 0xa
 962 0341 60000000 		.4byte	.LASF53
 963 0345 08       		.byte	0x8
 964 0346 4801     		.2byte	0x148
 965 0348 19       		.byte	0x19
 966 0349 07010000 		.4byte	0x107
 967 034d 08       		.byte	0x8
 968 034e 0A       		.uleb128 0xa
 969 034f 67010000 		.4byte	.LASF54
ARM GAS  /tmp/cctJI0Jp.s 			page 18


 970 0353 08       		.byte	0x8
 971 0354 4901     		.2byte	0x149
 972 0356 19       		.byte	0x19
 973 0357 EB020000 		.4byte	0x2eb
 974 035b 0C       		.byte	0xc
 975 035c 09       		.uleb128 0x9
 976 035d 70617200 		.ascii	"par\000"
 977 0361 08       		.byte	0x8
 978 0362 4B01     		.2byte	0x14b
 979 0364 1A       		.byte	0x1a
 980 0365 08030000 		.4byte	0x308
 981 0369 10       		.byte	0x10
 982 036a 00       		.byte	0
 983 036b 04       		.uleb128 0x4
 984 036c E8000000 		.4byte	.LASF55
 985 0370 07       		.byte	0x7
 986 0371 66       		.byte	0x66
 987 0372 28       		.byte	0x28
 988 0373 77030000 		.4byte	0x377
 989 0377 0C       		.uleb128 0xc
 990 0378 79020000 		.4byte	.LASF56
 991 037c 10       		.byte	0x10
 992 037d 08       		.byte	0x8
 993 037e 5501     		.2byte	0x155
 994 0380 08       		.byte	0x8
 995 0381 BE030000 		.4byte	0x3be
 996 0385 0A       		.uleb128 0xa
 997 0386 5B000000 		.4byte	.LASF43
 998 038a 08       		.byte	0x8
 999 038b 5601     		.2byte	0x156
 1000 038d 1A       		.byte	0x1a
 1001 038e 78070000 		.4byte	0x778
 1002 0392 00       		.byte	0
 1003 0393 0A       		.uleb128 0xa
 1004 0394 82000000 		.4byte	.LASF46
 1005 0398 08       		.byte	0x8
 1006 0399 5801     		.2byte	0x158
 1007 039b 1A       		.byte	0x1a
 1008 039c 78070000 		.4byte	0x778
 1009 03a0 04       		.byte	0x4
 1010 03a1 0A       		.uleb128 0xa
 1011 03a2 60000000 		.4byte	.LASF53
 1012 03a6 08       		.byte	0x8
 1013 03a7 5A01     		.2byte	0x15a
 1014 03a9 19       		.byte	0x19
 1015 03aa 07010000 		.4byte	0x107
 1016 03ae 08       		.byte	0x8
 1017 03af 0A       		.uleb128 0xa
 1018 03b0 F5030000 		.4byte	.LASF57
 1019 03b4 08       		.byte	0x8
 1020 03b5 6201     		.2byte	0x162
 1021 03b7 19       		.byte	0x19
 1022 03b8 07010000 		.4byte	0x107
 1023 03bc 0C       		.byte	0xc
 1024 03bd 00       		.byte	0
 1025 03be 04       		.uleb128 0x4
 1026 03bf 93000000 		.4byte	.LASF58
ARM GAS  /tmp/cctJI0Jp.s 			page 19


 1027 03c3 07       		.byte	0x7
 1028 03c4 6B       		.byte	0x6b
 1029 03c5 20       		.byte	0x20
 1030 03c6 CA030000 		.4byte	0x3ca
 1031 03ca 0C       		.uleb128 0xc
 1032 03cb B9030000 		.4byte	.LASF59
 1033 03cf 04       		.byte	0x4
 1034 03d0 08       		.byte	0x8
 1035 03d1 7C01     		.2byte	0x17c
 1036 03d3 08       		.byte	0x8
 1037 03d4 E7030000 		.4byte	0x3e7
 1038 03d8 0A       		.uleb128 0xa
 1039 03d9 14010000 		.4byte	.LASF60
 1040 03dd 08       		.byte	0x8
 1041 03de 8401     		.2byte	0x184
 1042 03e0 24       		.byte	0x24
 1043 03e1 61070000 		.4byte	0x761
 1044 03e5 00       		.byte	0
 1045 03e6 00       		.byte	0
 1046 03e7 04       		.uleb128 0x4
 1047 03e8 13020000 		.4byte	.LASF61
 1048 03ec 07       		.byte	0x7
 1049 03ed 70       		.byte	0x70
 1050 03ee 1A       		.byte	0x1a
 1051 03ef F3030000 		.4byte	0x3f3
 1052 03f3 0C       		.uleb128 0xc
 1053 03f4 05040000 		.4byte	.LASF62
 1054 03f8 78       		.byte	0x78
 1055 03f9 08       		.byte	0x8
 1056 03fa 9C01     		.2byte	0x19c
 1057 03fc 08       		.byte	0x8
 1058 03fd 47040000 		.4byte	0x447
 1059 0401 0A       		.uleb128 0xa
 1060 0402 4F050000 		.4byte	.LASF63
 1061 0406 08       		.byte	0x8
 1062 0407 A001     		.2byte	0x1a0
 1063 0409 19       		.byte	0x19
 1064 040a 7C020000 		.4byte	0x27c
 1065 040e 00       		.byte	0
 1066 040f 0A       		.uleb128 0xa
 1067 0410 3F010000 		.4byte	.LASF64
 1068 0414 08       		.byte	0x8
 1069 0415 A401     		.2byte	0x1a4
 1070 0417 19       		.byte	0x19
 1071 0418 6B030000 		.4byte	0x36b
 1072 041c 1C       		.byte	0x1c
 1073 041d 09       		.uleb128 0x9
 1074 041e 64626700 		.ascii	"dbg\000"
 1075 0422 08       		.byte	0x8
 1076 0423 A801     		.2byte	0x1a8
 1077 0425 19       		.byte	0x19
 1078 0426 BE030000 		.4byte	0x3be
 1079 042a 2C       		.byte	0x2c
 1080 042b 0A       		.uleb128 0xa
 1081 042c D5000000 		.4byte	.LASF65
 1082 0430 08       		.byte	0x8
 1083 0431 AC01     		.2byte	0x1ac
ARM GAS  /tmp/cctJI0Jp.s 			page 20


 1084 0433 19       		.byte	0x19
 1085 0434 13010000 		.4byte	0x113
 1086 0438 30       		.byte	0x30
 1087 0439 09       		.uleb128 0x9
 1088 043a 746D00   		.ascii	"tm\000"
 1089 043d 08       		.byte	0x8
 1090 043e B101     		.2byte	0x1b1
 1091 0440 19       		.byte	0x19
 1092 0441 74060000 		.4byte	0x674
 1093 0445 74       		.byte	0x74
 1094 0446 00       		.byte	0
 1095 0447 10       		.uleb128 0x10
 1096 0448 88000000 		.4byte	0x88
 1097 044c 57040000 		.4byte	0x457
 1098 0450 11       		.uleb128 0x11
 1099 0451 2C000000 		.4byte	0x2c
 1100 0455 01       		.byte	0x1
 1101 0456 00       		.byte	0
 1102 0457 05       		.uleb128 0x5
 1103 0458 47040000 		.4byte	0x447
 1104 045c 10       		.uleb128 0x10
 1105 045d 88000000 		.4byte	0x88
 1106 0461 6C040000 		.4byte	0x46c
 1107 0465 11       		.uleb128 0x11
 1108 0466 2C000000 		.4byte	0x2c
 1109 046a 03       		.byte	0x3
 1110 046b 00       		.byte	0
 1111 046c 05       		.uleb128 0x5
 1112 046d 5C040000 		.4byte	0x45c
 1113 0471 04       		.uleb128 0x4
 1114 0472 85010000 		.4byte	.LASF66
 1115 0476 09       		.byte	0x9
 1116 0477 65       		.byte	0x65
 1117 0478 0F       		.byte	0xf
 1118 0479 08030000 		.4byte	0x308
 1119 047d 04       		.uleb128 0x4
 1120 047e 44020000 		.4byte	.LASF67
 1121 0482 09       		.byte	0x9
 1122 0483 6D       		.byte	0x6d
 1123 0484 12       		.byte	0x12
 1124 0485 94000000 		.4byte	0x94
 1125 0489 06       		.uleb128 0x6
 1126 048a 64030000 		.4byte	.LASF68
 1127 048e 04       		.byte	0x4
 1128 048f 09       		.byte	0x9
 1129 0490 89       		.byte	0x89
 1130 0491 08       		.byte	0x8
 1131 0492 A3040000 		.4byte	0x4a3
 1132 0496 08       		.uleb128 0x8
 1133 0497 737000   		.ascii	"sp\000"
 1134 049a 09       		.byte	0x9
 1135 049b 8A       		.byte	0x8a
 1136 049c 17       		.byte	0x17
 1137 049d 29050000 		.4byte	0x529
 1138 04a1 00       		.byte	0
 1139 04a2 00       		.byte	0
 1140 04a3 0C       		.uleb128 0xc
ARM GAS  /tmp/cctJI0Jp.s 			page 21


 1141 04a4 87000000 		.4byte	.LASF69
 1142 04a8 24       		.byte	0x24
 1143 04a9 0A       		.byte	0xa
 1144 04aa 5901     		.2byte	0x159
 1145 04ac 08       		.byte	0x8
 1146 04ad 29050000 		.4byte	0x529
 1147 04b1 09       		.uleb128 0x9
 1148 04b2 723400   		.ascii	"r4\000"
 1149 04b5 0A       		.byte	0xa
 1150 04b6 6C01     		.2byte	0x16c
 1151 04b8 11       		.byte	0x11
 1152 04b9 71040000 		.4byte	0x471
 1153 04bd 00       		.byte	0
 1154 04be 09       		.uleb128 0x9
 1155 04bf 723500   		.ascii	"r5\000"
 1156 04c2 0A       		.byte	0xa
 1157 04c3 6D01     		.2byte	0x16d
 1158 04c5 11       		.byte	0x11
 1159 04c6 71040000 		.4byte	0x471
 1160 04ca 04       		.byte	0x4
 1161 04cb 09       		.uleb128 0x9
 1162 04cc 723600   		.ascii	"r6\000"
 1163 04cf 0A       		.byte	0xa
 1164 04d0 6E01     		.2byte	0x16e
 1165 04d2 11       		.byte	0x11
 1166 04d3 71040000 		.4byte	0x471
 1167 04d7 08       		.byte	0x8
 1168 04d8 09       		.uleb128 0x9
 1169 04d9 723700   		.ascii	"r7\000"
 1170 04dc 0A       		.byte	0xa
 1171 04dd 6F01     		.2byte	0x16f
 1172 04df 11       		.byte	0x11
 1173 04e0 71040000 		.4byte	0x471
 1174 04e4 0C       		.byte	0xc
 1175 04e5 09       		.uleb128 0x9
 1176 04e6 723800   		.ascii	"r8\000"
 1177 04e9 0A       		.byte	0xa
 1178 04ea 7001     		.2byte	0x170
 1179 04ec 11       		.byte	0x11
 1180 04ed 71040000 		.4byte	0x471
 1181 04f1 10       		.byte	0x10
 1182 04f2 09       		.uleb128 0x9
 1183 04f3 723900   		.ascii	"r9\000"
 1184 04f6 0A       		.byte	0xa
 1185 04f7 7101     		.2byte	0x171
 1186 04f9 11       		.byte	0x11
 1187 04fa 71040000 		.4byte	0x471
 1188 04fe 14       		.byte	0x14
 1189 04ff 09       		.uleb128 0x9
 1190 0500 72313000 		.ascii	"r10\000"
 1191 0504 0A       		.byte	0xa
 1192 0505 7201     		.2byte	0x172
 1193 0507 11       		.byte	0x11
 1194 0508 71040000 		.4byte	0x471
 1195 050c 18       		.byte	0x18
 1196 050d 09       		.uleb128 0x9
 1197 050e 72313100 		.ascii	"r11\000"
ARM GAS  /tmp/cctJI0Jp.s 			page 22


 1198 0512 0A       		.byte	0xa
 1199 0513 7301     		.2byte	0x173
 1200 0515 11       		.byte	0x11
 1201 0516 71040000 		.4byte	0x471
 1202 051a 1C       		.byte	0x1c
 1203 051b 09       		.uleb128 0x9
 1204 051c 6C7200   		.ascii	"lr\000"
 1205 051f 0A       		.byte	0xa
 1206 0520 7401     		.2byte	0x174
 1207 0522 11       		.byte	0x11
 1208 0523 71040000 		.4byte	0x471
 1209 0527 20       		.byte	0x20
 1210 0528 00       		.byte	0
 1211 0529 0B       		.uleb128 0xb
 1212 052a 04       		.byte	0x4
 1213 052b A3040000 		.4byte	0x4a3
 1214 052f 12       		.uleb128 0x12
 1215 0530 60       		.byte	0x60
 1216 0531 0B       		.byte	0xb
 1217 0532 A101     		.2byte	0x1a1
 1218 0534 09       		.byte	0x9
 1219 0535 50060000 		.4byte	0x650
 1220 0539 09       		.uleb128 0x9
 1221 053a 43523100 		.ascii	"CR1\000"
 1222 053e 0B       		.byte	0xb
 1223 053f A201     		.2byte	0x1a2
 1224 0541 19       		.byte	0x19
 1225 0542 88000000 		.4byte	0x88
 1226 0546 00       		.byte	0
 1227 0547 09       		.uleb128 0x9
 1228 0548 43523200 		.ascii	"CR2\000"
 1229 054c 0B       		.byte	0xb
 1230 054d A301     		.2byte	0x1a3
 1231 054f 19       		.byte	0x19
 1232 0550 88000000 		.4byte	0x88
 1233 0554 04       		.byte	0x4
 1234 0555 0A       		.uleb128 0xa
 1235 0556 E4010000 		.4byte	.LASF70
 1236 055a 0B       		.byte	0xb
 1237 055b A401     		.2byte	0x1a4
 1238 055d 19       		.byte	0x19
 1239 055e 88000000 		.4byte	0x88
 1240 0562 08       		.byte	0x8
 1241 0563 0A       		.uleb128 0xa
 1242 0564 50000000 		.4byte	.LASF71
 1243 0568 0B       		.byte	0xb
 1244 0569 A501     		.2byte	0x1a5
 1245 056b 19       		.byte	0x19
 1246 056c 88000000 		.4byte	0x88
 1247 0570 0C       		.byte	0xc
 1248 0571 09       		.uleb128 0x9
 1249 0572 535200   		.ascii	"SR\000"
 1250 0575 0B       		.byte	0xb
 1251 0576 A601     		.2byte	0x1a6
 1252 0578 19       		.byte	0x19
 1253 0579 88000000 		.4byte	0x88
 1254 057d 10       		.byte	0x10
ARM GAS  /tmp/cctJI0Jp.s 			page 23


 1255 057e 09       		.uleb128 0x9
 1256 057f 45475200 		.ascii	"EGR\000"
 1257 0583 0B       		.byte	0xb
 1258 0584 A701     		.2byte	0x1a7
 1259 0586 19       		.byte	0x19
 1260 0587 88000000 		.4byte	0x88
 1261 058b 14       		.byte	0x14
 1262 058c 0A       		.uleb128 0xa
 1263 058d 1E010000 		.4byte	.LASF72
 1264 0591 0B       		.byte	0xb
 1265 0592 A801     		.2byte	0x1a8
 1266 0594 19       		.byte	0x19
 1267 0595 88000000 		.4byte	0x88
 1268 0599 18       		.byte	0x18
 1269 059a 0A       		.uleb128 0xa
 1270 059b A2000000 		.4byte	.LASF73
 1271 059f 0B       		.byte	0xb
 1272 05a0 A901     		.2byte	0x1a9
 1273 05a2 19       		.byte	0x19
 1274 05a3 88000000 		.4byte	0x88
 1275 05a7 1C       		.byte	0x1c
 1276 05a8 0A       		.uleb128 0xa
 1277 05a9 6C010000 		.4byte	.LASF74
 1278 05ad 0B       		.byte	0xb
 1279 05ae AA01     		.2byte	0x1aa
 1280 05b0 19       		.byte	0x19
 1281 05b1 88000000 		.4byte	0x88
 1282 05b5 20       		.byte	0x20
 1283 05b6 09       		.uleb128 0x9
 1284 05b7 434E5400 		.ascii	"CNT\000"
 1285 05bb 0B       		.byte	0xb
 1286 05bc AB01     		.2byte	0x1ab
 1287 05be 19       		.byte	0x19
 1288 05bf 88000000 		.4byte	0x88
 1289 05c3 24       		.byte	0x24
 1290 05c4 09       		.uleb128 0x9
 1291 05c5 50534300 		.ascii	"PSC\000"
 1292 05c9 0B       		.byte	0xb
 1293 05ca AC01     		.2byte	0x1ac
 1294 05cc 19       		.byte	0x19
 1295 05cd 88000000 		.4byte	0x88
 1296 05d1 28       		.byte	0x28
 1297 05d2 09       		.uleb128 0x9
 1298 05d3 41525200 		.ascii	"ARR\000"
 1299 05d7 0B       		.byte	0xb
 1300 05d8 AD01     		.2byte	0x1ad
 1301 05da 19       		.byte	0x19
 1302 05db 88000000 		.4byte	0x88
 1303 05df 2C       		.byte	0x2c
 1304 05e0 09       		.uleb128 0x9
 1305 05e1 52435200 		.ascii	"RCR\000"
 1306 05e5 0B       		.byte	0xb
 1307 05e6 AE01     		.2byte	0x1ae
 1308 05e8 19       		.byte	0x19
 1309 05e9 88000000 		.4byte	0x88
 1310 05ed 30       		.byte	0x30
 1311 05ee 09       		.uleb128 0x9
ARM GAS  /tmp/cctJI0Jp.s 			page 24


 1312 05ef 43435200 		.ascii	"CCR\000"
 1313 05f3 0B       		.byte	0xb
 1314 05f4 AF01     		.2byte	0x1af
 1315 05f6 19       		.byte	0x19
 1316 05f7 6C040000 		.4byte	0x46c
 1317 05fb 34       		.byte	0x34
 1318 05fc 0A       		.uleb128 0xa
 1319 05fd FE000000 		.4byte	.LASF75
 1320 0601 0B       		.byte	0xb
 1321 0602 B001     		.2byte	0x1b0
 1322 0604 19       		.byte	0x19
 1323 0605 88000000 		.4byte	0x88
 1324 0609 44       		.byte	0x44
 1325 060a 09       		.uleb128 0x9
 1326 060b 44435200 		.ascii	"DCR\000"
 1327 060f 0B       		.byte	0xb
 1328 0610 B101     		.2byte	0x1b1
 1329 0612 19       		.byte	0x19
 1330 0613 88000000 		.4byte	0x88
 1331 0617 48       		.byte	0x48
 1332 0618 0A       		.uleb128 0xa
 1333 0619 B3040000 		.4byte	.LASF76
 1334 061d 0B       		.byte	0xb
 1335 061e B201     		.2byte	0x1b2
 1336 0620 19       		.byte	0x19
 1337 0621 88000000 		.4byte	0x88
 1338 0625 4C       		.byte	0x4c
 1339 0626 09       		.uleb128 0x9
 1340 0627 4F5200   		.ascii	"OR\000"
 1341 062a 0B       		.byte	0xb
 1342 062b B301     		.2byte	0x1b3
 1343 062d 19       		.byte	0x19
 1344 062e 88000000 		.4byte	0x88
 1345 0632 50       		.byte	0x50
 1346 0633 0A       		.uleb128 0xa
 1347 0634 2D010000 		.4byte	.LASF77
 1348 0638 0B       		.byte	0xb
 1349 0639 B401     		.2byte	0x1b4
 1350 063b 19       		.byte	0x19
 1351 063c 88000000 		.4byte	0x88
 1352 0640 54       		.byte	0x54
 1353 0641 0A       		.uleb128 0xa
 1354 0642 3E040000 		.4byte	.LASF78
 1355 0646 0B       		.byte	0xb
 1356 0647 B501     		.2byte	0x1b5
 1357 0649 19       		.byte	0x19
 1358 064a 57040000 		.4byte	0x457
 1359 064e 58       		.byte	0x58
 1360 064f 00       		.byte	0
 1361 0650 13       		.uleb128 0x13
 1362 0651 1F020000 		.4byte	.LASF79
 1363 0655 0B       		.byte	0xb
 1364 0656 B601     		.2byte	0x1b6
 1365 0658 03       		.byte	0x3
 1366 0659 2F050000 		.4byte	0x52f
 1367 065d 14       		.uleb128 0x14
 1368 065e 04       		.byte	0x4
ARM GAS  /tmp/cctJI0Jp.s 			page 25


 1369 065f 0C       		.byte	0xc
 1370 0660 38       		.byte	0x38
 1371 0661 09       		.byte	0x9
 1372 0662 74060000 		.4byte	0x674
 1373 0666 07       		.uleb128 0x7
 1374 0667 D4040000 		.4byte	.LASF80
 1375 066b 0C       		.byte	0xc
 1376 066c 3C       		.byte	0x3c
 1377 066d 19       		.byte	0x19
 1378 066e A7000000 		.4byte	0xa7
 1379 0672 00       		.byte	0
 1380 0673 00       		.byte	0
 1381 0674 04       		.uleb128 0x4
 1382 0675 71030000 		.4byte	.LASF81
 1383 0679 0C       		.byte	0xc
 1384 067a 3D       		.byte	0x3d
 1385 067b 03       		.byte	0x3
 1386 067c 5D060000 		.4byte	0x65d
 1387 0680 15       		.uleb128 0x15
 1388 0681 04       		.byte	0x4
 1389 0682 08       		.byte	0x8
 1390 0683 D2       		.byte	0xd2
 1391 0684 03       		.byte	0x3
 1392 0685 EC060000 		.4byte	0x6ec
 1393 0689 16       		.uleb128 0x16
 1394 068a 66000000 		.4byte	.LASF82
 1395 068e 08       		.byte	0x8
 1396 068f D9       		.byte	0xd9
 1397 0690 19       		.byte	0x19
 1398 0691 E3000000 		.4byte	0xe3
 1399 0695 16       		.uleb128 0x16
 1400 0696 CC000000 		.4byte	.LASF83
 1401 069a 08       		.byte	0x8
 1402 069b E0       		.byte	0xe0
 1403 069c 19       		.byte	0x19
 1404 069d E3000000 		.4byte	0xe3
 1405 06a1 16       		.uleb128 0x16
 1406 06a2 91050000 		.4byte	.LASF84
 1407 06a6 08       		.byte	0x8
 1408 06a7 E7       		.byte	0xe7
 1409 06a8 1A       		.byte	0x1a
 1410 06a9 08030000 		.4byte	0x308
 1411 06ad 16       		.uleb128 0x16
 1412 06ae 55000000 		.4byte	.LASF85
 1413 06b2 08       		.byte	0x8
 1414 06b3 EE       		.byte	0xee
 1415 06b4 1A       		.byte	0x1a
 1416 06b5 EC060000 		.4byte	0x6ec
 1417 06b9 16       		.uleb128 0x16
 1418 06ba E0000000 		.4byte	.LASF86
 1419 06be 08       		.byte	0x8
 1420 06bf F3       		.byte	0xf3
 1421 06c0 19       		.byte	0x19
 1422 06c1 E3000000 		.4byte	0xe3
 1423 06c5 16       		.uleb128 0x16
 1424 06c6 C0010000 		.4byte	.LASF87
 1425 06ca 08       		.byte	0x8
ARM GAS  /tmp/cctJI0Jp.s 			page 26


 1426 06cb FC       		.byte	0xfc
 1427 06cc 1A       		.byte	0x1a
 1428 06cd 1A070000 		.4byte	0x71a
 1429 06d1 17       		.uleb128 0x17
 1430 06d2 5F040000 		.4byte	.LASF88
 1431 06d6 08       		.byte	0x8
 1432 06d7 0501     		.2byte	0x105
 1433 06d9 1A       		.byte	0x1a
 1434 06da 55070000 		.4byte	0x755
 1435 06de 17       		.uleb128 0x17
 1436 06df FE030000 		.4byte	.LASF89
 1437 06e3 08       		.byte	0x8
 1438 06e4 0D01     		.2byte	0x10d
 1439 06e6 19       		.byte	0x19
 1440 06e7 EF000000 		.4byte	0xef
 1441 06eb 00       		.byte	0
 1442 06ec 0B       		.uleb128 0xb
 1443 06ed 04       		.byte	0x4
 1444 06ee 0F020000 		.4byte	0x20f
 1445 06f2 06       		.uleb128 0x6
 1446 06f3 31040000 		.4byte	.LASF90
 1447 06f7 0C       		.byte	0xc
 1448 06f8 0D       		.byte	0xd
 1449 06f9 34       		.byte	0x34
 1450 06fa 10       		.byte	0x10
 1451 06fb 1A070000 		.4byte	0x71a
 1452 06ff 07       		.uleb128 0x7
 1453 0700 7F010000 		.4byte	.LASF24
 1454 0704 0D       		.byte	0xd
 1455 0705 35       		.byte	0x35
 1456 0706 19       		.byte	0x19
 1457 0707 48020000 		.4byte	0x248
 1458 070b 00       		.byte	0
 1459 070c 08       		.uleb128 0x8
 1460 070d 636E7400 		.ascii	"cnt\000"
 1461 0711 0D       		.byte	0xd
 1462 0712 37       		.byte	0x37
 1463 0713 19       		.byte	0x19
 1464 0714 FB000000 		.4byte	0xfb
 1465 0718 08       		.byte	0x8
 1466 0719 00       		.byte	0
 1467 071a 0B       		.uleb128 0xb
 1468 071b 04       		.byte	0x4
 1469 071c F2060000 		.4byte	0x6f2
 1470 0720 06       		.uleb128 0x6
 1471 0721 2C050000 		.4byte	.LASF91
 1472 0725 10       		.byte	0x10
 1473 0726 0E       		.byte	0xe
 1474 0727 39       		.byte	0x39
 1475 0728 08       		.byte	0x8
 1476 0729 55070000 		.4byte	0x755
 1477 072d 07       		.uleb128 0x7
 1478 072e 7F010000 		.4byte	.LASF24
 1479 0732 0E       		.byte	0xe
 1480 0733 3A       		.byte	0x3a
 1481 0734 19       		.byte	0x19
 1482 0735 48020000 		.4byte	0x248
ARM GAS  /tmp/cctJI0Jp.s 			page 27


 1483 0739 00       		.byte	0
 1484 073a 07       		.uleb128 0x7
 1485 073b 76040000 		.4byte	.LASF92
 1486 073f 0E       		.byte	0xe
 1487 0740 3C       		.byte	0x3c
 1488 0741 1A       		.byte	0x1a
 1489 0742 1B020000 		.4byte	0x21b
 1490 0746 08       		.byte	0x8
 1491 0747 07       		.uleb128 0x7
 1492 0748 5B000000 		.4byte	.LASF43
 1493 074c 0E       		.byte	0xe
 1494 074d 3E       		.byte	0x3e
 1495 074e 1A       		.byte	0x1a
 1496 074f 96070000 		.4byte	0x796
 1497 0753 0C       		.byte	0xc
 1498 0754 00       		.byte	0
 1499 0755 0B       		.uleb128 0xb
 1500 0756 04       		.byte	0x4
 1501 0757 20070000 		.4byte	0x720
 1502 075b 0B       		.uleb128 0xb
 1503 075c 04       		.byte	0x4
 1504 075d 6D070000 		.4byte	0x76d
 1505 0761 05       		.uleb128 0x5
 1506 0762 5B070000 		.4byte	0x75b
 1507 0766 03       		.uleb128 0x3
 1508 0767 01       		.byte	0x1
 1509 0768 08       		.byte	0x8
 1510 0769 9B040000 		.4byte	.LASF93
 1511 076d 18       		.uleb128 0x18
 1512 076e 66070000 		.4byte	0x766
 1513 0772 0B       		.uleb128 0xb
 1514 0773 04       		.byte	0x4
 1515 0774 7D040000 		.4byte	0x47d
 1516 0778 0B       		.uleb128 0xb
 1517 0779 04       		.byte	0x4
 1518 077a 0A030000 		.4byte	0x30a
 1519 077e 19       		.uleb128 0x19
 1520 077f 636800   		.ascii	"ch\000"
 1521 0782 08       		.byte	0x8
 1522 0783 D201     		.2byte	0x1d2
 1523 0785 14       		.byte	0x14
 1524 0786 E7030000 		.4byte	0x3e7
 1525 078a 04       		.uleb128 0x4
 1526 078b 96010000 		.4byte	.LASF94
 1527 078f 0E       		.byte	0xe
 1528 0790 34       		.byte	0x34
 1529 0791 19       		.byte	0x19
 1530 0792 20070000 		.4byte	0x720
 1531 0796 0B       		.uleb128 0xb
 1532 0797 04       		.byte	0x4
 1533 0798 8A070000 		.4byte	0x78a
 1534 079c 03       		.uleb128 0x3
 1535 079d 01       		.byte	0x1
 1536 079e 02       		.byte	0x2
 1537 079f C9030000 		.4byte	.LASF95
 1538 07a3 1A       		.uleb128 0x1a
 1539 07a4 BF000000 		.4byte	.LASF97
ARM GAS  /tmp/cctJI0Jp.s 			page 28


 1540 07a8 01       		.byte	0x1
 1541 07a9 BE       		.byte	0xbe
 1542 07aa 06       		.byte	0x6
 1543 07ab 00000000 		.4byte	.LFB248
 1544 07af 6C000000 		.4byte	.LFE248-.LFB248
 1545 07b3 01       		.uleb128 0x1
 1546 07b4 9C       		.byte	0x9c
 1547 07b5 81080000 		.4byte	0x881
 1548 07b9 1B       		.uleb128 0x1b
 1549 07ba 76747000 		.ascii	"vtp\000"
 1550 07be 01       		.byte	0x1
 1551 07bf BE       		.byte	0xbe
 1552 07c0 24       		.byte	0x24
 1553 07c1 78070000 		.4byte	0x778
 1554 07c5 08000000 		.4byte	.LLST9
 1555 07c9 00000000 		.4byte	.LVUS9
 1556 07cd 1C       		.uleb128 0x1c
 1557 07ce 17040000 		.4byte	.LASF101
 1558 07d2 91080000 		.4byte	0x891
 1559 07d6 1D       		.uleb128 0x1d
 1560 07d7 B7010000 		.4byte	.LASF96
 1561 07db 01       		.byte	0x1
 1562 07dc D2       		.byte	0xd2
 1563 07dd 0D       		.byte	0xd
 1564 07de 07010000 		.4byte	0x107
 1565 07e2 46000000 		.4byte	.LLST10
 1566 07e6 42000000 		.4byte	.LVUS10
 1567 07ea 1D       		.uleb128 0x1d
 1568 07eb 60000000 		.4byte	.LASF53
 1569 07ef 01       		.byte	0x1
 1570 07f0 D2       		.byte	0xd2
 1571 07f1 17       		.byte	0x17
 1572 07f2 07010000 		.4byte	0x107
 1573 07f6 6D000000 		.4byte	.LLST11
 1574 07fa 69000000 		.4byte	.LVUS11
 1575 07fe 1E       		.uleb128 0x1e
 1576 07ff FB090000 		.4byte	0x9fb
 1577 0803 48000000 		.4byte	.LBI55
 1578 0807 01       		.byte	.LVU142
 1579 0808 D8000000 		.4byte	.Ldebug_ranges0+0xd8
 1580 080c 01       		.byte	0x1
 1581 080d F9       		.byte	0xf9
 1582 080e 0E       		.byte	0xe
 1583 080f 38080000 		.4byte	0x838
 1584 0813 1F       		.uleb128 0x1f
 1585 0814 090A0000 		.4byte	0xa09
 1586 0818 48000000 		.4byte	.LBI56
 1587 081c 03       		.byte	.LVU144
 1588 081d 00010000 		.4byte	.Ldebug_ranges0+0x100
 1589 0821 03       		.byte	0x3
 1590 0822 8D01     		.2byte	0x18d
 1591 0824 0A       		.byte	0xa
 1592 0825 20       		.uleb128 0x20
 1593 0826 530A0000 		.4byte	0xa53
 1594 082a 48000000 		.4byte	.LBI57
 1595 082e 05       		.byte	.LVU146
 1596 082f 20010000 		.4byte	.Ldebug_ranges0+0x120
ARM GAS  /tmp/cctJI0Jp.s 			page 29


 1597 0833 04       		.byte	0x4
 1598 0834 6B       		.byte	0x6b
 1599 0835 0A       		.byte	0xa
 1600 0836 00       		.byte	0
 1601 0837 00       		.byte	0
 1602 0838 21       		.uleb128 0x21
 1603 0839 160A0000 		.4byte	0xa16
 1604 083d 54000000 		.4byte	.LBI66
 1605 0841 02       		.byte	.LVU157
 1606 0842 38010000 		.4byte	.Ldebug_ranges0+0x138
 1607 0846 01       		.byte	0x1
 1608 0847 0A01     		.2byte	0x10a
 1609 0849 03       		.byte	0x3
 1610 084a 65080000 		.4byte	0x865
 1611 084e 22       		.uleb128 0x22
 1612 084f 230A0000 		.4byte	0xa23
 1613 0853 A3000000 		.4byte	.LLST12
 1614 0857 9F000000 		.4byte	.LVUS12
 1615 085b 23       		.uleb128 0x23
 1616 085c 62000000 		.4byte	.LVL27
 1617 0860 600A0000 		.4byte	0xa60
 1618 0864 00       		.byte	0
 1619 0865 24       		.uleb128 0x24
 1620 0866 300A0000 		.4byte	0xa30
 1621 086a 62000000 		.4byte	.LBI70
 1622 086e 02       		.byte	.LVU164
 1623 086f 50010000 		.4byte	.Ldebug_ranges0+0x150
 1624 0873 01       		.byte	0x1
 1625 0874 EA       		.byte	0xea
 1626 0875 05       		.byte	0x5
 1627 0876 23       		.uleb128 0x23
 1628 0877 68000000 		.4byte	.LVL28
 1629 087b 6C0A0000 		.4byte	0xa6c
 1630 087f 00       		.byte	0
 1631 0880 00       		.byte	0
 1632 0881 10       		.uleb128 0x10
 1633 0882 6D070000 		.4byte	0x76d
 1634 0886 91080000 		.4byte	0x891
 1635 088a 11       		.uleb128 0x11
 1636 088b 2C000000 		.4byte	0x2c
 1637 088f 0C       		.byte	0xc
 1638 0890 00       		.byte	0
 1639 0891 18       		.uleb128 0x18
 1640 0892 81080000 		.4byte	0x881
 1641 0896 1A       		.uleb128 0x1a
 1642 0897 39020000 		.4byte	.LASF98
 1643 089b 01       		.byte	0x1
 1644 089c 5F       		.byte	0x5f
 1645 089d 06       		.byte	0x6
 1646 089e 00000000 		.4byte	.LFB247
 1647 08a2 78000000 		.4byte	.LFE247-.LFB247
 1648 08a6 01       		.uleb128 0x1
 1649 08a7 9C       		.byte	0x9c
 1650 08a8 D4090000 		.4byte	0x9d4
 1651 08ac 1B       		.uleb128 0x1b
 1652 08ad 76747000 		.ascii	"vtp\000"
 1653 08b1 01       		.byte	0x1
ARM GAS  /tmp/cctJI0Jp.s 			page 30


 1654 08b2 5F       		.byte	0x5f
 1655 08b3 22       		.byte	0x22
 1656 08b4 78070000 		.4byte	0x778
 1657 08b8 DE000000 		.4byte	.LLST0
 1658 08bc D8000000 		.4byte	.LVUS0
 1659 08c0 25       		.uleb128 0x25
 1660 08c1 E5030000 		.4byte	.LASF99
 1661 08c5 01       		.byte	0x1
 1662 08c6 5F       		.byte	0x5f
 1663 08c7 31       		.byte	0x31
 1664 08c8 07010000 		.4byte	0x107
 1665 08cc 18010000 		.4byte	.LLST1
 1666 08d0 0A010000 		.4byte	.LVUS1
 1667 08d4 25       		.uleb128 0x25
 1668 08d5 15050000 		.4byte	.LASF100
 1669 08d9 01       		.byte	0x1
 1670 08da 60       		.byte	0x60
 1671 08db 1A       		.byte	0x1a
 1672 08dc EB020000 		.4byte	0x2eb
 1673 08e0 BB010000 		.4byte	.LLST2
 1674 08e4 AF010000 		.4byte	.LVUS2
 1675 08e8 1B       		.uleb128 0x1b
 1676 08e9 70617200 		.ascii	"par\000"
 1677 08ed 01       		.byte	0x1
 1678 08ee 60       		.byte	0x60
 1679 08ef 28       		.byte	0x28
 1680 08f0 08030000 		.4byte	0x308
 1681 08f4 1C020000 		.4byte	.LLST3
 1682 08f8 0E020000 		.4byte	.LVUS3
 1683 08fc 26       		.uleb128 0x26
 1684 08fd 7000     		.ascii	"p\000"
 1685 08ff 01       		.byte	0x1
 1686 0900 61       		.byte	0x61
 1687 0901 14       		.byte	0x14
 1688 0902 78070000 		.4byte	0x778
 1689 0906 81020000 		.4byte	.LLST4
 1690 090a 7D020000 		.4byte	.LVUS4
 1691 090e 1D       		.uleb128 0x1d
 1692 090f 60000000 		.4byte	.LASF53
 1693 0913 01       		.byte	0x1
 1694 0914 62       		.byte	0x62
 1695 0915 0D       		.byte	0xd
 1696 0916 07010000 		.4byte	0x107
 1697 091a A1020000 		.4byte	.LLST5
 1698 091e 9F020000 		.4byte	.LVUS5
 1699 0922 1C       		.uleb128 0x1c
 1700 0923 17040000 		.4byte	.LASF101
 1701 0927 E4090000 		.4byte	0x9e4
 1702 092b 27       		.uleb128 0x27
 1703 092c 00000000 		.4byte	.Ldebug_ranges0+0
 1704 0930 26       		.uleb128 0x26
 1705 0931 6E6F7700 		.ascii	"now\000"
 1706 0935 01       		.byte	0x1
 1707 0936 6C       		.byte	0x6c
 1708 0937 0F       		.byte	0xf
 1709 0938 07010000 		.4byte	0x107
 1710 093c B8020000 		.4byte	.LLST6
ARM GAS  /tmp/cctJI0Jp.s 			page 31


 1711 0940 B4020000 		.4byte	.LVUS6
 1712 0944 1E       		.uleb128 0x1e
 1713 0945 FB090000 		.4byte	0x9fb
 1714 0949 12000000 		.4byte	.LBI28
 1715 094d 01       		.byte	.LVU25
 1716 094e 40000000 		.4byte	.Ldebug_ranges0+0x40
 1717 0952 01       		.byte	0x1
 1718 0953 6C       		.byte	0x6c
 1719 0954 15       		.byte	0x15
 1720 0955 7E090000 		.4byte	0x97e
 1721 0959 1F       		.uleb128 0x1f
 1722 095a 090A0000 		.4byte	0xa09
 1723 095e 12000000 		.4byte	.LBI29
 1724 0962 03       		.byte	.LVU27
 1725 0963 68000000 		.4byte	.Ldebug_ranges0+0x68
 1726 0967 03       		.byte	0x3
 1727 0968 8D01     		.2byte	0x18d
 1728 096a 0A       		.byte	0xa
 1729 096b 20       		.uleb128 0x20
 1730 096c 530A0000 		.4byte	0xa53
 1731 0970 12000000 		.4byte	.LBI30
 1732 0974 05       		.byte	.LVU29
 1733 0975 88000000 		.4byte	.Ldebug_ranges0+0x88
 1734 0979 04       		.byte	0x4
 1735 097a 6B       		.byte	0x6b
 1736 097b 0A       		.byte	0xa
 1737 097c 00       		.byte	0
 1738 097d 00       		.byte	0
 1739 097e 1E       		.uleb128 0x1e
 1740 097f 160A0000 		.4byte	0xa16
 1741 0983 52000000 		.4byte	.LBI39
 1742 0987 01       		.byte	.LVU72
 1743 0988 A0000000 		.4byte	.Ldebug_ranges0+0xa0
 1744 098c 01       		.byte	0x1
 1745 098d 97       		.byte	0x97
 1746 098e 07       		.byte	0x7
 1747 098f AA090000 		.4byte	0x9aa
 1748 0993 22       		.uleb128 0x22
 1749 0994 230A0000 		.4byte	0xa23
 1750 0998 DA020000 		.4byte	.LLST7
 1751 099c D6020000 		.4byte	.LVUS7
 1752 09a0 28       		.uleb128 0x28
 1753 09a1 58000000 		.4byte	.LVL14
 1754 09a5 600A0000 		.4byte	0xa60
 1755 09a9 00       		.byte	0
 1756 09aa 24       		.uleb128 0x24
 1757 09ab 390A0000 		.4byte	0xa39
 1758 09af 6A000000 		.4byte	.LBI43
 1759 09b3 01       		.byte	.LVU89
 1760 09b4 B8000000 		.4byte	.Ldebug_ranges0+0xb8
 1761 09b8 01       		.byte	0x1
 1762 09b9 81       		.byte	0x81
 1763 09ba 07       		.byte	0x7
 1764 09bb 22       		.uleb128 0x22
 1765 09bc 460A0000 		.4byte	0xa46
 1766 09c0 FF020000 		.4byte	.LLST8
 1767 09c4 FD020000 		.4byte	.LVUS8
ARM GAS  /tmp/cctJI0Jp.s 			page 32


 1768 09c8 23       		.uleb128 0x23
 1769 09c9 72000000 		.4byte	.LVL18
 1770 09cd 780A0000 		.4byte	0xa78
 1771 09d1 00       		.byte	0
 1772 09d2 00       		.byte	0
 1773 09d3 00       		.byte	0
 1774 09d4 10       		.uleb128 0x10
 1775 09d5 6D070000 		.4byte	0x76d
 1776 09d9 E4090000 		.4byte	0x9e4
 1777 09dd 11       		.uleb128 0x11
 1778 09de 2C000000 		.4byte	0x2c
 1779 09e2 0A       		.byte	0xa
 1780 09e3 00       		.byte	0
 1781 09e4 18       		.uleb128 0x18
 1782 09e5 D4090000 		.4byte	0x9d4
 1783 09e9 29       		.uleb128 0x29
 1784 09ea 24010000 		.4byte	.LASF114
 1785 09ee 01       		.byte	0x1
 1786 09ef 3D       		.byte	0x3d
 1787 09f0 06       		.byte	0x6
 1788 09f1 00000000 		.4byte	.LFB246
 1789 09f5 1C000000 		.4byte	.LFE246-.LFB246
 1790 09f9 01       		.uleb128 0x1
 1791 09fa 9C       		.byte	0x9c
 1792 09fb 2A       		.uleb128 0x2a
 1793 09fc A4010000 		.4byte	.LASF102
 1794 0a00 03       		.byte	0x3
 1795 0a01 8801     		.2byte	0x188
 1796 0a03 19       		.byte	0x19
 1797 0a04 07010000 		.4byte	0x107
 1798 0a08 03       		.byte	0x3
 1799 0a09 2B       		.uleb128 0x2b
 1800 0a0a FB040000 		.4byte	.LASF103
 1801 0a0e 04       		.byte	0x4
 1802 0a0f 69       		.byte	0x69
 1803 0a10 19       		.byte	0x19
 1804 0a11 07010000 		.4byte	0x107
 1805 0a15 03       		.byte	0x3
 1806 0a16 2C       		.uleb128 0x2c
 1807 0a17 7C050000 		.4byte	.LASF104
 1808 0a1b 04       		.byte	0x4
 1809 0a1c 5D       		.byte	0x5d
 1810 0a1d 14       		.byte	0x14
 1811 0a1e 03       		.byte	0x3
 1812 0a1f 300A0000 		.4byte	0xa30
 1813 0a23 2D       		.uleb128 0x2d
 1814 0a24 82030000 		.4byte	.LASF106
 1815 0a28 04       		.byte	0x4
 1816 0a29 5D       		.byte	0x5d
 1817 0a2a 33       		.byte	0x33
 1818 0a2b 07010000 		.4byte	0x107
 1819 0a2f 00       		.byte	0
 1820 0a30 2E       		.uleb128 0x2e
 1821 0a31 66050000 		.4byte	.LASF115
 1822 0a35 04       		.byte	0x4
 1823 0a36 51       		.byte	0x51
 1824 0a37 14       		.byte	0x14
ARM GAS  /tmp/cctJI0Jp.s 			page 33


 1825 0a38 03       		.byte	0x3
 1826 0a39 2C       		.uleb128 0x2c
 1827 0a3a F3010000 		.4byte	.LASF105
 1828 0a3e 04       		.byte	0x4
 1829 0a3f 47       		.byte	0x47
 1830 0a40 14       		.byte	0x14
 1831 0a41 03       		.byte	0x3
 1832 0a42 530A0000 		.4byte	0xa53
 1833 0a46 2D       		.uleb128 0x2d
 1834 0a47 82030000 		.4byte	.LASF106
 1835 0a4b 04       		.byte	0x4
 1836 0a4c 47       		.byte	0x47
 1837 0a4d 35       		.byte	0x35
 1838 0a4e 07010000 		.4byte	0x107
 1839 0a52 00       		.byte	0
 1840 0a53 2B       		.uleb128 0x2b
 1841 0a54 43040000 		.4byte	.LASF107
 1842 0a58 02       		.byte	0x2
 1843 0a59 8B       		.byte	0x8b
 1844 0a5a 19       		.byte	0x19
 1845 0a5b 07010000 		.4byte	0x107
 1846 0a5f 03       		.byte	0x3
 1847 0a60 2F       		.uleb128 0x2f
 1848 0a61 55050000 		.4byte	.LASF108
 1849 0a65 55050000 		.4byte	.LASF108
 1850 0a69 0F       		.byte	0xf
 1851 0a6a 59       		.byte	0x59
 1852 0a6b 08       		.byte	0x8
 1853 0a6c 2F       		.uleb128 0x2f
 1854 0a6d 8F040000 		.4byte	.LASF109
 1855 0a71 8F040000 		.4byte	.LASF109
 1856 0a75 0F       		.byte	0xf
 1857 0a76 58       		.byte	0x58
 1858 0a77 08       		.byte	0x8
 1859 0a78 2F       		.uleb128 0x2f
 1860 0a79 DB040000 		.4byte	.LASF110
 1861 0a7d DB040000 		.4byte	.LASF110
 1862 0a81 0F       		.byte	0xf
 1863 0a82 57       		.byte	0x57
 1864 0a83 08       		.byte	0x8
 1865 0a84 00       		.byte	0
 1866              		.section	.debug_abbrev,"",%progbits
 1867              	.Ldebug_abbrev0:
 1868 0000 01       		.uleb128 0x1
 1869 0001 11       		.uleb128 0x11
 1870 0002 01       		.byte	0x1
 1871 0003 25       		.uleb128 0x25
 1872 0004 0E       		.uleb128 0xe
 1873 0005 13       		.uleb128 0x13
 1874 0006 0B       		.uleb128 0xb
 1875 0007 03       		.uleb128 0x3
 1876 0008 0E       		.uleb128 0xe
 1877 0009 1B       		.uleb128 0x1b
 1878 000a 0E       		.uleb128 0xe
 1879 000b 55       		.uleb128 0x55
 1880 000c 17       		.uleb128 0x17
 1881 000d 11       		.uleb128 0x11
ARM GAS  /tmp/cctJI0Jp.s 			page 34


 1882 000e 01       		.uleb128 0x1
 1883 000f 10       		.uleb128 0x10
 1884 0010 17       		.uleb128 0x17
 1885 0011 00       		.byte	0
 1886 0012 00       		.byte	0
 1887 0013 02       		.uleb128 0x2
 1888 0014 24       		.uleb128 0x24
 1889 0015 00       		.byte	0
 1890 0016 0B       		.uleb128 0xb
 1891 0017 0B       		.uleb128 0xb
 1892 0018 3E       		.uleb128 0x3e
 1893 0019 0B       		.uleb128 0xb
 1894 001a 03       		.uleb128 0x3
 1895 001b 08       		.uleb128 0x8
 1896 001c 00       		.byte	0
 1897 001d 00       		.byte	0
 1898 001e 03       		.uleb128 0x3
 1899 001f 24       		.uleb128 0x24
 1900 0020 00       		.byte	0
 1901 0021 0B       		.uleb128 0xb
 1902 0022 0B       		.uleb128 0xb
 1903 0023 3E       		.uleb128 0x3e
 1904 0024 0B       		.uleb128 0xb
 1905 0025 03       		.uleb128 0x3
 1906 0026 0E       		.uleb128 0xe
 1907 0027 00       		.byte	0
 1908 0028 00       		.byte	0
 1909 0029 04       		.uleb128 0x4
 1910 002a 16       		.uleb128 0x16
 1911 002b 00       		.byte	0
 1912 002c 03       		.uleb128 0x3
 1913 002d 0E       		.uleb128 0xe
 1914 002e 3A       		.uleb128 0x3a
 1915 002f 0B       		.uleb128 0xb
 1916 0030 3B       		.uleb128 0x3b
 1917 0031 0B       		.uleb128 0xb
 1918 0032 39       		.uleb128 0x39
 1919 0033 0B       		.uleb128 0xb
 1920 0034 49       		.uleb128 0x49
 1921 0035 13       		.uleb128 0x13
 1922 0036 00       		.byte	0
 1923 0037 00       		.byte	0
 1924 0038 05       		.uleb128 0x5
 1925 0039 35       		.uleb128 0x35
 1926 003a 00       		.byte	0
 1927 003b 49       		.uleb128 0x49
 1928 003c 13       		.uleb128 0x13
 1929 003d 00       		.byte	0
 1930 003e 00       		.byte	0
 1931 003f 06       		.uleb128 0x6
 1932 0040 13       		.uleb128 0x13
 1933 0041 01       		.byte	0x1
 1934 0042 03       		.uleb128 0x3
 1935 0043 0E       		.uleb128 0xe
 1936 0044 0B       		.uleb128 0xb
 1937 0045 0B       		.uleb128 0xb
 1938 0046 3A       		.uleb128 0x3a
ARM GAS  /tmp/cctJI0Jp.s 			page 35


 1939 0047 0B       		.uleb128 0xb
 1940 0048 3B       		.uleb128 0x3b
 1941 0049 0B       		.uleb128 0xb
 1942 004a 39       		.uleb128 0x39
 1943 004b 0B       		.uleb128 0xb
 1944 004c 01       		.uleb128 0x1
 1945 004d 13       		.uleb128 0x13
 1946 004e 00       		.byte	0
 1947 004f 00       		.byte	0
 1948 0050 07       		.uleb128 0x7
 1949 0051 0D       		.uleb128 0xd
 1950 0052 00       		.byte	0
 1951 0053 03       		.uleb128 0x3
 1952 0054 0E       		.uleb128 0xe
 1953 0055 3A       		.uleb128 0x3a
 1954 0056 0B       		.uleb128 0xb
 1955 0057 3B       		.uleb128 0x3b
 1956 0058 0B       		.uleb128 0xb
 1957 0059 39       		.uleb128 0x39
 1958 005a 0B       		.uleb128 0xb
 1959 005b 49       		.uleb128 0x49
 1960 005c 13       		.uleb128 0x13
 1961 005d 38       		.uleb128 0x38
 1962 005e 0B       		.uleb128 0xb
 1963 005f 00       		.byte	0
 1964 0060 00       		.byte	0
 1965 0061 08       		.uleb128 0x8
 1966 0062 0D       		.uleb128 0xd
 1967 0063 00       		.byte	0
 1968 0064 03       		.uleb128 0x3
 1969 0065 08       		.uleb128 0x8
 1970 0066 3A       		.uleb128 0x3a
 1971 0067 0B       		.uleb128 0xb
 1972 0068 3B       		.uleb128 0x3b
 1973 0069 0B       		.uleb128 0xb
 1974 006a 39       		.uleb128 0x39
 1975 006b 0B       		.uleb128 0xb
 1976 006c 49       		.uleb128 0x49
 1977 006d 13       		.uleb128 0x13
 1978 006e 38       		.uleb128 0x38
 1979 006f 0B       		.uleb128 0xb
 1980 0070 00       		.byte	0
 1981 0071 00       		.byte	0
 1982 0072 09       		.uleb128 0x9
 1983 0073 0D       		.uleb128 0xd
 1984 0074 00       		.byte	0
 1985 0075 03       		.uleb128 0x3
 1986 0076 08       		.uleb128 0x8
 1987 0077 3A       		.uleb128 0x3a
 1988 0078 0B       		.uleb128 0xb
 1989 0079 3B       		.uleb128 0x3b
 1990 007a 05       		.uleb128 0x5
 1991 007b 39       		.uleb128 0x39
 1992 007c 0B       		.uleb128 0xb
 1993 007d 49       		.uleb128 0x49
 1994 007e 13       		.uleb128 0x13
 1995 007f 38       		.uleb128 0x38
ARM GAS  /tmp/cctJI0Jp.s 			page 36


 1996 0080 0B       		.uleb128 0xb
 1997 0081 00       		.byte	0
 1998 0082 00       		.byte	0
 1999 0083 0A       		.uleb128 0xa
 2000 0084 0D       		.uleb128 0xd
 2001 0085 00       		.byte	0
 2002 0086 03       		.uleb128 0x3
 2003 0087 0E       		.uleb128 0xe
 2004 0088 3A       		.uleb128 0x3a
 2005 0089 0B       		.uleb128 0xb
 2006 008a 3B       		.uleb128 0x3b
 2007 008b 05       		.uleb128 0x5
 2008 008c 39       		.uleb128 0x39
 2009 008d 0B       		.uleb128 0xb
 2010 008e 49       		.uleb128 0x49
 2011 008f 13       		.uleb128 0x13
 2012 0090 38       		.uleb128 0x38
 2013 0091 0B       		.uleb128 0xb
 2014 0092 00       		.byte	0
 2015 0093 00       		.byte	0
 2016 0094 0B       		.uleb128 0xb
 2017 0095 0F       		.uleb128 0xf
 2018 0096 00       		.byte	0
 2019 0097 0B       		.uleb128 0xb
 2020 0098 0B       		.uleb128 0xb
 2021 0099 49       		.uleb128 0x49
 2022 009a 13       		.uleb128 0x13
 2023 009b 00       		.byte	0
 2024 009c 00       		.byte	0
 2025 009d 0C       		.uleb128 0xc
 2026 009e 13       		.uleb128 0x13
 2027 009f 01       		.byte	0x1
 2028 00a0 03       		.uleb128 0x3
 2029 00a1 0E       		.uleb128 0xe
 2030 00a2 0B       		.uleb128 0xb
 2031 00a3 0B       		.uleb128 0xb
 2032 00a4 3A       		.uleb128 0x3a
 2033 00a5 0B       		.uleb128 0xb
 2034 00a6 3B       		.uleb128 0x3b
 2035 00a7 05       		.uleb128 0x5
 2036 00a8 39       		.uleb128 0x39
 2037 00a9 0B       		.uleb128 0xb
 2038 00aa 01       		.uleb128 0x1
 2039 00ab 13       		.uleb128 0x13
 2040 00ac 00       		.byte	0
 2041 00ad 00       		.byte	0
 2042 00ae 0D       		.uleb128 0xd
 2043 00af 15       		.uleb128 0x15
 2044 00b0 01       		.byte	0x1
 2045 00b1 27       		.uleb128 0x27
 2046 00b2 19       		.uleb128 0x19
 2047 00b3 01       		.uleb128 0x1
 2048 00b4 13       		.uleb128 0x13
 2049 00b5 00       		.byte	0
 2050 00b6 00       		.byte	0
 2051 00b7 0E       		.uleb128 0xe
 2052 00b8 05       		.uleb128 0x5
ARM GAS  /tmp/cctJI0Jp.s 			page 37


 2053 00b9 00       		.byte	0
 2054 00ba 49       		.uleb128 0x49
 2055 00bb 13       		.uleb128 0x13
 2056 00bc 00       		.byte	0
 2057 00bd 00       		.byte	0
 2058 00be 0F       		.uleb128 0xf
 2059 00bf 0F       		.uleb128 0xf
 2060 00c0 00       		.byte	0
 2061 00c1 0B       		.uleb128 0xb
 2062 00c2 0B       		.uleb128 0xb
 2063 00c3 00       		.byte	0
 2064 00c4 00       		.byte	0
 2065 00c5 10       		.uleb128 0x10
 2066 00c6 01       		.uleb128 0x1
 2067 00c7 01       		.byte	0x1
 2068 00c8 49       		.uleb128 0x49
 2069 00c9 13       		.uleb128 0x13
 2070 00ca 01       		.uleb128 0x1
 2071 00cb 13       		.uleb128 0x13
 2072 00cc 00       		.byte	0
 2073 00cd 00       		.byte	0
 2074 00ce 11       		.uleb128 0x11
 2075 00cf 21       		.uleb128 0x21
 2076 00d0 00       		.byte	0
 2077 00d1 49       		.uleb128 0x49
 2078 00d2 13       		.uleb128 0x13
 2079 00d3 2F       		.uleb128 0x2f
 2080 00d4 0B       		.uleb128 0xb
 2081 00d5 00       		.byte	0
 2082 00d6 00       		.byte	0
 2083 00d7 12       		.uleb128 0x12
 2084 00d8 13       		.uleb128 0x13
 2085 00d9 01       		.byte	0x1
 2086 00da 0B       		.uleb128 0xb
 2087 00db 0B       		.uleb128 0xb
 2088 00dc 3A       		.uleb128 0x3a
 2089 00dd 0B       		.uleb128 0xb
 2090 00de 3B       		.uleb128 0x3b
 2091 00df 05       		.uleb128 0x5
 2092 00e0 39       		.uleb128 0x39
 2093 00e1 0B       		.uleb128 0xb
 2094 00e2 01       		.uleb128 0x1
 2095 00e3 13       		.uleb128 0x13
 2096 00e4 00       		.byte	0
 2097 00e5 00       		.byte	0
 2098 00e6 13       		.uleb128 0x13
 2099 00e7 16       		.uleb128 0x16
 2100 00e8 00       		.byte	0
 2101 00e9 03       		.uleb128 0x3
 2102 00ea 0E       		.uleb128 0xe
 2103 00eb 3A       		.uleb128 0x3a
 2104 00ec 0B       		.uleb128 0xb
 2105 00ed 3B       		.uleb128 0x3b
 2106 00ee 05       		.uleb128 0x5
 2107 00ef 39       		.uleb128 0x39
 2108 00f0 0B       		.uleb128 0xb
 2109 00f1 49       		.uleb128 0x49
ARM GAS  /tmp/cctJI0Jp.s 			page 38


 2110 00f2 13       		.uleb128 0x13
 2111 00f3 00       		.byte	0
 2112 00f4 00       		.byte	0
 2113 00f5 14       		.uleb128 0x14
 2114 00f6 13       		.uleb128 0x13
 2115 00f7 01       		.byte	0x1
 2116 00f8 0B       		.uleb128 0xb
 2117 00f9 0B       		.uleb128 0xb
 2118 00fa 3A       		.uleb128 0x3a
 2119 00fb 0B       		.uleb128 0xb
 2120 00fc 3B       		.uleb128 0x3b
 2121 00fd 0B       		.uleb128 0xb
 2122 00fe 39       		.uleb128 0x39
 2123 00ff 0B       		.uleb128 0xb
 2124 0100 01       		.uleb128 0x1
 2125 0101 13       		.uleb128 0x13
 2126 0102 00       		.byte	0
 2127 0103 00       		.byte	0
 2128 0104 15       		.uleb128 0x15
 2129 0105 17       		.uleb128 0x17
 2130 0106 01       		.byte	0x1
 2131 0107 0B       		.uleb128 0xb
 2132 0108 0B       		.uleb128 0xb
 2133 0109 3A       		.uleb128 0x3a
 2134 010a 0B       		.uleb128 0xb
 2135 010b 3B       		.uleb128 0x3b
 2136 010c 0B       		.uleb128 0xb
 2137 010d 39       		.uleb128 0x39
 2138 010e 0B       		.uleb128 0xb
 2139 010f 01       		.uleb128 0x1
 2140 0110 13       		.uleb128 0x13
 2141 0111 00       		.byte	0
 2142 0112 00       		.byte	0
 2143 0113 16       		.uleb128 0x16
 2144 0114 0D       		.uleb128 0xd
 2145 0115 00       		.byte	0
 2146 0116 03       		.uleb128 0x3
 2147 0117 0E       		.uleb128 0xe
 2148 0118 3A       		.uleb128 0x3a
 2149 0119 0B       		.uleb128 0xb
 2150 011a 3B       		.uleb128 0x3b
 2151 011b 0B       		.uleb128 0xb
 2152 011c 39       		.uleb128 0x39
 2153 011d 0B       		.uleb128 0xb
 2154 011e 49       		.uleb128 0x49
 2155 011f 13       		.uleb128 0x13
 2156 0120 00       		.byte	0
 2157 0121 00       		.byte	0
 2158 0122 17       		.uleb128 0x17
 2159 0123 0D       		.uleb128 0xd
 2160 0124 00       		.byte	0
 2161 0125 03       		.uleb128 0x3
 2162 0126 0E       		.uleb128 0xe
 2163 0127 3A       		.uleb128 0x3a
 2164 0128 0B       		.uleb128 0xb
 2165 0129 3B       		.uleb128 0x3b
 2166 012a 05       		.uleb128 0x5
ARM GAS  /tmp/cctJI0Jp.s 			page 39


 2167 012b 39       		.uleb128 0x39
 2168 012c 0B       		.uleb128 0xb
 2169 012d 49       		.uleb128 0x49
 2170 012e 13       		.uleb128 0x13
 2171 012f 00       		.byte	0
 2172 0130 00       		.byte	0
 2173 0131 18       		.uleb128 0x18
 2174 0132 26       		.uleb128 0x26
 2175 0133 00       		.byte	0
 2176 0134 49       		.uleb128 0x49
 2177 0135 13       		.uleb128 0x13
 2178 0136 00       		.byte	0
 2179 0137 00       		.byte	0
 2180 0138 19       		.uleb128 0x19
 2181 0139 34       		.uleb128 0x34
 2182 013a 00       		.byte	0
 2183 013b 03       		.uleb128 0x3
 2184 013c 08       		.uleb128 0x8
 2185 013d 3A       		.uleb128 0x3a
 2186 013e 0B       		.uleb128 0xb
 2187 013f 3B       		.uleb128 0x3b
 2188 0140 05       		.uleb128 0x5
 2189 0141 39       		.uleb128 0x39
 2190 0142 0B       		.uleb128 0xb
 2191 0143 49       		.uleb128 0x49
 2192 0144 13       		.uleb128 0x13
 2193 0145 3F       		.uleb128 0x3f
 2194 0146 19       		.uleb128 0x19
 2195 0147 3C       		.uleb128 0x3c
 2196 0148 19       		.uleb128 0x19
 2197 0149 00       		.byte	0
 2198 014a 00       		.byte	0
 2199 014b 1A       		.uleb128 0x1a
 2200 014c 2E       		.uleb128 0x2e
 2201 014d 01       		.byte	0x1
 2202 014e 3F       		.uleb128 0x3f
 2203 014f 19       		.uleb128 0x19
 2204 0150 03       		.uleb128 0x3
 2205 0151 0E       		.uleb128 0xe
 2206 0152 3A       		.uleb128 0x3a
 2207 0153 0B       		.uleb128 0xb
 2208 0154 3B       		.uleb128 0x3b
 2209 0155 0B       		.uleb128 0xb
 2210 0156 39       		.uleb128 0x39
 2211 0157 0B       		.uleb128 0xb
 2212 0158 27       		.uleb128 0x27
 2213 0159 19       		.uleb128 0x19
 2214 015a 11       		.uleb128 0x11
 2215 015b 01       		.uleb128 0x1
 2216 015c 12       		.uleb128 0x12
 2217 015d 06       		.uleb128 0x6
 2218 015e 40       		.uleb128 0x40
 2219 015f 18       		.uleb128 0x18
 2220 0160 9742     		.uleb128 0x2117
 2221 0162 19       		.uleb128 0x19
 2222 0163 01       		.uleb128 0x1
 2223 0164 13       		.uleb128 0x13
ARM GAS  /tmp/cctJI0Jp.s 			page 40


 2224 0165 00       		.byte	0
 2225 0166 00       		.byte	0
 2226 0167 1B       		.uleb128 0x1b
 2227 0168 05       		.uleb128 0x5
 2228 0169 00       		.byte	0
 2229 016a 03       		.uleb128 0x3
 2230 016b 08       		.uleb128 0x8
 2231 016c 3A       		.uleb128 0x3a
 2232 016d 0B       		.uleb128 0xb
 2233 016e 3B       		.uleb128 0x3b
 2234 016f 0B       		.uleb128 0xb
 2235 0170 39       		.uleb128 0x39
 2236 0171 0B       		.uleb128 0xb
 2237 0172 49       		.uleb128 0x49
 2238 0173 13       		.uleb128 0x13
 2239 0174 02       		.uleb128 0x2
 2240 0175 17       		.uleb128 0x17
 2241 0176 B742     		.uleb128 0x2137
 2242 0178 17       		.uleb128 0x17
 2243 0179 00       		.byte	0
 2244 017a 00       		.byte	0
 2245 017b 1C       		.uleb128 0x1c
 2246 017c 34       		.uleb128 0x34
 2247 017d 00       		.byte	0
 2248 017e 03       		.uleb128 0x3
 2249 017f 0E       		.uleb128 0xe
 2250 0180 49       		.uleb128 0x49
 2251 0181 13       		.uleb128 0x13
 2252 0182 34       		.uleb128 0x34
 2253 0183 19       		.uleb128 0x19
 2254 0184 00       		.byte	0
 2255 0185 00       		.byte	0
 2256 0186 1D       		.uleb128 0x1d
 2257 0187 34       		.uleb128 0x34
 2258 0188 00       		.byte	0
 2259 0189 03       		.uleb128 0x3
 2260 018a 0E       		.uleb128 0xe
 2261 018b 3A       		.uleb128 0x3a
 2262 018c 0B       		.uleb128 0xb
 2263 018d 3B       		.uleb128 0x3b
 2264 018e 0B       		.uleb128 0xb
 2265 018f 39       		.uleb128 0x39
 2266 0190 0B       		.uleb128 0xb
 2267 0191 49       		.uleb128 0x49
 2268 0192 13       		.uleb128 0x13
 2269 0193 02       		.uleb128 0x2
 2270 0194 17       		.uleb128 0x17
 2271 0195 B742     		.uleb128 0x2137
 2272 0197 17       		.uleb128 0x17
 2273 0198 00       		.byte	0
 2274 0199 00       		.byte	0
 2275 019a 1E       		.uleb128 0x1e
 2276 019b 1D       		.uleb128 0x1d
 2277 019c 01       		.byte	0x1
 2278 019d 31       		.uleb128 0x31
 2279 019e 13       		.uleb128 0x13
 2280 019f 52       		.uleb128 0x52
ARM GAS  /tmp/cctJI0Jp.s 			page 41


 2281 01a0 01       		.uleb128 0x1
 2282 01a1 B842     		.uleb128 0x2138
 2283 01a3 0B       		.uleb128 0xb
 2284 01a4 55       		.uleb128 0x55
 2285 01a5 17       		.uleb128 0x17
 2286 01a6 58       		.uleb128 0x58
 2287 01a7 0B       		.uleb128 0xb
 2288 01a8 59       		.uleb128 0x59
 2289 01a9 0B       		.uleb128 0xb
 2290 01aa 57       		.uleb128 0x57
 2291 01ab 0B       		.uleb128 0xb
 2292 01ac 01       		.uleb128 0x1
 2293 01ad 13       		.uleb128 0x13
 2294 01ae 00       		.byte	0
 2295 01af 00       		.byte	0
 2296 01b0 1F       		.uleb128 0x1f
 2297 01b1 1D       		.uleb128 0x1d
 2298 01b2 01       		.byte	0x1
 2299 01b3 31       		.uleb128 0x31
 2300 01b4 13       		.uleb128 0x13
 2301 01b5 52       		.uleb128 0x52
 2302 01b6 01       		.uleb128 0x1
 2303 01b7 B842     		.uleb128 0x2138
 2304 01b9 0B       		.uleb128 0xb
 2305 01ba 55       		.uleb128 0x55
 2306 01bb 17       		.uleb128 0x17
 2307 01bc 58       		.uleb128 0x58
 2308 01bd 0B       		.uleb128 0xb
 2309 01be 59       		.uleb128 0x59
 2310 01bf 05       		.uleb128 0x5
 2311 01c0 57       		.uleb128 0x57
 2312 01c1 0B       		.uleb128 0xb
 2313 01c2 00       		.byte	0
 2314 01c3 00       		.byte	0
 2315 01c4 20       		.uleb128 0x20
 2316 01c5 1D       		.uleb128 0x1d
 2317 01c6 00       		.byte	0
 2318 01c7 31       		.uleb128 0x31
 2319 01c8 13       		.uleb128 0x13
 2320 01c9 52       		.uleb128 0x52
 2321 01ca 01       		.uleb128 0x1
 2322 01cb B842     		.uleb128 0x2138
 2323 01cd 0B       		.uleb128 0xb
 2324 01ce 55       		.uleb128 0x55
 2325 01cf 17       		.uleb128 0x17
 2326 01d0 58       		.uleb128 0x58
 2327 01d1 0B       		.uleb128 0xb
 2328 01d2 59       		.uleb128 0x59
 2329 01d3 0B       		.uleb128 0xb
 2330 01d4 57       		.uleb128 0x57
 2331 01d5 0B       		.uleb128 0xb
 2332 01d6 00       		.byte	0
 2333 01d7 00       		.byte	0
 2334 01d8 21       		.uleb128 0x21
 2335 01d9 1D       		.uleb128 0x1d
 2336 01da 01       		.byte	0x1
 2337 01db 31       		.uleb128 0x31
ARM GAS  /tmp/cctJI0Jp.s 			page 42


 2338 01dc 13       		.uleb128 0x13
 2339 01dd 52       		.uleb128 0x52
 2340 01de 01       		.uleb128 0x1
 2341 01df B842     		.uleb128 0x2138
 2342 01e1 0B       		.uleb128 0xb
 2343 01e2 55       		.uleb128 0x55
 2344 01e3 17       		.uleb128 0x17
 2345 01e4 58       		.uleb128 0x58
 2346 01e5 0B       		.uleb128 0xb
 2347 01e6 59       		.uleb128 0x59
 2348 01e7 05       		.uleb128 0x5
 2349 01e8 57       		.uleb128 0x57
 2350 01e9 0B       		.uleb128 0xb
 2351 01ea 01       		.uleb128 0x1
 2352 01eb 13       		.uleb128 0x13
 2353 01ec 00       		.byte	0
 2354 01ed 00       		.byte	0
 2355 01ee 22       		.uleb128 0x22
 2356 01ef 05       		.uleb128 0x5
 2357 01f0 00       		.byte	0
 2358 01f1 31       		.uleb128 0x31
 2359 01f2 13       		.uleb128 0x13
 2360 01f3 02       		.uleb128 0x2
 2361 01f4 17       		.uleb128 0x17
 2362 01f5 B742     		.uleb128 0x2137
 2363 01f7 17       		.uleb128 0x17
 2364 01f8 00       		.byte	0
 2365 01f9 00       		.byte	0
 2366 01fa 23       		.uleb128 0x23
 2367 01fb 898201   		.uleb128 0x4109
 2368 01fe 00       		.byte	0
 2369 01ff 11       		.uleb128 0x11
 2370 0200 01       		.uleb128 0x1
 2371 0201 9542     		.uleb128 0x2115
 2372 0203 19       		.uleb128 0x19
 2373 0204 31       		.uleb128 0x31
 2374 0205 13       		.uleb128 0x13
 2375 0206 00       		.byte	0
 2376 0207 00       		.byte	0
 2377 0208 24       		.uleb128 0x24
 2378 0209 1D       		.uleb128 0x1d
 2379 020a 01       		.byte	0x1
 2380 020b 31       		.uleb128 0x31
 2381 020c 13       		.uleb128 0x13
 2382 020d 52       		.uleb128 0x52
 2383 020e 01       		.uleb128 0x1
 2384 020f B842     		.uleb128 0x2138
 2385 0211 0B       		.uleb128 0xb
 2386 0212 55       		.uleb128 0x55
 2387 0213 17       		.uleb128 0x17
 2388 0214 58       		.uleb128 0x58
 2389 0215 0B       		.uleb128 0xb
 2390 0216 59       		.uleb128 0x59
 2391 0217 0B       		.uleb128 0xb
 2392 0218 57       		.uleb128 0x57
 2393 0219 0B       		.uleb128 0xb
 2394 021a 00       		.byte	0
ARM GAS  /tmp/cctJI0Jp.s 			page 43


 2395 021b 00       		.byte	0
 2396 021c 25       		.uleb128 0x25
 2397 021d 05       		.uleb128 0x5
 2398 021e 00       		.byte	0
 2399 021f 03       		.uleb128 0x3
 2400 0220 0E       		.uleb128 0xe
 2401 0221 3A       		.uleb128 0x3a
 2402 0222 0B       		.uleb128 0xb
 2403 0223 3B       		.uleb128 0x3b
 2404 0224 0B       		.uleb128 0xb
 2405 0225 39       		.uleb128 0x39
 2406 0226 0B       		.uleb128 0xb
 2407 0227 49       		.uleb128 0x49
 2408 0228 13       		.uleb128 0x13
 2409 0229 02       		.uleb128 0x2
 2410 022a 17       		.uleb128 0x17
 2411 022b B742     		.uleb128 0x2137
 2412 022d 17       		.uleb128 0x17
 2413 022e 00       		.byte	0
 2414 022f 00       		.byte	0
 2415 0230 26       		.uleb128 0x26
 2416 0231 34       		.uleb128 0x34
 2417 0232 00       		.byte	0
 2418 0233 03       		.uleb128 0x3
 2419 0234 08       		.uleb128 0x8
 2420 0235 3A       		.uleb128 0x3a
 2421 0236 0B       		.uleb128 0xb
 2422 0237 3B       		.uleb128 0x3b
 2423 0238 0B       		.uleb128 0xb
 2424 0239 39       		.uleb128 0x39
 2425 023a 0B       		.uleb128 0xb
 2426 023b 49       		.uleb128 0x49
 2427 023c 13       		.uleb128 0x13
 2428 023d 02       		.uleb128 0x2
 2429 023e 17       		.uleb128 0x17
 2430 023f B742     		.uleb128 0x2137
 2431 0241 17       		.uleb128 0x17
 2432 0242 00       		.byte	0
 2433 0243 00       		.byte	0
 2434 0244 27       		.uleb128 0x27
 2435 0245 0B       		.uleb128 0xb
 2436 0246 01       		.byte	0x1
 2437 0247 55       		.uleb128 0x55
 2438 0248 17       		.uleb128 0x17
 2439 0249 00       		.byte	0
 2440 024a 00       		.byte	0
 2441 024b 28       		.uleb128 0x28
 2442 024c 898201   		.uleb128 0x4109
 2443 024f 00       		.byte	0
 2444 0250 11       		.uleb128 0x11
 2445 0251 01       		.uleb128 0x1
 2446 0252 31       		.uleb128 0x31
 2447 0253 13       		.uleb128 0x13
 2448 0254 00       		.byte	0
 2449 0255 00       		.byte	0
 2450 0256 29       		.uleb128 0x29
 2451 0257 2E       		.uleb128 0x2e
ARM GAS  /tmp/cctJI0Jp.s 			page 44


 2452 0258 00       		.byte	0
 2453 0259 3F       		.uleb128 0x3f
 2454 025a 19       		.uleb128 0x19
 2455 025b 03       		.uleb128 0x3
 2456 025c 0E       		.uleb128 0xe
 2457 025d 3A       		.uleb128 0x3a
 2458 025e 0B       		.uleb128 0xb
 2459 025f 3B       		.uleb128 0x3b
 2460 0260 0B       		.uleb128 0xb
 2461 0261 39       		.uleb128 0x39
 2462 0262 0B       		.uleb128 0xb
 2463 0263 27       		.uleb128 0x27
 2464 0264 19       		.uleb128 0x19
 2465 0265 11       		.uleb128 0x11
 2466 0266 01       		.uleb128 0x1
 2467 0267 12       		.uleb128 0x12
 2468 0268 06       		.uleb128 0x6
 2469 0269 40       		.uleb128 0x40
 2470 026a 18       		.uleb128 0x18
 2471 026b 9742     		.uleb128 0x2117
 2472 026d 19       		.uleb128 0x19
 2473 026e 00       		.byte	0
 2474 026f 00       		.byte	0
 2475 0270 2A       		.uleb128 0x2a
 2476 0271 2E       		.uleb128 0x2e
 2477 0272 00       		.byte	0
 2478 0273 03       		.uleb128 0x3
 2479 0274 0E       		.uleb128 0xe
 2480 0275 3A       		.uleb128 0x3a
 2481 0276 0B       		.uleb128 0xb
 2482 0277 3B       		.uleb128 0x3b
 2483 0278 05       		.uleb128 0x5
 2484 0279 39       		.uleb128 0x39
 2485 027a 0B       		.uleb128 0xb
 2486 027b 27       		.uleb128 0x27
 2487 027c 19       		.uleb128 0x19
 2488 027d 49       		.uleb128 0x49
 2489 027e 13       		.uleb128 0x13
 2490 027f 20       		.uleb128 0x20
 2491 0280 0B       		.uleb128 0xb
 2492 0281 00       		.byte	0
 2493 0282 00       		.byte	0
 2494 0283 2B       		.uleb128 0x2b
 2495 0284 2E       		.uleb128 0x2e
 2496 0285 00       		.byte	0
 2497 0286 03       		.uleb128 0x3
 2498 0287 0E       		.uleb128 0xe
 2499 0288 3A       		.uleb128 0x3a
 2500 0289 0B       		.uleb128 0xb
 2501 028a 3B       		.uleb128 0x3b
 2502 028b 0B       		.uleb128 0xb
 2503 028c 39       		.uleb128 0x39
 2504 028d 0B       		.uleb128 0xb
 2505 028e 27       		.uleb128 0x27
 2506 028f 19       		.uleb128 0x19
 2507 0290 49       		.uleb128 0x49
 2508 0291 13       		.uleb128 0x13
ARM GAS  /tmp/cctJI0Jp.s 			page 45


 2509 0292 20       		.uleb128 0x20
 2510 0293 0B       		.uleb128 0xb
 2511 0294 00       		.byte	0
 2512 0295 00       		.byte	0
 2513 0296 2C       		.uleb128 0x2c
 2514 0297 2E       		.uleb128 0x2e
 2515 0298 01       		.byte	0x1
 2516 0299 03       		.uleb128 0x3
 2517 029a 0E       		.uleb128 0xe
 2518 029b 3A       		.uleb128 0x3a
 2519 029c 0B       		.uleb128 0xb
 2520 029d 3B       		.uleb128 0x3b
 2521 029e 0B       		.uleb128 0xb
 2522 029f 39       		.uleb128 0x39
 2523 02a0 0B       		.uleb128 0xb
 2524 02a1 27       		.uleb128 0x27
 2525 02a2 19       		.uleb128 0x19
 2526 02a3 20       		.uleb128 0x20
 2527 02a4 0B       		.uleb128 0xb
 2528 02a5 01       		.uleb128 0x1
 2529 02a6 13       		.uleb128 0x13
 2530 02a7 00       		.byte	0
 2531 02a8 00       		.byte	0
 2532 02a9 2D       		.uleb128 0x2d
 2533 02aa 05       		.uleb128 0x5
 2534 02ab 00       		.byte	0
 2535 02ac 03       		.uleb128 0x3
 2536 02ad 0E       		.uleb128 0xe
 2537 02ae 3A       		.uleb128 0x3a
 2538 02af 0B       		.uleb128 0xb
 2539 02b0 3B       		.uleb128 0x3b
 2540 02b1 0B       		.uleb128 0xb
 2541 02b2 39       		.uleb128 0x39
 2542 02b3 0B       		.uleb128 0xb
 2543 02b4 49       		.uleb128 0x49
 2544 02b5 13       		.uleb128 0x13
 2545 02b6 00       		.byte	0
 2546 02b7 00       		.byte	0
 2547 02b8 2E       		.uleb128 0x2e
 2548 02b9 2E       		.uleb128 0x2e
 2549 02ba 00       		.byte	0
 2550 02bb 03       		.uleb128 0x3
 2551 02bc 0E       		.uleb128 0xe
 2552 02bd 3A       		.uleb128 0x3a
 2553 02be 0B       		.uleb128 0xb
 2554 02bf 3B       		.uleb128 0x3b
 2555 02c0 0B       		.uleb128 0xb
 2556 02c1 39       		.uleb128 0x39
 2557 02c2 0B       		.uleb128 0xb
 2558 02c3 27       		.uleb128 0x27
 2559 02c4 19       		.uleb128 0x19
 2560 02c5 20       		.uleb128 0x20
 2561 02c6 0B       		.uleb128 0xb
 2562 02c7 00       		.byte	0
 2563 02c8 00       		.byte	0
 2564 02c9 2F       		.uleb128 0x2f
 2565 02ca 2E       		.uleb128 0x2e
ARM GAS  /tmp/cctJI0Jp.s 			page 46


 2566 02cb 00       		.byte	0
 2567 02cc 3F       		.uleb128 0x3f
 2568 02cd 19       		.uleb128 0x19
 2569 02ce 3C       		.uleb128 0x3c
 2570 02cf 19       		.uleb128 0x19
 2571 02d0 6E       		.uleb128 0x6e
 2572 02d1 0E       		.uleb128 0xe
 2573 02d2 03       		.uleb128 0x3
 2574 02d3 0E       		.uleb128 0xe
 2575 02d4 3A       		.uleb128 0x3a
 2576 02d5 0B       		.uleb128 0xb
 2577 02d6 3B       		.uleb128 0x3b
 2578 02d7 0B       		.uleb128 0xb
 2579 02d8 39       		.uleb128 0x39
 2580 02d9 0B       		.uleb128 0xb
 2581 02da 00       		.byte	0
 2582 02db 00       		.byte	0
 2583 02dc 00       		.byte	0
 2584              		.section	.debug_loc,"",%progbits
 2585              	.Ldebug_loc0:
 2586              	.LVUS9:
 2587 0000 00       		.uleb128 0
 2588 0001 00       		.uleb128 .LVU122
 2589 0002 00       		.uleb128 .LVU122
 2590 0003 00       		.uleb128 .LVU123
 2591 0004 00       		.uleb128 .LVU123
 2592 0005 00       		.uleb128 .LVU125
 2593 0006 00       		.uleb128 .LVU125
 2594 0007 00       		.uleb128 0
 2595              	.LLST9:
 2596 0008 00000000 		.4byte	.LVL19
 2597 000c 24000000 		.4byte	.LVL20
 2598 0010 0100     		.2byte	0x1
 2599 0012 50       		.byte	0x50
 2600 0013 24000000 		.4byte	.LVL20
 2601 0017 28000000 		.4byte	.LVL21
 2602 001b 0400     		.2byte	0x4
 2603 001d F3       		.byte	0xf3
 2604 001e 01       		.uleb128 0x1
 2605 001f 50       		.byte	0x50
 2606 0020 9F       		.byte	0x9f
 2607 0021 28000000 		.4byte	.LVL21
 2608 0025 2A000000 		.4byte	.LVL22
 2609 0029 0100     		.2byte	0x1
 2610 002b 50       		.byte	0x50
 2611 002c 2A000000 		.4byte	.LVL22
 2612 0030 6C000000 		.4byte	.LFE248
 2613 0034 0400     		.2byte	0x4
 2614 0036 F3       		.byte	0xf3
 2615 0037 01       		.uleb128 0x1
 2616 0038 50       		.byte	0x50
 2617 0039 9F       		.byte	0x9f
 2618 003a 00000000 		.4byte	0
 2619 003e 00000000 		.4byte	0
 2620              	.LVUS10:
 2621 0042 00       		.uleb128 .LVU149
 2622 0043 00       		.uleb128 .LVU152
ARM GAS  /tmp/cctJI0Jp.s 			page 47


 2623 0044 00       		.uleb128 .LVU152
 2624 0045 00       		.uleb128 .LVU162
 2625              	.LLST10:
 2626 0046 4A000000 		.4byte	.LVL23
 2627 004a 4C000000 		.4byte	.LVL24
 2628 004e 0600     		.2byte	0x6
 2629 0050 70       		.byte	0x70
 2630 0051 00       		.sleb128 0
 2631 0052 73       		.byte	0x73
 2632 0053 00       		.sleb128 0
 2633 0054 1C       		.byte	0x1c
 2634 0055 9F       		.byte	0x9f
 2635 0056 4C000000 		.4byte	.LVL24
 2636 005a 61000000 		.4byte	.LVL27-1
 2637 005e 0100     		.2byte	0x1
 2638 0060 51       		.byte	0x51
 2639 0061 00000000 		.4byte	0
 2640 0065 00000000 		.4byte	0
 2641              	.LVUS11:
 2642 0069 00       		.uleb128 .LVU155
 2643 006a 01       		.uleb128 .LVU156
 2644 006b 01       		.uleb128 .LVU156
 2645 006c 00       		.uleb128 .LVU162
 2646              	.LLST11:
 2647 006d 54000000 		.4byte	.LVL25
 2648 0071 54000000 		.4byte	.LVL25
 2649 0075 0100     		.2byte	0x1
 2650 0077 52       		.byte	0x52
 2651 0078 54000000 		.4byte	.LVL25
 2652 007c 61000000 		.4byte	.LVL27-1
 2653 0080 1500     		.2byte	0x15
 2654 0082 72       		.byte	0x72
 2655 0083 00       		.sleb128 0
 2656 0084 12       		.byte	0x12
 2657 0085 40       		.byte	0x40
 2658 0086 4B       		.byte	0x4b
 2659 0087 24       		.byte	0x24
 2660 0088 22       		.byte	0x22
 2661 0089 32       		.byte	0x32
 2662 008a 16       		.byte	0x16
 2663 008b 14       		.byte	0x14
 2664 008c 40       		.byte	0x40
 2665 008d 4B       		.byte	0x4b
 2666 008e 24       		.byte	0x24
 2667 008f 22       		.byte	0x22
 2668 0090 2B       		.byte	0x2b
 2669 0091 28       		.byte	0x28
 2670 0092 0100     		.2byte	0x1
 2671 0094 16       		.byte	0x16
 2672 0095 13       		.byte	0x13
 2673 0096 9F       		.byte	0x9f
 2674 0097 00000000 		.4byte	0
 2675 009b 00000000 		.4byte	0
 2676              	.LVUS12:
 2677 009f 02       		.uleb128 .LVU157
 2678 00a0 00       		.uleb128 .LVU161
 2679 00a1 00       		.uleb128 .LVU161
ARM GAS  /tmp/cctJI0Jp.s 			page 48


 2680 00a2 00       		.uleb128 .LVU162
 2681              	.LLST12:
 2682 00a3 54000000 		.4byte	.LVL25
 2683 00a7 5E000000 		.4byte	.LVL26
 2684 00ab 1800     		.2byte	0x18
 2685 00ad 72       		.byte	0x72
 2686 00ae 00       		.sleb128 0
 2687 00af 12       		.byte	0x12
 2688 00b0 40       		.byte	0x40
 2689 00b1 4B       		.byte	0x4b
 2690 00b2 24       		.byte	0x24
 2691 00b3 22       		.byte	0x22
 2692 00b4 32       		.byte	0x32
 2693 00b5 16       		.byte	0x16
 2694 00b6 14       		.byte	0x14
 2695 00b7 40       		.byte	0x40
 2696 00b8 4B       		.byte	0x4b
 2697 00b9 24       		.byte	0x24
 2698 00ba 22       		.byte	0x22
 2699 00bb 2B       		.byte	0x2b
 2700 00bc 28       		.byte	0x28
 2701 00bd 0100     		.2byte	0x1
 2702 00bf 16       		.byte	0x16
 2703 00c0 13       		.byte	0x13
 2704 00c1 70       		.byte	0x70
 2705 00c2 00       		.sleb128 0
 2706 00c3 22       		.byte	0x22
 2707 00c4 9F       		.byte	0x9f
 2708 00c5 5E000000 		.4byte	.LVL26
 2709 00c9 61000000 		.4byte	.LVL27-1
 2710 00cd 0100     		.2byte	0x1
 2711 00cf 50       		.byte	0x50
 2712 00d0 00000000 		.4byte	0
 2713 00d4 00000000 		.4byte	0
 2714              	.LVUS0:
 2715 00d8 00       		.uleb128 0
 2716 00d9 00       		.uleb128 .LVU22
 2717 00da 00       		.uleb128 .LVU22
 2718 00db 00       		.uleb128 .LVU92
 2719 00dc 00       		.uleb128 .LVU93
 2720 00dd 00       		.uleb128 0
 2721              	.LLST0:
 2722 00de 00000000 		.4byte	.LVL0
 2723 00e2 0A000000 		.4byte	.LVL1
 2724 00e6 0100     		.2byte	0x1
 2725 00e8 50       		.byte	0x50
 2726 00e9 0A000000 		.4byte	.LVL1
 2727 00ed 6E000000 		.4byte	.LVL17
 2728 00f1 0100     		.2byte	0x1
 2729 00f3 56       		.byte	0x56
 2730 00f4 71000000 		.4byte	.LVL18-1
 2731 00f8 78000000 		.4byte	.LFE247
 2732 00fc 0400     		.2byte	0x4
 2733 00fe F3       		.byte	0xf3
 2734 00ff 01       		.uleb128 0x1
 2735 0100 50       		.byte	0x50
 2736 0101 9F       		.byte	0x9f
ARM GAS  /tmp/cctJI0Jp.s 			page 49


 2737 0102 00000000 		.4byte	0
 2738 0106 00000000 		.4byte	0
 2739              	.LVUS1:
 2740 010a 00       		.uleb128 0
 2741 010b 00       		.uleb128 .LVU35
 2742 010c 00       		.uleb128 .LVU35
 2743 010d 00       		.uleb128 .LVU46
 2744 010e 00       		.uleb128 .LVU46
 2745 010f 00       		.uleb128 .LVU69
 2746 0110 00       		.uleb128 .LVU69
 2747 0111 00       		.uleb128 .LVU75
 2748 0112 00       		.uleb128 .LVU75
 2749 0113 00       		.uleb128 .LVU78
 2750 0114 00       		.uleb128 .LVU78
 2751 0115 00       		.uleb128 .LVU93
 2752 0116 00       		.uleb128 .LVU93
 2753 0117 00       		.uleb128 0
 2754              	.LLST1:
 2755 0118 00000000 		.4byte	.LVL0
 2756 011c 18000000 		.4byte	.LVL4
 2757 0120 0100     		.2byte	0x1
 2758 0122 51       		.byte	0x51
 2759 0123 18000000 		.4byte	.LVL4
 2760 0127 2A000000 		.4byte	.LVL8
 2761 012b 0100     		.2byte	0x1
 2762 012d 51       		.byte	0x51
 2763 012e 2A000000 		.4byte	.LVL8
 2764 0132 4E000000 		.4byte	.LVL11
 2765 0136 1700     		.2byte	0x17
 2766 0138 32       		.byte	0x32
 2767 0139 F3       		.byte	0xf3
 2768 013a 01       		.uleb128 0x1
 2769 013b 51       		.byte	0x51
 2770 013c F3       		.byte	0xf3
 2771 013d 01       		.uleb128 0x1
 2772 013e 51       		.byte	0x51
 2773 013f 40       		.byte	0x40
 2774 0140 4B       		.byte	0x4b
 2775 0141 24       		.byte	0x24
 2776 0142 22       		.byte	0x22
 2777 0143 0C       		.byte	0xc
 2778 0144 02000080 		.4byte	0x80000002
 2779 0148 2D       		.byte	0x2d
 2780 0149 28       		.byte	0x28
 2781 014a 0100     		.2byte	0x1
 2782 014c 16       		.byte	0x16
 2783 014d 13       		.byte	0x13
 2784 014e 9F       		.byte	0x9f
 2785 014f 4E000000 		.4byte	.LVL11
 2786 0153 57000000 		.4byte	.LVL14-1
 2787 0157 0100     		.2byte	0x1
 2788 0159 51       		.byte	0x51
 2789 015a 57000000 		.4byte	.LVL14-1
 2790 015e 5C000000 		.4byte	.LVL15
 2791 0162 1700     		.2byte	0x17
 2792 0164 32       		.byte	0x32
 2793 0165 F3       		.byte	0xf3
ARM GAS  /tmp/cctJI0Jp.s 			page 50


 2794 0166 01       		.uleb128 0x1
 2795 0167 51       		.byte	0x51
 2796 0168 F3       		.byte	0xf3
 2797 0169 01       		.uleb128 0x1
 2798 016a 51       		.byte	0x51
 2799 016b 40       		.byte	0x40
 2800 016c 4B       		.byte	0x4b
 2801 016d 24       		.byte	0x24
 2802 016e 22       		.byte	0x22
 2803 016f 0C       		.byte	0xc
 2804 0170 02000080 		.4byte	0x80000002
 2805 0174 2D       		.byte	0x2d
 2806 0175 28       		.byte	0x28
 2807 0176 0100     		.2byte	0x1
 2808 0178 16       		.byte	0x16
 2809 0179 13       		.byte	0x13
 2810 017a 9F       		.byte	0x9f
 2811 017b 5C000000 		.4byte	.LVL15
 2812 017f 71000000 		.4byte	.LVL18-1
 2813 0183 0100     		.2byte	0x1
 2814 0185 51       		.byte	0x51
 2815 0186 71000000 		.4byte	.LVL18-1
 2816 018a 78000000 		.4byte	.LFE247
 2817 018e 1700     		.2byte	0x17
 2818 0190 32       		.byte	0x32
 2819 0191 F3       		.byte	0xf3
 2820 0192 01       		.uleb128 0x1
 2821 0193 51       		.byte	0x51
 2822 0194 F3       		.byte	0xf3
 2823 0195 01       		.uleb128 0x1
 2824 0196 51       		.byte	0x51
 2825 0197 40       		.byte	0x40
 2826 0198 4B       		.byte	0x4b
 2827 0199 24       		.byte	0x24
 2828 019a 22       		.byte	0x22
 2829 019b 0C       		.byte	0xc
 2830 019c 02000080 		.4byte	0x80000002
 2831 01a0 2D       		.byte	0x2d
 2832 01a1 28       		.byte	0x28
 2833 01a2 0100     		.2byte	0x1
 2834 01a4 16       		.byte	0x16
 2835 01a5 13       		.byte	0x13
 2836 01a6 9F       		.byte	0x9f
 2837 01a7 00000000 		.4byte	0
 2838 01ab 00000000 		.4byte	0
 2839              	.LVUS2:
 2840 01af 00       		.uleb128 0
 2841 01b0 00       		.uleb128 .LVU46
 2842 01b1 00       		.uleb128 .LVU46
 2843 01b2 00       		.uleb128 .LVU69
 2844 01b3 00       		.uleb128 .LVU69
 2845 01b4 00       		.uleb128 .LVU75
 2846 01b5 00       		.uleb128 .LVU75
 2847 01b6 00       		.uleb128 .LVU78
 2848 01b7 00       		.uleb128 .LVU78
 2849 01b8 00       		.uleb128 .LVU93
 2850 01b9 00       		.uleb128 .LVU93
ARM GAS  /tmp/cctJI0Jp.s 			page 51


 2851 01ba 00       		.uleb128 0
 2852              	.LLST2:
 2853 01bb 00000000 		.4byte	.LVL0
 2854 01bf 2A000000 		.4byte	.LVL8
 2855 01c3 0100     		.2byte	0x1
 2856 01c5 52       		.byte	0x52
 2857 01c6 2A000000 		.4byte	.LVL8
 2858 01ca 4E000000 		.4byte	.LVL11
 2859 01ce 0400     		.2byte	0x4
 2860 01d0 F3       		.byte	0xf3
 2861 01d1 01       		.uleb128 0x1
 2862 01d2 52       		.byte	0x52
 2863 01d3 9F       		.byte	0x9f
 2864 01d4 4E000000 		.4byte	.LVL11
 2865 01d8 57000000 		.4byte	.LVL14-1
 2866 01dc 0100     		.2byte	0x1
 2867 01de 52       		.byte	0x52
 2868 01df 57000000 		.4byte	.LVL14-1
 2869 01e3 5C000000 		.4byte	.LVL15
 2870 01e7 0400     		.2byte	0x4
 2871 01e9 F3       		.byte	0xf3
 2872 01ea 01       		.uleb128 0x1
 2873 01eb 52       		.byte	0x52
 2874 01ec 9F       		.byte	0x9f
 2875 01ed 5C000000 		.4byte	.LVL15
 2876 01f1 71000000 		.4byte	.LVL18-1
 2877 01f5 0100     		.2byte	0x1
 2878 01f7 52       		.byte	0x52
 2879 01f8 71000000 		.4byte	.LVL18-1
 2880 01fc 78000000 		.4byte	.LFE247
 2881 0200 0400     		.2byte	0x4
 2882 0202 F3       		.byte	0xf3
 2883 0203 01       		.uleb128 0x1
 2884 0204 52       		.byte	0x52
 2885 0205 9F       		.byte	0x9f
 2886 0206 00000000 		.4byte	0
 2887 020a 00000000 		.4byte	0
 2888              	.LVUS3:
 2889 020e 00       		.uleb128 0
 2890 020f 00       		.uleb128 .LVU34
 2891 0210 00       		.uleb128 .LVU34
 2892 0211 00       		.uleb128 .LVU46
 2893 0212 00       		.uleb128 .LVU46
 2894 0213 00       		.uleb128 .LVU69
 2895 0214 00       		.uleb128 .LVU69
 2896 0215 00       		.uleb128 .LVU75
 2897 0216 00       		.uleb128 .LVU75
 2898 0217 00       		.uleb128 .LVU78
 2899 0218 00       		.uleb128 .LVU78
 2900 0219 00       		.uleb128 .LVU92
 2901 021a 00       		.uleb128 .LVU93
 2902 021b 00       		.uleb128 0
 2903              	.LLST3:
 2904 021c 00000000 		.4byte	.LVL0
 2905 0220 14000000 		.4byte	.LVL3
 2906 0224 0100     		.2byte	0x1
 2907 0226 53       		.byte	0x53
ARM GAS  /tmp/cctJI0Jp.s 			page 52


 2908 0227 14000000 		.4byte	.LVL3
 2909 022b 2A000000 		.4byte	.LVL8
 2910 022f 0200     		.2byte	0x2
 2911 0231 76       		.byte	0x76
 2912 0232 10       		.sleb128 16
 2913 0233 2A000000 		.4byte	.LVL8
 2914 0237 4E000000 		.4byte	.LVL11
 2915 023b 0400     		.2byte	0x4
 2916 023d F3       		.byte	0xf3
 2917 023e 01       		.uleb128 0x1
 2918 023f 53       		.byte	0x53
 2919 0240 9F       		.byte	0x9f
 2920 0241 4E000000 		.4byte	.LVL11
 2921 0245 57000000 		.4byte	.LVL14-1
 2922 0249 0200     		.2byte	0x2
 2923 024b 76       		.byte	0x76
 2924 024c 10       		.sleb128 16
 2925 024d 57000000 		.4byte	.LVL14-1
 2926 0251 5C000000 		.4byte	.LVL15
 2927 0255 0400     		.2byte	0x4
 2928 0257 F3       		.byte	0xf3
 2929 0258 01       		.uleb128 0x1
 2930 0259 53       		.byte	0x53
 2931 025a 9F       		.byte	0x9f
 2932 025b 5C000000 		.4byte	.LVL15
 2933 025f 6E000000 		.4byte	.LVL17
 2934 0263 0200     		.2byte	0x2
 2935 0265 76       		.byte	0x76
 2936 0266 10       		.sleb128 16
 2937 0267 71000000 		.4byte	.LVL18-1
 2938 026b 78000000 		.4byte	.LFE247
 2939 026f 0400     		.2byte	0x4
 2940 0271 F3       		.byte	0xf3
 2941 0272 01       		.uleb128 0x1
 2942 0273 53       		.byte	0x53
 2943 0274 9F       		.byte	0x9f
 2944 0275 00000000 		.4byte	0
 2945 0279 00000000 		.4byte	0
 2946              	.LVUS4:
 2947 027d 01       		.uleb128 .LVU39
 2948 027e 00       		.uleb128 .LVU48
 2949 027f 01       		.uleb128 .LVU50
 2950 0280 00       		.uleb128 .LVU78
 2951              	.LLST4:
 2952 0281 20000000 		.4byte	.LVL5
 2953 0285 2C000000 		.4byte	.LVL9
 2954 0289 0100     		.2byte	0x1
 2955 028b 55       		.byte	0x55
 2956 028c 2E000000 		.4byte	.LVL10
 2957 0290 5C000000 		.4byte	.LVL15
 2958 0294 0100     		.2byte	0x1
 2959 0296 55       		.byte	0x55
 2960 0297 00000000 		.4byte	0
 2961 029b 00000000 		.4byte	0
 2962              	.LVUS5:
 2963 029f 00       		.uleb128 .LVU44
 2964 02a0 00       		.uleb128 .LVU78
ARM GAS  /tmp/cctJI0Jp.s 			page 53


 2965              	.LLST5:
 2966 02a1 28000000 		.4byte	.LVL7
 2967 02a5 5C000000 		.4byte	.LVL15
 2968 02a9 0100     		.2byte	0x1
 2969 02ab 54       		.byte	0x54
 2970 02ac 00000000 		.4byte	0
 2971 02b0 00000000 		.4byte	0
 2972              	.LVUS6:
 2973 02b4 07       		.uleb128 .LVU31
 2974 02b5 00       		.uleb128 .LVU43
 2975 02b6 00       		.uleb128 .LVU78
 2976 02b7 00       		.uleb128 .LVU92
 2977              	.LLST6:
 2978 02b8 12000000 		.4byte	.LVL2
 2979 02bc 26000000 		.4byte	.LVL6
 2980 02c0 0100     		.2byte	0x1
 2981 02c2 54       		.byte	0x54
 2982 02c3 5C000000 		.4byte	.LVL15
 2983 02c7 6E000000 		.4byte	.LVL17
 2984 02cb 0100     		.2byte	0x1
 2985 02cd 54       		.byte	0x54
 2986 02ce 00000000 		.4byte	0
 2987 02d2 00000000 		.4byte	0
 2988              	.LVUS7:
 2989 02d6 01       		.uleb128 .LVU72
 2990 02d7 00       		.uleb128 .LVU74
 2991 02d8 00       		.uleb128 .LVU74
 2992 02d9 00       		.uleb128 .LVU75
 2993              	.LLST7:
 2994 02da 52000000 		.4byte	.LVL12
 2995 02de 54000000 		.4byte	.LVL13
 2996 02e2 0600     		.2byte	0x6
 2997 02e4 70       		.byte	0x70
 2998 02e5 00       		.sleb128 0
 2999 02e6 74       		.byte	0x74
 3000 02e7 00       		.sleb128 0
 3001 02e8 22       		.byte	0x22
 3002 02e9 9F       		.byte	0x9f
 3003 02ea 54000000 		.4byte	.LVL13
 3004 02ee 57000000 		.4byte	.LVL14-1
 3005 02f2 0100     		.2byte	0x1
 3006 02f4 50       		.byte	0x50
 3007 02f5 00000000 		.4byte	0
 3008 02f9 00000000 		.4byte	0
 3009              	.LVUS8:
 3010 02fd 01       		.uleb128 .LVU89
 3011 02fe 00       		.uleb128 .LVU92
 3012              	.LLST8:
 3013 02ff 6A000000 		.4byte	.LVL16
 3014 0303 6E000000 		.4byte	.LVL17
 3015 0307 0B00     		.2byte	0xb
 3016 0309 77       		.byte	0x77
 3017 030a 20       		.sleb128 32
 3018 030b 06       		.byte	0x6
 3019 030c 23       		.byte	0x23
 3020 030d 08       		.uleb128 0x8
 3021 030e 06       		.byte	0x6
ARM GAS  /tmp/cctJI0Jp.s 			page 54


 3022 030f 77       		.byte	0x77
 3023 0310 28       		.sleb128 40
 3024 0311 06       		.byte	0x6
 3025 0312 22       		.byte	0x22
 3026 0313 9F       		.byte	0x9f
 3027 0314 00000000 		.4byte	0
 3028 0318 00000000 		.4byte	0
 3029              		.section	.debug_aranges,"",%progbits
 3030 0000 2C000000 		.4byte	0x2c
 3031 0004 0200     		.2byte	0x2
 3032 0006 00000000 		.4byte	.Ldebug_info0
 3033 000a 04       		.byte	0x4
 3034 000b 00       		.byte	0
 3035 000c 0000     		.2byte	0
 3036 000e 0000     		.2byte	0
 3037 0010 00000000 		.4byte	.LFB246
 3038 0014 1C000000 		.4byte	.LFE246-.LFB246
 3039 0018 00000000 		.4byte	.LFB247
 3040 001c 78000000 		.4byte	.LFE247-.LFB247
 3041 0020 00000000 		.4byte	.LFB248
 3042 0024 6C000000 		.4byte	.LFE248-.LFB248
 3043 0028 00000000 		.4byte	0
 3044 002c 00000000 		.4byte	0
 3045              		.section	.debug_ranges,"",%progbits
 3046              	.Ldebug_ranges0:
 3047 0000 04000000 		.4byte	.LBB27
 3048 0004 0E000000 		.4byte	.LBE27
 3049 0008 12000000 		.4byte	.LBB49
 3050 000c 12000000 		.4byte	.LBE49
 3051 0010 12000000 		.4byte	.LBB50
 3052 0014 12000000 		.4byte	.LBE50
 3053 0018 12000000 		.4byte	.LBB51
 3054 001c 2E000000 		.4byte	.LBE51
 3055 0020 4E000000 		.4byte	.LBB52
 3056 0024 58000000 		.4byte	.LBE52
 3057 0028 5A000000 		.4byte	.LBB53
 3058 002c 6A000000 		.4byte	.LBE53
 3059 0030 6E000000 		.4byte	.LBB54
 3060 0034 78000000 		.4byte	.LBE54
 3061 0038 00000000 		.4byte	0
 3062 003c 00000000 		.4byte	0
 3063 0040 06000000 		.4byte	.LBB28
 3064 0044 0E000000 		.4byte	.LBE28
 3065 0048 12000000 		.4byte	.LBB36
 3066 004c 12000000 		.4byte	.LBE36
 3067 0050 12000000 		.4byte	.LBB37
 3068 0054 12000000 		.4byte	.LBE37
 3069 0058 12000000 		.4byte	.LBB38
 3070 005c 12000000 		.4byte	.LBE38
 3071 0060 00000000 		.4byte	0
 3072 0064 00000000 		.4byte	0
 3073 0068 06000000 		.4byte	.LBB29
 3074 006c 0E000000 		.4byte	.LBE29
 3075 0070 12000000 		.4byte	.LBB34
 3076 0074 12000000 		.4byte	.LBE34
 3077 0078 12000000 		.4byte	.LBB35
 3078 007c 12000000 		.4byte	.LBE35
ARM GAS  /tmp/cctJI0Jp.s 			page 55


 3079 0080 00000000 		.4byte	0
 3080 0084 00000000 		.4byte	0
 3081 0088 06000000 		.4byte	.LBB30
 3082 008c 0E000000 		.4byte	.LBE30
 3083 0090 12000000 		.4byte	.LBB33
 3084 0094 12000000 		.4byte	.LBE33
 3085 0098 00000000 		.4byte	0
 3086 009c 00000000 		.4byte	0
 3087 00a0 52000000 		.4byte	.LBB39
 3088 00a4 58000000 		.4byte	.LBE39
 3089 00a8 5A000000 		.4byte	.LBB42
 3090 00ac 5C000000 		.4byte	.LBE42
 3091 00b0 00000000 		.4byte	0
 3092 00b4 00000000 		.4byte	0
 3093 00b8 62000000 		.4byte	.LBB43
 3094 00bc 64000000 		.4byte	.LBE43
 3095 00c0 6A000000 		.4byte	.LBB47
 3096 00c4 6A000000 		.4byte	.LBE47
 3097 00c8 6E000000 		.4byte	.LBB48
 3098 00cc 78000000 		.4byte	.LBE48
 3099 00d0 00000000 		.4byte	0
 3100 00d4 00000000 		.4byte	0
 3101 00d8 42000000 		.4byte	.LBB55
 3102 00dc 46000000 		.4byte	.LBE55
 3103 00e0 48000000 		.4byte	.LBB63
 3104 00e4 48000000 		.4byte	.LBE63
 3105 00e8 48000000 		.4byte	.LBB64
 3106 00ec 48000000 		.4byte	.LBE64
 3107 00f0 48000000 		.4byte	.LBB65
 3108 00f4 4A000000 		.4byte	.LBE65
 3109 00f8 00000000 		.4byte	0
 3110 00fc 00000000 		.4byte	0
 3111 0100 42000000 		.4byte	.LBB56
 3112 0104 46000000 		.4byte	.LBE56
 3113 0108 48000000 		.4byte	.LBB61
 3114 010c 48000000 		.4byte	.LBE61
 3115 0110 48000000 		.4byte	.LBB62
 3116 0114 4A000000 		.4byte	.LBE62
 3117 0118 00000000 		.4byte	0
 3118 011c 00000000 		.4byte	0
 3119 0120 42000000 		.4byte	.LBB57
 3120 0124 46000000 		.4byte	.LBE57
 3121 0128 48000000 		.4byte	.LBB60
 3122 012c 4A000000 		.4byte	.LBE60
 3123 0130 00000000 		.4byte	0
 3124 0134 00000000 		.4byte	0
 3125 0138 54000000 		.4byte	.LBB66
 3126 013c 54000000 		.4byte	.LBE66
 3127 0140 56000000 		.4byte	.LBB69
 3128 0144 62000000 		.4byte	.LBE69
 3129 0148 00000000 		.4byte	0
 3130 014c 00000000 		.4byte	0
 3131 0150 62000000 		.4byte	.LBB70
 3132 0154 62000000 		.4byte	.LBE70
 3133 0158 64000000 		.4byte	.LBB73
 3134 015c 6C000000 		.4byte	.LBE73
 3135 0160 00000000 		.4byte	0
ARM GAS  /tmp/cctJI0Jp.s 			page 56


 3136 0164 00000000 		.4byte	0
 3137 0168 00000000 		.4byte	.LFB246
 3138 016c 1C000000 		.4byte	.LFE246
 3139 0170 00000000 		.4byte	.LFB247
 3140 0174 78000000 		.4byte	.LFE247
 3141 0178 00000000 		.4byte	.LFB248
 3142 017c 6C000000 		.4byte	.LFE248
 3143 0180 00000000 		.4byte	0
 3144 0184 00000000 		.4byte	0
 3145              		.section	.debug_line,"",%progbits
 3146              	.Ldebug_line0:
 3147 0000 90040000 		.section	.debug_str,"MS",%progbits,1
 3147      0300B501 
 3147      00000201 
 3147      FB0E0D00 
 3147      01010101 
 3148              	.LASF113:
 3149 0000 2F686F6D 		.ascii	"/home/tfateba/nlab/ip/trunk/demos/STM32/RT-STM32F40"
 3149      652F7466 
 3149      61746562 
 3149      612F6E6C 
 3149      61622F69 
 3150 0033 372D4449 		.ascii	"7-DISCOVERY-G++\000"
 3150      53434F56 
 3150      4552592D 
 3150      472B2B00 
 3151              	.LASF47:
 3152 0043 72656164 		.ascii	"ready_list_t\000"
 3152      795F6C69 
 3152      73745F74 
 3152      00
 3153              	.LASF71:
 3154 0050 44494552 		.ascii	"DIER\000"
 3154      00
 3155              	.LASF85:
 3156 0055 77747472 		.ascii	"wttrp\000"
 3156      7000
 3157              	.LASF43:
 3158 005b 6E657874 		.ascii	"next\000"
 3158      00
 3159              	.LASF53:
 3160 0060 64656C74 		.ascii	"delta\000"
 3160      6100
 3161              	.LASF82:
 3162 0066 7264796D 		.ascii	"rdymsg\000"
 3162      736700
 3163              	.LASF12:
 3164 006d 75696E74 		.ascii	"uint64_t\000"
 3164      36345F74 
 3164      00
 3165              	.LASF20:
 3166 0076 6576656E 		.ascii	"eventmask_t\000"
 3166      746D6173 
 3166      6B5F7400 
 3167              	.LASF46:
 3168 0082 70726576 		.ascii	"prev\000"
 3168      00
ARM GAS  /tmp/cctJI0Jp.s 			page 57


 3169              	.LASF69:
 3170 0087 706F7274 		.ascii	"port_intctx\000"
 3170      5F696E74 
 3170      63747800 
 3171              	.LASF58:
 3172 0093 73797374 		.ascii	"system_debug_t\000"
 3172      656D5F64 
 3172      65627567 
 3172      5F7400
 3173              	.LASF73:
 3174 00a2 43434D52 		.ascii	"CCMR2\000"
 3174      3200
 3175              	.LASF13:
 3176 00a8 6C6F6E67 		.ascii	"long long unsigned int\000"
 3176      206C6F6E 
 3176      6720756E 
 3176      7369676E 
 3176      65642069 
 3177              	.LASF97:
 3178 00bf 63685654 		.ascii	"chVTDoResetI\000"
 3178      446F5265 
 3178      73657449 
 3178      00
 3179              	.LASF83:
 3180 00cc 65786974 		.ascii	"exitcode\000"
 3180      636F6465 
 3180      00
 3181              	.LASF65:
 3182 00d5 6D61696E 		.ascii	"mainthread\000"
 3182      74687265 
 3182      616400
 3183              	.LASF86:
 3184 00e0 73656E74 		.ascii	"sentmsg\000"
 3184      6D736700 
 3185              	.LASF55:
 3186 00e8 76697274 		.ascii	"virtual_timers_list_t\000"
 3186      75616C5F 
 3186      74696D65 
 3186      72735F6C 
 3186      6973745F 
 3187              	.LASF75:
 3188 00fe 42445452 		.ascii	"BDTR\000"
 3188      00
 3189              	.LASF45:
 3190 0103 63685F74 		.ascii	"ch_threads_queue\000"
 3190      68726561 
 3190      64735F71 
 3190      75657565 
 3190      00
 3191              	.LASF60:
 3192 0114 70616E69 		.ascii	"panic_msg\000"
 3192      635F6D73 
 3192      6700
 3193              	.LASF72:
 3194 011e 43434D52 		.ascii	"CCMR1\000"
 3194      3100
 3195              	.LASF114:
ARM GAS  /tmp/cctJI0Jp.s 			page 58


 3196 0124 5F76745F 		.ascii	"_vt_init\000"
 3196      696E6974 
 3196      00
 3197              	.LASF77:
 3198 012d 43434D52 		.ascii	"CCMR3\000"
 3198      3300
 3199              	.LASF3:
 3200 0133 7369676E 		.ascii	"signed char\000"
 3200      65642063 
 3200      68617200 
 3201              	.LASF64:
 3202 013f 76746C69 		.ascii	"vtlist\000"
 3202      737400
 3203              	.LASF34:
 3204 0146 6D736771 		.ascii	"msgqueue\000"
 3204      75657565 
 3204      00
 3205              	.LASF30:
 3206 014f 73746174 		.ascii	"state\000"
 3206      6500
 3207              	.LASF5:
 3208 0155 6C6F6E67 		.ascii	"long int\000"
 3208      20696E74 
 3208      00
 3209              	.LASF16:
 3210 015e 74737461 		.ascii	"tstate_t\000"
 3210      74655F74 
 3210      00
 3211              	.LASF54:
 3212 0167 66756E63 		.ascii	"func\000"
 3212      00
 3213              	.LASF74:
 3214 016c 43434552 		.ascii	"CCER\000"
 3214      00
 3215              	.LASF1:
 3216 0171 6C6F6E67 		.ascii	"long long int\000"
 3216      206C6F6E 
 3216      6720696E 
 3216      7400
 3217              	.LASF24:
 3218 017f 71756575 		.ascii	"queue\000"
 3218      6500
 3219              	.LASF66:
 3220 0185 72656761 		.ascii	"regarm_t\000"
 3220      726D5F74 
 3220      00
 3221              	.LASF33:
 3222 018e 77616974 		.ascii	"waiting\000"
 3222      696E6700 
 3223              	.LASF94:
 3224 0196 6D757465 		.ascii	"mutex_t\000"
 3224      785F7400 
 3225              	.LASF21:
 3226 019e 636E745F 		.ascii	"cnt_t\000"
 3226      7400
 3227              	.LASF102:
 3228 01a4 63685654 		.ascii	"chVTGetSystemTimeX\000"
ARM GAS  /tmp/cctJI0Jp.s 			page 59


 3228      47657453 
 3228      79737465 
 3228      6D54696D 
 3228      655800
 3229              	.LASF96:
 3230 01b7 6E6F7764 		.ascii	"nowdelta\000"
 3230      656C7461 
 3230      00
 3231              	.LASF87:
 3232 01c0 77747365 		.ascii	"wtsemp\000"
 3232      6D7000
 3233              	.LASF11:
 3234 01c7 6C6F6E67 		.ascii	"long unsigned int\000"
 3234      20756E73 
 3234      69676E65 
 3234      6420696E 
 3234      7400
 3235              	.LASF28:
 3236 01d9 6E616D65 		.ascii	"name\000"
 3236      00
 3237              	.LASF38:
 3238 01de 6D706F6F 		.ascii	"mpool\000"
 3238      6C00
 3239              	.LASF70:
 3240 01e4 534D4352 		.ascii	"SMCR\000"
 3240      00
 3241              	.LASF41:
 3242 01e9 63685F74 		.ascii	"ch_thread\000"
 3242      68726561 
 3242      6400
 3243              	.LASF105:
 3244 01f3 706F7274 		.ascii	"port_timer_start_alarm\000"
 3244      5F74696D 
 3244      65725F73 
 3244      74617274 
 3244      5F616C61 
 3245              	.LASF35:
 3246 020a 6570656E 		.ascii	"epending\000"
 3246      64696E67 
 3246      00
 3247              	.LASF61:
 3248 0213 63685F73 		.ascii	"ch_system_t\000"
 3248      79737465 
 3248      6D5F7400 
 3249              	.LASF79:
 3250 021f 73746D33 		.ascii	"stm32_tim_t\000"
 3250      325F7469 
 3250      6D5F7400 
 3251              	.LASF48:
 3252 022b 63685F72 		.ascii	"ch_ready_list\000"
 3252      65616479 
 3252      5F6C6973 
 3252      7400
 3253              	.LASF98:
 3254 0239 63685654 		.ascii	"chVTDoSetI\000"
 3254      446F5365 
 3254      744900
ARM GAS  /tmp/cctJI0Jp.s 			page 60


 3255              	.LASF67:
 3256 0244 73746B61 		.ascii	"stkalign_t\000"
 3256      6C69676E 
 3256      5F7400
 3257              	.LASF26:
 3258 024f 6E657765 		.ascii	"newer\000"
 3258      7200
 3259              	.LASF37:
 3260 0255 7265616C 		.ascii	"realprio\000"
 3260      7072696F 
 3260      00
 3261              	.LASF14:
 3262 025e 7274636E 		.ascii	"rtcnt_t\000"
 3262      745F7400 
 3263              	.LASF39:
 3264 0266 74687265 		.ascii	"thread_reference_t\000"
 3264      61645F72 
 3264      65666572 
 3264      656E6365 
 3264      5F7400
 3265              	.LASF56:
 3266 0279 63685F76 		.ascii	"ch_virtual_timers_list\000"
 3266      69727475 
 3266      616C5F74 
 3266      696D6572 
 3266      735F6C69 
 3267              	.LASF111:
 3268 0290 474E5520 		.ascii	"GNU C17 10.3.1 20210621 (release) -mcpu=cortex-m4 -"
 3268      43313720 
 3268      31302E33 
 3268      2E312032 
 3268      30323130 
 3269 02c3 6D6E6F2D 		.ascii	"mno-thumb-interwork -mthumb -mfloat-abi=soft -march"
 3269      7468756D 
 3269      622D696E 
 3269      74657277 
 3269      6F726B20 
 3270 02f6 3D61726D 		.ascii	"=armv7e-m -ggdb -O2 -fomit-frame-pointer -falign-fu"
 3270      7637652D 
 3270      6D202D67 
 3270      67646220 
 3270      2D4F3220 
 3271 0329 6E637469 		.ascii	"nctions=16 -ffunction-sections -fdata-sections -fno"
 3271      6F6E733D 
 3271      3136202D 
 3271      6666756E 
 3271      6374696F 
 3272 035c 2D636F6D 		.ascii	"-common\000"
 3272      6D6F6E00 
 3273              	.LASF68:
 3274 0364 706F7274 		.ascii	"port_context\000"
 3274      5F636F6E 
 3274      74657874 
 3274      00
 3275              	.LASF81:
 3276 0371 746D5F63 		.ascii	"tm_calibration_t\000"
 3276      616C6962 
ARM GAS  /tmp/cctJI0Jp.s 			page 61


 3276      72617469 
 3276      6F6E5F74 
 3276      00
 3277              	.LASF106:
 3278 0382 74696D65 		.ascii	"time\000"
 3278      00
 3279              	.LASF25:
 3280 0387 7072696F 		.ascii	"prio\000"
 3280      00
 3281              	.LASF49:
 3282 038c 63757272 		.ascii	"current\000"
 3282      656E7400 
 3283              	.LASF17:
 3284 0394 74726566 		.ascii	"trefs_t\000"
 3284      735F7400 
 3285              	.LASF32:
 3286 039c 72656673 		.ascii	"refs\000"
 3286      00
 3287              	.LASF51:
 3288 03a1 76697274 		.ascii	"virtual_timer_t\000"
 3288      75616C5F 
 3288      74696D65 
 3288      725F7400 
 3289              	.LASF18:
 3290 03b1 74707269 		.ascii	"tprio_t\000"
 3290      6F5F7400 
 3291              	.LASF59:
 3292 03b9 63685F73 		.ascii	"ch_system_debug\000"
 3292      79737465 
 3292      6D5F6465 
 3292      62756700 
 3293              	.LASF95:
 3294 03c9 5F426F6F 		.ascii	"_Bool\000"
 3294      6C00
 3295              	.LASF6:
 3296 03cf 696E7433 		.ascii	"int32_t\000"
 3296      325F7400 
 3297              	.LASF8:
 3298 03d7 756E7369 		.ascii	"unsigned char\000"
 3298      676E6564 
 3298      20636861 
 3298      7200
 3299              	.LASF99:
 3300 03e5 64656C61 		.ascii	"delay\000"
 3300      7900
 3301              	.LASF4:
 3302 03eb 73686F72 		.ascii	"short int\000"
 3302      7420696E 
 3302      7400
 3303              	.LASF57:
 3304 03f5 6C617374 		.ascii	"lasttime\000"
 3304      74696D65 
 3304      00
 3305              	.LASF89:
 3306 03fe 65776D61 		.ascii	"ewmask\000"
 3306      736B00
 3307              	.LASF62:
ARM GAS  /tmp/cctJI0Jp.s 			page 62


 3308 0405 63685F73 		.ascii	"ch_system\000"
 3308      79737465 
 3308      6D00
 3309              	.LASF7:
 3310 040f 75696E74 		.ascii	"uint8_t\000"
 3310      385F7400 
 3311              	.LASF101:
 3312 0417 5F5F6675 		.ascii	"__func__\000"
 3312      6E635F5F 
 3312      00
 3313              	.LASF52:
 3314 0420 63685F76 		.ascii	"ch_virtual_timer\000"
 3314      69727475 
 3314      616C5F74 
 3314      696D6572 
 3314      00
 3315              	.LASF90:
 3316 0431 63685F73 		.ascii	"ch_semaphore\000"
 3316      656D6170 
 3316      686F7265 
 3316      00
 3317              	.LASF78:
 3318 043e 43435852 		.ascii	"CCXR\000"
 3318      00
 3319              	.LASF107:
 3320 0443 73745F6C 		.ascii	"st_lld_get_counter\000"
 3320      6C645F67 
 3320      65745F63 
 3320      6F756E74 
 3320      657200
 3321              	.LASF10:
 3322 0456 75696E74 		.ascii	"uint32_t\000"
 3322      33325F74 
 3322      00
 3323              	.LASF88:
 3324 045f 77746D74 		.ascii	"wtmtxp\000"
 3324      787000
 3325              	.LASF42:
 3326 0466 63685F74 		.ascii	"ch_threads_list\000"
 3326      68726561 
 3326      64735F6C 
 3326      69737400 
 3327              	.LASF92:
 3328 0476 6F776E65 		.ascii	"owner\000"
 3328      7200
 3329              	.LASF2:
 3330 047c 6C6F6E67 		.ascii	"long double\000"
 3330      20646F75 
 3330      626C6500 
 3331              	.LASF29:
 3332 0488 77616261 		.ascii	"wabase\000"
 3332      736500
 3333              	.LASF109:
 3334 048f 73745374 		.ascii	"stStopAlarm\000"
 3334      6F70416C 
 3334      61726D00 
 3335              	.LASF93:
ARM GAS  /tmp/cctJI0Jp.s 			page 63


 3336 049b 63686172 		.ascii	"char\000"
 3336      00
 3337              	.LASF27:
 3338 04a0 6F6C6465 		.ascii	"older\000"
 3338      7200
 3339              	.LASF0:
 3340 04a6 756E7369 		.ascii	"unsigned int\000"
 3340      676E6564 
 3340      20696E74 
 3340      00
 3341              	.LASF76:
 3342 04b3 444D4152 		.ascii	"DMAR\000"
 3342      00
 3343              	.LASF23:
 3344 04b8 74687265 		.ascii	"thread_t\000"
 3344      61645F74 
 3344      00
 3345              	.LASF22:
 3346 04c1 73797374 		.ascii	"systime_t\000"
 3346      696D655F 
 3346      7400
 3347              	.LASF50:
 3348 04cb 76746675 		.ascii	"vtfunc_t\000"
 3348      6E635F74 
 3348      00
 3349              	.LASF80:
 3350 04d4 6F666673 		.ascii	"offset\000"
 3350      657400
 3351              	.LASF110:
 3352 04db 73745374 		.ascii	"stStartAlarm\000"
 3352      61727441 
 3352      6C61726D 
 3352      00
 3353              	.LASF9:
 3354 04e8 73686F72 		.ascii	"short unsigned int\000"
 3354      7420756E 
 3354      7369676E 
 3354      65642069 
 3354      6E7400
 3355              	.LASF103:
 3356 04fb 706F7274 		.ascii	"port_timer_get_time\000"
 3356      5F74696D 
 3356      65725F67 
 3356      65745F74 
 3356      696D6500 
 3357              	.LASF19:
 3358 050f 6D73675F 		.ascii	"msg_t\000"
 3358      7400
 3359              	.LASF100:
 3360 0515 76746675 		.ascii	"vtfunc\000"
 3360      6E6300
 3361              	.LASF44:
 3362 051c 74687265 		.ascii	"threads_queue_t\000"
 3362      6164735F 
 3362      71756575 
 3362      655F7400 
 3363              	.LASF91:
ARM GAS  /tmp/cctJI0Jp.s 			page 64


 3364 052c 63685F6D 		.ascii	"ch_mutex\000"
 3364      75746578 
 3364      00
 3365              	.LASF112:
 3366 0535 2E2E2F2E 		.ascii	"../../../os/rt/src/chvt.c\000"
 3366      2E2F2E2E 
 3366      2F6F732F 
 3366      72742F73 
 3366      72632F63 
 3367              	.LASF63:
 3368 054f 726C6973 		.ascii	"rlist\000"
 3368      7400
 3369              	.LASF108:
 3370 0555 73745365 		.ascii	"stSetAlarm\000"
 3370      74416C61 
 3370      726D00
 3371              	.LASF31:
 3372 0560 666C6167 		.ascii	"flags\000"
 3372      7300
 3373              	.LASF115:
 3374 0566 706F7274 		.ascii	"port_timer_stop_alarm\000"
 3374      5F74696D 
 3374      65725F73 
 3374      746F705F 
 3374      616C6172 
 3375              	.LASF104:
 3376 057c 706F7274 		.ascii	"port_timer_set_alarm\000"
 3376      5F74696D 
 3376      65725F73 
 3376      65745F61 
 3376      6C61726D 
 3377              	.LASF84:
 3378 0591 77746F62 		.ascii	"wtobjp\000"
 3378      6A7000
 3379              	.LASF40:
 3380 0598 74687265 		.ascii	"threads_list_t\000"
 3380      6164735F 
 3380      6C697374 
 3380      5F7400
 3381              	.LASF15:
 3382 05a7 746D6F64 		.ascii	"tmode_t\000"
 3382      655F7400 
 3383              	.LASF36:
 3384 05af 6D74786C 		.ascii	"mtxlist\000"
 3384      69737400 
 3385              		.ident	"GCC: (15:10.3-2021.07-4) 10.3.1 20210621 (release)"
ARM GAS  /tmp/cctJI0Jp.s 			page 65


DEFINED SYMBOLS
                            *ABS*:0000000000000000 chvt.c
     /tmp/cctJI0Jp.s:16     .text._vt_init:0000000000000000 $t
     /tmp/cctJI0Jp.s:25     .text._vt_init:0000000000000000 _vt_init
     /tmp/cctJI0Jp.s:52     .text._vt_init:0000000000000018 $d
     /tmp/cctJI0Jp.s:57     .text.chVTDoSetI:0000000000000000 $t
     /tmp/cctJI0Jp.s:65     .text.chVTDoSetI:0000000000000000 chVTDoSetI
     /tmp/cctJI0Jp.s:302    .text.chVTDoSetI:0000000000000074 $d
     /tmp/cctJI0Jp.s:310    .text.chVTDoResetI:0000000000000000 $t
     /tmp/cctJI0Jp.s:318    .text.chVTDoResetI:0000000000000000 chVTDoResetI
     /tmp/cctJI0Jp.s:514    .text.chVTDoResetI:0000000000000068 $d

UNDEFINED SYMBOLS
ch
stSetAlarm
stStartAlarm
stStopAlarm
