ARM GAS  /tmp/cctF9Nvs.s 			page 1


   1              		.cpu cortex-m4
   2              		.eabi_attribute 20, 1
   3              		.eabi_attribute 21, 1
   4              		.eabi_attribute 23, 3
   5              		.eabi_attribute 24, 1
   6              		.eabi_attribute 25, 1
   7              		.eabi_attribute 26, 1
   8              		.eabi_attribute 30, 2
   9              		.eabi_attribute 34, 1
  10              		.eabi_attribute 18, 4
  11              		.file	"crt1.c"
  12              		.text
  13              	.Ltext0:
  14              		.cfi_sections	.debug_frame
  15              		.section	.text.__core_init,"ax",%progbits
  16              		.align	1
  17              		.p2align 4,,15
  18              		.weak	__core_init
  19              		.arch armv7e-m
  20              		.syntax unified
  21              		.thumb
  22              		.thumb_func
  23              		.fpu softvfp
  24              		.type	__core_init, %function
  25              	__core_init:
  26              	.LFB123:
  27              		.file 1 "../../../os/common/startup/ARMCMx/compilers/GCC/crt1.c"
  28              		.loc 1 136 24 view -0
  29              		.cfi_startproc
  30              		@ args = 0, pretend = 0, frame = 0
  31              		@ frame_needed = 0, uses_anonymous_args = 0
  32              		@ link register save eliminated.
  33              		.loc 1 142 1 view .LVU1
  34 0000 7047     		bx	lr
  35              		.cfi_endproc
  36              	.LFE123:
  37              		.size	__core_init, .-__core_init
  38 0002 00BF     		.section	.text.__early_init,"ax",%progbits
  39              		.align	1
  40              		.p2align 4,,15
  41              		.weak	__early_init
  42              		.syntax unified
  43              		.thumb
  44              		.thumb_func
  45              		.fpu softvfp
  46              		.type	__early_init, %function
  47              	__early_init:
  48              	.LFB129:
  49              		.cfi_startproc
  50              		@ args = 0, pretend = 0, frame = 0
  51              		@ frame_needed = 0, uses_anonymous_args = 0
  52              		@ link register save eliminated.
  53 0000 7047     		bx	lr
  54              		.cfi_endproc
  55              	.LFE129:
  56              		.size	__early_init, .-__early_init
  57 0002 00BF     		.section	.text.__late_init,"ax",%progbits
ARM GAS  /tmp/cctF9Nvs.s 			page 2


  58              		.align	1
  59              		.p2align 4,,15
  60              		.weak	__late_init
  61              		.syntax unified
  62              		.thumb
  63              		.thumb_func
  64              		.fpu softvfp
  65              		.type	__late_init, %function
  66              	__late_init:
  67              	.LFB131:
  68              		.cfi_startproc
  69              		@ args = 0, pretend = 0, frame = 0
  70              		@ frame_needed = 0, uses_anonymous_args = 0
  71              		@ link register save eliminated.
  72 0000 7047     		bx	lr
  73              		.cfi_endproc
  74              	.LFE131:
  75              		.size	__late_init, .-__late_init
  76 0002 00BF     		.section	.text.__default_exit,"ax",%progbits
  77              		.align	1
  78              		.p2align 4,,15
  79              		.weak	__default_exit
  80              		.syntax unified
  81              		.thumb
  82              		.thumb_func
  83              		.fpu softvfp
  84              		.type	__default_exit, %function
  85              	__default_exit:
  86              	.LFB126:
  87              		.loc 1 182 27 view -0
  88              		.cfi_startproc
  89              		@ Volatile: function does not return.
  90              		@ args = 0, pretend = 0, frame = 0
  91              		@ frame_needed = 0, uses_anonymous_args = 0
  92              		@ link register save eliminated.
  93              	.L6:
  94              		.loc 1 185 3 discriminator 1 view .LVU3
  95              		.loc 1 186 3 discriminator 1 view .LVU4
  96              		.loc 1 185 9 discriminator 1 view .LVU5
  97 0000 FEE7     		b	.L6
  98              		.cfi_endproc
  99              	.LFE126:
 100              		.size	__default_exit, .-__default_exit
 101 0002 00BF     		.section	.text.__init_ram_areas,"ax",%progbits
 102              		.align	1
 103              		.p2align 4,,15
 104              		.global	__init_ram_areas
 105              		.syntax unified
 106              		.thumb
 107              		.thumb_func
 108              		.fpu softvfp
 109              		.type	__init_ram_areas, %function
 110              	__init_ram_areas:
 111              	.LFB127:
 112              		.loc 1 192 29 view -0
 113              		.cfi_startproc
 114              		@ args = 0, pretend = 0, frame = 0
ARM GAS  /tmp/cctF9Nvs.s 			page 3


 115              		@ frame_needed = 0, uses_anonymous_args = 0
 116              		.loc 1 194 3 view .LVU7
 117              	.LVL0:
 118              		.loc 1 192 29 is_stmt 0 view .LVU8
 119 0000 F8B5     		push	{r3, r4, r5, r6, r7, lr}
 120              		.cfi_def_cfa_offset 24
 121              		.cfi_offset 3, -24
 122              		.cfi_offset 4, -20
 123              		.cfi_offset 5, -16
 124              		.cfi_offset 6, -12
 125              		.cfi_offset 7, -8
 126              		.cfi_offset 14, -4
 127 0002 154D     		ldr	r5, .L19
 128              		.loc 1 192 29 view .LVU9
 129 0004 154F     		ldr	r7, .L19+4
 130 0006 1649     		ldr	r1, .L19+8
 131 0008 1648     		ldr	r0, .L19+12
 132 000a 174A     		ldr	r2, .L19+16
 133 000c 05F17004 		add	r4, r5, #112
 134              	.LVL1:
 135              	.L14:
 136              		.loc 1 196 3 is_stmt 1 view .LVU10
 137              	.LBB2:
 138              		.loc 1 197 5 view .LVU11
 139              		.loc 1 198 5 view .LVU12
 140              		.loc 1 201 5 view .LVU13
 141              		.loc 1 201 11 view .LVU14
 142 0010 8142     		cmp	r1, r0
 143 0012 0DD9     		bls	.L8
 144 0014 043A     		subs	r2, r2, #4
 145 0016 0346     		mov	r3, r0
 146              	.LVL2:
 147              	.L9:
 148              		.loc 1 202 7 view .LVU15
 149              		.loc 1 202 12 is_stmt 0 view .LVU16
 150 0018 52F8046F 		ldr	r6, [r2, #4]!
 151              	.LVL3:
 152              		.loc 1 202 10 view .LVU17
 153 001c 43F8046B 		str	r6, [r3], #4
 154              	.LVL4:
 155              		.loc 1 203 7 is_stmt 1 view .LVU18
 156              		.loc 1 204 7 view .LVU19
 157              		.loc 1 201 11 view .LVU20
 158 0020 9942     		cmp	r1, r3
 159 0022 F9D8     		bhi	.L9
 160              		.loc 1 203 8 is_stmt 0 view .LVU21
 161 0024 4B1E     		subs	r3, r1, #1
 162              	.LVL5:
 163              		.loc 1 203 8 view .LVU22
 164 0026 1B1A     		subs	r3, r3, r0
 165 0028 23F00303 		bic	r3, r3, #3
 166 002c 0433     		adds	r3, r3, #4
 167 002e 1844     		add	r0, r0, r3
 168              	.LVL6:
 169              	.L8:
 170              		.loc 1 208 11 is_stmt 1 view .LVU23
 171 0030 8742     		cmp	r7, r0
ARM GAS  /tmp/cctF9Nvs.s 			page 4


 172 0032 07D9     		bls	.L13
 173              		.loc 1 209 10 is_stmt 0 view .LVU24
 174 0034 7A1E     		subs	r2, r7, #1
 175 0036 121A     		subs	r2, r2, r0
 176 0038 22F00302 		bic	r2, r2, #3
 177 003c 0432     		adds	r2, r2, #4
 178 003e 0021     		movs	r1, #0
 179 0040 FFF7FEFF 		bl	memset
 180              	.LVL7:
 181              	.L13:
 182              		.loc 1 212 5 is_stmt 1 view .LVU25
 183              		.loc 1 212 5 is_stmt 0 view .LVU26
 184              	.LBE2:
 185              		.loc 1 214 9 is_stmt 1 view .LVU27
 186              		.loc 1 214 3 is_stmt 0 view .LVU28
 187 0044 A542     		cmp	r5, r4
 188 0046 05D0     		beq	.L18
 189              	.LBB3:
 190              		.loc 1 198 15 view .LVU29
 191 0048 D5E90420 		ldrd	r2, r0, [r5, #16]
 192              		.loc 1 208 19 view .LVU30
 193 004c D5E90617 		ldrd	r1, r7, [r5, #24]
 194 0050 1035     		adds	r5, r5, #16
 195              	.LVL8:
 196              		.loc 1 208 19 view .LVU31
 197 0052 DDE7     		b	.L14
 198              	.LVL9:
 199              	.L18:
 200              		.loc 1 208 19 view .LVU32
 201              	.LBE3:
 202              		.loc 1 216 1 view .LVU33
 203 0054 F8BD     		pop	{r3, r4, r5, r6, r7, pc}
 204              	.LVL10:
 205              	.L20:
 206              		.loc 1 216 1 view .LVU34
 207 0056 00BF     		.align	2
 208              	.L19:
 209 0058 00000000 		.word	.LANCHOR0
 210 005c 00000000 		.word	__ram0_noinit__
 211 0060 00000000 		.word	__ram0_clear__
 212 0064 00000000 		.word	__ram0_init__
 213 0068 00000000 		.word	__ram0_init_text__
 214              		.cfi_endproc
 215              	.LFE127:
 216              		.size	__init_ram_areas, .-__init_ram_areas
 217              		.section	.rodata.ram_areas,"a"
 218              		.align	2
 219              		.set	.LANCHOR0,. + 0
 220              		.type	ram_areas, %object
 221              		.size	ram_areas, 128
 222              	ram_areas:
 223 0000 00000000 		.word	__ram0_init_text__
 224 0004 00000000 		.word	__ram0_init__
 225 0008 00000000 		.word	__ram0_clear__
 226 000c 00000000 		.word	__ram0_noinit__
 227 0010 00000000 		.word	__ram1_init_text__
 228 0014 00000000 		.word	__ram1_init__
ARM GAS  /tmp/cctF9Nvs.s 			page 5


 229 0018 00000000 		.word	__ram1_clear__
 230 001c 00000000 		.word	__ram1_noinit__
 231 0020 00000000 		.word	__ram2_init_text__
 232 0024 00000000 		.word	__ram2_init__
 233 0028 00000000 		.word	__ram2_clear__
 234 002c 00000000 		.word	__ram2_noinit__
 235 0030 00000000 		.word	__ram3_init_text__
 236 0034 00000000 		.word	__ram3_init__
 237 0038 00000000 		.word	__ram3_clear__
 238 003c 00000000 		.word	__ram3_noinit__
 239 0040 00000000 		.word	__ram4_init_text__
 240 0044 00000000 		.word	__ram4_init__
 241 0048 00000000 		.word	__ram4_clear__
 242 004c 00000000 		.word	__ram4_noinit__
 243 0050 00000000 		.word	__ram5_init_text__
 244 0054 00000000 		.word	__ram5_init__
 245 0058 00000000 		.word	__ram5_clear__
 246 005c 00000000 		.word	__ram5_noinit__
 247 0060 00000000 		.word	__ram6_init_text__
 248 0064 00000000 		.word	__ram6_init__
 249 0068 00000000 		.word	__ram6_clear__
 250 006c 00000000 		.word	__ram6_noinit__
 251 0070 00000000 		.word	__ram7_init_text__
 252 0074 00000000 		.word	__ram7_init__
 253 0078 00000000 		.word	__ram7_clear__
 254 007c 00000000 		.word	__ram7_noinit__
 255              		.text
 256              	.Letext0:
 257              		.file 2 "/usr/lib/gcc/arm-none-eabi/10.3.1/include/stdint.h"
 258              		.file 3 "<built-in>"