ARM GAS  /tmp/cclpet7B.s 			page 1


   1              		.cpu cortex-m4
   2              		.eabi_attribute 20, 1
   3              		.eabi_attribute 21, 1
   4              		.eabi_attribute 23, 3
   5              		.eabi_attribute 24, 1
   6              		.eabi_attribute 25, 1
   7              		.eabi_attribute 26, 1
   8              		.eabi_attribute 30, 2
   9              		.eabi_attribute 34, 1
  10              		.eabi_attribute 18, 4
  11              		.file	"hal.c"
  12              		.text
  13              	.Ltext0:
  14              		.cfi_sections	.debug_frame
  15              		.section	.text.halInit,"ax",%progbits
  16              		.align	1
  17              		.p2align 4,,15
  18              		.global	halInit
  19              		.arch armv7e-m
  20              		.syntax unified
  21              		.thumb
  22              		.thumb_func
  23              		.fpu softvfp
  24              		.type	halInit, %function
  25              	halInit:
  26              	.LFB277:
  27              		.file 1 "../../../os/hal/src/hal.c"
  28              		.loc 1 56 20 view -0
  29              		.cfi_startproc
  30              		@ args = 0, pretend = 0, frame = 0
  31              		@ frame_needed = 0, uses_anonymous_args = 0
  32              		.loc 1 59 3 view .LVU1
  33              		.file 2 "../../../os/hal/osal/rt/osal.h"
  34              		.loc 2 451 1 view .LVU2
  35              		.loc 1 62 3 view .LVU3
  36              		.loc 1 56 20 is_stmt 0 view .LVU4
  37 0000 08B5     		push	{r3, lr}
  38              		.cfi_def_cfa_offset 8
  39              		.cfi_offset 3, -8
  40              		.cfi_offset 14, -4
  41              		.loc 1 62 3 view .LVU5
  42 0002 FFF7FEFF 		bl	hal_lld_init
  43              	.LVL0:
  44              		.loc 1 65 3 is_stmt 1 view .LVU6
  45 0006 0748     		ldr	r0, .L4
  46 0008 FFF7FEFF 		bl	_pal_lld_init
  47              	.LVL1:
  48              		.loc 1 95 3 view .LVU7
  49 000c FFF7FEFF 		bl	pwmInit
  50              	.LVL2:
  51              		.loc 1 101 3 view .LVU8
  52 0010 FFF7FEFF 		bl	sdInit
  53              	.LVL3:
  54              		.loc 1 107 3 view .LVU9
  55 0014 FFF7FEFF 		bl	spiInit
  56              	.LVL4:
  57              		.loc 1 136 3 view .LVU10
ARM GAS  /tmp/cclpet7B.s 			page 2


  58 0018 FFF7FEFF 		bl	boardInit
  59              	.LVL5:
  60              		.loc 1 143 3 view .LVU11
  61              		.loc 1 145 1 is_stmt 0 view .LVU12
  62 001c BDE80840 		pop	{r3, lr}
  63              		.cfi_restore 14
  64              		.cfi_restore 3
  65              		.cfi_def_cfa_offset 0
  66              		.loc 1 143 3 view .LVU13
  67 0020 FFF7FEBF 		b	stInit
  68              	.LVL6:
  69              	.L5:
  70              		.align	2
  71              	.L4:
  72 0024 00000000 		.word	pal_default_config
  73              		.cfi_endproc
  74              	.LFE277:
  75              		.size	halInit, .-halInit
  76              		.text
  77              	.Letext0:
  78              		.file 3 "../../../os/hal/ports/STM32/LLD/GPIOv2/hal_pal_lld.h"
  79              		.file 4 "/usr/lib/gcc/arm-none-eabi/10.3.1/include/stdint.h"
  80              		.file 5 "../../../os/hal/ports/STM32/STM32F4xx/hal_lld.h"
  81              		.file 6 "../../../os/hal/include/hal_pwm.h"
  82              		.file 7 "../../../os/hal/include/hal_serial.h"
  83              		.file 8 "../../../os/hal/include/hal_spi.h"
  84              		.file 9 "../../../os/hal/boards/ST_STM32F4_DISCOVERY/board.h"
  85              		.file 10 "../../../os/hal/include/hal_st.h"