ARM GAS  /tmp/ccEwhgJx.s 			page 1


   1              		.cpu cortex-m4
   2              		.eabi_attribute 20, 1
   3              		.eabi_attribute 21, 1
   4              		.eabi_attribute 23, 3
   5              		.eabi_attribute 24, 1
   6              		.eabi_attribute 25, 1
   7              		.eabi_attribute 26, 1
   8              		.eabi_attribute 30, 2
   9              		.eabi_attribute 34, 1
  10              		.eabi_attribute 18, 4
  11              		.file	"hal_lld.c"
  12              		.text
  13              	.Ltext0:
  14              		.cfi_sections	.debug_frame
  15              		.section	.text.hal_lld_init,"ax",%progbits
  16              		.align	1
  17              		.p2align 4,,15
  18              		.global	hal_lld_init
  19              		.arch armv7e-m
  20              		.syntax unified
  21              		.thumb
  22              		.thumb_func
  23              		.fpu softvfp
  24              		.type	hal_lld_init, %function
  25              	hal_lld_init:
  26              	.LFB278:
  27              		.file 1 "../../../os/hal/ports/STM32/STM32F4xx/hal_lld.c"
  28              		.loc 1 114 25 view -0
  29              		.cfi_startproc
  30              		@ args = 0, pretend = 0, frame = 0
  31              		@ frame_needed = 0, uses_anonymous_args = 0
  32              		@ link register save eliminated.
  33              		.loc 1 119 3 view .LVU1
  34 0000 164B     		ldr	r3, .L8
  35 0002 0022     		movs	r2, #0
  36 0004 4FF0FF31 		mov	r1, #-1
  37 0008 1869     		ldr	r0, [r3, #16]
  38              		.loc 1 114 25 is_stmt 0 view .LVU2
  39 000a 10B4     		push	{r4}
  40              		.cfi_def_cfa_offset 4
  41              		.cfi_offset 4, -4
  42              		.loc 1 119 3 view .LVU3
  43 000c 1961     		str	r1, [r3, #16]
  44              		.loc 1 119 3 is_stmt 1 view .LVU4
  45 000e 1A61     		str	r2, [r3, #16]
  46              		.loc 1 119 19 view .LVU5
  47              		.loc 1 121 3 view .LVU6
  48 0010 5869     		ldr	r0, [r3, #20]
  49 0012 5961     		str	r1, [r3, #20]
  50              		.loc 1 121 3 view .LVU7
  51 0014 5A61     		str	r2, [r3, #20]
  52              		.loc 1 121 19 view .LVU8
  53              		.loc 1 123 3 view .LVU9
  54 0016 186A     		ldr	r0, [r3, #32]
  55              	.LBB4:
  56              	.LBB5:
  57              		.loc 1 57 11 is_stmt 0 view .LVU10
ARM GAS  /tmp/ccEwhgJx.s 			page 2


  58 0018 114C     		ldr	r4, .L8+4
  59              	.LBE5:
  60              	.LBE4:
  61              		.loc 1 123 3 view .LVU11
  62 001a 60F08050 		orn	r0, r0, #268435456
  63 001e 1862     		str	r0, [r3, #32]
  64              		.loc 1 123 3 is_stmt 1 view .LVU12
  65 0020 1A62     		str	r2, [r3, #32]
  66              		.loc 1 123 37 view .LVU13
  67              		.loc 1 124 3 view .LVU14
  68 0022 586A     		ldr	r0, [r3, #36]
  69 0024 5962     		str	r1, [r3, #36]
  70              		.loc 1 124 3 view .LVU15
  71 0026 5A62     		str	r2, [r3, #36]
  72              		.loc 1 124 19 view .LVU16
  73              		.loc 1 127 3 view .LVU17
  74 0028 196C     		ldr	r1, [r3, #64]
  75 002a 41F08051 		orr	r1, r1, #268435456
  76 002e 1964     		str	r1, [r3, #64]
  77              		.loc 1 127 3 view .LVU18
  78              		.loc 1 127 31 view .LVU19
  79              		.loc 1 130 3 view .LVU20
  80              	.LBB8:
  81              	.LBI4:
  82              		.loc 1 54 13 view .LVU21
  83              	.LBB6:
  84              		.loc 1 57 3 view .LVU22
  85              		.loc 1 57 11 is_stmt 0 view .LVU23
  86 0030 2168     		ldr	r1, [r4]
  87 0032 41F48071 		orr	r1, r1, #256
  88 0036 2160     		str	r1, [r4]
  89              		.loc 1 60 3 is_stmt 1 view .LVU24
  90              		.loc 1 60 11 is_stmt 0 view .LVU25
  91 0038 196F     		ldr	r1, [r3, #112]
  92              		.loc 1 60 18 view .LVU26
  93 003a 01F44071 		and	r1, r1, #768
  94              		.loc 1 60 6 view .LVU27
  95 003e B1F5007F 		cmp	r1, #512
  96 0042 03D0     		beq	.L2
  97              		.loc 1 62 5 is_stmt 1 view .LVU28
  98              		.loc 1 62 15 is_stmt 0 view .LVU29
  99 0044 4FF48031 		mov	r1, #65536
 100 0048 1967     		str	r1, [r3, #112]
 101              		.loc 1 63 5 is_stmt 1 view .LVU30
 102              		.loc 1 63 15 is_stmt 0 view .LVU31
 103 004a 1A67     		str	r2, [r3, #112]
 104              	.L2:
 105              		.loc 1 97 3 is_stmt 1 view .LVU32
 106              		.loc 1 97 12 is_stmt 0 view .LVU33
 107 004c 044A     		ldr	r2, .L8+4
 108              	.LBE6:
 109              	.LBE8:
 110              		.loc 1 140 1 view .LVU34
 111 004e 10BC     		pop	{r4}
 112              		.cfi_restore 4
 113              		.cfi_def_cfa_offset 0
 114              	.LBB9:
ARM GAS  /tmp/ccEwhgJx.s 			page 3


 115              	.LBB7:
 116              		.loc 1 97 12 view .LVU35
 117 0050 5368     		ldr	r3, [r2, #4]
 118 0052 23F40073 		bic	r3, r3, #512
 119 0056 5360     		str	r3, [r2, #4]
 120              	.LBE7:
 121              	.LBE9:
 122              		.loc 1 133 3 is_stmt 1 view .LVU36
 123 0058 FFF7FEBF 		b	dmaInit
 124              	.LVL0:
 125              	.L9:
 126              		.align	2
 127              	.L8:
 128 005c 00380240 		.word	1073887232
 129 0060 00700040 		.word	1073770496
 130              		.cfi_endproc
 131              	.LFE278:
 132              		.size	hal_lld_init, .-hal_lld_init
 133              		.section	.text.stm32_clock_init,"ax",%progbits
 134              		.align	1
 135              		.p2align 4,,15
 136              		.global	stm32_clock_init
 137              		.syntax unified
 138              		.thumb
 139              		.thumb_func
 140              		.fpu softvfp
 141              		.type	stm32_clock_init, %function
 142              	stm32_clock_init:
 143              	.LFB279:
 144              		.loc 1 149 29 view -0
 145              		.cfi_startproc
 146              		@ args = 0, pretend = 0, frame = 0
 147              		@ frame_needed = 0, uses_anonymous_args = 0
 148              		@ link register save eliminated.
 149              		.loc 1 156 3 view .LVU38
 150              		.loc 1 156 16 is_stmt 0 view .LVU39
 151 0000 324A     		ldr	r2, .L33
 152              		.loc 1 161 11 view .LVU40
 153 0002 334B     		ldr	r3, .L33+4
 154              		.loc 1 156 16 view .LVU41
 155 0004 4FF08050 		mov	r0, #268435456
 156              		.loc 1 161 11 view .LVU42
 157 0008 4FF44041 		mov	r1, #49152
 158              		.loc 1 156 16 view .LVU43
 159 000c 1064     		str	r0, [r2, #64]
 160              		.loc 1 161 3 is_stmt 1 view .LVU44
 161              		.loc 1 161 11 is_stmt 0 view .LVU45
 162 000e 1960     		str	r1, [r3]
 163              		.loc 1 168 3 is_stmt 1 view .LVU46
 164              		.loc 1 168 11 is_stmt 0 view .LVU47
 165 0010 1368     		ldr	r3, [r2]
 166 0012 43F00103 		orr	r3, r3, #1
 167 0016 1360     		str	r3, [r2]
 168              		.loc 1 169 3 is_stmt 1 view .LVU48
 169              	.L11:
 170              		.loc 1 170 5 discriminator 1 view .LVU49
 171              		.loc 1 169 9 discriminator 1 view .LVU50
ARM GAS  /tmp/ccEwhgJx.s 			page 4


 172              		.loc 1 169 15 is_stmt 0 discriminator 1 view .LVU51
 173 0018 1368     		ldr	r3, [r2]
 174              		.loc 1 169 9 discriminator 1 view .LVU52
 175 001a 9907     		lsls	r1, r3, #30
 176 001c FCD5     		bpl	.L11
 177              		.loc 1 175 3 is_stmt 1 view .LVU53
 178              		.loc 1 175 13 is_stmt 0 view .LVU54
 179 001e 9368     		ldr	r3, [r2, #8]
 180              		.loc 1 177 14 view .LVU55
 181 0020 2A49     		ldr	r1, .L33
 182              		.loc 1 175 13 view .LVU56
 183 0022 23F00303 		bic	r3, r3, #3
 184 0026 9360     		str	r3, [r2, #8]
 185              		.loc 1 176 3 is_stmt 1 view .LVU57
 186              		.loc 1 176 13 is_stmt 0 view .LVU58
 187 0028 9368     		ldr	r3, [r2, #8]
 188 002a 9360     		str	r3, [r2, #8]
 189              		.loc 1 177 3 is_stmt 1 view .LVU59
 190              	.L12:
 191              		.loc 1 178 5 discriminator 1 view .LVU60
 192              		.loc 1 177 9 discriminator 1 view .LVU61
 193              		.loc 1 177 14 is_stmt 0 discriminator 1 view .LVU62
 194 002c 8B68     		ldr	r3, [r1, #8]
 195              		.loc 1 177 9 discriminator 1 view .LVU63
 196 002e 13F00C03 		ands	r3, r3, #12
 197 0032 FBD1     		bne	.L12
 198              		.loc 1 181 3 is_stmt 1 view .LVU64
 199              		.loc 1 181 11 is_stmt 0 view .LVU65
 200 0034 0A68     		ldr	r2, [r1]
 201              		.loc 1 193 14 view .LVU66
 202 0036 2548     		ldr	r0, .L33
 203              		.loc 1 181 11 view .LVU67
 204 0038 02F0F902 		and	r2, r2, #249
 205 003c 0A60     		str	r2, [r1]
 206              		.loc 1 182 3 is_stmt 1 view .LVU68
 207              		.loc 1 182 13 is_stmt 0 view .LVU69
 208 003e 8B60     		str	r3, [r1, #8]
 209              		.loc 1 191 3 is_stmt 1 view .LVU70
 210              		.loc 1 191 11 is_stmt 0 view .LVU71
 211 0040 0B68     		ldr	r3, [r1]
 212 0042 43F48033 		orr	r3, r3, #65536
 213 0046 0B60     		str	r3, [r1]
 214              		.loc 1 193 3 is_stmt 1 view .LVU72
 215              	.L13:
 216              		.loc 1 194 5 discriminator 1 view .LVU73
 217              		.loc 1 193 9 discriminator 1 view .LVU74
 218              		.loc 1 193 14 is_stmt 0 discriminator 1 view .LVU75
 219 0048 0368     		ldr	r3, [r0]
 220              		.loc 1 193 9 discriminator 1 view .LVU76
 221 004a 9B03     		lsls	r3, r3, #14
 222 004c FCD5     		bpl	.L13
 223              		.loc 1 199 3 is_stmt 1 view .LVU77
 224              		.loc 1 199 12 is_stmt 0 view .LVU78
 225 004e 436F     		ldr	r3, [r0, #116]
 226              		.loc 1 200 14 view .LVU79
 227 0050 1E4A     		ldr	r2, .L33
 228              		.loc 1 199 12 view .LVU80
ARM GAS  /tmp/ccEwhgJx.s 			page 5


 229 0052 43F00103 		orr	r3, r3, #1
 230 0056 4367     		str	r3, [r0, #116]
 231              		.loc 1 200 3 is_stmt 1 view .LVU81
 232              	.L14:
 233              		.loc 1 201 5 discriminator 1 view .LVU82
 234              		.loc 1 200 9 discriminator 1 view .LVU83
 235              		.loc 1 200 14 is_stmt 0 discriminator 1 view .LVU84
 236 0058 536F     		ldr	r3, [r2, #116]
 237              		.loc 1 200 9 discriminator 1 view .LVU85
 238 005a 9907     		lsls	r1, r3, #30
 239 005c FCD5     		bpl	.L14
 240              		.loc 1 206 3 is_stmt 1 view .LVU86
 241              		.loc 1 206 16 is_stmt 0 view .LVU87
 242 005e 1D4B     		ldr	r3, .L33+8
 243 0060 5360     		str	r3, [r2, #4]
 244              		.loc 1 208 3 is_stmt 1 view .LVU88
 245              		.loc 1 208 11 is_stmt 0 view .LVU89
 246 0062 1368     		ldr	r3, [r2]
 247              		.loc 1 212 14 view .LVU90
 248 0064 1A49     		ldr	r1, .L33+4
 249              		.loc 1 208 11 view .LVU91
 250 0066 43F08073 		orr	r3, r3, #16777216
 251 006a 1360     		str	r3, [r2]
 252              		.loc 1 212 3 is_stmt 1 view .LVU92
 253              	.L15:
 254              		.loc 1 213 5 discriminator 1 view .LVU93
 255              		.loc 1 212 9 discriminator 1 view .LVU94
 256              		.loc 1 212 14 is_stmt 0 discriminator 1 view .LVU95
 257 006c 4B68     		ldr	r3, [r1, #4]
 258              		.loc 1 212 9 discriminator 1 view .LVU96
 259 006e 5A04     		lsls	r2, r3, #17
 260 0070 FCD5     		bpl	.L15
 261              		.loc 1 228 15 view .LVU97
 262 0072 164A     		ldr	r2, .L33
 263              	.L16:
 264              		.loc 1 229 5 is_stmt 1 discriminator 1 view .LVU98
 265              		.loc 1 228 9 discriminator 1 view .LVU99
 266              		.loc 1 228 15 is_stmt 0 discriminator 1 view .LVU100
 267 0074 1368     		ldr	r3, [r2]
 268              		.loc 1 228 9 discriminator 1 view .LVU101
 269 0076 9B01     		lsls	r3, r3, #6
 270 0078 FCD5     		bpl	.L16
 271              		.loc 1 255 3 is_stmt 1 view .LVU102
 272              		.loc 1 299 14 is_stmt 0 view .LVU103
 273 007a 174B     		ldr	r3, .L33+12
 274              		.loc 1 255 13 view .LVU104
 275 007c 1749     		ldr	r1, .L33+16
 276 007e 9160     		str	r1, [r2, #8]
 277              		.loc 1 299 3 is_stmt 1 view .LVU105
 278              		.loc 1 299 14 is_stmt 0 view .LVU106
 279 0080 1A68     		ldr	r2, [r3]
 280              		.loc 1 299 6 view .LVU107
 281 0082 174B     		ldr	r3, .L33+20
 282 0084 9A42     		cmp	r2, r3
 283 0086 16D0     		beq	.L32
 284              	.L17:
 285              		.loc 1 302 5 is_stmt 1 view .LVU108
ARM GAS  /tmp/ccEwhgJx.s 			page 6


 286              		.loc 1 302 16 is_stmt 0 view .LVU109
 287 0088 164B     		ldr	r3, .L33+24
 288 008a 40F20572 		movw	r2, #1797
 289 008e 1A60     		str	r2, [r3]
 290              	.L18:
 291              		.loc 1 311 3 is_stmt 1 view .LVU110
 292              		.loc 1 311 13 is_stmt 0 view .LVU111
 293 0090 0E4A     		ldr	r2, .L33
 294 0092 9368     		ldr	r3, [r2, #8]
 295 0094 43F00203 		orr	r3, r3, #2
 296 0098 9360     		str	r3, [r2, #8]
 297              		.loc 1 312 3 is_stmt 1 view .LVU112
 298              	.L19:
 299              		.loc 1 313 5 discriminator 1 view .LVU113
 300              		.loc 1 312 9 discriminator 1 view .LVU114
 301              		.loc 1 312 14 is_stmt 0 discriminator 1 view .LVU115
 302 009a 9368     		ldr	r3, [r2, #8]
 303              		.loc 1 312 21 discriminator 1 view .LVU116
 304 009c 03F00C03 		and	r3, r3, #12
 305              		.loc 1 312 9 discriminator 1 view .LVU117
 306 00a0 082B     		cmp	r3, #8
 307 00a2 FAD1     		bne	.L19
 308              		.loc 1 319 3 is_stmt 1 view .LVU118
 309 00a4 536C     		ldr	r3, [r2, #68]
 310 00a6 43F48043 		orr	r3, r3, #16384
 311 00aa 5364     		str	r3, [r2, #68]
 312              		.loc 1 319 3 view .LVU119
 313              		.loc 1 319 3 view .LVU120
 314 00ac 536E     		ldr	r3, [r2, #100]
 315 00ae 43F48043 		orr	r3, r3, #16384
 316 00b2 5366     		str	r3, [r2, #100]
 317              		.loc 1 319 44 view .LVU121
 318              		.loc 1 320 1 is_stmt 0 view .LVU122
 319 00b4 7047     		bx	lr
 320              	.L32:
 321              		.loc 1 299 45 discriminator 1 view .LVU123
 322 00b6 0C4A     		ldr	r2, .L33+28
 323              		.loc 1 299 38 discriminator 1 view .LVU124
 324 00b8 0C4B     		ldr	r3, .L33+32
 325              		.loc 1 299 45 discriminator 1 view .LVU125
 326 00ba 1268     		ldr	r2, [r2]
 327              		.loc 1 299 38 discriminator 1 view .LVU126
 328 00bc 9A42     		cmp	r2, r3
 329 00be E3D1     		bne	.L17
 330              		.loc 1 300 5 is_stmt 1 view .LVU127
 331              		.loc 1 300 16 is_stmt 0 view .LVU128
 332 00c0 084B     		ldr	r3, .L33+24
 333 00c2 40F20512 		movw	r2, #261
 334 00c6 1A60     		str	r2, [r3]
 335 00c8 E2E7     		b	.L18
 336              	.L34:
 337 00ca 00BF     		.align	2
 338              	.L33:
 339 00cc 00380240 		.word	1073887232
 340 00d0 00700040 		.word	1073770496
 341 00d4 08544007 		.word	121656328
 342 00d8 002004E0 		.word	-536600576
ARM GAS  /tmp/ccEwhgJx.s 			page 7


 343 00dc 00948838 		.word	948474880
 344 00e0 11640020 		.word	536896529
 345 00e4 003C0240 		.word	1073888256
 346 00e8 00ED00E0 		.word	-536810240
 347 00ec 41C20F41 		.word	1091551809
 348              		.cfi_endproc
 349              	.LFE279:
 350              		.size	stm32_clock_init, .-stm32_clock_init
 351              		.global	SystemCoreClock
 352              		.section	.data.SystemCoreClock,"aw"
 353              		.align	2
 354              		.type	SystemCoreClock, %object
 355              		.size	SystemCoreClock, 4
 356              	SystemCoreClock:
 357 0000 007A030A 		.word	168000000
 358              		.text
 359              	.Letext0:
 360              		.file 2 "/usr/lib/gcc/arm-none-eabi/10.3.1/include/stdint.h"
 361              		.file 3 "../../../os/common/ext/CMSIS/include/core_cm4.h"
 362              		.file 4 "../../../os/common/ext/CMSIS/ST/STM32F4xx/stm32f407xx.h"
 363              		.file 5 "../../../os/common/ext/CMSIS/ST/STM32F4xx/system_stm32f4xx.h"
 364              		.file 6 "../../../os/hal/ports/STM32/LLD/DMAv2/stm32_dma.h"
 365              		.section	.debug_info,"",%progbits
 366              	.Ldebug_info0:
 367 0000 8D050000 		.4byte	0x58d
 368 0004 0400     		.2byte	0x4
 369 0006 00000000 		.4byte	.Ldebug_abbrev0
 370 000a 04       		.byte	0x4
 371 000b 01       		.uleb128 0x1
 372 000c F9000000 		.4byte	.LASF67
 373 0010 0C       		.byte	0xc
 374 0011 2E000000 		.4byte	.LASF68
 375 0015 D6010000 		.4byte	.LASF69
 376 0019 20000000 		.4byte	.Ldebug_ranges0+0x20
 377 001d 00000000 		.4byte	0
 378 0021 00000000 		.4byte	.Ldebug_line0
 379 0025 02       		.uleb128 0x2
 380 0026 04       		.byte	0x4
 381 0027 05       		.byte	0x5
 382 0028 696E7400 		.ascii	"int\000"
 383 002c 03       		.uleb128 0x3
 384 002d 04       		.byte	0x4
 385 002e 07       		.byte	0x7
 386 002f B0020000 		.4byte	.LASF0
 387 0033 03       		.uleb128 0x3
 388 0034 08       		.byte	0x8
 389 0035 05       		.byte	0x5
 390 0036 E6000000 		.4byte	.LASF1
 391 003a 03       		.uleb128 0x3
 392 003b 08       		.byte	0x8
 393 003c 04       		.byte	0x4
 394 003d 5F020000 		.4byte	.LASF2
 395 0041 03       		.uleb128 0x3
 396 0042 01       		.byte	0x1
 397 0043 06       		.byte	0x6
 398 0044 87020000 		.4byte	.LASF3
 399 0048 03       		.uleb128 0x3
ARM GAS  /tmp/ccEwhgJx.s 			page 8


 400 0049 02       		.byte	0x2
 401 004a 05       		.byte	0x5
 402 004b 24000000 		.4byte	.LASF4
 403 004f 03       		.uleb128 0x3
 404 0050 04       		.byte	0x4
 405 0051 05       		.byte	0x5
 406 0052 CD010000 		.4byte	.LASF5
 407 0056 04       		.uleb128 0x4
 408 0057 95000000 		.4byte	.LASF8
 409 005b 02       		.byte	0x2
 410 005c 2E       		.byte	0x2e
 411 005d 18       		.byte	0x18
 412 005e 67000000 		.4byte	0x67
 413 0062 05       		.uleb128 0x5
 414 0063 56000000 		.4byte	0x56
 415 0067 03       		.uleb128 0x3
 416 0068 01       		.byte	0x1
 417 0069 08       		.byte	0x8
 418 006a 71020000 		.4byte	.LASF6
 419 006e 03       		.uleb128 0x3
 420 006f 02       		.byte	0x2
 421 0070 07       		.byte	0x7
 422 0071 EA020000 		.4byte	.LASF7
 423 0075 04       		.uleb128 0x4
 424 0076 AE000000 		.4byte	.LASF9
 425 007a 02       		.byte	0x2
 426 007b 34       		.byte	0x34
 427 007c 19       		.byte	0x19
 428 007d 8B000000 		.4byte	0x8b
 429 0081 05       		.uleb128 0x5
 430 0082 75000000 		.4byte	0x75
 431 0086 06       		.uleb128 0x6
 432 0087 81000000 		.4byte	0x81
 433 008b 03       		.uleb128 0x3
 434 008c 04       		.byte	0x4
 435 008d 07       		.byte	0x7
 436 008e BD020000 		.4byte	.LASF10
 437 0092 03       		.uleb128 0x3
 438 0093 08       		.byte	0x8
 439 0094 07       		.byte	0x7
 440 0095 93020000 		.4byte	.LASF11
 441 0099 07       		.uleb128 0x7
 442 009a 8C       		.byte	0x8c
 443 009b 03       		.byte	0x3
 444 009c E501     		.2byte	0x1e5
 445 009e 09       		.byte	0x9
 446 009f CA010000 		.4byte	0x1ca
 447 00a3 08       		.uleb128 0x8
 448 00a4 80000000 		.4byte	.LASF12
 449 00a8 03       		.byte	0x3
 450 00a9 E701     		.2byte	0x1e7
 451 00ab 12       		.byte	0x12
 452 00ac 86000000 		.4byte	0x86
 453 00b0 00       		.byte	0
 454 00b1 08       		.uleb128 0x8
 455 00b2 D9000000 		.4byte	.LASF13
 456 00b6 03       		.byte	0x3
ARM GAS  /tmp/ccEwhgJx.s 			page 9


 457 00b7 E801     		.2byte	0x1e8
 458 00b9 12       		.byte	0x12
 459 00ba 81000000 		.4byte	0x81
 460 00be 04       		.byte	0x4
 461 00bf 08       		.uleb128 0x8
 462 00c0 0C030000 		.4byte	.LASF14
 463 00c4 03       		.byte	0x3
 464 00c5 E901     		.2byte	0x1e9
 465 00c7 12       		.byte	0x12
 466 00c8 81000000 		.4byte	0x81
 467 00cc 08       		.byte	0x8
 468 00cd 08       		.uleb128 0x8
 469 00ce 6B020000 		.4byte	.LASF15
 470 00d2 03       		.byte	0x3
 471 00d3 EA01     		.2byte	0x1ea
 472 00d5 12       		.byte	0x12
 473 00d6 81000000 		.4byte	0x81
 474 00da 0C       		.byte	0xc
 475 00db 09       		.uleb128 0x9
 476 00dc 53435200 		.ascii	"SCR\000"
 477 00e0 03       		.byte	0x3
 478 00e1 EB01     		.2byte	0x1eb
 479 00e3 12       		.byte	0x12
 480 00e4 81000000 		.4byte	0x81
 481 00e8 10       		.byte	0x10
 482 00e9 09       		.uleb128 0x9
 483 00ea 43435200 		.ascii	"CCR\000"
 484 00ee 03       		.byte	0x3
 485 00ef EC01     		.2byte	0x1ec
 486 00f1 12       		.byte	0x12
 487 00f2 81000000 		.4byte	0x81
 488 00f6 14       		.byte	0x14
 489 00f7 09       		.uleb128 0x9
 490 00f8 53485000 		.ascii	"SHP\000"
 491 00fc 03       		.byte	0x3
 492 00fd ED01     		.2byte	0x1ed
 493 00ff 12       		.byte	0x12
 494 0100 DA010000 		.4byte	0x1da
 495 0104 18       		.byte	0x18
 496 0105 08       		.uleb128 0x8
 497 0106 AA020000 		.4byte	.LASF16
 498 010a 03       		.byte	0x3
 499 010b EE01     		.2byte	0x1ee
 500 010d 12       		.byte	0x12
 501 010e 81000000 		.4byte	0x81
 502 0112 24       		.byte	0x24
 503 0113 08       		.uleb128 0x8
 504 0114 46020000 		.4byte	.LASF17
 505 0118 03       		.byte	0x3
 506 0119 EF01     		.2byte	0x1ef
 507 011b 12       		.byte	0x12
 508 011c 81000000 		.4byte	0x81
 509 0120 28       		.byte	0x28
 510 0121 08       		.uleb128 0x8
 511 0122 40030000 		.4byte	.LASF18
 512 0126 03       		.byte	0x3
 513 0127 F001     		.2byte	0x1f0
ARM GAS  /tmp/ccEwhgJx.s 			page 10


 514 0129 12       		.byte	0x12
 515 012a 81000000 		.4byte	0x81
 516 012e 2C       		.byte	0x2c
 517 012f 08       		.uleb128 0x8
 518 0130 25030000 		.4byte	.LASF19
 519 0134 03       		.byte	0x3
 520 0135 F101     		.2byte	0x1f1
 521 0137 12       		.byte	0x12
 522 0138 81000000 		.4byte	0x81
 523 013c 30       		.byte	0x30
 524 013d 08       		.uleb128 0x8
 525 013e CF020000 		.4byte	.LASF20
 526 0142 03       		.byte	0x3
 527 0143 F201     		.2byte	0x1f2
 528 0145 12       		.byte	0x12
 529 0146 81000000 		.4byte	0x81
 530 014a 34       		.byte	0x34
 531 014b 08       		.uleb128 0x8
 532 014c F4000000 		.4byte	.LASF21
 533 0150 03       		.byte	0x3
 534 0151 F301     		.2byte	0x1f3
 535 0153 12       		.byte	0x12
 536 0154 81000000 		.4byte	0x81
 537 0158 38       		.byte	0x38
 538 0159 08       		.uleb128 0x8
 539 015a BA030000 		.4byte	.LASF22
 540 015e 03       		.byte	0x3
 541 015f F401     		.2byte	0x1f4
 542 0161 12       		.byte	0x12
 543 0162 81000000 		.4byte	0x81
 544 0166 3C       		.byte	0x3c
 545 0167 09       		.uleb128 0x9
 546 0168 50465200 		.ascii	"PFR\000"
 547 016c 03       		.byte	0x3
 548 016d F501     		.2byte	0x1f5
 549 016f 12       		.byte	0x12
 550 0170 F4010000 		.4byte	0x1f4
 551 0174 40       		.byte	0x40
 552 0175 09       		.uleb128 0x9
 553 0176 44465200 		.ascii	"DFR\000"
 554 017a 03       		.byte	0x3
 555 017b F601     		.2byte	0x1f6
 556 017d 12       		.byte	0x12
 557 017e 86000000 		.4byte	0x86
 558 0182 48       		.byte	0x48
 559 0183 09       		.uleb128 0x9
 560 0184 41445200 		.ascii	"ADR\000"
 561 0188 03       		.byte	0x3
 562 0189 F701     		.2byte	0x1f7
 563 018b 12       		.byte	0x12
 564 018c 86000000 		.4byte	0x86
 565 0190 4C       		.byte	0x4c
 566 0191 08       		.uleb128 0x8
 567 0192 57030000 		.4byte	.LASF23
 568 0196 03       		.byte	0x3
 569 0197 F801     		.2byte	0x1f8
 570 0199 12       		.byte	0x12
ARM GAS  /tmp/ccEwhgJx.s 			page 11


 571 019a 0E020000 		.4byte	0x20e
 572 019e 50       		.byte	0x50
 573 019f 08       		.uleb128 0x8
 574 01a0 11030000 		.4byte	.LASF24
 575 01a4 03       		.byte	0x3
 576 01a5 F901     		.2byte	0x1f9
 577 01a7 12       		.byte	0x12
 578 01a8 28020000 		.4byte	0x228
 579 01ac 60       		.byte	0x60
 580 01ad 08       		.uleb128 0x8
 581 01ae 5C030000 		.4byte	.LASF25
 582 01b2 03       		.byte	0x3
 583 01b3 FA01     		.2byte	0x1fa
 584 01b5 12       		.byte	0x12
 585 01b6 2D020000 		.4byte	0x22d
 586 01ba 74       		.byte	0x74
 587 01bb 08       		.uleb128 0x8
 588 01bc D6030000 		.4byte	.LASF26
 589 01c0 03       		.byte	0x3
 590 01c1 FB01     		.2byte	0x1fb
 591 01c3 12       		.byte	0x12
 592 01c4 81000000 		.4byte	0x81
 593 01c8 88       		.byte	0x88
 594 01c9 00       		.byte	0
 595 01ca 0A       		.uleb128 0xa
 596 01cb 62000000 		.4byte	0x62
 597 01cf DA010000 		.4byte	0x1da
 598 01d3 0B       		.uleb128 0xb
 599 01d4 2C000000 		.4byte	0x2c
 600 01d8 0B       		.byte	0xb
 601 01d9 00       		.byte	0
 602 01da 05       		.uleb128 0x5
 603 01db CA010000 		.4byte	0x1ca
 604 01df 0A       		.uleb128 0xa
 605 01e0 86000000 		.4byte	0x86
 606 01e4 EF010000 		.4byte	0x1ef
 607 01e8 0B       		.uleb128 0xb
 608 01e9 2C000000 		.4byte	0x2c
 609 01ed 01       		.byte	0x1
 610 01ee 00       		.byte	0
 611 01ef 06       		.uleb128 0x6
 612 01f0 DF010000 		.4byte	0x1df
 613 01f4 05       		.uleb128 0x5
 614 01f5 EF010000 		.4byte	0x1ef
 615 01f9 0A       		.uleb128 0xa
 616 01fa 86000000 		.4byte	0x86
 617 01fe 09020000 		.4byte	0x209
 618 0202 0B       		.uleb128 0xb
 619 0203 2C000000 		.4byte	0x2c
 620 0207 03       		.byte	0x3
 621 0208 00       		.byte	0
 622 0209 06       		.uleb128 0x6
 623 020a F9010000 		.4byte	0x1f9
 624 020e 05       		.uleb128 0x5
 625 020f 09020000 		.4byte	0x209
 626 0213 0A       		.uleb128 0xa
 627 0214 86000000 		.4byte	0x86
ARM GAS  /tmp/ccEwhgJx.s 			page 12


 628 0218 23020000 		.4byte	0x223
 629 021c 0B       		.uleb128 0xb
 630 021d 2C000000 		.4byte	0x2c
 631 0221 04       		.byte	0x4
 632 0222 00       		.byte	0
 633 0223 06       		.uleb128 0x6
 634 0224 13020000 		.4byte	0x213
 635 0228 05       		.uleb128 0x5
 636 0229 23020000 		.4byte	0x223
 637 022d 0A       		.uleb128 0xa
 638 022e 75000000 		.4byte	0x75
 639 0232 3D020000 		.4byte	0x23d
 640 0236 0B       		.uleb128 0xb
 641 0237 2C000000 		.4byte	0x2c
 642 023b 04       		.byte	0x4
 643 023c 00       		.byte	0
 644 023d 0C       		.uleb128 0xc
 645 023e 9D000000 		.4byte	.LASF27
 646 0242 03       		.byte	0x3
 647 0243 FC01     		.2byte	0x1fc
 648 0245 03       		.byte	0x3
 649 0246 99000000 		.4byte	0x99
 650 024a 0A       		.uleb128 0xa
 651 024b 75000000 		.4byte	0x75
 652 024f 5A020000 		.4byte	0x25a
 653 0253 0B       		.uleb128 0xb
 654 0254 2C000000 		.4byte	0x2c
 655 0258 01       		.byte	0x1
 656 0259 00       		.byte	0
 657 025a 0D       		.uleb128 0xd
 658 025b 30030000 		.4byte	.LASF70
 659 025f 05       		.byte	0x5
 660 0260 4C       		.byte	0x4c
 661 0261 11       		.byte	0x11
 662 0262 75000000 		.4byte	0x75
 663 0266 07       		.uleb128 0x7
 664 0267 10       		.byte	0x10
 665 0268 04       		.byte	0x4
 666 0269 4B01     		.2byte	0x14b
 667 026b 09       		.byte	0x9
 668 026c A8020000 		.4byte	0x2a8
 669 0270 08       		.uleb128 0x8
 670 0271 AA030000 		.4byte	.LASF28
 671 0275 04       		.byte	0x4
 672 0276 4D01     		.2byte	0x14d
 673 0278 11       		.byte	0x11
 674 0279 81000000 		.4byte	0x81
 675 027d 00       		.byte	0
 676 027e 09       		.uleb128 0x9
 677 027f 435200   		.ascii	"CR\000"
 678 0282 04       		.byte	0x4
 679 0283 4E01     		.2byte	0x14e
 680 0285 11       		.byte	0x11
 681 0286 81000000 		.4byte	0x81
 682 028a 04       		.byte	0x4
 683 028b 08       		.uleb128 0x8
 684 028c 2E020000 		.4byte	.LASF29
ARM GAS  /tmp/ccEwhgJx.s 			page 13


 685 0290 04       		.byte	0x4
 686 0291 4F01     		.2byte	0x14f
 687 0293 11       		.byte	0x11
 688 0294 81000000 		.4byte	0x81
 689 0298 08       		.byte	0x8
 690 0299 08       		.uleb128 0x8
 691 029a D2000000 		.4byte	.LASF30
 692 029e 04       		.byte	0x4
 693 029f 5001     		.2byte	0x150
 694 02a1 11       		.byte	0x11
 695 02a2 81000000 		.4byte	0x81
 696 02a6 0C       		.byte	0xc
 697 02a7 00       		.byte	0
 698 02a8 0C       		.uleb128 0xc
 699 02a9 16030000 		.4byte	.LASF31
 700 02ad 04       		.byte	0x4
 701 02ae 5101     		.2byte	0x151
 702 02b0 02       		.byte	0x2
 703 02b1 66020000 		.4byte	0x266
 704 02b5 07       		.uleb128 0x7
 705 02b6 1C       		.byte	0x1c
 706 02b7 04       		.byte	0x4
 707 02b8 D901     		.2byte	0x1d9
 708 02ba 09       		.byte	0x9
 709 02bb 20030000 		.4byte	0x320
 710 02bf 09       		.uleb128 0x9
 711 02c0 41435200 		.ascii	"ACR\000"
 712 02c4 04       		.byte	0x4
 713 02c5 DB01     		.2byte	0x1db
 714 02c7 11       		.byte	0x11
 715 02c8 81000000 		.4byte	0x81
 716 02cc 00       		.byte	0
 717 02cd 08       		.uleb128 0x8
 718 02ce 5A020000 		.4byte	.LASF32
 719 02d2 04       		.byte	0x4
 720 02d3 DC01     		.2byte	0x1dc
 721 02d5 11       		.byte	0x11
 722 02d6 81000000 		.4byte	0x81
 723 02da 04       		.byte	0x4
 724 02db 08       		.uleb128 0x8
 725 02dc DE000000 		.4byte	.LASF33
 726 02e0 04       		.byte	0x4
 727 02e1 DD01     		.2byte	0x1dd
 728 02e3 11       		.byte	0x11
 729 02e4 81000000 		.4byte	0x81
 730 02e8 08       		.byte	0x8
 731 02e9 09       		.uleb128 0x9
 732 02ea 535200   		.ascii	"SR\000"
 733 02ed 04       		.byte	0x4
 734 02ee DE01     		.2byte	0x1de
 735 02f0 11       		.byte	0x11
 736 02f1 81000000 		.4byte	0x81
 737 02f5 0C       		.byte	0xc
 738 02f6 09       		.uleb128 0x9
 739 02f7 435200   		.ascii	"CR\000"
 740 02fa 04       		.byte	0x4
 741 02fb DF01     		.2byte	0x1df
ARM GAS  /tmp/ccEwhgJx.s 			page 14


 742 02fd 11       		.byte	0x11
 743 02fe 81000000 		.4byte	0x81
 744 0302 10       		.byte	0x10
 745 0303 08       		.uleb128 0x8
 746 0304 E6030000 		.4byte	.LASF34
 747 0308 04       		.byte	0x4
 748 0309 E001     		.2byte	0x1e0
 749 030b 11       		.byte	0x11
 750 030c 81000000 		.4byte	0x81
 751 0310 14       		.byte	0x14
 752 0311 08       		.uleb128 0x8
 753 0312 4B020000 		.4byte	.LASF35
 754 0316 04       		.byte	0x4
 755 0317 E101     		.2byte	0x1e1
 756 0319 11       		.byte	0x11
 757 031a 81000000 		.4byte	0x81
 758 031e 18       		.byte	0x18
 759 031f 00       		.byte	0
 760 0320 0C       		.uleb128 0xc
 761 0321 C8030000 		.4byte	.LASF36
 762 0325 04       		.byte	0x4
 763 0326 E201     		.2byte	0x1e2
 764 0328 03       		.byte	0x3
 765 0329 B5020000 		.4byte	0x2b5
 766 032d 07       		.uleb128 0x7
 767 032e 08       		.byte	0x8
 768 032f 04       		.byte	0x4
 769 0330 5B02     		.2byte	0x25b
 770 0332 09       		.byte	0x9
 771 0333 53030000 		.4byte	0x353
 772 0337 09       		.uleb128 0x9
 773 0338 435200   		.ascii	"CR\000"
 774 033b 04       		.byte	0x4
 775 033c 5D02     		.2byte	0x25d
 776 033e 11       		.byte	0x11
 777 033f 81000000 		.4byte	0x81
 778 0343 00       		.byte	0
 779 0344 09       		.uleb128 0x9
 780 0345 43535200 		.ascii	"CSR\000"
 781 0349 04       		.byte	0x4
 782 034a 5E02     		.2byte	0x25e
 783 034c 11       		.byte	0x11
 784 034d 81000000 		.4byte	0x81
 785 0351 04       		.byte	0x4
 786 0352 00       		.byte	0
 787 0353 0C       		.uleb128 0xc
 788 0354 6E000000 		.4byte	.LASF37
 789 0358 04       		.byte	0x4
 790 0359 5F02     		.2byte	0x25f
 791 035b 03       		.byte	0x3
 792 035c 2D030000 		.4byte	0x32d
 793 0360 07       		.uleb128 0x7
 794 0361 88       		.byte	0x88
 795 0362 04       		.byte	0x4
 796 0363 6502     		.2byte	0x265
 797 0365 09       		.byte	0x9
 798 0366 0E050000 		.4byte	0x50e
ARM GAS  /tmp/ccEwhgJx.s 			page 15


 799 036a 09       		.uleb128 0x9
 800 036b 435200   		.ascii	"CR\000"
 801 036e 04       		.byte	0x4
 802 036f 6702     		.2byte	0x267
 803 0371 11       		.byte	0x11
 804 0372 81000000 		.4byte	0x81
 805 0376 00       		.byte	0
 806 0377 08       		.uleb128 0x8
 807 0378 E2020000 		.4byte	.LASF38
 808 037c 04       		.byte	0x4
 809 037d 6802     		.2byte	0x268
 810 037f 11       		.byte	0x11
 811 0380 81000000 		.4byte	0x81
 812 0384 04       		.byte	0x4
 813 0385 08       		.uleb128 0x8
 814 0386 90000000 		.4byte	.LASF39
 815 038a 04       		.byte	0x4
 816 038b 6902     		.2byte	0x269
 817 038d 11       		.byte	0x11
 818 038e 81000000 		.4byte	0x81
 819 0392 08       		.byte	0x8
 820 0393 09       		.uleb128 0x9
 821 0394 43495200 		.ascii	"CIR\000"
 822 0398 04       		.byte	0x4
 823 0399 6A02     		.2byte	0x26a
 824 039b 11       		.byte	0x11
 825 039c 81000000 		.4byte	0x81
 826 03a0 0C       		.byte	0xc
 827 03a1 08       		.uleb128 0x8
 828 03a2 B1030000 		.4byte	.LASF40
 829 03a6 04       		.byte	0x4
 830 03a7 6B02     		.2byte	0x26b
 831 03a9 11       		.byte	0x11
 832 03aa 81000000 		.4byte	0x81
 833 03ae 10       		.byte	0x10
 834 03af 08       		.uleb128 0x8
 835 03b0 1B000000 		.4byte	.LASF41
 836 03b4 04       		.byte	0x4
 837 03b5 6C02     		.2byte	0x26c
 838 03b7 11       		.byte	0x11
 839 03b8 81000000 		.4byte	0x81
 840 03bc 14       		.byte	0x14
 841 03bd 08       		.uleb128 0x8
 842 03be BF030000 		.4byte	.LASF42
 843 03c2 04       		.byte	0x4
 844 03c3 6D02     		.2byte	0x26d
 845 03c5 11       		.byte	0x11
 846 03c6 81000000 		.4byte	0x81
 847 03ca 18       		.byte	0x18
 848 03cb 08       		.uleb128 0x8
 849 03cc 5C030000 		.4byte	.LASF25
 850 03d0 04       		.byte	0x4
 851 03d1 6E02     		.2byte	0x26e
 852 03d3 11       		.byte	0x11
 853 03d4 75000000 		.4byte	0x75
 854 03d8 1C       		.byte	0x1c
 855 03d9 08       		.uleb128 0x8
ARM GAS  /tmp/ccEwhgJx.s 			page 16


 856 03da 0A000000 		.4byte	.LASF43
 857 03de 04       		.byte	0x4
 858 03df 6F02     		.2byte	0x26f
 859 03e1 11       		.byte	0x11
 860 03e2 81000000 		.4byte	0x81
 861 03e6 20       		.byte	0x20
 862 03e7 08       		.uleb128 0x8
 863 03e8 25020000 		.4byte	.LASF44
 864 03ec 04       		.byte	0x4
 865 03ed 7002     		.2byte	0x270
 866 03ef 11       		.byte	0x11
 867 03f0 81000000 		.4byte	0x81
 868 03f4 24       		.byte	0x24
 869 03f5 08       		.uleb128 0x8
 870 03f6 66030000 		.4byte	.LASF45
 871 03fa 04       		.byte	0x4
 872 03fb 7102     		.2byte	0x271
 873 03fd 11       		.byte	0x11
 874 03fe 4A020000 		.4byte	0x24a
 875 0402 28       		.byte	0x28
 876 0403 08       		.uleb128 0x8
 877 0404 A2030000 		.4byte	.LASF46
 878 0408 04       		.byte	0x4
 879 0409 7202     		.2byte	0x272
 880 040b 11       		.byte	0x11
 881 040c 81000000 		.4byte	0x81
 882 0410 30       		.byte	0x30
 883 0411 08       		.uleb128 0x8
 884 0412 13000000 		.4byte	.LASF47
 885 0416 04       		.byte	0x4
 886 0417 7302     		.2byte	0x273
 887 0419 11       		.byte	0x11
 888 041a 81000000 		.4byte	0x81
 889 041e 34       		.byte	0x34
 890 041f 08       		.uleb128 0x8
 891 0420 52020000 		.4byte	.LASF48
 892 0424 04       		.byte	0x4
 893 0425 7402     		.2byte	0x274
 894 0427 11       		.byte	0x11
 895 0428 81000000 		.4byte	0x81
 896 042c 38       		.byte	0x38
 897 042d 08       		.uleb128 0x8
 898 042e 70030000 		.4byte	.LASF49
 899 0432 04       		.byte	0x4
 900 0433 7502     		.2byte	0x275
 901 0435 11       		.byte	0x11
 902 0436 75000000 		.4byte	0x75
 903 043a 3C       		.byte	0x3c
 904 043b 08       		.uleb128 0x8
 905 043c A6000000 		.4byte	.LASF50
 906 0440 04       		.byte	0x4
 907 0441 7602     		.2byte	0x276
 908 0443 11       		.byte	0x11
 909 0444 81000000 		.4byte	0x81
 910 0448 40       		.byte	0x40
 911 0449 08       		.uleb128 0x8
 912 044a 7F020000 		.4byte	.LASF51
ARM GAS  /tmp/ccEwhgJx.s 			page 17


 913 044e 04       		.byte	0x4
 914 044f 7702     		.2byte	0x277
 915 0451 11       		.byte	0x11
 916 0452 81000000 		.4byte	0x81
 917 0456 44       		.byte	0x44
 918 0457 08       		.uleb128 0x8
 919 0458 7A030000 		.4byte	.LASF52
 920 045c 04       		.byte	0x4
 921 045d 7802     		.2byte	0x278
 922 045f 11       		.byte	0x11
 923 0460 4A020000 		.4byte	0x24a
 924 0464 48       		.byte	0x48
 925 0465 08       		.uleb128 0x8
 926 0466 00000000 		.4byte	.LASF53
 927 046a 04       		.byte	0x4
 928 046b 7902     		.2byte	0x279
 929 046d 11       		.byte	0x11
 930 046e 81000000 		.4byte	0x81
 931 0472 50       		.byte	0x50
 932 0473 08       		.uleb128 0x8
 933 0474 45030000 		.4byte	.LASF54
 934 0478 04       		.byte	0x4
 935 0479 7A02     		.2byte	0x27a
 936 047b 11       		.byte	0x11
 937 047c 81000000 		.4byte	0x81
 938 0480 54       		.byte	0x54
 939 0481 08       		.uleb128 0x8
 940 0482 86000000 		.4byte	.LASF55
 941 0486 04       		.byte	0x4
 942 0487 7B02     		.2byte	0x27b
 943 0489 11       		.byte	0x11
 944 048a 81000000 		.4byte	0x81
 945 048e 58       		.byte	0x58
 946 048f 08       		.uleb128 0x8
 947 0490 84030000 		.4byte	.LASF56
 948 0494 04       		.byte	0x4
 949 0495 7C02     		.2byte	0x27c
 950 0497 11       		.byte	0x11
 951 0498 75000000 		.4byte	0x75
 952 049c 5C       		.byte	0x5c
 953 049d 08       		.uleb128 0x8
 954 049e FD020000 		.4byte	.LASF57
 955 04a2 04       		.byte	0x4
 956 04a3 7D02     		.2byte	0x27d
 957 04a5 11       		.byte	0x11
 958 04a6 81000000 		.4byte	0x81
 959 04aa 60       		.byte	0x60
 960 04ab 08       		.uleb128 0x8
 961 04ac DC030000 		.4byte	.LASF58
 962 04b0 04       		.byte	0x4
 963 04b1 7E02     		.2byte	0x27e
 964 04b3 11       		.byte	0x11
 965 04b4 81000000 		.4byte	0x81
 966 04b8 64       		.byte	0x64
 967 04b9 08       		.uleb128 0x8
 968 04ba 8E030000 		.4byte	.LASF59
 969 04be 04       		.byte	0x4
ARM GAS  /tmp/ccEwhgJx.s 			page 18


 970 04bf 7F02     		.2byte	0x27f
 971 04c1 11       		.byte	0x11
 972 04c2 4A020000 		.4byte	0x24a
 973 04c6 68       		.byte	0x68
 974 04c7 08       		.uleb128 0x8
 975 04c8 5E000000 		.4byte	.LASF60
 976 04cc 04       		.byte	0x4
 977 04cd 8002     		.2byte	0x280
 978 04cf 11       		.byte	0x11
 979 04d0 81000000 		.4byte	0x81
 980 04d4 70       		.byte	0x70
 981 04d5 09       		.uleb128 0x9
 982 04d6 43535200 		.ascii	"CSR\000"
 983 04da 04       		.byte	0x4
 984 04db 8102     		.2byte	0x281
 985 04dd 11       		.byte	0x11
 986 04de 81000000 		.4byte	0x81
 987 04e2 74       		.byte	0x74
 988 04e3 08       		.uleb128 0x8
 989 04e4 98030000 		.4byte	.LASF61
 990 04e8 04       		.byte	0x4
 991 04e9 8202     		.2byte	0x282
 992 04eb 11       		.byte	0x11
 993 04ec 4A020000 		.4byte	0x24a
 994 04f0 78       		.byte	0x78
 995 04f1 08       		.uleb128 0x8
 996 04f2 7A000000 		.4byte	.LASF62
 997 04f6 04       		.byte	0x4
 998 04f7 8302     		.2byte	0x283
 999 04f9 11       		.byte	0x11
 1000 04fa 81000000 		.4byte	0x81
 1001 04fe 80       		.byte	0x80
 1002 04ff 08       		.uleb128 0x8
 1003 0500 63000000 		.4byte	.LASF63
 1004 0504 04       		.byte	0x4
 1005 0505 8402     		.2byte	0x284
 1006 0507 11       		.byte	0x11
 1007 0508 81000000 		.4byte	0x81
 1008 050c 84       		.byte	0x84
 1009 050d 00       		.byte	0
 1010 050e 0C       		.uleb128 0xc
 1011 050f 19020000 		.4byte	.LASF64
 1012 0513 04       		.byte	0x4
 1013 0514 8502     		.2byte	0x285
 1014 0516 03       		.byte	0x3
 1015 0517 60030000 		.4byte	0x360
 1016 051b 03       		.uleb128 0x3
 1017 051c 01       		.byte	0x1
 1018 051d 08       		.byte	0x8
 1019 051e 07030000 		.4byte	.LASF65
 1020 0522 03       		.uleb128 0x3
 1021 0523 01       		.byte	0x1
 1022 0524 02       		.byte	0x2
 1023 0525 2A030000 		.4byte	.LASF66
 1024 0529 0E       		.uleb128 0xe
 1025 052a 5A020000 		.4byte	0x25a
 1026 052e 01       		.byte	0x1
ARM GAS  /tmp/ccEwhgJx.s 			page 19


 1027 052f 27       		.byte	0x27
 1028 0530 0A       		.byte	0xa
 1029 0531 05       		.uleb128 0x5
 1030 0532 03       		.byte	0x3
 1031 0533 00000000 		.4byte	SystemCoreClock
 1032 0537 0F       		.uleb128 0xf
 1033 0538 35020000 		.4byte	.LASF71
 1034 053c 01       		.byte	0x1
 1035 053d 95       		.byte	0x95
 1036 053e 06       		.byte	0x6
 1037 053f 00000000 		.4byte	.LFB279
 1038 0543 F0000000 		.4byte	.LFE279-.LFB279
 1039 0547 01       		.uleb128 0x1
 1040 0548 9C       		.byte	0x9c
 1041 0549 10       		.uleb128 0x10
 1042 054a D5020000 		.4byte	.LASF72
 1043 054e 01       		.byte	0x1
 1044 054f 72       		.byte	0x72
 1045 0550 06       		.byte	0x6
 1046 0551 00000000 		.4byte	.LFB278
 1047 0555 64000000 		.4byte	.LFE278-.LFB278
 1048 0559 01       		.uleb128 0x1
 1049 055a 9C       		.byte	0x9c
 1050 055b 7A050000 		.4byte	0x57a
 1051 055f 11       		.uleb128 0x11
 1052 0560 7A050000 		.4byte	0x57a
 1053 0564 30000000 		.4byte	.LBI4
 1054 0568 03       		.byte	.LVU21
 1055 0569 00000000 		.4byte	.Ldebug_ranges0+0
 1056 056d 01       		.byte	0x1
 1057 056e 82       		.byte	0x82
 1058 056f 03       		.byte	0x3
 1059 0570 12       		.uleb128 0x12
 1060 0571 5C000000 		.4byte	.LVL0
 1061 0575 83050000 		.4byte	0x583
 1062 0579 00       		.byte	0
 1063 057a 13       		.uleb128 0x13
 1064 057b B7000000 		.4byte	.LASF73
 1065 057f 01       		.byte	0x1
 1066 0580 36       		.byte	0x36
 1067 0581 0D       		.byte	0xd
 1068 0582 01       		.byte	0x1
 1069 0583 14       		.uleb128 0x14
 1070 0584 4F030000 		.4byte	.LASF74
 1071 0588 4F030000 		.4byte	.LASF74
 1072 058c 06       		.byte	0x6
 1073 058d 9802     		.2byte	0x298
 1074 058f 08       		.byte	0x8
 1075 0590 00       		.byte	0
 1076              		.section	.debug_abbrev,"",%progbits
 1077              	.Ldebug_abbrev0:
 1078 0000 01       		.uleb128 0x1
 1079 0001 11       		.uleb128 0x11
 1080 0002 01       		.byte	0x1
 1081 0003 25       		.uleb128 0x25
 1082 0004 0E       		.uleb128 0xe
 1083 0005 13       		.uleb128 0x13
ARM GAS  /tmp/ccEwhgJx.s 			page 20


 1084 0006 0B       		.uleb128 0xb
 1085 0007 03       		.uleb128 0x3
 1086 0008 0E       		.uleb128 0xe
 1087 0009 1B       		.uleb128 0x1b
 1088 000a 0E       		.uleb128 0xe
 1089 000b 55       		.uleb128 0x55
 1090 000c 17       		.uleb128 0x17
 1091 000d 11       		.uleb128 0x11
 1092 000e 01       		.uleb128 0x1
 1093 000f 10       		.uleb128 0x10
 1094 0010 17       		.uleb128 0x17
 1095 0011 00       		.byte	0
 1096 0012 00       		.byte	0
 1097 0013 02       		.uleb128 0x2
 1098 0014 24       		.uleb128 0x24
 1099 0015 00       		.byte	0
 1100 0016 0B       		.uleb128 0xb
 1101 0017 0B       		.uleb128 0xb
 1102 0018 3E       		.uleb128 0x3e
 1103 0019 0B       		.uleb128 0xb
 1104 001a 03       		.uleb128 0x3
 1105 001b 08       		.uleb128 0x8
 1106 001c 00       		.byte	0
 1107 001d 00       		.byte	0
 1108 001e 03       		.uleb128 0x3
 1109 001f 24       		.uleb128 0x24
 1110 0020 00       		.byte	0
 1111 0021 0B       		.uleb128 0xb
 1112 0022 0B       		.uleb128 0xb
 1113 0023 3E       		.uleb128 0x3e
 1114 0024 0B       		.uleb128 0xb
 1115 0025 03       		.uleb128 0x3
 1116 0026 0E       		.uleb128 0xe
 1117 0027 00       		.byte	0
 1118 0028 00       		.byte	0
 1119 0029 04       		.uleb128 0x4
 1120 002a 16       		.uleb128 0x16
 1121 002b 00       		.byte	0
 1122 002c 03       		.uleb128 0x3
 1123 002d 0E       		.uleb128 0xe
 1124 002e 3A       		.uleb128 0x3a
 1125 002f 0B       		.uleb128 0xb
 1126 0030 3B       		.uleb128 0x3b
 1127 0031 0B       		.uleb128 0xb
 1128 0032 39       		.uleb128 0x39
 1129 0033 0B       		.uleb128 0xb
 1130 0034 49       		.uleb128 0x49
 1131 0035 13       		.uleb128 0x13
 1132 0036 00       		.byte	0
 1133 0037 00       		.byte	0
 1134 0038 05       		.uleb128 0x5
 1135 0039 35       		.uleb128 0x35
 1136 003a 00       		.byte	0
 1137 003b 49       		.uleb128 0x49
 1138 003c 13       		.uleb128 0x13
 1139 003d 00       		.byte	0
 1140 003e 00       		.byte	0
ARM GAS  /tmp/ccEwhgJx.s 			page 21


 1141 003f 06       		.uleb128 0x6
 1142 0040 26       		.uleb128 0x26
 1143 0041 00       		.byte	0
 1144 0042 49       		.uleb128 0x49
 1145 0043 13       		.uleb128 0x13
 1146 0044 00       		.byte	0
 1147 0045 00       		.byte	0
 1148 0046 07       		.uleb128 0x7
 1149 0047 13       		.uleb128 0x13
 1150 0048 01       		.byte	0x1
 1151 0049 0B       		.uleb128 0xb
 1152 004a 0B       		.uleb128 0xb
 1153 004b 3A       		.uleb128 0x3a
 1154 004c 0B       		.uleb128 0xb
 1155 004d 3B       		.uleb128 0x3b
 1156 004e 05       		.uleb128 0x5
 1157 004f 39       		.uleb128 0x39
 1158 0050 0B       		.uleb128 0xb
 1159 0051 01       		.uleb128 0x1
 1160 0052 13       		.uleb128 0x13
 1161 0053 00       		.byte	0
 1162 0054 00       		.byte	0
 1163 0055 08       		.uleb128 0x8
 1164 0056 0D       		.uleb128 0xd
 1165 0057 00       		.byte	0
 1166 0058 03       		.uleb128 0x3
 1167 0059 0E       		.uleb128 0xe
 1168 005a 3A       		.uleb128 0x3a
 1169 005b 0B       		.uleb128 0xb
 1170 005c 3B       		.uleb128 0x3b
 1171 005d 05       		.uleb128 0x5
 1172 005e 39       		.uleb128 0x39
 1173 005f 0B       		.uleb128 0xb
 1174 0060 49       		.uleb128 0x49
 1175 0061 13       		.uleb128 0x13
 1176 0062 38       		.uleb128 0x38
 1177 0063 0B       		.uleb128 0xb
 1178 0064 00       		.byte	0
 1179 0065 00       		.byte	0
 1180 0066 09       		.uleb128 0x9
 1181 0067 0D       		.uleb128 0xd
 1182 0068 00       		.byte	0
 1183 0069 03       		.uleb128 0x3
 1184 006a 08       		.uleb128 0x8
 1185 006b 3A       		.uleb128 0x3a
 1186 006c 0B       		.uleb128 0xb
 1187 006d 3B       		.uleb128 0x3b
 1188 006e 05       		.uleb128 0x5
 1189 006f 39       		.uleb128 0x39
 1190 0070 0B       		.uleb128 0xb
 1191 0071 49       		.uleb128 0x49
 1192 0072 13       		.uleb128 0x13
 1193 0073 38       		.uleb128 0x38
 1194 0074 0B       		.uleb128 0xb
 1195 0075 00       		.byte	0
 1196 0076 00       		.byte	0
 1197 0077 0A       		.uleb128 0xa
ARM GAS  /tmp/ccEwhgJx.s 			page 22


 1198 0078 01       		.uleb128 0x1
 1199 0079 01       		.byte	0x1
 1200 007a 49       		.uleb128 0x49
 1201 007b 13       		.uleb128 0x13
 1202 007c 01       		.uleb128 0x1
 1203 007d 13       		.uleb128 0x13
 1204 007e 00       		.byte	0
 1205 007f 00       		.byte	0
 1206 0080 0B       		.uleb128 0xb
 1207 0081 21       		.uleb128 0x21
 1208 0082 00       		.byte	0
 1209 0083 49       		.uleb128 0x49
 1210 0084 13       		.uleb128 0x13
 1211 0085 2F       		.uleb128 0x2f
 1212 0086 0B       		.uleb128 0xb
 1213 0087 00       		.byte	0
 1214 0088 00       		.byte	0
 1215 0089 0C       		.uleb128 0xc
 1216 008a 16       		.uleb128 0x16
 1217 008b 00       		.byte	0
 1218 008c 03       		.uleb128 0x3
 1219 008d 0E       		.uleb128 0xe
 1220 008e 3A       		.uleb128 0x3a
 1221 008f 0B       		.uleb128 0xb
 1222 0090 3B       		.uleb128 0x3b
 1223 0091 05       		.uleb128 0x5
 1224 0092 39       		.uleb128 0x39
 1225 0093 0B       		.uleb128 0xb
 1226 0094 49       		.uleb128 0x49
 1227 0095 13       		.uleb128 0x13
 1228 0096 00       		.byte	0
 1229 0097 00       		.byte	0
 1230 0098 0D       		.uleb128 0xd
 1231 0099 34       		.uleb128 0x34
 1232 009a 00       		.byte	0
 1233 009b 03       		.uleb128 0x3
 1234 009c 0E       		.uleb128 0xe
 1235 009d 3A       		.uleb128 0x3a
 1236 009e 0B       		.uleb128 0xb
 1237 009f 3B       		.uleb128 0x3b
 1238 00a0 0B       		.uleb128 0xb
 1239 00a1 39       		.uleb128 0x39
 1240 00a2 0B       		.uleb128 0xb
 1241 00a3 49       		.uleb128 0x49
 1242 00a4 13       		.uleb128 0x13
 1243 00a5 3F       		.uleb128 0x3f
 1244 00a6 19       		.uleb128 0x19
 1245 00a7 3C       		.uleb128 0x3c
 1246 00a8 19       		.uleb128 0x19
 1247 00a9 00       		.byte	0
 1248 00aa 00       		.byte	0
 1249 00ab 0E       		.uleb128 0xe
 1250 00ac 34       		.uleb128 0x34
 1251 00ad 00       		.byte	0
 1252 00ae 47       		.uleb128 0x47
 1253 00af 13       		.uleb128 0x13
 1254 00b0 3A       		.uleb128 0x3a
ARM GAS  /tmp/ccEwhgJx.s 			page 23


 1255 00b1 0B       		.uleb128 0xb
 1256 00b2 3B       		.uleb128 0x3b
 1257 00b3 0B       		.uleb128 0xb
 1258 00b4 39       		.uleb128 0x39
 1259 00b5 0B       		.uleb128 0xb
 1260 00b6 02       		.uleb128 0x2
 1261 00b7 18       		.uleb128 0x18
 1262 00b8 00       		.byte	0
 1263 00b9 00       		.byte	0
 1264 00ba 0F       		.uleb128 0xf
 1265 00bb 2E       		.uleb128 0x2e
 1266 00bc 00       		.byte	0
 1267 00bd 3F       		.uleb128 0x3f
 1268 00be 19       		.uleb128 0x19
 1269 00bf 03       		.uleb128 0x3
 1270 00c0 0E       		.uleb128 0xe
 1271 00c1 3A       		.uleb128 0x3a
 1272 00c2 0B       		.uleb128 0xb
 1273 00c3 3B       		.uleb128 0x3b
 1274 00c4 0B       		.uleb128 0xb
 1275 00c5 39       		.uleb128 0x39
 1276 00c6 0B       		.uleb128 0xb
 1277 00c7 27       		.uleb128 0x27
 1278 00c8 19       		.uleb128 0x19
 1279 00c9 11       		.uleb128 0x11
 1280 00ca 01       		.uleb128 0x1
 1281 00cb 12       		.uleb128 0x12
 1282 00cc 06       		.uleb128 0x6
 1283 00cd 40       		.uleb128 0x40
 1284 00ce 18       		.uleb128 0x18
 1285 00cf 9742     		.uleb128 0x2117
 1286 00d1 19       		.uleb128 0x19
 1287 00d2 00       		.byte	0
 1288 00d3 00       		.byte	0
 1289 00d4 10       		.uleb128 0x10
 1290 00d5 2E       		.uleb128 0x2e
 1291 00d6 01       		.byte	0x1
 1292 00d7 3F       		.uleb128 0x3f
 1293 00d8 19       		.uleb128 0x19
 1294 00d9 03       		.uleb128 0x3
 1295 00da 0E       		.uleb128 0xe
 1296 00db 3A       		.uleb128 0x3a
 1297 00dc 0B       		.uleb128 0xb
 1298 00dd 3B       		.uleb128 0x3b
 1299 00de 0B       		.uleb128 0xb
 1300 00df 39       		.uleb128 0x39
 1301 00e0 0B       		.uleb128 0xb
 1302 00e1 27       		.uleb128 0x27
 1303 00e2 19       		.uleb128 0x19
 1304 00e3 11       		.uleb128 0x11
 1305 00e4 01       		.uleb128 0x1
 1306 00e5 12       		.uleb128 0x12
 1307 00e6 06       		.uleb128 0x6
 1308 00e7 40       		.uleb128 0x40
 1309 00e8 18       		.uleb128 0x18
 1310 00e9 9742     		.uleb128 0x2117
 1311 00eb 19       		.uleb128 0x19
ARM GAS  /tmp/ccEwhgJx.s 			page 24


 1312 00ec 01       		.uleb128 0x1
 1313 00ed 13       		.uleb128 0x13
 1314 00ee 00       		.byte	0
 1315 00ef 00       		.byte	0
 1316 00f0 11       		.uleb128 0x11
 1317 00f1 1D       		.uleb128 0x1d
 1318 00f2 00       		.byte	0
 1319 00f3 31       		.uleb128 0x31
 1320 00f4 13       		.uleb128 0x13
 1321 00f5 52       		.uleb128 0x52
 1322 00f6 01       		.uleb128 0x1
 1323 00f7 B842     		.uleb128 0x2138
 1324 00f9 0B       		.uleb128 0xb
 1325 00fa 55       		.uleb128 0x55
 1326 00fb 17       		.uleb128 0x17
 1327 00fc 58       		.uleb128 0x58
 1328 00fd 0B       		.uleb128 0xb
 1329 00fe 59       		.uleb128 0x59
 1330 00ff 0B       		.uleb128 0xb
 1331 0100 57       		.uleb128 0x57
 1332 0101 0B       		.uleb128 0xb
 1333 0102 00       		.byte	0
 1334 0103 00       		.byte	0
 1335 0104 12       		.uleb128 0x12
 1336 0105 898201   		.uleb128 0x4109
 1337 0108 00       		.byte	0
 1338 0109 11       		.uleb128 0x11
 1339 010a 01       		.uleb128 0x1
 1340 010b 9542     		.uleb128 0x2115
 1341 010d 19       		.uleb128 0x19
 1342 010e 31       		.uleb128 0x31
 1343 010f 13       		.uleb128 0x13
 1344 0110 00       		.byte	0
 1345 0111 00       		.byte	0
 1346 0112 13       		.uleb128 0x13
 1347 0113 2E       		.uleb128 0x2e
 1348 0114 00       		.byte	0
 1349 0115 03       		.uleb128 0x3
 1350 0116 0E       		.uleb128 0xe
 1351 0117 3A       		.uleb128 0x3a
 1352 0118 0B       		.uleb128 0xb
 1353 0119 3B       		.uleb128 0x3b
 1354 011a 0B       		.uleb128 0xb
 1355 011b 39       		.uleb128 0x39
 1356 011c 0B       		.uleb128 0xb
 1357 011d 27       		.uleb128 0x27
 1358 011e 19       		.uleb128 0x19
 1359 011f 20       		.uleb128 0x20
 1360 0120 0B       		.uleb128 0xb
 1361 0121 00       		.byte	0
 1362 0122 00       		.byte	0
 1363 0123 14       		.uleb128 0x14
 1364 0124 2E       		.uleb128 0x2e
 1365 0125 00       		.byte	0
 1366 0126 3F       		.uleb128 0x3f
 1367 0127 19       		.uleb128 0x19
 1368 0128 3C       		.uleb128 0x3c
ARM GAS  /tmp/ccEwhgJx.s 			page 25


 1369 0129 19       		.uleb128 0x19
 1370 012a 6E       		.uleb128 0x6e
 1371 012b 0E       		.uleb128 0xe
 1372 012c 03       		.uleb128 0x3
 1373 012d 0E       		.uleb128 0xe
 1374 012e 3A       		.uleb128 0x3a
 1375 012f 0B       		.uleb128 0xb
 1376 0130 3B       		.uleb128 0x3b
 1377 0131 05       		.uleb128 0x5
 1378 0132 39       		.uleb128 0x39
 1379 0133 0B       		.uleb128 0xb
 1380 0134 00       		.byte	0
 1381 0135 00       		.byte	0
 1382 0136 00       		.byte	0
 1383              		.section	.debug_aranges,"",%progbits
 1384 0000 24000000 		.4byte	0x24
 1385 0004 0200     		.2byte	0x2
 1386 0006 00000000 		.4byte	.Ldebug_info0
 1387 000a 04       		.byte	0x4
 1388 000b 00       		.byte	0
 1389 000c 0000     		.2byte	0
 1390 000e 0000     		.2byte	0
 1391 0010 00000000 		.4byte	.LFB278
 1392 0014 64000000 		.4byte	.LFE278-.LFB278
 1393 0018 00000000 		.4byte	.LFB279
 1394 001c F0000000 		.4byte	.LFE279-.LFB279
 1395 0020 00000000 		.4byte	0
 1396 0024 00000000 		.4byte	0
 1397              		.section	.debug_ranges,"",%progbits
 1398              	.Ldebug_ranges0:
 1399 0000 18000000 		.4byte	.LBB4
 1400 0004 1A000000 		.4byte	.LBE4
 1401 0008 30000000 		.4byte	.LBB8
 1402 000c 4E000000 		.4byte	.LBE8
 1403 0010 50000000 		.4byte	.LBB9
 1404 0014 58000000 		.4byte	.LBE9
 1405 0018 00000000 		.4byte	0
 1406 001c 00000000 		.4byte	0
 1407 0020 00000000 		.4byte	.LFB278
 1408 0024 64000000 		.4byte	.LFE278
 1409 0028 00000000 		.4byte	.LFB279
 1410 002c F0000000 		.4byte	.LFE279
 1411 0030 00000000 		.4byte	0
 1412 0034 00000000 		.4byte	0
 1413              		.section	.debug_line,"",%progbits
 1414              	.Ldebug_line0:
 1415 0000 B4030000 		.section	.debug_str,"MS",%progbits,1
 1415      03003501 
 1415      00000201 
 1415      FB0E0D00 
 1415      01010101 
 1416              	.LASF53:
 1417 0000 41484231 		.ascii	"AHB1LPENR\000"
 1417      4C50454E 
 1417      5200
 1418              	.LASF43:
 1419 000a 41504231 		.ascii	"APB1RSTR\000"
ARM GAS  /tmp/ccEwhgJx.s 			page 26


 1419      52535452 
 1419      00
 1420              	.LASF47:
 1421 0013 41484232 		.ascii	"AHB2ENR\000"
 1421      454E5200 
 1422              	.LASF41:
 1423 001b 41484232 		.ascii	"AHB2RSTR\000"
 1423      52535452 
 1423      00
 1424              	.LASF4:
 1425 0024 73686F72 		.ascii	"short int\000"
 1425      7420696E 
 1425      7400
 1426              	.LASF68:
 1427 002e 2E2E2F2E 		.ascii	"../../../os/hal/ports/STM32/STM32F4xx/hal_lld.c\000"
 1427      2E2F2E2E 
 1427      2F6F732F 
 1427      68616C2F 
 1427      706F7274 
 1428              	.LASF60:
 1429 005e 42444352 		.ascii	"BDCR\000"
 1429      00
 1430              	.LASF63:
 1431 0063 504C4C49 		.ascii	"PLLI2SCFGR\000"
 1431      32534346 
 1431      475200
 1432              	.LASF37:
 1433 006e 5057525F 		.ascii	"PWR_TypeDef\000"
 1433      54797065 
 1433      44656600 
 1434              	.LASF62:
 1435 007a 53534347 		.ascii	"SSCGR\000"
 1435      5200
 1436              	.LASF12:
 1437 0080 43505549 		.ascii	"CPUID\000"
 1437      4400
 1438              	.LASF55:
 1439 0086 41484233 		.ascii	"AHB3LPENR\000"
 1439      4C50454E 
 1439      5200
 1440              	.LASF39:
 1441 0090 43464752 		.ascii	"CFGR\000"
 1441      00
 1442              	.LASF8:
 1443 0095 75696E74 		.ascii	"uint8_t\000"
 1443      385F7400 
 1444              	.LASF27:
 1445 009d 5343425F 		.ascii	"SCB_Type\000"
 1445      54797065 
 1445      00
 1446              	.LASF50:
 1447 00a6 41504231 		.ascii	"APB1ENR\000"
 1447      454E5200 
 1448              	.LASF9:
 1449 00ae 75696E74 		.ascii	"uint32_t\000"
 1449      33325F74 
 1449      00
ARM GAS  /tmp/ccEwhgJx.s 			page 27


 1450              	.LASF73:
 1451 00b7 68616C5F 		.ascii	"hal_lld_backup_domain_init\000"
 1451      6C6C645F 
 1451      6261636B 
 1451      75705F64 
 1451      6F6D6169 
 1452              	.LASF30:
 1453 00d2 41504232 		.ascii	"APB2FZ\000"
 1453      465A00
 1454              	.LASF13:
 1455 00d9 49435352 		.ascii	"ICSR\000"
 1455      00
 1456              	.LASF33:
 1457 00de 4F50544B 		.ascii	"OPTKEYR\000"
 1457      45595200 
 1458              	.LASF1:
 1459 00e6 6C6F6E67 		.ascii	"long long int\000"
 1459      206C6F6E 
 1459      6720696E 
 1459      7400
 1460              	.LASF21:
 1461 00f4 42464152 		.ascii	"BFAR\000"
 1461      00
 1462              	.LASF67:
 1463 00f9 474E5520 		.ascii	"GNU C17 10.3.1 20210621 (release) -mcpu=cortex-m4 -"
 1463      43313720 
 1463      31302E33 
 1463      2E312032 
 1463      30323130 
 1464 012c 6D6E6F2D 		.ascii	"mno-thumb-interwork -mthumb -mfloat-abi=soft -march"
 1464      7468756D 
 1464      622D696E 
 1464      74657277 
 1464      6F726B20 
 1465 015f 3D61726D 		.ascii	"=armv7e-m -ggdb -O2 -fomit-frame-pointer -falign-fu"
 1465      7637652D 
 1465      6D202D67 
 1465      67646220 
 1465      2D4F3220 
 1466 0192 6E637469 		.ascii	"nctions=16 -ffunction-sections -fdata-sections -fno"
 1466      6F6E733D 
 1466      3136202D 
 1466      6666756E 
 1466      6374696F 
 1467 01c5 2D636F6D 		.ascii	"-common\000"
 1467      6D6F6E00 
 1468              	.LASF5:
 1469 01cd 6C6F6E67 		.ascii	"long int\000"
 1469      20696E74 
 1469      00
 1470              	.LASF69:
 1471 01d6 2F686F6D 		.ascii	"/home/tfateba/nlab/ip/trunk/demos/STM32/RT-STM32F40"
 1471      652F7466 
 1471      61746562 
 1471      612F6E6C 
 1471      61622F69 
 1472 0209 372D4449 		.ascii	"7-DISCOVERY-G++\000"
ARM GAS  /tmp/ccEwhgJx.s 			page 28


 1472      53434F56 
 1472      4552592D 
 1472      472B2B00 
 1473              	.LASF64:
 1474 0219 5243435F 		.ascii	"RCC_TypeDef\000"
 1474      54797065 
 1474      44656600 
 1475              	.LASF44:
 1476 0225 41504232 		.ascii	"APB2RSTR\000"
 1476      52535452 
 1476      00
 1477              	.LASF29:
 1478 022e 41504231 		.ascii	"APB1FZ\000"
 1478      465A00
 1479              	.LASF71:
 1480 0235 73746D33 		.ascii	"stm32_clock_init\000"
 1480      325F636C 
 1480      6F636B5F 
 1480      696E6974 
 1480      00
 1481              	.LASF17:
 1482 0246 43465352 		.ascii	"CFSR\000"
 1482      00
 1483              	.LASF35:
 1484 024b 4F505443 		.ascii	"OPTCR1\000"
 1484      523100
 1485              	.LASF48:
 1486 0252 41484233 		.ascii	"AHB3ENR\000"
 1486      454E5200 
 1487              	.LASF32:
 1488 025a 4B455952 		.ascii	"KEYR\000"
 1488      00
 1489              	.LASF2:
 1490 025f 6C6F6E67 		.ascii	"long double\000"
 1490      20646F75 
 1490      626C6500 
 1491              	.LASF15:
 1492 026b 41495243 		.ascii	"AIRCR\000"
 1492      5200
 1493              	.LASF6:
 1494 0271 756E7369 		.ascii	"unsigned char\000"
 1494      676E6564 
 1494      20636861 
 1494      7200
 1495              	.LASF51:
 1496 027f 41504232 		.ascii	"APB2ENR\000"
 1496      454E5200 
 1497              	.LASF3:
 1498 0287 7369676E 		.ascii	"signed char\000"
 1498      65642063 
 1498      68617200 
 1499              	.LASF11:
 1500 0293 6C6F6E67 		.ascii	"long long unsigned int\000"
 1500      206C6F6E 
 1500      6720756E 
 1500      7369676E 
 1500      65642069 
ARM GAS  /tmp/ccEwhgJx.s 			page 29


 1501              	.LASF16:
 1502 02aa 53484353 		.ascii	"SHCSR\000"
 1502      5200
 1503              	.LASF0:
 1504 02b0 756E7369 		.ascii	"unsigned int\000"
 1504      676E6564 
 1504      20696E74 
 1504      00
 1505              	.LASF10:
 1506 02bd 6C6F6E67 		.ascii	"long unsigned int\000"
 1506      20756E73 
 1506      69676E65 
 1506      6420696E 
 1506      7400
 1507              	.LASF20:
 1508 02cf 4D4D4641 		.ascii	"MMFAR\000"
 1508      5200
 1509              	.LASF72:
 1510 02d5 68616C5F 		.ascii	"hal_lld_init\000"
 1510      6C6C645F 
 1510      696E6974 
 1510      00
 1511              	.LASF38:
 1512 02e2 504C4C43 		.ascii	"PLLCFGR\000"
 1512      46475200 
 1513              	.LASF7:
 1514 02ea 73686F72 		.ascii	"short unsigned int\000"
 1514      7420756E 
 1514      7369676E 
 1514      65642069 
 1514      6E7400
 1515              	.LASF57:
 1516 02fd 41504231 		.ascii	"APB1LPENR\000"
 1516      4C50454E 
 1516      5200
 1517              	.LASF65:
 1518 0307 63686172 		.ascii	"char\000"
 1518      00
 1519              	.LASF14:
 1520 030c 56544F52 		.ascii	"VTOR\000"
 1520      00
 1521              	.LASF24:
 1522 0311 49534152 		.ascii	"ISAR\000"
 1522      00
 1523              	.LASF31:
 1524 0316 4442474D 		.ascii	"DBGMCU_TypeDef\000"
 1524      43555F54 
 1524      79706544 
 1524      656600
 1525              	.LASF19:
 1526 0325 44465352 		.ascii	"DFSR\000"
 1526      00
 1527              	.LASF66:
 1528 032a 5F426F6F 		.ascii	"_Bool\000"
 1528      6C00
 1529              	.LASF70:
 1530 0330 53797374 		.ascii	"SystemCoreClock\000"
ARM GAS  /tmp/ccEwhgJx.s 			page 30


 1530      656D436F 
 1530      7265436C 
 1530      6F636B00 
 1531              	.LASF18:
 1532 0340 48465352 		.ascii	"HFSR\000"
 1532      00
 1533              	.LASF54:
 1534 0345 41484232 		.ascii	"AHB2LPENR\000"
 1534      4C50454E 
 1534      5200
 1535              	.LASF74:
 1536 034f 646D6149 		.ascii	"dmaInit\000"
 1536      6E697400 
 1537              	.LASF23:
 1538 0357 4D4D4652 		.ascii	"MMFR\000"
 1538      00
 1539              	.LASF25:
 1540 035c 52455345 		.ascii	"RESERVED0\000"
 1540      52564544 
 1540      3000
 1541              	.LASF45:
 1542 0366 52455345 		.ascii	"RESERVED1\000"
 1542      52564544 
 1542      3100
 1543              	.LASF49:
 1544 0370 52455345 		.ascii	"RESERVED2\000"
 1544      52564544 
 1544      3200
 1545              	.LASF52:
 1546 037a 52455345 		.ascii	"RESERVED3\000"
 1546      52564544 
 1546      3300
 1547              	.LASF56:
 1548 0384 52455345 		.ascii	"RESERVED4\000"
 1548      52564544 
 1548      3400
 1549              	.LASF59:
 1550 038e 52455345 		.ascii	"RESERVED5\000"
 1550      52564544 
 1550      3500
 1551              	.LASF61:
 1552 0398 52455345 		.ascii	"RESERVED6\000"
 1552      52564544 
 1552      3600
 1553              	.LASF46:
 1554 03a2 41484231 		.ascii	"AHB1ENR\000"
 1554      454E5200 
 1555              	.LASF28:
 1556 03aa 4944434F 		.ascii	"IDCODE\000"
 1556      444500
 1557              	.LASF40:
 1558 03b1 41484231 		.ascii	"AHB1RSTR\000"
 1558      52535452 
 1558      00
 1559              	.LASF22:
 1560 03ba 41465352 		.ascii	"AFSR\000"
 1560      00
ARM GAS  /tmp/ccEwhgJx.s 			page 31


 1561              	.LASF42:
 1562 03bf 41484233 		.ascii	"AHB3RSTR\000"
 1562      52535452 
 1562      00
 1563              	.LASF36:
 1564 03c8 464C4153 		.ascii	"FLASH_TypeDef\000"
 1564      485F5479 
 1564      70654465 
 1564      6600
 1565              	.LASF26:
 1566 03d6 43504143 		.ascii	"CPACR\000"
 1566      5200
 1567              	.LASF58:
 1568 03dc 41504232 		.ascii	"APB2LPENR\000"
 1568      4C50454E 
 1568      5200
 1569              	.LASF34:
 1570 03e6 4F505443 		.ascii	"OPTCR\000"
 1570      5200
 1571              		.ident	"GCC: (15:10.3-2021.07-4) 10.3.1 20210621 (release)"
ARM GAS  /tmp/ccEwhgJx.s 			page 32


DEFINED SYMBOLS
                            *ABS*:0000000000000000 hal_lld.c
     /tmp/ccEwhgJx.s:16     .text.hal_lld_init:0000000000000000 $t
     /tmp/ccEwhgJx.s:25     .text.hal_lld_init:0000000000000000 hal_lld_init
     /tmp/ccEwhgJx.s:128    .text.hal_lld_init:000000000000005c $d
     /tmp/ccEwhgJx.s:134    .text.stm32_clock_init:0000000000000000 $t
     /tmp/ccEwhgJx.s:142    .text.stm32_clock_init:0000000000000000 stm32_clock_init
     /tmp/ccEwhgJx.s:339    .text.stm32_clock_init:00000000000000cc $d
     /tmp/ccEwhgJx.s:356    .data.SystemCoreClock:0000000000000000 SystemCoreClock
     /tmp/ccEwhgJx.s:353    .data.SystemCoreClock:0000000000000000 $d

UNDEFINED SYMBOLS
dmaInit
