ARM GAS  /tmp/ccJxq9Ts.s 			page 1


   1              		.cpu cortex-m4
   2              		.eabi_attribute 20, 1
   3              		.eabi_attribute 21, 1
   4              		.eabi_attribute 23, 3
   5              		.eabi_attribute 24, 1
   6              		.eabi_attribute 25, 1
   7              		.eabi_attribute 26, 1
   8              		.eabi_attribute 30, 2
   9              		.eabi_attribute 34, 1
  10              		.eabi_attribute 18, 4
  11              		.file	"hal_st_lld.c"
  12              		.text
  13              	.Ltext0:
  14              		.cfi_sections	.debug_frame
  15              		.section	.text.VectorB0,"ax",%progbits
  16              		.align	1
  17              		.p2align 4,,15
  18              		.global	VectorB0
  19              		.arch armv7e-m
  20              		.syntax unified
  21              		.thumb
  22              		.thumb_func
  23              		.fpu softvfp
  24              		.type	VectorB0, %function
  25              	VectorB0:
  26              	.LFB277:
  27              		.file 1 "../../../os/hal/ports/STM32/LLD/TIMv1/hal_st_lld.c"
  28              		.loc 1 239 30 view -0
  29              		.cfi_startproc
  30              		@ args = 0, pretend = 0, frame = 0
  31              		@ frame_needed = 0, uses_anonymous_args = 0
  32              		.loc 1 241 3 view .LVU1
  33              		.loc 1 241 3 view .LVU2
  34              		.loc 1 241 3 view .LVU3
  35              		.loc 1 241 3 view .LVU4
  36              		.loc 1 241 3 view .LVU5
  37              		.loc 1 241 22 view .LVU6
  38              		.loc 1 246 3 view .LVU7
  39              		.loc 1 246 20 is_stmt 0 view .LVU8
  40 0000 4FF08043 		mov	r3, #1073741824
  41 0004 1A69     		ldr	r2, [r3, #16]
  42              		.loc 1 246 6 view .LVU9
  43 0006 9207     		lsls	r2, r2, #30
  44 0008 01D4     		bmi	.L11
  45              		.loc 1 254 3 is_stmt 1 view .LVU10
  46              		.loc 1 254 3 view .LVU11
  47              		.loc 1 254 3 view .LVU12
  48              		.loc 1 254 3 view .LVU13
  49              		.loc 1 254 3 view .LVU14
  50 000a FFF7FEBF 		b	_port_irq_epilogue
  51              	.LVL0:
  52              	.L11:
  53              		.loc 1 247 5 view .LVU15
  54              		.loc 1 239 30 is_stmt 0 view .LVU16
  55 000e 10B5     		push	{r4, lr}
  56              		.cfi_def_cfa_offset 8
  57              		.cfi_offset 4, -8
ARM GAS  /tmp/ccJxq9Ts.s 			page 2


  58              		.cfi_offset 14, -4
  59              		.loc 1 247 22 view .LVU17
  60 0010 0024     		movs	r4, #0
  61 0012 1C61     		str	r4, [r3, #16]
  62              		.loc 1 249 5 is_stmt 1 view .LVU18
  63              	.LBB52:
  64              	.LBI52:
  65              		.file 2 "../../../os/hal/osal/rt/osal.h"
  66              		.loc 2 513 20 view .LVU19
  67              	.LBE52:
  68              		.loc 2 515 3 view .LVU20
  69              	.LBB64:
  70              	.LBB53:
  71              	.LBI53:
  72              		.file 3 "../../../os/rt/include/chsys.h"
  73              		.loc 3 414 20 view .LVU21
  74              	.LBE53:
  75              	.LBE64:
  76              		.loc 3 416 3 view .LVU22
  77              	.LBB65:
  78              	.LBB61:
  79              	.LBB54:
  80              	.LBI54:
  81              		.file 4 "../../../os/common/ports/ARMCMx/chcore_v7m.h"
  82              		.loc 4 633 20 view .LVU23
  83              	.LBE54:
  84              	.LBE61:
  85              	.LBE65:
  86              		.loc 4 635 3 view .LVU24
  87              	.LBB66:
  88              	.LBB62:
  89              	.LBB59:
  90              	.LBB55:
  91              	.LBI55:
  92              		.loc 4 594 20 view .LVU25
  93              	.LBE55:
  94              	.LBE59:
  95              	.LBE62:
  96              	.LBE66:
  97              		.loc 4 602 3 view .LVU26
  98              	.LVL1:
  99              	.LBB67:
 100              	.LBB63:
 101              	.LBB60:
 102              	.LBB58:
 103              	.LBB56:
 104              	.LBI56:
 105              		.file 5 "../../../os/common/ext/CMSIS/include/cmsis_gcc.h"
 106              		.loc 5 262 57 view .LVU27
 107              	.LBB57:
 108              		.loc 5 264 3 view .LVU28
 109 0014 2023     		movs	r3, #32
 110              		.syntax unified
 111              	@ 264 "../../../os/common/ext/CMSIS/include/cmsis_gcc.h" 1
 112 0016 83F31188 		MSR basepri, r3
 113              	@ 0 "" 2
 114              	.LVL2:
ARM GAS  /tmp/ccJxq9Ts.s 			page 3


 115              		.loc 5 264 3 is_stmt 0 view .LVU29
 116              		.thumb
 117              		.syntax unified
 118              	.LBE57:
 119              	.LBE56:
 120              	.LBE58:
 121              	.LBE60:
 122              	.LBE63:
 123              	.LBE67:
 124              		.loc 3 417 34 is_stmt 1 view .LVU30
 125              		.loc 3 418 29 view .LVU31
 126              		.loc 1 250 5 view .LVU32
 127              	.LBB68:
 128              	.LBI68:
 129              		.loc 2 583 20 view .LVU33
 130              	.LBB69:
 131              		.loc 2 585 3 view .LVU34
 132 001a FFF7FEFF 		bl	chSysTimerHandlerI
 133              	.LVL3:
 134              	.LBE69:
 135              	.LBE68:
 136              		.loc 1 251 5 view .LVU35
 137              	.LBB70:
 138              	.LBI70:
 139              		.loc 2 524 20 view .LVU36
 140              	.LBB71:
 141              		.loc 2 526 3 view .LVU37
 142              	.LBB72:
 143              	.LBI72:
 144              		.loc 3 434 20 view .LVU38
 145              	.LBE72:
 146              	.LBE71:
 147              	.LBE70:
 148              		.loc 3 436 31 view .LVU39
 149              		.loc 3 437 33 view .LVU40
 150              		.loc 3 438 3 view .LVU41
 151              	.LBB86:
 152              	.LBB83:
 153              	.LBB80:
 154              	.LBB73:
 155              	.LBI73:
 156              		.loc 4 644 20 view .LVU42
 157              	.LBE73:
 158              	.LBE80:
 159              	.LBE83:
 160              	.LBE86:
 161              		.loc 4 646 3 view .LVU43
 162              	.LBB87:
 163              	.LBB84:
 164              	.LBB81:
 165              	.LBB78:
 166              	.LBB74:
 167              	.LBI74:
 168              		.loc 4 618 20 view .LVU44
 169              	.LBE74:
 170              	.LBE78:
 171              	.LBE81:
ARM GAS  /tmp/ccJxq9Ts.s 			page 4


 172              	.LBE84:
 173              	.LBE87:
 174              		.loc 4 621 3 view .LVU45
 175              	.LBB88:
 176              	.LBB85:
 177              	.LBB82:
 178              	.LBB79:
 179              	.LBB77:
 180              	.LBB75:
 181              	.LBI75:
 182              		.loc 5 262 57 view .LVU46
 183              	.LBB76:
 184              		.loc 5 264 3 view .LVU47
 185              		.syntax unified
 186              	@ 264 "../../../os/common/ext/CMSIS/include/cmsis_gcc.h" 1
 187 001e 84F31188 		MSR basepri, r4
 188              	@ 0 "" 2
 189              	.LVL4:
 190              		.loc 5 264 3 is_stmt 0 view .LVU48
 191              		.thumb
 192              		.syntax unified
 193              	.LBE76:
 194              	.LBE75:
 195              	.LBE77:
 196              	.LBE79:
 197              	.LBE82:
 198              	.LBE85:
 199              	.LBE88:
 200              		.loc 1 254 3 is_stmt 1 view .LVU49
 201              		.loc 1 254 3 view .LVU50
 202              		.loc 1 254 3 view .LVU51
 203              		.loc 1 254 3 view .LVU52
 204              		.loc 1 254 3 view .LVU53
 205              		.loc 1 255 1 is_stmt 0 view .LVU54
 206 0022 BDE81040 		pop	{r4, lr}
 207              		.cfi_restore 14
 208              		.cfi_restore 4
 209              		.cfi_def_cfa_offset 0
 210              		.loc 1 254 3 view .LVU55
 211 0026 FFF7FEBF 		b	_port_irq_epilogue
 212              	.LVL5:
 213              		.cfi_endproc
 214              	.LFE277:
 215              		.size	VectorB0, .-VectorB0
 216 002a 00BF     		.section	.text.st_lld_init,"ax",%progbits
 217              		.align	1
 218              		.p2align 4,,15
 219              		.global	st_lld_init
 220              		.syntax unified
 221              		.thumb
 222              		.thumb_func
 223              		.fpu softvfp
 224              		.type	st_lld_init, %function
 225              	st_lld_init:
 226              	.LFB278:
 227              		.loc 1 267 24 is_stmt 1 view -0
 228              		.cfi_startproc
ARM GAS  /tmp/ccJxq9Ts.s 			page 5


 229              		@ args = 0, pretend = 0, frame = 0
 230              		@ frame_needed = 0, uses_anonymous_args = 0
 231              		@ link register save eliminated.
 232              		.loc 1 273 3 view .LVU57
 233 0000 0F49     		ldr	r1, .L14
 234              		.loc 1 276 3 is_stmt 0 view .LVU58
 235 0002 1048     		ldr	r0, .L14+4
 236              		.loc 1 273 3 view .LVU59
 237 0004 0A6C     		ldr	r2, [r1, #64]
 238 0006 42F00102 		orr	r2, r2, #1
 239              		.loc 1 267 24 view .LVU60
 240 000a 30B4     		push	{r4, r5}
 241              		.cfi_def_cfa_offset 8
 242              		.cfi_offset 4, -8
 243              		.cfi_offset 5, -4
 244              		.loc 1 273 3 view .LVU61
 245 000c 0A64     		str	r2, [r1, #64]
 246              		.loc 1 273 3 is_stmt 1 view .LVU62
 247              		.loc 1 273 20 view .LVU63
 248              		.loc 1 276 3 view .LVU64
 249 000e 8168     		ldr	r1, [r0, #8]
 250              		.loc 1 279 24 is_stmt 0 view .LVU65
 251 0010 4FF08043 		mov	r3, #1073741824
 252 0014 42F2CF04 		movw	r4, #8399
 253              		.loc 1 276 3 view .LVU66
 254 0018 41F00101 		orr	r1, r1, #1
 255 001c 8160     		str	r1, [r0, #8]
 256              		.loc 1 279 3 is_stmt 1 view .LVU67
 257              		.loc 1 281 24 is_stmt 0 view .LVU68
 258 001e 0022     		movs	r2, #0
 259              		.loc 1 279 24 view .LVU69
 260 0020 9C62     		str	r4, [r3, #40]
 261              		.loc 1 280 3 is_stmt 1 view .LVU70
 262              		.loc 1 280 24 is_stmt 0 view .LVU71
 263 0022 4FF0FF35 		mov	r5, #-1
 264              		.loc 1 285 24 view .LVU72
 265 0026 0124     		movs	r4, #1
 266              		.loc 1 280 24 view .LVU73
 267 0028 DD62     		str	r5, [r3, #44]
 268              		.loc 1 281 3 is_stmt 1 view .LVU74
 269              		.loc 1 289 3 is_stmt 0 view .LVU75
 270 002a 0821     		movs	r1, #8
 271              		.loc 1 281 24 view .LVU76
 272 002c 9A61     		str	r2, [r3, #24]
 273              		.loc 1 282 3 is_stmt 1 view .LVU77
 274              		.loc 1 289 3 is_stmt 0 view .LVU78
 275 002e 1C20     		movs	r0, #28
 276              		.loc 1 282 24 view .LVU79
 277 0030 5A63     		str	r2, [r3, #52]
 278              		.loc 1 283 3 is_stmt 1 view .LVU80
 279              		.loc 1 283 24 is_stmt 0 view .LVU81
 280 0032 DA60     		str	r2, [r3, #12]
 281              		.loc 1 284 3 is_stmt 1 view .LVU82
 282              		.loc 1 284 24 is_stmt 0 view .LVU83
 283 0034 5A60     		str	r2, [r3, #4]
 284              		.loc 1 285 3 is_stmt 1 view .LVU84
 285              		.loc 1 285 24 is_stmt 0 view .LVU85
ARM GAS  /tmp/ccJxq9Ts.s 			page 6


 286 0036 5C61     		str	r4, [r3, #20]
 287              		.loc 1 286 3 is_stmt 1 view .LVU86
 288              		.loc 1 286 24 is_stmt 0 view .LVU87
 289 0038 1C60     		str	r4, [r3]
 290              		.loc 1 289 3 is_stmt 1 view .LVU88
 291              		.loc 1 304 1 is_stmt 0 view .LVU89
 292 003a 30BC     		pop	{r4, r5}
 293              		.cfi_restore 5
 294              		.cfi_restore 4
 295              		.cfi_def_cfa_offset 0
 296              		.loc 1 289 3 view .LVU90
 297 003c FFF7FEBF 		b	nvicEnableVector
 298              	.LVL6:
 299              	.L15:
 300              		.align	2
 301              	.L14:
 302 0040 00380240 		.word	1073887232
 303 0044 002004E0 		.word	-536600576
 304              		.cfi_endproc
 305              	.LFE278:
 306              		.size	st_lld_init, .-st_lld_init
 307              		.text
 308              	.Letext0:
 309              		.file 6 "../../../os/common/ext/CMSIS/ST/STM32F4xx/stm32f407xx.h"
 310              		.file 7 "/usr/lib/gcc/arm-none-eabi/10.3.1/include/stdint.h"
 311              		.file 8 "../../../os/hal/ports/STM32/LLD/TIMv1/stm32_tim.h"
 312              		.file 9 "../../../os/hal/ports/common/ARMCMx/nvic.h"