ARM GAS  /tmp/ccSg9kuX.s 			page 1


   1              		.cpu cortex-m4
   2              		.eabi_attribute 20, 1
   3              		.eabi_attribute 21, 1
   4              		.eabi_attribute 23, 3
   5              		.eabi_attribute 24, 1
   6              		.eabi_attribute 25, 1
   7              		.eabi_attribute 26, 1
   8              		.eabi_attribute 30, 2
   9              		.eabi_attribute 34, 1
  10              		.eabi_attribute 18, 4
  11              		.file	"hal_serial.c"
  12              		.text
  13              	.Ltext0:
  14              		.cfi_sections	.debug_frame
  15              		.section	.text._readt,"ax",%progbits
  16              		.align	1
  17              		.p2align 4,,15
  18              		.arch armv7e-m
  19              		.syntax unified
  20              		.thumb
  21              		.thumb_func
  22              		.fpu softvfp
  23              		.type	_readt, %function
  24              	_readt:
  25              	.LVL0:
  26              	.LFB284:
  27              		.file 1 "../../../os/hal/src/hal_serial.c"
  28              		.loc 1 87 74 view -0
  29              		.cfi_startproc
  30              		@ args = 0, pretend = 0, frame = 0
  31              		@ frame_needed = 0, uses_anonymous_args = 0
  32              		@ link register save eliminated.
  33              		.loc 1 89 3 view .LVU1
  34              		.loc 1 89 10 is_stmt 0 view .LVU2
  35 0000 0C30     		adds	r0, r0, #12
  36              	.LVL1:
  37              		.loc 1 89 10 view .LVU3
  38 0002 FFF7FEBF 		b	iqReadTimeout
  39              	.LVL2:
  40              		.loc 1 89 10 view .LVU4
  41              		.cfi_endproc
  42              	.LFE284:
  43              		.size	_readt, .-_readt
  44 0006 00BF     		.section	.text._read,"ax",%progbits
  45              		.align	1
  46              		.p2align 4,,15
  47              		.syntax unified
  48              		.thumb
  49              		.thumb_func
  50              		.fpu softvfp
  51              		.type	_read, %function
  52              	_read:
  53              	.LVL3:
  54              	.LFB278:
  55              		.loc 1 56 54 is_stmt 1 view -0
  56              		.cfi_startproc
  57              		@ args = 0, pretend = 0, frame = 0
ARM GAS  /tmp/ccSg9kuX.s 			page 2


  58              		@ frame_needed = 0, uses_anonymous_args = 0
  59              		@ link register save eliminated.
  60              		.loc 1 58 3 view .LVU6
  61              		.loc 1 58 10 is_stmt 0 view .LVU7
  62 0000 4FF0FF33 		mov	r3, #-1
  63 0004 0C30     		adds	r0, r0, #12
  64              	.LVL4:
  65              		.loc 1 58 10 view .LVU8
  66 0006 FFF7FEBF 		b	iqReadTimeout
  67              	.LVL5:
  68              		.loc 1 58 10 view .LVU9
  69              		.cfi_endproc
  70              	.LFE278:
  71              		.size	_read, .-_read
  72 000a 00BF     		.section	.text._writet,"ax",%progbits
  73              		.align	1
  74              		.p2align 4,,15
  75              		.syntax unified
  76              		.thumb
  77              		.thumb_func
  78              		.fpu softvfp
  79              		.type	_writet, %function
  80              	_writet:
  81              	.LVL6:
  82              	.LFB283:
  83              		.loc 1 82 81 is_stmt 1 view -0
  84              		.cfi_startproc
  85              		@ args = 0, pretend = 0, frame = 0
  86              		@ frame_needed = 0, uses_anonymous_args = 0
  87              		@ link register save eliminated.
  88              		.loc 1 84 3 view .LVU11
  89              		.loc 1 84 10 is_stmt 0 view .LVU12
  90 0000 3030     		adds	r0, r0, #48
  91              	.LVL7:
  92              		.loc 1 84 10 view .LVU13
  93 0002 FFF7FEBF 		b	oqWriteTimeout
  94              	.LVL8:
  95              		.loc 1 84 10 view .LVU14
  96              		.cfi_endproc
  97              	.LFE283:
  98              		.size	_writet, .-_writet
  99 0006 00BF     		.section	.text._write,"ax",%progbits
 100              		.align	1
 101              		.p2align 4,,15
 102              		.syntax unified
 103              		.thumb
 104              		.thumb_func
 105              		.fpu softvfp
 106              		.type	_write, %function
 107              	_write:
 108              	.LVL9:
 109              	.LFB277:
 110              		.loc 1 50 61 is_stmt 1 view -0
 111              		.cfi_startproc
 112              		@ args = 0, pretend = 0, frame = 0
 113              		@ frame_needed = 0, uses_anonymous_args = 0
 114              		@ link register save eliminated.
ARM GAS  /tmp/ccSg9kuX.s 			page 3


 115              		.loc 1 52 3 view .LVU16
 116              		.loc 1 52 10 is_stmt 0 view .LVU17
 117 0000 4FF0FF33 		mov	r3, #-1
 118 0004 3030     		adds	r0, r0, #48
 119              	.LVL10:
 120              		.loc 1 52 10 view .LVU18
 121 0006 FFF7FEBF 		b	oqWriteTimeout
 122              	.LVL11:
 123              		.loc 1 52 10 view .LVU19
 124              		.cfi_endproc
 125              	.LFE277:
 126              		.size	_write, .-_write
 127 000a 00BF     		.section	.text._gett,"ax",%progbits
 128              		.align	1
 129              		.p2align 4,,15
 130              		.syntax unified
 131              		.thumb
 132              		.thumb_func
 133              		.fpu softvfp
 134              		.type	_gett, %function
 135              	_gett:
 136              	.LVL12:
 137              	.LFB282:
 138              		.loc 1 77 49 is_stmt 1 view -0
 139              		.cfi_startproc
 140              		@ args = 0, pretend = 0, frame = 0
 141              		@ frame_needed = 0, uses_anonymous_args = 0
 142              		@ link register save eliminated.
 143              		.loc 1 79 3 view .LVU21
 144              		.loc 1 79 10 is_stmt 0 view .LVU22
 145 0000 0C30     		adds	r0, r0, #12
 146              	.LVL13:
 147              		.loc 1 79 10 view .LVU23
 148 0002 FFF7FEBF 		b	iqGetTimeout
 149              	.LVL14:
 150              		.loc 1 79 10 view .LVU24
 151              		.cfi_endproc
 152              	.LFE282:
 153              		.size	_gett, .-_gett
 154 0006 00BF     		.section	.text._get,"ax",%progbits
 155              		.align	1
 156              		.p2align 4,,15
 157              		.syntax unified
 158              		.thumb
 159              		.thumb_func
 160              		.fpu softvfp
 161              		.type	_get, %function
 162              	_get:
 163              	.LVL15:
 164              	.LFB280:
 165              		.loc 1 67 29 is_stmt 1 view -0
 166              		.cfi_startproc
 167              		@ args = 0, pretend = 0, frame = 0
 168              		@ frame_needed = 0, uses_anonymous_args = 0
 169              		@ link register save eliminated.
 170              		.loc 1 69 3 view .LVU26
 171              		.loc 1 69 10 is_stmt 0 view .LVU27
ARM GAS  /tmp/ccSg9kuX.s 			page 4


 172 0000 4FF0FF31 		mov	r1, #-1
 173 0004 0C30     		adds	r0, r0, #12
 174              	.LVL16:
 175              		.loc 1 69 10 view .LVU28
 176 0006 FFF7FEBF 		b	iqGetTimeout
 177              	.LVL17:
 178              		.loc 1 69 10 view .LVU29
 179              		.cfi_endproc
 180              	.LFE280:
 181              		.size	_get, .-_get
 182 000a 00BF     		.section	.text._putt,"ax",%progbits
 183              		.align	1
 184              		.p2align 4,,15
 185              		.syntax unified
 186              		.thumb
 187              		.thumb_func
 188              		.fpu softvfp
 189              		.type	_putt, %function
 190              	_putt:
 191              	.LVL18:
 192              	.LFB281:
 193              		.loc 1 72 60 is_stmt 1 view -0
 194              		.cfi_startproc
 195              		@ args = 0, pretend = 0, frame = 0
 196              		@ frame_needed = 0, uses_anonymous_args = 0
 197              		@ link register save eliminated.
 198              		.loc 1 74 3 view .LVU31
 199              		.loc 1 74 10 is_stmt 0 view .LVU32
 200 0000 3030     		adds	r0, r0, #48
 201              	.LVL19:
 202              		.loc 1 74 10 view .LVU33
 203 0002 FFF7FEBF 		b	oqPutTimeout
 204              	.LVL20:
 205              		.loc 1 74 10 view .LVU34
 206              		.cfi_endproc
 207              	.LFE281:
 208              		.size	_putt, .-_putt
 209 0006 00BF     		.section	.text._put,"ax",%progbits
 210              		.align	1
 211              		.p2align 4,,15
 212              		.syntax unified
 213              		.thumb
 214              		.thumb_func
 215              		.fpu softvfp
 216              		.type	_put, %function
 217              	_put:
 218              	.LVL21:
 219              	.LFB279:
 220              		.loc 1 62 40 is_stmt 1 view -0
 221              		.cfi_startproc
 222              		@ args = 0, pretend = 0, frame = 0
 223              		@ frame_needed = 0, uses_anonymous_args = 0
 224              		@ link register save eliminated.
 225              		.loc 1 64 3 view .LVU36
 226              		.loc 1 64 10 is_stmt 0 view .LVU37
 227 0000 4FF0FF32 		mov	r2, #-1
 228 0004 3030     		adds	r0, r0, #48
ARM GAS  /tmp/ccSg9kuX.s 			page 5


 229              	.LVL22:
 230              		.loc 1 64 10 view .LVU38
 231 0006 FFF7FEBF 		b	oqPutTimeout
 232              	.LVL23:
 233              		.loc 1 64 10 view .LVU39
 234              		.cfi_endproc
 235              	.LFE279:
 236              		.size	_put, .-_put
 237 000a 00BF     		.section	.text.sdInit,"ax",%progbits
 238              		.align	1
 239              		.p2align 4,,15
 240              		.global	sdInit
 241              		.syntax unified
 242              		.thumb
 243              		.thumb_func
 244              		.fpu softvfp
 245              		.type	sdInit, %function
 246              	sdInit:
 247              	.LFB285:
 248              		.loc 1 108 19 is_stmt 1 view -0
 249              		.cfi_startproc
 250              		@ args = 0, pretend = 0, frame = 0
 251              		@ frame_needed = 0, uses_anonymous_args = 0
 252              		@ link register save eliminated.
 253              		.loc 1 110 3 view .LVU41
 254 0000 FFF7FEBF 		b	sd_lld_init
 255              	.LVL24:
 256              		.cfi_endproc
 257              	.LFE285:
 258              		.size	sdInit, .-sdInit
 259              		.section	.text.sdObjectInit,"ax",%progbits
 260              		.align	1
 261              		.p2align 4,,15
 262              		.global	sdObjectInit
 263              		.syntax unified
 264              		.thumb
 265              		.thumb_func
 266              		.fpu softvfp
 267              		.type	sdObjectInit, %function
 268              	sdObjectInit:
 269              	.LVL25:
 270              	.LFB286:
 271              		.loc 1 131 76 view -0
 272              		.cfi_startproc
 273              		@ args = 0, pretend = 0, frame = 0
 274              		@ frame_needed = 0, uses_anonymous_args = 0
 275              		.loc 1 133 3 view .LVU43
 276              		.loc 1 131 76 is_stmt 0 view .LVU44
 277 0000 30B5     		push	{r4, r5, lr}
 278              		.cfi_def_cfa_offset 12
 279              		.cfi_offset 4, -12
 280              		.cfi_offset 5, -8
 281              		.cfi_offset 14, -4
 282              		.loc 1 133 12 view .LVU45
 283 0002 0F4B     		ldr	r3, .L13
 284              		.loc 1 131 76 view .LVU46
 285 0004 0446     		mov	r4, r0
ARM GAS  /tmp/ccSg9kuX.s 			page 6


 286 0006 83B0     		sub	sp, sp, #12
 287              		.cfi_def_cfa_offset 24
 288              		.loc 1 133 12 view .LVU47
 289 0008 40F8043B 		str	r3, [r0], #4
 290              	.LVL26:
 291              		.loc 1 134 3 is_stmt 1 view .LVU48
 292              	.LBB90:
 293              	.LBI90:
 294              		.file 2 "../../../os/hal/osal/rt/osal.h"
 295              		.loc 2 821 20 view .LVU49
 296              	.LBE90:
 297              		.loc 2 823 3 view .LVU50
 298              	.LBB95:
 299              	.LBB91:
 300              	.LBI91:
 301              		.file 3 "../../../os/rt/include/chevents.h"
 302              		.loc 3 170 20 view .LVU51
 303              	.LBB92:
 304              		.loc 3 172 3 view .LVU52
 305              	.LBE92:
 306              	.LBE91:
 307              	.LBE95:
 308              		.loc 1 135 14 is_stmt 0 view .LVU53
 309 000c 4FF0010C 		mov	ip, #1
 310              	.LBB96:
 311              	.LBB94:
 312              	.LBB93:
 313              		.loc 3 172 13 view .LVU54
 314 0010 6060     		str	r0, [r4, #4]
 315              	.LVL27:
 316              		.loc 3 172 13 view .LVU55
 317              	.LBE93:
 318              	.LBE94:
 319              	.LBE96:
 320              		.loc 1 135 3 is_stmt 1 view .LVU56
 321              		.loc 1 135 14 is_stmt 0 view .LVU57
 322 0012 84F808C0 		strb	ip, [r4, #8]
 323              		.loc 1 136 3 is_stmt 1 view .LVU58
 324              		.loc 1 131 76 is_stmt 0 view .LVU59
 325 0016 0B46     		mov	r3, r1
 326 0018 1546     		mov	r5, r2
 327              		.loc 1 136 3 view .LVU60
 328 001a 04F15401 		add	r1, r4, #84
 329              	.LVL28:
 330              		.loc 1 136 3 view .LVU61
 331 001e 04F10C00 		add	r0, r4, #12
 332 0022 1022     		movs	r2, #16
 333              	.LVL29:
 334              		.loc 1 136 3 view .LVU62
 335 0024 0094     		str	r4, [sp]
 336 0026 FFF7FEFF 		bl	iqObjectInit
 337              	.LVL30:
 338              		.loc 1 137 3 is_stmt 1 view .LVU63
 339 002a 0094     		str	r4, [sp]
 340 002c 2B46     		mov	r3, r5
 341 002e 1022     		movs	r2, #16
 342 0030 04F16401 		add	r1, r4, #100
ARM GAS  /tmp/ccSg9kuX.s 			page 7


 343 0034 04F13000 		add	r0, r4, #48
 344 0038 FFF7FEFF 		bl	oqObjectInit
 345              	.LVL31:
 346              		.loc 1 138 1 is_stmt 0 view .LVU64
 347 003c 03B0     		add	sp, sp, #12
 348              		.cfi_def_cfa_offset 12
 349              		@ sp needed
 350 003e 30BD     		pop	{r4, r5, pc}
 351              	.LVL32:
 352              	.L14:
 353              		.loc 1 138 1 view .LVU65
 354              		.align	2
 355              	.L13:
 356 0040 00000000 		.word	.LANCHOR0
 357              		.cfi_endproc
 358              	.LFE286:
 359              		.size	sdObjectInit, .-sdObjectInit
 360              		.section	.text.sdStart,"ax",%progbits
 361              		.align	1
 362              		.p2align 4,,15
 363              		.global	sdStart
 364              		.syntax unified
 365              		.thumb
 366              		.thumb_func
 367              		.fpu softvfp
 368              		.type	sdStart, %function
 369              	sdStart:
 370              	.LVL33:
 371              	.LFB287:
 372              		.loc 1 158 61 is_stmt 1 view -0
 373              		.cfi_startproc
 374              		@ args = 0, pretend = 0, frame = 0
 375              		@ frame_needed = 0, uses_anonymous_args = 0
 376              		.loc 1 160 3 view .LVU67
 377              		.loc 1 160 3 view .LVU68
 378              		.loc 1 160 3 view .LVU69
 379              		.loc 1 162 3 view .LVU70
 380              	.LBB97:
 381              	.LBI97:
 382              		.loc 2 491 20 view .LVU71
 383              	.LBE97:
 384              		.loc 2 493 3 view .LVU72
 385              	.LBB113:
 386              	.LBB98:
 387              	.LBI98:
 388              		.file 4 "../../../os/rt/include/chsys.h"
 389              		.loc 4 374 20 view .LVU73
 390              	.LBE98:
 391              	.LBE113:
 392              		.loc 4 376 3 view .LVU74
 393              	.LBB114:
 394              	.LBB109:
 395              	.LBB99:
 396              	.LBI99:
 397              		.file 5 "../../../os/common/ports/ARMCMx/chcore_v7m.h"
 398              		.loc 5 594 20 view .LVU75
 399              	.LBE99:
ARM GAS  /tmp/ccSg9kuX.s 			page 8


 400              	.LBE109:
 401              	.LBE114:
 402              		.loc 5 602 3 view .LVU76
 403              	.LBB115:
 404              	.LBB110:
 405              	.LBB106:
 406              	.LBB100:
 407              	.LBI100:
 408              		.file 6 "../../../os/common/ext/CMSIS/include/cmsis_gcc.h"
 409              		.loc 6 262 57 view .LVU77
 410              	.LBB101:
 411              		.loc 6 264 3 view .LVU78
 412              	.LBE101:
 413              	.LBE100:
 414              	.LBE106:
 415              	.LBE110:
 416              	.LBE115:
 417              		.loc 1 158 61 is_stmt 0 view .LVU79
 418 0000 10B5     		push	{r4, lr}
 419              		.cfi_def_cfa_offset 8
 420              		.cfi_offset 4, -8
 421              		.cfi_offset 14, -4
 422              	.LBB116:
 423              	.LBB111:
 424              	.LBB107:
 425              	.LBB104:
 426              	.LBB102:
 427              		.loc 6 264 3 view .LVU80
 428 0002 2023     		movs	r3, #32
 429              	.LBE102:
 430              	.LBE104:
 431              	.LBE107:
 432              	.LBE111:
 433              	.LBE116:
 434              		.loc 1 158 61 view .LVU81
 435 0004 0446     		mov	r4, r0
 436              	.LBB117:
 437              	.LBB112:
 438              	.LBB108:
 439              	.LBB105:
 440              	.LBB103:
 441              		.loc 6 264 3 view .LVU82
 442              		.syntax unified
 443              	@ 264 "../../../os/common/ext/CMSIS/include/cmsis_gcc.h" 1
 444 0006 83F31188 		MSR basepri, r3
 445              	@ 0 "" 2
 446              	.LVL34:
 447              		.loc 6 264 3 view .LVU83
 448              		.thumb
 449              		.syntax unified
 450              	.LBE103:
 451              	.LBE105:
 452              	.LBE108:
 453              	.LBE112:
 454              	.LBE117:
 455              		.loc 4 377 34 is_stmt 1 view .LVU84
 456              		.loc 4 378 20 view .LVU85
ARM GAS  /tmp/ccSg9kuX.s 			page 9


 457              		.loc 1 163 3 view .LVU86
 458              		.loc 1 163 3 view .LVU87
 459              		.loc 1 163 3 view .LVU88
 460              		.loc 1 165 3 view .LVU89
 461 000a FFF7FEFF 		bl	sd_lld_start
 462              	.LVL35:
 463              		.loc 1 166 3 view .LVU90
 464              		.loc 1 166 14 is_stmt 0 view .LVU91
 465 000e 0223     		movs	r3, #2
 466 0010 2372     		strb	r3, [r4, #8]
 467              		.loc 1 167 3 is_stmt 1 view .LVU92
 468              	.LBB118:
 469              	.LBI118:
 470              		.loc 2 502 20 view .LVU93
 471              	.LBE118:
 472              		.loc 2 504 3 view .LVU94
 473              	.LBB127:
 474              	.LBB119:
 475              	.LBI119:
 476              		.loc 4 386 20 view .LVU95
 477              	.LBB120:
 478              		.loc 4 388 22 view .LVU96
 479              		.loc 4 389 33 view .LVU97
 480              		.loc 4 395 3 view .LVU98
 481              		.loc 4 395 3 view .LVU99
 482              		.loc 4 395 3 view .LVU100
 483              		.loc 4 399 3 view .LVU101
 484              	.LBB121:
 485              	.LBI121:
 486              		.loc 5 618 20 view .LVU102
 487              	.LBE121:
 488              	.LBE120:
 489              	.LBE119:
 490              	.LBE127:
 491              		.loc 5 621 3 view .LVU103
 492              	.LVL36:
 493              	.LBB128:
 494              	.LBB126:
 495              	.LBB125:
 496              	.LBB124:
 497              	.LBB122:
 498              	.LBI122:
 499              		.loc 6 262 57 view .LVU104
 500              	.LBB123:
 501              		.loc 6 264 3 view .LVU105
 502 0012 0023     		movs	r3, #0
 503              		.syntax unified
 504              	@ 264 "../../../os/common/ext/CMSIS/include/cmsis_gcc.h" 1
 505 0014 83F31188 		MSR basepri, r3
 506              	@ 0 "" 2
 507              	.LVL37:
 508              		.loc 6 264 3 is_stmt 0 view .LVU106
 509              		.thumb
 510              		.syntax unified
 511              	.LBE123:
 512              	.LBE122:
 513              	.LBE124:
ARM GAS  /tmp/ccSg9kuX.s 			page 10


 514              	.LBE125:
 515              	.LBE126:
 516              	.LBE128:
 517              		.loc 1 168 1 view .LVU107
 518 0018 10BD     		pop	{r4, pc}
 519              		.loc 1 168 1 view .LVU108
 520              		.cfi_endproc
 521              	.LFE287:
 522              		.size	sdStart, .-sdStart
 523 001a 00BF     		.section	.text.sdStop,"ax",%progbits
 524              		.align	1
 525              		.p2align 4,,15
 526              		.global	sdStop
 527              		.syntax unified
 528              		.thumb
 529              		.thumb_func
 530              		.fpu softvfp
 531              		.type	sdStop, %function
 532              	sdStop:
 533              	.LVL38:
 534              	.LFB288:
 535              		.loc 1 179 32 is_stmt 1 view -0
 536              		.cfi_startproc
 537              		@ args = 0, pretend = 0, frame = 0
 538              		@ frame_needed = 0, uses_anonymous_args = 0
 539              		.loc 1 181 3 view .LVU110
 540              		.loc 1 181 3 view .LVU111
 541              		.loc 1 181 3 view .LVU112
 542              		.loc 1 183 3 view .LVU113
 543              	.LBB129:
 544              	.LBI129:
 545              		.loc 2 491 20 view .LVU114
 546              	.LBE129:
 547              		.loc 2 493 3 view .LVU115
 548              	.LBB145:
 549              	.LBB130:
 550              	.LBI130:
 551              		.loc 4 374 20 view .LVU116
 552              	.LBE130:
 553              	.LBE145:
 554              		.loc 4 376 3 view .LVU117
 555              	.LBB146:
 556              	.LBB141:
 557              	.LBB131:
 558              	.LBI131:
 559              		.loc 5 594 20 view .LVU118
 560              	.LBE131:
 561              	.LBE141:
 562              	.LBE146:
 563              		.loc 5 602 3 view .LVU119
 564              	.LBB147:
 565              	.LBB142:
 566              	.LBB138:
 567              	.LBB132:
 568              	.LBI132:
 569              		.loc 6 262 57 view .LVU120
 570              	.LBB133:
ARM GAS  /tmp/ccSg9kuX.s 			page 11


 571              		.loc 6 264 3 view .LVU121
 572              	.LBE133:
 573              	.LBE132:
 574              	.LBE138:
 575              	.LBE142:
 576              	.LBE147:
 577              		.loc 1 179 32 is_stmt 0 view .LVU122
 578 0000 10B5     		push	{r4, lr}
 579              		.cfi_def_cfa_offset 8
 580              		.cfi_offset 4, -8
 581              		.cfi_offset 14, -4
 582              	.LBB148:
 583              	.LBB143:
 584              	.LBB139:
 585              	.LBB136:
 586              	.LBB134:
 587              		.loc 6 264 3 view .LVU123
 588 0002 2023     		movs	r3, #32
 589              	.LBE134:
 590              	.LBE136:
 591              	.LBE139:
 592              	.LBE143:
 593              	.LBE148:
 594              		.loc 1 179 32 view .LVU124
 595 0004 0446     		mov	r4, r0
 596              	.LBB149:
 597              	.LBB144:
 598              	.LBB140:
 599              	.LBB137:
 600              	.LBB135:
 601              		.loc 6 264 3 view .LVU125
 602              		.syntax unified
 603              	@ 264 "../../../os/common/ext/CMSIS/include/cmsis_gcc.h" 1
 604 0006 83F31188 		MSR basepri, r3
 605              	@ 0 "" 2
 606              	.LVL39:
 607              		.loc 6 264 3 view .LVU126
 608              		.thumb
 609              		.syntax unified
 610              	.LBE135:
 611              	.LBE137:
 612              	.LBE140:
 613              	.LBE144:
 614              	.LBE149:
 615              		.loc 4 377 34 is_stmt 1 view .LVU127
 616              		.loc 4 378 20 view .LVU128
 617              		.loc 1 185 3 view .LVU129
 618              		.loc 1 185 3 view .LVU130
 619              		.loc 1 185 3 view .LVU131
 620              		.loc 1 188 3 view .LVU132
 621 000a FFF7FEFF 		bl	sd_lld_stop
 622              	.LVL40:
 623              		.loc 1 189 3 view .LVU133
 624              		.loc 1 189 14 is_stmt 0 view .LVU134
 625 000e 0123     		movs	r3, #1
 626 0010 2372     		strb	r3, [r4, #8]
 627              		.loc 1 190 3 is_stmt 1 view .LVU135
ARM GAS  /tmp/ccSg9kuX.s 			page 12


 628 0012 04F13000 		add	r0, r4, #48
 629 0016 FFF7FEFF 		bl	oqResetI
 630              	.LVL41:
 631              		.loc 1 191 3 view .LVU136
 632 001a 04F10C00 		add	r0, r4, #12
 633 001e FFF7FEFF 		bl	iqResetI
 634              	.LVL42:
 635              		.loc 1 192 3 view .LVU137
 636              	.LBB150:
 637              	.LBI150:
 638              		.loc 2 598 20 view .LVU138
 639              	.LBB151:
 640              		.loc 2 600 3 view .LVU139
 641 0022 FFF7FEFF 		bl	chSchRescheduleS
 642              	.LVL43:
 643              	.LBE151:
 644              	.LBE150:
 645              		.loc 1 194 3 view .LVU140
 646              	.LBB152:
 647              	.LBI152:
 648              		.loc 2 502 20 view .LVU141
 649              	.LBE152:
 650              		.loc 2 504 3 view .LVU142
 651              	.LBB161:
 652              	.LBB153:
 653              	.LBI153:
 654              		.loc 4 386 20 view .LVU143
 655              	.LBB154:
 656              		.loc 4 388 22 view .LVU144
 657              		.loc 4 389 33 view .LVU145
 658              		.loc 4 395 3 view .LVU146
 659              		.loc 4 395 3 view .LVU147
 660              		.loc 4 395 3 view .LVU148
 661              		.loc 4 399 3 view .LVU149
 662              	.LBB155:
 663              	.LBI155:
 664              		.loc 5 618 20 view .LVU150
 665              	.LBE155:
 666              	.LBE154:
 667              	.LBE153:
 668              	.LBE161:
 669              		.loc 5 621 3 view .LVU151
 670              	.LBB162:
 671              	.LBB160:
 672              	.LBB159:
 673              	.LBB158:
 674              	.LBB156:
 675              	.LBI156:
 676              		.loc 6 262 57 view .LVU152
 677              	.LBB157:
 678              		.loc 6 264 3 view .LVU153
 679 0026 0023     		movs	r3, #0
 680              		.syntax unified
 681              	@ 264 "../../../os/common/ext/CMSIS/include/cmsis_gcc.h" 1
 682 0028 83F31188 		MSR basepri, r3
 683              	@ 0 "" 2
 684              	.LVL44:
ARM GAS  /tmp/ccSg9kuX.s 			page 13


 685              		.loc 6 264 3 is_stmt 0 view .LVU154
 686              		.thumb
 687              		.syntax unified
 688              	.LBE157:
 689              	.LBE156:
 690              	.LBE158:
 691              	.LBE159:
 692              	.LBE160:
 693              	.LBE162:
 694              		.loc 1 195 1 view .LVU155
 695 002c 10BD     		pop	{r4, pc}
 696              		.loc 1 195 1 view .LVU156
 697              		.cfi_endproc
 698              	.LFE288:
 699              		.size	sdStop, .-sdStop
 700 002e 00BF     		.section	.text.sdIncomingDataI,"ax",%progbits
 701              		.align	1
 702              		.p2align 4,,15
 703              		.global	sdIncomingDataI
 704              		.syntax unified
 705              		.thumb
 706              		.thumb_func
 707              		.fpu softvfp
 708              		.type	sdIncomingDataI, %function
 709              	sdIncomingDataI:
 710              	.LVL45:
 711              	.LFB289:
 712              		.loc 1 213 52 is_stmt 1 view -0
 713              		.cfi_startproc
 714              		@ args = 0, pretend = 0, frame = 0
 715              		@ frame_needed = 0, uses_anonymous_args = 0
 716              		.loc 1 215 23 view .LVU158
 717              		.loc 1 216 3 view .LVU159
 718              		.loc 1 216 3 view .LVU160
 719              		.loc 1 216 3 view .LVU161
 720              		.loc 1 218 3 view .LVU162
 721              		.loc 1 213 52 is_stmt 0 view .LVU163
 722 0000 38B5     		push	{r3, r4, r5, lr}
 723              		.cfi_def_cfa_offset 16
 724              		.cfi_offset 3, -16
 725              		.cfi_offset 4, -12
 726              		.cfi_offset 5, -8
 727              		.cfi_offset 14, -4
 728              		.loc 1 218 7 view .LVU164
 729 0002 4369     		ldr	r3, [r0, #20]
 730              		.loc 1 213 52 view .LVU165
 731 0004 0446     		mov	r4, r0
 732 0006 0D46     		mov	r5, r1
 733              		.loc 1 218 6 view .LVU166
 734 0008 3BB1     		cbz	r3, .L23
 735              		.loc 1 219 43 is_stmt 1 discriminator 1 view .LVU167
 736              		.loc 1 220 3 discriminator 1 view .LVU168
 737              		.loc 1 220 7 is_stmt 0 discriminator 1 view .LVU169
 738 000a 2946     		mov	r1, r5
 739              	.LVL46:
 740              		.loc 1 220 7 discriminator 1 view .LVU170
 741 000c 04F10C00 		add	r0, r4, #12
ARM GAS  /tmp/ccSg9kuX.s 			page 14


 742              	.LVL47:
 743              		.loc 1 220 7 discriminator 1 view .LVU171
 744 0010 FFF7FEFF 		bl	iqPutI
 745              	.LVL48:
 746              		.loc 1 220 6 discriminator 1 view .LVU172
 747 0014 0028     		cmp	r0, #0
 748 0016 0BDB     		blt	.L24
 749              	.L19:
 750              		.loc 1 222 1 view .LVU173
 751 0018 38BD     		pop	{r3, r4, r5, pc}
 752              	.LVL49:
 753              	.L23:
 754              		.loc 1 219 5 is_stmt 1 view .LVU174
 755              	.LBB163:
 756              	.LBI163:
 757              		.loc 2 841 20 view .LVU175
 758              	.LBB164:
 759              		.loc 2 844 3 view .LVU176
 760 001a 0421     		movs	r1, #4
 761              	.LVL50:
 762              		.loc 2 844 3 is_stmt 0 view .LVU177
 763 001c 0844     		add	r0, r0, r1
 764              	.LVL51:
 765              		.loc 2 844 3 view .LVU178
 766 001e FFF7FEFF 		bl	chEvtBroadcastFlagsI
 767              	.LVL52:
 768              		.loc 2 844 3 view .LVU179
 769              	.LBE164:
 770              	.LBE163:
 771              		.loc 1 219 43 is_stmt 1 view .LVU180
 772              		.loc 1 220 3 view .LVU181
 773              		.loc 1 220 7 is_stmt 0 view .LVU182
 774 0022 2946     		mov	r1, r5
 775 0024 04F10C00 		add	r0, r4, #12
 776 0028 FFF7FEFF 		bl	iqPutI
 777              	.LVL53:
 778              		.loc 1 220 6 view .LVU183
 779 002c 0028     		cmp	r0, #0
 780 002e F3DA     		bge	.L19
 781              	.L24:
 782              		.loc 1 221 5 is_stmt 1 view .LVU184
 783              	.LVL54:
 784              	.LBB165:
 785              	.LBI165:
 786              		.loc 2 841 20 view .LVU185
 787              	.LBB166:
 788              		.loc 2 844 3 view .LVU186
 789 0030 201D     		adds	r0, r4, #4
 790              	.LVL55:
 791              		.loc 2 844 3 is_stmt 0 view .LVU187
 792 0032 4FF48061 		mov	r1, #1024
 793              	.LBE166:
 794              	.LBE165:
 795              		.loc 1 222 1 view .LVU188
 796 0036 BDE83840 		pop	{r3, r4, r5, lr}
 797              		.cfi_restore 14
 798              		.cfi_restore 5
ARM GAS  /tmp/ccSg9kuX.s 			page 15


 799              		.cfi_restore 4
 800              		.cfi_restore 3
 801              		.cfi_def_cfa_offset 0
 802              	.LVL56:
 803              	.LBB168:
 804              	.LBB167:
 805              		.loc 2 844 3 view .LVU189
 806 003a FFF7FEBF 		b	chEvtBroadcastFlagsI
 807              	.LVL57:
 808              		.loc 2 844 3 view .LVU190
 809              	.LBE167:
 810              	.LBE168:
 811              		.cfi_endproc
 812              	.LFE289:
 813              		.size	sdIncomingDataI, .-sdIncomingDataI
 814 003e 00BF     		.section	.text.sdRequestDataI,"ax",%progbits
 815              		.align	1
 816              		.p2align 4,,15
 817              		.global	sdRequestDataI
 818              		.syntax unified
 819              		.thumb
 820              		.thumb_func
 821              		.fpu softvfp
 822              		.type	sdRequestDataI, %function
 823              	sdRequestDataI:
 824              	.LVL58:
 825              	.LFB290:
 826              		.loc 1 239 41 is_stmt 1 view -0
 827              		.cfi_startproc
 828              		@ args = 0, pretend = 0, frame = 0
 829              		@ frame_needed = 0, uses_anonymous_args = 0
 830              		.loc 1 240 3 view .LVU192
 831              		.loc 1 242 23 view .LVU193
 832              		.loc 1 243 3 view .LVU194
 833              		.loc 1 243 3 view .LVU195
 834              		.loc 1 243 3 view .LVU196
 835              		.loc 1 245 3 view .LVU197
 836              		.loc 1 239 41 is_stmt 0 view .LVU198
 837 0000 38B5     		push	{r3, r4, r5, lr}
 838              		.cfi_def_cfa_offset 16
 839              		.cfi_offset 3, -16
 840              		.cfi_offset 4, -12
 841              		.cfi_offset 5, -8
 842              		.cfi_offset 14, -4
 843              		.loc 1 239 41 view .LVU199
 844 0002 0546     		mov	r5, r0
 845              		.loc 1 245 7 view .LVU200
 846 0004 3030     		adds	r0, r0, #48
 847              	.LVL59:
 848              		.loc 1 245 7 view .LVU201
 849 0006 FFF7FEFF 		bl	oqGetI
 850              	.LVL60:
 851              		.loc 1 246 3 is_stmt 1 view .LVU202
 852              		.loc 1 246 6 is_stmt 0 view .LVU203
 853 000a 041E     		subs	r4, r0, #0
 854 000c 01DB     		blt	.L28
 855              		.loc 1 249 1 view .LVU204
ARM GAS  /tmp/ccSg9kuX.s 			page 16


 856 000e 2046     		mov	r0, r4
 857              		.loc 1 249 1 view .LVU205
 858 0010 38BD     		pop	{r3, r4, r5, pc}
 859              	.LVL61:
 860              	.L28:
 861              		.loc 1 247 5 is_stmt 1 view .LVU206
 862              	.LBB169:
 863              	.LBI169:
 864              		.loc 2 841 20 view .LVU207
 865              	.LBB170:
 866              		.loc 2 844 3 view .LVU208
 867 0012 281D     		adds	r0, r5, #4
 868              	.LVL62:
 869              		.loc 2 844 3 is_stmt 0 view .LVU209
 870 0014 0821     		movs	r1, #8
 871 0016 FFF7FEFF 		bl	chEvtBroadcastFlagsI
 872              	.LVL63:
 873              		.loc 2 844 3 view .LVU210
 874              	.LBE170:
 875              	.LBE169:
 876              		.loc 1 247 40 is_stmt 1 view .LVU211
 877              		.loc 1 248 3 view .LVU212
 878              		.loc 1 249 1 is_stmt 0 view .LVU213
 879 001a 2046     		mov	r0, r4
 880 001c 38BD     		pop	{r3, r4, r5, pc}
 881              		.loc 1 249 1 view .LVU214
 882              		.cfi_endproc
 883              	.LFE290:
 884              		.size	sdRequestDataI, .-sdRequestDataI
 885 001e 00BF     		.section	.text.sdPutWouldBlock,"ax",%progbits
 886              		.align	1
 887              		.p2align 4,,15
 888              		.global	sdPutWouldBlock
 889              		.syntax unified
 890              		.thumb
 891              		.thumb_func
 892              		.fpu softvfp
 893              		.type	sdPutWouldBlock, %function
 894              	sdPutWouldBlock:
 895              	.LVL64:
 896              	.LFB291:
 897              		.loc 1 266 41 is_stmt 1 view -0
 898              		.cfi_startproc
 899              		@ args = 0, pretend = 0, frame = 0
 900              		@ frame_needed = 0, uses_anonymous_args = 0
 901              		@ link register save eliminated.
 902              		.loc 1 267 3 view .LVU216
 903              		.loc 1 269 3 view .LVU217
 904              	.LBB171:
 905              	.LBI171:
 906              		.loc 2 491 20 view .LVU218
 907              	.LBE171:
 908              		.loc 2 493 3 view .LVU219
 909              	.LBB179:
 910              	.LBB172:
 911              	.LBI172:
 912              		.loc 4 374 20 view .LVU220
ARM GAS  /tmp/ccSg9kuX.s 			page 17


 913              	.LBE172:
 914              	.LBE179:
 915              		.loc 4 376 3 view .LVU221
 916              	.LBB180:
 917              	.LBB177:
 918              	.LBB173:
 919              	.LBI173:
 920              		.loc 5 594 20 view .LVU222
 921              	.LBE173:
 922              	.LBE177:
 923              	.LBE180:
 924              		.loc 5 602 3 view .LVU223
 925              	.LBB181:
 926              	.LBB178:
 927              	.LBB176:
 928              	.LBB174:
 929              	.LBI174:
 930              		.loc 6 262 57 view .LVU224
 931              	.LBB175:
 932              		.loc 6 264 3 view .LVU225
 933 0000 2023     		movs	r3, #32
 934              		.syntax unified
 935              	@ 264 "../../../os/common/ext/CMSIS/include/cmsis_gcc.h" 1
 936 0002 83F31188 		MSR basepri, r3
 937              	@ 0 "" 2
 938              	.LVL65:
 939              		.loc 6 264 3 is_stmt 0 view .LVU226
 940              		.thumb
 941              		.syntax unified
 942              	.LBE175:
 943              	.LBE174:
 944              	.LBE176:
 945              	.LBE178:
 946              	.LBE181:
 947              		.loc 4 377 34 is_stmt 1 view .LVU227
 948              		.loc 4 378 20 view .LVU228
 949              		.loc 1 270 3 view .LVU229
 950              	.LBB182:
 951              	.LBB183:
 952              	.LBB184:
 953              	.LBB185:
 954              	.LBB186:
 955              	.LBB187:
 956              		.loc 6 264 3 is_stmt 0 view .LVU230
 957 0006 0023     		movs	r3, #0
 958              	.LBE187:
 959              	.LBE186:
 960              	.LBE185:
 961              	.LBE184:
 962              	.LBE183:
 963              	.LBE182:
 964              		.loc 1 270 7 view .LVU231
 965 0008 806B     		ldr	r0, [r0, #56]
 966              	.LVL66:
 967              		.loc 1 271 3 is_stmt 1 view .LVU232
 968              	.LBB196:
 969              	.LBI182:
ARM GAS  /tmp/ccSg9kuX.s 			page 18


 970              		.loc 2 502 20 view .LVU233
 971              	.LBE196:
 972              		.loc 2 504 3 view .LVU234
 973              	.LBB197:
 974              	.LBB194:
 975              	.LBI183:
 976              		.loc 4 386 20 view .LVU235
 977              	.LBB192:
 978              		.loc 4 388 22 view .LVU236
 979              		.loc 4 389 33 view .LVU237
 980              		.loc 4 395 3 view .LVU238
 981              		.loc 4 395 3 view .LVU239
 982              		.loc 4 395 3 view .LVU240
 983              		.loc 4 399 3 view .LVU241
 984              	.LBB190:
 985              	.LBI185:
 986              		.loc 5 618 20 view .LVU242
 987              	.LBE190:
 988              	.LBE192:
 989              	.LBE194:
 990              	.LBE197:
 991              		.loc 5 621 3 view .LVU243
 992              	.LBB198:
 993              	.LBB195:
 994              	.LBB193:
 995              	.LBB191:
 996              	.LBB189:
 997              	.LBI186:
 998              		.loc 6 262 57 view .LVU244
 999              	.LBB188:
 1000              		.loc 6 264 3 view .LVU245
 1001              		.syntax unified
 1002              	@ 264 "../../../os/common/ext/CMSIS/include/cmsis_gcc.h" 1
 1003 000a 83F31188 		MSR basepri, r3
 1004              	@ 0 "" 2
 1005              	.LVL67:
 1006              		.loc 6 264 3 is_stmt 0 view .LVU246
 1007              		.thumb
 1008              		.syntax unified
 1009              	.LBE188:
 1010              	.LBE189:
 1011              	.LBE191:
 1012              	.LBE193:
 1013              	.LBE195:
 1014              	.LBE198:
 1015              		.loc 1 273 3 is_stmt 1 view .LVU247
 1016              		.loc 1 274 1 is_stmt 0 view .LVU248
 1017 000e B0FA80F0 		clz	r0, r0
 1018              	.LVL68:
 1019              		.loc 1 274 1 view .LVU249
 1020 0012 4009     		lsrs	r0, r0, #5
 1021 0014 7047     		bx	lr
 1022              		.cfi_endproc
 1023              	.LFE291:
 1024              		.size	sdPutWouldBlock, .-sdPutWouldBlock
 1025 0016 00BF     		.section	.text.sdGetWouldBlock,"ax",%progbits
 1026              		.align	1
ARM GAS  /tmp/ccSg9kuX.s 			page 19


 1027              		.p2align 4,,15
 1028              		.global	sdGetWouldBlock
 1029              		.syntax unified
 1030              		.thumb
 1031              		.thumb_func
 1032              		.fpu softvfp
 1033              		.type	sdGetWouldBlock, %function
 1034              	sdGetWouldBlock:
 1035              	.LVL69:
 1036              	.LFB292:
 1037              		.loc 1 291 41 is_stmt 1 view -0
 1038              		.cfi_startproc
 1039              		@ args = 0, pretend = 0, frame = 0
 1040              		@ frame_needed = 0, uses_anonymous_args = 0
 1041              		@ link register save eliminated.
 1042              		.loc 1 292 3 view .LVU251
 1043              		.loc 1 294 3 view .LVU252
 1044              	.LBB199:
 1045              	.LBI199:
 1046              		.loc 2 491 20 view .LVU253
 1047              	.LBE199:
 1048              		.loc 2 493 3 view .LVU254
 1049              	.LBB207:
 1050              	.LBB200:
 1051              	.LBI200:
 1052              		.loc 4 374 20 view .LVU255
 1053              	.LBE200:
 1054              	.LBE207:
 1055              		.loc 4 376 3 view .LVU256
 1056              	.LBB208:
 1057              	.LBB205:
 1058              	.LBB201:
 1059              	.LBI201:
 1060              		.loc 5 594 20 view .LVU257
 1061              	.LBE201:
 1062              	.LBE205:
 1063              	.LBE208:
 1064              		.loc 5 602 3 view .LVU258
 1065              	.LBB209:
 1066              	.LBB206:
 1067              	.LBB204:
 1068              	.LBB202:
 1069              	.LBI202:
 1070              		.loc 6 262 57 view .LVU259
 1071              	.LBB203:
 1072              		.loc 6 264 3 view .LVU260
 1073 0000 2023     		movs	r3, #32
 1074              		.syntax unified
 1075              	@ 264 "../../../os/common/ext/CMSIS/include/cmsis_gcc.h" 1
 1076 0002 83F31188 		MSR basepri, r3
 1077              	@ 0 "" 2
 1078              	.LVL70:
 1079              		.loc 6 264 3 is_stmt 0 view .LVU261
 1080              		.thumb
 1081              		.syntax unified
 1082              	.LBE203:
 1083              	.LBE202:
ARM GAS  /tmp/ccSg9kuX.s 			page 20


 1084              	.LBE204:
 1085              	.LBE206:
 1086              	.LBE209:
 1087              		.loc 4 377 34 is_stmt 1 view .LVU262
 1088              		.loc 4 378 20 view .LVU263
 1089              		.loc 1 295 3 view .LVU264
 1090              	.LBB210:
 1091              	.LBB211:
 1092              	.LBB212:
 1093              	.LBB213:
 1094              	.LBB214:
 1095              	.LBB215:
 1096              		.loc 6 264 3 is_stmt 0 view .LVU265
 1097 0006 0023     		movs	r3, #0
 1098              	.LBE215:
 1099              	.LBE214:
 1100              	.LBE213:
 1101              	.LBE212:
 1102              	.LBE211:
 1103              	.LBE210:
 1104              		.loc 1 295 7 view .LVU266
 1105 0008 4069     		ldr	r0, [r0, #20]
 1106              	.LVL71:
 1107              		.loc 1 296 3 is_stmt 1 view .LVU267
 1108              	.LBB224:
 1109              	.LBI210:
 1110              		.loc 2 502 20 view .LVU268
 1111              	.LBE224:
 1112              		.loc 2 504 3 view .LVU269
 1113              	.LBB225:
 1114              	.LBB222:
 1115              	.LBI211:
 1116              		.loc 4 386 20 view .LVU270
 1117              	.LBB220:
 1118              		.loc 4 388 22 view .LVU271
 1119              		.loc 4 389 33 view .LVU272
 1120              		.loc 4 395 3 view .LVU273
 1121              		.loc 4 395 3 view .LVU274
 1122              		.loc 4 395 3 view .LVU275
 1123              		.loc 4 399 3 view .LVU276
 1124              	.LBB218:
 1125              	.LBI213:
 1126              		.loc 5 618 20 view .LVU277
 1127              	.LBE218:
 1128              	.LBE220:
 1129              	.LBE222:
 1130              	.LBE225:
 1131              		.loc 5 621 3 view .LVU278
 1132              	.LBB226:
 1133              	.LBB223:
 1134              	.LBB221:
 1135              	.LBB219:
 1136              	.LBB217:
 1137              	.LBI214:
 1138              		.loc 6 262 57 view .LVU279
 1139              	.LBB216:
 1140              		.loc 6 264 3 view .LVU280
ARM GAS  /tmp/ccSg9kuX.s 			page 21


 1141              		.syntax unified
 1142              	@ 264 "../../../os/common/ext/CMSIS/include/cmsis_gcc.h" 1
 1143 000a 83F31188 		MSR basepri, r3
 1144              	@ 0 "" 2
 1145              	.LVL72:
 1146              		.loc 6 264 3 is_stmt 0 view .LVU281
 1147              		.thumb
 1148              		.syntax unified
 1149              	.LBE216:
 1150              	.LBE217:
 1151              	.LBE219:
 1152              	.LBE221:
 1153              	.LBE223:
 1154              	.LBE226:
 1155              		.loc 1 298 3 is_stmt 1 view .LVU282
 1156              		.loc 1 299 1 is_stmt 0 view .LVU283
 1157 000e B0FA80F0 		clz	r0, r0
 1158              	.LVL73:
 1159              		.loc 1 299 1 view .LVU284
 1160 0012 4009     		lsrs	r0, r0, #5
 1161 0014 7047     		bx	lr
 1162              		.cfi_endproc
 1163              	.LFE292:
 1164              		.size	sdGetWouldBlock, .-sdGetWouldBlock
 1165 0016 00BF     		.section	.rodata.vmt,"a"
 1166              		.align	2
 1167              		.set	.LANCHOR0,. + 0
 1168              		.type	vmt, %object
 1169              		.size	vmt, 32
 1170              	vmt:
 1171 0000 00000000 		.word	_write
 1172 0004 00000000 		.word	_read
 1173 0008 00000000 		.word	_put
 1174 000c 00000000 		.word	_get
 1175 0010 00000000 		.word	_putt
 1176 0014 00000000 		.word	_gett
 1177 0018 00000000 		.word	_writet
 1178 001c 00000000 		.word	_readt
 1179              		.text
 1180              	.Letext0:
 1181              		.file 7 "/usr/lib/gcc/arm-none-eabi/10.3.1/include/stddef.h"
 1182              		.file 8 "/usr/lib/gcc/arm-none-eabi/10.3.1/include/stdint.h"
 1183              		.file 9 "../../../os/common/ports/ARMCMx/compilers/GCC/chtypes.h"
 1184              		.file 10 "../../../os/rt/include/chsystypes.h"
 1185              		.file 11 "../../../os/rt/include/chschd.h"
 1186              		.file 12 "../../../os/common/ext/CMSIS/ST/STM32F4xx/stm32f407xx.h"
 1187              		.file 13 "../../../os/common/ports/ARMCMx/chcore.h"
 1188              		.file 14 "../../../os/rt/include/chsem.h"
 1189              		.file 15 "../../../os/rt/include/chmtx.h"
 1190              		.file 16 "../../../os/hal/include/hal_queues.h"
 1191              		.file 17 "../../../os/hal/include/hal_serial.h"
 1192              		.file 18 "../../../os/hal/ports/STM32/LLD/USARTv1/hal_serial_lld.h"