ARM GAS  /tmp/ccdwKoDL.s 			page 1


   1              		.cpu cortex-m4
   2              		.eabi_attribute 20, 1
   3              		.eabi_attribute 21, 1
   4              		.eabi_attribute 23, 3
   5              		.eabi_attribute 24, 1
   6              		.eabi_attribute 25, 1
   7              		.eabi_attribute 26, 1
   8              		.eabi_attribute 30, 2
   9              		.eabi_attribute 34, 1
  10              		.eabi_attribute 18, 4
  11              		.file	"hal_st.c"
  12              		.text
  13              	.Ltext0:
  14              		.cfi_sections	.debug_frame
  15              		.section	.text.stInit,"ax",%progbits
  16              		.align	1
  17              		.p2align 4,,15
  18              		.global	stInit
  19              		.arch armv7e-m
  20              		.syntax unified
  21              		.thumb
  22              		.thumb_func
  23              		.fpu softvfp
  24              		.type	stInit, %function
  25              	stInit:
  26              	.LFB277:
  27              		.file 1 "../../../os/hal/src/hal_st.c"
  28              		.loc 1 60 19 view -0
  29              		.cfi_startproc
  30              		@ args = 0, pretend = 0, frame = 0
  31              		@ frame_needed = 0, uses_anonymous_args = 0
  32              		@ link register save eliminated.
  33              		.loc 1 62 3 view .LVU1
  34 0000 FFF7FEBF 		b	st_lld_init
  35              	.LVL0:
  36              		.cfi_endproc
  37              	.LFE277:
  38              		.size	stInit, .-stInit
  39              		.section	.text.stStartAlarm,"ax",%progbits
  40              		.align	1
  41              		.p2align 4,,15
  42              		.global	stStartAlarm
  43              		.syntax unified
  44              		.thumb
  45              		.thumb_func
  46              		.fpu softvfp
  47              		.type	stStartAlarm, %function
  48              	stStartAlarm:
  49              	.LVL1:
  50              	.LFB278:
  51              		.loc 1 76 38 view -0
  52              		.cfi_startproc
  53              		@ args = 0, pretend = 0, frame = 0
  54              		@ frame_needed = 0, uses_anonymous_args = 0
  55              		@ link register save eliminated.
  56              		.loc 1 78 3 view .LVU3
  57              		.loc 1 78 3 view .LVU4
ARM GAS  /tmp/ccdwKoDL.s 			page 2


  58              		.loc 1 78 3 view .LVU5
  59              		.loc 1 80 3 view .LVU6
  60              	.LBB10:
  61              	.LBB11:
  62              		.file 2 "../../../os/hal/ports/STM32/LLD/TIMv1/hal_st_lld.h"
  63              		.loc 2 155 24 is_stmt 0 view .LVU7
  64 0000 4FF08043 		mov	r3, #1073741824
  65              	.LVL2:
  66              		.loc 2 155 24 view .LVU8
  67              	.LBE11:
  68              	.LBI10:
  69              		.loc 2 153 20 is_stmt 1 view .LVU9
  70              	.LBB12:
  71              		.loc 2 155 3 view .LVU10
  72              		.loc 2 156 24 is_stmt 0 view .LVU11
  73 0004 0021     		movs	r1, #0
  74              		.loc 2 157 24 view .LVU12
  75 0006 0222     		movs	r2, #2
  76              		.loc 2 155 24 view .LVU13
  77 0008 5863     		str	r0, [r3, #52]
  78              		.loc 2 156 3 is_stmt 1 view .LVU14
  79              		.loc 2 156 24 is_stmt 0 view .LVU15
  80 000a 1961     		str	r1, [r3, #16]
  81              		.loc 2 157 3 is_stmt 1 view .LVU16
  82              		.loc 2 157 24 is_stmt 0 view .LVU17
  83 000c DA60     		str	r2, [r3, #12]
  84              	.LVL3:
  85              		.loc 2 157 24 view .LVU18
  86              	.LBE12:
  87              	.LBE10:
  88              		.loc 1 81 1 view .LVU19
  89 000e 7047     		bx	lr
  90              		.cfi_endproc
  91              	.LFE278:
  92              		.size	stStartAlarm, .-stStartAlarm
  93              		.section	.text.stStopAlarm,"ax",%progbits
  94              		.align	1
  95              		.p2align 4,,15
  96              		.global	stStopAlarm
  97              		.syntax unified
  98              		.thumb
  99              		.thumb_func
 100              		.fpu softvfp
 101              		.type	stStopAlarm, %function
 102              	stStopAlarm:
 103              	.LFB279:
 104              		.loc 1 90 24 is_stmt 1 view -0
 105              		.cfi_startproc
 106              		@ args = 0, pretend = 0, frame = 0
 107              		@ frame_needed = 0, uses_anonymous_args = 0
 108              		@ link register save eliminated.
 109              		.loc 1 92 3 view .LVU21
 110              	.LBB13:
 111              	.LBI13:
 112              		.loc 2 165 20 view .LVU22
 113              	.LBB14:
 114              		.loc 2 167 3 view .LVU23
ARM GAS  /tmp/ccdwKoDL.s 			page 3


 115              		.loc 2 167 22 is_stmt 0 view .LVU24
 116 0000 4FF08043 		mov	r3, #1073741824
 117 0004 0022     		movs	r2, #0
 118 0006 DA60     		str	r2, [r3, #12]
 119              	.LBE14:
 120              	.LBE13:
 121              		.loc 1 93 1 view .LVU25
 122 0008 7047     		bx	lr
 123              		.cfi_endproc
 124              	.LFE279:
 125              		.size	stStopAlarm, .-stStopAlarm
 126 000a 00BF     		.section	.text.stSetAlarm,"ax",%progbits
 127              		.align	1
 128              		.p2align 4,,15
 129              		.global	stSetAlarm
 130              		.syntax unified
 131              		.thumb
 132              		.thumb_func
 133              		.fpu softvfp
 134              		.type	stSetAlarm, %function
 135              	stSetAlarm:
 136              	.LVL4:
 137              	.LFB280:
 138              		.loc 1 104 36 is_stmt 1 view -0
 139              		.cfi_startproc
 140              		@ args = 0, pretend = 0, frame = 0
 141              		@ frame_needed = 0, uses_anonymous_args = 0
 142              		@ link register save eliminated.
 143              		.loc 1 106 3 view .LVU27
 144              		.loc 1 106 3 view .LVU28
 145              		.loc 1 106 3 view .LVU29
 146              		.loc 1 108 3 view .LVU30
 147              	.LBB15:
 148              	.LBB16:
 149              		.loc 2 179 24 is_stmt 0 view .LVU31
 150 0000 4FF08043 		mov	r3, #1073741824
 151              	.LVL5:
 152              		.loc 2 179 24 view .LVU32
 153              	.LBE16:
 154              	.LBI15:
 155              		.loc 2 177 20 is_stmt 1 view .LVU33
 156              	.LBB17:
 157              		.loc 2 179 3 view .LVU34
 158              		.loc 2 179 24 is_stmt 0 view .LVU35
 159 0004 5863     		str	r0, [r3, #52]
 160              	.LVL6:
 161              		.loc 2 179 24 view .LVU36
 162              	.LBE17:
 163              	.LBE15:
 164              		.loc 1 109 1 view .LVU37
 165 0006 7047     		bx	lr
 166              		.cfi_endproc
 167              	.LFE280:
 168              		.size	stSetAlarm, .-stSetAlarm
 169              		.section	.text.stGetAlarm,"ax",%progbits
 170              		.align	1
 171              		.p2align 4,,15
ARM GAS  /tmp/ccdwKoDL.s 			page 4


 172              		.global	stGetAlarm
 173              		.syntax unified
 174              		.thumb
 175              		.thumb_func
 176              		.fpu softvfp
 177              		.type	stGetAlarm, %function
 178              	stGetAlarm:
 179              	.LFB281:
 180              		.loc 1 120 28 is_stmt 1 view -0
 181              		.cfi_startproc
 182              		@ args = 0, pretend = 0, frame = 0
 183              		@ frame_needed = 0, uses_anonymous_args = 0
 184              		@ link register save eliminated.
 185              		.loc 1 122 3 view .LVU39
 186              		.loc 1 122 3 view .LVU40
 187              		.loc 1 122 3 view .LVU41
 188              		.loc 1 124 3 view .LVU42
 189              	.LBB18:
 190              	.LBI18:
 191              		.loc 2 189 25 view .LVU43
 192              	.LBB19:
 193              		.loc 2 191 3 view .LVU44
 194              		.loc 2 191 10 is_stmt 0 view .LVU45
 195 0000 4FF08043 		mov	r3, #1073741824
 196 0004 586B     		ldr	r0, [r3, #52]
 197              	.LBE19:
 198              	.LBE18:
 199              		.loc 1 125 1 view .LVU46
 200 0006 7047     		bx	lr
 201              		.cfi_endproc
 202              	.LFE281:
 203              		.size	stGetAlarm, .-stGetAlarm
 204              		.text
 205              	.Letext0:
 206              		.file 3 "/usr/lib/gcc/arm-none-eabi/10.3.1/include/stdint.h"
 207              		.file 4 "../../../os/rt/include/chsystypes.h"
 208              		.file 5 "../../../os/hal/ports/STM32/LLD/TIMv1/stm32_tim.h"
 209              		.section	.debug_info,"",%progbits
 210              	.Ldebug_info0:
 211 0000 9E030000 		.4byte	0x39e
 212 0004 0400     		.2byte	0x4
 213 0006 00000000 		.4byte	.Ldebug_abbrev0
 214 000a 04       		.byte	0x4
 215 000b 01       		.uleb128 0x1
 216 000c 06010000 		.4byte	.LASF33
 217 0010 0C       		.byte	0xc
 218 0011 4C000000 		.4byte	.LASF34
 219 0015 C3000000 		.4byte	.LASF35
 220 0019 00000000 		.4byte	.Ldebug_ranges0+0
 221 001d 00000000 		.4byte	0
 222 0021 00000000 		.4byte	.Ldebug_line0
 223 0025 02       		.uleb128 0x2
 224 0026 04       		.byte	0x4
 225 0027 05       		.byte	0x5
 226 0028 696E7400 		.ascii	"int\000"
 227 002c 03       		.uleb128 0x3
 228 002d 04       		.byte	0x4
ARM GAS  /tmp/ccdwKoDL.s 			page 5


 229 002e 07       		.byte	0x7
 230 002f F5010000 		.4byte	.LASF0
 231 0033 03       		.uleb128 0x3
 232 0034 08       		.byte	0x8
 233 0035 05       		.byte	0x5
 234 0036 20020000 		.4byte	.LASF1
 235 003a 03       		.uleb128 0x3
 236 003b 08       		.byte	0x8
 237 003c 04       		.byte	0x4
 238 003d 78020000 		.4byte	.LASF2
 239 0041 03       		.uleb128 0x3
 240 0042 01       		.byte	0x1
 241 0043 06       		.byte	0x6
 242 0044 84020000 		.4byte	.LASF3
 243 0048 03       		.uleb128 0x3
 244 0049 02       		.byte	0x2
 245 004a 05       		.byte	0x5
 246 004b DA010000 		.4byte	.LASF4
 247 004f 03       		.uleb128 0x3
 248 0050 04       		.byte	0x4
 249 0051 05       		.byte	0x5
 250 0052 64020000 		.4byte	.LASF5
 251 0056 03       		.uleb128 0x3
 252 0057 01       		.byte	0x1
 253 0058 08       		.byte	0x8
 254 0059 92000000 		.4byte	.LASF6
 255 005d 03       		.uleb128 0x3
 256 005e 02       		.byte	0x2
 257 005f 07       		.byte	0x7
 258 0060 0F000000 		.4byte	.LASF7
 259 0064 04       		.uleb128 0x4
 260 0065 5B020000 		.4byte	.LASF10
 261 0069 03       		.byte	0x3
 262 006a 34       		.byte	0x34
 263 006b 19       		.byte	0x19
 264 006c 75000000 		.4byte	0x75
 265 0070 05       		.uleb128 0x5
 266 0071 64000000 		.4byte	0x64
 267 0075 03       		.uleb128 0x3
 268 0076 04       		.byte	0x4
 269 0077 07       		.byte	0x7
 270 0078 A0000000 		.4byte	.LASF8
 271 007c 03       		.uleb128 0x3
 272 007d 08       		.byte	0x8
 273 007e 07       		.byte	0x7
 274 007f 96020000 		.4byte	.LASF9
 275 0083 04       		.uleb128 0x4
 276 0084 05000000 		.4byte	.LASF11
 277 0088 04       		.byte	0x4
 278 0089 33       		.byte	0x33
 279 008a 12       		.byte	0x12
 280 008b 64000000 		.4byte	0x64
 281 008f 06       		.uleb128 0x6
 282 0090 70000000 		.4byte	0x70
 283 0094 9F000000 		.4byte	0x9f
 284 0098 07       		.uleb128 0x7
 285 0099 2C000000 		.4byte	0x2c
ARM GAS  /tmp/ccdwKoDL.s 			page 6


 286 009d 01       		.byte	0x1
 287 009e 00       		.byte	0
 288 009f 05       		.uleb128 0x5
 289 00a0 8F000000 		.4byte	0x8f
 290 00a4 06       		.uleb128 0x6
 291 00a5 70000000 		.4byte	0x70
 292 00a9 B4000000 		.4byte	0xb4
 293 00ad 07       		.uleb128 0x7
 294 00ae 2C000000 		.4byte	0x2c
 295 00b2 03       		.byte	0x3
 296 00b3 00       		.byte	0
 297 00b4 05       		.uleb128 0x5
 298 00b5 A4000000 		.4byte	0xa4
 299 00b9 08       		.uleb128 0x8
 300 00ba 60       		.byte	0x60
 301 00bb 05       		.byte	0x5
 302 00bc A101     		.2byte	0x1a1
 303 00be 09       		.byte	0x9
 304 00bf DA010000 		.4byte	0x1da
 305 00c3 09       		.uleb128 0x9
 306 00c4 43523100 		.ascii	"CR1\000"
 307 00c8 05       		.byte	0x5
 308 00c9 A201     		.2byte	0x1a2
 309 00cb 19       		.byte	0x19
 310 00cc 70000000 		.4byte	0x70
 311 00d0 00       		.byte	0
 312 00d1 09       		.uleb128 0x9
 313 00d2 43523200 		.ascii	"CR2\000"
 314 00d6 05       		.byte	0x5
 315 00d7 A301     		.2byte	0x1a3
 316 00d9 19       		.byte	0x19
 317 00da 70000000 		.4byte	0x70
 318 00de 04       		.byte	0x4
 319 00df 0A       		.uleb128 0xa
 320 00e0 44020000 		.4byte	.LASF12
 321 00e4 05       		.byte	0x5
 322 00e5 A401     		.2byte	0x1a4
 323 00e7 19       		.byte	0x19
 324 00e8 70000000 		.4byte	0x70
 325 00ec 08       		.byte	0x8
 326 00ed 0A       		.uleb128 0xa
 327 00ee 69000000 		.4byte	.LASF13
 328 00f2 05       		.byte	0x5
 329 00f3 A501     		.2byte	0x1a5
 330 00f5 19       		.byte	0x19
 331 00f6 70000000 		.4byte	0x70
 332 00fa 0C       		.byte	0xc
 333 00fb 09       		.uleb128 0x9
 334 00fc 535200   		.ascii	"SR\000"
 335 00ff 05       		.byte	0x5
 336 0100 A601     		.2byte	0x1a6
 337 0102 19       		.byte	0x19
 338 0103 70000000 		.4byte	0x70
 339 0107 10       		.byte	0x10
 340 0108 09       		.uleb128 0x9
 341 0109 45475200 		.ascii	"EGR\000"
 342 010d 05       		.byte	0x5
ARM GAS  /tmp/ccdwKoDL.s 			page 7


 343 010e A701     		.2byte	0x1a7
 344 0110 19       		.byte	0x19
 345 0111 70000000 		.4byte	0x70
 346 0115 14       		.byte	0x14
 347 0116 0A       		.uleb128 0xa
 348 0117 49020000 		.4byte	.LASF14
 349 011b 05       		.byte	0x5
 350 011c A801     		.2byte	0x1a8
 351 011e 19       		.byte	0x19
 352 011f 70000000 		.4byte	0x70
 353 0123 18       		.byte	0x18
 354 0124 0A       		.uleb128 0xa
 355 0125 4F020000 		.4byte	.LASF15
 356 0129 05       		.byte	0x5
 357 012a A901     		.2byte	0x1a9
 358 012c 19       		.byte	0x19
 359 012d 70000000 		.4byte	0x70
 360 0131 1C       		.byte	0x1c
 361 0132 0A       		.uleb128 0xa
 362 0133 3F020000 		.4byte	.LASF16
 363 0137 05       		.byte	0x5
 364 0138 AA01     		.2byte	0x1aa
 365 013a 19       		.byte	0x19
 366 013b 70000000 		.4byte	0x70
 367 013f 20       		.byte	0x20
 368 0140 09       		.uleb128 0x9
 369 0141 434E5400 		.ascii	"CNT\000"
 370 0145 05       		.byte	0x5
 371 0146 AB01     		.2byte	0x1ab
 372 0148 19       		.byte	0x19
 373 0149 70000000 		.4byte	0x70
 374 014d 24       		.byte	0x24
 375 014e 09       		.uleb128 0x9
 376 014f 50534300 		.ascii	"PSC\000"
 377 0153 05       		.byte	0x5
 378 0154 AC01     		.2byte	0x1ac
 379 0156 19       		.byte	0x19
 380 0157 70000000 		.4byte	0x70
 381 015b 28       		.byte	0x28
 382 015c 09       		.uleb128 0x9
 383 015d 41525200 		.ascii	"ARR\000"
 384 0161 05       		.byte	0x5
 385 0162 AD01     		.2byte	0x1ad
 386 0164 19       		.byte	0x19
 387 0165 70000000 		.4byte	0x70
 388 0169 2C       		.byte	0x2c
 389 016a 09       		.uleb128 0x9
 390 016b 52435200 		.ascii	"RCR\000"
 391 016f 05       		.byte	0x5
 392 0170 AE01     		.2byte	0x1ae
 393 0172 19       		.byte	0x19
 394 0173 70000000 		.4byte	0x70
 395 0177 30       		.byte	0x30
 396 0178 09       		.uleb128 0x9
 397 0179 43435200 		.ascii	"CCR\000"
 398 017d 05       		.byte	0x5
 399 017e AF01     		.2byte	0x1af
ARM GAS  /tmp/ccdwKoDL.s 			page 8


 400 0180 19       		.byte	0x19
 401 0181 B4000000 		.4byte	0xb4
 402 0185 34       		.byte	0x34
 403 0186 0A       		.uleb128 0xa
 404 0187 00000000 		.4byte	.LASF17
 405 018b 05       		.byte	0x5
 406 018c B001     		.2byte	0x1b0
 407 018e 19       		.byte	0x19
 408 018f 70000000 		.4byte	0x70
 409 0193 44       		.byte	0x44
 410 0194 09       		.uleb128 0x9
 411 0195 44435200 		.ascii	"DCR\000"
 412 0199 05       		.byte	0x5
 413 019a B101     		.2byte	0x1b1
 414 019c 19       		.byte	0x19
 415 019d 70000000 		.4byte	0x70
 416 01a1 48       		.byte	0x48
 417 01a2 0A       		.uleb128 0xa
 418 01a3 E4010000 		.4byte	.LASF18
 419 01a7 05       		.byte	0x5
 420 01a8 B201     		.2byte	0x1b2
 421 01aa 19       		.byte	0x19
 422 01ab 70000000 		.4byte	0x70
 423 01af 4C       		.byte	0x4c
 424 01b0 09       		.uleb128 0x9
 425 01b1 4F5200   		.ascii	"OR\000"
 426 01b4 05       		.byte	0x5
 427 01b5 B301     		.2byte	0x1b3
 428 01b7 19       		.byte	0x19
 429 01b8 70000000 		.4byte	0x70
 430 01bc 50       		.byte	0x50
 431 01bd 0A       		.uleb128 0xa
 432 01be 55020000 		.4byte	.LASF19
 433 01c2 05       		.byte	0x5
 434 01c3 B401     		.2byte	0x1b4
 435 01c5 19       		.byte	0x19
 436 01c6 70000000 		.4byte	0x70
 437 01ca 54       		.byte	0x54
 438 01cb 0A       		.uleb128 0xa
 439 01cc AD020000 		.4byte	.LASF20
 440 01d0 05       		.byte	0x5
 441 01d1 B501     		.2byte	0x1b5
 442 01d3 19       		.byte	0x19
 443 01d4 9F000000 		.4byte	0x9f
 444 01d8 58       		.byte	0x58
 445 01d9 00       		.byte	0
 446 01da 0B       		.uleb128 0xb
 447 01db 40000000 		.4byte	.LASF21
 448 01df 05       		.byte	0x5
 449 01e0 B601     		.2byte	0x1b6
 450 01e2 03       		.byte	0x3
 451 01e3 B9000000 		.4byte	0xb9
 452 01e7 03       		.uleb128 0x3
 453 01e8 01       		.byte	0x1
 454 01e9 08       		.byte	0x8
 455 01ea 02020000 		.4byte	.LASF22
 456 01ee 0C       		.uleb128 0xc
ARM GAS  /tmp/ccdwKoDL.s 			page 9


 457 01ef E7010000 		.4byte	0x1e7
 458 01f3 03       		.uleb128 0x3
 459 01f4 01       		.byte	0x1
 460 01f5 02       		.byte	0x2
 461 01f6 90020000 		.4byte	.LASF23
 462 01fa 0D       		.uleb128 0xd
 463 01fb B2020000 		.4byte	.LASF36
 464 01ff 01       		.byte	0x1
 465 0200 78       		.byte	0x78
 466 0201 0B       		.byte	0xb
 467 0202 83000000 		.4byte	0x83
 468 0206 00000000 		.4byte	.LFB281
 469 020a 08000000 		.4byte	.LFE281-.LFB281
 470 020e 01       		.uleb128 0x1
 471 020f 9C       		.byte	0x9c
 472 0210 33020000 		.4byte	0x233
 473 0214 0E       		.uleb128 0xe
 474 0215 6E000000 		.4byte	.LASF24
 475 0219 43020000 		.4byte	0x243
 476 021d 0F       		.uleb128 0xf
 477 021e 4B030000 		.4byte	0x34b
 478 0222 00000000 		.4byte	.LBI18
 479 0226 05       		.byte	.LVU43
 480 0227 00000000 		.4byte	.LBB18
 481 022b 06000000 		.4byte	.LBE18-.LBB18
 482 022f 01       		.byte	0x1
 483 0230 7C       		.byte	0x7c
 484 0231 0A       		.byte	0xa
 485 0232 00       		.byte	0
 486 0233 06       		.uleb128 0x6
 487 0234 EE010000 		.4byte	0x1ee
 488 0238 43020000 		.4byte	0x243
 489 023c 07       		.uleb128 0x7
 490 023d 2C000000 		.4byte	0x2c
 491 0241 0A       		.byte	0xa
 492 0242 00       		.byte	0
 493 0243 0C       		.uleb128 0xc
 494 0244 33020000 		.4byte	0x233
 495 0248 10       		.uleb128 0x10
 496 0249 6D020000 		.4byte	.LASF25
 497 024d 01       		.byte	0x1
 498 024e 68       		.byte	0x68
 499 024f 06       		.byte	0x6
 500 0250 00000000 		.4byte	.LFB280
 501 0254 08000000 		.4byte	.LFE280-.LFB280
 502 0258 01       		.uleb128 0x1
 503 0259 9C       		.byte	0x9c
 504 025a 99020000 		.4byte	0x299
 505 025e 11       		.uleb128 0x11
 506 025f 8A000000 		.4byte	.LASF28
 507 0263 01       		.byte	0x1
 508 0264 68       		.byte	0x68
 509 0265 1B       		.byte	0x1b
 510 0266 83000000 		.4byte	0x83
 511 026a 01       		.uleb128 0x1
 512 026b 50       		.byte	0x50
 513 026c 0E       		.uleb128 0xe
ARM GAS  /tmp/ccdwKoDL.s 			page 10


 514 026d 6E000000 		.4byte	.LASF24
 515 0271 43020000 		.4byte	0x243
 516 0275 12       		.uleb128 0x12
 517 0276 58030000 		.4byte	0x358
 518 027a 04000000 		.4byte	.LBI15
 519 027e 01       		.byte	.LVU33
 520 027f 00000000 		.4byte	.LBB15
 521 0283 06000000 		.4byte	.LBE15-.LBB15
 522 0287 01       		.byte	0x1
 523 0288 6C       		.byte	0x6c
 524 0289 03       		.byte	0x3
 525 028a 13       		.uleb128 0x13
 526 028b 65030000 		.4byte	0x365
 527 028f 02000000 		.4byte	.LLST1
 528 0293 00000000 		.4byte	.LVUS1
 529 0297 00       		.byte	0
 530 0298 00       		.byte	0
 531 0299 10       		.uleb128 0x10
 532 029a E9010000 		.4byte	.LASF26
 533 029e 01       		.byte	0x1
 534 029f 5A       		.byte	0x5a
 535 02a0 06       		.byte	0x6
 536 02a1 00000000 		.4byte	.LFB279
 537 02a5 0A000000 		.4byte	.LFE279-.LFB279
 538 02a9 01       		.uleb128 0x1
 539 02aa 9C       		.byte	0x9c
 540 02ab C5020000 		.4byte	0x2c5
 541 02af 0F       		.uleb128 0xf
 542 02b0 72030000 		.4byte	0x372
 543 02b4 00000000 		.4byte	.LBI13
 544 02b8 02       		.byte	.LVU22
 545 02b9 00000000 		.4byte	.LBB13
 546 02bd 08000000 		.4byte	.LBE13-.LBB13
 547 02c1 01       		.byte	0x1
 548 02c2 5C       		.byte	0x5c
 549 02c3 03       		.byte	0x3
 550 02c4 00       		.byte	0
 551 02c5 10       		.uleb128 0x10
 552 02c6 07020000 		.4byte	.LASF27
 553 02ca 01       		.byte	0x1
 554 02cb 4C       		.byte	0x4c
 555 02cc 06       		.byte	0x6
 556 02cd 00000000 		.4byte	.LFB278
 557 02d1 10000000 		.4byte	.LFE278-.LFB278
 558 02d5 01       		.uleb128 0x1
 559 02d6 9C       		.byte	0x9c
 560 02d7 16030000 		.4byte	0x316
 561 02db 11       		.uleb128 0x11
 562 02dc 8A000000 		.4byte	.LASF28
 563 02e0 01       		.byte	0x1
 564 02e1 4C       		.byte	0x4c
 565 02e2 1D       		.byte	0x1d
 566 02e3 83000000 		.4byte	0x83
 567 02e7 01       		.uleb128 0x1
 568 02e8 50       		.byte	0x50
 569 02e9 0E       		.uleb128 0xe
 570 02ea 6E000000 		.4byte	.LASF24
ARM GAS  /tmp/ccdwKoDL.s 			page 11


 571 02ee 26030000 		.4byte	0x326
 572 02f2 12       		.uleb128 0x12
 573 02f3 7B030000 		.4byte	0x37b
 574 02f7 04000000 		.4byte	.LBI10
 575 02fb 01       		.byte	.LVU9
 576 02fc 00000000 		.4byte	.LBB10
 577 0300 0E000000 		.4byte	.LBE10-.LBB10
 578 0304 01       		.byte	0x1
 579 0305 50       		.byte	0x50
 580 0306 03       		.byte	0x3
 581 0307 13       		.uleb128 0x13
 582 0308 88030000 		.4byte	0x388
 583 030c 17000000 		.4byte	.LLST0
 584 0310 15000000 		.4byte	.LVUS0
 585 0314 00       		.byte	0
 586 0315 00       		.byte	0
 587 0316 06       		.uleb128 0x6
 588 0317 EE010000 		.4byte	0x1ee
 589 031b 26030000 		.4byte	0x326
 590 031f 07       		.uleb128 0x7
 591 0320 2C000000 		.4byte	0x2c
 592 0324 0C       		.byte	0xc
 593 0325 00       		.byte	0
 594 0326 0C       		.uleb128 0xc
 595 0327 16030000 		.4byte	0x316
 596 032b 10       		.uleb128 0x10
 597 032c 19020000 		.4byte	.LASF29
 598 0330 01       		.byte	0x1
 599 0331 3C       		.byte	0x3c
 600 0332 06       		.byte	0x6
 601 0333 00000000 		.4byte	.LFB277
 602 0337 04000000 		.4byte	.LFE277-.LFB277
 603 033b 01       		.uleb128 0x1
 604 033c 9C       		.byte	0x9c
 605 033d 4B030000 		.4byte	0x34b
 606 0341 14       		.uleb128 0x14
 607 0342 04000000 		.4byte	.LVL0
 608 0346 95030000 		.4byte	0x395
 609 034a 00       		.byte	0
 610 034b 15       		.uleb128 0x15
 611 034c 2E020000 		.4byte	.LASF37
 612 0350 02       		.byte	0x2
 613 0351 BD       		.byte	0xbd
 614 0352 19       		.byte	0x19
 615 0353 83000000 		.4byte	0x83
 616 0357 03       		.byte	0x3
 617 0358 16       		.uleb128 0x16
 618 0359 B2000000 		.4byte	.LASF30
 619 035d 02       		.byte	0x2
 620 035e B1       		.byte	0xb1
 621 035f 14       		.byte	0x14
 622 0360 03       		.byte	0x3
 623 0361 72030000 		.4byte	0x372
 624 0365 17       		.uleb128 0x17
 625 0366 14020000 		.4byte	.LASF32
 626 036a 02       		.byte	0x2
 627 036b B1       		.byte	0xb1
ARM GAS  /tmp/ccdwKoDL.s 			page 12


 628 036c 2F       		.byte	0x2f
 629 036d 83000000 		.4byte	0x83
 630 0371 00       		.byte	0
 631 0372 18       		.uleb128 0x18
 632 0373 2E000000 		.4byte	.LASF38
 633 0377 02       		.byte	0x2
 634 0378 A5       		.byte	0xa5
 635 0379 14       		.byte	0x14
 636 037a 03       		.byte	0x3
 637 037b 16       		.uleb128 0x16
 638 037c 77000000 		.4byte	.LASF31
 639 0380 02       		.byte	0x2
 640 0381 99       		.byte	0x99
 641 0382 14       		.byte	0x14
 642 0383 03       		.byte	0x3
 643 0384 95030000 		.4byte	0x395
 644 0388 17       		.uleb128 0x17
 645 0389 14020000 		.4byte	.LASF32
 646 038d 02       		.byte	0x2
 647 038e 99       		.byte	0x99
 648 038f 31       		.byte	0x31
 649 0390 83000000 		.4byte	0x83
 650 0394 00       		.byte	0
 651 0395 19       		.uleb128 0x19
 652 0396 22000000 		.4byte	.LASF39
 653 039a 22000000 		.4byte	.LASF39
 654 039e 02       		.byte	0x2
 655 039f 7B       		.byte	0x7b
 656 03a0 08       		.byte	0x8
 657 03a1 00       		.byte	0
 658              		.section	.debug_abbrev,"",%progbits
 659              	.Ldebug_abbrev0:
 660 0000 01       		.uleb128 0x1
 661 0001 11       		.uleb128 0x11
 662 0002 01       		.byte	0x1
 663 0003 25       		.uleb128 0x25
 664 0004 0E       		.uleb128 0xe
 665 0005 13       		.uleb128 0x13
 666 0006 0B       		.uleb128 0xb
 667 0007 03       		.uleb128 0x3
 668 0008 0E       		.uleb128 0xe
 669 0009 1B       		.uleb128 0x1b
 670 000a 0E       		.uleb128 0xe
 671 000b 55       		.uleb128 0x55
 672 000c 17       		.uleb128 0x17
 673 000d 11       		.uleb128 0x11
 674 000e 01       		.uleb128 0x1
 675 000f 10       		.uleb128 0x10
 676 0010 17       		.uleb128 0x17
 677 0011 00       		.byte	0
 678 0012 00       		.byte	0
 679 0013 02       		.uleb128 0x2
 680 0014 24       		.uleb128 0x24
 681 0015 00       		.byte	0
 682 0016 0B       		.uleb128 0xb
 683 0017 0B       		.uleb128 0xb
 684 0018 3E       		.uleb128 0x3e
ARM GAS  /tmp/ccdwKoDL.s 			page 13


 685 0019 0B       		.uleb128 0xb
 686 001a 03       		.uleb128 0x3
 687 001b 08       		.uleb128 0x8
 688 001c 00       		.byte	0
 689 001d 00       		.byte	0
 690 001e 03       		.uleb128 0x3
 691 001f 24       		.uleb128 0x24
 692 0020 00       		.byte	0
 693 0021 0B       		.uleb128 0xb
 694 0022 0B       		.uleb128 0xb
 695 0023 3E       		.uleb128 0x3e
 696 0024 0B       		.uleb128 0xb
 697 0025 03       		.uleb128 0x3
 698 0026 0E       		.uleb128 0xe
 699 0027 00       		.byte	0
 700 0028 00       		.byte	0
 701 0029 04       		.uleb128 0x4
 702 002a 16       		.uleb128 0x16
 703 002b 00       		.byte	0
 704 002c 03       		.uleb128 0x3
 705 002d 0E       		.uleb128 0xe
 706 002e 3A       		.uleb128 0x3a
 707 002f 0B       		.uleb128 0xb
 708 0030 3B       		.uleb128 0x3b
 709 0031 0B       		.uleb128 0xb
 710 0032 39       		.uleb128 0x39
 711 0033 0B       		.uleb128 0xb
 712 0034 49       		.uleb128 0x49
 713 0035 13       		.uleb128 0x13
 714 0036 00       		.byte	0
 715 0037 00       		.byte	0
 716 0038 05       		.uleb128 0x5
 717 0039 35       		.uleb128 0x35
 718 003a 00       		.byte	0
 719 003b 49       		.uleb128 0x49
 720 003c 13       		.uleb128 0x13
 721 003d 00       		.byte	0
 722 003e 00       		.byte	0
 723 003f 06       		.uleb128 0x6
 724 0040 01       		.uleb128 0x1
 725 0041 01       		.byte	0x1
 726 0042 49       		.uleb128 0x49
 727 0043 13       		.uleb128 0x13
 728 0044 01       		.uleb128 0x1
 729 0045 13       		.uleb128 0x13
 730 0046 00       		.byte	0
 731 0047 00       		.byte	0
 732 0048 07       		.uleb128 0x7
 733 0049 21       		.uleb128 0x21
 734 004a 00       		.byte	0
 735 004b 49       		.uleb128 0x49
 736 004c 13       		.uleb128 0x13
 737 004d 2F       		.uleb128 0x2f
 738 004e 0B       		.uleb128 0xb
 739 004f 00       		.byte	0
 740 0050 00       		.byte	0
 741 0051 08       		.uleb128 0x8
ARM GAS  /tmp/ccdwKoDL.s 			page 14


 742 0052 13       		.uleb128 0x13
 743 0053 01       		.byte	0x1
 744 0054 0B       		.uleb128 0xb
 745 0055 0B       		.uleb128 0xb
 746 0056 3A       		.uleb128 0x3a
 747 0057 0B       		.uleb128 0xb
 748 0058 3B       		.uleb128 0x3b
 749 0059 05       		.uleb128 0x5
 750 005a 39       		.uleb128 0x39
 751 005b 0B       		.uleb128 0xb
 752 005c 01       		.uleb128 0x1
 753 005d 13       		.uleb128 0x13
 754 005e 00       		.byte	0
 755 005f 00       		.byte	0
 756 0060 09       		.uleb128 0x9
 757 0061 0D       		.uleb128 0xd
 758 0062 00       		.byte	0
 759 0063 03       		.uleb128 0x3
 760 0064 08       		.uleb128 0x8
 761 0065 3A       		.uleb128 0x3a
 762 0066 0B       		.uleb128 0xb
 763 0067 3B       		.uleb128 0x3b
 764 0068 05       		.uleb128 0x5
 765 0069 39       		.uleb128 0x39
 766 006a 0B       		.uleb128 0xb
 767 006b 49       		.uleb128 0x49
 768 006c 13       		.uleb128 0x13
 769 006d 38       		.uleb128 0x38
 770 006e 0B       		.uleb128 0xb
 771 006f 00       		.byte	0
 772 0070 00       		.byte	0
 773 0071 0A       		.uleb128 0xa
 774 0072 0D       		.uleb128 0xd
 775 0073 00       		.byte	0
 776 0074 03       		.uleb128 0x3
 777 0075 0E       		.uleb128 0xe
 778 0076 3A       		.uleb128 0x3a
 779 0077 0B       		.uleb128 0xb
 780 0078 3B       		.uleb128 0x3b
 781 0079 05       		.uleb128 0x5
 782 007a 39       		.uleb128 0x39
 783 007b 0B       		.uleb128 0xb
 784 007c 49       		.uleb128 0x49
 785 007d 13       		.uleb128 0x13
 786 007e 38       		.uleb128 0x38
 787 007f 0B       		.uleb128 0xb
 788 0080 00       		.byte	0
 789 0081 00       		.byte	0
 790 0082 0B       		.uleb128 0xb
 791 0083 16       		.uleb128 0x16
 792 0084 00       		.byte	0
 793 0085 03       		.uleb128 0x3
 794 0086 0E       		.uleb128 0xe
 795 0087 3A       		.uleb128 0x3a
 796 0088 0B       		.uleb128 0xb
 797 0089 3B       		.uleb128 0x3b
 798 008a 05       		.uleb128 0x5
ARM GAS  /tmp/ccdwKoDL.s 			page 15


 799 008b 39       		.uleb128 0x39
 800 008c 0B       		.uleb128 0xb
 801 008d 49       		.uleb128 0x49
 802 008e 13       		.uleb128 0x13
 803 008f 00       		.byte	0
 804 0090 00       		.byte	0
 805 0091 0C       		.uleb128 0xc
 806 0092 26       		.uleb128 0x26
 807 0093 00       		.byte	0
 808 0094 49       		.uleb128 0x49
 809 0095 13       		.uleb128 0x13
 810 0096 00       		.byte	0
 811 0097 00       		.byte	0
 812 0098 0D       		.uleb128 0xd
 813 0099 2E       		.uleb128 0x2e
 814 009a 01       		.byte	0x1
 815 009b 3F       		.uleb128 0x3f
 816 009c 19       		.uleb128 0x19
 817 009d 03       		.uleb128 0x3
 818 009e 0E       		.uleb128 0xe
 819 009f 3A       		.uleb128 0x3a
 820 00a0 0B       		.uleb128 0xb
 821 00a1 3B       		.uleb128 0x3b
 822 00a2 0B       		.uleb128 0xb
 823 00a3 39       		.uleb128 0x39
 824 00a4 0B       		.uleb128 0xb
 825 00a5 27       		.uleb128 0x27
 826 00a6 19       		.uleb128 0x19
 827 00a7 49       		.uleb128 0x49
 828 00a8 13       		.uleb128 0x13
 829 00a9 11       		.uleb128 0x11
 830 00aa 01       		.uleb128 0x1
 831 00ab 12       		.uleb128 0x12
 832 00ac 06       		.uleb128 0x6
 833 00ad 40       		.uleb128 0x40
 834 00ae 18       		.uleb128 0x18
 835 00af 9742     		.uleb128 0x2117
 836 00b1 19       		.uleb128 0x19
 837 00b2 01       		.uleb128 0x1
 838 00b3 13       		.uleb128 0x13
 839 00b4 00       		.byte	0
 840 00b5 00       		.byte	0
 841 00b6 0E       		.uleb128 0xe
 842 00b7 34       		.uleb128 0x34
 843 00b8 00       		.byte	0
 844 00b9 03       		.uleb128 0x3
 845 00ba 0E       		.uleb128 0xe
 846 00bb 49       		.uleb128 0x49
 847 00bc 13       		.uleb128 0x13
 848 00bd 34       		.uleb128 0x34
 849 00be 19       		.uleb128 0x19
 850 00bf 00       		.byte	0
 851 00c0 00       		.byte	0
 852 00c1 0F       		.uleb128 0xf
 853 00c2 1D       		.uleb128 0x1d
 854 00c3 00       		.byte	0
 855 00c4 31       		.uleb128 0x31
ARM GAS  /tmp/ccdwKoDL.s 			page 16


 856 00c5 13       		.uleb128 0x13
 857 00c6 52       		.uleb128 0x52
 858 00c7 01       		.uleb128 0x1
 859 00c8 B842     		.uleb128 0x2138
 860 00ca 0B       		.uleb128 0xb
 861 00cb 11       		.uleb128 0x11
 862 00cc 01       		.uleb128 0x1
 863 00cd 12       		.uleb128 0x12
 864 00ce 06       		.uleb128 0x6
 865 00cf 58       		.uleb128 0x58
 866 00d0 0B       		.uleb128 0xb
 867 00d1 59       		.uleb128 0x59
 868 00d2 0B       		.uleb128 0xb
 869 00d3 57       		.uleb128 0x57
 870 00d4 0B       		.uleb128 0xb
 871 00d5 00       		.byte	0
 872 00d6 00       		.byte	0
 873 00d7 10       		.uleb128 0x10
 874 00d8 2E       		.uleb128 0x2e
 875 00d9 01       		.byte	0x1
 876 00da 3F       		.uleb128 0x3f
 877 00db 19       		.uleb128 0x19
 878 00dc 03       		.uleb128 0x3
 879 00dd 0E       		.uleb128 0xe
 880 00de 3A       		.uleb128 0x3a
 881 00df 0B       		.uleb128 0xb
 882 00e0 3B       		.uleb128 0x3b
 883 00e1 0B       		.uleb128 0xb
 884 00e2 39       		.uleb128 0x39
 885 00e3 0B       		.uleb128 0xb
 886 00e4 27       		.uleb128 0x27
 887 00e5 19       		.uleb128 0x19
 888 00e6 11       		.uleb128 0x11
 889 00e7 01       		.uleb128 0x1
 890 00e8 12       		.uleb128 0x12
 891 00e9 06       		.uleb128 0x6
 892 00ea 40       		.uleb128 0x40
 893 00eb 18       		.uleb128 0x18
 894 00ec 9742     		.uleb128 0x2117
 895 00ee 19       		.uleb128 0x19
 896 00ef 01       		.uleb128 0x1
 897 00f0 13       		.uleb128 0x13
 898 00f1 00       		.byte	0
 899 00f2 00       		.byte	0
 900 00f3 11       		.uleb128 0x11
 901 00f4 05       		.uleb128 0x5
 902 00f5 00       		.byte	0
 903 00f6 03       		.uleb128 0x3
 904 00f7 0E       		.uleb128 0xe
 905 00f8 3A       		.uleb128 0x3a
 906 00f9 0B       		.uleb128 0xb
 907 00fa 3B       		.uleb128 0x3b
 908 00fb 0B       		.uleb128 0xb
 909 00fc 39       		.uleb128 0x39
 910 00fd 0B       		.uleb128 0xb
 911 00fe 49       		.uleb128 0x49
 912 00ff 13       		.uleb128 0x13
ARM GAS  /tmp/ccdwKoDL.s 			page 17


 913 0100 02       		.uleb128 0x2
 914 0101 18       		.uleb128 0x18
 915 0102 00       		.byte	0
 916 0103 00       		.byte	0
 917 0104 12       		.uleb128 0x12
 918 0105 1D       		.uleb128 0x1d
 919 0106 01       		.byte	0x1
 920 0107 31       		.uleb128 0x31
 921 0108 13       		.uleb128 0x13
 922 0109 52       		.uleb128 0x52
 923 010a 01       		.uleb128 0x1
 924 010b B842     		.uleb128 0x2138
 925 010d 0B       		.uleb128 0xb
 926 010e 11       		.uleb128 0x11
 927 010f 01       		.uleb128 0x1
 928 0110 12       		.uleb128 0x12
 929 0111 06       		.uleb128 0x6
 930 0112 58       		.uleb128 0x58
 931 0113 0B       		.uleb128 0xb
 932 0114 59       		.uleb128 0x59
 933 0115 0B       		.uleb128 0xb
 934 0116 57       		.uleb128 0x57
 935 0117 0B       		.uleb128 0xb
 936 0118 00       		.byte	0
 937 0119 00       		.byte	0
 938 011a 13       		.uleb128 0x13
 939 011b 05       		.uleb128 0x5
 940 011c 00       		.byte	0
 941 011d 31       		.uleb128 0x31
 942 011e 13       		.uleb128 0x13
 943 011f 02       		.uleb128 0x2
 944 0120 17       		.uleb128 0x17
 945 0121 B742     		.uleb128 0x2137
 946 0123 17       		.uleb128 0x17
 947 0124 00       		.byte	0
 948 0125 00       		.byte	0
 949 0126 14       		.uleb128 0x14
 950 0127 898201   		.uleb128 0x4109
 951 012a 00       		.byte	0
 952 012b 11       		.uleb128 0x11
 953 012c 01       		.uleb128 0x1
 954 012d 9542     		.uleb128 0x2115
 955 012f 19       		.uleb128 0x19
 956 0130 31       		.uleb128 0x31
 957 0131 13       		.uleb128 0x13
 958 0132 00       		.byte	0
 959 0133 00       		.byte	0
 960 0134 15       		.uleb128 0x15
 961 0135 2E       		.uleb128 0x2e
 962 0136 00       		.byte	0
 963 0137 03       		.uleb128 0x3
 964 0138 0E       		.uleb128 0xe
 965 0139 3A       		.uleb128 0x3a
 966 013a 0B       		.uleb128 0xb
 967 013b 3B       		.uleb128 0x3b
 968 013c 0B       		.uleb128 0xb
 969 013d 39       		.uleb128 0x39
ARM GAS  /tmp/ccdwKoDL.s 			page 18


 970 013e 0B       		.uleb128 0xb
 971 013f 27       		.uleb128 0x27
 972 0140 19       		.uleb128 0x19
 973 0141 49       		.uleb128 0x49
 974 0142 13       		.uleb128 0x13
 975 0143 20       		.uleb128 0x20
 976 0144 0B       		.uleb128 0xb
 977 0145 00       		.byte	0
 978 0146 00       		.byte	0
 979 0147 16       		.uleb128 0x16
 980 0148 2E       		.uleb128 0x2e
 981 0149 01       		.byte	0x1
 982 014a 03       		.uleb128 0x3
 983 014b 0E       		.uleb128 0xe
 984 014c 3A       		.uleb128 0x3a
 985 014d 0B       		.uleb128 0xb
 986 014e 3B       		.uleb128 0x3b
 987 014f 0B       		.uleb128 0xb
 988 0150 39       		.uleb128 0x39
 989 0151 0B       		.uleb128 0xb
 990 0152 27       		.uleb128 0x27
 991 0153 19       		.uleb128 0x19
 992 0154 20       		.uleb128 0x20
 993 0155 0B       		.uleb128 0xb
 994 0156 01       		.uleb128 0x1
 995 0157 13       		.uleb128 0x13
 996 0158 00       		.byte	0
 997 0159 00       		.byte	0
 998 015a 17       		.uleb128 0x17
 999 015b 05       		.uleb128 0x5
 1000 015c 00       		.byte	0
 1001 015d 03       		.uleb128 0x3
 1002 015e 0E       		.uleb128 0xe
 1003 015f 3A       		.uleb128 0x3a
 1004 0160 0B       		.uleb128 0xb
 1005 0161 3B       		.uleb128 0x3b
 1006 0162 0B       		.uleb128 0xb
 1007 0163 39       		.uleb128 0x39
 1008 0164 0B       		.uleb128 0xb
 1009 0165 49       		.uleb128 0x49
 1010 0166 13       		.uleb128 0x13
 1011 0167 00       		.byte	0
 1012 0168 00       		.byte	0
 1013 0169 18       		.uleb128 0x18
 1014 016a 2E       		.uleb128 0x2e
 1015 016b 00       		.byte	0
 1016 016c 03       		.uleb128 0x3
 1017 016d 0E       		.uleb128 0xe
 1018 016e 3A       		.uleb128 0x3a
 1019 016f 0B       		.uleb128 0xb
 1020 0170 3B       		.uleb128 0x3b
 1021 0171 0B       		.uleb128 0xb
 1022 0172 39       		.uleb128 0x39
 1023 0173 0B       		.uleb128 0xb
 1024 0174 27       		.uleb128 0x27
 1025 0175 19       		.uleb128 0x19
 1026 0176 20       		.uleb128 0x20
ARM GAS  /tmp/ccdwKoDL.s 			page 19


 1027 0177 0B       		.uleb128 0xb
 1028 0178 00       		.byte	0
 1029 0179 00       		.byte	0
 1030 017a 19       		.uleb128 0x19
 1031 017b 2E       		.uleb128 0x2e
 1032 017c 00       		.byte	0
 1033 017d 3F       		.uleb128 0x3f
 1034 017e 19       		.uleb128 0x19
 1035 017f 3C       		.uleb128 0x3c
 1036 0180 19       		.uleb128 0x19
 1037 0181 6E       		.uleb128 0x6e
 1038 0182 0E       		.uleb128 0xe
 1039 0183 03       		.uleb128 0x3
 1040 0184 0E       		.uleb128 0xe
 1041 0185 3A       		.uleb128 0x3a
 1042 0186 0B       		.uleb128 0xb
 1043 0187 3B       		.uleb128 0x3b
 1044 0188 0B       		.uleb128 0xb
 1045 0189 39       		.uleb128 0x39
 1046 018a 0B       		.uleb128 0xb
 1047 018b 00       		.byte	0
 1048 018c 00       		.byte	0
 1049 018d 00       		.byte	0
 1050              		.section	.debug_loc,"",%progbits
 1051              	.Ldebug_loc0:
 1052              	.LVUS1:
 1053 0000 00       		.uleb128 .LVU32
 1054 0001 00       		.uleb128 .LVU36
 1055              	.LLST1:
 1056 0002 04000000 		.4byte	.LVL5
 1057 0006 06000000 		.4byte	.LVL6
 1058 000a 0100     		.2byte	0x1
 1059 000c 50       		.byte	0x50
 1060 000d 00000000 		.4byte	0
 1061 0011 00000000 		.4byte	0
 1062              	.LVUS0:
 1063 0015 00       		.uleb128 .LVU8
 1064 0016 00       		.uleb128 .LVU18
 1065              	.LLST0:
 1066 0017 04000000 		.4byte	.LVL2
 1067 001b 0E000000 		.4byte	.LVL3
 1068 001f 0100     		.2byte	0x1
 1069 0021 50       		.byte	0x50
 1070 0022 00000000 		.4byte	0
 1071 0026 00000000 		.4byte	0
 1072              		.section	.debug_aranges,"",%progbits
 1073 0000 3C000000 		.4byte	0x3c
 1074 0004 0200     		.2byte	0x2
 1075 0006 00000000 		.4byte	.Ldebug_info0
 1076 000a 04       		.byte	0x4
 1077 000b 00       		.byte	0
 1078 000c 0000     		.2byte	0
 1079 000e 0000     		.2byte	0
 1080 0010 00000000 		.4byte	.LFB277
 1081 0014 04000000 		.4byte	.LFE277-.LFB277
 1082 0018 00000000 		.4byte	.LFB278
 1083 001c 10000000 		.4byte	.LFE278-.LFB278
ARM GAS  /tmp/ccdwKoDL.s 			page 20


 1084 0020 00000000 		.4byte	.LFB279
 1085 0024 0A000000 		.4byte	.LFE279-.LFB279
 1086 0028 00000000 		.4byte	.LFB280
 1087 002c 08000000 		.4byte	.LFE280-.LFB280
 1088 0030 00000000 		.4byte	.LFB281
 1089 0034 08000000 		.4byte	.LFE281-.LFB281
 1090 0038 00000000 		.4byte	0
 1091 003c 00000000 		.4byte	0
 1092              		.section	.debug_ranges,"",%progbits
 1093              	.Ldebug_ranges0:
 1094 0000 00000000 		.4byte	.LFB277
 1095 0004 04000000 		.4byte	.LFE277
 1096 0008 00000000 		.4byte	.LFB278
 1097 000c 10000000 		.4byte	.LFE278
 1098 0010 00000000 		.4byte	.LFB279
 1099 0014 0A000000 		.4byte	.LFE279
 1100 0018 00000000 		.4byte	.LFB280
 1101 001c 08000000 		.4byte	.LFE280
 1102 0020 00000000 		.4byte	.LFB281
 1103 0024 08000000 		.4byte	.LFE281
 1104 0028 00000000 		.4byte	0
 1105 002c 00000000 		.4byte	0
 1106              		.section	.debug_line,"",%progbits
 1107              	.Ldebug_line0:
 1108 0000 C8010000 		.section	.debug_str,"MS",%progbits,1
 1108      0300D500 
 1108      00000201 
 1108      FB0E0D00 
 1108      01010101 
 1109              	.LASF17:
 1110 0000 42445452 		.ascii	"BDTR\000"
 1110      00
 1111              	.LASF11:
 1112 0005 73797374 		.ascii	"systime_t\000"
 1112      696D655F 
 1112      7400
 1113              	.LASF7:
 1114 000f 73686F72 		.ascii	"short unsigned int\000"
 1114      7420756E 
 1114      7369676E 
 1114      65642069 
 1114      6E7400
 1115              	.LASF39:
 1116 0022 73745F6C 		.ascii	"st_lld_init\000"
 1116      6C645F69 
 1116      6E697400 
 1117              	.LASF38:
 1118 002e 73745F6C 		.ascii	"st_lld_stop_alarm\000"
 1118      6C645F73 
 1118      746F705F 
 1118      616C6172 
 1118      6D00
 1119              	.LASF21:
 1120 0040 73746D33 		.ascii	"stm32_tim_t\000"
 1120      325F7469 
 1120      6D5F7400 
 1121              	.LASF34:
ARM GAS  /tmp/ccdwKoDL.s 			page 21


 1122 004c 2E2E2F2E 		.ascii	"../../../os/hal/src/hal_st.c\000"
 1122      2E2F2E2E 
 1122      2F6F732F 
 1122      68616C2F 
 1122      7372632F 
 1123              	.LASF13:
 1124 0069 44494552 		.ascii	"DIER\000"
 1124      00
 1125              	.LASF24:
 1126 006e 5F5F6675 		.ascii	"__func__\000"
 1126      6E635F5F 
 1126      00
 1127              	.LASF31:
 1128 0077 73745F6C 		.ascii	"st_lld_start_alarm\000"
 1128      6C645F73 
 1128      74617274 
 1128      5F616C61 
 1128      726D00
 1129              	.LASF28:
 1130 008a 61627374 		.ascii	"abstime\000"
 1130      696D6500 
 1131              	.LASF6:
 1132 0092 756E7369 		.ascii	"unsigned char\000"
 1132      676E6564 
 1132      20636861 
 1132      7200
 1133              	.LASF8:
 1134 00a0 6C6F6E67 		.ascii	"long unsigned int\000"
 1134      20756E73 
 1134      69676E65 
 1134      6420696E 
 1134      7400
 1135              	.LASF30:
 1136 00b2 73745F6C 		.ascii	"st_lld_set_alarm\000"
 1136      6C645F73 
 1136      65745F61 
 1136      6C61726D 
 1136      00
 1137              	.LASF35:
 1138 00c3 2F686F6D 		.ascii	"/home/tfateba/nlab/ip/trunk/demos/STM32/RT-STM32F40"
 1138      652F7466 
 1138      61746562 
 1138      612F6E6C 
 1138      61622F69 
 1139 00f6 372D4449 		.ascii	"7-DISCOVERY-G++\000"
 1139      53434F56 
 1139      4552592D 
 1139      472B2B00 
 1140              	.LASF33:
 1141 0106 474E5520 		.ascii	"GNU C17 10.3.1 20210621 (release) -mcpu=cortex-m4 -"
 1141      43313720 
 1141      31302E33 
 1141      2E312032 
 1141      30323130 
 1142 0139 6D6E6F2D 		.ascii	"mno-thumb-interwork -mthumb -mfloat-abi=soft -march"
 1142      7468756D 
 1142      622D696E 
ARM GAS  /tmp/ccdwKoDL.s 			page 22


 1142      74657277 
 1142      6F726B20 
 1143 016c 3D61726D 		.ascii	"=armv7e-m -ggdb -O2 -fomit-frame-pointer -falign-fu"
 1143      7637652D 
 1143      6D202D67 
 1143      67646220 
 1143      2D4F3220 
 1144 019f 6E637469 		.ascii	"nctions=16 -ffunction-sections -fdata-sections -fno"
 1144      6F6E733D 
 1144      3136202D 
 1144      6666756E 
 1144      6374696F 
 1145 01d2 2D636F6D 		.ascii	"-common\000"
 1145      6D6F6E00 
 1146              	.LASF4:
 1147 01da 73686F72 		.ascii	"short int\000"
 1147      7420696E 
 1147      7400
 1148              	.LASF18:
 1149 01e4 444D4152 		.ascii	"DMAR\000"
 1149      00
 1150              	.LASF26:
 1151 01e9 73745374 		.ascii	"stStopAlarm\000"
 1151      6F70416C 
 1151      61726D00 
 1152              	.LASF0:
 1153 01f5 756E7369 		.ascii	"unsigned int\000"
 1153      676E6564 
 1153      20696E74 
 1153      00
 1154              	.LASF22:
 1155 0202 63686172 		.ascii	"char\000"
 1155      00
 1156              	.LASF27:
 1157 0207 73745374 		.ascii	"stStartAlarm\000"
 1157      61727441 
 1157      6C61726D 
 1157      00
 1158              	.LASF32:
 1159 0214 74696D65 		.ascii	"time\000"
 1159      00
 1160              	.LASF29:
 1161 0219 7374496E 		.ascii	"stInit\000"
 1161      697400
 1162              	.LASF1:
 1163 0220 6C6F6E67 		.ascii	"long long int\000"
 1163      206C6F6E 
 1163      6720696E 
 1163      7400
 1164              	.LASF37:
 1165 022e 73745F6C 		.ascii	"st_lld_get_alarm\000"
 1165      6C645F67 
 1165      65745F61 
 1165      6C61726D 
 1165      00
 1166              	.LASF16:
 1167 023f 43434552 		.ascii	"CCER\000"
ARM GAS  /tmp/ccdwKoDL.s 			page 23


 1167      00
 1168              	.LASF12:
 1169 0244 534D4352 		.ascii	"SMCR\000"
 1169      00
 1170              	.LASF14:
 1171 0249 43434D52 		.ascii	"CCMR1\000"
 1171      3100
 1172              	.LASF15:
 1173 024f 43434D52 		.ascii	"CCMR2\000"
 1173      3200
 1174              	.LASF19:
 1175 0255 43434D52 		.ascii	"CCMR3\000"
 1175      3300
 1176              	.LASF10:
 1177 025b 75696E74 		.ascii	"uint32_t\000"
 1177      33325F74 
 1177      00
 1178              	.LASF5:
 1179 0264 6C6F6E67 		.ascii	"long int\000"
 1179      20696E74 
 1179      00
 1180              	.LASF25:
 1181 026d 73745365 		.ascii	"stSetAlarm\000"
 1181      74416C61 
 1181      726D00
 1182              	.LASF2:
 1183 0278 6C6F6E67 		.ascii	"long double\000"
 1183      20646F75 
 1183      626C6500 
 1184              	.LASF3:
 1185 0284 7369676E 		.ascii	"signed char\000"
 1185      65642063 
 1185      68617200 
 1186              	.LASF23:
 1187 0290 5F426F6F 		.ascii	"_Bool\000"
 1187      6C00
 1188              	.LASF9:
 1189 0296 6C6F6E67 		.ascii	"long long unsigned int\000"
 1189      206C6F6E 
 1189      6720756E 
 1189      7369676E 
 1189      65642069 
 1190              	.LASF20:
 1191 02ad 43435852 		.ascii	"CCXR\000"
 1191      00
 1192              	.LASF36:
 1193 02b2 73744765 		.ascii	"stGetAlarm\000"
 1193      74416C61 
 1193      726D00
 1194              		.ident	"GCC: (15:10.3-2021.07-4) 10.3.1 20210621 (release)"
ARM GAS  /tmp/ccdwKoDL.s 			page 24


DEFINED SYMBOLS
                            *ABS*:0000000000000000 hal_st.c
     /tmp/ccdwKoDL.s:16     .text.stInit:0000000000000000 $t
     /tmp/ccdwKoDL.s:25     .text.stInit:0000000000000000 stInit
     /tmp/ccdwKoDL.s:40     .text.stStartAlarm:0000000000000000 $t
     /tmp/ccdwKoDL.s:48     .text.stStartAlarm:0000000000000000 stStartAlarm
     /tmp/ccdwKoDL.s:94     .text.stStopAlarm:0000000000000000 $t
     /tmp/ccdwKoDL.s:102    .text.stStopAlarm:0000000000000000 stStopAlarm
     /tmp/ccdwKoDL.s:127    .text.stSetAlarm:0000000000000000 $t
     /tmp/ccdwKoDL.s:135    .text.stSetAlarm:0000000000000000 stSetAlarm
     /tmp/ccdwKoDL.s:170    .text.stGetAlarm:0000000000000000 $t
     /tmp/ccdwKoDL.s:178    .text.stGetAlarm:0000000000000000 stGetAlarm

UNDEFINED SYMBOLS
st_lld_init
