ARM GAS  /tmp/ccJxq9Ts.s 			page 1


   1              		.cpu cortex-m4
   2              		.eabi_attribute 20, 1
   3              		.eabi_attribute 21, 1
   4              		.eabi_attribute 23, 3
   5              		.eabi_attribute 24, 1
   6              		.eabi_attribute 25, 1
   7              		.eabi_attribute 26, 1
   8              		.eabi_attribute 30, 2
   9              		.eabi_attribute 34, 1
  10              		.eabi_attribute 18, 4
  11              		.file	"hal_st_lld.c"
  12              		.text
  13              	.Ltext0:
  14              		.cfi_sections	.debug_frame
  15              		.section	.text.VectorB0,"ax",%progbits
  16              		.align	1
  17              		.p2align 4,,15
  18              		.global	VectorB0
  19              		.arch armv7e-m
  20              		.syntax unified
  21              		.thumb
  22              		.thumb_func
  23              		.fpu softvfp
  24              		.type	VectorB0, %function
  25              	VectorB0:
  26              	.LFB277:
  27              		.file 1 "../../../os/hal/ports/STM32/LLD/TIMv1/hal_st_lld.c"
  28              		.loc 1 239 30 view -0
  29              		.cfi_startproc
  30              		@ args = 0, pretend = 0, frame = 0
  31              		@ frame_needed = 0, uses_anonymous_args = 0
  32              		.loc 1 241 3 view .LVU1
  33              		.loc 1 241 3 view .LVU2
  34              		.loc 1 241 3 view .LVU3
  35              		.loc 1 241 3 view .LVU4
  36              		.loc 1 241 3 view .LVU5
  37              		.loc 1 241 22 view .LVU6
  38              		.loc 1 246 3 view .LVU7
  39              		.loc 1 246 20 is_stmt 0 view .LVU8
  40 0000 4FF08043 		mov	r3, #1073741824
  41 0004 1A69     		ldr	r2, [r3, #16]
  42              		.loc 1 246 6 view .LVU9
  43 0006 9207     		lsls	r2, r2, #30
  44 0008 01D4     		bmi	.L11
  45              		.loc 1 254 3 is_stmt 1 view .LVU10
  46              		.loc 1 254 3 view .LVU11
  47              		.loc 1 254 3 view .LVU12
  48              		.loc 1 254 3 view .LVU13
  49              		.loc 1 254 3 view .LVU14
  50 000a FFF7FEBF 		b	_port_irq_epilogue
  51              	.LVL0:
  52              	.L11:
  53              		.loc 1 247 5 view .LVU15
  54              		.loc 1 239 30 is_stmt 0 view .LVU16
  55 000e 10B5     		push	{r4, lr}
  56              		.cfi_def_cfa_offset 8
  57              		.cfi_offset 4, -8
ARM GAS  /tmp/ccJxq9Ts.s 			page 2


  58              		.cfi_offset 14, -4
  59              		.loc 1 247 22 view .LVU17
  60 0010 0024     		movs	r4, #0
  61 0012 1C61     		str	r4, [r3, #16]
  62              		.loc 1 249 5 is_stmt 1 view .LVU18
  63              	.LBB52:
  64              	.LBI52:
  65              		.file 2 "../../../os/hal/osal/rt/osal.h"
  66              		.loc 2 513 20 view .LVU19
  67              	.LBE52:
  68              		.loc 2 515 3 view .LVU20
  69              	.LBB64:
  70              	.LBB53:
  71              	.LBI53:
  72              		.file 3 "../../../os/rt/include/chsys.h"
  73              		.loc 3 414 20 view .LVU21
  74              	.LBE53:
  75              	.LBE64:
  76              		.loc 3 416 3 view .LVU22
  77              	.LBB65:
  78              	.LBB61:
  79              	.LBB54:
  80              	.LBI54:
  81              		.file 4 "../../../os/common/ports/ARMCMx/chcore_v7m.h"
  82              		.loc 4 633 20 view .LVU23
  83              	.LBE54:
  84              	.LBE61:
  85              	.LBE65:
  86              		.loc 4 635 3 view .LVU24
  87              	.LBB66:
  88              	.LBB62:
  89              	.LBB59:
  90              	.LBB55:
  91              	.LBI55:
  92              		.loc 4 594 20 view .LVU25
  93              	.LBE55:
  94              	.LBE59:
  95              	.LBE62:
  96              	.LBE66:
  97              		.loc 4 602 3 view .LVU26
  98              	.LVL1:
  99              	.LBB67:
 100              	.LBB63:
 101              	.LBB60:
 102              	.LBB58:
 103              	.LBB56:
 104              	.LBI56:
 105              		.file 5 "../../../os/common/ext/CMSIS/include/cmsis_gcc.h"
 106              		.loc 5 262 57 view .LVU27
 107              	.LBB57:
 108              		.loc 5 264 3 view .LVU28
 109 0014 2023     		movs	r3, #32
 110              		.syntax unified
 111              	@ 264 "../../../os/common/ext/CMSIS/include/cmsis_gcc.h" 1
 112 0016 83F31188 		MSR basepri, r3
 113              	@ 0 "" 2
 114              	.LVL2:
ARM GAS  /tmp/ccJxq9Ts.s 			page 3


 115              		.loc 5 264 3 is_stmt 0 view .LVU29
 116              		.thumb
 117              		.syntax unified
 118              	.LBE57:
 119              	.LBE56:
 120              	.LBE58:
 121              	.LBE60:
 122              	.LBE63:
 123              	.LBE67:
 124              		.loc 3 417 34 is_stmt 1 view .LVU30
 125              		.loc 3 418 29 view .LVU31
 126              		.loc 1 250 5 view .LVU32
 127              	.LBB68:
 128              	.LBI68:
 129              		.loc 2 583 20 view .LVU33
 130              	.LBB69:
 131              		.loc 2 585 3 view .LVU34
 132 001a FFF7FEFF 		bl	chSysTimerHandlerI
 133              	.LVL3:
 134              	.LBE69:
 135              	.LBE68:
 136              		.loc 1 251 5 view .LVU35
 137              	.LBB70:
 138              	.LBI70:
 139              		.loc 2 524 20 view .LVU36
 140              	.LBB71:
 141              		.loc 2 526 3 view .LVU37
 142              	.LBB72:
 143              	.LBI72:
 144              		.loc 3 434 20 view .LVU38
 145              	.LBE72:
 146              	.LBE71:
 147              	.LBE70:
 148              		.loc 3 436 31 view .LVU39
 149              		.loc 3 437 33 view .LVU40
 150              		.loc 3 438 3 view .LVU41
 151              	.LBB86:
 152              	.LBB83:
 153              	.LBB80:
 154              	.LBB73:
 155              	.LBI73:
 156              		.loc 4 644 20 view .LVU42
 157              	.LBE73:
 158              	.LBE80:
 159              	.LBE83:
 160              	.LBE86:
 161              		.loc 4 646 3 view .LVU43
 162              	.LBB87:
 163              	.LBB84:
 164              	.LBB81:
 165              	.LBB78:
 166              	.LBB74:
 167              	.LBI74:
 168              		.loc 4 618 20 view .LVU44
 169              	.LBE74:
 170              	.LBE78:
 171              	.LBE81:
ARM GAS  /tmp/ccJxq9Ts.s 			page 4


 172              	.LBE84:
 173              	.LBE87:
 174              		.loc 4 621 3 view .LVU45
 175              	.LBB88:
 176              	.LBB85:
 177              	.LBB82:
 178              	.LBB79:
 179              	.LBB77:
 180              	.LBB75:
 181              	.LBI75:
 182              		.loc 5 262 57 view .LVU46
 183              	.LBB76:
 184              		.loc 5 264 3 view .LVU47
 185              		.syntax unified
 186              	@ 264 "../../../os/common/ext/CMSIS/include/cmsis_gcc.h" 1
 187 001e 84F31188 		MSR basepri, r4
 188              	@ 0 "" 2
 189              	.LVL4:
 190              		.loc 5 264 3 is_stmt 0 view .LVU48
 191              		.thumb
 192              		.syntax unified
 193              	.LBE76:
 194              	.LBE75:
 195              	.LBE77:
 196              	.LBE79:
 197              	.LBE82:
 198              	.LBE85:
 199              	.LBE88:
 200              		.loc 1 254 3 is_stmt 1 view .LVU49
 201              		.loc 1 254 3 view .LVU50
 202              		.loc 1 254 3 view .LVU51
 203              		.loc 1 254 3 view .LVU52
 204              		.loc 1 254 3 view .LVU53
 205              		.loc 1 255 1 is_stmt 0 view .LVU54
 206 0022 BDE81040 		pop	{r4, lr}
 207              		.cfi_restore 14
 208              		.cfi_restore 4
 209              		.cfi_def_cfa_offset 0
 210              		.loc 1 254 3 view .LVU55
 211 0026 FFF7FEBF 		b	_port_irq_epilogue
 212              	.LVL5:
 213              		.cfi_endproc
 214              	.LFE277:
 215              		.size	VectorB0, .-VectorB0
 216 002a 00BF     		.section	.text.st_lld_init,"ax",%progbits
 217              		.align	1
 218              		.p2align 4,,15
 219              		.global	st_lld_init
 220              		.syntax unified
 221              		.thumb
 222              		.thumb_func
 223              		.fpu softvfp
 224              		.type	st_lld_init, %function
 225              	st_lld_init:
 226              	.LFB278:
 227              		.loc 1 267 24 is_stmt 1 view -0
 228              		.cfi_startproc
ARM GAS  /tmp/ccJxq9Ts.s 			page 5


 229              		@ args = 0, pretend = 0, frame = 0
 230              		@ frame_needed = 0, uses_anonymous_args = 0
 231              		@ link register save eliminated.
 232              		.loc 1 273 3 view .LVU57
 233 0000 0F49     		ldr	r1, .L14
 234              		.loc 1 276 3 is_stmt 0 view .LVU58
 235 0002 1048     		ldr	r0, .L14+4
 236              		.loc 1 273 3 view .LVU59
 237 0004 0A6C     		ldr	r2, [r1, #64]
 238 0006 42F00102 		orr	r2, r2, #1
 239              		.loc 1 267 24 view .LVU60
 240 000a 30B4     		push	{r4, r5}
 241              		.cfi_def_cfa_offset 8
 242              		.cfi_offset 4, -8
 243              		.cfi_offset 5, -4
 244              		.loc 1 273 3 view .LVU61
 245 000c 0A64     		str	r2, [r1, #64]
 246              		.loc 1 273 3 is_stmt 1 view .LVU62
 247              		.loc 1 273 20 view .LVU63
 248              		.loc 1 276 3 view .LVU64
 249 000e 8168     		ldr	r1, [r0, #8]
 250              		.loc 1 279 24 is_stmt 0 view .LVU65
 251 0010 4FF08043 		mov	r3, #1073741824
 252 0014 42F2CF04 		movw	r4, #8399
 253              		.loc 1 276 3 view .LVU66
 254 0018 41F00101 		orr	r1, r1, #1
 255 001c 8160     		str	r1, [r0, #8]
 256              		.loc 1 279 3 is_stmt 1 view .LVU67
 257              		.loc 1 281 24 is_stmt 0 view .LVU68
 258 001e 0022     		movs	r2, #0
 259              		.loc 1 279 24 view .LVU69
 260 0020 9C62     		str	r4, [r3, #40]
 261              		.loc 1 280 3 is_stmt 1 view .LVU70
 262              		.loc 1 280 24 is_stmt 0 view .LVU71
 263 0022 4FF0FF35 		mov	r5, #-1
 264              		.loc 1 285 24 view .LVU72
 265 0026 0124     		movs	r4, #1
 266              		.loc 1 280 24 view .LVU73
 267 0028 DD62     		str	r5, [r3, #44]
 268              		.loc 1 281 3 is_stmt 1 view .LVU74
 269              		.loc 1 289 3 is_stmt 0 view .LVU75
 270 002a 0821     		movs	r1, #8
 271              		.loc 1 281 24 view .LVU76
 272 002c 9A61     		str	r2, [r3, #24]
 273              		.loc 1 282 3 is_stmt 1 view .LVU77
 274              		.loc 1 289 3 is_stmt 0 view .LVU78
 275 002e 1C20     		movs	r0, #28
 276              		.loc 1 282 24 view .LVU79
 277 0030 5A63     		str	r2, [r3, #52]
 278              		.loc 1 283 3 is_stmt 1 view .LVU80
 279              		.loc 1 283 24 is_stmt 0 view .LVU81
 280 0032 DA60     		str	r2, [r3, #12]
 281              		.loc 1 284 3 is_stmt 1 view .LVU82
 282              		.loc 1 284 24 is_stmt 0 view .LVU83
 283 0034 5A60     		str	r2, [r3, #4]
 284              		.loc 1 285 3 is_stmt 1 view .LVU84
 285              		.loc 1 285 24 is_stmt 0 view .LVU85
ARM GAS  /tmp/ccJxq9Ts.s 			page 6


 286 0036 5C61     		str	r4, [r3, #20]
 287              		.loc 1 286 3 is_stmt 1 view .LVU86
 288              		.loc 1 286 24 is_stmt 0 view .LVU87
 289 0038 1C60     		str	r4, [r3]
 290              		.loc 1 289 3 is_stmt 1 view .LVU88
 291              		.loc 1 304 1 is_stmt 0 view .LVU89
 292 003a 30BC     		pop	{r4, r5}
 293              		.cfi_restore 5
 294              		.cfi_restore 4
 295              		.cfi_def_cfa_offset 0
 296              		.loc 1 289 3 view .LVU90
 297 003c FFF7FEBF 		b	nvicEnableVector
 298              	.LVL6:
 299              	.L15:
 300              		.align	2
 301              	.L14:
 302 0040 00380240 		.word	1073887232
 303 0044 002004E0 		.word	-536600576
 304              		.cfi_endproc
 305              	.LFE278:
 306              		.size	st_lld_init, .-st_lld_init
 307              		.text
 308              	.Letext0:
 309              		.file 6 "../../../os/common/ext/CMSIS/ST/STM32F4xx/stm32f407xx.h"
 310              		.file 7 "/usr/lib/gcc/arm-none-eabi/10.3.1/include/stdint.h"
 311              		.file 8 "../../../os/hal/ports/STM32/LLD/TIMv1/stm32_tim.h"
 312              		.file 9 "../../../os/hal/ports/common/ARMCMx/nvic.h"
 313              		.section	.debug_info,"",%progbits
 314              	.Ldebug_info0:
 315 0000 FA050000 		.4byte	0x5fa
 316 0004 0400     		.2byte	0x4
 317 0006 00000000 		.4byte	.Ldebug_abbrev0
 318 000a 04       		.byte	0x4
 319 000b 01       		.uleb128 0x1
 320 000c 64020000 		.4byte	.LASF69
 321 0010 0C       		.byte	0xc
 322 0011 75000000 		.4byte	.LASF70
 323 0015 0E010000 		.4byte	.LASF71
 324 0019 B8000000 		.4byte	.Ldebug_ranges0+0xb8
 325 001d 00000000 		.4byte	0
 326 0021 00000000 		.4byte	.Ldebug_line0
 327 0025 02       		.uleb128 0x2
 328 0026 04       		.byte	0x4
 329 0027 05       		.byte	0x5
 330 0028 696E7400 		.ascii	"int\000"
 331 002c 03       		.uleb128 0x3
 332 002d 04       		.byte	0x4
 333 002e 07       		.byte	0x7
 334 002f 12020000 		.4byte	.LASF0
 335 0033 03       		.uleb128 0x3
 336 0034 08       		.byte	0x8
 337 0035 05       		.byte	0x5
 338 0036 F7000000 		.4byte	.LASF1
 339 003a 03       		.uleb128 0x3
 340 003b 08       		.byte	0x8
 341 003c 04       		.byte	0x4
 342 003d 86010000 		.4byte	.LASF2
ARM GAS  /tmp/ccJxq9Ts.s 			page 7


 343 0041 03       		.uleb128 0x3
 344 0042 01       		.byte	0x1
 345 0043 06       		.byte	0x6
 346 0044 E6010000 		.4byte	.LASF3
 347 0048 03       		.uleb128 0x3
 348 0049 02       		.byte	0x2
 349 004a 05       		.byte	0x5
 350 004b AE000000 		.4byte	.LASF4
 351 004f 03       		.uleb128 0x3
 352 0050 04       		.byte	0x4
 353 0051 05       		.byte	0x5
 354 0052 05010000 		.4byte	.LASF5
 355 0056 03       		.uleb128 0x3
 356 0057 01       		.byte	0x1
 357 0058 08       		.byte	0x8
 358 0059 BF010000 		.4byte	.LASF6
 359 005d 03       		.uleb128 0x3
 360 005e 02       		.byte	0x2
 361 005f 07       		.byte	0x7
 362 0060 47020000 		.4byte	.LASF7
 363 0064 04       		.uleb128 0x4
 364 0065 09020000 		.4byte	.LASF13
 365 0069 07       		.byte	0x7
 366 006a 34       		.byte	0x34
 367 006b 19       		.byte	0x19
 368 006c 75000000 		.4byte	0x75
 369 0070 05       		.uleb128 0x5
 370 0071 64000000 		.4byte	0x64
 371 0075 03       		.uleb128 0x3
 372 0076 04       		.byte	0x4
 373 0077 07       		.byte	0x7
 374 0078 28020000 		.4byte	.LASF8
 375 007c 03       		.uleb128 0x3
 376 007d 08       		.byte	0x8
 377 007e 07       		.byte	0x7
 378 007f F2010000 		.4byte	.LASF9
 379 0083 06       		.uleb128 0x6
 380 0084 64000000 		.4byte	0x64
 381 0088 93000000 		.4byte	0x93
 382 008c 07       		.uleb128 0x7
 383 008d 2C000000 		.4byte	0x2c
 384 0091 01       		.byte	0x1
 385 0092 00       		.byte	0
 386 0093 08       		.uleb128 0x8
 387 0094 10       		.byte	0x10
 388 0095 06       		.byte	0x6
 389 0096 4B01     		.2byte	0x14b
 390 0098 09       		.byte	0x9
 391 0099 D5000000 		.4byte	0xd5
 392 009d 09       		.uleb128 0x9
 393 009e F1030000 		.4byte	.LASF10
 394 00a2 06       		.byte	0x6
 395 00a3 4D01     		.2byte	0x14d
 396 00a5 11       		.byte	0x11
 397 00a6 70000000 		.4byte	0x70
 398 00aa 00       		.byte	0
 399 00ab 0A       		.uleb128 0xa
ARM GAS  /tmp/ccJxq9Ts.s 			page 8


 400 00ac 435200   		.ascii	"CR\000"
 401 00af 06       		.byte	0x6
 402 00b0 4E01     		.2byte	0x14e
 403 00b2 11       		.byte	0x11
 404 00b3 70000000 		.4byte	0x70
 405 00b7 04       		.byte	0x4
 406 00b8 09       		.uleb128 0x9
 407 00b9 70010000 		.4byte	.LASF11
 408 00bd 06       		.byte	0x6
 409 00be 4F01     		.2byte	0x14f
 410 00c0 11       		.byte	0x11
 411 00c1 70000000 		.4byte	0x70
 412 00c5 08       		.byte	0x8
 413 00c6 09       		.uleb128 0x9
 414 00c7 CD000000 		.4byte	.LASF12
 415 00cb 06       		.byte	0x6
 416 00cc 5001     		.2byte	0x150
 417 00ce 11       		.byte	0x11
 418 00cf 70000000 		.4byte	0x70
 419 00d3 0C       		.byte	0xc
 420 00d4 00       		.byte	0
 421 00d5 0B       		.uleb128 0xb
 422 00d6 61030000 		.4byte	.LASF14
 423 00da 06       		.byte	0x6
 424 00db 5101     		.2byte	0x151
 425 00dd 02       		.byte	0x2
 426 00de 93000000 		.4byte	0x93
 427 00e2 06       		.uleb128 0x6
 428 00e3 70000000 		.4byte	0x70
 429 00e7 F2000000 		.4byte	0xf2
 430 00eb 07       		.uleb128 0x7
 431 00ec 2C000000 		.4byte	0x2c
 432 00f0 01       		.byte	0x1
 433 00f1 00       		.byte	0
 434 00f2 05       		.uleb128 0x5
 435 00f3 E2000000 		.4byte	0xe2
 436 00f7 06       		.uleb128 0x6
 437 00f8 70000000 		.4byte	0x70
 438 00fc 07010000 		.4byte	0x107
 439 0100 07       		.uleb128 0x7
 440 0101 2C000000 		.4byte	0x2c
 441 0105 03       		.byte	0x3
 442 0106 00       		.byte	0
 443 0107 05       		.uleb128 0x5
 444 0108 F7000000 		.4byte	0xf7
 445 010c 08       		.uleb128 0x8
 446 010d 88       		.byte	0x88
 447 010e 06       		.byte	0x6
 448 010f 6502     		.2byte	0x265
 449 0111 09       		.byte	0x9
 450 0112 BA020000 		.4byte	0x2ba
 451 0116 0A       		.uleb128 0xa
 452 0117 435200   		.ascii	"CR\000"
 453 011a 06       		.byte	0x6
 454 011b 6702     		.2byte	0x267
 455 011d 11       		.byte	0x11
 456 011e 70000000 		.4byte	0x70
ARM GAS  /tmp/ccJxq9Ts.s 			page 9


 457 0122 00       		.byte	0
 458 0123 09       		.uleb128 0x9
 459 0124 3F020000 		.4byte	.LASF15
 460 0128 06       		.byte	0x6
 461 0129 6802     		.2byte	0x268
 462 012b 11       		.byte	0x11
 463 012c 70000000 		.4byte	0x70
 464 0130 04       		.byte	0x4
 465 0131 09       		.uleb128 0x9
 466 0132 C8000000 		.4byte	.LASF16
 467 0136 06       		.byte	0x6
 468 0137 6902     		.2byte	0x269
 469 0139 11       		.byte	0x11
 470 013a 70000000 		.4byte	0x70
 471 013e 08       		.byte	0x8
 472 013f 0A       		.uleb128 0xa
 473 0140 43495200 		.ascii	"CIR\000"
 474 0144 06       		.byte	0x6
 475 0145 6A02     		.2byte	0x26a
 476 0147 11       		.byte	0x11
 477 0148 70000000 		.4byte	0x70
 478 014c 0C       		.byte	0xc
 479 014d 09       		.uleb128 0x9
 480 014e 2C040000 		.4byte	.LASF17
 481 0152 06       		.byte	0x6
 482 0153 6B02     		.2byte	0x26b
 483 0155 11       		.byte	0x11
 484 0156 70000000 		.4byte	0x70
 485 015a 10       		.byte	0x10
 486 015b 09       		.uleb128 0x9
 487 015c 1F020000 		.4byte	.LASF18
 488 0160 06       		.byte	0x6
 489 0161 6C02     		.2byte	0x26c
 490 0163 11       		.byte	0x11
 491 0164 70000000 		.4byte	0x70
 492 0168 14       		.byte	0x14
 493 0169 09       		.uleb128 0x9
 494 016a 35040000 		.4byte	.LASF19
 495 016e 06       		.byte	0x6
 496 016f 6D02     		.2byte	0x26d
 497 0171 11       		.byte	0x11
 498 0172 70000000 		.4byte	0x70
 499 0176 18       		.byte	0x18
 500 0177 09       		.uleb128 0x9
 501 0178 95030000 		.4byte	.LASF20
 502 017c 06       		.byte	0x6
 503 017d 6E02     		.2byte	0x26e
 504 017f 11       		.byte	0x11
 505 0180 64000000 		.4byte	0x64
 506 0184 1C       		.byte	0x1c
 507 0185 09       		.uleb128 0x9
 508 0186 23000000 		.4byte	.LASF21
 509 018a 06       		.byte	0x6
 510 018b 6F02     		.2byte	0x26f
 511 018d 11       		.byte	0x11
 512 018e 70000000 		.4byte	0x70
 513 0192 20       		.byte	0x20
ARM GAS  /tmp/ccJxq9Ts.s 			page 10


 514 0193 09       		.uleb128 0x9
 515 0194 82030000 		.4byte	.LASF22
 516 0198 06       		.byte	0x6
 517 0199 7002     		.2byte	0x270
 518 019b 11       		.byte	0x11
 519 019c 70000000 		.4byte	0x70
 520 01a0 24       		.byte	0x24
 521 01a1 09       		.uleb128 0x9
 522 01a2 9F030000 		.4byte	.LASF23
 523 01a6 06       		.byte	0x6
 524 01a7 7102     		.2byte	0x271
 525 01a9 11       		.byte	0x11
 526 01aa 83000000 		.4byte	0x83
 527 01ae 28       		.byte	0x28
 528 01af 09       		.uleb128 0x9
 529 01b0 E9030000 		.4byte	.LASF24
 530 01b4 06       		.byte	0x6
 531 01b5 7202     		.2byte	0x272
 532 01b7 11       		.byte	0x11
 533 01b8 70000000 		.4byte	0x70
 534 01bc 30       		.byte	0x30
 535 01bd 09       		.uleb128 0x9
 536 01be 2C000000 		.4byte	.LASF25
 537 01c2 06       		.byte	0x6
 538 01c3 7302     		.2byte	0x273
 539 01c5 11       		.byte	0x11
 540 01c6 70000000 		.4byte	0x70
 541 01ca 34       		.byte	0x34
 542 01cb 09       		.uleb128 0x9
 543 01cc DC000000 		.4byte	.LASF26
 544 01d0 06       		.byte	0x6
 545 01d1 7402     		.2byte	0x274
 546 01d3 11       		.byte	0x11
 547 01d4 70000000 		.4byte	0x70
 548 01d8 38       		.byte	0x38
 549 01d9 09       		.uleb128 0x9
 550 01da A9030000 		.4byte	.LASF27
 551 01de 06       		.byte	0x6
 552 01df 7502     		.2byte	0x275
 553 01e1 11       		.byte	0x11
 554 01e2 64000000 		.4byte	0x64
 555 01e6 3C       		.byte	0x3c
 556 01e7 09       		.uleb128 0x9
 557 01e8 D4000000 		.4byte	.LASF28
 558 01ec 06       		.byte	0x6
 559 01ed 7602     		.2byte	0x276
 560 01ef 11       		.byte	0x11
 561 01f0 70000000 		.4byte	0x70
 562 01f4 40       		.byte	0x40
 563 01f5 09       		.uleb128 0x9
 564 01f6 CD010000 		.4byte	.LASF29
 565 01fa 06       		.byte	0x6
 566 01fb 7702     		.2byte	0x277
 567 01fd 11       		.byte	0x11
 568 01fe 70000000 		.4byte	0x70
 569 0202 44       		.byte	0x44
 570 0203 09       		.uleb128 0x9
ARM GAS  /tmp/ccJxq9Ts.s 			page 11


 571 0204 B3030000 		.4byte	.LASF30
 572 0208 06       		.byte	0x6
 573 0209 7802     		.2byte	0x278
 574 020b 11       		.byte	0x11
 575 020c 83000000 		.4byte	0x83
 576 0210 48       		.byte	0x48
 577 0211 09       		.uleb128 0x9
 578 0212 00000000 		.4byte	.LASF31
 579 0216 06       		.byte	0x6
 580 0217 7902     		.2byte	0x279
 581 0219 11       		.byte	0x11
 582 021a 70000000 		.4byte	0x70
 583 021e 50       		.byte	0x50
 584 021f 09       		.uleb128 0x9
 585 0220 8B030000 		.4byte	.LASF32
 586 0224 06       		.byte	0x6
 587 0225 7A02     		.2byte	0x27a
 588 0227 11       		.byte	0x11
 589 0228 70000000 		.4byte	0x70
 590 022c 54       		.byte	0x54
 591 022d 09       		.uleb128 0x9
 592 022e B8000000 		.4byte	.LASF33
 593 0232 06       		.byte	0x6
 594 0233 7B02     		.2byte	0x27b
 595 0235 11       		.byte	0x11
 596 0236 70000000 		.4byte	0x70
 597 023a 58       		.byte	0x58
 598 023b 09       		.uleb128 0x9
 599 023c BD030000 		.4byte	.LASF34
 600 0240 06       		.byte	0x6
 601 0241 7C02     		.2byte	0x27c
 602 0243 11       		.byte	0x11
 603 0244 64000000 		.4byte	0x64
 604 0248 5C       		.byte	0x5c
 605 0249 09       		.uleb128 0x9
 606 024a 5A020000 		.4byte	.LASF35
 607 024e 06       		.byte	0x6
 608 024f 7D02     		.2byte	0x27d
 609 0251 11       		.byte	0x11
 610 0252 70000000 		.4byte	0x70
 611 0256 60       		.byte	0x60
 612 0257 09       		.uleb128 0x9
 613 0258 3E040000 		.4byte	.LASF36
 614 025c 06       		.byte	0x6
 615 025d 7E02     		.2byte	0x27e
 616 025f 11       		.byte	0x11
 617 0260 70000000 		.4byte	0x70
 618 0264 64       		.byte	0x64
 619 0265 09       		.uleb128 0x9
 620 0266 C7030000 		.4byte	.LASF37
 621 026a 06       		.byte	0x6
 622 026b 7F02     		.2byte	0x27f
 623 026d 11       		.byte	0x11
 624 026e 83000000 		.4byte	0x83
 625 0272 68       		.byte	0x68
 626 0273 09       		.uleb128 0x9
 627 0274 4A000000 		.4byte	.LASF38
ARM GAS  /tmp/ccJxq9Ts.s 			page 12


 628 0278 06       		.byte	0x6
 629 0279 8002     		.2byte	0x280
 630 027b 11       		.byte	0x11
 631 027c 70000000 		.4byte	0x70
 632 0280 70       		.byte	0x70
 633 0281 0A       		.uleb128 0xa
 634 0282 43535200 		.ascii	"CSR\000"
 635 0286 06       		.byte	0x6
 636 0287 8102     		.2byte	0x281
 637 0289 11       		.byte	0x11
 638 028a 70000000 		.4byte	0x70
 639 028e 74       		.byte	0x74
 640 028f 09       		.uleb128 0x9
 641 0290 D1030000 		.4byte	.LASF39
 642 0294 06       		.byte	0x6
 643 0295 8202     		.2byte	0x282
 644 0297 11       		.byte	0x11
 645 0298 83000000 		.4byte	0x83
 646 029c 78       		.byte	0x78
 647 029d 09       		.uleb128 0x9
 648 029e A8000000 		.4byte	.LASF40
 649 02a2 06       		.byte	0x6
 650 02a3 8302     		.2byte	0x283
 651 02a5 11       		.byte	0x11
 652 02a6 70000000 		.4byte	0x70
 653 02aa 80       		.byte	0x80
 654 02ab 09       		.uleb128 0x9
 655 02ac 60000000 		.4byte	.LASF41
 656 02b0 06       		.byte	0x6
 657 02b1 8402     		.2byte	0x284
 658 02b3 11       		.byte	0x11
 659 02b4 70000000 		.4byte	0x70
 660 02b8 84       		.byte	0x84
 661 02b9 00       		.byte	0
 662 02ba 0B       		.uleb128 0xb
 663 02bb 51010000 		.4byte	.LASF42
 664 02bf 06       		.byte	0x6
 665 02c0 8502     		.2byte	0x285
 666 02c2 03       		.byte	0x3
 667 02c3 0C010000 		.4byte	0x10c
 668 02c7 08       		.uleb128 0x8
 669 02c8 60       		.byte	0x60
 670 02c9 08       		.byte	0x8
 671 02ca A101     		.2byte	0x1a1
 672 02cc 09       		.byte	0x9
 673 02cd E8030000 		.4byte	0x3e8
 674 02d1 0A       		.uleb128 0xa
 675 02d2 43523100 		.ascii	"CR1\000"
 676 02d6 08       		.byte	0x8
 677 02d7 A201     		.2byte	0x1a2
 678 02d9 19       		.byte	0x19
 679 02da 70000000 		.4byte	0x70
 680 02de 00       		.byte	0
 681 02df 0A       		.uleb128 0xa
 682 02e0 43523200 		.ascii	"CR2\000"
 683 02e4 08       		.byte	0x8
 684 02e5 A301     		.2byte	0x1a3
ARM GAS  /tmp/ccJxq9Ts.s 			page 13


 685 02e7 19       		.byte	0x19
 686 02e8 70000000 		.4byte	0x70
 687 02ec 04       		.byte	0x4
 688 02ed 09       		.uleb128 0x9
 689 02ee A7010000 		.4byte	.LASF43
 690 02f2 08       		.byte	0x8
 691 02f3 A401     		.2byte	0x1a4
 692 02f5 19       		.byte	0x19
 693 02f6 70000000 		.4byte	0x70
 694 02fa 08       		.byte	0x8
 695 02fb 09       		.uleb128 0x9
 696 02fc 3A020000 		.4byte	.LASF44
 697 0300 08       		.byte	0x8
 698 0301 A501     		.2byte	0x1a5
 699 0303 19       		.byte	0x19
 700 0304 70000000 		.4byte	0x70
 701 0308 0C       		.byte	0xc
 702 0309 0A       		.uleb128 0xa
 703 030a 535200   		.ascii	"SR\000"
 704 030d 08       		.byte	0x8
 705 030e A601     		.2byte	0x1a6
 706 0310 19       		.byte	0x19
 707 0311 70000000 		.4byte	0x70
 708 0315 10       		.byte	0x10
 709 0316 0A       		.uleb128 0xa
 710 0317 45475200 		.ascii	"EGR\000"
 711 031b 08       		.byte	0x8
 712 031c A701     		.2byte	0x1a7
 713 031e 19       		.byte	0x19
 714 031f 70000000 		.4byte	0x70
 715 0323 14       		.byte	0x14
 716 0324 09       		.uleb128 0x9
 717 0325 39000000 		.4byte	.LASF45
 718 0329 08       		.byte	0x8
 719 032a A801     		.2byte	0x1a8
 720 032c 19       		.byte	0x19
 721 032d 70000000 		.4byte	0x70
 722 0331 18       		.byte	0x18
 723 0332 09       		.uleb128 0x9
 724 0333 3F000000 		.4byte	.LASF46
 725 0337 08       		.byte	0x8
 726 0338 A901     		.2byte	0x1a9
 727 033a 19       		.byte	0x19
 728 033b 70000000 		.4byte	0x70
 729 033f 1C       		.byte	0x1c
 730 0340 09       		.uleb128 0x9
 731 0341 0A000000 		.4byte	.LASF47
 732 0345 08       		.byte	0x8
 733 0346 AA01     		.2byte	0x1aa
 734 0348 19       		.byte	0x19
 735 0349 70000000 		.4byte	0x70
 736 034d 20       		.byte	0x20
 737 034e 0A       		.uleb128 0xa
 738 034f 434E5400 		.ascii	"CNT\000"
 739 0353 08       		.byte	0x8
 740 0354 AB01     		.2byte	0x1ab
 741 0356 19       		.byte	0x19
ARM GAS  /tmp/ccJxq9Ts.s 			page 14


 742 0357 70000000 		.4byte	0x70
 743 035b 24       		.byte	0x24
 744 035c 0A       		.uleb128 0xa
 745 035d 50534300 		.ascii	"PSC\000"
 746 0361 08       		.byte	0x8
 747 0362 AC01     		.2byte	0x1ac
 748 0364 19       		.byte	0x19
 749 0365 70000000 		.4byte	0x70
 750 0369 28       		.byte	0x28
 751 036a 0A       		.uleb128 0xa
 752 036b 41525200 		.ascii	"ARR\000"
 753 036f 08       		.byte	0x8
 754 0370 AD01     		.2byte	0x1ad
 755 0372 19       		.byte	0x19
 756 0373 70000000 		.4byte	0x70
 757 0377 2C       		.byte	0x2c
 758 0378 0A       		.uleb128 0xa
 759 0379 52435200 		.ascii	"RCR\000"
 760 037d 08       		.byte	0x8
 761 037e AE01     		.2byte	0x1ae
 762 0380 19       		.byte	0x19
 763 0381 70000000 		.4byte	0x70
 764 0385 30       		.byte	0x30
 765 0386 0A       		.uleb128 0xa
 766 0387 43435200 		.ascii	"CCR\000"
 767 038b 08       		.byte	0x8
 768 038c AF01     		.2byte	0x1af
 769 038e 19       		.byte	0x19
 770 038f 07010000 		.4byte	0x107
 771 0393 34       		.byte	0x34
 772 0394 09       		.uleb128 0x9
 773 0395 49030000 		.4byte	.LASF48
 774 0399 08       		.byte	0x8
 775 039a B001     		.2byte	0x1b0
 776 039c 19       		.byte	0x19
 777 039d 70000000 		.4byte	0x70
 778 03a1 44       		.byte	0x44
 779 03a2 0A       		.uleb128 0xa
 780 03a3 44435200 		.ascii	"DCR\000"
 781 03a7 08       		.byte	0x8
 782 03a8 B101     		.2byte	0x1b1
 783 03aa 19       		.byte	0x19
 784 03ab 70000000 		.4byte	0x70
 785 03af 48       		.byte	0x48
 786 03b0 09       		.uleb128 0x9
 787 03b1 34000000 		.4byte	.LASF49
 788 03b5 08       		.byte	0x8
 789 03b6 B201     		.2byte	0x1b2
 790 03b8 19       		.byte	0x19
 791 03b9 70000000 		.4byte	0x70
 792 03bd 4C       		.byte	0x4c
 793 03be 0A       		.uleb128 0xa
 794 03bf 4F5200   		.ascii	"OR\000"
 795 03c2 08       		.byte	0x8
 796 03c3 B301     		.2byte	0x1b3
 797 03c5 19       		.byte	0x19
 798 03c6 70000000 		.4byte	0x70
ARM GAS  /tmp/ccJxq9Ts.s 			page 15


 799 03ca 50       		.byte	0x50
 800 03cb 09       		.uleb128 0x9
 801 03cc 80010000 		.4byte	.LASF50
 802 03d0 08       		.byte	0x8
 803 03d1 B401     		.2byte	0x1b4
 804 03d3 19       		.byte	0x19
 805 03d4 70000000 		.4byte	0x70
 806 03d8 54       		.byte	0x54
 807 03d9 09       		.uleb128 0x9
 808 03da 45000000 		.4byte	.LASF51
 809 03de 08       		.byte	0x8
 810 03df B501     		.2byte	0x1b5
 811 03e1 19       		.byte	0x19
 812 03e2 F2000000 		.4byte	0xf2
 813 03e6 58       		.byte	0x58
 814 03e7 00       		.byte	0
 815 03e8 0B       		.uleb128 0xb
 816 03e9 3D030000 		.4byte	.LASF52
 817 03ed 08       		.byte	0x8
 818 03ee B601     		.2byte	0x1b6
 819 03f0 03       		.byte	0x3
 820 03f1 C7020000 		.4byte	0x2c7
 821 03f5 03       		.uleb128 0x3
 822 03f6 01       		.byte	0x1
 823 03f7 08       		.byte	0x8
 824 03f8 38030000 		.4byte	.LASF53
 825 03fc 03       		.uleb128 0x3
 826 03fd 01       		.byte	0x1
 827 03fe 02       		.byte	0x2
 828 03ff 70030000 		.4byte	.LASF54
 829 0403 0C       		.uleb128 0xc
 830 0404 20040000 		.4byte	.LASF55
 831 0408 01       		.byte	0x1
 832 0409 0B01     		.2byte	0x10b
 833 040b 06       		.byte	0x6
 834 040c 00000000 		.4byte	.LFB278
 835 0410 48000000 		.4byte	.LFE278-.LFB278
 836 0414 01       		.uleb128 0x1
 837 0415 9C       		.byte	0x9c
 838 0416 2F040000 		.4byte	0x42f
 839 041a 0D       		.uleb128 0xd
 840 041b 40000000 		.4byte	.LVL6
 841 041f D7050000 		.4byte	0x5d7
 842 0423 0E       		.uleb128 0xe
 843 0424 01       		.uleb128 0x1
 844 0425 50       		.byte	0x50
 845 0426 01       		.uleb128 0x1
 846 0427 4C       		.byte	0x4c
 847 0428 0E       		.uleb128 0xe
 848 0429 01       		.uleb128 0x1
 849 042a 51       		.byte	0x51
 850 042b 01       		.uleb128 0x1
 851 042c 38       		.byte	0x38
 852 042d 00       		.byte	0
 853 042e 00       		.byte	0
 854 042f 0F       		.uleb128 0xf
 855 0430 77010000 		.4byte	.LASF56
ARM GAS  /tmp/ccJxq9Ts.s 			page 16


 856 0434 01       		.byte	0x1
 857 0435 EF       		.byte	0xef
 858 0436 01       		.byte	0x1
 859 0437 00000000 		.4byte	.LFB277
 860 043b 2A000000 		.4byte	.LFE277-.LFB277
 861 043f 01       		.uleb128 0x1
 862 0440 9C       		.byte	0x9c
 863 0441 61050000 		.4byte	0x561
 864 0445 10       		.uleb128 0x10
 865 0446 75050000 		.4byte	0x575
 866 044a 14000000 		.4byte	.LBI52
 867 044e 01       		.byte	.LVU19
 868 044f 00000000 		.4byte	.Ldebug_ranges0+0
 869 0453 01       		.byte	0x1
 870 0454 F9       		.byte	0xf9
 871 0455 05       		.byte	0x5
 872 0456 B8040000 		.4byte	0x4b8
 873 045a 11       		.uleb128 0x11
 874 045b 89050000 		.4byte	0x589
 875 045f 14000000 		.4byte	.LBI53
 876 0463 03       		.byte	.LVU21
 877 0464 08000000 		.4byte	.Ldebug_ranges0+0x8
 878 0468 02       		.byte	0x2
 879 0469 0302     		.2byte	0x203
 880 046b 03       		.byte	0x3
 881 046c 11       		.uleb128 0x11
 882 046d 9D050000 		.4byte	0x59d
 883 0471 14000000 		.4byte	.LBI54
 884 0475 05       		.byte	.LVU23
 885 0476 10000000 		.4byte	.Ldebug_ranges0+0x10
 886 047a 03       		.byte	0x3
 887 047b A001     		.2byte	0x1a0
 888 047d 03       		.byte	0x3
 889 047e 11       		.uleb128 0x11
 890 047f B1050000 		.4byte	0x5b1
 891 0483 14000000 		.4byte	.LBI55
 892 0487 07       		.byte	.LVU25
 893 0488 18000000 		.4byte	.Ldebug_ranges0+0x18
 894 048c 04       		.byte	0x4
 895 048d 7B02     		.2byte	0x27b
 896 048f 03       		.byte	0x3
 897 0490 12       		.uleb128 0x12
 898 0491 BB050000 		.4byte	0x5bb
 899 0495 14000000 		.4byte	.LBI56
 900 0499 09       		.byte	.LVU27
 901 049a 14000000 		.4byte	.LBB56
 902 049e 06000000 		.4byte	.LBE56-.LBB56
 903 04a2 04       		.byte	0x4
 904 04a3 5A02     		.2byte	0x25a
 905 04a5 03       		.byte	0x3
 906 04a6 13       		.uleb128 0x13
 907 04a7 C9050000 		.4byte	0x5c9
 908 04ab 02000000 		.4byte	.LLST0
 909 04af 00000000 		.4byte	.LVUS0
 910 04b3 00       		.byte	0
 911 04b4 00       		.byte	0
 912 04b5 00       		.byte	0
ARM GAS  /tmp/ccJxq9Ts.s 			page 17


 913 04b6 00       		.byte	0
 914 04b7 00       		.byte	0
 915 04b8 14       		.uleb128 0x14
 916 04b9 61050000 		.4byte	0x561
 917 04bd 1A000000 		.4byte	.LBI68
 918 04c1 04       		.byte	.LVU33
 919 04c2 1A000000 		.4byte	.LBB68
 920 04c6 04000000 		.4byte	.LBE68-.LBB68
 921 04ca 01       		.byte	0x1
 922 04cb FA       		.byte	0xfa
 923 04cc 05       		.byte	0x5
 924 04cd DB040000 		.4byte	0x4db
 925 04d1 15       		.uleb128 0x15
 926 04d2 1E000000 		.4byte	.LVL3
 927 04d6 E3050000 		.4byte	0x5e3
 928 04da 00       		.byte	0
 929 04db 10       		.uleb128 0x10
 930 04dc 6B050000 		.4byte	0x56b
 931 04e0 1E000000 		.4byte	.LBI70
 932 04e4 01       		.byte	.LVU36
 933 04e5 30000000 		.4byte	.Ldebug_ranges0+0x30
 934 04e9 01       		.byte	0x1
 935 04ea FB       		.byte	0xfb
 936 04eb 05       		.byte	0x5
 937 04ec 4E050000 		.4byte	0x54e
 938 04f0 11       		.uleb128 0x11
 939 04f1 7F050000 		.4byte	0x57f
 940 04f5 1E000000 		.4byte	.LBI72
 941 04f9 03       		.byte	.LVU38
 942 04fa 58000000 		.4byte	.Ldebug_ranges0+0x58
 943 04fe 02       		.byte	0x2
 944 04ff 0E02     		.2byte	0x20e
 945 0501 03       		.byte	0x3
 946 0502 11       		.uleb128 0x11
 947 0503 93050000 		.4byte	0x593
 948 0507 1E000000 		.4byte	.LBI73
 949 050b 07       		.byte	.LVU42
 950 050c 80000000 		.4byte	.Ldebug_ranges0+0x80
 951 0510 03       		.byte	0x3
 952 0511 B601     		.2byte	0x1b6
 953 0513 03       		.byte	0x3
 954 0514 11       		.uleb128 0x11
 955 0515 A7050000 		.4byte	0x5a7
 956 0519 1E000000 		.4byte	.LBI74
 957 051d 09       		.byte	.LVU44
 958 051e A0000000 		.4byte	.Ldebug_ranges0+0xa0
 959 0522 04       		.byte	0x4
 960 0523 8602     		.2byte	0x286
 961 0525 03       		.byte	0x3
 962 0526 12       		.uleb128 0x12
 963 0527 BB050000 		.4byte	0x5bb
 964 052b 1E000000 		.4byte	.LBI75
 965 052f 0B       		.byte	.LVU46
 966 0530 1E000000 		.4byte	.LBB75
 967 0534 04000000 		.4byte	.LBE75-.LBB75
 968 0538 04       		.byte	0x4
 969 0539 6D02     		.2byte	0x26d
ARM GAS  /tmp/ccJxq9Ts.s 			page 18


 970 053b 03       		.byte	0x3
 971 053c 13       		.uleb128 0x13
 972 053d C9050000 		.4byte	0x5c9
 973 0541 19000000 		.4byte	.LLST1
 974 0545 17000000 		.4byte	.LVUS1
 975 0549 00       		.byte	0
 976 054a 00       		.byte	0
 977 054b 00       		.byte	0
 978 054c 00       		.byte	0
 979 054d 00       		.byte	0
 980 054e 16       		.uleb128 0x16
 981 054f 0E000000 		.4byte	.LVL0
 982 0553 F0050000 		.4byte	0x5f0
 983 0557 16       		.uleb128 0x16
 984 0558 2A000000 		.4byte	.LVL5
 985 055c F0050000 		.4byte	0x5f0
 986 0560 00       		.byte	0
 987 0561 17       		.uleb128 0x17
 988 0562 0F000000 		.4byte	.LASF57
 989 0566 02       		.byte	0x2
 990 0567 4702     		.2byte	0x247
 991 0569 14       		.byte	0x14
 992 056a 03       		.byte	0x3
 993 056b 17       		.uleb128 0x17
 994 056c 92010000 		.4byte	.LASF58
 995 0570 02       		.byte	0x2
 996 0571 0C02     		.2byte	0x20c
 997 0573 14       		.byte	0x14
 998 0574 03       		.byte	0x3
 999 0575 17       		.uleb128 0x17
 1000 0576 4E030000 		.4byte	.LASF59
 1001 057a 02       		.byte	0x2
 1002 057b 0102     		.2byte	0x201
 1003 057d 14       		.byte	0x14
 1004 057e 03       		.byte	0x3
 1005 057f 17       		.uleb128 0x17
 1006 0580 E4000000 		.4byte	.LASF60
 1007 0584 03       		.byte	0x3
 1008 0585 B201     		.2byte	0x1b2
 1009 0587 14       		.byte	0x14
 1010 0588 03       		.byte	0x3
 1011 0589 17       		.uleb128 0x17
 1012 058a 4F000000 		.4byte	.LASF61
 1013 058e 03       		.byte	0x3
 1014 058f 9E01     		.2byte	0x19e
 1015 0591 14       		.byte	0x14
 1016 0592 03       		.byte	0x3
 1017 0593 17       		.uleb128 0x17
 1018 0594 F8030000 		.4byte	.LASF62
 1019 0598 04       		.byte	0x4
 1020 0599 8402     		.2byte	0x284
 1021 059b 14       		.byte	0x14
 1022 059c 03       		.byte	0x3
 1023 059d 17       		.uleb128 0x17
 1024 059e 5D010000 		.4byte	.LASF63
 1025 05a2 04       		.byte	0x4
 1026 05a3 7902     		.2byte	0x279
ARM GAS  /tmp/ccJxq9Ts.s 			page 19


 1027 05a5 14       		.byte	0x14
 1028 05a6 03       		.byte	0x3
 1029 05a7 17       		.uleb128 0x17
 1030 05a8 76030000 		.4byte	.LASF64
 1031 05ac 04       		.byte	0x4
 1032 05ad 6A02     		.2byte	0x26a
 1033 05af 14       		.byte	0x14
 1034 05b0 03       		.byte	0x3
 1035 05b1 17       		.uleb128 0x17
 1036 05b2 6B000000 		.4byte	.LASF65
 1037 05b6 04       		.byte	0x4
 1038 05b7 5202     		.2byte	0x252
 1039 05b9 14       		.byte	0x14
 1040 05ba 03       		.byte	0x3
 1041 05bb 18       		.uleb128 0x18
 1042 05bc DB030000 		.4byte	.LASF72
 1043 05c0 05       		.byte	0x5
 1044 05c1 0601     		.2byte	0x106
 1045 05c3 39       		.byte	0x39
 1046 05c4 03       		.byte	0x3
 1047 05c5 D7050000 		.4byte	0x5d7
 1048 05c9 19       		.uleb128 0x19
 1049 05ca C2000000 		.4byte	.LASF73
 1050 05ce 05       		.byte	0x5
 1051 05cf 0601     		.2byte	0x106
 1052 05d1 50       		.byte	0x50
 1053 05d2 64000000 		.4byte	0x64
 1054 05d6 00       		.byte	0
 1055 05d7 1A       		.uleb128 0x1a
 1056 05d8 D5010000 		.4byte	.LASF66
 1057 05dc D5010000 		.4byte	.LASF66
 1058 05e0 09       		.byte	0x9
 1059 05e1 4E       		.byte	0x4e
 1060 05e2 08       		.byte	0x8
 1061 05e3 1B       		.uleb128 0x1b
 1062 05e4 0D040000 		.4byte	.LASF67
 1063 05e8 0D040000 		.4byte	.LASF67
 1064 05ec 03       		.byte	0x3
 1065 05ed 3401     		.2byte	0x134
 1066 05ef 08       		.byte	0x8
 1067 05f0 1B       		.uleb128 0x1b
 1068 05f1 AC010000 		.4byte	.LASF68
 1069 05f5 AC010000 		.4byte	.LASF68
 1070 05f9 04       		.byte	0x4
 1071 05fa EA01     		.2byte	0x1ea
 1072 05fc 08       		.byte	0x8
 1073 05fd 00       		.byte	0
 1074              		.section	.debug_abbrev,"",%progbits
 1075              	.Ldebug_abbrev0:
 1076 0000 01       		.uleb128 0x1
 1077 0001 11       		.uleb128 0x11
 1078 0002 01       		.byte	0x1
 1079 0003 25       		.uleb128 0x25
 1080 0004 0E       		.uleb128 0xe
 1081 0005 13       		.uleb128 0x13
 1082 0006 0B       		.uleb128 0xb
 1083 0007 03       		.uleb128 0x3
ARM GAS  /tmp/ccJxq9Ts.s 			page 20


 1084 0008 0E       		.uleb128 0xe
 1085 0009 1B       		.uleb128 0x1b
 1086 000a 0E       		.uleb128 0xe
 1087 000b 55       		.uleb128 0x55
 1088 000c 17       		.uleb128 0x17
 1089 000d 11       		.uleb128 0x11
 1090 000e 01       		.uleb128 0x1
 1091 000f 10       		.uleb128 0x10
 1092 0010 17       		.uleb128 0x17
 1093 0011 00       		.byte	0
 1094 0012 00       		.byte	0
 1095 0013 02       		.uleb128 0x2
 1096 0014 24       		.uleb128 0x24
 1097 0015 00       		.byte	0
 1098 0016 0B       		.uleb128 0xb
 1099 0017 0B       		.uleb128 0xb
 1100 0018 3E       		.uleb128 0x3e
 1101 0019 0B       		.uleb128 0xb
 1102 001a 03       		.uleb128 0x3
 1103 001b 08       		.uleb128 0x8
 1104 001c 00       		.byte	0
 1105 001d 00       		.byte	0
 1106 001e 03       		.uleb128 0x3
 1107 001f 24       		.uleb128 0x24
 1108 0020 00       		.byte	0
 1109 0021 0B       		.uleb128 0xb
 1110 0022 0B       		.uleb128 0xb
 1111 0023 3E       		.uleb128 0x3e
 1112 0024 0B       		.uleb128 0xb
 1113 0025 03       		.uleb128 0x3
 1114 0026 0E       		.uleb128 0xe
 1115 0027 00       		.byte	0
 1116 0028 00       		.byte	0
 1117 0029 04       		.uleb128 0x4
 1118 002a 16       		.uleb128 0x16
 1119 002b 00       		.byte	0
 1120 002c 03       		.uleb128 0x3
 1121 002d 0E       		.uleb128 0xe
 1122 002e 3A       		.uleb128 0x3a
 1123 002f 0B       		.uleb128 0xb
 1124 0030 3B       		.uleb128 0x3b
 1125 0031 0B       		.uleb128 0xb
 1126 0032 39       		.uleb128 0x39
 1127 0033 0B       		.uleb128 0xb
 1128 0034 49       		.uleb128 0x49
 1129 0035 13       		.uleb128 0x13
 1130 0036 00       		.byte	0
 1131 0037 00       		.byte	0
 1132 0038 05       		.uleb128 0x5
 1133 0039 35       		.uleb128 0x35
 1134 003a 00       		.byte	0
 1135 003b 49       		.uleb128 0x49
 1136 003c 13       		.uleb128 0x13
 1137 003d 00       		.byte	0
 1138 003e 00       		.byte	0
 1139 003f 06       		.uleb128 0x6
 1140 0040 01       		.uleb128 0x1
ARM GAS  /tmp/ccJxq9Ts.s 			page 21


 1141 0041 01       		.byte	0x1
 1142 0042 49       		.uleb128 0x49
 1143 0043 13       		.uleb128 0x13
 1144 0044 01       		.uleb128 0x1
 1145 0045 13       		.uleb128 0x13
 1146 0046 00       		.byte	0
 1147 0047 00       		.byte	0
 1148 0048 07       		.uleb128 0x7
 1149 0049 21       		.uleb128 0x21
 1150 004a 00       		.byte	0
 1151 004b 49       		.uleb128 0x49
 1152 004c 13       		.uleb128 0x13
 1153 004d 2F       		.uleb128 0x2f
 1154 004e 0B       		.uleb128 0xb
 1155 004f 00       		.byte	0
 1156 0050 00       		.byte	0
 1157 0051 08       		.uleb128 0x8
 1158 0052 13       		.uleb128 0x13
 1159 0053 01       		.byte	0x1
 1160 0054 0B       		.uleb128 0xb
 1161 0055 0B       		.uleb128 0xb
 1162 0056 3A       		.uleb128 0x3a
 1163 0057 0B       		.uleb128 0xb
 1164 0058 3B       		.uleb128 0x3b
 1165 0059 05       		.uleb128 0x5
 1166 005a 39       		.uleb128 0x39
 1167 005b 0B       		.uleb128 0xb
 1168 005c 01       		.uleb128 0x1
 1169 005d 13       		.uleb128 0x13
 1170 005e 00       		.byte	0
 1171 005f 00       		.byte	0
 1172 0060 09       		.uleb128 0x9
 1173 0061 0D       		.uleb128 0xd
 1174 0062 00       		.byte	0
 1175 0063 03       		.uleb128 0x3
 1176 0064 0E       		.uleb128 0xe
 1177 0065 3A       		.uleb128 0x3a
 1178 0066 0B       		.uleb128 0xb
 1179 0067 3B       		.uleb128 0x3b
 1180 0068 05       		.uleb128 0x5
 1181 0069 39       		.uleb128 0x39
 1182 006a 0B       		.uleb128 0xb
 1183 006b 49       		.uleb128 0x49
 1184 006c 13       		.uleb128 0x13
 1185 006d 38       		.uleb128 0x38
 1186 006e 0B       		.uleb128 0xb
 1187 006f 00       		.byte	0
 1188 0070 00       		.byte	0
 1189 0071 0A       		.uleb128 0xa
 1190 0072 0D       		.uleb128 0xd
 1191 0073 00       		.byte	0
 1192 0074 03       		.uleb128 0x3
 1193 0075 08       		.uleb128 0x8
 1194 0076 3A       		.uleb128 0x3a
 1195 0077 0B       		.uleb128 0xb
 1196 0078 3B       		.uleb128 0x3b
 1197 0079 05       		.uleb128 0x5
ARM GAS  /tmp/ccJxq9Ts.s 			page 22


 1198 007a 39       		.uleb128 0x39
 1199 007b 0B       		.uleb128 0xb
 1200 007c 49       		.uleb128 0x49
 1201 007d 13       		.uleb128 0x13
 1202 007e 38       		.uleb128 0x38
 1203 007f 0B       		.uleb128 0xb
 1204 0080 00       		.byte	0
 1205 0081 00       		.byte	0
 1206 0082 0B       		.uleb128 0xb
 1207 0083 16       		.uleb128 0x16
 1208 0084 00       		.byte	0
 1209 0085 03       		.uleb128 0x3
 1210 0086 0E       		.uleb128 0xe
 1211 0087 3A       		.uleb128 0x3a
 1212 0088 0B       		.uleb128 0xb
 1213 0089 3B       		.uleb128 0x3b
 1214 008a 05       		.uleb128 0x5
 1215 008b 39       		.uleb128 0x39
 1216 008c 0B       		.uleb128 0xb
 1217 008d 49       		.uleb128 0x49
 1218 008e 13       		.uleb128 0x13
 1219 008f 00       		.byte	0
 1220 0090 00       		.byte	0
 1221 0091 0C       		.uleb128 0xc
 1222 0092 2E       		.uleb128 0x2e
 1223 0093 01       		.byte	0x1
 1224 0094 3F       		.uleb128 0x3f
 1225 0095 19       		.uleb128 0x19
 1226 0096 03       		.uleb128 0x3
 1227 0097 0E       		.uleb128 0xe
 1228 0098 3A       		.uleb128 0x3a
 1229 0099 0B       		.uleb128 0xb
 1230 009a 3B       		.uleb128 0x3b
 1231 009b 05       		.uleb128 0x5
 1232 009c 39       		.uleb128 0x39
 1233 009d 0B       		.uleb128 0xb
 1234 009e 27       		.uleb128 0x27
 1235 009f 19       		.uleb128 0x19
 1236 00a0 11       		.uleb128 0x11
 1237 00a1 01       		.uleb128 0x1
 1238 00a2 12       		.uleb128 0x12
 1239 00a3 06       		.uleb128 0x6
 1240 00a4 40       		.uleb128 0x40
 1241 00a5 18       		.uleb128 0x18
 1242 00a6 9742     		.uleb128 0x2117
 1243 00a8 19       		.uleb128 0x19
 1244 00a9 01       		.uleb128 0x1
 1245 00aa 13       		.uleb128 0x13
 1246 00ab 00       		.byte	0
 1247 00ac 00       		.byte	0
 1248 00ad 0D       		.uleb128 0xd
 1249 00ae 898201   		.uleb128 0x4109
 1250 00b1 01       		.byte	0x1
 1251 00b2 11       		.uleb128 0x11
 1252 00b3 01       		.uleb128 0x1
 1253 00b4 9542     		.uleb128 0x2115
 1254 00b6 19       		.uleb128 0x19
ARM GAS  /tmp/ccJxq9Ts.s 			page 23


 1255 00b7 31       		.uleb128 0x31
 1256 00b8 13       		.uleb128 0x13
 1257 00b9 00       		.byte	0
 1258 00ba 00       		.byte	0
 1259 00bb 0E       		.uleb128 0xe
 1260 00bc 8A8201   		.uleb128 0x410a
 1261 00bf 00       		.byte	0
 1262 00c0 02       		.uleb128 0x2
 1263 00c1 18       		.uleb128 0x18
 1264 00c2 9142     		.uleb128 0x2111
 1265 00c4 18       		.uleb128 0x18
 1266 00c5 00       		.byte	0
 1267 00c6 00       		.byte	0
 1268 00c7 0F       		.uleb128 0xf
 1269 00c8 2E       		.uleb128 0x2e
 1270 00c9 01       		.byte	0x1
 1271 00ca 3F       		.uleb128 0x3f
 1272 00cb 19       		.uleb128 0x19
 1273 00cc 03       		.uleb128 0x3
 1274 00cd 0E       		.uleb128 0xe
 1275 00ce 3A       		.uleb128 0x3a
 1276 00cf 0B       		.uleb128 0xb
 1277 00d0 3B       		.uleb128 0x3b
 1278 00d1 0B       		.uleb128 0xb
 1279 00d2 39       		.uleb128 0x39
 1280 00d3 0B       		.uleb128 0xb
 1281 00d4 27       		.uleb128 0x27
 1282 00d5 19       		.uleb128 0x19
 1283 00d6 11       		.uleb128 0x11
 1284 00d7 01       		.uleb128 0x1
 1285 00d8 12       		.uleb128 0x12
 1286 00d9 06       		.uleb128 0x6
 1287 00da 40       		.uleb128 0x40
 1288 00db 18       		.uleb128 0x18
 1289 00dc 9742     		.uleb128 0x2117
 1290 00de 19       		.uleb128 0x19
 1291 00df 01       		.uleb128 0x1
 1292 00e0 13       		.uleb128 0x13
 1293 00e1 00       		.byte	0
 1294 00e2 00       		.byte	0
 1295 00e3 10       		.uleb128 0x10
 1296 00e4 1D       		.uleb128 0x1d
 1297 00e5 01       		.byte	0x1
 1298 00e6 31       		.uleb128 0x31
 1299 00e7 13       		.uleb128 0x13
 1300 00e8 52       		.uleb128 0x52
 1301 00e9 01       		.uleb128 0x1
 1302 00ea B842     		.uleb128 0x2138
 1303 00ec 0B       		.uleb128 0xb
 1304 00ed 55       		.uleb128 0x55
 1305 00ee 17       		.uleb128 0x17
 1306 00ef 58       		.uleb128 0x58
 1307 00f0 0B       		.uleb128 0xb
 1308 00f1 59       		.uleb128 0x59
 1309 00f2 0B       		.uleb128 0xb
 1310 00f3 57       		.uleb128 0x57
 1311 00f4 0B       		.uleb128 0xb
ARM GAS  /tmp/ccJxq9Ts.s 			page 24


 1312 00f5 01       		.uleb128 0x1
 1313 00f6 13       		.uleb128 0x13
 1314 00f7 00       		.byte	0
 1315 00f8 00       		.byte	0
 1316 00f9 11       		.uleb128 0x11
 1317 00fa 1D       		.uleb128 0x1d
 1318 00fb 01       		.byte	0x1
 1319 00fc 31       		.uleb128 0x31
 1320 00fd 13       		.uleb128 0x13
 1321 00fe 52       		.uleb128 0x52
 1322 00ff 01       		.uleb128 0x1
 1323 0100 B842     		.uleb128 0x2138
 1324 0102 0B       		.uleb128 0xb
 1325 0103 55       		.uleb128 0x55
 1326 0104 17       		.uleb128 0x17
 1327 0105 58       		.uleb128 0x58
 1328 0106 0B       		.uleb128 0xb
 1329 0107 59       		.uleb128 0x59
 1330 0108 05       		.uleb128 0x5
 1331 0109 57       		.uleb128 0x57
 1332 010a 0B       		.uleb128 0xb
 1333 010b 00       		.byte	0
 1334 010c 00       		.byte	0
 1335 010d 12       		.uleb128 0x12
 1336 010e 1D       		.uleb128 0x1d
 1337 010f 01       		.byte	0x1
 1338 0110 31       		.uleb128 0x31
 1339 0111 13       		.uleb128 0x13
 1340 0112 52       		.uleb128 0x52
 1341 0113 01       		.uleb128 0x1
 1342 0114 B842     		.uleb128 0x2138
 1343 0116 0B       		.uleb128 0xb
 1344 0117 11       		.uleb128 0x11
 1345 0118 01       		.uleb128 0x1
 1346 0119 12       		.uleb128 0x12
 1347 011a 06       		.uleb128 0x6
 1348 011b 58       		.uleb128 0x58
 1349 011c 0B       		.uleb128 0xb
 1350 011d 59       		.uleb128 0x59
 1351 011e 05       		.uleb128 0x5
 1352 011f 57       		.uleb128 0x57
 1353 0120 0B       		.uleb128 0xb
 1354 0121 00       		.byte	0
 1355 0122 00       		.byte	0
 1356 0123 13       		.uleb128 0x13
 1357 0124 05       		.uleb128 0x5
 1358 0125 00       		.byte	0
 1359 0126 31       		.uleb128 0x31
 1360 0127 13       		.uleb128 0x13
 1361 0128 02       		.uleb128 0x2
 1362 0129 17       		.uleb128 0x17
 1363 012a B742     		.uleb128 0x2137
 1364 012c 17       		.uleb128 0x17
 1365 012d 00       		.byte	0
 1366 012e 00       		.byte	0
 1367 012f 14       		.uleb128 0x14
 1368 0130 1D       		.uleb128 0x1d
ARM GAS  /tmp/ccJxq9Ts.s 			page 25


 1369 0131 01       		.byte	0x1
 1370 0132 31       		.uleb128 0x31
 1371 0133 13       		.uleb128 0x13
 1372 0134 52       		.uleb128 0x52
 1373 0135 01       		.uleb128 0x1
 1374 0136 B842     		.uleb128 0x2138
 1375 0138 0B       		.uleb128 0xb
 1376 0139 11       		.uleb128 0x11
 1377 013a 01       		.uleb128 0x1
 1378 013b 12       		.uleb128 0x12
 1379 013c 06       		.uleb128 0x6
 1380 013d 58       		.uleb128 0x58
 1381 013e 0B       		.uleb128 0xb
 1382 013f 59       		.uleb128 0x59
 1383 0140 0B       		.uleb128 0xb
 1384 0141 57       		.uleb128 0x57
 1385 0142 0B       		.uleb128 0xb
 1386 0143 01       		.uleb128 0x1
 1387 0144 13       		.uleb128 0x13
 1388 0145 00       		.byte	0
 1389 0146 00       		.byte	0
 1390 0147 15       		.uleb128 0x15
 1391 0148 898201   		.uleb128 0x4109
 1392 014b 00       		.byte	0
 1393 014c 11       		.uleb128 0x11
 1394 014d 01       		.uleb128 0x1
 1395 014e 31       		.uleb128 0x31
 1396 014f 13       		.uleb128 0x13
 1397 0150 00       		.byte	0
 1398 0151 00       		.byte	0
 1399 0152 16       		.uleb128 0x16
 1400 0153 898201   		.uleb128 0x4109
 1401 0156 00       		.byte	0
 1402 0157 11       		.uleb128 0x11
 1403 0158 01       		.uleb128 0x1
 1404 0159 9542     		.uleb128 0x2115
 1405 015b 19       		.uleb128 0x19
 1406 015c 31       		.uleb128 0x31
 1407 015d 13       		.uleb128 0x13
 1408 015e 00       		.byte	0
 1409 015f 00       		.byte	0
 1410 0160 17       		.uleb128 0x17
 1411 0161 2E       		.uleb128 0x2e
 1412 0162 00       		.byte	0
 1413 0163 03       		.uleb128 0x3
 1414 0164 0E       		.uleb128 0xe
 1415 0165 3A       		.uleb128 0x3a
 1416 0166 0B       		.uleb128 0xb
 1417 0167 3B       		.uleb128 0x3b
 1418 0168 05       		.uleb128 0x5
 1419 0169 39       		.uleb128 0x39
 1420 016a 0B       		.uleb128 0xb
 1421 016b 27       		.uleb128 0x27
 1422 016c 19       		.uleb128 0x19
 1423 016d 20       		.uleb128 0x20
 1424 016e 0B       		.uleb128 0xb
 1425 016f 00       		.byte	0
ARM GAS  /tmp/ccJxq9Ts.s 			page 26


 1426 0170 00       		.byte	0
 1427 0171 18       		.uleb128 0x18
 1428 0172 2E       		.uleb128 0x2e
 1429 0173 01       		.byte	0x1
 1430 0174 03       		.uleb128 0x3
 1431 0175 0E       		.uleb128 0xe
 1432 0176 3A       		.uleb128 0x3a
 1433 0177 0B       		.uleb128 0xb
 1434 0178 3B       		.uleb128 0x3b
 1435 0179 05       		.uleb128 0x5
 1436 017a 39       		.uleb128 0x39
 1437 017b 0B       		.uleb128 0xb
 1438 017c 27       		.uleb128 0x27
 1439 017d 19       		.uleb128 0x19
 1440 017e 20       		.uleb128 0x20
 1441 017f 0B       		.uleb128 0xb
 1442 0180 01       		.uleb128 0x1
 1443 0181 13       		.uleb128 0x13
 1444 0182 00       		.byte	0
 1445 0183 00       		.byte	0
 1446 0184 19       		.uleb128 0x19
 1447 0185 05       		.uleb128 0x5
 1448 0186 00       		.byte	0
 1449 0187 03       		.uleb128 0x3
 1450 0188 0E       		.uleb128 0xe
 1451 0189 3A       		.uleb128 0x3a
 1452 018a 0B       		.uleb128 0xb
 1453 018b 3B       		.uleb128 0x3b
 1454 018c 05       		.uleb128 0x5
 1455 018d 39       		.uleb128 0x39
 1456 018e 0B       		.uleb128 0xb
 1457 018f 49       		.uleb128 0x49
 1458 0190 13       		.uleb128 0x13
 1459 0191 00       		.byte	0
 1460 0192 00       		.byte	0
 1461 0193 1A       		.uleb128 0x1a
 1462 0194 2E       		.uleb128 0x2e
 1463 0195 00       		.byte	0
 1464 0196 3F       		.uleb128 0x3f
 1465 0197 19       		.uleb128 0x19
 1466 0198 3C       		.uleb128 0x3c
 1467 0199 19       		.uleb128 0x19
 1468 019a 6E       		.uleb128 0x6e
 1469 019b 0E       		.uleb128 0xe
 1470 019c 03       		.uleb128 0x3
 1471 019d 0E       		.uleb128 0xe
 1472 019e 3A       		.uleb128 0x3a
 1473 019f 0B       		.uleb128 0xb
 1474 01a0 3B       		.uleb128 0x3b
 1475 01a1 0B       		.uleb128 0xb
 1476 01a2 39       		.uleb128 0x39
 1477 01a3 0B       		.uleb128 0xb
 1478 01a4 00       		.byte	0
 1479 01a5 00       		.byte	0
 1480 01a6 1B       		.uleb128 0x1b
 1481 01a7 2E       		.uleb128 0x2e
 1482 01a8 00       		.byte	0
ARM GAS  /tmp/ccJxq9Ts.s 			page 27


 1483 01a9 3F       		.uleb128 0x3f
 1484 01aa 19       		.uleb128 0x19
 1485 01ab 3C       		.uleb128 0x3c
 1486 01ac 19       		.uleb128 0x19
 1487 01ad 6E       		.uleb128 0x6e
 1488 01ae 0E       		.uleb128 0xe
 1489 01af 03       		.uleb128 0x3
 1490 01b0 0E       		.uleb128 0xe
 1491 01b1 3A       		.uleb128 0x3a
 1492 01b2 0B       		.uleb128 0xb
 1493 01b3 3B       		.uleb128 0x3b
 1494 01b4 05       		.uleb128 0x5
 1495 01b5 39       		.uleb128 0x39
 1496 01b6 0B       		.uleb128 0xb
 1497 01b7 00       		.byte	0
 1498 01b8 00       		.byte	0
 1499 01b9 00       		.byte	0
 1500              		.section	.debug_loc,"",%progbits
 1501              	.Ldebug_loc0:
 1502              	.LVUS0:
 1503 0000 09       		.uleb128 .LVU27
 1504 0001 00       		.uleb128 .LVU29
 1505              	.LLST0:
 1506 0002 14000000 		.4byte	.LVL1
 1507 0006 1A000000 		.4byte	.LVL2
 1508 000a 0300     		.2byte	0x3
 1509 000c 08       		.byte	0x8
 1510 000d 20       		.byte	0x20
 1511 000e 9F       		.byte	0x9f
 1512 000f 00000000 		.4byte	0
 1513 0013 00000000 		.4byte	0
 1514              	.LVUS1:
 1515 0017 0B       		.uleb128 .LVU46
 1516 0018 00       		.uleb128 .LVU48
 1517              	.LLST1:
 1518 0019 1E000000 		.4byte	.LVL3
 1519 001d 22000000 		.4byte	.LVL4
 1520 0021 0200     		.2byte	0x2
 1521 0023 30       		.byte	0x30
 1522 0024 9F       		.byte	0x9f
 1523 0025 00000000 		.4byte	0
 1524 0029 00000000 		.4byte	0
 1525              		.section	.debug_aranges,"",%progbits
 1526 0000 24000000 		.4byte	0x24
 1527 0004 0200     		.2byte	0x2
 1528 0006 00000000 		.4byte	.Ldebug_info0
 1529 000a 04       		.byte	0x4
 1530 000b 00       		.byte	0
 1531 000c 0000     		.2byte	0
 1532 000e 0000     		.2byte	0
 1533 0010 00000000 		.4byte	.LFB277
 1534 0014 2A000000 		.4byte	.LFE277-.LFB277
 1535 0018 00000000 		.4byte	.LFB278
 1536 001c 48000000 		.4byte	.LFE278-.LFB278
 1537 0020 00000000 		.4byte	0
 1538 0024 00000000 		.4byte	0
 1539              		.section	.debug_ranges,"",%progbits
ARM GAS  /tmp/ccJxq9Ts.s 			page 28


 1540              	.Ldebug_ranges0:
 1541 0000 14000000 		.4byte	.LBB52
 1542 0004 14000000 		.4byte	.LBE52
 1543 0008 14000000 		.4byte	.LBB64
 1544 000c 14000000 		.4byte	.LBE64
 1545 0010 14000000 		.4byte	.LBB65
 1546 0014 14000000 		.4byte	.LBE65
 1547 0018 14000000 		.4byte	.LBB66
 1548 001c 14000000 		.4byte	.LBE66
 1549 0020 14000000 		.4byte	.LBB67
 1550 0024 1A000000 		.4byte	.LBE67
 1551 0028 00000000 		.4byte	0
 1552 002c 00000000 		.4byte	0
 1553 0030 1E000000 		.4byte	.LBB70
 1554 0034 1E000000 		.4byte	.LBE70
 1555 0038 1E000000 		.4byte	.LBB86
 1556 003c 1E000000 		.4byte	.LBE86
 1557 0040 1E000000 		.4byte	.LBB87
 1558 0044 1E000000 		.4byte	.LBE87
 1559 0048 1E000000 		.4byte	.LBB88
 1560 004c 22000000 		.4byte	.LBE88
 1561 0050 00000000 		.4byte	0
 1562 0054 00000000 		.4byte	0
 1563 0058 1E000000 		.4byte	.LBB72
 1564 005c 1E000000 		.4byte	.LBE72
 1565 0060 1E000000 		.4byte	.LBB80
 1566 0064 1E000000 		.4byte	.LBE80
 1567 0068 1E000000 		.4byte	.LBB81
 1568 006c 1E000000 		.4byte	.LBE81
 1569 0070 1E000000 		.4byte	.LBB82
 1570 0074 22000000 		.4byte	.LBE82
 1571 0078 00000000 		.4byte	0
 1572 007c 00000000 		.4byte	0
 1573 0080 1E000000 		.4byte	.LBB73
 1574 0084 1E000000 		.4byte	.LBE73
 1575 0088 1E000000 		.4byte	.LBB78
 1576 008c 1E000000 		.4byte	.LBE78
 1577 0090 1E000000 		.4byte	.LBB79
 1578 0094 22000000 		.4byte	.LBE79
 1579 0098 00000000 		.4byte	0
 1580 009c 00000000 		.4byte	0
 1581 00a0 1E000000 		.4byte	.LBB74
 1582 00a4 1E000000 		.4byte	.LBE74
 1583 00a8 1E000000 		.4byte	.LBB77
 1584 00ac 22000000 		.4byte	.LBE77
 1585 00b0 00000000 		.4byte	0
 1586 00b4 00000000 		.4byte	0
 1587 00b8 00000000 		.4byte	.LFB277
 1588 00bc 2A000000 		.4byte	.LFE277
 1589 00c0 00000000 		.4byte	.LFB278
 1590 00c4 48000000 		.4byte	.LFE278
 1591 00c8 00000000 		.4byte	0
 1592 00cc 00000000 		.4byte	0
 1593              		.section	.debug_line,"",%progbits
 1594              	.Ldebug_line0:
 1595 0000 14030000 		.section	.debug_str,"MS",%progbits,1
 1595      03009F01 
ARM GAS  /tmp/ccJxq9Ts.s 			page 29


 1595      00000201 
 1595      FB0E0D00 
 1595      01010101 
 1596              	.LASF31:
 1597 0000 41484231 		.ascii	"AHB1LPENR\000"
 1597      4C50454E 
 1597      5200
 1598              	.LASF47:
 1599 000a 43434552 		.ascii	"CCER\000"
 1599      00
 1600              	.LASF57:
 1601 000f 6F73616C 		.ascii	"osalOsTimerHandlerI\000"
 1601      4F735469 
 1601      6D657248 
 1601      616E646C 
 1601      65724900 
 1602              	.LASF21:
 1603 0023 41504231 		.ascii	"APB1RSTR\000"
 1603      52535452 
 1603      00
 1604              	.LASF25:
 1605 002c 41484232 		.ascii	"AHB2ENR\000"
 1605      454E5200 
 1606              	.LASF49:
 1607 0034 444D4152 		.ascii	"DMAR\000"
 1607      00
 1608              	.LASF45:
 1609 0039 43434D52 		.ascii	"CCMR1\000"
 1609      3100
 1610              	.LASF46:
 1611 003f 43434D52 		.ascii	"CCMR2\000"
 1611      3200
 1612              	.LASF51:
 1613 0045 43435852 		.ascii	"CCXR\000"
 1613      00
 1614              	.LASF38:
 1615 004a 42444352 		.ascii	"BDCR\000"
 1615      00
 1616              	.LASF61:
 1617 004f 63685379 		.ascii	"chSysLockFromISR\000"
 1617      734C6F63 
 1617      6B46726F 
 1617      6D495352 
 1617      00
 1618              	.LASF41:
 1619 0060 504C4C49 		.ascii	"PLLI2SCFGR\000"
 1619      32534346 
 1619      475200
 1620              	.LASF65:
 1621 006b 706F7274 		.ascii	"port_lock\000"
 1621      5F6C6F63 
 1621      6B00
 1622              	.LASF70:
 1623 0075 2E2E2F2E 		.ascii	"../../../os/hal/ports/STM32/LLD/TIMv1/hal_st_lld.c\000"
 1623      2E2F2E2E 
 1623      2F6F732F 
 1623      68616C2F 
ARM GAS  /tmp/ccJxq9Ts.s 			page 30


 1623      706F7274 
 1624              	.LASF40:
 1625 00a8 53534347 		.ascii	"SSCGR\000"
 1625      5200
 1626              	.LASF4:
 1627 00ae 73686F72 		.ascii	"short int\000"
 1627      7420696E 
 1627      7400
 1628              	.LASF33:
 1629 00b8 41484233 		.ascii	"AHB3LPENR\000"
 1629      4C50454E 
 1629      5200
 1630              	.LASF73:
 1631 00c2 76616C75 		.ascii	"value\000"
 1631      6500
 1632              	.LASF16:
 1633 00c8 43464752 		.ascii	"CFGR\000"
 1633      00
 1634              	.LASF12:
 1635 00cd 41504232 		.ascii	"APB2FZ\000"
 1635      465A00
 1636              	.LASF28:
 1637 00d4 41504231 		.ascii	"APB1ENR\000"
 1637      454E5200 
 1638              	.LASF26:
 1639 00dc 41484233 		.ascii	"AHB3ENR\000"
 1639      454E5200 
 1640              	.LASF60:
 1641 00e4 63685379 		.ascii	"chSysUnlockFromISR\000"
 1641      73556E6C 
 1641      6F636B46 
 1641      726F6D49 
 1641      535200
 1642              	.LASF1:
 1643 00f7 6C6F6E67 		.ascii	"long long int\000"
 1643      206C6F6E 
 1643      6720696E 
 1643      7400
 1644              	.LASF5:
 1645 0105 6C6F6E67 		.ascii	"long int\000"
 1645      20696E74 
 1645      00
 1646              	.LASF71:
 1647 010e 2F686F6D 		.ascii	"/home/tfateba/nlab/ip/trunk/demos/STM32/RT-STM32F40"
 1647      652F7466 
 1647      61746562 
 1647      612F6E6C 
 1647      61622F69 
 1648 0141 372D4449 		.ascii	"7-DISCOVERY-G++\000"
 1648      53434F56 
 1648      4552592D 
 1648      472B2B00 
 1649              	.LASF42:
 1650 0151 5243435F 		.ascii	"RCC_TypeDef\000"
 1650      54797065 
 1650      44656600 
 1651              	.LASF63:
ARM GAS  /tmp/ccJxq9Ts.s 			page 31


 1652 015d 706F7274 		.ascii	"port_lock_from_isr\000"
 1652      5F6C6F63 
 1652      6B5F6672 
 1652      6F6D5F69 
 1652      737200
 1653              	.LASF11:
 1654 0170 41504231 		.ascii	"APB1FZ\000"
 1654      465A00
 1655              	.LASF56:
 1656 0177 56656374 		.ascii	"VectorB0\000"
 1656      6F724230 
 1656      00
 1657              	.LASF50:
 1658 0180 43434D52 		.ascii	"CCMR3\000"
 1658      3300
 1659              	.LASF2:
 1660 0186 6C6F6E67 		.ascii	"long double\000"
 1660      20646F75 
 1660      626C6500 
 1661              	.LASF58:
 1662 0192 6F73616C 		.ascii	"osalSysUnlockFromISR\000"
 1662      53797355 
 1662      6E6C6F63 
 1662      6B46726F 
 1662      6D495352 
 1663              	.LASF43:
 1664 01a7 534D4352 		.ascii	"SMCR\000"
 1664      00
 1665              	.LASF68:
 1666 01ac 5F706F72 		.ascii	"_port_irq_epilogue\000"
 1666      745F6972 
 1666      715F6570 
 1666      696C6F67 
 1666      756500
 1667              	.LASF6:
 1668 01bf 756E7369 		.ascii	"unsigned char\000"
 1668      676E6564 
 1668      20636861 
 1668      7200
 1669              	.LASF29:
 1670 01cd 41504232 		.ascii	"APB2ENR\000"
 1670      454E5200 
 1671              	.LASF66:
 1672 01d5 6E766963 		.ascii	"nvicEnableVector\000"
 1672      456E6162 
 1672      6C655665 
 1672      63746F72 
 1672      00
 1673              	.LASF3:
 1674 01e6 7369676E 		.ascii	"signed char\000"
 1674      65642063 
 1674      68617200 
 1675              	.LASF9:
 1676 01f2 6C6F6E67 		.ascii	"long long unsigned int\000"
 1676      206C6F6E 
 1676      6720756E 
 1676      7369676E 
ARM GAS  /tmp/ccJxq9Ts.s 			page 32


 1676      65642069 
 1677              	.LASF13:
 1678 0209 75696E74 		.ascii	"uint32_t\000"
 1678      33325F74 
 1678      00
 1679              	.LASF0:
 1680 0212 756E7369 		.ascii	"unsigned int\000"
 1680      676E6564 
 1680      20696E74 
 1680      00
 1681              	.LASF18:
 1682 021f 41484232 		.ascii	"AHB2RSTR\000"
 1682      52535452 
 1682      00
 1683              	.LASF8:
 1684 0228 6C6F6E67 		.ascii	"long unsigned int\000"
 1684      20756E73 
 1684      69676E65 
 1684      6420696E 
 1684      7400
 1685              	.LASF44:
 1686 023a 44494552 		.ascii	"DIER\000"
 1686      00
 1687              	.LASF15:
 1688 023f 504C4C43 		.ascii	"PLLCFGR\000"
 1688      46475200 
 1689              	.LASF7:
 1690 0247 73686F72 		.ascii	"short unsigned int\000"
 1690      7420756E 
 1690      7369676E 
 1690      65642069 
 1690      6E7400
 1691              	.LASF35:
 1692 025a 41504231 		.ascii	"APB1LPENR\000"
 1692      4C50454E 
 1692      5200
 1693              	.LASF69:
 1694 0264 474E5520 		.ascii	"GNU C17 10.3.1 20210621 (release) -mcpu=cortex-m4 -"
 1694      43313720 
 1694      31302E33 
 1694      2E312032 
 1694      30323130 
 1695 0297 6D6E6F2D 		.ascii	"mno-thumb-interwork -mthumb -mfloat-abi=soft -march"
 1695      7468756D 
 1695      622D696E 
 1695      74657277 
 1695      6F726B20 
 1696 02ca 3D61726D 		.ascii	"=armv7e-m -ggdb -O2 -fomit-frame-pointer -falign-fu"
 1696      7637652D 
 1696      6D202D67 
 1696      67646220 
 1696      2D4F3220 
 1697 02fd 6E637469 		.ascii	"nctions=16 -ffunction-sections -fdata-sections -fno"
 1697      6F6E733D 
 1697      3136202D 
 1697      6666756E 
 1697      6374696F 
ARM GAS  /tmp/ccJxq9Ts.s 			page 33


 1698 0330 2D636F6D 		.ascii	"-common\000"
 1698      6D6F6E00 
 1699              	.LASF53:
 1700 0338 63686172 		.ascii	"char\000"
 1700      00
 1701              	.LASF52:
 1702 033d 73746D33 		.ascii	"stm32_tim_t\000"
 1702      325F7469 
 1702      6D5F7400 
 1703              	.LASF48:
 1704 0349 42445452 		.ascii	"BDTR\000"
 1704      00
 1705              	.LASF59:
 1706 034e 6F73616C 		.ascii	"osalSysLockFromISR\000"
 1706      5379734C 
 1706      6F636B46 
 1706      726F6D49 
 1706      535200
 1707              	.LASF14:
 1708 0361 4442474D 		.ascii	"DBGMCU_TypeDef\000"
 1708      43555F54 
 1708      79706544 
 1708      656600
 1709              	.LASF54:
 1710 0370 5F426F6F 		.ascii	"_Bool\000"
 1710      6C00
 1711              	.LASF64:
 1712 0376 706F7274 		.ascii	"port_unlock\000"
 1712      5F756E6C 
 1712      6F636B00 
 1713              	.LASF22:
 1714 0382 41504232 		.ascii	"APB2RSTR\000"
 1714      52535452 
 1714      00
 1715              	.LASF32:
 1716 038b 41484232 		.ascii	"AHB2LPENR\000"
 1716      4C50454E 
 1716      5200
 1717              	.LASF20:
 1718 0395 52455345 		.ascii	"RESERVED0\000"
 1718      52564544 
 1718      3000
 1719              	.LASF23:
 1720 039f 52455345 		.ascii	"RESERVED1\000"
 1720      52564544 
 1720      3100
 1721              	.LASF27:
 1722 03a9 52455345 		.ascii	"RESERVED2\000"
 1722      52564544 
 1722      3200
 1723              	.LASF30:
 1724 03b3 52455345 		.ascii	"RESERVED3\000"
 1724      52564544 
 1724      3300
 1725              	.LASF34:
 1726 03bd 52455345 		.ascii	"RESERVED4\000"
 1726      52564544 
ARM GAS  /tmp/ccJxq9Ts.s 			page 34


 1726      3400
 1727              	.LASF37:
 1728 03c7 52455345 		.ascii	"RESERVED5\000"
 1728      52564544 
 1728      3500
 1729              	.LASF39:
 1730 03d1 52455345 		.ascii	"RESERVED6\000"
 1730      52564544 
 1730      3600
 1731              	.LASF72:
 1732 03db 5F5F7365 		.ascii	"__set_BASEPRI\000"
 1732      745F4241 
 1732      53455052 
 1732      4900
 1733              	.LASF24:
 1734 03e9 41484231 		.ascii	"AHB1ENR\000"
 1734      454E5200 
 1735              	.LASF10:
 1736 03f1 4944434F 		.ascii	"IDCODE\000"
 1736      444500
 1737              	.LASF62:
 1738 03f8 706F7274 		.ascii	"port_unlock_from_isr\000"
 1738      5F756E6C 
 1738      6F636B5F 
 1738      66726F6D 
 1738      5F697372 
 1739              	.LASF67:
 1740 040d 63685379 		.ascii	"chSysTimerHandlerI\000"
 1740      7354696D 
 1740      65724861 
 1740      6E646C65 
 1740      724900
 1741              	.LASF55:
 1742 0420 73745F6C 		.ascii	"st_lld_init\000"
 1742      6C645F69 
 1742      6E697400 
 1743              	.LASF17:
 1744 042c 41484231 		.ascii	"AHB1RSTR\000"
 1744      52535452 
 1744      00
 1745              	.LASF19:
 1746 0435 41484233 		.ascii	"AHB3RSTR\000"
 1746      52535452 
 1746      00
 1747              	.LASF36:
 1748 043e 41504232 		.ascii	"APB2LPENR\000"
 1748      4C50454E 
 1748      5200
 1749              		.ident	"GCC: (15:10.3-2021.07-4) 10.3.1 20210621 (release)"
ARM GAS  /tmp/ccJxq9Ts.s 			page 35


DEFINED SYMBOLS
                            *ABS*:0000000000000000 hal_st_lld.c
     /tmp/ccJxq9Ts.s:16     .text.VectorB0:0000000000000000 $t
     /tmp/ccJxq9Ts.s:25     .text.VectorB0:0000000000000000 VectorB0
     /tmp/ccJxq9Ts.s:217    .text.st_lld_init:0000000000000000 $t
     /tmp/ccJxq9Ts.s:225    .text.st_lld_init:0000000000000000 st_lld_init
     /tmp/ccJxq9Ts.s:302    .text.st_lld_init:0000000000000040 $d

UNDEFINED SYMBOLS
_port_irq_epilogue
chSysTimerHandlerI
nvicEnableVector
