ARM GAS  /tmp/ccstZxWH.s 			page 1


   1              		.cpu cortex-m4
   2              		.eabi_attribute 20, 1
   3              		.eabi_attribute 21, 1
   4              		.eabi_attribute 23, 3
   5              		.eabi_attribute 24, 1
   6              		.eabi_attribute 25, 1
   7              		.eabi_attribute 26, 1
   8              		.eabi_attribute 30, 2
   9              		.eabi_attribute 34, 1
  10              		.eabi_attribute 18, 4
  11              		.file	"hal_buffers.c"
  12              		.text
  13              	.Ltext0:
  14              		.cfi_sections	.debug_frame
  15              		.section	.text.ibqObjectInit,"ax",%progbits
  16              		.align	1
  17              		.p2align 4,,15
  18              		.global	ibqObjectInit
  19              		.arch armv7e-m
  20              		.syntax unified
  21              		.thumb
  22              		.thumb_func
  23              		.fpu softvfp
  24              		.type	ibqObjectInit, %function
  25              	ibqObjectInit:
  26              	.LVL0:
  27              	.LFB277:
  28              		.file 1 "../../../os/hal/src/hal_buffers.c"
  29              		.loc 1 77 72 view -0
  30              		.cfi_startproc
  31              		@ args = 12, pretend = 0, frame = 0
  32              		@ frame_needed = 0, uses_anonymous_args = 0
  33              		@ link register save eliminated.
  34              		.loc 1 79 3 view .LVU1
  35              		.loc 1 79 3 view .LVU2
  36              		.loc 1 79 3 view .LVU3
  37              		.loc 1 81 3 view .LVU4
  38              		.loc 1 77 72 is_stmt 0 view .LVU5
  39 0000 10B4     		push	{r4}
  40              		.cfi_def_cfa_offset 4
  41              		.cfi_offset 4, -4
  42              		.loc 1 77 72 view .LVU6
  43 0002 019C     		ldr	r4, [sp, #4]
  44              	.LVL1:
  45              	.LBB273:
  46              	.LBI273:
  47              		.file 2 "../../../os/hal/osal/rt/osal.h"
  48              		.loc 2 753 20 is_stmt 1 view .LVU7
  49              	.LBE273:
  50              		.loc 2 755 3 view .LVU8
  51              	.LBB281:
  52              	.LBB274:
  53              	.LBI274:
  54              		.file 3 "../../../os/rt/include/chthreads.h"
  55              		.loc 3 404 20 view .LVU9
  56              	.LBE274:
  57              	.LBE281:
ARM GAS  /tmp/ccstZxWH.s 			page 2


  58              		.loc 3 406 3 view .LVU10
  59              	.LBB282:
  60              	.LBB279:
  61              	.LBB275:
  62              	.LBI275:
  63              		.file 4 "../../../os/rt/include/chschd.h"
  64              		.loc 4 548 20 view .LVU11
  65              	.LBB276:
  66              		.loc 4 550 3 view .LVU12
  67              	.LBE276:
  68              	.LBE275:
  69              	.LBE279:
  70              	.LBE282:
  71              		.loc 1 82 19 is_stmt 0 view .LVU13
  72 0004 0172     		strb	r1, [r0, #8]
  73              		.loc 1 86 33 view .LVU14
  74 0006 0433     		adds	r3, r3, #4
  75              	.LVL2:
  76              		.loc 1 87 19 view .LVU15
  77 0008 C361     		str	r3, [r0, #28]
  78              		.loc 1 86 24 view .LVU16
  79 000a 04FB0323 		mla	r3, r4, r3, r2
  80              	.LVL3:
  81              		.loc 1 89 19 view .LVU17
  82 000e C0E90842 		strd	r4, r2, [r0, #32]
  83              		.loc 1 85 19 view .LVU18
  84 0012 C0E90422 		strd	r2, r2, [r0, #16]
  85              		.loc 1 86 19 view .LVU19
  86 0016 8361     		str	r3, [r0, #24]
  87              		.loc 1 77 72 view .LVU20
  88 0018 DDE90223 		ldrd	r2, r3, [sp, #8]
  89              	.LVL4:
  90              		.loc 1 83 19 view .LVU21
  91 001c 0021     		movs	r1, #0
  92              	.LVL5:
  93              	.LBB283:
  94              	.LBB280:
  95              	.LBB278:
  96              	.LBB277:
  97              		.loc 4 551 13 view .LVU22
  98 001e C0E90000 		strd	r0, r0, [r0]
  99              	.LVL6:
 100              		.loc 4 551 13 view .LVU23
 101              	.LBE277:
 102              	.LBE278:
 103              	.LBE280:
 104              	.LBE283:
 105              		.loc 1 82 3 is_stmt 1 view .LVU24
 106              		.loc 1 83 3 view .LVU25
 107              		.loc 1 91 19 is_stmt 0 view .LVU26
 108 0022 C0E90A11 		strd	r1, r1, [r0, #40]
 109              		.loc 1 93 19 view .LVU27
 110 0026 C0E90C23 		strd	r2, r3, [r0, #48]
 111              		.loc 1 94 1 view .LVU28
 112 002a 10BC     		pop	{r4}
 113              		.cfi_restore 4
 114              		.cfi_def_cfa_offset 0
ARM GAS  /tmp/ccstZxWH.s 			page 3


 115              	.LVL7:
 116              		.loc 1 83 19 view .LVU29
 117 002c C160     		str	r1, [r0, #12]
 118              		.loc 1 84 3 is_stmt 1 view .LVU30
 119              		.loc 1 86 3 view .LVU31
 120              		.loc 1 87 3 view .LVU32
 121              		.loc 1 88 3 view .LVU33
 122              		.loc 1 90 3 view .LVU34
 123              		.loc 1 92 3 view .LVU35
 124              		.loc 1 94 1 is_stmt 0 view .LVU36
 125 002e 7047     		bx	lr
 126              		.cfi_endproc
 127              	.LFE277:
 128              		.size	ibqObjectInit, .-ibqObjectInit
 129              		.section	.text.ibqResetI,"ax",%progbits
 130              		.align	1
 131              		.p2align 4,,15
 132              		.global	ibqResetI
 133              		.syntax unified
 134              		.thumb
 135              		.thumb_func
 136              		.fpu softvfp
 137              		.type	ibqResetI, %function
 138              	ibqResetI:
 139              	.LVL8:
 140              	.LFB278:
 141              		.loc 1 107 45 is_stmt 1 view -0
 142              		.cfi_startproc
 143              		@ args = 0, pretend = 0, frame = 0
 144              		@ frame_needed = 0, uses_anonymous_args = 0
 145              		@ link register save eliminated.
 146              		.loc 1 109 23 view .LVU38
 147              		.loc 1 111 3 view .LVU39
 148              		.loc 1 112 25 is_stmt 0 view .LVU40
 149 0000 416A     		ldr	r1, [r0, #36]
 150              		.loc 1 111 19 view .LVU41
 151 0002 0022     		movs	r2, #0
 152              		.loc 1 113 19 view .LVU42
 153 0004 C0E90411 		strd	r1, r1, [r0, #16]
 154              		.loc 1 115 19 view .LVU43
 155 0008 C0E90A22 		strd	r2, r2, [r0, #40]
 156              		.loc 1 111 19 view .LVU44
 157 000c C260     		str	r2, [r0, #12]
 158              		.loc 1 112 3 is_stmt 1 view .LVU45
 159              		.loc 1 114 3 view .LVU46
 160              		.loc 1 116 3 view .LVU47
 161              	.LVL9:
 162              	.LBB284:
 163              	.LBI284:
 164              		.loc 2 808 20 view .LVU48
 165              	.LBB285:
 166              		.loc 2 810 3 view .LVU49
 167 000e 6FF00101 		mvn	r1, #1
 168 0012 FFF7FEBF 		b	chThdDequeueAllI
 169              	.LVL10:
 170              		.loc 2 810 3 is_stmt 0 view .LVU50
 171              	.LBE285:
ARM GAS  /tmp/ccstZxWH.s 			page 4


 172              	.LBE284:
 173              		.cfi_endproc
 174              	.LFE278:
 175              		.size	ibqResetI, .-ibqResetI
 176 0016 00BF     		.section	.text.ibqGetEmptyBufferI,"ax",%progbits
 177              		.align	1
 178              		.p2align 4,,15
 179              		.global	ibqGetEmptyBufferI
 180              		.syntax unified
 181              		.thumb
 182              		.thumb_func
 183              		.fpu softvfp
 184              		.type	ibqGetEmptyBufferI, %function
 185              	ibqGetEmptyBufferI:
 186              	.LVL11:
 187              	.LFB279:
 188              		.loc 1 129 58 is_stmt 1 view -0
 189              		.cfi_startproc
 190              		@ args = 0, pretend = 0, frame = 0
 191              		@ frame_needed = 0, uses_anonymous_args = 0
 192              		@ link register save eliminated.
 193              		.loc 1 131 23 view .LVU52
 194              		.loc 1 133 3 view .LVU53
 195              		.loc 1 133 7 is_stmt 0 view .LVU54
 196 0000 D0E90432 		ldrd	r3, r2, [r0, #16]
 197 0004 9342     		cmp	r3, r2
 198 0006 01D0     		beq	.L11
 199              	.L6:
 200              		.loc 1 137 3 is_stmt 1 view .LVU55
 201              		.loc 1 137 23 is_stmt 0 view .LVU56
 202 0008 181D     		adds	r0, r3, #4
 203              	.LVL12:
 204              		.loc 1 138 1 view .LVU57
 205 000a 7047     		bx	lr
 206              	.LVL13:
 207              	.L11:
 208              		.loc 1 133 7 discriminator 1 view .LVU58
 209 000c C268     		ldr	r2, [r0, #12]
 210 000e 002A     		cmp	r2, #0
 211 0010 FAD0     		beq	.L6
 212              		.loc 1 134 12 view .LVU59
 213 0012 0020     		movs	r0, #0
 214              	.LVL14:
 215              		.loc 1 134 12 view .LVU60
 216 0014 7047     		bx	lr
 217              		.cfi_endproc
 218              	.LFE279:
 219              		.size	ibqGetEmptyBufferI, .-ibqGetEmptyBufferI
 220 0016 00BF     		.section	.text.ibqPostFullBufferI,"ax",%progbits
 221              		.align	1
 222              		.p2align 4,,15
 223              		.global	ibqPostFullBufferI
 224              		.syntax unified
 225              		.thumb
 226              		.thumb_func
 227              		.fpu softvfp
 228              		.type	ibqPostFullBufferI, %function
ARM GAS  /tmp/ccstZxWH.s 			page 5


 229              	ibqPostFullBufferI:
 230              	.LVL15:
 231              	.LFB280:
 232              		.loc 1 148 67 is_stmt 1 view -0
 233              		.cfi_startproc
 234              		@ args = 0, pretend = 0, frame = 0
 235              		@ frame_needed = 0, uses_anonymous_args = 0
 236              		@ link register save eliminated.
 237              		.loc 1 150 23 view .LVU62
 238              		.loc 1 152 3 view .LVU63
 239              		.loc 1 152 3 view .LVU64
 240              		.loc 1 152 3 view .LVU65
 241              		.loc 1 153 3 view .LVU66
 242              		.loc 1 153 3 view .LVU67
 243              		.loc 1 153 3 view .LVU68
 244              		.loc 1 156 3 view .LVU69
 245              		.loc 1 156 19 is_stmt 0 view .LVU70
 246 0000 0369     		ldr	r3, [r0, #16]
 247              		.loc 1 148 67 view .LVU71
 248 0002 10B4     		push	{r4}
 249              		.cfi_def_cfa_offset 4
 250              		.cfi_offset 4, -4
 251              		.loc 1 161 6 view .LVU72
 252 0004 8469     		ldr	r4, [r0, #24]
 253              		.loc 1 156 29 view .LVU73
 254 0006 1960     		str	r1, [r3]
 255              		.loc 1 159 3 is_stmt 1 view .LVU74
 256              		.loc 1 160 16 is_stmt 0 view .LVU75
 257 0008 C169     		ldr	r1, [r0, #28]
 258              	.LVL16:
 259              		.loc 1 159 7 view .LVU76
 260 000a C268     		ldr	r2, [r0, #12]
 261              		.loc 1 160 16 view .LVU77
 262 000c 0B44     		add	r3, r3, r1
 263              	.LVL17:
 264              		.loc 1 161 6 view .LVU78
 265 000e A342     		cmp	r3, r4
 266              		.loc 1 160 16 view .LVU79
 267 0010 0361     		str	r3, [r0, #16]
 268              	.LVL18:
 269              		.loc 1 159 17 view .LVU80
 270 0012 02F10102 		add	r2, r2, #1
 271              		.loc 1 162 18 view .LVU81
 272 0016 28BF     		it	cs
 273 0018 436A     		ldrcs	r3, [r0, #36]
 274              		.loc 1 167 1 view .LVU82
 275 001a 10BC     		pop	{r4}
 276              		.cfi_restore 4
 277              		.cfi_def_cfa_offset 0
 278              		.loc 1 159 17 view .LVU83
 279 001c C260     		str	r2, [r0, #12]
 280              		.loc 1 160 3 is_stmt 1 view .LVU84
 281              		.loc 1 161 3 view .LVU85
 282              		.loc 1 162 5 view .LVU86
 283              		.loc 1 162 18 is_stmt 0 view .LVU87
 284 001e 28BF     		it	cs
 285 0020 0361     		strcs	r3, [r0, #16]
ARM GAS  /tmp/ccstZxWH.s 			page 6


 286              		.loc 1 166 3 is_stmt 1 view .LVU88
 287              	.LVL19:
 288              	.LBB286:
 289              	.LBI286:
 290              		.loc 2 795 20 view .LVU89
 291              	.LBB287:
 292              		.loc 2 797 3 view .LVU90
 293 0022 0021     		movs	r1, #0
 294 0024 FFF7FEBF 		b	chThdDequeueNextI
 295              	.LVL20:
 296              		.loc 2 797 3 is_stmt 0 view .LVU91
 297              	.LBE287:
 298              	.LBE286:
 299              		.cfi_endproc
 300              	.LFE280:
 301              		.size	ibqPostFullBufferI, .-ibqPostFullBufferI
 302              		.section	.text.ibqGetFullBufferTimeout,"ax",%progbits
 303              		.align	1
 304              		.p2align 4,,15
 305              		.global	ibqGetFullBufferTimeout
 306              		.syntax unified
 307              		.thumb
 308              		.thumb_func
 309              		.fpu softvfp
 310              		.type	ibqGetFullBufferTimeout, %function
 311              	ibqGetFullBufferTimeout:
 312              	.LVL21:
 313              	.LFB281:
 314              		.loc 1 191 50 is_stmt 1 view -0
 315              		.cfi_startproc
 316              		@ args = 0, pretend = 0, frame = 0
 317              		@ frame_needed = 0, uses_anonymous_args = 0
 318              		.loc 1 191 50 is_stmt 0 view .LVU93
 319 0000 38B5     		push	{r3, r4, r5, lr}
 320              		.cfi_def_cfa_offset 16
 321              		.cfi_offset 3, -16
 322              		.cfi_offset 4, -12
 323              		.cfi_offset 5, -8
 324              		.cfi_offset 14, -4
 325              		.loc 1 191 50 view .LVU94
 326 0002 0446     		mov	r4, r0
 327              		.loc 1 192 3 is_stmt 1 view .LVU95
 328              		.loc 1 194 3 view .LVU96
 329              	.LBB309:
 330              	.LBI309:
 331              		.loc 2 491 20 view .LVU97
 332              	.LBE309:
 333              		.loc 2 493 3 view .LVU98
 334              	.LBB321:
 335              	.LBB310:
 336              	.LBI310:
 337              		.file 5 "../../../os/rt/include/chsys.h"
 338              		.loc 5 374 20 view .LVU99
 339              	.LBE310:
 340              	.LBE321:
 341              		.loc 5 376 3 view .LVU100
 342              	.LBB322:
ARM GAS  /tmp/ccstZxWH.s 			page 7


 343              	.LBB318:
 344              	.LBB311:
 345              	.LBI311:
 346              		.file 6 "../../../os/common/ports/ARMCMx/chcore_v7m.h"
 347              		.loc 6 594 20 view .LVU101
 348              	.LBE311:
 349              	.LBE318:
 350              	.LBE322:
 351              		.loc 6 602 3 view .LVU102
 352              	.LVL22:
 353              	.LBB323:
 354              	.LBB319:
 355              	.LBB316:
 356              	.LBB312:
 357              	.LBI312:
 358              		.file 7 "../../../os/common/ext/CMSIS/include/cmsis_gcc.h"
 359              		.loc 7 262 57 view .LVU103
 360              	.LBB313:
 361              		.loc 7 264 3 view .LVU104
 362              	.LBE313:
 363              	.LBE312:
 364              	.LBE316:
 365              	.LBE319:
 366              	.LBE323:
 367              		.loc 1 191 50 is_stmt 0 view .LVU105
 368 0004 0D46     		mov	r5, r1
 369              	.LBB324:
 370              	.LBB320:
 371              	.LBB317:
 372              	.LBB315:
 373              	.LBB314:
 374              		.loc 7 264 3 view .LVU106
 375 0006 2023     		movs	r3, #32
 376              		.syntax unified
 377              	@ 264 "../../../os/common/ext/CMSIS/include/cmsis_gcc.h" 1
 378 0008 83F31188 		MSR basepri, r3
 379              	@ 0 "" 2
 380              	.LVL23:
 381              		.loc 7 264 3 view .LVU107
 382              		.thumb
 383              		.syntax unified
 384              	.LBE314:
 385              	.LBE315:
 386              	.LBE317:
 387              	.LBE320:
 388              	.LBE324:
 389              		.loc 5 377 34 is_stmt 1 view .LVU108
 390              		.loc 5 378 20 view .LVU109
 391              		.loc 1 195 3 view .LVU110
 392              	.LBB325:
 393              	.LBI325:
 394              		.loc 1 222 9 view .LVU111
 395              	.LBB326:
 396              		.loc 1 225 23 view .LVU112
 397              		.loc 1 227 3 view .LVU113
 398              		.loc 1 227 9 is_stmt 0 view .LVU114
 399 000c 05E0     		b	.L16
ARM GAS  /tmp/ccstZxWH.s 			page 8


 400              	.LVL24:
 401              	.L18:
 402              	.LBB327:
 403              		.loc 1 228 8 view .LVU115
 404 000e 237A     		ldrb	r3, [r4, #8]	@ zero_extendqisi2
 405 0010 9BB9     		cbnz	r3, .L19
 406              	.LBB328:
 407              	.LBB329:
 408              		.loc 2 784 10 view .LVU116
 409 0012 FFF7FEFF 		bl	chThdEnqueueTimeoutS
 410              	.LVL25:
 411              		.loc 2 784 10 view .LVU117
 412              	.LBE329:
 413              	.LBE328:
 414              		.loc 1 232 5 is_stmt 1 view .LVU118
 415              		.loc 1 232 8 is_stmt 0 view .LVU119
 416 0016 0028     		cmp	r0, #0
 417              		.loc 1 232 8 view .LVU120
 418 0018 0BDB     		blt	.L17
 419              	.LVL26:
 420              	.L16:
 421              		.loc 1 228 5 is_stmt 1 view .LVU121
 422              		.loc 1 231 5 view .LVU122
 423              	.LBB332:
 424              	.LBI328:
 425              		.loc 2 781 21 view .LVU123
 426              	.LBB330:
 427              		.loc 2 784 3 view .LVU124
 428              	.LBE330:
 429              	.LBE332:
 430              	.LBE327:
 431              		.loc 1 227 9 view .LVU125
 432              		.loc 1 227 10 is_stmt 0 view .LVU126
 433 001a E368     		ldr	r3, [r4, #12]
 434              	.LBB334:
 435              	.LBB333:
 436              	.LBB331:
 437              		.loc 2 784 10 view .LVU127
 438 001c 2946     		mov	r1, r5
 439 001e 2046     		mov	r0, r4
 440              	.LBE331:
 441              	.LBE333:
 442              	.LBE334:
 443              		.loc 1 227 9 view .LVU128
 444 0020 002B     		cmp	r3, #0
 445 0022 F4D0     		beq	.L18
 446              	.LVL27:
 447              	.LBB335:
 448              	.LBI335:
 449              		.loc 1 222 9 is_stmt 1 view .LVU129
 450              	.LBB336:
 451              		.loc 1 237 3 view .LVU130
 452              		.loc 1 237 3 view .LVU131
 453              		.loc 1 237 3 view .LVU132
 454              		.loc 1 240 3 view .LVU133
 455              		.loc 1 240 19 is_stmt 0 view .LVU134
 456 0024 6369     		ldr	r3, [r4, #20]
ARM GAS  /tmp/ccstZxWH.s 			page 9


 457              		.loc 1 241 25 view .LVU135
 458 0026 1A68     		ldr	r2, [r3]
 459              		.loc 1 240 28 view .LVU136
 460 0028 0433     		adds	r3, r3, #4
 461              		.loc 1 241 25 view .LVU137
 462 002a 1A44     		add	r2, r2, r3
 463              		.loc 1 241 13 view .LVU138
 464 002c C4E90A32 		strd	r3, r2, [r4, #40]
 465              		.loc 1 243 3 is_stmt 1 view .LVU139
 466              	.LVL28:
 467              		.loc 1 241 13 is_stmt 0 view .LVU140
 468 0030 0020     		movs	r0, #0
 469              	.LVL29:
 470              	.L17:
 471              		.loc 1 241 13 view .LVU141
 472              	.LBE336:
 473              	.LBE335:
 474              	.LBE326:
 475              	.LBE325:
 476              		.loc 1 196 3 is_stmt 1 view .LVU142
 477              	.LBB339:
 478              	.LBI339:
 479              		.loc 2 502 20 view .LVU143
 480              	.LBE339:
 481              		.loc 2 504 3 view .LVU144
 482              	.LBB356:
 483              	.LBB340:
 484              	.LBI340:
 485              		.loc 5 386 20 view .LVU145
 486              	.LBB341:
 487              		.loc 5 388 22 view .LVU146
 488              		.loc 5 389 33 view .LVU147
 489              		.loc 5 395 3 view .LVU148
 490              		.loc 5 395 3 view .LVU149
 491              		.loc 5 395 3 view .LVU150
 492              		.loc 5 399 3 view .LVU151
 493              	.LBB342:
 494              	.LBI342:
 495              		.loc 6 618 20 view .LVU152
 496              	.LBE342:
 497              	.LBE341:
 498              	.LBE340:
 499              	.LBE356:
 500              		.loc 6 621 3 view .LVU153
 501              	.LBB357:
 502              	.LBB353:
 503              	.LBB350:
 504              	.LBB347:
 505              	.LBB343:
 506              	.LBI343:
 507              		.loc 7 262 57 view .LVU154
 508              	.LBB344:
 509              		.loc 7 264 3 view .LVU155
 510 0032 0023     		movs	r3, #0
 511              		.syntax unified
 512              	@ 264 "../../../os/common/ext/CMSIS/include/cmsis_gcc.h" 1
 513 0034 83F31188 		MSR basepri, r3
ARM GAS  /tmp/ccstZxWH.s 			page 10


 514              	@ 0 "" 2
 515              	.LVL30:
 516              		.loc 7 264 3 is_stmt 0 view .LVU156
 517              		.thumb
 518              		.syntax unified
 519              	.LBE344:
 520              	.LBE343:
 521              	.LBE347:
 522              	.LBE350:
 523              	.LBE353:
 524              	.LBE357:
 525              		.loc 1 198 3 is_stmt 1 view .LVU157
 526              		.loc 1 199 1 is_stmt 0 view .LVU158
 527 0038 38BD     		pop	{r3, r4, r5, pc}
 528              	.LVL31:
 529              	.L19:
 530              	.LBB358:
 531              	.LBB338:
 532              	.LBB337:
 533              		.loc 1 229 14 view .LVU159
 534 003a 6FF00100 		mvn	r0, #1
 535              	.LVL32:
 536              		.loc 1 229 14 view .LVU160
 537              	.LBE337:
 538              	.LBE338:
 539              	.LBE358:
 540              		.loc 1 196 3 is_stmt 1 view .LVU161
 541              	.LBB359:
 542              		.loc 2 502 20 view .LVU162
 543              	.LBE359:
 544              		.loc 2 504 3 view .LVU163
 545              	.LBB360:
 546              	.LBB354:
 547              		.loc 5 386 20 view .LVU164
 548              	.LBB351:
 549              		.loc 5 388 22 view .LVU165
 550              		.loc 5 389 33 view .LVU166
 551              		.loc 5 395 3 view .LVU167
 552              		.loc 5 395 3 view .LVU168
 553              		.loc 5 395 3 view .LVU169
 554              		.loc 5 399 3 view .LVU170
 555              	.LBB348:
 556              		.loc 6 618 20 view .LVU171
 557              	.LBE348:
 558              	.LBE351:
 559              	.LBE354:
 560              	.LBE360:
 561              		.loc 6 621 3 view .LVU172
 562              	.LBB361:
 563              	.LBB355:
 564              	.LBB352:
 565              	.LBB349:
 566              	.LBB346:
 567              		.loc 7 262 57 view .LVU173
 568              	.LBB345:
 569              		.loc 7 264 3 view .LVU174
 570 003e 0023     		movs	r3, #0
ARM GAS  /tmp/ccstZxWH.s 			page 11


 571              		.syntax unified
 572              	@ 264 "../../../os/common/ext/CMSIS/include/cmsis_gcc.h" 1
 573 0040 83F31188 		MSR basepri, r3
 574              	@ 0 "" 2
 575              	.LVL33:
 576              		.loc 7 264 3 is_stmt 0 view .LVU175
 577              		.thumb
 578              		.syntax unified
 579              	.LBE345:
 580              	.LBE346:
 581              	.LBE349:
 582              	.LBE352:
 583              	.LBE355:
 584              	.LBE361:
 585              		.loc 1 198 3 is_stmt 1 view .LVU176
 586              		.loc 1 199 1 is_stmt 0 view .LVU177
 587 0044 38BD     		pop	{r3, r4, r5, pc}
 588              		.loc 1 199 1 view .LVU178
 589              		.cfi_endproc
 590              	.LFE281:
 591              		.size	ibqGetFullBufferTimeout, .-ibqGetFullBufferTimeout
 592 0046 00BF     		.section	.text.ibqGetFullBufferTimeoutS,"ax",%progbits
 593              		.align	1
 594              		.p2align 4,,15
 595              		.global	ibqGetFullBufferTimeoutS
 596              		.syntax unified
 597              		.thumb
 598              		.thumb_func
 599              		.fpu softvfp
 600              		.type	ibqGetFullBufferTimeoutS, %function
 601              	ibqGetFullBufferTimeoutS:
 602              	.LVL34:
 603              	.LFB282:
 604              		.loc 1 223 53 is_stmt 1 view -0
 605              		.cfi_startproc
 606              		@ args = 0, pretend = 0, frame = 0
 607              		@ frame_needed = 0, uses_anonymous_args = 0
 608              		.loc 1 223 53 is_stmt 0 view .LVU180
 609 0000 38B5     		push	{r3, r4, r5, lr}
 610              		.cfi_def_cfa_offset 16
 611              		.cfi_offset 3, -16
 612              		.cfi_offset 4, -12
 613              		.cfi_offset 5, -8
 614              		.cfi_offset 14, -4
 615              		.loc 1 223 53 view .LVU181
 616 0002 0446     		mov	r4, r0
 617              		.loc 1 225 23 is_stmt 1 view .LVU182
 618              		.loc 1 227 3 view .LVU183
 619              		.loc 1 223 53 is_stmt 0 view .LVU184
 620 0004 0D46     		mov	r5, r1
 621              		.loc 1 227 9 view .LVU185
 622 0006 05E0     		b	.L22
 623              	.LVL35:
 624              	.L24:
 625              	.LBB373:
 626              		.loc 1 228 8 view .LVU186
 627 0008 237A     		ldrb	r3, [r4, #8]	@ zero_extendqisi2
ARM GAS  /tmp/ccstZxWH.s 			page 12


 628 000a 83B9     		cbnz	r3, .L25
 629              	.LBB374:
 630              	.LBB375:
 631              		.loc 2 784 10 view .LVU187
 632 000c FFF7FEFF 		bl	chThdEnqueueTimeoutS
 633              	.LVL36:
 634              		.loc 2 784 10 view .LVU188
 635              	.LBE375:
 636              	.LBE374:
 637              		.loc 1 232 5 is_stmt 1 view .LVU189
 638              		.loc 1 232 8 is_stmt 0 view .LVU190
 639 0010 0028     		cmp	r0, #0
 640              		.loc 1 232 8 view .LVU191
 641 0012 0BDB     		blt	.L21
 642              	.LVL37:
 643              	.L22:
 644              		.loc 1 228 5 is_stmt 1 view .LVU192
 645              		.loc 1 231 5 view .LVU193
 646              	.LBB378:
 647              	.LBI374:
 648              		.loc 2 781 21 view .LVU194
 649              	.LBB376:
 650              		.loc 2 784 3 view .LVU195
 651              	.LBE376:
 652              	.LBE378:
 653              	.LBE373:
 654              		.loc 1 227 9 view .LVU196
 655              		.loc 1 227 10 is_stmt 0 view .LVU197
 656 0014 E368     		ldr	r3, [r4, #12]
 657              	.LBB380:
 658              	.LBB379:
 659              	.LBB377:
 660              		.loc 2 784 10 view .LVU198
 661 0016 2946     		mov	r1, r5
 662 0018 2046     		mov	r0, r4
 663              	.LBE377:
 664              	.LBE379:
 665              	.LBE380:
 666              		.loc 1 227 9 view .LVU199
 667 001a 002B     		cmp	r3, #0
 668 001c F4D0     		beq	.L24
 669              	.LVL38:
 670              	.LBB381:
 671              	.LBI381:
 672              		.loc 1 222 9 is_stmt 1 view .LVU200
 673              	.LBB382:
 674              		.loc 1 237 3 view .LVU201
 675              		.loc 1 237 3 view .LVU202
 676              		.loc 1 237 3 view .LVU203
 677              		.loc 1 240 3 view .LVU204
 678              		.loc 1 240 19 is_stmt 0 view .LVU205
 679 001e 6369     		ldr	r3, [r4, #20]
 680              		.loc 1 241 25 view .LVU206
 681 0020 1A68     		ldr	r2, [r3]
 682              		.loc 1 240 28 view .LVU207
 683 0022 0433     		adds	r3, r3, #4
 684              		.loc 1 241 25 view .LVU208
ARM GAS  /tmp/ccstZxWH.s 			page 13


 685 0024 1A44     		add	r2, r2, r3
 686              		.loc 1 241 13 view .LVU209
 687 0026 C4E90A32 		strd	r3, r2, [r4, #40]
 688              		.loc 1 243 3 is_stmt 1 view .LVU210
 689              	.LVL39:
 690              		.loc 1 241 13 is_stmt 0 view .LVU211
 691 002a 0020     		movs	r0, #0
 692              	.LVL40:
 693              	.L21:
 694              		.loc 1 241 13 view .LVU212
 695              	.LBE382:
 696              	.LBE381:
 697              		.loc 1 244 1 view .LVU213
 698 002c 38BD     		pop	{r3, r4, r5, pc}
 699              	.LVL41:
 700              	.L25:
 701              	.LBB383:
 702              		.loc 1 229 14 view .LVU214
 703 002e 6FF00100 		mvn	r0, #1
 704              	.LVL42:
 705              		.loc 1 229 14 view .LVU215
 706              	.LBE383:
 707              		.loc 1 244 1 view .LVU216
 708 0032 38BD     		pop	{r3, r4, r5, pc}
 709              		.loc 1 244 1 view .LVU217
 710              		.cfi_endproc
 711              	.LFE282:
 712              		.size	ibqGetFullBufferTimeoutS, .-ibqGetFullBufferTimeoutS
 713              		.section	.text.ibqReleaseEmptyBuffer,"ax",%progbits
 714              		.align	1
 715              		.p2align 4,,15
 716              		.global	ibqReleaseEmptyBuffer
 717              		.syntax unified
 718              		.thumb
 719              		.thumb_func
 720              		.fpu softvfp
 721              		.type	ibqReleaseEmptyBuffer, %function
 722              	ibqReleaseEmptyBuffer:
 723              	.LVL43:
 724              	.LFB283:
 725              		.loc 1 254 57 is_stmt 1 view -0
 726              		.cfi_startproc
 727              		@ args = 0, pretend = 0, frame = 0
 728              		@ frame_needed = 0, uses_anonymous_args = 0
 729              		.loc 1 256 3 view .LVU219
 730              	.LBB397:
 731              	.LBI397:
 732              		.loc 2 491 20 view .LVU220
 733              	.LBE397:
 734              		.loc 2 493 3 view .LVU221
 735              	.LBB409:
 736              	.LBB398:
 737              	.LBI398:
 738              		.loc 5 374 20 view .LVU222
 739              	.LBE398:
 740              	.LBE409:
 741              		.loc 5 376 3 view .LVU223
ARM GAS  /tmp/ccstZxWH.s 			page 14


 742              	.LBB410:
 743              	.LBB406:
 744              	.LBB399:
 745              	.LBI399:
 746              		.loc 6 594 20 view .LVU224
 747              	.LBE399:
 748              	.LBE406:
 749              	.LBE410:
 750              		.loc 6 602 3 view .LVU225
 751              	.LBB411:
 752              	.LBB407:
 753              	.LBB404:
 754              	.LBB400:
 755              	.LBI400:
 756              		.loc 7 262 57 view .LVU226
 757              	.LBB401:
 758              		.loc 7 264 3 view .LVU227
 759              	.LBE401:
 760              	.LBE400:
 761              	.LBE404:
 762              	.LBE407:
 763              	.LBE411:
 764              		.loc 1 254 57 is_stmt 0 view .LVU228
 765 0000 08B5     		push	{r3, lr}
 766              		.cfi_def_cfa_offset 8
 767              		.cfi_offset 3, -8
 768              		.cfi_offset 14, -4
 769              	.LBB412:
 770              	.LBB408:
 771              	.LBB405:
 772              	.LBB403:
 773              	.LBB402:
 774              		.loc 7 264 3 view .LVU229
 775 0002 2023     		movs	r3, #32
 776              		.syntax unified
 777              	@ 264 "../../../os/common/ext/CMSIS/include/cmsis_gcc.h" 1
 778 0004 83F31188 		MSR basepri, r3
 779              	@ 0 "" 2
 780              	.LVL44:
 781              		.loc 7 264 3 view .LVU230
 782              		.thumb
 783              		.syntax unified
 784              	.LBE402:
 785              	.LBE403:
 786              	.LBE405:
 787              	.LBE408:
 788              	.LBE412:
 789              		.loc 5 377 34 is_stmt 1 view .LVU231
 790              		.loc 5 378 20 view .LVU232
 791              		.loc 1 257 3 view .LVU233
 792              	.LBB413:
 793              	.LBI413:
 794              		.loc 1 269 8 view .LVU234
 795              	.LBB414:
 796              		.loc 1 271 23 view .LVU235
 797              		.loc 1 272 3 view .LVU236
 798              		.loc 1 272 3 view .LVU237
ARM GAS  /tmp/ccstZxWH.s 			page 15


 799              		.loc 1 272 3 view .LVU238
 800              		.loc 1 275 3 view .LVU239
 801              		.loc 1 277 6 is_stmt 0 view .LVU240
 802 0008 D0E90531 		ldrd	r3, r1, [r0, #20]
 803              		.loc 1 276 16 view .LVU241
 804 000c D0F81CC0 		ldr	ip, [r0, #28]
 805              		.loc 1 275 7 view .LVU242
 806 0010 C268     		ldr	r2, [r0, #12]
 807              		.loc 1 276 16 view .LVU243
 808 0012 6344     		add	r3, r3, ip
 809              		.loc 1 277 6 view .LVU244
 810 0014 8B42     		cmp	r3, r1
 811              		.loc 1 276 16 view .LVU245
 812 0016 4361     		str	r3, [r0, #20]
 813              		.loc 1 278 18 view .LVU246
 814 0018 24BF     		itt	cs
 815 001a 436A     		ldrcs	r3, [r0, #36]
 816 001c 4361     		strcs	r3, [r0, #20]
 817              		.loc 1 275 17 view .LVU247
 818 001e 013A     		subs	r2, r2, #1
 819              		.loc 1 285 11 view .LVU248
 820 0020 036B     		ldr	r3, [r0, #48]
 821              		.loc 1 275 17 view .LVU249
 822 0022 C260     		str	r2, [r0, #12]
 823              		.loc 1 276 3 is_stmt 1 view .LVU250
 824              		.loc 1 277 3 view .LVU251
 825              		.loc 1 278 5 view .LVU252
 826              		.loc 1 282 3 view .LVU253
 827              		.loc 1 282 13 is_stmt 0 view .LVU254
 828 0024 0022     		movs	r2, #0
 829 0026 8262     		str	r2, [r0, #40]
 830              		.loc 1 285 3 is_stmt 1 view .LVU255
 831              		.loc 1 285 6 is_stmt 0 view .LVU256
 832 0028 03B1     		cbz	r3, .L29
 833              		.loc 1 286 5 is_stmt 1 view .LVU257
 834 002a 9847     		blx	r3
 835              	.LVL45:
 836              	.L29:
 837              		.loc 1 286 5 is_stmt 0 view .LVU258
 838              	.LBE414:
 839              	.LBE413:
 840              		.loc 1 258 3 is_stmt 1 view .LVU259
 841              	.LBB415:
 842              	.LBI415:
 843              		.loc 2 502 20 view .LVU260
 844              	.LBE415:
 845              		.loc 2 504 3 view .LVU261
 846              	.LBB424:
 847              	.LBB416:
 848              	.LBI416:
 849              		.loc 5 386 20 view .LVU262
 850              	.LBB417:
 851              		.loc 5 388 22 view .LVU263
 852              		.loc 5 389 33 view .LVU264
 853              		.loc 5 395 3 view .LVU265
 854              		.loc 5 395 3 view .LVU266
 855              		.loc 5 395 3 view .LVU267
ARM GAS  /tmp/ccstZxWH.s 			page 16


 856              		.loc 5 399 3 view .LVU268
 857              	.LBB418:
 858              	.LBI418:
 859              		.loc 6 618 20 view .LVU269
 860              	.LBE418:
 861              	.LBE417:
 862              	.LBE416:
 863              	.LBE424:
 864              		.loc 6 621 3 view .LVU270
 865              	.LBB425:
 866              	.LBB423:
 867              	.LBB422:
 868              	.LBB421:
 869              	.LBB419:
 870              	.LBI419:
 871              		.loc 7 262 57 view .LVU271
 872              	.LBB420:
 873              		.loc 7 264 3 view .LVU272
 874 002c 0023     		movs	r3, #0
 875              		.syntax unified
 876              	@ 264 "../../../os/common/ext/CMSIS/include/cmsis_gcc.h" 1
 877 002e 83F31188 		MSR basepri, r3
 878              	@ 0 "" 2
 879              	.LVL46:
 880              		.loc 7 264 3 is_stmt 0 view .LVU273
 881              		.thumb
 882              		.syntax unified
 883              	.LBE420:
 884              	.LBE419:
 885              	.LBE421:
 886              	.LBE422:
 887              	.LBE423:
 888              	.LBE425:
 889              		.loc 1 259 1 view .LVU274
 890 0032 08BD     		pop	{r3, pc}
 891              		.cfi_endproc
 892              	.LFE283:
 893              		.size	ibqReleaseEmptyBuffer, .-ibqReleaseEmptyBuffer
 894              		.section	.text.ibqReleaseEmptyBufferS,"ax",%progbits
 895              		.align	1
 896              		.p2align 4,,15
 897              		.global	ibqReleaseEmptyBufferS
 898              		.syntax unified
 899              		.thumb
 900              		.thumb_func
 901              		.fpu softvfp
 902              		.type	ibqReleaseEmptyBufferS, %function
 903              	ibqReleaseEmptyBufferS:
 904              	.LVL47:
 905              	.LFB284:
 906              		.loc 1 269 60 is_stmt 1 view -0
 907              		.cfi_startproc
 908              		@ args = 0, pretend = 0, frame = 0
 909              		@ frame_needed = 0, uses_anonymous_args = 0
 910              		@ link register save eliminated.
 911              		.loc 1 271 23 view .LVU276
 912              		.loc 1 272 3 view .LVU277
ARM GAS  /tmp/ccstZxWH.s 			page 17


 913              		.loc 1 272 3 view .LVU278
 914              		.loc 1 272 3 view .LVU279
 915              		.loc 1 275 3 view .LVU280
 916              		.loc 1 277 6 is_stmt 0 view .LVU281
 917 0000 D0E90531 		ldrd	r3, r1, [r0, #20]
 918              		.loc 1 276 16 view .LVU282
 919 0004 D0F81CC0 		ldr	ip, [r0, #28]
 920              		.loc 1 275 7 view .LVU283
 921 0008 C268     		ldr	r2, [r0, #12]
 922              		.loc 1 276 16 view .LVU284
 923 000a 6344     		add	r3, r3, ip
 924              		.loc 1 277 6 view .LVU285
 925 000c 8B42     		cmp	r3, r1
 926              		.loc 1 276 16 view .LVU286
 927 000e 4361     		str	r3, [r0, #20]
 928              		.loc 1 278 18 view .LVU287
 929 0010 24BF     		itt	cs
 930 0012 436A     		ldrcs	r3, [r0, #36]
 931 0014 4361     		strcs	r3, [r0, #20]
 932              		.loc 1 275 17 view .LVU288
 933 0016 013A     		subs	r2, r2, #1
 934              		.loc 1 285 11 view .LVU289
 935 0018 036B     		ldr	r3, [r0, #48]
 936              		.loc 1 275 17 view .LVU290
 937 001a C260     		str	r2, [r0, #12]
 938              		.loc 1 276 3 is_stmt 1 view .LVU291
 939              		.loc 1 277 3 view .LVU292
 940              		.loc 1 278 5 view .LVU293
 941              		.loc 1 282 3 view .LVU294
 942              		.loc 1 282 13 is_stmt 0 view .LVU295
 943 001c 0022     		movs	r2, #0
 944 001e 8262     		str	r2, [r0, #40]
 945              		.loc 1 285 3 is_stmt 1 view .LVU296
 946              		.loc 1 285 6 is_stmt 0 view .LVU297
 947 0020 03B1     		cbz	r3, .L34
 948              		.loc 1 286 5 is_stmt 1 view .LVU298
 949 0022 1847     		bx	r3	@ indirect register sibling call
 950              	.LVL48:
 951              	.L34:
 952              		.loc 1 288 1 is_stmt 0 view .LVU299
 953 0024 7047     		bx	lr
 954              		.cfi_endproc
 955              	.LFE284:
 956              		.size	ibqReleaseEmptyBufferS, .-ibqReleaseEmptyBufferS
 957 0026 00BF     		.section	.text.ibqGetTimeout,"ax",%progbits
 958              		.align	1
 959              		.p2align 4,,15
 960              		.global	ibqGetTimeout
 961              		.syntax unified
 962              		.thumb
 963              		.thumb_func
 964              		.fpu softvfp
 965              		.type	ibqGetTimeout, %function
 966              	ibqGetTimeout:
 967              	.LVL49:
 968              	.LFB285:
 969              		.loc 1 309 69 is_stmt 1 view -0
ARM GAS  /tmp/ccstZxWH.s 			page 18


 970              		.cfi_startproc
 971              		@ args = 0, pretend = 0, frame = 0
 972              		@ frame_needed = 0, uses_anonymous_args = 0
 973              		.loc 1 309 69 is_stmt 0 view .LVU301
 974 0000 70B5     		push	{r4, r5, r6, lr}
 975              		.cfi_def_cfa_offset 16
 976              		.cfi_offset 4, -16
 977              		.cfi_offset 5, -12
 978              		.cfi_offset 6, -8
 979              		.cfi_offset 14, -4
 980              	.LBB455:
 981              	.LBB456:
 982              	.LBB457:
 983              	.LBB458:
 984              	.LBB459:
 985              		.loc 7 264 3 view .LVU302
 986 0002 2023     		movs	r3, #32
 987              	.LBE459:
 988              	.LBE458:
 989              	.LBE457:
 990              	.LBE456:
 991              	.LBE455:
 992              		.loc 1 309 69 view .LVU303
 993 0004 0446     		mov	r4, r0
 994              		.loc 1 310 3 is_stmt 1 view .LVU304
 995              		.loc 1 312 3 view .LVU305
 996              	.LBB467:
 997              	.LBI455:
 998              		.loc 2 491 20 view .LVU306
 999              	.LBE467:
 1000              		.loc 2 493 3 view .LVU307
 1001              	.LBB468:
 1002              	.LBB464:
 1003              	.LBI456:
 1004              		.loc 5 374 20 view .LVU308
 1005              	.LBE464:
 1006              	.LBE468:
 1007              		.loc 5 376 3 view .LVU309
 1008              	.LBB469:
 1009              	.LBB465:
 1010              	.LBB462:
 1011              	.LBI457:
 1012              		.loc 6 594 20 view .LVU310
 1013              	.LBE462:
 1014              	.LBE465:
 1015              	.LBE469:
 1016              		.loc 6 602 3 view .LVU311
 1017              	.LVL50:
 1018              	.LBB470:
 1019              	.LBB466:
 1020              	.LBB463:
 1021              	.LBB461:
 1022              	.LBI458:
 1023              		.loc 7 262 57 view .LVU312
 1024              	.LBB460:
 1025              		.loc 7 264 3 view .LVU313
 1026              		.syntax unified
ARM GAS  /tmp/ccstZxWH.s 			page 19


 1027              	@ 264 "../../../os/common/ext/CMSIS/include/cmsis_gcc.h" 1
 1028 0006 83F31188 		MSR basepri, r3
 1029              	@ 0 "" 2
 1030              	.LVL51:
 1031              		.loc 7 264 3 is_stmt 0 view .LVU314
 1032              		.thumb
 1033              		.syntax unified
 1034              	.LBE460:
 1035              	.LBE461:
 1036              	.LBE463:
 1037              	.LBE466:
 1038              	.LBE470:
 1039              		.loc 5 377 34 is_stmt 1 view .LVU315
 1040              		.loc 5 378 20 view .LVU316
 1041              		.loc 1 315 3 view .LVU317
 1042              		.loc 1 315 11 is_stmt 0 view .LVU318
 1043 000a 836A     		ldr	r3, [r0, #40]
 1044              		.loc 1 315 6 view .LVU319
 1045 000c 13B3     		cbz	r3, .L53
 1046              		.loc 1 329 24 view .LVU320
 1047 000e C26A     		ldr	r2, [r0, #44]
 1048              	.L39:
 1049              		.loc 1 324 3 is_stmt 1 view .LVU321
 1050              		.loc 1 324 7 is_stmt 0 view .LVU322
 1051 0010 13F8016B 		ldrb	r6, [r3], #1	@ zero_extendqisi2
 1052              	.LVL52:
 1053              		.loc 1 325 3 is_stmt 1 view .LVU323
 1054              		.loc 1 325 12 is_stmt 0 view .LVU324
 1055 0014 A362     		str	r3, [r4, #40]
 1056              		.loc 1 329 3 is_stmt 1 view .LVU325
 1057              		.loc 1 329 6 is_stmt 0 view .LVU326
 1058 0016 9342     		cmp	r3, r2
 1059 0018 04D2     		bcs	.L55
 1060              	.LVL53:
 1061              	.L40:
 1062              		.loc 1 317 5 is_stmt 1 view .LVU327
 1063              		.loc 1 318 7 view .LVU328
 1064              	.LBB471:
 1065              	.LBI471:
 1066              		.loc 2 502 20 view .LVU329
 1067              	.LBE471:
 1068              		.loc 2 504 3 view .LVU330
 1069              	.LBB488:
 1070              	.LBB472:
 1071              	.LBI472:
 1072              		.loc 5 386 20 view .LVU331
 1073              	.LBB473:
 1074              		.loc 5 388 22 view .LVU332
 1075              		.loc 5 389 33 view .LVU333
 1076              		.loc 5 395 3 view .LVU334
 1077              		.loc 5 395 3 view .LVU335
 1078              		.loc 5 395 3 view .LVU336
 1079              		.loc 5 399 3 view .LVU337
 1080              	.LBB474:
 1081              	.LBI474:
 1082              		.loc 6 618 20 view .LVU338
 1083              	.LBE474:
ARM GAS  /tmp/ccstZxWH.s 			page 20


 1084              	.LBE473:
 1085              	.LBE472:
 1086              	.LBE488:
 1087              		.loc 6 621 3 view .LVU339
 1088              	.LBB489:
 1089              	.LBB485:
 1090              	.LBB482:
 1091              	.LBB479:
 1092              	.LBB475:
 1093              	.LBI475:
 1094              		.loc 7 262 57 view .LVU340
 1095              	.LBB476:
 1096              		.loc 7 264 3 view .LVU341
 1097 001a 0023     		movs	r3, #0
 1098              		.syntax unified
 1099              	@ 264 "../../../os/common/ext/CMSIS/include/cmsis_gcc.h" 1
 1100 001c 83F31188 		MSR basepri, r3
 1101              	@ 0 "" 2
 1102              	.LVL54:
 1103              		.loc 7 264 3 is_stmt 0 view .LVU342
 1104              		.thumb
 1105              		.syntax unified
 1106              	.LBE476:
 1107              	.LBE475:
 1108              	.LBE479:
 1109              	.LBE482:
 1110              	.LBE485:
 1111              	.LBE489:
 1112              		.loc 1 319 7 is_stmt 1 view .LVU343
 1113              		.loc 1 335 1 is_stmt 0 view .LVU344
 1114 0020 3046     		mov	r0, r6
 1115 0022 70BD     		pop	{r4, r5, r6, pc}
 1116              	.LVL55:
 1117              	.L55:
 1118              		.loc 1 330 5 is_stmt 1 view .LVU345
 1119              	.LBB490:
 1120              	.LBI490:
 1121              		.loc 1 269 8 view .LVU346
 1122              	.LBB491:
 1123              		.loc 1 271 23 view .LVU347
 1124              		.loc 1 272 3 view .LVU348
 1125              		.loc 1 272 3 view .LVU349
 1126              		.loc 1 272 3 view .LVU350
 1127              		.loc 1 275 3 view .LVU351
 1128              		.loc 1 276 16 is_stmt 0 view .LVU352
 1129 0024 6369     		ldr	r3, [r4, #20]
 1130 0026 E169     		ldr	r1, [r4, #28]
 1131              	.LVL56:
 1132              		.loc 1 275 7 view .LVU353
 1133 0028 E268     		ldr	r2, [r4, #12]
 1134              		.loc 1 276 16 view .LVU354
 1135 002a 0B44     		add	r3, r3, r1
 1136              		.loc 1 277 6 view .LVU355
 1137 002c A169     		ldr	r1, [r4, #24]
 1138              		.loc 1 276 16 view .LVU356
 1139 002e 6361     		str	r3, [r4, #20]
 1140              		.loc 1 277 6 view .LVU357
ARM GAS  /tmp/ccstZxWH.s 			page 21


 1141 0030 8B42     		cmp	r3, r1
 1142              		.loc 1 278 18 view .LVU358
 1143 0032 24BF     		itt	cs
 1144 0034 636A     		ldrcs	r3, [r4, #36]
 1145 0036 6361     		strcs	r3, [r4, #20]
 1146              		.loc 1 275 17 view .LVU359
 1147 0038 013A     		subs	r2, r2, #1
 1148              		.loc 1 285 11 view .LVU360
 1149 003a 236B     		ldr	r3, [r4, #48]
 1150              		.loc 1 275 17 view .LVU361
 1151 003c E260     		str	r2, [r4, #12]
 1152              		.loc 1 276 3 is_stmt 1 view .LVU362
 1153              		.loc 1 277 3 view .LVU363
 1154              		.loc 1 278 5 view .LVU364
 1155              		.loc 1 282 3 view .LVU365
 1156              		.loc 1 282 13 is_stmt 0 view .LVU366
 1157 003e 0022     		movs	r2, #0
 1158 0040 A262     		str	r2, [r4, #40]
 1159              		.loc 1 285 3 is_stmt 1 view .LVU367
 1160              		.loc 1 285 6 is_stmt 0 view .LVU368
 1161 0042 002B     		cmp	r3, #0
 1162 0044 E9D0     		beq	.L40
 1163              		.loc 1 286 5 is_stmt 1 view .LVU369
 1164 0046 2046     		mov	r0, r4
 1165              	.LVL57:
 1166              		.loc 1 286 5 is_stmt 0 view .LVU370
 1167 0048 9847     		blx	r3
 1168              	.LVL58:
 1169              		.loc 1 286 5 view .LVU371
 1170              	.LBE491:
 1171              	.LBE490:
 1172              		.loc 1 333 3 is_stmt 1 view .LVU372
 1173              	.LBB492:
 1174              	.LBI492:
 1175              		.loc 2 502 20 view .LVU373
 1176              	.LBE492:
 1177              		.loc 2 504 3 view .LVU374
 1178              	.LBB501:
 1179              	.LBB493:
 1180              	.LBI493:
 1181              		.loc 5 386 20 view .LVU375
 1182              	.LBB494:
 1183              		.loc 5 388 22 view .LVU376
 1184              		.loc 5 389 33 view .LVU377
 1185              		.loc 5 395 3 view .LVU378
 1186              		.loc 5 395 3 view .LVU379
 1187              		.loc 5 395 3 view .LVU380
 1188              		.loc 5 399 3 view .LVU381
 1189              	.LBB495:
 1190              	.LBI495:
 1191              		.loc 6 618 20 view .LVU382
 1192              	.LBE495:
 1193              	.LBE494:
 1194              	.LBE493:
 1195              	.LBE501:
 1196              		.loc 6 621 3 view .LVU383
 1197              	.LBB502:
ARM GAS  /tmp/ccstZxWH.s 			page 22


 1198              	.LBB500:
 1199              	.LBB499:
 1200              	.LBB498:
 1201              	.LBB496:
 1202              	.LBI496:
 1203              		.loc 7 262 57 view .LVU384
 1204              	.LBB497:
 1205              		.loc 7 264 3 view .LVU385
 1206              		.loc 7 264 3 is_stmt 0 view .LVU386
 1207              	.LBE497:
 1208              	.LBE496:
 1209              	.LBE498:
 1210              	.LBE499:
 1211              	.LBE500:
 1212              	.LBE502:
 1213              		.loc 1 317 5 is_stmt 1 view .LVU387
 1214              		.loc 1 318 7 view .LVU388
 1215              	.LBB503:
 1216              		.loc 2 502 20 view .LVU389
 1217              	.LBE503:
 1218              		.loc 2 504 3 view .LVU390
 1219              	.LBB504:
 1220              	.LBB486:
 1221              		.loc 5 386 20 view .LVU391
 1222              	.LBB483:
 1223              		.loc 5 388 22 view .LVU392
 1224              		.loc 5 389 33 view .LVU393
 1225              		.loc 5 395 3 view .LVU394
 1226              		.loc 5 395 3 view .LVU395
 1227              		.loc 5 395 3 view .LVU396
 1228              		.loc 5 399 3 view .LVU397
 1229              	.LBB480:
 1230              		.loc 6 618 20 view .LVU398
 1231              	.LBE480:
 1232              	.LBE483:
 1233              	.LBE486:
 1234              	.LBE504:
 1235              		.loc 6 621 3 view .LVU399
 1236              	.LBB505:
 1237              	.LBB487:
 1238              	.LBB484:
 1239              	.LBB481:
 1240              	.LBB478:
 1241              		.loc 7 262 57 view .LVU400
 1242              	.LBB477:
 1243              		.loc 7 264 3 view .LVU401
 1244 004a 0023     		movs	r3, #0
 1245              		.syntax unified
 1246              	@ 264 "../../../os/common/ext/CMSIS/include/cmsis_gcc.h" 1
 1247 004c 83F31188 		MSR basepri, r3
 1248              	@ 0 "" 2
 1249              	.LVL59:
 1250              		.loc 7 264 3 is_stmt 0 view .LVU402
 1251              		.thumb
 1252              		.syntax unified
 1253              	.LBE477:
 1254              	.LBE478:
ARM GAS  /tmp/ccstZxWH.s 			page 23


 1255              	.LBE481:
 1256              	.LBE484:
 1257              	.LBE487:
 1258              	.LBE505:
 1259              		.loc 1 319 7 is_stmt 1 view .LVU403
 1260              		.loc 1 335 1 is_stmt 0 view .LVU404
 1261 0050 3046     		mov	r0, r6
 1262 0052 70BD     		pop	{r4, r5, r6, pc}
 1263              	.LVL60:
 1264              	.L53:
 1265              		.loc 1 335 1 view .LVU405
 1266 0054 0D46     		mov	r5, r1
 1267 0056 05E0     		b	.L38
 1268              	.LVL61:
 1269              	.L41:
 1270              	.LBB506:
 1271              	.LBB507:
 1272              	.LBB508:
 1273              		.loc 1 228 8 view .LVU406
 1274 0058 237A     		ldrb	r3, [r4, #8]	@ zero_extendqisi2
 1275 005a 7BB9     		cbnz	r3, .L47
 1276              	.LBB509:
 1277              	.LBB510:
 1278              		.loc 2 784 10 view .LVU407
 1279 005c FFF7FEFF 		bl	chThdEnqueueTimeoutS
 1280              	.LVL62:
 1281              		.loc 2 784 10 view .LVU408
 1282              	.LBE510:
 1283              	.LBE509:
 1284              		.loc 1 232 5 is_stmt 1 view .LVU409
 1285              		.loc 1 232 8 is_stmt 0 view .LVU410
 1286 0060 061E     		subs	r6, r0, #0
 1287 0062 DADB     		blt	.L40
 1288              	.LVL63:
 1289              	.L38:
 1290              		.loc 1 228 5 is_stmt 1 view .LVU411
 1291              		.loc 1 231 5 view .LVU412
 1292              	.LBB513:
 1293              	.LBI509:
 1294              		.loc 2 781 21 view .LVU413
 1295              	.LBB511:
 1296              		.loc 2 784 3 view .LVU414
 1297              	.LBE511:
 1298              	.LBE513:
 1299              	.LBE508:
 1300              		.loc 1 227 9 view .LVU415
 1301              		.loc 1 227 10 is_stmt 0 view .LVU416
 1302 0064 E368     		ldr	r3, [r4, #12]
 1303              	.LBB515:
 1304              	.LBB514:
 1305              	.LBB512:
 1306              		.loc 2 784 10 view .LVU417
 1307 0066 2946     		mov	r1, r5
 1308 0068 2046     		mov	r0, r4
 1309              	.LBE512:
 1310              	.LBE514:
 1311              	.LBE515:
ARM GAS  /tmp/ccstZxWH.s 			page 24


 1312              		.loc 1 227 9 view .LVU418
 1313 006a 002B     		cmp	r3, #0
 1314 006c F4D0     		beq	.L41
 1315              	.LVL64:
 1316              	.LBB516:
 1317              	.LBI516:
 1318              		.loc 1 222 9 is_stmt 1 view .LVU419
 1319              	.LBB517:
 1320              		.loc 1 237 3 view .LVU420
 1321              		.loc 1 237 3 view .LVU421
 1322              		.loc 1 237 3 view .LVU422
 1323              		.loc 1 240 3 view .LVU423
 1324              		.loc 1 240 19 is_stmt 0 view .LVU424
 1325 006e 6369     		ldr	r3, [r4, #20]
 1326              		.loc 1 241 25 view .LVU425
 1327 0070 1A68     		ldr	r2, [r3]
 1328              		.loc 1 240 28 view .LVU426
 1329 0072 0433     		adds	r3, r3, #4
 1330              		.loc 1 241 25 view .LVU427
 1331 0074 1A44     		add	r2, r2, r3
 1332              		.loc 1 241 13 view .LVU428
 1333 0076 C4E90A32 		strd	r3, r2, [r4, #40]
 1334              		.loc 1 243 3 is_stmt 1 view .LVU429
 1335              	.LVL65:
 1336              		.loc 1 243 3 is_stmt 0 view .LVU430
 1337              	.LBE517:
 1338              	.LBE516:
 1339              	.LBE507:
 1340              	.LBE506:
 1341              		.loc 1 317 5 is_stmt 1 view .LVU431
 1342 007a C9E7     		b	.L39
 1343              	.LVL66:
 1344              	.L47:
 1345              	.LBB520:
 1346              	.LBB519:
 1347              	.LBB518:
 1348              		.loc 1 229 14 is_stmt 0 view .LVU432
 1349 007c 6FF00106 		mvn	r6, #1
 1350 0080 CBE7     		b	.L40
 1351              	.LBE518:
 1352              	.LBE519:
 1353              	.LBE520:
 1354              		.cfi_endproc
 1355              	.LFE285:
 1356              		.size	ibqGetTimeout, .-ibqGetTimeout
 1357 0082 00BF     		.section	.text.ibqReadTimeout,"ax",%progbits
 1358              		.align	1
 1359              		.p2align 4,,15
 1360              		.global	ibqReadTimeout
 1361              		.syntax unified
 1362              		.thumb
 1363              		.thumb_func
 1364              		.fpu softvfp
 1365              		.type	ibqReadTimeout, %function
 1366              	ibqReadTimeout:
 1367              	.LVL67:
 1368              	.LFB286:
ARM GAS  /tmp/ccstZxWH.s 			page 25


 1369              		.loc 1 359 52 is_stmt 1 view -0
 1370              		.cfi_startproc
 1371              		@ args = 0, pretend = 0, frame = 8
 1372              		@ frame_needed = 0, uses_anonymous_args = 0
 1373              		.loc 1 360 3 view .LVU434
 1374              		.loc 1 361 3 view .LVU435
 1375              		.loc 1 363 3 view .LVU436
 1376              		.loc 1 363 3 view .LVU437
 1377              		.loc 1 363 3 view .LVU438
 1378              		.loc 1 365 3 view .LVU439
 1379              	.LBB585:
 1380              	.LBI585:
 1381              		.loc 2 491 20 view .LVU440
 1382              	.LBE585:
 1383              		.loc 2 493 3 view .LVU441
 1384              	.LBB597:
 1385              	.LBB586:
 1386              	.LBI586:
 1387              		.loc 5 374 20 view .LVU442
 1388              	.LBE586:
 1389              	.LBE597:
 1390              		.loc 5 376 3 view .LVU443
 1391              	.LBB598:
 1392              	.LBB594:
 1393              	.LBB587:
 1394              	.LBI587:
 1395              		.loc 6 594 20 view .LVU444
 1396              	.LBE587:
 1397              	.LBE594:
 1398              	.LBE598:
 1399              		.loc 6 602 3 view .LVU445
 1400              	.LBB599:
 1401              	.LBB595:
 1402              	.LBB592:
 1403              	.LBB588:
 1404              	.LBI588:
 1405              		.loc 7 262 57 view .LVU446
 1406              	.LBB589:
 1407              		.loc 7 264 3 view .LVU447
 1408              	.LBE589:
 1409              	.LBE588:
 1410              	.LBE592:
 1411              	.LBE595:
 1412              	.LBE599:
 1413              		.loc 1 359 52 is_stmt 0 view .LVU448
 1414 0000 2DE9F04F 		push	{r4, r5, r6, r7, r8, r9, r10, fp, lr}
 1415              		.cfi_def_cfa_offset 36
 1416              		.cfi_offset 4, -36
 1417              		.cfi_offset 5, -32
 1418              		.cfi_offset 6, -28
 1419              		.cfi_offset 7, -24
 1420              		.cfi_offset 8, -20
 1421              		.cfi_offset 9, -16
 1422              		.cfi_offset 10, -12
 1423              		.cfi_offset 11, -8
 1424              		.cfi_offset 14, -4
 1425 0004 9846     		mov	r8, r3
ARM GAS  /tmp/ccstZxWH.s 			page 26


 1426 0006 83B0     		sub	sp, sp, #12
 1427              		.cfi_def_cfa_offset 48
 1428              		.loc 1 359 52 view .LVU449
 1429 0008 0446     		mov	r4, r0
 1430 000a 0E46     		mov	r6, r1
 1431 000c 1746     		mov	r7, r2
 1432              	.LBB600:
 1433              	.LBB596:
 1434              	.LBB593:
 1435              	.LBB591:
 1436              	.LBB590:
 1437              		.loc 7 264 3 view .LVU450
 1438 000e 2023     		movs	r3, #32
 1439              	.LVL68:
 1440              		.loc 7 264 3 view .LVU451
 1441              		.syntax unified
 1442              	@ 264 "../../../os/common/ext/CMSIS/include/cmsis_gcc.h" 1
 1443 0010 83F31188 		MSR basepri, r3
 1444              	@ 0 "" 2
 1445              	.LVL69:
 1446              		.loc 7 264 3 view .LVU452
 1447              		.thumb
 1448              		.syntax unified
 1449              	.LBE590:
 1450              	.LBE591:
 1451              	.LBE593:
 1452              	.LBE596:
 1453              	.LBE600:
 1454              		.loc 5 377 34 is_stmt 1 view .LVU453
 1455              		.loc 5 378 20 view .LVU454
 1456              		.loc 1 368 3 view .LVU455
 1457              	.LBB601:
 1458              	.LBI601:
 1459              		.loc 2 616 25 view .LVU456
 1460              	.LBE601:
 1461              		.loc 2 618 3 view .LVU457
 1462              	.LBB613:
 1463              	.LBB602:
 1464              	.LBI602:
 1465              		.file 8 "../../../os/rt/include/chvt.h"
 1466              		.loc 8 392 25 view .LVU458
 1467              	.LBE602:
 1468              	.LBE613:
 1469              		.loc 8 397 3 view .LVU459
 1470              	.LBB614:
 1471              	.LBB610:
 1472              	.LBB603:
 1473              	.LBI603:
 1474              		.file 9 "../../../os/common/ports/ARMCMx/chcore_timer.h"
 1475              		.loc 9 105 25 view .LVU460
 1476              	.LBE603:
 1477              	.LBE610:
 1478              	.LBE614:
 1479              		.loc 9 107 3 view .LVU461
 1480              	.LBB615:
 1481              	.LBB611:
 1482              	.LBB608:
ARM GAS  /tmp/ccstZxWH.s 			page 27


 1483              	.LBB604:
 1484              	.LBI604:
 1485              		.file 10 "../../../os/hal/ports/STM32/LLD/TIMv1/hal_st_lld.h"
 1486              		.loc 10 139 25 view .LVU462
 1487              	.LBB605:
 1488              		.loc 10 141 3 view .LVU463
 1489              		.loc 10 141 10 is_stmt 0 view .LVU464
 1490 0014 4FF08043 		mov	r3, #1073741824
 1491              	.LBE605:
 1492              	.LBE604:
 1493              	.LBE608:
 1494              	.LBE611:
 1495              	.LBE615:
 1496              	.LBB616:
 1497              		.loc 1 374 13 view .LVU465
 1498 0018 A16A     		ldr	r1, [r4, #40]
 1499              	.LVL70:
 1500              		.loc 1 374 13 view .LVU466
 1501              	.LBE616:
 1502              	.LBB723:
 1503              	.LBB612:
 1504              	.LBB609:
 1505              	.LBB607:
 1506              	.LBB606:
 1507              		.loc 10 141 10 view .LVU467
 1508 001a 5B6A     		ldr	r3, [r3, #36]
 1509              	.LBE606:
 1510              	.LBE607:
 1511              	.LBE609:
 1512              	.LBE612:
 1513              	.LBE723:
 1514              		.loc 1 360 10 view .LVU468
 1515 001c 0025     		movs	r5, #0
 1516              		.loc 1 368 12 view .LVU469
 1517 001e 4344     		add	r3, r8, r3
 1518 0020 0193     		str	r3, [sp, #4]
 1519              	.LVL71:
 1520              		.loc 1 370 3 is_stmt 1 view .LVU470
 1521              	.LBB724:
 1522              		.loc 1 371 5 view .LVU471
 1523              		.loc 1 374 5 view .LVU472
 1524              	.LBB617:
 1525              		.loc 1 379 38 is_stmt 0 view .LVU473
 1526 0022 08F1FF3A 		add	r10, r8, #-1
 1527              	.LBE617:
 1528              	.LBB685:
 1529              	.LBB686:
 1530              		.loc 1 282 13 view .LVU474
 1531 0026 A946     		mov	r9, r5
 1532              	.LBE686:
 1533              	.LBE685:
 1534              		.loc 1 374 8 view .LVU475
 1535 0028 89B3     		cbz	r1, .L57
 1536              	.LVL72:
 1537              	.L90:
 1538              		.loc 1 403 24 view .LVU476
 1539 002a E26A     		ldr	r2, [r4, #44]
ARM GAS  /tmp/ccstZxWH.s 			page 28


 1540              	.L58:
 1541              		.loc 1 403 5 is_stmt 1 view .LVU477
 1542              		.loc 1 404 19 is_stmt 0 view .LVU478
 1543 002c A7EB050B 		sub	fp, r7, r5
 1544              		.loc 1 403 10 view .LVU479
 1545 0030 521A     		subs	r2, r2, r1
 1546              	.LVL73:
 1547              		.loc 1 404 5 is_stmt 1 view .LVU480
 1548 0032 9345     		cmp	fp, r2
 1549 0034 28BF     		it	cs
 1550 0036 9346     		movcs	fp, r2
 1551              	.LVL74:
 1552              		.loc 1 410 5 view .LVU481
 1553              		.loc 1 410 8 is_stmt 0 view .LVU482
 1554 0038 BBF1400F 		cmp	fp, #64
 1555 003c 46D9     		bls	.L66
 1556              		.loc 1 412 7 is_stmt 1 view .LVU483
 1557 003e 3346     		mov	r3, r6
 1558 0040 01F1400B 		add	fp, r1, #64
 1559              	.LVL75:
 1560              	.L67:
 1561              		.loc 1 412 7 is_stmt 0 view .LVU484
 1562 0044 D1F800C0 		ldr	ip, [r1]	@ unaligned
 1563 0048 4868     		ldr	r0, [r1, #4]	@ unaligned
 1564 004a 8A68     		ldr	r2, [r1, #8]	@ unaligned
 1565 004c D1F80CE0 		ldr	lr, [r1, #12]	@ unaligned
 1566 0050 C3F80CE0 		str	lr, [r3, #12]	@ unaligned
 1567 0054 1031     		adds	r1, r1, #16
 1568 0056 5945     		cmp	r1, fp
 1569 0058 C3F800C0 		str	ip, [r3]	@ unaligned
 1570 005c 5860     		str	r0, [r3, #4]	@ unaligned
 1571 005e 9A60     		str	r2, [r3, #8]	@ unaligned
 1572 0060 03F11003 		add	r3, r3, #16
 1573 0064 EED1     		bne	.L67
 1574              		.loc 1 413 7 is_stmt 1 view .LVU485
 1575              		.loc 1 414 17 is_stmt 0 view .LVU486
 1576 0066 A36A     		ldr	r3, [r4, #40]
 1577              		.loc 1 425 8 view .LVU487
 1578 0068 E26A     		ldr	r2, [r4, #44]
 1579              		.loc 1 414 17 view .LVU488
 1580 006a 4033     		adds	r3, r3, #64
 1581              		.loc 1 425 8 view .LVU489
 1582 006c 9A42     		cmp	r2, r3
 1583              		.loc 1 413 17 view .LVU490
 1584 006e 06F14006 		add	r6, r6, #64
 1585              	.LVL76:
 1586              		.loc 1 414 7 is_stmt 1 view .LVU491
 1587              		.loc 1 414 17 is_stmt 0 view .LVU492
 1588 0072 A362     		str	r3, [r4, #40]
 1589              		.loc 1 415 7 is_stmt 1 view .LVU493
 1590              		.loc 1 415 17 is_stmt 0 view .LVU494
 1591 0074 05F14005 		add	r5, r5, #64
 1592              	.LVL77:
 1593              		.loc 1 425 5 is_stmt 1 view .LVU495
 1594              		.loc 1 425 8 is_stmt 0 view .LVU496
 1595 0078 34D9     		bls	.L89
 1596              	.L70:
ARM GAS  /tmp/ccstZxWH.s 			page 29


 1597              		.loc 1 430 5 is_stmt 1 view .LVU497
 1598              	.LBB688:
 1599              	.LBI688:
 1600              		.loc 2 502 20 view .LVU498
 1601              	.LBE688:
 1602              	.LBE724:
 1603              		.loc 2 504 3 view .LVU499
 1604              	.LBB725:
 1605              	.LBB697:
 1606              	.LBB689:
 1607              	.LBI689:
 1608              		.loc 5 386 20 view .LVU500
 1609              	.LBB690:
 1610              		.loc 5 388 22 view .LVU501
 1611              		.loc 5 389 33 view .LVU502
 1612              		.loc 5 395 3 view .LVU503
 1613              		.loc 5 395 3 view .LVU504
 1614              		.loc 5 395 3 view .LVU505
 1615              		.loc 5 399 3 view .LVU506
 1616              	.LBB691:
 1617              	.LBI691:
 1618              		.loc 6 618 20 view .LVU507
 1619              	.LBE691:
 1620              	.LBE690:
 1621              	.LBE689:
 1622              	.LBE697:
 1623              	.LBE725:
 1624              		.loc 6 621 3 view .LVU508
 1625              	.LVL78:
 1626              	.LBB726:
 1627              	.LBB698:
 1628              	.LBB696:
 1629              	.LBB695:
 1630              	.LBB694:
 1631              	.LBB692:
 1632              	.LBI692:
 1633              		.loc 7 262 57 view .LVU509
 1634              	.LBB693:
 1635              		.loc 7 264 3 view .LVU510
 1636              		.syntax unified
 1637              	@ 264 "../../../os/common/ext/CMSIS/include/cmsis_gcc.h" 1
 1638 007a 89F31188 		MSR basepri, r9
 1639              	@ 0 "" 2
 1640              	.LVL79:
 1641              		.loc 7 264 3 is_stmt 0 view .LVU511
 1642              		.thumb
 1643              		.syntax unified
 1644              	.LBE693:
 1645              	.LBE692:
 1646              	.LBE694:
 1647              	.LBE695:
 1648              	.LBE696:
 1649              	.LBE698:
 1650              		.loc 1 431 5 is_stmt 1 view .LVU512
 1651              		.loc 1 431 8 is_stmt 0 view .LVU513
 1652 007e BD42     		cmp	r5, r7
 1653 0080 53D2     		bcs	.L56
ARM GAS  /tmp/ccstZxWH.s 			page 30


 1654              		.loc 1 434 5 is_stmt 1 view .LVU514
 1655              	.LBB699:
 1656              	.LBI699:
 1657              		.loc 2 491 20 view .LVU515
 1658              	.LBB700:
 1659              		.loc 2 493 3 view .LVU516
 1660              	.LBB701:
 1661              	.LBI701:
 1662              		.loc 5 374 20 view .LVU517
 1663              	.LBE701:
 1664              	.LBE700:
 1665              	.LBE699:
 1666              	.LBE726:
 1667              		.loc 5 376 3 view .LVU518
 1668              	.LBB727:
 1669              	.LBB710:
 1670              	.LBB708:
 1671              	.LBB706:
 1672              	.LBB702:
 1673              	.LBI702:
 1674              		.loc 6 594 20 view .LVU519
 1675              	.LBE702:
 1676              	.LBE706:
 1677              	.LBE708:
 1678              	.LBE710:
 1679              	.LBE727:
 1680              		.loc 6 602 3 view .LVU520
 1681              	.LVL80:
 1682              	.LBB728:
 1683              	.LBB711:
 1684              	.LBB709:
 1685              	.LBB707:
 1686              	.LBB705:
 1687              	.LBB703:
 1688              	.LBI703:
 1689              		.loc 7 262 57 view .LVU521
 1690              	.LBB704:
 1691              		.loc 7 264 3 view .LVU522
 1692 0082 2023     		movs	r3, #32
 1693              		.syntax unified
 1694              	@ 264 "../../../os/common/ext/CMSIS/include/cmsis_gcc.h" 1
 1695 0084 83F31188 		MSR basepri, r3
 1696              	@ 0 "" 2
 1697              	.LVL81:
 1698              		.loc 7 264 3 is_stmt 0 view .LVU523
 1699              		.thumb
 1700              		.syntax unified
 1701              	.LBE704:
 1702              	.LBE703:
 1703              	.LBE705:
 1704              	.LBE707:
 1705              	.LBE709:
 1706              	.LBE711:
 1707              	.LBE728:
 1708              		.loc 5 377 34 is_stmt 1 view .LVU524
 1709              		.loc 5 378 20 view .LVU525
 1710              		.loc 1 370 3 view .LVU526
ARM GAS  /tmp/ccstZxWH.s 			page 31


 1711              	.LBB729:
 1712              		.loc 1 371 5 view .LVU527
 1713              		.loc 1 374 5 view .LVU528
 1714              		.loc 1 374 13 is_stmt 0 view .LVU529
 1715 0088 A16A     		ldr	r1, [r4, #40]
 1716              		.loc 1 374 8 view .LVU530
 1717 008a 0029     		cmp	r1, #0
 1718 008c CDD1     		bne	.L90
 1719              	.L57:
 1720              	.LBB712:
 1721              		.loc 1 375 7 is_stmt 1 view .LVU531
 1722              		.loc 1 379 7 view .LVU532
 1723              		.loc 1 379 10 is_stmt 0 view .LVU533
 1724 008e 1AF1030F 		cmn	r10, #3
 1725 0092 41D8     		bhi	.L59
 1726              	.LBB618:
 1727              		.loc 1 383 9 is_stmt 1 view .LVU534
 1728              	.LBB619:
 1729              	.LBI619:
 1730              		.loc 2 616 25 view .LVU535
 1731              	.LBE619:
 1732              	.LBE618:
 1733              	.LBE712:
 1734              	.LBE729:
 1735              		.loc 2 618 3 view .LVU536
 1736              	.LBB730:
 1737              	.LBB713:
 1738              	.LBB658:
 1739              	.LBB631:
 1740              	.LBB620:
 1741              	.LBI620:
 1742              		.loc 8 392 25 view .LVU537
 1743              	.LBE620:
 1744              	.LBE631:
 1745              	.LBE658:
 1746              	.LBE713:
 1747              	.LBE730:
 1748              		.loc 8 397 3 view .LVU538
 1749              	.LBB731:
 1750              	.LBB714:
 1751              	.LBB659:
 1752              	.LBB632:
 1753              	.LBB628:
 1754              	.LBB621:
 1755              	.LBI621:
 1756              		.loc 9 105 25 view .LVU539
 1757              	.LBE621:
 1758              	.LBE628:
 1759              	.LBE632:
 1760              	.LBE659:
 1761              	.LBE714:
 1762              	.LBE731:
 1763              		.loc 9 107 3 view .LVU540
 1764              	.LBB732:
 1765              	.LBB715:
 1766              	.LBB660:
 1767              	.LBB633:
ARM GAS  /tmp/ccstZxWH.s 			page 32


 1768              	.LBB629:
 1769              	.LBB626:
 1770              	.LBB622:
 1771              	.LBI622:
 1772              		.loc 10 139 25 view .LVU541
 1773              	.LBB623:
 1774              		.loc 10 141 3 view .LVU542
 1775              		.loc 10 141 10 is_stmt 0 view .LVU543
 1776 0094 4FF08043 		mov	r3, #1073741824
 1777              	.LBE623:
 1778              	.LBE622:
 1779              	.LBE626:
 1780              	.LBE629:
 1781              	.LBE633:
 1782              		.loc 1 383 19 view .LVU544
 1783 0098 019A     		ldr	r2, [sp, #4]
 1784              	.LBB634:
 1785              	.LBB630:
 1786              	.LBB627:
 1787              	.LBB625:
 1788              	.LBB624:
 1789              		.loc 10 141 10 view .LVU545
 1790 009a 5B6A     		ldr	r3, [r3, #36]
 1791              	.LBE624:
 1792              	.LBE625:
 1793              	.LBE627:
 1794              	.LBE630:
 1795              	.LBE634:
 1796              		.loc 1 383 19 view .LVU546
 1797 009c A2EB030B 		sub	fp, r2, r3
 1798              	.LVL82:
 1799              		.loc 1 388 9 is_stmt 1 view .LVU547
 1800              		.loc 1 388 12 is_stmt 0 view .LVU548
 1801 00a0 D845     		cmp	r8, fp
 1802 00a2 07D2     		bcs	.L63
 1803 00a4 45E0     		b	.L91
 1804              	.LVL83:
 1805              	.L65:
 1806              	.LBB635:
 1807              	.LBB636:
 1808              	.LBB637:
 1809              		.loc 1 228 8 view .LVU549
 1810 00a6 237A     		ldrb	r3, [r4, #8]	@ zero_extendqisi2
 1811 00a8 002B     		cmp	r3, #0
 1812 00aa 3BD1     		bne	.L61
 1813              	.LBB638:
 1814              	.LBB639:
 1815              		.loc 2 784 10 view .LVU550
 1816 00ac FFF7FEFF 		bl	chThdEnqueueTimeoutS
 1817              	.LVL84:
 1818              		.loc 2 784 10 view .LVU551
 1819              	.LBE639:
 1820              	.LBE638:
 1821              		.loc 1 232 5 is_stmt 1 view .LVU552
 1822              		.loc 1 232 8 is_stmt 0 view .LVU553
 1823 00b0 0028     		cmp	r0, #0
 1824 00b2 37DB     		blt	.L61
ARM GAS  /tmp/ccstZxWH.s 			page 33


 1825              	.LVL85:
 1826              	.L63:
 1827              		.loc 1 228 5 is_stmt 1 view .LVU554
 1828              		.loc 1 231 5 view .LVU555
 1829              	.LBB642:
 1830              	.LBI638:
 1831              		.loc 2 781 21 view .LVU556
 1832              	.LBB640:
 1833              		.loc 2 784 3 view .LVU557
 1834              	.LBE640:
 1835              	.LBE642:
 1836              	.LBE637:
 1837              		.loc 1 227 9 view .LVU558
 1838              		.loc 1 227 10 is_stmt 0 view .LVU559
 1839 00b4 E368     		ldr	r3, [r4, #12]
 1840              	.LBB644:
 1841              	.LBB643:
 1842              	.LBB641:
 1843              		.loc 2 784 10 view .LVU560
 1844 00b6 5946     		mov	r1, fp
 1845 00b8 2046     		mov	r0, r4
 1846              	.LBE641:
 1847              	.LBE643:
 1848              	.LBE644:
 1849              		.loc 1 227 9 view .LVU561
 1850 00ba 002B     		cmp	r3, #0
 1851 00bc F3D0     		beq	.L65
 1852              	.LVL86:
 1853              	.L88:
 1854              	.LBB645:
 1855              	.LBI645:
 1856              		.loc 1 222 9 is_stmt 1 view .LVU562
 1857              	.LBB646:
 1858              		.loc 1 237 3 view .LVU563
 1859              		.loc 1 237 3 view .LVU564
 1860              		.loc 1 237 3 view .LVU565
 1861              		.loc 1 240 3 view .LVU566
 1862              		.loc 1 240 19 is_stmt 0 view .LVU567
 1863 00be 6169     		ldr	r1, [r4, #20]
 1864              		.loc 1 241 25 view .LVU568
 1865 00c0 0A68     		ldr	r2, [r1]
 1866              		.loc 1 240 28 view .LVU569
 1867 00c2 0431     		adds	r1, r1, #4
 1868              		.loc 1 241 25 view .LVU570
 1869 00c4 0A44     		add	r2, r2, r1
 1870              		.loc 1 241 13 view .LVU571
 1871 00c6 C4E90A12 		strd	r1, r2, [r4, #40]
 1872              		.loc 1 243 3 is_stmt 1 view .LVU572
 1873              	.LVL87:
 1874              		.loc 1 243 3 is_stmt 0 view .LVU573
 1875              	.LBE646:
 1876              	.LBE645:
 1877              	.LBE636:
 1878              	.LBE635:
 1879              	.LBE660:
 1880              		.loc 1 396 7 is_stmt 1 view .LVU574
 1881 00ca AFE7     		b	.L58
ARM GAS  /tmp/ccstZxWH.s 			page 34


 1882              	.LVL88:
 1883              	.L66:
 1884              		.loc 1 396 7 is_stmt 0 view .LVU575
 1885              	.LBE715:
 1886              		.loc 1 418 7 is_stmt 1 view .LVU576
 1887 00cc 3046     		mov	r0, r6
 1888 00ce 5A46     		mov	r2, fp
 1889 00d0 FFF7FEFF 		bl	memcpy
 1890              	.LVL89:
 1891              		.loc 1 419 7 view .LVU577
 1892              		.loc 1 420 17 is_stmt 0 view .LVU578
 1893 00d4 A36A     		ldr	r3, [r4, #40]
 1894              		.loc 1 425 8 view .LVU579
 1895 00d6 E26A     		ldr	r2, [r4, #44]
 1896              		.loc 1 420 17 view .LVU580
 1897 00d8 5B44     		add	r3, r3, fp
 1898              		.loc 1 425 8 view .LVU581
 1899 00da 9A42     		cmp	r2, r3
 1900              		.loc 1 419 17 view .LVU582
 1901 00dc 5E44     		add	r6, r6, fp
 1902              	.LVL90:
 1903              		.loc 1 420 7 is_stmt 1 view .LVU583
 1904              		.loc 1 420 17 is_stmt 0 view .LVU584
 1905 00de A362     		str	r3, [r4, #40]
 1906              		.loc 1 421 7 is_stmt 1 view .LVU585
 1907              		.loc 1 421 17 is_stmt 0 view .LVU586
 1908 00e0 5D44     		add	r5, r5, fp
 1909              	.LVL91:
 1910              		.loc 1 425 5 is_stmt 1 view .LVU587
 1911              		.loc 1 425 8 is_stmt 0 view .LVU588
 1912 00e2 CAD8     		bhi	.L70
 1913              	.LVL92:
 1914              	.L89:
 1915              		.loc 1 426 7 is_stmt 1 view .LVU589
 1916              	.LBB716:
 1917              	.LBI685:
 1918              		.loc 1 269 8 view .LVU590
 1919              	.LBB687:
 1920              		.loc 1 271 23 view .LVU591
 1921              		.loc 1 272 3 view .LVU592
 1922              		.loc 1 272 3 view .LVU593
 1923              		.loc 1 272 3 view .LVU594
 1924              		.loc 1 275 3 view .LVU595
 1925              		.loc 1 276 16 is_stmt 0 view .LVU596
 1926 00e4 6369     		ldr	r3, [r4, #20]
 1927 00e6 E169     		ldr	r1, [r4, #28]
 1928              		.loc 1 275 7 view .LVU597
 1929 00e8 E268     		ldr	r2, [r4, #12]
 1930              		.loc 1 282 13 view .LVU598
 1931 00ea C4F82890 		str	r9, [r4, #40]
 1932              		.loc 1 276 16 view .LVU599
 1933 00ee 0B44     		add	r3, r3, r1
 1934              		.loc 1 277 6 view .LVU600
 1935 00f0 A169     		ldr	r1, [r4, #24]
 1936              		.loc 1 276 16 view .LVU601
 1937 00f2 6361     		str	r3, [r4, #20]
 1938              		.loc 1 277 6 view .LVU602
ARM GAS  /tmp/ccstZxWH.s 			page 35


 1939 00f4 8B42     		cmp	r3, r1
 1940              		.loc 1 278 18 view .LVU603
 1941 00f6 24BF     		itt	cs
 1942 00f8 636A     		ldrcs	r3, [r4, #36]
 1943 00fa 6361     		strcs	r3, [r4, #20]
 1944              		.loc 1 285 11 view .LVU604
 1945 00fc 236B     		ldr	r3, [r4, #48]
 1946              		.loc 1 275 17 view .LVU605
 1947 00fe 013A     		subs	r2, r2, #1
 1948 0100 E260     		str	r2, [r4, #12]
 1949              		.loc 1 276 3 is_stmt 1 view .LVU606
 1950              		.loc 1 277 3 view .LVU607
 1951              		.loc 1 278 5 view .LVU608
 1952              		.loc 1 282 3 view .LVU609
 1953              		.loc 1 285 3 view .LVU610
 1954              		.loc 1 285 6 is_stmt 0 view .LVU611
 1955 0102 002B     		cmp	r3, #0
 1956 0104 B9D0     		beq	.L70
 1957              		.loc 1 286 5 is_stmt 1 view .LVU612
 1958 0106 2046     		mov	r0, r4
 1959 0108 9847     		blx	r3
 1960              	.LVL93:
 1961 010a B6E7     		b	.L70
 1962              	.LVL94:
 1963              	.L62:
 1964              		.loc 1 286 5 is_stmt 0 view .LVU613
 1965              	.LBE687:
 1966              	.LBE716:
 1967              	.LBB717:
 1968              	.LBB661:
 1969              	.LBB662:
 1970              	.LBB663:
 1971              		.loc 1 228 8 view .LVU614
 1972 010c 237A     		ldrb	r3, [r4, #8]	@ zero_extendqisi2
 1973 010e 4BB9     		cbnz	r3, .L61
 1974              	.LBB664:
 1975              	.LBB665:
 1976              		.loc 2 784 10 view .LVU615
 1977 0110 FFF7FEFF 		bl	chThdEnqueueTimeoutS
 1978              	.LVL95:
 1979              		.loc 2 784 10 view .LVU616
 1980              	.LBE665:
 1981              	.LBE664:
 1982              		.loc 1 232 5 is_stmt 1 view .LVU617
 1983              		.loc 1 232 8 is_stmt 0 view .LVU618
 1984 0114 0028     		cmp	r0, #0
 1985 0116 05DB     		blt	.L61
 1986              	.LVL96:
 1987              	.L59:
 1988              		.loc 1 228 5 is_stmt 1 view .LVU619
 1989              		.loc 1 231 5 view .LVU620
 1990              	.LBB668:
 1991              	.LBI664:
 1992              		.loc 2 781 21 view .LVU621
 1993              	.LBB666:
 1994              		.loc 2 784 3 view .LVU622
 1995              	.LBE666:
ARM GAS  /tmp/ccstZxWH.s 			page 36


 1996              	.LBE668:
 1997              	.LBE663:
 1998              		.loc 1 227 9 view .LVU623
 1999              		.loc 1 227 10 is_stmt 0 view .LVU624
 2000 0118 E368     		ldr	r3, [r4, #12]
 2001              	.LBB670:
 2002              	.LBB669:
 2003              	.LBB667:
 2004              		.loc 2 784 10 view .LVU625
 2005 011a 4146     		mov	r1, r8
 2006 011c 2046     		mov	r0, r4
 2007              	.LBE667:
 2008              	.LBE669:
 2009              	.LBE670:
 2010              		.loc 1 227 9 view .LVU626
 2011 011e 002B     		cmp	r3, #0
 2012 0120 F4D0     		beq	.L62
 2013              	.LVL97:
 2014              		.loc 1 227 9 view .LVU627
 2015 0122 CCE7     		b	.L88
 2016              	.LVL98:
 2017              	.L61:
 2018              		.loc 1 227 9 view .LVU628
 2019              	.LBE662:
 2020              	.LBE661:
 2021              		.loc 1 396 7 is_stmt 1 view .LVU629
 2022              		.loc 1 397 9 view .LVU630
 2023              	.LBB671:
 2024              	.LBI671:
 2025              		.loc 2 502 20 view .LVU631
 2026              	.LBE671:
 2027              	.LBE717:
 2028              	.LBE732:
 2029              		.loc 2 504 3 view .LVU632
 2030              	.LBB733:
 2031              	.LBB718:
 2032              	.LBB680:
 2033              	.LBB672:
 2034              	.LBI672:
 2035              		.loc 5 386 20 view .LVU633
 2036              	.LBB673:
 2037              		.loc 5 388 22 view .LVU634
 2038              		.loc 5 389 33 view .LVU635
 2039              		.loc 5 395 3 view .LVU636
 2040              		.loc 5 395 3 view .LVU637
 2041              		.loc 5 395 3 view .LVU638
 2042              		.loc 5 399 3 view .LVU639
 2043              	.LBB674:
 2044              	.LBI674:
 2045              		.loc 6 618 20 view .LVU640
 2046              	.LBE674:
 2047              	.LBE673:
 2048              	.LBE672:
 2049              	.LBE680:
 2050              	.LBE718:
 2051              	.LBE733:
 2052              		.loc 6 621 3 view .LVU641
ARM GAS  /tmp/ccstZxWH.s 			page 37


 2053              	.LBB734:
 2054              	.LBB719:
 2055              	.LBB681:
 2056              	.LBB679:
 2057              	.LBB678:
 2058              	.LBB677:
 2059              	.LBB675:
 2060              	.LBI675:
 2061              		.loc 7 262 57 view .LVU642
 2062              	.LBB676:
 2063              		.loc 7 264 3 view .LVU643
 2064 0124 0023     		movs	r3, #0
 2065              		.syntax unified
 2066              	@ 264 "../../../os/common/ext/CMSIS/include/cmsis_gcc.h" 1
 2067 0126 83F31188 		MSR basepri, r3
 2068              	@ 0 "" 2
 2069              	.LVL99:
 2070              		.loc 7 264 3 is_stmt 0 view .LVU644
 2071              		.thumb
 2072              		.syntax unified
 2073              	.LBE676:
 2074              	.LBE675:
 2075              	.LBE677:
 2076              	.LBE678:
 2077              	.LBE679:
 2078              	.LBE681:
 2079              		.loc 1 398 9 is_stmt 1 view .LVU645
 2080              	.L56:
 2081              		.loc 1 398 9 is_stmt 0 view .LVU646
 2082              	.LBE719:
 2083              	.LBE734:
 2084              		.loc 1 436 1 view .LVU647
 2085 012a 2846     		mov	r0, r5
 2086 012c 03B0     		add	sp, sp, #12
 2087              		.cfi_remember_state
 2088              		.cfi_def_cfa_offset 36
 2089              		@ sp needed
 2090 012e BDE8F08F 		pop	{r4, r5, r6, r7, r8, r9, r10, fp, pc}
 2091              	.LVL100:
 2092              	.L91:
 2093              		.cfi_restore_state
 2094              	.LBB735:
 2095              	.LBB720:
 2096              	.LBB682:
 2097              		.loc 1 389 11 is_stmt 1 view .LVU648
 2098              	.LBB647:
 2099              	.LBI647:
 2100              		.loc 2 502 20 view .LVU649
 2101              	.LBE647:
 2102              	.LBE682:
 2103              	.LBE720:
 2104              	.LBE735:
 2105              		.loc 2 504 3 view .LVU650
 2106              	.LBB736:
 2107              	.LBB721:
 2108              	.LBB683:
 2109              	.LBB656:
ARM GAS  /tmp/ccstZxWH.s 			page 38


 2110              	.LBB648:
 2111              	.LBI648:
 2112              		.loc 5 386 20 view .LVU651
 2113              	.LBB649:
 2114              		.loc 5 388 22 view .LVU652
 2115              		.loc 5 389 33 view .LVU653
 2116              		.loc 5 395 3 view .LVU654
 2117              		.loc 5 395 3 view .LVU655
 2118              		.loc 5 395 3 view .LVU656
 2119              		.loc 5 399 3 view .LVU657
 2120              	.LBB650:
 2121              	.LBI650:
 2122              		.loc 6 618 20 view .LVU658
 2123              	.LBE650:
 2124              	.LBE649:
 2125              	.LBE648:
 2126              	.LBE656:
 2127              	.LBE683:
 2128              	.LBE721:
 2129              	.LBE736:
 2130              		.loc 6 621 3 view .LVU659
 2131              	.LBB737:
 2132              	.LBB722:
 2133              	.LBB684:
 2134              	.LBB657:
 2135              	.LBB655:
 2136              	.LBB654:
 2137              	.LBB653:
 2138              	.LBB651:
 2139              	.LBI651:
 2140              		.loc 7 262 57 view .LVU660
 2141              	.LBB652:
 2142              		.loc 7 264 3 view .LVU661
 2143              		.syntax unified
 2144              	@ 264 "../../../os/common/ext/CMSIS/include/cmsis_gcc.h" 1
 2145 0132 81F31188 		MSR basepri, r1
 2146              	@ 0 "" 2
 2147              	.LVL101:
 2148              		.loc 7 264 3 is_stmt 0 view .LVU662
 2149              		.thumb
 2150              		.syntax unified
 2151              	.LBE652:
 2152              	.LBE651:
 2153              	.LBE653:
 2154              	.LBE654:
 2155              	.LBE655:
 2156              	.LBE657:
 2157              		.loc 1 390 11 is_stmt 1 view .LVU663
 2158              	.LBE684:
 2159              	.LBE722:
 2160              	.LBE737:
 2161              		.loc 1 436 1 is_stmt 0 view .LVU664
 2162 0136 2846     		mov	r0, r5
 2163 0138 03B0     		add	sp, sp, #12
 2164              		.cfi_def_cfa_offset 36
 2165              		@ sp needed
 2166 013a BDE8F08F 		pop	{r4, r5, r6, r7, r8, r9, r10, fp, pc}
ARM GAS  /tmp/ccstZxWH.s 			page 39


 2167              		.loc 1 436 1 view .LVU665
 2168              		.cfi_endproc
 2169              	.LFE286:
 2170              		.size	ibqReadTimeout, .-ibqReadTimeout
 2171 013e 00BF     		.section	.text.obqObjectInit,"ax",%progbits
 2172              		.align	1
 2173              		.p2align 4,,15
 2174              		.global	obqObjectInit
 2175              		.syntax unified
 2176              		.thumb
 2177              		.thumb_func
 2178              		.fpu softvfp
 2179              		.type	obqObjectInit, %function
 2180              	obqObjectInit:
 2181              	.LVL102:
 2182              	.LFB287:
 2183              		.loc 1 452 72 is_stmt 1 view -0
 2184              		.cfi_startproc
 2185              		@ args = 12, pretend = 0, frame = 0
 2186              		@ frame_needed = 0, uses_anonymous_args = 0
 2187              		@ link register save eliminated.
 2188              		.loc 1 454 3 view .LVU667
 2189              		.loc 1 454 3 view .LVU668
 2190              		.loc 1 454 3 view .LVU669
 2191              		.loc 1 456 3 view .LVU670
 2192              		.loc 1 452 72 is_stmt 0 view .LVU671
 2193 0000 10B4     		push	{r4}
 2194              		.cfi_def_cfa_offset 4
 2195              		.cfi_offset 4, -4
 2196              		.loc 1 452 72 view .LVU672
 2197 0002 019C     		ldr	r4, [sp, #4]
 2198              	.LVL103:
 2199              	.LBB738:
 2200              	.LBI738:
 2201              		.loc 2 753 20 is_stmt 1 view .LVU673
 2202              	.LBE738:
 2203              		.loc 2 755 3 view .LVU674
 2204              	.LBB746:
 2205              	.LBB739:
 2206              	.LBI739:
 2207              		.loc 3 404 20 view .LVU675
 2208              	.LBE739:
 2209              	.LBE746:
 2210              		.loc 3 406 3 view .LVU676
 2211              	.LBB747:
 2212              	.LBB744:
 2213              	.LBB740:
 2214              	.LBI740:
 2215              		.loc 4 548 20 view .LVU677
 2216              	.LBB741:
 2217              		.loc 4 550 3 view .LVU678
 2218              	.LBE741:
 2219              	.LBE740:
 2220              	.LBE744:
 2221              	.LBE747:
 2222              		.loc 1 457 19 is_stmt 0 view .LVU679
 2223 0004 0172     		strb	r1, [r0, #8]
ARM GAS  /tmp/ccstZxWH.s 			page 40


 2224              		.loc 1 461 33 view .LVU680
 2225 0006 0433     		adds	r3, r3, #4
 2226              	.LVL104:
 2227              		.loc 1 461 24 view .LVU681
 2228 0008 04FB0321 		mla	r1, r4, r3, r2
 2229              	.LVL105:
 2230              		.loc 1 461 19 view .LVU682
 2231 000c 8161     		str	r1, [r0, #24]
 2232              		.loc 1 465 19 view .LVU683
 2233 000e 0021     		movs	r1, #0
 2234              		.loc 1 463 19 view .LVU684
 2235 0010 C0E90734 		strd	r3, r4, [r0, #28]
 2236              		.loc 1 460 19 view .LVU685
 2237 0014 C0E90422 		strd	r2, r2, [r0, #16]
 2238              		.loc 1 465 19 view .LVU686
 2239 0018 C0E90921 		strd	r2, r1, [r0, #36]
 2240              		.loc 1 452 72 view .LVU687
 2241 001c DDE90223 		ldrd	r2, r3, [sp, #8]
 2242              	.LVL106:
 2243              		.loc 1 458 19 view .LVU688
 2244 0020 C460     		str	r4, [r0, #12]
 2245              	.LBB748:
 2246              	.LBB745:
 2247              	.LBB743:
 2248              	.LBB742:
 2249              		.loc 4 551 13 view .LVU689
 2250 0022 C0E90000 		strd	r0, r0, [r0]
 2251              	.LVL107:
 2252              		.loc 4 551 13 view .LVU690
 2253              	.LBE742:
 2254              	.LBE743:
 2255              	.LBE745:
 2256              	.LBE748:
 2257              		.loc 1 457 3 is_stmt 1 view .LVU691
 2258              		.loc 1 458 3 view .LVU692
 2259              		.loc 1 459 3 view .LVU693
 2260              		.loc 1 461 3 view .LVU694
 2261              		.loc 1 462 3 view .LVU695
 2262              		.loc 1 464 3 view .LVU696
 2263              		.loc 1 466 3 view .LVU697
 2264              		.loc 1 468 19 is_stmt 0 view .LVU698
 2265 0026 C0E90C23 		strd	r2, r3, [r0, #48]
 2266              		.loc 1 469 1 view .LVU699
 2267 002a 10BC     		pop	{r4}
 2268              		.cfi_restore 4
 2269              		.cfi_def_cfa_offset 0
 2270              	.LVL108:
 2271              		.loc 1 466 19 view .LVU700
 2272 002c C162     		str	r1, [r0, #44]
 2273              		.loc 1 467 3 is_stmt 1 view .LVU701
 2274              		.loc 1 469 1 is_stmt 0 view .LVU702
 2275 002e 7047     		bx	lr
 2276              		.cfi_endproc
 2277              	.LFE287:
 2278              		.size	obqObjectInit, .-obqObjectInit
 2279              		.section	.text.obqResetI,"ax",%progbits
 2280              		.align	1
ARM GAS  /tmp/ccstZxWH.s 			page 41


 2281              		.p2align 4,,15
 2282              		.global	obqResetI
 2283              		.syntax unified
 2284              		.thumb
 2285              		.thumb_func
 2286              		.fpu softvfp
 2287              		.type	obqResetI, %function
 2288              	obqResetI:
 2289              	.LVL109:
 2290              	.LFB288:
 2291              		.loc 1 482 46 is_stmt 1 view -0
 2292              		.cfi_startproc
 2293              		@ args = 0, pretend = 0, frame = 0
 2294              		@ frame_needed = 0, uses_anonymous_args = 0
 2295              		@ link register save eliminated.
 2296              		.loc 1 484 23 view .LVU704
 2297              		.loc 1 486 3 view .LVU705
 2298              		.loc 1 486 19 is_stmt 0 view .LVU706
 2299 0000 D0E908C1 		ldrd	ip, r1, [r0, #32]
 2300              		.loc 1 489 19 view .LVU707
 2301 0004 0022     		movs	r2, #0
 2302              		.loc 1 488 19 view .LVU708
 2303 0006 C0E90411 		strd	r1, r1, [r0, #16]
 2304              		.loc 1 490 19 view .LVU709
 2305 000a C0E90A22 		strd	r2, r2, [r0, #40]
 2306              		.loc 1 486 19 view .LVU710
 2307 000e C0F80CC0 		str	ip, [r0, #12]
 2308              		.loc 1 487 3 is_stmt 1 view .LVU711
 2309              		.loc 1 489 3 view .LVU712
 2310              		.loc 1 491 3 view .LVU713
 2311              	.LVL110:
 2312              	.LBB749:
 2313              	.LBI749:
 2314              		.loc 2 808 20 view .LVU714
 2315              	.LBB750:
 2316              		.loc 2 810 3 view .LVU715
 2317 0012 6FF00101 		mvn	r1, #1
 2318 0016 FFF7FEBF 		b	chThdDequeueAllI
 2319              	.LVL111:
 2320              		.loc 2 810 3 is_stmt 0 view .LVU716
 2321              	.LBE750:
 2322              	.LBE749:
 2323              		.cfi_endproc
 2324              	.LFE288:
 2325              		.size	obqResetI, .-obqResetI
 2326 001a 00BF     		.section	.text.obqGetFullBufferI,"ax",%progbits
 2327              		.align	1
 2328              		.p2align 4,,15
 2329              		.global	obqGetFullBufferI
 2330              		.syntax unified
 2331              		.thumb
 2332              		.thumb_func
 2333              		.fpu softvfp
 2334              		.type	obqGetFullBufferI, %function
 2335              	obqGetFullBufferI:
 2336              	.LVL112:
 2337              	.LFB289:
ARM GAS  /tmp/ccstZxWH.s 			page 42


 2338              		.loc 1 506 43 is_stmt 1 view -0
 2339              		.cfi_startproc
 2340              		@ args = 0, pretend = 0, frame = 0
 2341              		@ frame_needed = 0, uses_anonymous_args = 0
 2342              		@ link register save eliminated.
 2343              		.loc 1 508 23 view .LVU718
 2344              		.loc 1 510 3 view .LVU719
 2345              		.loc 1 506 43 is_stmt 0 view .LVU720
 2346 0000 0346     		mov	r3, r0
 2347              		.loc 1 510 7 view .LVU721
 2348 0002 D0E90420 		ldrd	r2, r0, [r0, #16]
 2349              	.LVL113:
 2350              		.loc 1 510 7 view .LVU722
 2351 0006 8242     		cmp	r2, r0
 2352 0008 03D0     		beq	.L101
 2353              	.LVL114:
 2354              	.L96:
 2355              		.loc 1 515 3 is_stmt 1 view .LVU723
 2356              		.loc 1 515 12 is_stmt 0 view .LVU724
 2357 000a 50F8043B 		ldr	r3, [r0], #4
 2358              		.loc 1 515 10 view .LVU725
 2359 000e 0B60     		str	r3, [r1]
 2360              		.loc 1 517 3 is_stmt 1 view .LVU726
 2361              		.loc 1 518 1 is_stmt 0 view .LVU727
 2362 0010 7047     		bx	lr
 2363              	.LVL115:
 2364              	.L101:
 2365              		.loc 1 510 7 discriminator 1 view .LVU728
 2366 0012 DB68     		ldr	r3, [r3, #12]
 2367              	.LVL116:
 2368              		.loc 1 510 7 discriminator 1 view .LVU729
 2369 0014 002B     		cmp	r3, #0
 2370 0016 F8D0     		beq	.L96
 2371              		.loc 1 511 12 view .LVU730
 2372 0018 0020     		movs	r0, #0
 2373 001a 7047     		bx	lr
 2374              		.cfi_endproc
 2375              	.LFE289:
 2376              		.size	obqGetFullBufferI, .-obqGetFullBufferI
 2377              		.section	.text.obqReleaseEmptyBufferI,"ax",%progbits
 2378              		.align	1
 2379              		.p2align 4,,15
 2380              		.global	obqReleaseEmptyBufferI
 2381              		.syntax unified
 2382              		.thumb
 2383              		.thumb_func
 2384              		.fpu softvfp
 2385              		.type	obqReleaseEmptyBufferI, %function
 2386              	obqReleaseEmptyBufferI:
 2387              	.LVL117:
 2388              	.LFB290:
 2389              		.loc 1 527 59 is_stmt 1 view -0
 2390              		.cfi_startproc
 2391              		@ args = 0, pretend = 0, frame = 0
 2392              		@ frame_needed = 0, uses_anonymous_args = 0
 2393              		@ link register save eliminated.
 2394              		.loc 1 529 23 view .LVU732
ARM GAS  /tmp/ccstZxWH.s 			page 43


 2395              		.loc 1 530 3 view .LVU733
 2396              		.loc 1 530 3 view .LVU734
 2397              		.loc 1 530 3 view .LVU735
 2398              		.loc 1 533 3 view .LVU736
 2399              		.loc 1 535 6 is_stmt 0 view .LVU737
 2400 0000 D0E90531 		ldrd	r3, r1, [r0, #20]
 2401              		.loc 1 534 16 view .LVU738
 2402 0004 D0F81CC0 		ldr	ip, [r0, #28]
 2403              		.loc 1 533 7 view .LVU739
 2404 0008 C268     		ldr	r2, [r0, #12]
 2405              		.loc 1 534 16 view .LVU740
 2406 000a 6344     		add	r3, r3, ip
 2407              		.loc 1 535 6 view .LVU741
 2408 000c 8B42     		cmp	r3, r1
 2409              		.loc 1 534 16 view .LVU742
 2410 000e 4361     		str	r3, [r0, #20]
 2411              		.loc 1 533 17 view .LVU743
 2412 0010 02F10102 		add	r2, r2, #1
 2413              		.loc 1 536 18 view .LVU744
 2414 0014 28BF     		it	cs
 2415 0016 436A     		ldrcs	r3, [r0, #36]
 2416              		.loc 1 533 17 view .LVU745
 2417 0018 C260     		str	r2, [r0, #12]
 2418              		.loc 1 534 3 is_stmt 1 view .LVU746
 2419              		.loc 1 535 3 view .LVU747
 2420              		.loc 1 536 5 view .LVU748
 2421              		.loc 1 536 18 is_stmt 0 view .LVU749
 2422 001a 28BF     		it	cs
 2423 001c 4361     		strcs	r3, [r0, #20]
 2424              		.loc 1 540 3 is_stmt 1 view .LVU750
 2425              	.LVL118:
 2426              	.LBB751:
 2427              	.LBI751:
 2428              		.loc 2 795 20 view .LVU751
 2429              	.LBB752:
 2430              		.loc 2 797 3 view .LVU752
 2431 001e 0021     		movs	r1, #0
 2432 0020 FFF7FEBF 		b	chThdDequeueNextI
 2433              	.LVL119:
 2434              		.loc 2 797 3 is_stmt 0 view .LVU753
 2435              	.LBE752:
 2436              	.LBE751:
 2437              		.cfi_endproc
 2438              	.LFE290:
 2439              		.size	obqReleaseEmptyBufferI, .-obqReleaseEmptyBufferI
 2440              		.section	.text.obqGetEmptyBufferTimeout,"ax",%progbits
 2441              		.align	1
 2442              		.p2align 4,,15
 2443              		.global	obqGetEmptyBufferTimeout
 2444              		.syntax unified
 2445              		.thumb
 2446              		.thumb_func
 2447              		.fpu softvfp
 2448              		.type	obqGetEmptyBufferTimeout, %function
 2449              	obqGetEmptyBufferTimeout:
 2450              	.LVL120:
 2451              	.LFB291:
ARM GAS  /tmp/ccstZxWH.s 			page 44


 2452              		.loc 1 565 52 is_stmt 1 view -0
 2453              		.cfi_startproc
 2454              		@ args = 0, pretend = 0, frame = 0
 2455              		@ frame_needed = 0, uses_anonymous_args = 0
 2456              		.loc 1 565 52 is_stmt 0 view .LVU755
 2457 0000 38B5     		push	{r3, r4, r5, lr}
 2458              		.cfi_def_cfa_offset 16
 2459              		.cfi_offset 3, -16
 2460              		.cfi_offset 4, -12
 2461              		.cfi_offset 5, -8
 2462              		.cfi_offset 14, -4
 2463              		.loc 1 565 52 view .LVU756
 2464 0002 0446     		mov	r4, r0
 2465              		.loc 1 566 3 is_stmt 1 view .LVU757
 2466              		.loc 1 568 3 view .LVU758
 2467              	.LBB774:
 2468              	.LBI774:
 2469              		.loc 2 491 20 view .LVU759
 2470              	.LBE774:
 2471              		.loc 2 493 3 view .LVU760
 2472              	.LBB786:
 2473              	.LBB775:
 2474              	.LBI775:
 2475              		.loc 5 374 20 view .LVU761
 2476              	.LBE775:
 2477              	.LBE786:
 2478              		.loc 5 376 3 view .LVU762
 2479              	.LBB787:
 2480              	.LBB783:
 2481              	.LBB776:
 2482              	.LBI776:
 2483              		.loc 6 594 20 view .LVU763
 2484              	.LBE776:
 2485              	.LBE783:
 2486              	.LBE787:
 2487              		.loc 6 602 3 view .LVU764
 2488              	.LVL121:
 2489              	.LBB788:
 2490              	.LBB784:
 2491              	.LBB781:
 2492              	.LBB777:
 2493              	.LBI777:
 2494              		.loc 7 262 57 view .LVU765
 2495              	.LBB778:
 2496              		.loc 7 264 3 view .LVU766
 2497              	.LBE778:
 2498              	.LBE777:
 2499              	.LBE781:
 2500              	.LBE784:
 2501              	.LBE788:
 2502              		.loc 1 565 52 is_stmt 0 view .LVU767
 2503 0004 0D46     		mov	r5, r1
 2504              	.LBB789:
 2505              	.LBB785:
 2506              	.LBB782:
 2507              	.LBB780:
 2508              	.LBB779:
ARM GAS  /tmp/ccstZxWH.s 			page 45


 2509              		.loc 7 264 3 view .LVU768
 2510 0006 2023     		movs	r3, #32
 2511              		.syntax unified
 2512              	@ 264 "../../../os/common/ext/CMSIS/include/cmsis_gcc.h" 1
 2513 0008 83F31188 		MSR basepri, r3
 2514              	@ 0 "" 2
 2515              	.LVL122:
 2516              		.loc 7 264 3 view .LVU769
 2517              		.thumb
 2518              		.syntax unified
 2519              	.LBE779:
 2520              	.LBE780:
 2521              	.LBE782:
 2522              	.LBE785:
 2523              	.LBE789:
 2524              		.loc 5 377 34 is_stmt 1 view .LVU770
 2525              		.loc 5 378 20 view .LVU771
 2526              		.loc 1 569 3 view .LVU772
 2527              	.LBB790:
 2528              	.LBI790:
 2529              		.loc 1 596 7 view .LVU773
 2530              	.LBB791:
 2531              		.loc 1 599 23 view .LVU774
 2532              		.loc 1 601 3 view .LVU775
 2533              		.loc 1 601 9 is_stmt 0 view .LVU776
 2534 000c 05E0     		b	.L105
 2535              	.LVL123:
 2536              	.L107:
 2537              	.LBB792:
 2538              		.loc 1 602 8 view .LVU777
 2539 000e 237A     		ldrb	r3, [r4, #8]	@ zero_extendqisi2
 2540 0010 9BB9     		cbnz	r3, .L108
 2541              	.LBB793:
 2542              	.LBB794:
 2543              		.loc 2 784 10 view .LVU778
 2544 0012 FFF7FEFF 		bl	chThdEnqueueTimeoutS
 2545              	.LVL124:
 2546              		.loc 2 784 10 view .LVU779
 2547              	.LBE794:
 2548              	.LBE793:
 2549              		.loc 1 606 5 is_stmt 1 view .LVU780
 2550              		.loc 1 606 8 is_stmt 0 view .LVU781
 2551 0016 0028     		cmp	r0, #0
 2552              		.loc 1 606 8 view .LVU782
 2553 0018 0BDB     		blt	.L106
 2554              	.LVL125:
 2555              	.L105:
 2556              		.loc 1 602 5 is_stmt 1 view .LVU783
 2557              		.loc 1 605 5 view .LVU784
 2558              	.LBB797:
 2559              	.LBI793:
 2560              		.loc 2 781 21 view .LVU785
 2561              	.LBB795:
 2562              		.loc 2 784 3 view .LVU786
 2563              	.LBE795:
 2564              	.LBE797:
 2565              	.LBE792:
ARM GAS  /tmp/ccstZxWH.s 			page 46


 2566              		.loc 1 601 9 view .LVU787
 2567              		.loc 1 601 10 is_stmt 0 view .LVU788
 2568 001a E368     		ldr	r3, [r4, #12]
 2569              	.LBB799:
 2570              	.LBB798:
 2571              	.LBB796:
 2572              		.loc 2 784 10 view .LVU789
 2573 001c 2946     		mov	r1, r5
 2574 001e 2046     		mov	r0, r4
 2575              	.LBE796:
 2576              	.LBE798:
 2577              	.LBE799:
 2578              		.loc 1 601 9 view .LVU790
 2579 0020 002B     		cmp	r3, #0
 2580 0022 F4D0     		beq	.L107
 2581              	.LVL126:
 2582              	.LBB800:
 2583              	.LBI800:
 2584              		.loc 1 596 7 is_stmt 1 view .LVU791
 2585              	.LBB801:
 2586              		.loc 1 611 3 view .LVU792
 2587              		.loc 1 611 3 view .LVU793
 2588              		.loc 1 611 3 view .LVU794
 2589              		.loc 1 614 3 view .LVU795
 2590              		.loc 1 614 19 is_stmt 0 view .LVU796
 2591 0024 2369     		ldr	r3, [r4, #16]
 2592              		.loc 1 615 28 view .LVU797
 2593 0026 E169     		ldr	r1, [r4, #28]
 2594              	.LVL127:
 2595              		.loc 1 614 28 view .LVU798
 2596 0028 1A1D     		adds	r2, r3, #4
 2597              		.loc 1 615 28 view .LVU799
 2598 002a 0B44     		add	r3, r3, r1
 2599              		.loc 1 615 13 view .LVU800
 2600 002c C4E90A23 		strd	r2, r3, [r4, #40]
 2601              		.loc 1 617 3 is_stmt 1 view .LVU801
 2602              	.LVL128:
 2603              		.loc 1 615 13 is_stmt 0 view .LVU802
 2604 0030 0020     		movs	r0, #0
 2605              	.LVL129:
 2606              	.L106:
 2607              		.loc 1 615 13 view .LVU803
 2608              	.LBE801:
 2609              	.LBE800:
 2610              	.LBE791:
 2611              	.LBE790:
 2612              		.loc 1 570 3 is_stmt 1 view .LVU804
 2613              	.LBB804:
 2614              	.LBI804:
 2615              		.loc 2 502 20 view .LVU805
 2616              	.LBE804:
 2617              		.loc 2 504 3 view .LVU806
 2618              	.LBB821:
 2619              	.LBB805:
 2620              	.LBI805:
 2621              		.loc 5 386 20 view .LVU807
 2622              	.LBB806:
ARM GAS  /tmp/ccstZxWH.s 			page 47


 2623              		.loc 5 388 22 view .LVU808
 2624              		.loc 5 389 33 view .LVU809
 2625              		.loc 5 395 3 view .LVU810
 2626              		.loc 5 395 3 view .LVU811
 2627              		.loc 5 395 3 view .LVU812
 2628              		.loc 5 399 3 view .LVU813
 2629              	.LBB807:
 2630              	.LBI807:
 2631              		.loc 6 618 20 view .LVU814
 2632              	.LBE807:
 2633              	.LBE806:
 2634              	.LBE805:
 2635              	.LBE821:
 2636              		.loc 6 621 3 view .LVU815
 2637              	.LBB822:
 2638              	.LBB818:
 2639              	.LBB815:
 2640              	.LBB812:
 2641              	.LBB808:
 2642              	.LBI808:
 2643              		.loc 7 262 57 view .LVU816
 2644              	.LBB809:
 2645              		.loc 7 264 3 view .LVU817
 2646 0032 0023     		movs	r3, #0
 2647              		.syntax unified
 2648              	@ 264 "../../../os/common/ext/CMSIS/include/cmsis_gcc.h" 1
 2649 0034 83F31188 		MSR basepri, r3
 2650              	@ 0 "" 2
 2651              	.LVL130:
 2652              		.loc 7 264 3 is_stmt 0 view .LVU818
 2653              		.thumb
 2654              		.syntax unified
 2655              	.LBE809:
 2656              	.LBE808:
 2657              	.LBE812:
 2658              	.LBE815:
 2659              	.LBE818:
 2660              	.LBE822:
 2661              		.loc 1 572 3 is_stmt 1 view .LVU819
 2662              		.loc 1 573 1 is_stmt 0 view .LVU820
 2663 0038 38BD     		pop	{r3, r4, r5, pc}
 2664              	.LVL131:
 2665              	.L108:
 2666              	.LBB823:
 2667              	.LBB803:
 2668              	.LBB802:
 2669              		.loc 1 603 14 view .LVU821
 2670 003a 6FF00100 		mvn	r0, #1
 2671              	.LVL132:
 2672              		.loc 1 603 14 view .LVU822
 2673              	.LBE802:
 2674              	.LBE803:
 2675              	.LBE823:
 2676              		.loc 1 570 3 is_stmt 1 view .LVU823
 2677              	.LBB824:
 2678              		.loc 2 502 20 view .LVU824
 2679              	.LBE824:
ARM GAS  /tmp/ccstZxWH.s 			page 48


 2680              		.loc 2 504 3 view .LVU825
 2681              	.LBB825:
 2682              	.LBB819:
 2683              		.loc 5 386 20 view .LVU826
 2684              	.LBB816:
 2685              		.loc 5 388 22 view .LVU827
 2686              		.loc 5 389 33 view .LVU828
 2687              		.loc 5 395 3 view .LVU829
 2688              		.loc 5 395 3 view .LVU830
 2689              		.loc 5 395 3 view .LVU831
 2690              		.loc 5 399 3 view .LVU832
 2691              	.LBB813:
 2692              		.loc 6 618 20 view .LVU833
 2693              	.LBE813:
 2694              	.LBE816:
 2695              	.LBE819:
 2696              	.LBE825:
 2697              		.loc 6 621 3 view .LVU834
 2698              	.LBB826:
 2699              	.LBB820:
 2700              	.LBB817:
 2701              	.LBB814:
 2702              	.LBB811:
 2703              		.loc 7 262 57 view .LVU835
 2704              	.LBB810:
 2705              		.loc 7 264 3 view .LVU836
 2706 003e 0023     		movs	r3, #0
 2707              		.syntax unified
 2708              	@ 264 "../../../os/common/ext/CMSIS/include/cmsis_gcc.h" 1
 2709 0040 83F31188 		MSR basepri, r3
 2710              	@ 0 "" 2
 2711              	.LVL133:
 2712              		.loc 7 264 3 is_stmt 0 view .LVU837
 2713              		.thumb
 2714              		.syntax unified
 2715              	.LBE810:
 2716              	.LBE811:
 2717              	.LBE814:
 2718              	.LBE817:
 2719              	.LBE820:
 2720              	.LBE826:
 2721              		.loc 1 572 3 is_stmt 1 view .LVU838
 2722              		.loc 1 573 1 is_stmt 0 view .LVU839
 2723 0044 38BD     		pop	{r3, r4, r5, pc}
 2724              		.loc 1 573 1 view .LVU840
 2725              		.cfi_endproc
 2726              	.LFE291:
 2727              		.size	obqGetEmptyBufferTimeout, .-obqGetEmptyBufferTimeout
 2728 0046 00BF     		.section	.text.obqGetEmptyBufferTimeoutS,"ax",%progbits
 2729              		.align	1
 2730              		.p2align 4,,15
 2731              		.global	obqGetEmptyBufferTimeoutS
 2732              		.syntax unified
 2733              		.thumb
 2734              		.thumb_func
 2735              		.fpu softvfp
 2736              		.type	obqGetEmptyBufferTimeoutS, %function
ARM GAS  /tmp/ccstZxWH.s 			page 49


 2737              	obqGetEmptyBufferTimeoutS:
 2738              	.LVL134:
 2739              	.LFB292:
 2740              		.loc 1 597 52 is_stmt 1 view -0
 2741              		.cfi_startproc
 2742              		@ args = 0, pretend = 0, frame = 0
 2743              		@ frame_needed = 0, uses_anonymous_args = 0
 2744              		.loc 1 597 52 is_stmt 0 view .LVU842
 2745 0000 38B5     		push	{r3, r4, r5, lr}
 2746              		.cfi_def_cfa_offset 16
 2747              		.cfi_offset 3, -16
 2748              		.cfi_offset 4, -12
 2749              		.cfi_offset 5, -8
 2750              		.cfi_offset 14, -4
 2751              		.loc 1 597 52 view .LVU843
 2752 0002 0446     		mov	r4, r0
 2753              		.loc 1 599 23 is_stmt 1 view .LVU844
 2754              		.loc 1 601 3 view .LVU845
 2755              		.loc 1 597 52 is_stmt 0 view .LVU846
 2756 0004 0D46     		mov	r5, r1
 2757              		.loc 1 601 9 view .LVU847
 2758 0006 05E0     		b	.L111
 2759              	.LVL135:
 2760              	.L113:
 2761              	.LBB838:
 2762              		.loc 1 602 8 view .LVU848
 2763 0008 237A     		ldrb	r3, [r4, #8]	@ zero_extendqisi2
 2764 000a 83B9     		cbnz	r3, .L114
 2765              	.LBB839:
 2766              	.LBB840:
 2767              		.loc 2 784 10 view .LVU849
 2768 000c FFF7FEFF 		bl	chThdEnqueueTimeoutS
 2769              	.LVL136:
 2770              		.loc 2 784 10 view .LVU850
 2771              	.LBE840:
 2772              	.LBE839:
 2773              		.loc 1 606 5 is_stmt 1 view .LVU851
 2774              		.loc 1 606 8 is_stmt 0 view .LVU852
 2775 0010 0028     		cmp	r0, #0
 2776              		.loc 1 606 8 view .LVU853
 2777 0012 0BDB     		blt	.L110
 2778              	.LVL137:
 2779              	.L111:
 2780              		.loc 1 602 5 is_stmt 1 view .LVU854
 2781              		.loc 1 605 5 view .LVU855
 2782              	.LBB843:
 2783              	.LBI839:
 2784              		.loc 2 781 21 view .LVU856
 2785              	.LBB841:
 2786              		.loc 2 784 3 view .LVU857
 2787              	.LBE841:
 2788              	.LBE843:
 2789              	.LBE838:
 2790              		.loc 1 601 9 view .LVU858
 2791              		.loc 1 601 10 is_stmt 0 view .LVU859
 2792 0014 E368     		ldr	r3, [r4, #12]
 2793              	.LBB845:
ARM GAS  /tmp/ccstZxWH.s 			page 50


 2794              	.LBB844:
 2795              	.LBB842:
 2796              		.loc 2 784 10 view .LVU860
 2797 0016 2946     		mov	r1, r5
 2798 0018 2046     		mov	r0, r4
 2799              	.LBE842:
 2800              	.LBE844:
 2801              	.LBE845:
 2802              		.loc 1 601 9 view .LVU861
 2803 001a 002B     		cmp	r3, #0
 2804 001c F4D0     		beq	.L113
 2805              	.LVL138:
 2806              	.LBB846:
 2807              	.LBI846:
 2808              		.loc 1 596 7 is_stmt 1 view .LVU862
 2809              	.LBB847:
 2810              		.loc 1 611 3 view .LVU863
 2811              		.loc 1 611 3 view .LVU864
 2812              		.loc 1 611 3 view .LVU865
 2813              		.loc 1 614 3 view .LVU866
 2814              		.loc 1 614 19 is_stmt 0 view .LVU867
 2815 001e 2369     		ldr	r3, [r4, #16]
 2816              		.loc 1 615 28 view .LVU868
 2817 0020 E169     		ldr	r1, [r4, #28]
 2818              	.LVL139:
 2819              		.loc 1 614 28 view .LVU869
 2820 0022 1A1D     		adds	r2, r3, #4
 2821              		.loc 1 615 28 view .LVU870
 2822 0024 0B44     		add	r3, r3, r1
 2823              		.loc 1 615 13 view .LVU871
 2824 0026 C4E90A23 		strd	r2, r3, [r4, #40]
 2825              		.loc 1 617 3 is_stmt 1 view .LVU872
 2826              	.LVL140:
 2827              		.loc 1 615 13 is_stmt 0 view .LVU873
 2828 002a 0020     		movs	r0, #0
 2829              	.LVL141:
 2830              	.L110:
 2831              		.loc 1 615 13 view .LVU874
 2832              	.LBE847:
 2833              	.LBE846:
 2834              		.loc 1 618 1 view .LVU875
 2835 002c 38BD     		pop	{r3, r4, r5, pc}
 2836              	.LVL142:
 2837              	.L114:
 2838              	.LBB848:
 2839              		.loc 1 603 14 view .LVU876
 2840 002e 6FF00100 		mvn	r0, #1
 2841              	.LVL143:
 2842              		.loc 1 603 14 view .LVU877
 2843              	.LBE848:
 2844              		.loc 1 618 1 view .LVU878
 2845 0032 38BD     		pop	{r3, r4, r5, pc}
 2846              		.loc 1 618 1 view .LVU879
 2847              		.cfi_endproc
 2848              	.LFE292:
 2849              		.size	obqGetEmptyBufferTimeoutS, .-obqGetEmptyBufferTimeoutS
 2850              		.section	.text.obqPostFullBuffer,"ax",%progbits
ARM GAS  /tmp/ccstZxWH.s 			page 51


 2851              		.align	1
 2852              		.p2align 4,,15
 2853              		.global	obqPostFullBuffer
 2854              		.syntax unified
 2855              		.thumb
 2856              		.thumb_func
 2857              		.fpu softvfp
 2858              		.type	obqPostFullBuffer, %function
 2859              	obqPostFullBuffer:
 2860              	.LVL144:
 2861              	.LFB293:
 2862              		.loc 1 629 67 is_stmt 1 view -0
 2863              		.cfi_startproc
 2864              		@ args = 0, pretend = 0, frame = 0
 2865              		@ frame_needed = 0, uses_anonymous_args = 0
 2866              		.loc 1 631 3 view .LVU881
 2867              	.LBB862:
 2868              	.LBI862:
 2869              		.loc 2 491 20 view .LVU882
 2870              	.LBE862:
 2871              		.loc 2 493 3 view .LVU883
 2872              	.LBB874:
 2873              	.LBB863:
 2874              	.LBI863:
 2875              		.loc 5 374 20 view .LVU884
 2876              	.LBE863:
 2877              	.LBE874:
 2878              		.loc 5 376 3 view .LVU885
 2879              	.LBB875:
 2880              	.LBB871:
 2881              	.LBB864:
 2882              	.LBI864:
 2883              		.loc 6 594 20 view .LVU886
 2884              	.LBE864:
 2885              	.LBE871:
 2886              	.LBE875:
 2887              		.loc 6 602 3 view .LVU887
 2888              	.LBB876:
 2889              	.LBB872:
 2890              	.LBB869:
 2891              	.LBB865:
 2892              	.LBI865:
 2893              		.loc 7 262 57 view .LVU888
 2894              	.LBB866:
 2895              		.loc 7 264 3 view .LVU889
 2896              	.LBE866:
 2897              	.LBE865:
 2898              	.LBE869:
 2899              	.LBE872:
 2900              	.LBE876:
 2901              		.loc 1 629 67 is_stmt 0 view .LVU890
 2902 0000 10B5     		push	{r4, lr}
 2903              		.cfi_def_cfa_offset 8
 2904              		.cfi_offset 4, -8
 2905              		.cfi_offset 14, -4
 2906              	.LBB877:
 2907              	.LBB873:
ARM GAS  /tmp/ccstZxWH.s 			page 52


 2908              	.LBB870:
 2909              	.LBB868:
 2910              	.LBB867:
 2911              		.loc 7 264 3 view .LVU891
 2912 0002 2023     		movs	r3, #32
 2913              		.syntax unified
 2914              	@ 264 "../../../os/common/ext/CMSIS/include/cmsis_gcc.h" 1
 2915 0004 83F31188 		MSR basepri, r3
 2916              	@ 0 "" 2
 2917              	.LVL145:
 2918              		.loc 7 264 3 view .LVU892
 2919              		.thumb
 2920              		.syntax unified
 2921              	.LBE867:
 2922              	.LBE868:
 2923              	.LBE870:
 2924              	.LBE873:
 2925              	.LBE877:
 2926              		.loc 5 377 34 is_stmt 1 view .LVU893
 2927              		.loc 5 378 20 view .LVU894
 2928              		.loc 1 632 3 view .LVU895
 2929              	.LBB878:
 2930              	.LBI878:
 2931              		.loc 1 645 6 view .LVU896
 2932              	.LBB879:
 2933              		.loc 1 647 23 view .LVU897
 2934              		.loc 1 648 3 view .LVU898
 2935              		.loc 1 648 3 view .LVU899
 2936              		.loc 1 648 3 view .LVU900
 2937              		.loc 1 649 3 view .LVU901
 2938              		.loc 1 649 3 view .LVU902
 2939              		.loc 1 649 3 view .LVU903
 2940              		.loc 1 652 3 view .LVU904
 2941              		.loc 1 652 19 is_stmt 0 view .LVU905
 2942 0008 0369     		ldr	r3, [r0, #16]
 2943              		.loc 1 657 6 view .LVU906
 2944 000a 8469     		ldr	r4, [r0, #24]
 2945              		.loc 1 652 29 view .LVU907
 2946 000c 1960     		str	r1, [r3]
 2947              		.loc 1 655 3 is_stmt 1 view .LVU908
 2948              		.loc 1 656 16 is_stmt 0 view .LVU909
 2949 000e C169     		ldr	r1, [r0, #28]
 2950              	.LVL146:
 2951              		.loc 1 655 7 view .LVU910
 2952 0010 C268     		ldr	r2, [r0, #12]
 2953              		.loc 1 656 16 view .LVU911
 2954 0012 0B44     		add	r3, r3, r1
 2955              	.LVL147:
 2956              		.loc 1 657 6 view .LVU912
 2957 0014 A342     		cmp	r3, r4
 2958              		.loc 1 656 16 view .LVU913
 2959 0016 0361     		str	r3, [r0, #16]
 2960              	.LVL148:
 2961              		.loc 1 658 18 view .LVU914
 2962 0018 24BF     		itt	cs
 2963 001a 436A     		ldrcs	r3, [r0, #36]
 2964 001c 0361     		strcs	r3, [r0, #16]
ARM GAS  /tmp/ccstZxWH.s 			page 53


 2965              		.loc 1 655 17 view .LVU915
 2966 001e 013A     		subs	r2, r2, #1
 2967              		.loc 1 665 11 view .LVU916
 2968 0020 036B     		ldr	r3, [r0, #48]
 2969              		.loc 1 655 17 view .LVU917
 2970 0022 C260     		str	r2, [r0, #12]
 2971              		.loc 1 656 3 is_stmt 1 view .LVU918
 2972              		.loc 1 657 3 view .LVU919
 2973              		.loc 1 658 5 view .LVU920
 2974              		.loc 1 662 3 view .LVU921
 2975              		.loc 1 662 13 is_stmt 0 view .LVU922
 2976 0024 0022     		movs	r2, #0
 2977 0026 8262     		str	r2, [r0, #40]
 2978              		.loc 1 665 3 is_stmt 1 view .LVU923
 2979              		.loc 1 665 6 is_stmt 0 view .LVU924
 2980 0028 03B1     		cbz	r3, .L118
 2981              		.loc 1 666 5 is_stmt 1 view .LVU925
 2982 002a 9847     		blx	r3
 2983              	.LVL149:
 2984              	.L118:
 2985              		.loc 1 666 5 is_stmt 0 view .LVU926
 2986              	.LBE879:
 2987              	.LBE878:
 2988              		.loc 1 633 3 is_stmt 1 view .LVU927
 2989              	.LBB880:
 2990              	.LBI880:
 2991              		.loc 2 502 20 view .LVU928
 2992              	.LBE880:
 2993              		.loc 2 504 3 view .LVU929
 2994              	.LBB889:
 2995              	.LBB881:
 2996              	.LBI881:
 2997              		.loc 5 386 20 view .LVU930
 2998              	.LBB882:
 2999              		.loc 5 388 22 view .LVU931
 3000              		.loc 5 389 33 view .LVU932
 3001              		.loc 5 395 3 view .LVU933
 3002              		.loc 5 395 3 view .LVU934
 3003              		.loc 5 395 3 view .LVU935
 3004              		.loc 5 399 3 view .LVU936
 3005              	.LBB883:
 3006              	.LBI883:
 3007              		.loc 6 618 20 view .LVU937
 3008              	.LBE883:
 3009              	.LBE882:
 3010              	.LBE881:
 3011              	.LBE889:
 3012              		.loc 6 621 3 view .LVU938
 3013              	.LBB890:
 3014              	.LBB888:
 3015              	.LBB887:
 3016              	.LBB886:
 3017              	.LBB884:
 3018              	.LBI884:
 3019              		.loc 7 262 57 view .LVU939
 3020              	.LBB885:
 3021              		.loc 7 264 3 view .LVU940
ARM GAS  /tmp/ccstZxWH.s 			page 54


 3022 002c 0023     		movs	r3, #0
 3023              		.syntax unified
 3024              	@ 264 "../../../os/common/ext/CMSIS/include/cmsis_gcc.h" 1
 3025 002e 83F31188 		MSR basepri, r3
 3026              	@ 0 "" 2
 3027              	.LVL150:
 3028              		.loc 7 264 3 is_stmt 0 view .LVU941
 3029              		.thumb
 3030              		.syntax unified
 3031              	.LBE885:
 3032              	.LBE884:
 3033              	.LBE886:
 3034              	.LBE887:
 3035              	.LBE888:
 3036              	.LBE890:
 3037              		.loc 1 634 1 view .LVU942
 3038 0032 10BD     		pop	{r4, pc}
 3039              		.cfi_endproc
 3040              	.LFE293:
 3041              		.size	obqPostFullBuffer, .-obqPostFullBuffer
 3042              		.section	.text.obqPostFullBufferS,"ax",%progbits
 3043              		.align	1
 3044              		.p2align 4,,15
 3045              		.global	obqPostFullBufferS
 3046              		.syntax unified
 3047              		.thumb
 3048              		.thumb_func
 3049              		.fpu softvfp
 3050              		.type	obqPostFullBufferS, %function
 3051              	obqPostFullBufferS:
 3052              	.LVL151:
 3053              	.LFB294:
 3054              		.loc 1 645 68 is_stmt 1 view -0
 3055              		.cfi_startproc
 3056              		@ args = 0, pretend = 0, frame = 0
 3057              		@ frame_needed = 0, uses_anonymous_args = 0
 3058              		@ link register save eliminated.
 3059              		.loc 1 647 23 view .LVU944
 3060              		.loc 1 648 3 view .LVU945
 3061              		.loc 1 648 3 view .LVU946
 3062              		.loc 1 648 3 view .LVU947
 3063              		.loc 1 649 3 view .LVU948
 3064              		.loc 1 649 3 view .LVU949
 3065              		.loc 1 649 3 view .LVU950
 3066              		.loc 1 652 3 view .LVU951
 3067              		.loc 1 652 19 is_stmt 0 view .LVU952
 3068 0000 0369     		ldr	r3, [r0, #16]
 3069              		.loc 1 645 68 view .LVU953
 3070 0002 10B4     		push	{r4}
 3071              		.cfi_def_cfa_offset 4
 3072              		.cfi_offset 4, -4
 3073              		.loc 1 657 6 view .LVU954
 3074 0004 8469     		ldr	r4, [r0, #24]
 3075              		.loc 1 652 29 view .LVU955
 3076 0006 1960     		str	r1, [r3]
 3077              		.loc 1 655 3 is_stmt 1 view .LVU956
 3078              		.loc 1 656 16 is_stmt 0 view .LVU957
ARM GAS  /tmp/ccstZxWH.s 			page 55


 3079 0008 C169     		ldr	r1, [r0, #28]
 3080              	.LVL152:
 3081              		.loc 1 655 7 view .LVU958
 3082 000a C268     		ldr	r2, [r0, #12]
 3083              		.loc 1 656 16 view .LVU959
 3084 000c 0B44     		add	r3, r3, r1
 3085              	.LVL153:
 3086              		.loc 1 657 6 view .LVU960
 3087 000e A342     		cmp	r3, r4
 3088              		.loc 1 656 16 view .LVU961
 3089 0010 0361     		str	r3, [r0, #16]
 3090              	.LVL154:
 3091              		.loc 1 658 18 view .LVU962
 3092 0012 24BF     		itt	cs
 3093 0014 436A     		ldrcs	r3, [r0, #36]
 3094 0016 0361     		strcs	r3, [r0, #16]
 3095              		.loc 1 655 17 view .LVU963
 3096 0018 013A     		subs	r2, r2, #1
 3097              		.loc 1 665 11 view .LVU964
 3098 001a 036B     		ldr	r3, [r0, #48]
 3099              		.loc 1 655 17 view .LVU965
 3100 001c C260     		str	r2, [r0, #12]
 3101              		.loc 1 656 3 is_stmt 1 view .LVU966
 3102              		.loc 1 657 3 view .LVU967
 3103              		.loc 1 658 5 view .LVU968
 3104              		.loc 1 662 3 view .LVU969
 3105              		.loc 1 662 13 is_stmt 0 view .LVU970
 3106 001e 0022     		movs	r2, #0
 3107 0020 8262     		str	r2, [r0, #40]
 3108              		.loc 1 665 3 is_stmt 1 view .LVU971
 3109              		.loc 1 665 6 is_stmt 0 view .LVU972
 3110 0022 0BB1     		cbz	r3, .L123
 3111              		.loc 1 666 5 is_stmt 1 view .LVU973
 3112              		.loc 1 668 1 is_stmt 0 view .LVU974
 3113 0024 10BC     		pop	{r4}
 3114              		.cfi_remember_state
 3115              		.cfi_restore 4
 3116              		.cfi_def_cfa_offset 0
 3117              		.loc 1 666 5 view .LVU975
 3118 0026 1847     		bx	r3	@ indirect register sibling call
 3119              	.LVL155:
 3120              	.L123:
 3121              		.cfi_restore_state
 3122              		.loc 1 668 1 view .LVU976
 3123 0028 10BC     		pop	{r4}
 3124              		.cfi_restore 4
 3125              		.cfi_def_cfa_offset 0
 3126 002a 7047     		bx	lr
 3127              		.cfi_endproc
 3128              	.LFE294:
 3129              		.size	obqPostFullBufferS, .-obqPostFullBufferS
 3130              		.section	.text.obqPutTimeout,"ax",%progbits
 3131              		.align	1
 3132              		.p2align 4,,15
 3133              		.global	obqPutTimeout
 3134              		.syntax unified
 3135              		.thumb
ARM GAS  /tmp/ccstZxWH.s 			page 56


 3136              		.thumb_func
 3137              		.fpu softvfp
 3138              		.type	obqPutTimeout, %function
 3139              	obqPutTimeout:
 3140              	.LVL156:
 3141              	.LFB295:
 3142              		.loc 1 691 40 is_stmt 1 view -0
 3143              		.cfi_startproc
 3144              		@ args = 0, pretend = 0, frame = 0
 3145              		@ frame_needed = 0, uses_anonymous_args = 0
 3146              		.loc 1 691 40 is_stmt 0 view .LVU978
 3147 0000 70B5     		push	{r4, r5, r6, lr}
 3148              		.cfi_def_cfa_offset 16
 3149              		.cfi_offset 4, -16
 3150              		.cfi_offset 5, -12
 3151              		.cfi_offset 6, -8
 3152              		.cfi_offset 14, -4
 3153              	.LBB920:
 3154              	.LBB921:
 3155              	.LBB922:
 3156              	.LBB923:
 3157              	.LBB924:
 3158              		.loc 7 264 3 view .LVU979
 3159 0002 2023     		movs	r3, #32
 3160              	.LBE924:
 3161              	.LBE923:
 3162              	.LBE922:
 3163              	.LBE921:
 3164              	.LBE920:
 3165              		.loc 1 691 40 view .LVU980
 3166 0004 0446     		mov	r4, r0
 3167 0006 0E46     		mov	r6, r1
 3168              		.loc 1 692 3 is_stmt 1 view .LVU981
 3169              		.loc 1 694 3 view .LVU982
 3170              	.LBB932:
 3171              	.LBI920:
 3172              		.loc 2 491 20 view .LVU983
 3173              	.LBE932:
 3174              		.loc 2 493 3 view .LVU984
 3175              	.LBB933:
 3176              	.LBB929:
 3177              	.LBI921:
 3178              		.loc 5 374 20 view .LVU985
 3179              	.LBE929:
 3180              	.LBE933:
 3181              		.loc 5 376 3 view .LVU986
 3182              	.LBB934:
 3183              	.LBB930:
 3184              	.LBB927:
 3185              	.LBI922:
 3186              		.loc 6 594 20 view .LVU987
 3187              	.LBE927:
 3188              	.LBE930:
 3189              	.LBE934:
 3190              		.loc 6 602 3 view .LVU988
 3191              	.LVL157:
 3192              	.LBB935:
ARM GAS  /tmp/ccstZxWH.s 			page 57


 3193              	.LBB931:
 3194              	.LBB928:
 3195              	.LBB926:
 3196              	.LBI923:
 3197              		.loc 7 262 57 view .LVU989
 3198              	.LBB925:
 3199              		.loc 7 264 3 view .LVU990
 3200              		.syntax unified
 3201              	@ 264 "../../../os/common/ext/CMSIS/include/cmsis_gcc.h" 1
 3202 0008 83F31188 		MSR basepri, r3
 3203              	@ 0 "" 2
 3204              	.LVL158:
 3205              		.loc 7 264 3 is_stmt 0 view .LVU991
 3206              		.thumb
 3207              		.syntax unified
 3208              	.LBE925:
 3209              	.LBE926:
 3210              	.LBE928:
 3211              	.LBE931:
 3212              	.LBE935:
 3213              		.loc 5 377 34 is_stmt 1 view .LVU992
 3214              		.loc 5 378 20 view .LVU993
 3215              		.loc 1 697 3 view .LVU994
 3216              		.loc 1 697 11 is_stmt 0 view .LVU995
 3217 000c 836A     		ldr	r3, [r0, #40]
 3218              		.loc 1 697 6 view .LVU996
 3219 000e 0BB3     		cbz	r3, .L144
 3220              	.LVL159:
 3221              	.L129:
 3222              		.loc 1 706 3 is_stmt 1 view .LVU997
 3223              		.loc 1 706 14 is_stmt 0 view .LVU998
 3224 0010 1E70     		strb	r6, [r3]
 3225              		.loc 1 707 3 is_stmt 1 view .LVU999
 3226              		.loc 1 711 6 is_stmt 0 view .LVU1000
 3227 0012 D4E90A32 		ldrd	r3, r2, [r4, #40]
 3228              		.loc 1 707 12 view .LVU1001
 3229 0016 0133     		adds	r3, r3, #1
 3230              		.loc 1 711 6 view .LVU1002
 3231 0018 9342     		cmp	r3, r2
 3232              		.loc 1 707 12 view .LVU1003
 3233 001a A362     		str	r3, [r4, #40]
 3234              		.loc 1 711 3 is_stmt 1 view .LVU1004
 3235              		.loc 1 711 6 is_stmt 0 view .LVU1005
 3236 001c 03D2     		bcs	.L145
 3237              	.LVL160:
 3238              	.L133:
 3239              		.loc 1 715 3 is_stmt 1 view .LVU1006
 3240              	.LBB936:
 3241              	.LBI936:
 3242              		.loc 2 502 20 view .LVU1007
 3243              	.LBE936:
 3244              		.loc 2 504 3 view .LVU1008
 3245              	.LBB945:
 3246              	.LBB937:
 3247              	.LBI937:
 3248              		.loc 5 386 20 view .LVU1009
 3249              	.LBB938:
ARM GAS  /tmp/ccstZxWH.s 			page 58


 3250              		.loc 5 388 22 view .LVU1010
 3251              		.loc 5 389 33 view .LVU1011
 3252              		.loc 5 395 3 view .LVU1012
 3253              		.loc 5 395 3 view .LVU1013
 3254              		.loc 5 395 3 view .LVU1014
 3255              		.loc 5 399 3 view .LVU1015
 3256              	.LBB939:
 3257              	.LBI939:
 3258              		.loc 6 618 20 view .LVU1016
 3259              	.LBE939:
 3260              	.LBE938:
 3261              	.LBE937:
 3262              	.LBE945:
 3263              		.loc 6 621 3 view .LVU1017
 3264              	.LBB946:
 3265              	.LBB944:
 3266              	.LBB943:
 3267              	.LBB942:
 3268              	.LBB940:
 3269              	.LBI940:
 3270              		.loc 7 262 57 view .LVU1018
 3271              	.LBB941:
 3272              		.loc 7 264 3 view .LVU1019
 3273 001e 0020     		movs	r0, #0
 3274              		.syntax unified
 3275              	@ 264 "../../../os/common/ext/CMSIS/include/cmsis_gcc.h" 1
 3276 0020 80F31188 		MSR basepri, r0
 3277              	@ 0 "" 2
 3278              	.LVL161:
 3279              		.loc 7 264 3 is_stmt 0 view .LVU1020
 3280              		.thumb
 3281              		.syntax unified
 3282              	.LBE941:
 3283              	.LBE940:
 3284              	.LBE942:
 3285              	.LBE943:
 3286              	.LBE944:
 3287              	.LBE946:
 3288              		.loc 1 716 3 is_stmt 1 view .LVU1021
 3289              		.loc 1 717 1 is_stmt 0 view .LVU1022
 3290 0024 70BD     		pop	{r4, r5, r6, pc}
 3291              	.LVL162:
 3292              	.L145:
 3293              		.loc 1 712 5 is_stmt 1 view .LVU1023
 3294              	.LBB947:
 3295              	.LBI947:
 3296              		.loc 1 645 6 view .LVU1024
 3297              	.LBB948:
 3298              		.loc 1 647 23 view .LVU1025
 3299              		.loc 1 648 3 view .LVU1026
 3300              		.loc 1 648 3 view .LVU1027
 3301              		.loc 1 648 3 view .LVU1028
 3302              		.loc 1 649 3 view .LVU1029
 3303              		.loc 1 649 3 view .LVU1030
 3304              		.loc 1 649 3 view .LVU1031
 3305              		.loc 1 652 3 view .LVU1032
 3306              	.LBE948:
ARM GAS  /tmp/ccstZxWH.s 			page 59


 3307              	.LBE947:
 3308              		.loc 1 712 5 is_stmt 0 view .LVU1033
 3309 0026 E269     		ldr	r2, [r4, #28]
 3310              	.LBB951:
 3311              	.LBB949:
 3312              		.loc 1 652 19 view .LVU1034
 3313 0028 2369     		ldr	r3, [r4, #16]
 3314              	.LBE949:
 3315              	.LBE951:
 3316              		.loc 1 712 5 view .LVU1035
 3317 002a 043A     		subs	r2, r2, #4
 3318              	.LVL163:
 3319              	.LBB952:
 3320              	.LBB950:
 3321              		.loc 1 652 29 view .LVU1036
 3322 002c 1A60     		str	r2, [r3]
 3323              		.loc 1 655 3 is_stmt 1 view .LVU1037
 3324              		.loc 1 657 6 is_stmt 0 view .LVU1038
 3325 002e D4E90610 		ldrd	r1, r0, [r4, #24]
 3326              	.LVL164:
 3327              		.loc 1 656 16 view .LVU1039
 3328 0032 0344     		add	r3, r3, r0
 3329              		.loc 1 657 6 view .LVU1040
 3330 0034 8B42     		cmp	r3, r1
 3331              		.loc 1 655 7 view .LVU1041
 3332 0036 E268     		ldr	r2, [r4, #12]
 3333              	.LVL165:
 3334              		.loc 1 656 16 view .LVU1042
 3335 0038 2361     		str	r3, [r4, #16]
 3336              	.LVL166:
 3337              		.loc 1 658 18 view .LVU1043
 3338 003a 24BF     		itt	cs
 3339 003c 636A     		ldrcs	r3, [r4, #36]
 3340 003e 2361     		strcs	r3, [r4, #16]
 3341              		.loc 1 655 17 view .LVU1044
 3342 0040 013A     		subs	r2, r2, #1
 3343              		.loc 1 665 11 view .LVU1045
 3344 0042 236B     		ldr	r3, [r4, #48]
 3345              		.loc 1 655 17 view .LVU1046
 3346 0044 E260     		str	r2, [r4, #12]
 3347              		.loc 1 656 3 is_stmt 1 view .LVU1047
 3348              		.loc 1 657 3 view .LVU1048
 3349              		.loc 1 658 5 view .LVU1049
 3350              		.loc 1 662 3 view .LVU1050
 3351              		.loc 1 662 13 is_stmt 0 view .LVU1051
 3352 0046 0022     		movs	r2, #0
 3353 0048 A262     		str	r2, [r4, #40]
 3354              		.loc 1 665 3 is_stmt 1 view .LVU1052
 3355              		.loc 1 665 6 is_stmt 0 view .LVU1053
 3356 004a 002B     		cmp	r3, #0
 3357 004c E7D0     		beq	.L133
 3358              		.loc 1 666 5 is_stmt 1 view .LVU1054
 3359 004e 2046     		mov	r0, r4
 3360 0050 9847     		blx	r3
 3361              	.LVL167:
 3362 0052 E4E7     		b	.L133
 3363              	.LVL168:
ARM GAS  /tmp/ccstZxWH.s 			page 60


 3364              	.L144:
 3365              		.loc 1 666 5 is_stmt 0 view .LVU1055
 3366 0054 1546     		mov	r5, r2
 3367              	.LBE950:
 3368              	.LBE952:
 3369 0056 05E0     		b	.L128
 3370              	.LVL169:
 3371              	.L131:
 3372              	.LBB953:
 3373              	.LBB954:
 3374              	.LBB955:
 3375              		.loc 1 602 8 view .LVU1056
 3376 0058 237A     		ldrb	r3, [r4, #8]	@ zero_extendqisi2
 3377 005a 7BB9     		cbnz	r3, .L137
 3378              	.LBB956:
 3379              	.LBB957:
 3380              		.loc 2 784 10 view .LVU1057
 3381 005c FFF7FEFF 		bl	chThdEnqueueTimeoutS
 3382              	.LVL170:
 3383              		.loc 2 784 10 view .LVU1058
 3384              	.LBE957:
 3385              	.LBE956:
 3386              		.loc 1 606 5 is_stmt 1 view .LVU1059
 3387              		.loc 1 606 8 is_stmt 0 view .LVU1060
 3388 0060 0028     		cmp	r0, #0
 3389              		.loc 1 606 8 view .LVU1061
 3390 0062 0DDB     		blt	.L130
 3391              	.LVL171:
 3392              	.L128:
 3393              		.loc 1 602 5 is_stmt 1 view .LVU1062
 3394              		.loc 1 605 5 view .LVU1063
 3395              	.LBB960:
 3396              	.LBI956:
 3397              		.loc 2 781 21 view .LVU1064
 3398              	.LBB958:
 3399              		.loc 2 784 3 view .LVU1065
 3400              	.LBE958:
 3401              	.LBE960:
 3402              	.LBE955:
 3403              		.loc 1 601 9 view .LVU1066
 3404              		.loc 1 601 10 is_stmt 0 view .LVU1067
 3405 0064 E368     		ldr	r3, [r4, #12]
 3406              	.LBB962:
 3407              	.LBB961:
 3408              	.LBB959:
 3409              		.loc 2 784 10 view .LVU1068
 3410 0066 2946     		mov	r1, r5
 3411 0068 2046     		mov	r0, r4
 3412              	.LBE959:
 3413              	.LBE961:
 3414              	.LBE962:
 3415              		.loc 1 601 9 view .LVU1069
 3416 006a 002B     		cmp	r3, #0
 3417 006c F4D0     		beq	.L131
 3418              	.LVL172:
 3419              	.LBB963:
 3420              	.LBI963:
ARM GAS  /tmp/ccstZxWH.s 			page 61


 3421              		.loc 1 596 7 is_stmt 1 view .LVU1070
 3422              	.LBB964:
 3423              		.loc 1 611 3 view .LVU1071
 3424              		.loc 1 611 3 view .LVU1072
 3425              		.loc 1 611 3 view .LVU1073
 3426              		.loc 1 614 3 view .LVU1074
 3427              		.loc 1 614 19 is_stmt 0 view .LVU1075
 3428 006e 2269     		ldr	r2, [r4, #16]
 3429              		.loc 1 615 28 view .LVU1076
 3430 0070 E169     		ldr	r1, [r4, #28]
 3431              	.LVL173:
 3432              		.loc 1 614 28 view .LVU1077
 3433 0072 131D     		adds	r3, r2, #4
 3434              		.loc 1 615 28 view .LVU1078
 3435 0074 0A44     		add	r2, r2, r1
 3436              		.loc 1 615 13 view .LVU1079
 3437 0076 C4E90A32 		strd	r3, r2, [r4, #40]
 3438              		.loc 1 617 3 is_stmt 1 view .LVU1080
 3439              	.LVL174:
 3440              		.loc 1 617 3 is_stmt 0 view .LVU1081
 3441              	.LBE964:
 3442              	.LBE963:
 3443              	.LBE954:
 3444              	.LBE953:
 3445              		.loc 1 699 5 is_stmt 1 view .LVU1082
 3446 007a C9E7     		b	.L129
 3447              	.LVL175:
 3448              	.L137:
 3449              	.LBB967:
 3450              	.LBB966:
 3451              	.LBB965:
 3452              		.loc 1 603 14 is_stmt 0 view .LVU1083
 3453 007c 6FF00100 		mvn	r0, #1
 3454              	.LVL176:
 3455              	.L130:
 3456              		.loc 1 603 14 view .LVU1084
 3457              	.LBE965:
 3458              	.LBE966:
 3459              	.LBE967:
 3460              		.loc 1 699 5 is_stmt 1 view .LVU1085
 3461              		.loc 1 700 7 view .LVU1086
 3462              	.LBB968:
 3463              	.LBI968:
 3464              		.loc 2 502 20 view .LVU1087
 3465              	.LBE968:
 3466              		.loc 2 504 3 view .LVU1088
 3467              	.LBB977:
 3468              	.LBB969:
 3469              	.LBI969:
 3470              		.loc 5 386 20 view .LVU1089
 3471              	.LBB970:
 3472              		.loc 5 388 22 view .LVU1090
 3473              		.loc 5 389 33 view .LVU1091
 3474              		.loc 5 395 3 view .LVU1092
 3475              		.loc 5 395 3 view .LVU1093
 3476              		.loc 5 395 3 view .LVU1094
 3477              		.loc 5 399 3 view .LVU1095
ARM GAS  /tmp/ccstZxWH.s 			page 62


 3478              	.LBB971:
 3479              	.LBI971:
 3480              		.loc 6 618 20 view .LVU1096
 3481              	.LBE971:
 3482              	.LBE970:
 3483              	.LBE969:
 3484              	.LBE977:
 3485              		.loc 6 621 3 view .LVU1097
 3486              	.LBB978:
 3487              	.LBB976:
 3488              	.LBB975:
 3489              	.LBB974:
 3490              	.LBB972:
 3491              	.LBI972:
 3492              		.loc 7 262 57 view .LVU1098
 3493              	.LBB973:
 3494              		.loc 7 264 3 view .LVU1099
 3495 0080 0023     		movs	r3, #0
 3496              		.syntax unified
 3497              	@ 264 "../../../os/common/ext/CMSIS/include/cmsis_gcc.h" 1
 3498 0082 83F31188 		MSR basepri, r3
 3499              	@ 0 "" 2
 3500              	.LVL177:
 3501              		.loc 7 264 3 is_stmt 0 view .LVU1100
 3502              		.thumb
 3503              		.syntax unified
 3504              	.LBE973:
 3505              	.LBE972:
 3506              	.LBE974:
 3507              	.LBE975:
 3508              	.LBE976:
 3509              	.LBE978:
 3510              		.loc 1 701 7 is_stmt 1 view .LVU1101
 3511              		.loc 1 717 1 is_stmt 0 view .LVU1102
 3512 0086 70BD     		pop	{r4, r5, r6, pc}
 3513              		.loc 1 717 1 view .LVU1103
 3514              		.cfi_endproc
 3515              	.LFE295:
 3516              		.size	obqPutTimeout, .-obqPutTimeout
 3517              		.section	.text.obqWriteTimeout,"ax",%progbits
 3518              		.align	1
 3519              		.p2align 4,,15
 3520              		.global	obqWriteTimeout
 3521              		.syntax unified
 3522              		.thumb
 3523              		.thumb_func
 3524              		.fpu softvfp
 3525              		.type	obqWriteTimeout, %function
 3526              	obqWriteTimeout:
 3527              	.LVL178:
 3528              	.LFB296:
 3529              		.loc 1 741 53 is_stmt 1 view -0
 3530              		.cfi_startproc
 3531              		@ args = 0, pretend = 0, frame = 8
 3532              		@ frame_needed = 0, uses_anonymous_args = 0
 3533              		.loc 1 742 3 view .LVU1105
 3534              		.loc 1 743 3 view .LVU1106
ARM GAS  /tmp/ccstZxWH.s 			page 63


 3535              		.loc 1 745 3 view .LVU1107
 3536              		.loc 1 745 3 view .LVU1108
 3537              		.loc 1 745 3 view .LVU1109
 3538              		.loc 1 747 3 view .LVU1110
 3539              	.LBB1043:
 3540              	.LBI1043:
 3541              		.loc 2 491 20 view .LVU1111
 3542              	.LBE1043:
 3543              		.loc 2 493 3 view .LVU1112
 3544              	.LBB1055:
 3545              	.LBB1044:
 3546              	.LBI1044:
 3547              		.loc 5 374 20 view .LVU1113
 3548              	.LBE1044:
 3549              	.LBE1055:
 3550              		.loc 5 376 3 view .LVU1114
 3551              	.LBB1056:
 3552              	.LBB1052:
 3553              	.LBB1045:
 3554              	.LBI1045:
 3555              		.loc 6 594 20 view .LVU1115
 3556              	.LBE1045:
 3557              	.LBE1052:
 3558              	.LBE1056:
 3559              		.loc 6 602 3 view .LVU1116
 3560              	.LBB1057:
 3561              	.LBB1053:
 3562              	.LBB1050:
 3563              	.LBB1046:
 3564              	.LBI1046:
 3565              		.loc 7 262 57 view .LVU1117
 3566              	.LBB1047:
 3567              		.loc 7 264 3 view .LVU1118
 3568              	.LBE1047:
 3569              	.LBE1046:
 3570              	.LBE1050:
 3571              	.LBE1053:
 3572              	.LBE1057:
 3573              		.loc 1 741 53 is_stmt 0 view .LVU1119
 3574 0000 2DE9F04F 		push	{r4, r5, r6, r7, r8, r9, r10, fp, lr}
 3575              		.cfi_def_cfa_offset 36
 3576              		.cfi_offset 4, -36
 3577              		.cfi_offset 5, -32
 3578              		.cfi_offset 6, -28
 3579              		.cfi_offset 7, -24
 3580              		.cfi_offset 8, -20
 3581              		.cfi_offset 9, -16
 3582              		.cfi_offset 10, -12
 3583              		.cfi_offset 11, -8
 3584              		.cfi_offset 14, -4
 3585 0004 1F46     		mov	r7, r3
 3586 0006 83B0     		sub	sp, sp, #12
 3587              		.cfi_def_cfa_offset 48
 3588              		.loc 1 741 53 view .LVU1120
 3589 0008 0446     		mov	r4, r0
 3590 000a 8B46     		mov	fp, r1
 3591 000c 1646     		mov	r6, r2
ARM GAS  /tmp/ccstZxWH.s 			page 64


 3592              	.LBB1058:
 3593              	.LBB1054:
 3594              	.LBB1051:
 3595              	.LBB1049:
 3596              	.LBB1048:
 3597              		.loc 7 264 3 view .LVU1121
 3598 000e 2023     		movs	r3, #32
 3599              	.LVL179:
 3600              		.loc 7 264 3 view .LVU1122
 3601              		.syntax unified
 3602              	@ 264 "../../../os/common/ext/CMSIS/include/cmsis_gcc.h" 1
 3603 0010 83F31188 		MSR basepri, r3
 3604              	@ 0 "" 2
 3605              	.LVL180:
 3606              		.loc 7 264 3 view .LVU1123
 3607              		.thumb
 3608              		.syntax unified
 3609              	.LBE1048:
 3610              	.LBE1049:
 3611              	.LBE1051:
 3612              	.LBE1054:
 3613              	.LBE1058:
 3614              		.loc 5 377 34 is_stmt 1 view .LVU1124
 3615              		.loc 5 378 20 view .LVU1125
 3616              		.loc 1 750 3 view .LVU1126
 3617              	.LBB1059:
 3618              	.LBI1059:
 3619              		.loc 2 616 25 view .LVU1127
 3620              	.LBE1059:
 3621              		.loc 2 618 3 view .LVU1128
 3622              	.LBB1071:
 3623              	.LBB1060:
 3624              	.LBI1060:
 3625              		.loc 8 392 25 view .LVU1129
 3626              	.LBE1060:
 3627              	.LBE1071:
 3628              		.loc 8 397 3 view .LVU1130
 3629              	.LBB1072:
 3630              	.LBB1068:
 3631              	.LBB1061:
 3632              	.LBI1061:
 3633              		.loc 9 105 25 view .LVU1131
 3634              	.LBE1061:
 3635              	.LBE1068:
 3636              	.LBE1072:
 3637              		.loc 9 107 3 view .LVU1132
 3638              	.LBB1073:
 3639              	.LBB1069:
 3640              	.LBB1066:
 3641              	.LBB1062:
 3642              	.LBI1062:
 3643              		.loc 10 139 25 view .LVU1133
 3644              	.LBB1063:
 3645              		.loc 10 141 3 view .LVU1134
 3646              		.loc 10 141 10 is_stmt 0 view .LVU1135
 3647 0014 4FF08043 		mov	r3, #1073741824
 3648              	.LBE1063:
ARM GAS  /tmp/ccstZxWH.s 			page 65


 3649              	.LBE1062:
 3650              	.LBE1066:
 3651              	.LBE1069:
 3652              	.LBE1073:
 3653              	.LBB1074:
 3654              		.loc 1 756 13 view .LVU1136
 3655 0018 A06A     		ldr	r0, [r4, #40]
 3656              	.LVL181:
 3657              		.loc 1 756 13 view .LVU1137
 3658              	.LBE1074:
 3659              	.LBB1185:
 3660              	.LBB1070:
 3661              	.LBB1067:
 3662              	.LBB1065:
 3663              	.LBB1064:
 3664              		.loc 10 141 10 view .LVU1138
 3665 001a 5B6A     		ldr	r3, [r3, #36]
 3666              	.LBE1064:
 3667              	.LBE1065:
 3668              	.LBE1067:
 3669              	.LBE1070:
 3670              	.LBE1185:
 3671              		.loc 1 742 10 view .LVU1139
 3672 001c 0025     		movs	r5, #0
 3673              		.loc 1 750 12 view .LVU1140
 3674 001e FB18     		adds	r3, r7, r3
 3675 0020 0193     		str	r3, [sp, #4]
 3676              	.LVL182:
 3677              		.loc 1 752 3 is_stmt 1 view .LVU1141
 3678              	.LBB1186:
 3679              		.loc 1 753 5 view .LVU1142
 3680              		.loc 1 756 5 view .LVU1143
 3681              	.LBB1075:
 3682              		.loc 1 761 38 is_stmt 0 view .LVU1144
 3683 0022 07F1FF39 		add	r9, r7, #-1
 3684              	.LBE1075:
 3685              	.LBB1143:
 3686              	.LBB1144:
 3687              		.loc 1 662 13 view .LVU1145
 3688 0026 A846     		mov	r8, r5
 3689              	.LBE1144:
 3690              	.LBE1143:
 3691              		.loc 1 756 8 view .LVU1146
 3692 0028 78B3     		cbz	r0, .L147
 3693              	.LVL183:
 3694              	.L180:
 3695              		.loc 1 785 24 view .LVU1147
 3696 002a E26A     		ldr	r2, [r4, #44]
 3697              	.L148:
 3698              		.loc 1 785 5 is_stmt 1 view .LVU1148
 3699              		.loc 1 786 19 is_stmt 0 view .LVU1149
 3700 002c 731B     		subs	r3, r6, r5
 3701              		.loc 1 785 10 view .LVU1150
 3702 002e 121A     		subs	r2, r2, r0
 3703              	.LVL184:
 3704              		.loc 1 786 5 is_stmt 1 view .LVU1151
 3705 0030 9342     		cmp	r3, r2
ARM GAS  /tmp/ccstZxWH.s 			page 66


 3706 0032 28BF     		it	cs
 3707 0034 1346     		movcs	r3, r2
 3708              		.loc 1 792 8 is_stmt 0 view .LVU1152
 3709 0036 402B     		cmp	r3, #64
 3710 0038 9A46     		mov	r10, r3
 3711              	.LVL185:
 3712              		.loc 1 792 5 is_stmt 1 view .LVU1153
 3713              		.loc 1 794 7 is_stmt 0 view .LVU1154
 3714 003a 5946     		mov	r1, fp
 3715              		.loc 1 792 8 view .LVU1155
 3716 003c 44D9     		bls	.L156
 3717              	.LVL186:
 3718              		.loc 1 794 7 is_stmt 1 view .LVU1156
 3719 003e 0BF1400B 		add	fp, fp, #64
 3720              	.LVL187:
 3721              	.L157:
 3722              		.loc 1 794 7 is_stmt 0 view .LVU1157
 3723 0042 D1F800C0 		ldr	ip, [r1]	@ unaligned
 3724 0046 4A68     		ldr	r2, [r1, #4]	@ unaligned
 3725 0048 8B68     		ldr	r3, [r1, #8]	@ unaligned
 3726 004a D1F80CE0 		ldr	lr, [r1, #12]	@ unaligned
 3727 004e C0F80CE0 		str	lr, [r0, #12]	@ unaligned
 3728 0052 1031     		adds	r1, r1, #16
 3729 0054 5945     		cmp	r1, fp
 3730 0056 C0F800C0 		str	ip, [r0]	@ unaligned
 3731 005a 4260     		str	r2, [r0, #4]	@ unaligned
 3732 005c 8360     		str	r3, [r0, #8]	@ unaligned
 3733 005e 00F11000 		add	r0, r0, #16
 3734 0062 EED1     		bne	.L157
 3735              		.loc 1 795 7 is_stmt 1 view .LVU1158
 3736              		.loc 1 796 17 is_stmt 0 view .LVU1159
 3737 0064 A36A     		ldr	r3, [r4, #40]
 3738              		.loc 1 807 8 view .LVU1160
 3739 0066 E26A     		ldr	r2, [r4, #44]
 3740              		.loc 1 796 17 view .LVU1161
 3741 0068 4033     		adds	r3, r3, #64
 3742              		.loc 1 807 8 view .LVU1162
 3743 006a 9A42     		cmp	r2, r3
 3744              		.loc 1 795 17 view .LVU1163
 3745 006c 8B46     		mov	fp, r1
 3746              	.LVL188:
 3747              		.loc 1 796 7 is_stmt 1 view .LVU1164
 3748              		.loc 1 796 17 is_stmt 0 view .LVU1165
 3749 006e A362     		str	r3, [r4, #40]
 3750              		.loc 1 797 7 is_stmt 1 view .LVU1166
 3751              		.loc 1 797 17 is_stmt 0 view .LVU1167
 3752 0070 05F14005 		add	r5, r5, #64
 3753              	.LVL189:
 3754              		.loc 1 807 5 is_stmt 1 view .LVU1168
 3755              		.loc 1 807 8 is_stmt 0 view .LVU1169
 3756 0074 33D9     		bls	.L179
 3757              	.LVL190:
 3758              	.L160:
 3759              		.loc 1 812 5 is_stmt 1 view .LVU1170
 3760              	.LBB1148:
 3761              	.LBI1148:
 3762              		.loc 2 502 20 view .LVU1171
ARM GAS  /tmp/ccstZxWH.s 			page 67


 3763              	.LBE1148:
 3764              	.LBE1186:
 3765              		.loc 2 504 3 view .LVU1172
 3766              	.LBB1187:
 3767              	.LBB1157:
 3768              	.LBB1149:
 3769              	.LBI1149:
 3770              		.loc 5 386 20 view .LVU1173
 3771              	.LBB1150:
 3772              		.loc 5 388 22 view .LVU1174
 3773              		.loc 5 389 33 view .LVU1175
 3774              		.loc 5 395 3 view .LVU1176
 3775              		.loc 5 395 3 view .LVU1177
 3776              		.loc 5 395 3 view .LVU1178
 3777              		.loc 5 399 3 view .LVU1179
 3778              	.LBB1151:
 3779              	.LBI1151:
 3780              		.loc 6 618 20 view .LVU1180
 3781              	.LBE1151:
 3782              	.LBE1150:
 3783              	.LBE1149:
 3784              	.LBE1157:
 3785              	.LBE1187:
 3786              		.loc 6 621 3 view .LVU1181
 3787              	.LBB1188:
 3788              	.LBB1158:
 3789              	.LBB1156:
 3790              	.LBB1155:
 3791              	.LBB1154:
 3792              	.LBB1152:
 3793              	.LBI1152:
 3794              		.loc 7 262 57 view .LVU1182
 3795              	.LBB1153:
 3796              		.loc 7 264 3 view .LVU1183
 3797              		.syntax unified
 3798              	@ 264 "../../../os/common/ext/CMSIS/include/cmsis_gcc.h" 1
 3799 0076 88F31188 		MSR basepri, r8
 3800              	@ 0 "" 2
 3801              	.LVL191:
 3802              		.loc 7 264 3 is_stmt 0 view .LVU1184
 3803              		.thumb
 3804              		.syntax unified
 3805              	.LBE1153:
 3806              	.LBE1152:
 3807              	.LBE1154:
 3808              	.LBE1155:
 3809              	.LBE1156:
 3810              	.LBE1158:
 3811              		.loc 1 813 5 is_stmt 1 view .LVU1185
 3812              		.loc 1 813 8 is_stmt 0 view .LVU1186
 3813 007a B542     		cmp	r5, r6
 3814 007c 55D2     		bcs	.L146
 3815              		.loc 1 816 5 is_stmt 1 view .LVU1187
 3816              	.LBB1159:
 3817              	.LBI1159:
 3818              		.loc 2 491 20 view .LVU1188
 3819              	.LBB1160:
ARM GAS  /tmp/ccstZxWH.s 			page 68


 3820              		.loc 2 493 3 view .LVU1189
 3821              	.LBB1161:
 3822              	.LBI1161:
 3823              		.loc 5 374 20 view .LVU1190
 3824              	.LBE1161:
 3825              	.LBE1160:
 3826              	.LBE1159:
 3827              	.LBE1188:
 3828              		.loc 5 376 3 view .LVU1191
 3829              	.LBB1189:
 3830              	.LBB1170:
 3831              	.LBB1168:
 3832              	.LBB1166:
 3833              	.LBB1162:
 3834              	.LBI1162:
 3835              		.loc 6 594 20 view .LVU1192
 3836              	.LBE1162:
 3837              	.LBE1166:
 3838              	.LBE1168:
 3839              	.LBE1170:
 3840              	.LBE1189:
 3841              		.loc 6 602 3 view .LVU1193
 3842              	.LVL192:
 3843              	.LBB1190:
 3844              	.LBB1171:
 3845              	.LBB1169:
 3846              	.LBB1167:
 3847              	.LBB1165:
 3848              	.LBB1163:
 3849              	.LBI1163:
 3850              		.loc 7 262 57 view .LVU1194
 3851              	.LBB1164:
 3852              		.loc 7 264 3 view .LVU1195
 3853 007e 2023     		movs	r3, #32
 3854              		.syntax unified
 3855              	@ 264 "../../../os/common/ext/CMSIS/include/cmsis_gcc.h" 1
 3856 0080 83F31188 		MSR basepri, r3
 3857              	@ 0 "" 2
 3858              	.LVL193:
 3859              		.loc 7 264 3 is_stmt 0 view .LVU1196
 3860              		.thumb
 3861              		.syntax unified
 3862              	.LBE1164:
 3863              	.LBE1163:
 3864              	.LBE1165:
 3865              	.LBE1167:
 3866              	.LBE1169:
 3867              	.LBE1171:
 3868              	.LBE1190:
 3869              		.loc 5 377 34 is_stmt 1 view .LVU1197
 3870              		.loc 5 378 20 view .LVU1198
 3871              		.loc 1 752 3 view .LVU1199
 3872              	.LBB1191:
 3873              		.loc 1 753 5 view .LVU1200
 3874              		.loc 1 756 5 view .LVU1201
 3875              		.loc 1 756 13 is_stmt 0 view .LVU1202
 3876 0084 A06A     		ldr	r0, [r4, #40]
ARM GAS  /tmp/ccstZxWH.s 			page 69


 3877              		.loc 1 756 8 view .LVU1203
 3878 0086 0028     		cmp	r0, #0
 3879 0088 CFD1     		bne	.L180
 3880              	.LVL194:
 3881              	.L147:
 3882              	.LBB1172:
 3883              		.loc 1 757 7 is_stmt 1 view .LVU1204
 3884              		.loc 1 761 7 view .LVU1205
 3885              		.loc 1 761 10 is_stmt 0 view .LVU1206
 3886 008a 19F1030F 		cmn	r9, #3
 3887 008e 43D8     		bhi	.L149
 3888              	.LBB1076:
 3889              		.loc 1 765 9 is_stmt 1 view .LVU1207
 3890              	.LBB1077:
 3891              	.LBI1077:
 3892              		.loc 2 616 25 view .LVU1208
 3893              	.LBE1077:
 3894              	.LBE1076:
 3895              	.LBE1172:
 3896              	.LBE1191:
 3897              		.loc 2 618 3 view .LVU1209
 3898              	.LBB1192:
 3899              	.LBB1173:
 3900              	.LBB1116:
 3901              	.LBB1089:
 3902              	.LBB1078:
 3903              	.LBI1078:
 3904              		.loc 8 392 25 view .LVU1210
 3905              	.LBE1078:
 3906              	.LBE1089:
 3907              	.LBE1116:
 3908              	.LBE1173:
 3909              	.LBE1192:
 3910              		.loc 8 397 3 view .LVU1211
 3911              	.LBB1193:
 3912              	.LBB1174:
 3913              	.LBB1117:
 3914              	.LBB1090:
 3915              	.LBB1086:
 3916              	.LBB1079:
 3917              	.LBI1079:
 3918              		.loc 9 105 25 view .LVU1212
 3919              	.LBE1079:
 3920              	.LBE1086:
 3921              	.LBE1090:
 3922              	.LBE1117:
 3923              	.LBE1174:
 3924              	.LBE1193:
 3925              		.loc 9 107 3 view .LVU1213
 3926              	.LBB1194:
 3927              	.LBB1175:
 3928              	.LBB1118:
 3929              	.LBB1091:
 3930              	.LBB1087:
 3931              	.LBB1084:
 3932              	.LBB1080:
 3933              	.LBI1080:
ARM GAS  /tmp/ccstZxWH.s 			page 70


 3934              		.loc 10 139 25 view .LVU1214
 3935              	.LBB1081:
 3936              		.loc 10 141 3 view .LVU1215
 3937              		.loc 10 141 10 is_stmt 0 view .LVU1216
 3938 0090 4FF08043 		mov	r3, #1073741824
 3939              	.LBE1081:
 3940              	.LBE1080:
 3941              	.LBE1084:
 3942              	.LBE1087:
 3943              	.LBE1091:
 3944              		.loc 1 765 19 view .LVU1217
 3945 0094 019A     		ldr	r2, [sp, #4]
 3946              	.LBB1092:
 3947              	.LBB1088:
 3948              	.LBB1085:
 3949              	.LBB1083:
 3950              	.LBB1082:
 3951              		.loc 10 141 10 view .LVU1218
 3952 0096 5B6A     		ldr	r3, [r3, #36]
 3953              	.LBE1082:
 3954              	.LBE1083:
 3955              	.LBE1085:
 3956              	.LBE1088:
 3957              	.LBE1092:
 3958              		.loc 1 765 19 view .LVU1219
 3959 0098 A2EB030A 		sub	r10, r2, r3
 3960              	.LVL195:
 3961              		.loc 1 770 9 is_stmt 1 view .LVU1220
 3962              		.loc 1 770 12 is_stmt 0 view .LVU1221
 3963 009c 5745     		cmp	r7, r10
 3964 009e 07D2     		bcs	.L153
 3965 00a0 47E0     		b	.L181
 3966              	.LVL196:
 3967              	.L155:
 3968              	.LBB1093:
 3969              	.LBB1094:
 3970              	.LBB1095:
 3971              		.loc 1 602 8 view .LVU1222
 3972 00a2 237A     		ldrb	r3, [r4, #8]	@ zero_extendqisi2
 3973 00a4 002B     		cmp	r3, #0
 3974 00a6 3DD1     		bne	.L151
 3975              	.LBB1096:
 3976              	.LBB1097:
 3977              		.loc 2 784 10 view .LVU1223
 3978 00a8 FFF7FEFF 		bl	chThdEnqueueTimeoutS
 3979              	.LVL197:
 3980              		.loc 2 784 10 view .LVU1224
 3981              	.LBE1097:
 3982              	.LBE1096:
 3983              		.loc 1 606 5 is_stmt 1 view .LVU1225
 3984              		.loc 1 606 8 is_stmt 0 view .LVU1226
 3985 00ac 0028     		cmp	r0, #0
 3986 00ae 39DB     		blt	.L151
 3987              	.LVL198:
 3988              	.L153:
 3989              		.loc 1 602 5 is_stmt 1 view .LVU1227
 3990              		.loc 1 605 5 view .LVU1228
ARM GAS  /tmp/ccstZxWH.s 			page 71


 3991              	.LBB1100:
 3992              	.LBI1096:
 3993              		.loc 2 781 21 view .LVU1229
 3994              	.LBB1098:
 3995              		.loc 2 784 3 view .LVU1230
 3996              	.LBE1098:
 3997              	.LBE1100:
 3998              	.LBE1095:
 3999              		.loc 1 601 9 view .LVU1231
 4000              		.loc 1 601 10 is_stmt 0 view .LVU1232
 4001 00b0 E368     		ldr	r3, [r4, #12]
 4002              	.LBB1102:
 4003              	.LBB1101:
 4004              	.LBB1099:
 4005              		.loc 2 784 10 view .LVU1233
 4006 00b2 5146     		mov	r1, r10
 4007 00b4 2046     		mov	r0, r4
 4008              	.LBE1099:
 4009              	.LBE1101:
 4010              	.LBE1102:
 4011              		.loc 1 601 9 view .LVU1234
 4012 00b6 002B     		cmp	r3, #0
 4013 00b8 F3D0     		beq	.L155
 4014              	.LVL199:
 4015              	.L178:
 4016              	.LBB1103:
 4017              	.LBI1103:
 4018              		.loc 1 596 7 is_stmt 1 view .LVU1235
 4019              	.LBB1104:
 4020              		.loc 1 611 3 view .LVU1236
 4021              		.loc 1 611 3 view .LVU1237
 4022              		.loc 1 611 3 view .LVU1238
 4023              		.loc 1 614 3 view .LVU1239
 4024              		.loc 1 614 19 is_stmt 0 view .LVU1240
 4025 00ba 2069     		ldr	r0, [r4, #16]
 4026              	.LVL200:
 4027              		.loc 1 615 28 view .LVU1241
 4028 00bc E269     		ldr	r2, [r4, #28]
 4029 00be 0244     		add	r2, r2, r0
 4030              		.loc 1 614 28 view .LVU1242
 4031 00c0 0430     		adds	r0, r0, #4
 4032              		.loc 1 615 13 view .LVU1243
 4033 00c2 C4E90A02 		strd	r0, r2, [r4, #40]
 4034              		.loc 1 617 3 is_stmt 1 view .LVU1244
 4035              	.LVL201:
 4036              		.loc 1 617 3 is_stmt 0 view .LVU1245
 4037              	.LBE1104:
 4038              	.LBE1103:
 4039              	.LBE1094:
 4040              	.LBE1093:
 4041              	.LBE1118:
 4042              		.loc 1 778 7 is_stmt 1 view .LVU1246
 4043 00c6 B1E7     		b	.L148
 4044              	.LVL202:
 4045              	.L156:
 4046              		.loc 1 778 7 is_stmt 0 view .LVU1247
 4047              	.LBE1175:
ARM GAS  /tmp/ccstZxWH.s 			page 72


 4048              		.loc 1 800 7 is_stmt 1 view .LVU1248
 4049 00c8 1A46     		mov	r2, r3
 4050 00ca FFF7FEFF 		bl	memcpy
 4051              	.LVL203:
 4052              		.loc 1 801 7 view .LVU1249
 4053              		.loc 1 802 17 is_stmt 0 view .LVU1250
 4054 00ce A36A     		ldr	r3, [r4, #40]
 4055              		.loc 1 807 8 view .LVU1251
 4056 00d0 E26A     		ldr	r2, [r4, #44]
 4057              		.loc 1 802 17 view .LVU1252
 4058 00d2 5344     		add	r3, r3, r10
 4059              		.loc 1 807 8 view .LVU1253
 4060 00d4 9A42     		cmp	r2, r3
 4061              		.loc 1 801 17 view .LVU1254
 4062 00d6 D344     		add	fp, fp, r10
 4063              	.LVL204:
 4064              		.loc 1 802 7 is_stmt 1 view .LVU1255
 4065              		.loc 1 802 17 is_stmt 0 view .LVU1256
 4066 00d8 A362     		str	r3, [r4, #40]
 4067              		.loc 1 803 7 is_stmt 1 view .LVU1257
 4068              		.loc 1 803 17 is_stmt 0 view .LVU1258
 4069 00da 5544     		add	r5, r5, r10
 4070              	.LVL205:
 4071              		.loc 1 807 5 is_stmt 1 view .LVU1259
 4072              		.loc 1 807 8 is_stmt 0 view .LVU1260
 4073 00dc CBD8     		bhi	.L160
 4074              	.L179:
 4075              		.loc 1 808 7 is_stmt 1 view .LVU1261
 4076              	.LVL206:
 4077              	.LBB1176:
 4078              	.LBI1143:
 4079              		.loc 1 645 6 view .LVU1262
 4080              	.LBB1145:
 4081              		.loc 1 647 23 view .LVU1263
 4082              		.loc 1 648 3 view .LVU1264
 4083              		.loc 1 648 3 view .LVU1265
 4084              		.loc 1 648 3 view .LVU1266
 4085              		.loc 1 649 3 view .LVU1267
 4086              		.loc 1 649 3 view .LVU1268
 4087              		.loc 1 649 3 view .LVU1269
 4088              		.loc 1 652 3 view .LVU1270
 4089              	.LBE1145:
 4090              	.LBE1176:
 4091              		.loc 1 808 7 is_stmt 0 view .LVU1271
 4092 00de E269     		ldr	r2, [r4, #28]
 4093              	.LBB1177:
 4094              	.LBB1146:
 4095              		.loc 1 652 19 view .LVU1272
 4096 00e0 2369     		ldr	r3, [r4, #16]
 4097              	.LBE1146:
 4098              	.LBE1177:
 4099              		.loc 1 808 7 view .LVU1273
 4100 00e2 043A     		subs	r2, r2, #4
 4101              	.LVL207:
 4102              	.LBB1178:
 4103              	.LBB1147:
 4104              		.loc 1 652 29 view .LVU1274
ARM GAS  /tmp/ccstZxWH.s 			page 73


 4105 00e4 1A60     		str	r2, [r3]
 4106              		.loc 1 655 3 is_stmt 1 view .LVU1275
 4107              		.loc 1 656 16 is_stmt 0 view .LVU1276
 4108 00e6 E169     		ldr	r1, [r4, #28]
 4109              		.loc 1 655 7 view .LVU1277
 4110 00e8 E268     		ldr	r2, [r4, #12]
 4111              	.LVL208:
 4112              		.loc 1 662 13 view .LVU1278
 4113 00ea C4F82880 		str	r8, [r4, #40]
 4114              		.loc 1 656 16 view .LVU1279
 4115 00ee 0B44     		add	r3, r3, r1
 4116              	.LVL209:
 4117              		.loc 1 657 6 view .LVU1280
 4118 00f0 A169     		ldr	r1, [r4, #24]
 4119              		.loc 1 656 16 view .LVU1281
 4120 00f2 2361     		str	r3, [r4, #16]
 4121              	.LVL210:
 4122              		.loc 1 657 6 view .LVU1282
 4123 00f4 8B42     		cmp	r3, r1
 4124              		.loc 1 658 18 view .LVU1283
 4125 00f6 24BF     		itt	cs
 4126 00f8 636A     		ldrcs	r3, [r4, #36]
 4127 00fa 2361     		strcs	r3, [r4, #16]
 4128              		.loc 1 665 11 view .LVU1284
 4129 00fc 236B     		ldr	r3, [r4, #48]
 4130              		.loc 1 655 17 view .LVU1285
 4131 00fe 013A     		subs	r2, r2, #1
 4132 0100 E260     		str	r2, [r4, #12]
 4133              		.loc 1 656 3 is_stmt 1 view .LVU1286
 4134              		.loc 1 657 3 view .LVU1287
 4135              		.loc 1 658 5 view .LVU1288
 4136              		.loc 1 662 3 view .LVU1289
 4137              		.loc 1 665 3 view .LVU1290
 4138              		.loc 1 665 6 is_stmt 0 view .LVU1291
 4139 0102 002B     		cmp	r3, #0
 4140 0104 B7D0     		beq	.L160
 4141              		.loc 1 666 5 is_stmt 1 view .LVU1292
 4142 0106 2046     		mov	r0, r4
 4143 0108 9847     		blx	r3
 4144              	.LVL211:
 4145 010a B4E7     		b	.L160
 4146              	.LVL212:
 4147              	.L152:
 4148              		.loc 1 666 5 is_stmt 0 view .LVU1293
 4149              	.LBE1147:
 4150              	.LBE1178:
 4151              	.LBB1179:
 4152              	.LBB1119:
 4153              	.LBB1120:
 4154              	.LBB1121:
 4155              		.loc 1 602 8 view .LVU1294
 4156 010c 237A     		ldrb	r3, [r4, #8]	@ zero_extendqisi2
 4157 010e 4BB9     		cbnz	r3, .L151
 4158              	.LBB1122:
 4159              	.LBB1123:
 4160              		.loc 2 784 10 view .LVU1295
 4161 0110 FFF7FEFF 		bl	chThdEnqueueTimeoutS
ARM GAS  /tmp/ccstZxWH.s 			page 74


 4162              	.LVL213:
 4163              		.loc 2 784 10 view .LVU1296
 4164              	.LBE1123:
 4165              	.LBE1122:
 4166              		.loc 1 606 5 is_stmt 1 view .LVU1297
 4167              		.loc 1 606 8 is_stmt 0 view .LVU1298
 4168 0114 0028     		cmp	r0, #0
 4169 0116 05DB     		blt	.L151
 4170              	.LVL214:
 4171              	.L149:
 4172              		.loc 1 602 5 is_stmt 1 view .LVU1299
 4173              		.loc 1 605 5 view .LVU1300
 4174              	.LBB1126:
 4175              	.LBI1122:
 4176              		.loc 2 781 21 view .LVU1301
 4177              	.LBB1124:
 4178              		.loc 2 784 3 view .LVU1302
 4179              	.LBE1124:
 4180              	.LBE1126:
 4181              	.LBE1121:
 4182              		.loc 1 601 9 view .LVU1303
 4183              		.loc 1 601 10 is_stmt 0 view .LVU1304
 4184 0118 E368     		ldr	r3, [r4, #12]
 4185              	.LBB1128:
 4186              	.LBB1127:
 4187              	.LBB1125:
 4188              		.loc 2 784 10 view .LVU1305
 4189 011a 3946     		mov	r1, r7
 4190 011c 2046     		mov	r0, r4
 4191              	.LBE1125:
 4192              	.LBE1127:
 4193              	.LBE1128:
 4194              		.loc 1 601 9 view .LVU1306
 4195 011e 002B     		cmp	r3, #0
 4196 0120 F4D0     		beq	.L152
 4197              	.LVL215:
 4198              		.loc 1 601 9 view .LVU1307
 4199 0122 CAE7     		b	.L178
 4200              	.LVL216:
 4201              	.L151:
 4202              		.loc 1 601 9 view .LVU1308
 4203              	.LBE1120:
 4204              	.LBE1119:
 4205              		.loc 1 778 7 is_stmt 1 view .LVU1309
 4206              		.loc 1 779 9 view .LVU1310
 4207              	.LBB1129:
 4208              	.LBI1129:
 4209              		.loc 2 502 20 view .LVU1311
 4210              	.LBE1129:
 4211              	.LBE1179:
 4212              	.LBE1194:
 4213              		.loc 2 504 3 view .LVU1312
 4214              	.LBB1195:
 4215              	.LBB1180:
 4216              	.LBB1138:
 4217              	.LBB1130:
 4218              	.LBI1130:
ARM GAS  /tmp/ccstZxWH.s 			page 75


 4219              		.loc 5 386 20 view .LVU1313
 4220              	.LBB1131:
 4221              		.loc 5 388 22 view .LVU1314
 4222              		.loc 5 389 33 view .LVU1315
 4223              		.loc 5 395 3 view .LVU1316
 4224              		.loc 5 395 3 view .LVU1317
 4225              		.loc 5 395 3 view .LVU1318
 4226              		.loc 5 399 3 view .LVU1319
 4227              	.LBB1132:
 4228              	.LBI1132:
 4229              		.loc 6 618 20 view .LVU1320
 4230              	.LBE1132:
 4231              	.LBE1131:
 4232              	.LBE1130:
 4233              	.LBE1138:
 4234              	.LBE1180:
 4235              	.LBE1195:
 4236              		.loc 6 621 3 view .LVU1321
 4237              	.LBB1196:
 4238              	.LBB1181:
 4239              	.LBB1139:
 4240              	.LBB1137:
 4241              	.LBB1136:
 4242              	.LBB1135:
 4243              	.LBB1133:
 4244              	.LBI1133:
 4245              		.loc 7 262 57 view .LVU1322
 4246              	.LBB1134:
 4247              		.loc 7 264 3 view .LVU1323
 4248 0124 0023     		movs	r3, #0
 4249              		.syntax unified
 4250              	@ 264 "../../../os/common/ext/CMSIS/include/cmsis_gcc.h" 1
 4251 0126 83F31188 		MSR basepri, r3
 4252              	@ 0 "" 2
 4253              	.LVL217:
 4254              		.loc 7 264 3 is_stmt 0 view .LVU1324
 4255              		.thumb
 4256              		.syntax unified
 4257              	.LBE1134:
 4258              	.LBE1133:
 4259              	.LBE1135:
 4260              	.LBE1136:
 4261              	.LBE1137:
 4262              	.LBE1139:
 4263              		.loc 1 780 9 is_stmt 1 view .LVU1325
 4264              	.L146:
 4265              		.loc 1 780 9 is_stmt 0 view .LVU1326
 4266              	.LBE1181:
 4267              	.LBE1196:
 4268              		.loc 1 818 1 view .LVU1327
 4269 012a 2846     		mov	r0, r5
 4270 012c 03B0     		add	sp, sp, #12
 4271              		.cfi_remember_state
 4272              		.cfi_def_cfa_offset 36
 4273              		@ sp needed
 4274 012e BDE8F08F 		pop	{r4, r5, r6, r7, r8, r9, r10, fp, pc}
 4275              	.LVL218:
ARM GAS  /tmp/ccstZxWH.s 			page 76


 4276              	.L181:
 4277              		.cfi_restore_state
 4278              	.LBB1197:
 4279              	.LBB1182:
 4280              	.LBB1140:
 4281              		.loc 1 771 11 is_stmt 1 view .LVU1328
 4282              	.LBB1105:
 4283              	.LBI1105:
 4284              		.loc 2 502 20 view .LVU1329
 4285              	.LBE1105:
 4286              	.LBE1140:
 4287              	.LBE1182:
 4288              	.LBE1197:
 4289              		.loc 2 504 3 view .LVU1330
 4290              	.LBB1198:
 4291              	.LBB1183:
 4292              	.LBB1141:
 4293              	.LBB1114:
 4294              	.LBB1106:
 4295              	.LBI1106:
 4296              		.loc 5 386 20 view .LVU1331
 4297              	.LBB1107:
 4298              		.loc 5 388 22 view .LVU1332
 4299              		.loc 5 389 33 view .LVU1333
 4300              		.loc 5 395 3 view .LVU1334
 4301              		.loc 5 395 3 view .LVU1335
 4302              		.loc 5 395 3 view .LVU1336
 4303              		.loc 5 399 3 view .LVU1337
 4304              	.LBB1108:
 4305              	.LBI1108:
 4306              		.loc 6 618 20 view .LVU1338
 4307              	.LBE1108:
 4308              	.LBE1107:
 4309              	.LBE1106:
 4310              	.LBE1114:
 4311              	.LBE1141:
 4312              	.LBE1183:
 4313              	.LBE1198:
 4314              		.loc 6 621 3 view .LVU1339
 4315              	.LBB1199:
 4316              	.LBB1184:
 4317              	.LBB1142:
 4318              	.LBB1115:
 4319              	.LBB1113:
 4320              	.LBB1112:
 4321              	.LBB1111:
 4322              	.LBB1109:
 4323              	.LBI1109:
 4324              		.loc 7 262 57 view .LVU1340
 4325              	.LBB1110:
 4326              		.loc 7 264 3 view .LVU1341
 4327              		.syntax unified
 4328              	@ 264 "../../../os/common/ext/CMSIS/include/cmsis_gcc.h" 1
 4329 0132 80F31188 		MSR basepri, r0
 4330              	@ 0 "" 2
 4331              	.LVL219:
 4332              		.loc 7 264 3 is_stmt 0 view .LVU1342
ARM GAS  /tmp/ccstZxWH.s 			page 77


 4333              		.thumb
 4334              		.syntax unified
 4335              	.LBE1110:
 4336              	.LBE1109:
 4337              	.LBE1111:
 4338              	.LBE1112:
 4339              	.LBE1113:
 4340              	.LBE1115:
 4341              		.loc 1 772 11 is_stmt 1 view .LVU1343
 4342              	.LBE1142:
 4343              	.LBE1184:
 4344              	.LBE1199:
 4345              		.loc 1 818 1 is_stmt 0 view .LVU1344
 4346 0136 2846     		mov	r0, r5
 4347 0138 03B0     		add	sp, sp, #12
 4348              		.cfi_def_cfa_offset 36
 4349              		@ sp needed
 4350 013a BDE8F08F 		pop	{r4, r5, r6, r7, r8, r9, r10, fp, pc}
 4351              		.loc 1 818 1 view .LVU1345
 4352              		.cfi_endproc
 4353              	.LFE296:
 4354              		.size	obqWriteTimeout, .-obqWriteTimeout
 4355 013e 00BF     		.section	.text.obqTryFlushI,"ax",%progbits
 4356              		.align	1
 4357              		.p2align 4,,15
 4358              		.global	obqTryFlushI
 4359              		.syntax unified
 4360              		.thumb
 4361              		.thumb_func
 4362              		.fpu softvfp
 4363              		.type	obqTryFlushI, %function
 4364              	obqTryFlushI:
 4365              	.LVL220:
 4366              	.LFB297:
 4367              		.loc 1 833 49 is_stmt 1 view -0
 4368              		.cfi_startproc
 4369              		@ args = 0, pretend = 0, frame = 0
 4370              		@ frame_needed = 0, uses_anonymous_args = 0
 4371              		@ link register save eliminated.
 4372              		.loc 1 835 23 view .LVU1347
 4373              		.loc 1 839 3 view .LVU1348
 4374              		.loc 1 839 7 is_stmt 0 view .LVU1349
 4375 0000 D0E90423 		ldrd	r2, r3, [r0, #16]
 4376 0004 9A42     		cmp	r2, r3
 4377 0006 01D0     		beq	.L191
 4378              	.L187:
 4379              		.loc 1 860 10 view .LVU1350
 4380 0008 0020     		movs	r0, #0
 4381              	.LVL221:
 4382              		.loc 1 860 10 view .LVU1351
 4383 000a 7047     		bx	lr
 4384              	.LVL222:
 4385              	.L191:
 4386              		.loc 1 839 7 discriminator 1 view .LVU1352
 4387 000c C368     		ldr	r3, [r0, #12]
 4388 000e 002B     		cmp	r3, #0
 4389 0010 FAD0     		beq	.L187
ARM GAS  /tmp/ccstZxWH.s 			page 78


 4390              		.loc 1 839 33 view .LVU1353
 4391 0012 836A     		ldr	r3, [r0, #40]
 4392              		.loc 1 839 25 view .LVU1354
 4393 0014 002B     		cmp	r3, #0
 4394 0016 F7D0     		beq	.L187
 4395              	.LBB1200:
 4396              		.loc 1 840 5 is_stmt 1 view .LVU1355
 4397              		.loc 1 840 12 is_stmt 0 view .LVU1356
 4398 0018 043B     		subs	r3, r3, #4
 4399              	.LVL223:
 4400              		.loc 1 842 5 is_stmt 1 view .LVU1357
 4401              		.loc 1 842 8 is_stmt 0 view .LVU1358
 4402 001a 9B1A     		subs	r3, r3, r2
 4403              	.LVL224:
 4404              		.loc 1 842 8 view .LVU1359
 4405 001c F4D0     		beq	.L187
 4406              		.loc 1 845 7 is_stmt 1 view .LVU1360
 4407              		.loc 1 845 33 is_stmt 0 view .LVU1361
 4408 001e 1360     		str	r3, [r2]
 4409              		.loc 1 848 7 is_stmt 1 view .LVU1362
 4410              		.loc 1 849 20 is_stmt 0 view .LVU1363
 4411 0020 D0F81CC0 		ldr	ip, [r0, #28]
 4412              		.loc 1 848 11 view .LVU1364
 4413 0024 C368     		ldr	r3, [r0, #12]
 4414              	.LVL225:
 4415              		.loc 1 850 10 view .LVU1365
 4416 0026 8169     		ldr	r1, [r0, #24]
 4417              		.loc 1 849 20 view .LVU1366
 4418 0028 6244     		add	r2, r2, ip
 4419              	.LVL226:
 4420              		.loc 1 848 21 view .LVU1367
 4421 002a 013B     		subs	r3, r3, #1
 4422              		.loc 1 850 10 view .LVU1368
 4423 002c 8A42     		cmp	r2, r1
 4424              		.loc 1 848 21 view .LVU1369
 4425 002e C360     		str	r3, [r0, #12]
 4426              	.LVL227:
 4427              		.loc 1 849 7 is_stmt 1 view .LVU1370
 4428              		.loc 1 851 22 is_stmt 0 view .LVU1371
 4429 0030 28BF     		it	cs
 4430 0032 436A     		ldrcs	r3, [r0, #36]
 4431              		.loc 1 849 20 view .LVU1372
 4432 0034 0261     		str	r2, [r0, #16]
 4433              	.LVL228:
 4434              		.loc 1 850 7 is_stmt 1 view .LVU1373
 4435              		.loc 1 851 9 view .LVU1374
 4436              		.loc 1 851 22 is_stmt 0 view .LVU1375
 4437 0036 28BF     		it	cs
 4438 0038 0361     		strcs	r3, [r0, #16]
 4439              		.loc 1 855 7 is_stmt 1 view .LVU1376
 4440              		.loc 1 855 17 is_stmt 0 view .LVU1377
 4441 003a 0023     		movs	r3, #0
 4442 003c 8362     		str	r3, [r0, #40]
 4443              		.loc 1 857 7 is_stmt 1 view .LVU1378
 4444              		.loc 1 857 14 is_stmt 0 view .LVU1379
 4445 003e 0120     		movs	r0, #1
 4446              	.LVL229:
ARM GAS  /tmp/ccstZxWH.s 			page 79


 4447              		.loc 1 857 14 view .LVU1380
 4448 0040 7047     		bx	lr
 4449              	.LBE1200:
 4450              		.cfi_endproc
 4451              	.LFE297:
 4452              		.size	obqTryFlushI, .-obqTryFlushI
 4453 0042 00BF     		.section	.text.obqFlush,"ax",%progbits
 4454              		.align	1
 4455              		.p2align 4,,15
 4456              		.global	obqFlush
 4457              		.syntax unified
 4458              		.thumb
 4459              		.thumb_func
 4460              		.fpu softvfp
 4461              		.type	obqFlush, %function
 4462              	obqFlush:
 4463              	.LVL230:
 4464              	.LFB298:
 4465              		.loc 1 870 45 is_stmt 1 view -0
 4466              		.cfi_startproc
 4467              		@ args = 0, pretend = 0, frame = 0
 4468              		@ frame_needed = 0, uses_anonymous_args = 0
 4469              		.loc 1 872 3 view .LVU1382
 4470              	.LBB1215:
 4471              	.LBI1215:
 4472              		.loc 2 491 20 view .LVU1383
 4473              	.LBE1215:
 4474              		.loc 2 493 3 view .LVU1384
 4475              	.LBB1227:
 4476              	.LBB1216:
 4477              	.LBI1216:
 4478              		.loc 5 374 20 view .LVU1385
 4479              	.LBE1216:
 4480              	.LBE1227:
 4481              		.loc 5 376 3 view .LVU1386
 4482              	.LBB1228:
 4483              	.LBB1224:
 4484              	.LBB1217:
 4485              	.LBI1217:
 4486              		.loc 6 594 20 view .LVU1387
 4487              	.LBE1217:
 4488              	.LBE1224:
 4489              	.LBE1228:
 4490              		.loc 6 602 3 view .LVU1388
 4491              	.LBB1229:
 4492              	.LBB1225:
 4493              	.LBB1222:
 4494              	.LBB1218:
 4495              	.LBI1218:
 4496              		.loc 7 262 57 view .LVU1389
 4497              	.LBB1219:
 4498              		.loc 7 264 3 view .LVU1390
 4499              	.LBE1219:
 4500              	.LBE1218:
 4501              	.LBE1222:
 4502              	.LBE1225:
 4503              	.LBE1229:
ARM GAS  /tmp/ccstZxWH.s 			page 80


 4504              		.loc 1 870 45 is_stmt 0 view .LVU1391
 4505 0000 08B5     		push	{r3, lr}
 4506              		.cfi_def_cfa_offset 8
 4507              		.cfi_offset 3, -8
 4508              		.cfi_offset 14, -4
 4509              	.LBB1230:
 4510              	.LBB1226:
 4511              	.LBB1223:
 4512              	.LBB1221:
 4513              	.LBB1220:
 4514              		.loc 7 264 3 view .LVU1392
 4515 0002 2023     		movs	r3, #32
 4516              		.syntax unified
 4517              	@ 264 "../../../os/common/ext/CMSIS/include/cmsis_gcc.h" 1
 4518 0004 83F31188 		MSR basepri, r3
 4519              	@ 0 "" 2
 4520              	.LVL231:
 4521              		.loc 7 264 3 view .LVU1393
 4522              		.thumb
 4523              		.syntax unified
 4524              	.LBE1220:
 4525              	.LBE1221:
 4526              	.LBE1223:
 4527              	.LBE1226:
 4528              	.LBE1230:
 4529              		.loc 5 377 34 is_stmt 1 view .LVU1394
 4530              		.loc 5 378 20 view .LVU1395
 4531              		.loc 1 875 3 view .LVU1396
 4532              		.loc 1 875 11 is_stmt 0 view .LVU1397
 4533 0008 836A     		ldr	r3, [r0, #40]
 4534              		.loc 1 875 6 view .LVU1398
 4535 000a 1BB1     		cbz	r3, .L194
 4536              	.LBB1231:
 4537              		.loc 1 876 5 is_stmt 1 view .LVU1399
 4538              		.loc 1 876 52 is_stmt 0 view .LVU1400
 4539 000c 0269     		ldr	r2, [r0, #16]
 4540              		.loc 1 876 12 view .LVU1401
 4541 000e 043B     		subs	r3, r3, #4
 4542              	.LVL232:
 4543              		.loc 1 878 5 is_stmt 1 view .LVU1402
 4544              		.loc 1 878 8 is_stmt 0 view .LVU1403
 4545 0010 9B1A     		subs	r3, r3, r2
 4546              	.LVL233:
 4547              		.loc 1 878 8 view .LVU1404
 4548 0012 03D1     		bne	.L204
 4549              	.LVL234:
 4550              	.L194:
 4551              		.loc 1 878 8 view .LVU1405
 4552              	.LBE1231:
 4553              		.loc 1 883 3 is_stmt 1 view .LVU1406
 4554              	.LBB1234:
 4555              	.LBI1234:
 4556              		.loc 2 502 20 view .LVU1407
 4557              	.LBE1234:
 4558              		.loc 2 504 3 view .LVU1408
 4559              	.LBB1251:
 4560              	.LBB1235:
ARM GAS  /tmp/ccstZxWH.s 			page 81


 4561              	.LBI1235:
 4562              		.loc 5 386 20 view .LVU1409
 4563              	.LBB1236:
 4564              		.loc 5 388 22 view .LVU1410
 4565              		.loc 5 389 33 view .LVU1411
 4566              		.loc 5 395 3 view .LVU1412
 4567              		.loc 5 395 3 view .LVU1413
 4568              		.loc 5 395 3 view .LVU1414
 4569              		.loc 5 399 3 view .LVU1415
 4570              	.LBB1237:
 4571              	.LBI1237:
 4572              		.loc 6 618 20 view .LVU1416
 4573              	.LBE1237:
 4574              	.LBE1236:
 4575              	.LBE1235:
 4576              	.LBE1251:
 4577              		.loc 6 621 3 view .LVU1417
 4578              	.LBB1252:
 4579              	.LBB1248:
 4580              	.LBB1245:
 4581              	.LBB1242:
 4582              	.LBB1238:
 4583              	.LBI1238:
 4584              		.loc 7 262 57 view .LVU1418
 4585              	.LBB1239:
 4586              		.loc 7 264 3 view .LVU1419
 4587 0014 0023     		movs	r3, #0
 4588              		.syntax unified
 4589              	@ 264 "../../../os/common/ext/CMSIS/include/cmsis_gcc.h" 1
 4590 0016 83F31188 		MSR basepri, r3
 4591              	@ 0 "" 2
 4592              	.LVL235:
 4593              		.loc 7 264 3 is_stmt 0 view .LVU1420
 4594              		.thumb
 4595              		.syntax unified
 4596              	.LBE1239:
 4597              	.LBE1238:
 4598              	.LBE1242:
 4599              	.LBE1245:
 4600              	.LBE1248:
 4601              	.LBE1252:
 4602              		.loc 1 884 1 view .LVU1421
 4603 001a 08BD     		pop	{r3, pc}
 4604              	.LVL236:
 4605              	.L204:
 4606              	.LBB1253:
 4607              		.loc 1 879 7 is_stmt 1 view .LVU1422
 4608              	.LBB1232:
 4609              	.LBI1232:
 4610              		.loc 1 645 6 view .LVU1423
 4611              	.LBB1233:
 4612              		.loc 1 647 23 view .LVU1424
 4613              		.loc 1 648 3 view .LVU1425
 4614              		.loc 1 648 3 view .LVU1426
 4615              		.loc 1 648 3 view .LVU1427
 4616              		.loc 1 649 3 view .LVU1428
 4617              		.loc 1 649 3 view .LVU1429
ARM GAS  /tmp/ccstZxWH.s 			page 82


 4618              		.loc 1 649 3 view .LVU1430
 4619              		.loc 1 652 3 view .LVU1431
 4620              		.loc 1 652 29 is_stmt 0 view .LVU1432
 4621 001c 1360     		str	r3, [r2]
 4622              		.loc 1 655 3 is_stmt 1 view .LVU1433
 4623              		.loc 1 656 16 is_stmt 0 view .LVU1434
 4624 001e D0F81CC0 		ldr	ip, [r0, #28]
 4625              		.loc 1 655 7 view .LVU1435
 4626 0022 C368     		ldr	r3, [r0, #12]
 4627              	.LVL237:
 4628              		.loc 1 657 6 view .LVU1436
 4629 0024 8169     		ldr	r1, [r0, #24]
 4630              		.loc 1 656 16 view .LVU1437
 4631 0026 6244     		add	r2, r2, ip
 4632              	.LVL238:
 4633              		.loc 1 655 17 view .LVU1438
 4634 0028 013B     		subs	r3, r3, #1
 4635              		.loc 1 657 6 view .LVU1439
 4636 002a 8A42     		cmp	r2, r1
 4637              		.loc 1 655 17 view .LVU1440
 4638 002c C360     		str	r3, [r0, #12]
 4639              	.LVL239:
 4640              		.loc 1 656 3 is_stmt 1 view .LVU1441
 4641              		.loc 1 658 18 is_stmt 0 view .LVU1442
 4642 002e 28BF     		it	cs
 4643 0030 436A     		ldrcs	r3, [r0, #36]
 4644              		.loc 1 656 16 view .LVU1443
 4645 0032 0261     		str	r2, [r0, #16]
 4646              	.LVL240:
 4647              		.loc 1 657 3 is_stmt 1 view .LVU1444
 4648              		.loc 1 658 5 view .LVU1445
 4649              		.loc 1 662 3 view .LVU1446
 4650              		.loc 1 658 18 is_stmt 0 view .LVU1447
 4651 0034 28BF     		it	cs
 4652 0036 0361     		strcs	r3, [r0, #16]
 4653              		.loc 1 665 11 view .LVU1448
 4654 0038 036B     		ldr	r3, [r0, #48]
 4655              		.loc 1 662 13 view .LVU1449
 4656 003a 0022     		movs	r2, #0
 4657 003c 8262     		str	r2, [r0, #40]
 4658              		.loc 1 665 3 is_stmt 1 view .LVU1450
 4659              		.loc 1 665 6 is_stmt 0 view .LVU1451
 4660 003e 002B     		cmp	r3, #0
 4661 0040 E8D0     		beq	.L194
 4662              		.loc 1 666 5 is_stmt 1 view .LVU1452
 4663 0042 9847     		blx	r3
 4664              	.LVL241:
 4665              		.loc 1 666 5 is_stmt 0 view .LVU1453
 4666              	.LBE1233:
 4667              	.LBE1232:
 4668              	.LBE1253:
 4669              		.loc 1 883 3 is_stmt 1 view .LVU1454
 4670              	.LBB1254:
 4671              		.loc 2 502 20 view .LVU1455
 4672              	.LBE1254:
 4673              		.loc 2 504 3 view .LVU1456
 4674              	.LBB1255:
ARM GAS  /tmp/ccstZxWH.s 			page 83


 4675              	.LBB1249:
 4676              		.loc 5 386 20 view .LVU1457
 4677              	.LBB1246:
 4678              		.loc 5 388 22 view .LVU1458
 4679              		.loc 5 389 33 view .LVU1459
 4680              		.loc 5 395 3 view .LVU1460
 4681              		.loc 5 395 3 view .LVU1461
 4682              		.loc 5 395 3 view .LVU1462
 4683              		.loc 5 399 3 view .LVU1463
 4684              	.LBB1243:
 4685              		.loc 6 618 20 view .LVU1464
 4686              	.LBE1243:
 4687              	.LBE1246:
 4688              	.LBE1249:
 4689              	.LBE1255:
 4690              		.loc 6 621 3 view .LVU1465
 4691              	.LBB1256:
 4692              	.LBB1250:
 4693              	.LBB1247:
 4694              	.LBB1244:
 4695              	.LBB1241:
 4696              		.loc 7 262 57 view .LVU1466
 4697              	.LBB1240:
 4698              		.loc 7 264 3 view .LVU1467
 4699 0044 0023     		movs	r3, #0
 4700              		.syntax unified
 4701              	@ 264 "../../../os/common/ext/CMSIS/include/cmsis_gcc.h" 1
 4702 0046 83F31188 		MSR basepri, r3
 4703              	@ 0 "" 2
 4704              	.LVL242:
 4705              		.loc 7 264 3 is_stmt 0 view .LVU1468
 4706              		.thumb
 4707              		.syntax unified
 4708              	.LBE1240:
 4709              	.LBE1241:
 4710              	.LBE1244:
 4711              	.LBE1247:
 4712              	.LBE1250:
 4713              	.LBE1256:
 4714              		.loc 1 884 1 view .LVU1469
 4715 004a 08BD     		pop	{r3, pc}
 4716              		.cfi_endproc
 4717              	.LFE298:
 4718              		.size	obqFlush, .-obqFlush
 4719              		.text
 4720              	.Letext0:
 4721              		.file 11 "/usr/lib/gcc/arm-none-eabi/10.3.1/include/stddef.h"
 4722              		.file 12 "/usr/lib/gcc/arm-none-eabi/10.3.1/include/stdint.h"
 4723              		.file 13 "../../../os/common/ports/ARMCMx/compilers/GCC/chtypes.h"
 4724              		.file 14 "../../../os/rt/include/chsystypes.h"
 4725              		.file 15 "../../../os/common/ports/ARMCMx/chcore.h"
 4726              		.file 16 "../../../os/hal/ports/STM32/LLD/TIMv1/stm32_tim.h"
 4727              		.file 17 "../../../os/rt/include/chsem.h"
 4728              		.file 18 "../../../os/rt/include/chmtx.h"
 4729              		.file 19 "../../../os/hal/include/hal_buffers.h"
 4730              		.file 20 "<built-in>"