ARM GAS  /tmp/ccXGWUfY.s 			page 1


   1              		.cpu cortex-m4
   2              		.eabi_attribute 20, 1
   3              		.eabi_attribute 21, 1
   4              		.eabi_attribute 23, 3
   5              		.eabi_attribute 24, 1
   6              		.eabi_attribute 25, 1
   7              		.eabi_attribute 26, 1
   8              		.eabi_attribute 30, 2
   9              		.eabi_attribute 34, 1
  10              		.eabi_attribute 18, 4
  11              		.file	"hal_pal_lld.c"
  12              		.text
  13              	.Ltext0:
  14              		.cfi_sections	.debug_frame
  15              		.section	.text._pal_lld_init,"ax",%progbits
  16              		.align	1
  17              		.p2align 4,,15
  18              		.global	_pal_lld_init
  19              		.arch armv7e-m
  20              		.syntax unified
  21              		.thumb
  22              		.thumb_func
  23              		.fpu softvfp
  24              		.type	_pal_lld_init, %function
  25              	_pal_lld_init:
  26              	.LVL0:
  27              	.LFB278:
  28              		.file 1 "../../../os/hal/ports/STM32/LLD/GPIOv2/hal_pal_lld.c"
  29              		.loc 1 88 45 view -0
  30              		.cfi_startproc
  31              		@ args = 0, pretend = 0, frame = 0
  32              		@ frame_needed = 0, uses_anonymous_args = 0
  33              		@ link register save eliminated.
  34              		.loc 1 104 3 view .LVU1
  35              		.loc 1 104 18 is_stmt 0 view .LVU2
  36 0000 624B     		ldr	r3, .L3
  37 0002 196B     		ldr	r1, [r3, #48]
  38 0004 40F2FF1C 		movw	ip, #511
  39 0008 41EA0C01 		orr	r1, r1, ip
  40 000c 1963     		str	r1, [r3, #48]
  41              		.loc 1 105 3 is_stmt 1 view .LVU3
  42              		.loc 1 105 18 is_stmt 0 view .LVU4
  43 000e 1A6D     		ldr	r2, [r3, #80]
  44 0010 42EA0C02 		orr	r2, r2, ip
  45 0014 1A65     		str	r2, [r3, #80]
  46              		.loc 1 112 3 is_stmt 1 view .LVU5
  47              	.LVL1:
  48              	.LBB20:
  49              	.LBI20:
  50              		.loc 1 61 13 view .LVU6
  51              	.LBB21:
  52              		.loc 1 63 3 view .LVU7
  53              		.loc 1 63 18 is_stmt 0 view .LVU8
  54 0016 A3F56053 		sub	r3, r3, #14336
  55              		.loc 1 63 26 view .LVU9
  56 001a 4268     		ldr	r2, [r0, #4]
  57              		.loc 1 63 18 view .LVU10
ARM GAS  /tmp/ccXGWUfY.s 			page 2


  58 001c 5A60     		str	r2, [r3, #4]
  59              		.loc 1 64 3 is_stmt 1 view .LVU11
  60              		.loc 1 64 26 is_stmt 0 view .LVU12
  61 001e 8268     		ldr	r2, [r0, #8]
  62              		.loc 1 64 18 view .LVU13
  63 0020 9A60     		str	r2, [r3, #8]
  64              		.loc 1 65 3 is_stmt 1 view .LVU14
  65              		.loc 1 65 26 is_stmt 0 view .LVU15
  66 0022 C268     		ldr	r2, [r0, #12]
  67              		.loc 1 65 18 view .LVU16
  68 0024 DA60     		str	r2, [r3, #12]
  69              		.loc 1 66 3 is_stmt 1 view .LVU17
  70              		.loc 1 66 26 is_stmt 0 view .LVU18
  71 0026 0269     		ldr	r2, [r0, #16]
  72              		.loc 1 66 18 view .LVU19
  73 0028 5A61     		str	r2, [r3, #20]
  74              		.loc 1 67 3 is_stmt 1 view .LVU20
  75              		.loc 1 67 26 is_stmt 0 view .LVU21
  76 002a 4269     		ldr	r2, [r0, #20]
  77              		.loc 1 67 18 view .LVU22
  78 002c 1A62     		str	r2, [r3, #32]
  79              		.loc 1 68 3 is_stmt 1 view .LVU23
  80              		.loc 1 68 26 is_stmt 0 view .LVU24
  81 002e 8269     		ldr	r2, [r0, #24]
  82              		.loc 1 68 18 view .LVU25
  83 0030 5A62     		str	r2, [r3, #36]
  84              		.loc 1 69 3 is_stmt 1 view .LVU26
  85              		.loc 1 69 26 is_stmt 0 view .LVU27
  86 0032 0268     		ldr	r2, [r0]
  87              		.loc 1 69 18 view .LVU28
  88 0034 1A60     		str	r2, [r3]
  89              	.LVL2:
  90              		.loc 1 69 18 view .LVU29
  91              	.LBE21:
  92              	.LBE20:
  93              		.loc 1 115 3 is_stmt 1 view .LVU30
  94              	.LBB22:
  95              	.LBI22:
  96              		.loc 1 61 13 view .LVU31
  97              	.LBB23:
  98              		.loc 1 63 3 view .LVU32
  99              		.loc 1 63 18 is_stmt 0 view .LVU33
 100 0036 564A     		ldr	r2, .L3+4
 101              		.loc 1 63 26 view .LVU34
 102 0038 036A     		ldr	r3, [r0, #32]
 103              		.loc 1 63 18 view .LVU35
 104 003a 5360     		str	r3, [r2, #4]
 105              		.loc 1 64 3 is_stmt 1 view .LVU36
 106              		.loc 1 64 26 is_stmt 0 view .LVU37
 107 003c 436A     		ldr	r3, [r0, #36]
 108              		.loc 1 64 18 view .LVU38
 109 003e 9360     		str	r3, [r2, #8]
 110              		.loc 1 65 3 is_stmt 1 view .LVU39
 111              		.loc 1 65 26 is_stmt 0 view .LVU40
 112 0040 836A     		ldr	r3, [r0, #40]
 113              		.loc 1 65 18 view .LVU41
 114 0042 D360     		str	r3, [r2, #12]
ARM GAS  /tmp/ccXGWUfY.s 			page 3


 115              		.loc 1 66 3 is_stmt 1 view .LVU42
 116              		.loc 1 66 26 is_stmt 0 view .LVU43
 117 0044 C36A     		ldr	r3, [r0, #44]
 118              		.loc 1 66 18 view .LVU44
 119 0046 5361     		str	r3, [r2, #20]
 120              		.loc 1 67 3 is_stmt 1 view .LVU45
 121              		.loc 1 67 26 is_stmt 0 view .LVU46
 122 0048 036B     		ldr	r3, [r0, #48]
 123              		.loc 1 67 18 view .LVU47
 124 004a 1362     		str	r3, [r2, #32]
 125              		.loc 1 68 3 is_stmt 1 view .LVU48
 126              		.loc 1 68 26 is_stmt 0 view .LVU49
 127 004c 436B     		ldr	r3, [r0, #52]
 128              		.loc 1 68 18 view .LVU50
 129 004e 5362     		str	r3, [r2, #36]
 130              		.loc 1 69 3 is_stmt 1 view .LVU51
 131              		.loc 1 69 26 is_stmt 0 view .LVU52
 132 0050 C169     		ldr	r1, [r0, #28]
 133              	.LBE23:
 134              	.LBE22:
 135              	.LBB25:
 136              	.LBB26:
 137              		.loc 1 63 18 view .LVU53
 138 0052 504B     		ldr	r3, .L3+8
 139              	.LBE26:
 140              	.LBE25:
 141              	.LBB28:
 142              	.LBB24:
 143              		.loc 1 69 18 view .LVU54
 144 0054 1160     		str	r1, [r2]
 145              	.LVL3:
 146              		.loc 1 69 18 view .LVU55
 147              	.LBE24:
 148              	.LBE28:
 149              		.loc 1 118 3 is_stmt 1 view .LVU56
 150              	.LBB29:
 151              	.LBI25:
 152              		.loc 1 61 13 view .LVU57
 153              	.LBB27:
 154              		.loc 1 63 3 view .LVU58
 155              		.loc 1 63 26 is_stmt 0 view .LVU59
 156 0056 C26B     		ldr	r2, [r0, #60]
 157              		.loc 1 63 18 view .LVU60
 158 0058 5A60     		str	r2, [r3, #4]
 159              		.loc 1 64 3 is_stmt 1 view .LVU61
 160              		.loc 1 64 26 is_stmt 0 view .LVU62
 161 005a 026C     		ldr	r2, [r0, #64]
 162              		.loc 1 64 18 view .LVU63
 163 005c 9A60     		str	r2, [r3, #8]
 164              		.loc 1 65 3 is_stmt 1 view .LVU64
 165              		.loc 1 65 26 is_stmt 0 view .LVU65
 166 005e 426C     		ldr	r2, [r0, #68]
 167              		.loc 1 65 18 view .LVU66
 168 0060 DA60     		str	r2, [r3, #12]
 169              		.loc 1 66 3 is_stmt 1 view .LVU67
 170              		.loc 1 66 26 is_stmt 0 view .LVU68
 171 0062 826C     		ldr	r2, [r0, #72]
ARM GAS  /tmp/ccXGWUfY.s 			page 4


 172              		.loc 1 66 18 view .LVU69
 173 0064 5A61     		str	r2, [r3, #20]
 174              		.loc 1 67 3 is_stmt 1 view .LVU70
 175              		.loc 1 67 26 is_stmt 0 view .LVU71
 176 0066 C26C     		ldr	r2, [r0, #76]
 177              		.loc 1 67 18 view .LVU72
 178 0068 1A62     		str	r2, [r3, #32]
 179              		.loc 1 68 3 is_stmt 1 view .LVU73
 180              		.loc 1 68 26 is_stmt 0 view .LVU74
 181 006a 026D     		ldr	r2, [r0, #80]
 182              		.loc 1 68 18 view .LVU75
 183 006c 5A62     		str	r2, [r3, #36]
 184              		.loc 1 69 3 is_stmt 1 view .LVU76
 185              		.loc 1 69 26 is_stmt 0 view .LVU77
 186 006e 826B     		ldr	r2, [r0, #56]
 187              		.loc 1 69 18 view .LVU78
 188 0070 1A60     		str	r2, [r3]
 189              	.LVL4:
 190              		.loc 1 69 18 view .LVU79
 191              	.LBE27:
 192              	.LBE29:
 193              		.loc 1 121 3 is_stmt 1 view .LVU80
 194              	.LBB30:
 195              	.LBI30:
 196              		.loc 1 61 13 view .LVU81
 197              	.LBB31:
 198              		.loc 1 63 3 view .LVU82
 199              		.loc 1 63 18 is_stmt 0 view .LVU83
 200 0072 494A     		ldr	r2, .L3+12
 201              		.loc 1 63 26 view .LVU84
 202 0074 836D     		ldr	r3, [r0, #88]
 203              		.loc 1 63 18 view .LVU85
 204 0076 5360     		str	r3, [r2, #4]
 205              		.loc 1 64 3 is_stmt 1 view .LVU86
 206              		.loc 1 64 26 is_stmt 0 view .LVU87
 207 0078 C36D     		ldr	r3, [r0, #92]
 208              		.loc 1 64 18 view .LVU88
 209 007a 9360     		str	r3, [r2, #8]
 210              		.loc 1 65 3 is_stmt 1 view .LVU89
 211              		.loc 1 65 26 is_stmt 0 view .LVU90
 212 007c 036E     		ldr	r3, [r0, #96]
 213              		.loc 1 65 18 view .LVU91
 214 007e D360     		str	r3, [r2, #12]
 215              		.loc 1 66 3 is_stmt 1 view .LVU92
 216              		.loc 1 66 26 is_stmt 0 view .LVU93
 217 0080 436E     		ldr	r3, [r0, #100]
 218              		.loc 1 66 18 view .LVU94
 219 0082 5361     		str	r3, [r2, #20]
 220              		.loc 1 67 3 is_stmt 1 view .LVU95
 221              		.loc 1 67 26 is_stmt 0 view .LVU96
 222 0084 836E     		ldr	r3, [r0, #104]
 223              		.loc 1 67 18 view .LVU97
 224 0086 1362     		str	r3, [r2, #32]
 225              		.loc 1 68 3 is_stmt 1 view .LVU98
 226              		.loc 1 68 26 is_stmt 0 view .LVU99
 227 0088 C36E     		ldr	r3, [r0, #108]
 228              		.loc 1 68 18 view .LVU100
ARM GAS  /tmp/ccXGWUfY.s 			page 5


 229 008a 5362     		str	r3, [r2, #36]
 230              		.loc 1 69 3 is_stmt 1 view .LVU101
 231              		.loc 1 69 26 is_stmt 0 view .LVU102
 232 008c 416D     		ldr	r1, [r0, #84]
 233              	.LBE31:
 234              	.LBE30:
 235              	.LBB33:
 236              	.LBB34:
 237              		.loc 1 63 18 view .LVU103
 238 008e 434B     		ldr	r3, .L3+16
 239              	.LBE34:
 240              	.LBE33:
 241              	.LBB36:
 242              	.LBB32:
 243              		.loc 1 69 18 view .LVU104
 244 0090 1160     		str	r1, [r2]
 245              	.LVL5:
 246              		.loc 1 69 18 view .LVU105
 247              	.LBE32:
 248              	.LBE36:
 249              		.loc 1 124 3 is_stmt 1 view .LVU106
 250              	.LBB37:
 251              	.LBI33:
 252              		.loc 1 61 13 view .LVU107
 253              	.LBB35:
 254              		.loc 1 63 3 view .LVU108
 255              		.loc 1 63 26 is_stmt 0 view .LVU109
 256 0092 426F     		ldr	r2, [r0, #116]
 257              		.loc 1 63 18 view .LVU110
 258 0094 5A60     		str	r2, [r3, #4]
 259              		.loc 1 64 3 is_stmt 1 view .LVU111
 260              		.loc 1 64 26 is_stmt 0 view .LVU112
 261 0096 826F     		ldr	r2, [r0, #120]
 262              		.loc 1 64 18 view .LVU113
 263 0098 9A60     		str	r2, [r3, #8]
 264              		.loc 1 65 3 is_stmt 1 view .LVU114
 265              		.loc 1 65 26 is_stmt 0 view .LVU115
 266 009a C26F     		ldr	r2, [r0, #124]
 267              		.loc 1 65 18 view .LVU116
 268 009c DA60     		str	r2, [r3, #12]
 269              		.loc 1 66 3 is_stmt 1 view .LVU117
 270              		.loc 1 66 26 is_stmt 0 view .LVU118
 271 009e D0F88020 		ldr	r2, [r0, #128]
 272              		.loc 1 66 18 view .LVU119
 273 00a2 5A61     		str	r2, [r3, #20]
 274              		.loc 1 67 3 is_stmt 1 view .LVU120
 275              		.loc 1 67 26 is_stmt 0 view .LVU121
 276 00a4 D0F88420 		ldr	r2, [r0, #132]
 277              		.loc 1 67 18 view .LVU122
 278 00a8 1A62     		str	r2, [r3, #32]
 279              		.loc 1 68 3 is_stmt 1 view .LVU123
 280              		.loc 1 68 26 is_stmt 0 view .LVU124
 281 00aa D0F88820 		ldr	r2, [r0, #136]
 282              		.loc 1 68 18 view .LVU125
 283 00ae 5A62     		str	r2, [r3, #36]
 284              		.loc 1 69 3 is_stmt 1 view .LVU126
 285              		.loc 1 69 26 is_stmt 0 view .LVU127
ARM GAS  /tmp/ccXGWUfY.s 			page 6


 286 00b0 026F     		ldr	r2, [r0, #112]
 287              		.loc 1 69 18 view .LVU128
 288 00b2 1A60     		str	r2, [r3]
 289              	.LVL6:
 290              		.loc 1 69 18 view .LVU129
 291              	.LBE35:
 292              	.LBE37:
 293              		.loc 1 127 3 is_stmt 1 view .LVU130
 294              	.LBB38:
 295              	.LBI38:
 296              		.loc 1 61 13 view .LVU131
 297              	.LBB39:
 298              		.loc 1 63 3 view .LVU132
 299              		.loc 1 63 26 is_stmt 0 view .LVU133
 300 00b4 D0F89020 		ldr	r2, [r0, #144]
 301              		.loc 1 63 18 view .LVU134
 302 00b8 C3F80424 		str	r2, [r3, #1028]
 303              		.loc 1 64 3 is_stmt 1 view .LVU135
 304              		.loc 1 64 26 is_stmt 0 view .LVU136
 305 00bc D0F89420 		ldr	r2, [r0, #148]
 306              		.loc 1 64 18 view .LVU137
 307 00c0 C3F80824 		str	r2, [r3, #1032]
 308              		.loc 1 65 3 is_stmt 1 view .LVU138
 309              		.loc 1 65 26 is_stmt 0 view .LVU139
 310 00c4 D0F89820 		ldr	r2, [r0, #152]
 311              		.loc 1 65 18 view .LVU140
 312 00c8 C3F80C24 		str	r2, [r3, #1036]
 313              		.loc 1 66 3 is_stmt 1 view .LVU141
 314              		.loc 1 66 26 is_stmt 0 view .LVU142
 315 00cc D0F89C20 		ldr	r2, [r0, #156]
 316              		.loc 1 66 18 view .LVU143
 317 00d0 C3F81424 		str	r2, [r3, #1044]
 318              		.loc 1 67 3 is_stmt 1 view .LVU144
 319              		.loc 1 67 26 is_stmt 0 view .LVU145
 320 00d4 D0F8A020 		ldr	r2, [r0, #160]
 321              		.loc 1 67 18 view .LVU146
 322 00d8 C3F82024 		str	r2, [r3, #1056]
 323              		.loc 1 68 3 is_stmt 1 view .LVU147
 324              		.loc 1 68 26 is_stmt 0 view .LVU148
 325 00dc D0F8A420 		ldr	r2, [r0, #164]
 326              		.loc 1 68 18 view .LVU149
 327 00e0 C3F82424 		str	r2, [r3, #1060]
 328              		.loc 1 69 3 is_stmt 1 view .LVU150
 329              		.loc 1 69 26 is_stmt 0 view .LVU151
 330 00e4 D0F88C20 		ldr	r2, [r0, #140]
 331              		.loc 1 69 18 view .LVU152
 332 00e8 C3F80024 		str	r2, [r3, #1024]
 333              	.LVL7:
 334              		.loc 1 69 18 view .LVU153
 335              	.LBE39:
 336              	.LBE38:
 337              		.loc 1 130 3 is_stmt 1 view .LVU154
 338              	.LBB40:
 339              	.LBI40:
 340              		.loc 1 61 13 view .LVU155
 341              	.LBB41:
 342              		.loc 1 63 3 view .LVU156
ARM GAS  /tmp/ccXGWUfY.s 			page 7


 343              		.loc 1 63 18 is_stmt 0 view .LVU157
 344 00ec 03F50063 		add	r3, r3, #2048
 345              		.loc 1 63 26 view .LVU158
 346 00f0 D0F8AC20 		ldr	r2, [r0, #172]
 347              		.loc 1 63 18 view .LVU159
 348 00f4 5A60     		str	r2, [r3, #4]
 349              		.loc 1 64 3 is_stmt 1 view .LVU160
 350              		.loc 1 64 26 is_stmt 0 view .LVU161
 351 00f6 D0F8B020 		ldr	r2, [r0, #176]
 352              		.loc 1 64 18 view .LVU162
 353 00fa 9A60     		str	r2, [r3, #8]
 354              		.loc 1 65 3 is_stmt 1 view .LVU163
 355              		.loc 1 65 26 is_stmt 0 view .LVU164
 356 00fc D0F8B420 		ldr	r2, [r0, #180]
 357              		.loc 1 65 18 view .LVU165
 358 0100 DA60     		str	r2, [r3, #12]
 359              		.loc 1 66 3 is_stmt 1 view .LVU166
 360              		.loc 1 66 26 is_stmt 0 view .LVU167
 361 0102 D0F8B820 		ldr	r2, [r0, #184]
 362              		.loc 1 66 18 view .LVU168
 363 0106 5A61     		str	r2, [r3, #20]
 364              		.loc 1 67 3 is_stmt 1 view .LVU169
 365              		.loc 1 67 26 is_stmt 0 view .LVU170
 366 0108 D0F8BC20 		ldr	r2, [r0, #188]
 367              		.loc 1 67 18 view .LVU171
 368 010c 1A62     		str	r2, [r3, #32]
 369              		.loc 1 68 3 is_stmt 1 view .LVU172
 370              		.loc 1 68 26 is_stmt 0 view .LVU173
 371 010e D0F8C020 		ldr	r2, [r0, #192]
 372              		.loc 1 68 18 view .LVU174
 373 0112 5A62     		str	r2, [r3, #36]
 374              		.loc 1 69 3 is_stmt 1 view .LVU175
 375              		.loc 1 69 26 is_stmt 0 view .LVU176
 376 0114 D0F8A820 		ldr	r2, [r0, #168]
 377              		.loc 1 69 18 view .LVU177
 378 0118 1A60     		str	r2, [r3]
 379              	.LVL8:
 380              		.loc 1 69 18 view .LVU178
 381              	.LBE41:
 382              	.LBE40:
 383              		.loc 1 133 3 is_stmt 1 view .LVU179
 384              	.LBB42:
 385              	.LBI42:
 386              		.loc 1 61 13 view .LVU180
 387              	.LBB43:
 388              		.loc 1 63 3 view .LVU181
 389              		.loc 1 63 26 is_stmt 0 view .LVU182
 390 011a D0F8C820 		ldr	r2, [r0, #200]
 391              		.loc 1 63 18 view .LVU183
 392 011e C3F80424 		str	r2, [r3, #1028]
 393              		.loc 1 64 3 is_stmt 1 view .LVU184
 394              		.loc 1 64 26 is_stmt 0 view .LVU185
 395 0122 D0F8CC20 		ldr	r2, [r0, #204]
 396              		.loc 1 64 18 view .LVU186
 397 0126 C3F80824 		str	r2, [r3, #1032]
 398              		.loc 1 65 3 is_stmt 1 view .LVU187
 399              		.loc 1 65 26 is_stmt 0 view .LVU188
ARM GAS  /tmp/ccXGWUfY.s 			page 8


 400 012a D0F8D020 		ldr	r2, [r0, #208]
 401              		.loc 1 65 18 view .LVU189
 402 012e C3F80C24 		str	r2, [r3, #1036]
 403              		.loc 1 66 3 is_stmt 1 view .LVU190
 404              		.loc 1 66 26 is_stmt 0 view .LVU191
 405 0132 D0F8D420 		ldr	r2, [r0, #212]
 406              		.loc 1 66 18 view .LVU192
 407 0136 C3F81424 		str	r2, [r3, #1044]
 408              		.loc 1 67 3 is_stmt 1 view .LVU193
 409              		.loc 1 67 26 is_stmt 0 view .LVU194
 410 013a D0F8D820 		ldr	r2, [r0, #216]
 411              		.loc 1 67 18 view .LVU195
 412 013e C3F82024 		str	r2, [r3, #1056]
 413              		.loc 1 68 3 is_stmt 1 view .LVU196
 414              		.loc 1 68 26 is_stmt 0 view .LVU197
 415 0142 D0F8DC20 		ldr	r2, [r0, #220]
 416              		.loc 1 68 18 view .LVU198
 417 0146 C3F82424 		str	r2, [r3, #1060]
 418              		.loc 1 69 3 is_stmt 1 view .LVU199
 419              		.loc 1 69 26 is_stmt 0 view .LVU200
 420 014a D0F8C420 		ldr	r2, [r0, #196]
 421              		.loc 1 69 18 view .LVU201
 422 014e C3F80024 		str	r2, [r3, #1024]
 423              	.LVL9:
 424              		.loc 1 69 18 view .LVU202
 425              	.LBE43:
 426              	.LBE42:
 427              		.loc 1 136 3 is_stmt 1 view .LVU203
 428              	.LBB44:
 429              	.LBI44:
 430              		.loc 1 61 13 view .LVU204
 431              	.LBB45:
 432              		.loc 1 63 3 view .LVU205
 433              		.loc 1 63 26 is_stmt 0 view .LVU206
 434 0152 D0F8E420 		ldr	r2, [r0, #228]
 435              		.loc 1 63 18 view .LVU207
 436 0156 C3F80428 		str	r2, [r3, #2052]
 437              		.loc 1 64 3 is_stmt 1 view .LVU208
 438              		.loc 1 64 26 is_stmt 0 view .LVU209
 439 015a D0F8E820 		ldr	r2, [r0, #232]
 440              		.loc 1 64 18 view .LVU210
 441 015e C3F80828 		str	r2, [r3, #2056]
 442              		.loc 1 65 3 is_stmt 1 view .LVU211
 443              		.loc 1 65 26 is_stmt 0 view .LVU212
 444 0162 D0F8EC20 		ldr	r2, [r0, #236]
 445              		.loc 1 65 18 view .LVU213
 446 0166 C3F80C28 		str	r2, [r3, #2060]
 447              		.loc 1 66 3 is_stmt 1 view .LVU214
 448              		.loc 1 66 26 is_stmt 0 view .LVU215
 449 016a D0F8F020 		ldr	r2, [r0, #240]
 450              		.loc 1 66 18 view .LVU216
 451 016e C3F81428 		str	r2, [r3, #2068]
 452              		.loc 1 67 3 is_stmt 1 view .LVU217
 453              		.loc 1 67 26 is_stmt 0 view .LVU218
 454 0172 D0F8F420 		ldr	r2, [r0, #244]
 455              		.loc 1 67 18 view .LVU219
 456 0176 C3F82028 		str	r2, [r3, #2080]
ARM GAS  /tmp/ccXGWUfY.s 			page 9


 457              		.loc 1 68 3 is_stmt 1 view .LVU220
 458              		.loc 1 68 26 is_stmt 0 view .LVU221
 459 017a D0F8F820 		ldr	r2, [r0, #248]
 460              		.loc 1 68 18 view .LVU222
 461 017e C3F82428 		str	r2, [r3, #2084]
 462              		.loc 1 69 3 is_stmt 1 view .LVU223
 463              		.loc 1 69 26 is_stmt 0 view .LVU224
 464 0182 D0F8E020 		ldr	r2, [r0, #224]
 465              		.loc 1 69 18 view .LVU225
 466 0186 C3F80028 		str	r2, [r3, #2048]
 467              	.LVL10:
 468              		.loc 1 69 18 view .LVU226
 469              	.LBE45:
 470              	.LBE44:
 471              		.loc 1 144 1 view .LVU227
 472 018a 7047     		bx	lr
 473              	.L4:
 474              		.align	2
 475              	.L3:
 476 018c 00380240 		.word	1073887232
 477 0190 00040240 		.word	1073873920
 478 0194 00080240 		.word	1073874944
 479 0198 000C0240 		.word	1073875968
 480 019c 00100240 		.word	1073876992
 481              		.cfi_endproc
 482              	.LFE278:
 483              		.size	_pal_lld_init, .-_pal_lld_init
 484              		.section	.text._pal_lld_setgroupmode,"ax",%progbits
 485              		.align	1
 486              		.p2align 4,,15
 487              		.global	_pal_lld_setgroupmode
 488              		.syntax unified
 489              		.thumb
 490              		.thumb_func
 491              		.fpu softvfp
 492              		.type	_pal_lld_setgroupmode, %function
 493              	_pal_lld_setgroupmode:
 494              	.LVL11:
 495              	.LFB279:
 496              		.loc 1 161 43 is_stmt 1 view -0
 497              		.cfi_startproc
 498              		@ args = 0, pretend = 0, frame = 0
 499              		@ frame_needed = 0, uses_anonymous_args = 0
 500              		.loc 1 163 3 view .LVU229
 501              		.loc 1 161 43 is_stmt 0 view .LVU230
 502 0000 2DE9F04F 		push	{r4, r5, r6, r7, r8, r9, r10, fp, lr}
 503              		.cfi_def_cfa_offset 36
 504              		.cfi_offset 4, -36
 505              		.cfi_offset 5, -32
 506              		.cfi_offset 6, -28
 507              		.cfi_offset 7, -24
 508              		.cfi_offset 8, -20
 509              		.cfi_offset 9, -16
 510              		.cfi_offset 10, -12
 511              		.cfi_offset 11, -8
 512              		.cfi_offset 14, -4
 513              		.loc 1 163 12 view .LVU231
ARM GAS  /tmp/ccXGWUfY.s 			page 10


 514 0004 02F00309 		and	r9, r2, #3
 515              	.LVL12:
 516              		.loc 1 164 3 is_stmt 1 view .LVU232
 517              		.loc 1 166 12 is_stmt 0 view .LVU233
 518 0008 C2F34114 		ubfx	r4, r2, #5, #2
 519              		.loc 1 164 12 view .LVU234
 520 000c C2F38006 		ubfx	r6, r2, #2, #1
 521              	.LVL13:
 522              		.loc 1 165 3 is_stmt 1 view .LVU235
 523              		.loc 1 165 12 is_stmt 0 view .LVU236
 524 0010 C2F3C105 		ubfx	r5, r2, #3, #2
 525              	.LVL14:
 526              		.loc 1 166 3 is_stmt 1 view .LVU237
 527              		.loc 1 167 3 view .LVU238
 528              		.loc 1 167 12 is_stmt 0 view .LVU239
 529 0014 C2F3C317 		ubfx	r7, r2, #7, #4
 530              	.LVL15:
 531              		.loc 1 168 3 is_stmt 1 view .LVU240
 532              		.loc 1 163 12 is_stmt 0 view .LVU241
 533 0018 CE46     		mov	lr, r9
 534              		.loc 1 168 12 view .LVU242
 535 001a 0022     		movs	r2, #0
 536              	.LVL16:
 537              	.LBB46:
 538              		.loc 1 176 15 view .LVU243
 539 001c 4FF00F0B 		mov	fp, #15
 540              		.loc 1 175 14 view .LVU244
 541 0020 A046     		mov	r8, r4
 542 0022 17E0     		b	.L12
 543              	.LVL17:
 544              	.L7:
 545              		.loc 1 192 9 is_stmt 1 view .LVU245
 546              		.loc 1 192 30 is_stmt 0 view .LVU246
 547 0024 D0F800A0 		ldr	r10, [r0]
 548              		.loc 1 192 38 view .LVU247
 549 0028 03EA0A03 		and	r3, r3, r10
 550              	.LVL18:
 551              		.loc 1 192 45 view .LVU248
 552 002c 43EA0E03 		orr	r3, r3, lr
 553              		.loc 1 193 12 view .LVU249
 554 0030 072A     		cmp	r2, #7
 555              		.loc 1 192 23 view .LVU250
 556 0032 0360     		str	r3, [r0]
 557              		.loc 1 193 9 is_stmt 1 view .LVU251
 558              		.loc 1 193 12 is_stmt 0 view .LVU252
 559 0034 45D8     		bhi	.L10
 560              		.loc 1 194 11 is_stmt 1 view .LVU253
 561              		.loc 1 194 29 is_stmt 0 view .LVU254
 562 0036 036A     		ldr	r3, [r0, #32]
 563              		.loc 1 194 36 view .LVU255
 564 0038 23EA0404 		bic	r4, r3, r4
 565              	.LVL19:
 566              		.loc 1 194 43 view .LVU256
 567 003c 44EA0C04 		orr	r4, r4, ip
 568              		.loc 1 194 22 view .LVU257
 569 0040 0462     		str	r4, [r0, #32]
 570              	.LVL20:
ARM GAS  /tmp/ccXGWUfY.s 			page 11


 571              	.L6:
 572              		.loc 1 194 22 view .LVU258
 573              	.LBE46:
 574              		.loc 1 199 5 is_stmt 1 view .LVU259
 575              		.loc 1 200 5 view .LVU260
 576              		.loc 1 200 8 is_stmt 0 view .LVU261
 577 0042 4908     		lsrs	r1, r1, #1
 578              	.LVL21:
 579              		.loc 1 200 8 view .LVU262
 580 0044 3BD0     		beq	.L16
 581              	.LVL22:
 582              	.L18:
 583              		.loc 1 202 5 is_stmt 1 view .LVU263
 584              		.loc 1 202 12 is_stmt 0 view .LVU264
 585 0046 7600     		lsls	r6, r6, #1
 586              	.LVL23:
 587              		.loc 1 203 5 is_stmt 1 view .LVU265
 588              		.loc 1 203 13 is_stmt 0 view .LVU266
 589 0048 AD00     		lsls	r5, r5, #2
 590              	.LVL24:
 591              		.loc 1 204 5 is_stmt 1 view .LVU267
 592              		.loc 1 204 11 is_stmt 0 view .LVU268
 593 004a 4FEA8808 		lsl	r8, r8, #2
 594              	.LVL25:
 595              		.loc 1 205 5 is_stmt 1 view .LVU269
 596              		.loc 1 205 11 is_stmt 0 view .LVU270
 597 004e 4FEA8E0E 		lsl	lr, lr, #2
 598              	.LVL26:
 599              		.loc 1 206 5 is_stmt 1 view .LVU271
 600              		.loc 1 206 8 is_stmt 0 view .LVU272
 601 0052 0132     		adds	r2, r2, #1
 602              	.LVL27:
 603              		.loc 1 169 9 is_stmt 1 view .LVU273
 604              	.L12:
 605              		.loc 1 169 3 view .LVU274
 606              		.loc 1 170 5 view .LVU275
 607              		.loc 1 170 8 is_stmt 0 view .LVU276
 608 0054 CB07     		lsls	r3, r1, #31
 609 0056 F4D5     		bpl	.L6
 610              	.LBB47:
 611              		.loc 1 171 7 is_stmt 1 view .LVU277
 612              		.loc 1 173 7 view .LVU278
 613              		.loc 1 177 28 is_stmt 0 view .LVU279
 614 0058 4368     		ldr	r3, [r0, #4]
 615              		.loc 1 174 14 view .LVU280
 616 005a 0124     		movs	r4, #1
 617 005c 9440     		lsls	r4, r4, r2
 618              		.loc 1 177 37 view .LVU281
 619 005e 23EA0403 		bic	r3, r3, r4
 620              		.loc 1 177 44 view .LVU282
 621 0062 3343     		orrs	r3, r3, r6
 622              		.loc 1 177 21 view .LVU283
 623 0064 4360     		str	r3, [r0, #4]
 624              		.loc 1 178 28 view .LVU284
 625 0066 8468     		ldr	r4, [r0, #8]
 626              		.loc 1 175 14 view .LVU285
 627 0068 4FF0030C 		mov	ip, #3
ARM GAS  /tmp/ccXGWUfY.s 			page 12


 628 006c 5300     		lsls	r3, r2, #1
 629 006e 0CFA03F3 		lsl	r3, ip, r3
 630              		.loc 1 178 38 view .LVU286
 631 0072 24EA0304 		bic	r4, r4, r3
 632              		.loc 1 178 45 view .LVU287
 633 0076 2C43     		orrs	r4, r4, r5
 634              		.loc 1 178 21 view .LVU288
 635 0078 8460     		str	r4, [r0, #8]
 636              		.loc 1 179 28 view .LVU289
 637 007a C468     		ldr	r4, [r0, #12]
 638              		.loc 1 179 36 view .LVU290
 639 007c 24EA030C 		bic	ip, r4, r3
 640              		.loc 1 179 43 view .LVU291
 641 0080 4CEA0804 		orr	r4, ip, r8
 642              		.loc 1 179 21 view .LVU292
 643 0084 C460     		str	r4, [r0, #12]
 644              		.loc 1 173 32 view .LVU293
 645 0086 02F00704 		and	r4, r2, #7
 646              		.loc 1 173 37 view .LVU294
 647 008a A400     		lsls	r4, r4, #2
 648              		.loc 1 180 10 view .LVU295
 649 008c B9F1020F 		cmp	r9, #2
 650              		.loc 1 173 16 view .LVU296
 651 0090 07FA04FC 		lsl	ip, r7, r4
 652              	.LVL28:
 653              		.loc 1 174 7 is_stmt 1 view .LVU297
 654              		.loc 1 175 7 view .LVU298
 655              		.loc 1 176 7 view .LVU299
 656              		.loc 1 178 40 is_stmt 0 view .LVU300
 657 0094 6FEA0303 		mvn	r3, r3
 658              	.LVL29:
 659              		.loc 1 176 15 view .LVU301
 660 0098 0BFA04F4 		lsl	r4, fp, r4
 661              	.LVL30:
 662              		.loc 1 177 7 is_stmt 1 view .LVU302
 663              		.loc 1 178 7 view .LVU303
 664              		.loc 1 179 7 view .LVU304
 665              		.loc 1 180 7 view .LVU305
 666              		.loc 1 180 10 is_stmt 0 view .LVU306
 667 009c C2D1     		bne	.L7
 668              		.loc 1 183 9 is_stmt 1 view .LVU307
 669              		.loc 1 183 12 is_stmt 0 view .LVU308
 670 009e 072A     		cmp	r2, #7
 671 00a0 16D8     		bhi	.L8
 672              		.loc 1 184 11 is_stmt 1 view .LVU309
 673              		.loc 1 184 29 is_stmt 0 view .LVU310
 674 00a2 D0F820A0 		ldr	r10, [r0, #32]
 675              		.loc 1 184 36 view .LVU311
 676 00a6 2AEA0404 		bic	r4, r10, r4
 677              	.LVL31:
 678              		.loc 1 184 43 view .LVU312
 679 00aa 44EA0C04 		orr	r4, r4, ip
 680              		.loc 1 184 22 view .LVU313
 681 00ae 0462     		str	r4, [r0, #32]
 682              	.L9:
 683              		.loc 1 187 9 is_stmt 1 view .LVU314
 684              		.loc 1 187 30 is_stmt 0 view .LVU315
ARM GAS  /tmp/ccXGWUfY.s 			page 13


 685 00b0 0468     		ldr	r4, [r0]
 686              		.loc 1 187 38 view .LVU316
 687 00b2 2340     		ands	r3, r3, r4
 688              	.LVL32:
 689              		.loc 1 187 45 view .LVU317
 690 00b4 43EA0E03 		orr	r3, r3, lr
 691              	.LBE47:
 692              		.loc 1 200 8 view .LVU318
 693 00b8 4908     		lsrs	r1, r1, #1
 694              	.LVL33:
 695              	.LBB48:
 696              		.loc 1 187 23 view .LVU319
 697 00ba 0360     		str	r3, [r0]
 698              	.LBE48:
 699              		.loc 1 199 5 is_stmt 1 view .LVU320
 700              		.loc 1 200 5 view .LVU321
 701              		.loc 1 200 8 is_stmt 0 view .LVU322
 702 00bc C3D1     		bne	.L18
 703              	.LVL34:
 704              	.L16:
 705              		.loc 1 208 1 view .LVU323
 706 00be BDE8F08F 		pop	{r4, r5, r6, r7, r8, r9, r10, fp, pc}
 707              	.LVL35:
 708              	.L10:
 709              	.LBB49:
 710              		.loc 1 196 11 is_stmt 1 view .LVU324
 711              		.loc 1 196 29 is_stmt 0 view .LVU325
 712 00c2 436A     		ldr	r3, [r0, #36]
 713              		.loc 1 196 36 view .LVU326
 714 00c4 23EA0404 		bic	r4, r3, r4
 715              	.LVL36:
 716              		.loc 1 196 43 view .LVU327
 717 00c8 44EA0C04 		orr	r4, r4, ip
 718              		.loc 1 196 22 view .LVU328
 719 00cc 4462     		str	r4, [r0, #36]
 720 00ce B8E7     		b	.L6
 721              	.LVL37:
 722              	.L8:
 723              		.loc 1 186 11 is_stmt 1 view .LVU329
 724              		.loc 1 186 29 is_stmt 0 view .LVU330
 725 00d0 D0F824A0 		ldr	r10, [r0, #36]
 726              		.loc 1 186 36 view .LVU331
 727 00d4 2AEA0404 		bic	r4, r10, r4
 728              	.LVL38:
 729              		.loc 1 186 43 view .LVU332
 730 00d8 44EA0C04 		orr	r4, r4, ip
 731              		.loc 1 186 22 view .LVU333
 732 00dc 4462     		str	r4, [r0, #36]
 733 00de E7E7     		b	.L9
 734              	.LBE49:
 735              		.cfi_endproc
 736              	.LFE279:
 737              		.size	_pal_lld_setgroupmode, .-_pal_lld_setgroupmode
 738              		.text
 739              	.Letext0:
 740              		.file 2 "/usr/lib/gcc/arm-none-eabi/10.3.1/include/stdint.h"
 741              		.file 3 "../../../os/common/ext/CMSIS/ST/STM32F4xx/stm32f407xx.h"
ARM GAS  /tmp/ccXGWUfY.s 			page 14


 742              		.file 4 "../../../os/hal/ports/STM32/LLD/GPIOv2/hal_pal_lld.h"