ARM GAS  /tmp/ccdwKoDL.s 			page 1


   1              		.cpu cortex-m4
   2              		.eabi_attribute 20, 1
   3              		.eabi_attribute 21, 1
   4              		.eabi_attribute 23, 3
   5              		.eabi_attribute 24, 1
   6              		.eabi_attribute 25, 1
   7              		.eabi_attribute 26, 1
   8              		.eabi_attribute 30, 2
   9              		.eabi_attribute 34, 1
  10              		.eabi_attribute 18, 4
  11              		.file	"hal_st.c"
  12              		.text
  13              	.Ltext0:
  14              		.cfi_sections	.debug_frame
  15              		.section	.text.stInit,"ax",%progbits
  16              		.align	1
  17              		.p2align 4,,15
  18              		.global	stInit
  19              		.arch armv7e-m
  20              		.syntax unified
  21              		.thumb
  22              		.thumb_func
  23              		.fpu softvfp
  24              		.type	stInit, %function
  25              	stInit:
  26              	.LFB277:
  27              		.file 1 "../../../os/hal/src/hal_st.c"
  28              		.loc 1 60 19 view -0
  29              		.cfi_startproc
  30              		@ args = 0, pretend = 0, frame = 0
  31              		@ frame_needed = 0, uses_anonymous_args = 0
  32              		@ link register save eliminated.
  33              		.loc 1 62 3 view .LVU1
  34 0000 FFF7FEBF 		b	st_lld_init
  35              	.LVL0:
  36              		.cfi_endproc
  37              	.LFE277:
  38              		.size	stInit, .-stInit
  39              		.section	.text.stStartAlarm,"ax",%progbits
  40              		.align	1
  41              		.p2align 4,,15
  42              		.global	stStartAlarm
  43              		.syntax unified
  44              		.thumb
  45              		.thumb_func
  46              		.fpu softvfp
  47              		.type	stStartAlarm, %function
  48              	stStartAlarm:
  49              	.LVL1:
  50              	.LFB278:
  51              		.loc 1 76 38 view -0
  52              		.cfi_startproc
  53              		@ args = 0, pretend = 0, frame = 0
  54              		@ frame_needed = 0, uses_anonymous_args = 0
  55              		@ link register save eliminated.
  56              		.loc 1 78 3 view .LVU3
  57              		.loc 1 78 3 view .LVU4
ARM GAS  /tmp/ccdwKoDL.s 			page 2


  58              		.loc 1 78 3 view .LVU5
  59              		.loc 1 80 3 view .LVU6
  60              	.LBB10:
  61              	.LBB11:
  62              		.file 2 "../../../os/hal/ports/STM32/LLD/TIMv1/hal_st_lld.h"
  63              		.loc 2 155 24 is_stmt 0 view .LVU7
  64 0000 4FF08043 		mov	r3, #1073741824
  65              	.LVL2:
  66              		.loc 2 155 24 view .LVU8
  67              	.LBE11:
  68              	.LBI10:
  69              		.loc 2 153 20 is_stmt 1 view .LVU9
  70              	.LBB12:
  71              		.loc 2 155 3 view .LVU10
  72              		.loc 2 156 24 is_stmt 0 view .LVU11
  73 0004 0021     		movs	r1, #0
  74              		.loc 2 157 24 view .LVU12
  75 0006 0222     		movs	r2, #2
  76              		.loc 2 155 24 view .LVU13
  77 0008 5863     		str	r0, [r3, #52]
  78              		.loc 2 156 3 is_stmt 1 view .LVU14
  79              		.loc 2 156 24 is_stmt 0 view .LVU15
  80 000a 1961     		str	r1, [r3, #16]
  81              		.loc 2 157 3 is_stmt 1 view .LVU16
  82              		.loc 2 157 24 is_stmt 0 view .LVU17
  83 000c DA60     		str	r2, [r3, #12]
  84              	.LVL3:
  85              		.loc 2 157 24 view .LVU18
  86              	.LBE12:
  87              	.LBE10:
  88              		.loc 1 81 1 view .LVU19
  89 000e 7047     		bx	lr
  90              		.cfi_endproc
  91              	.LFE278:
  92              		.size	stStartAlarm, .-stStartAlarm
  93              		.section	.text.stStopAlarm,"ax",%progbits
  94              		.align	1
  95              		.p2align 4,,15
  96              		.global	stStopAlarm
  97              		.syntax unified
  98              		.thumb
  99              		.thumb_func
 100              		.fpu softvfp
 101              		.type	stStopAlarm, %function
 102              	stStopAlarm:
 103              	.LFB279:
 104              		.loc 1 90 24 is_stmt 1 view -0
 105              		.cfi_startproc
 106              		@ args = 0, pretend = 0, frame = 0
 107              		@ frame_needed = 0, uses_anonymous_args = 0
 108              		@ link register save eliminated.
 109              		.loc 1 92 3 view .LVU21
 110              	.LBB13:
 111              	.LBI13:
 112              		.loc 2 165 20 view .LVU22
 113              	.LBB14:
 114              		.loc 2 167 3 view .LVU23
ARM GAS  /tmp/ccdwKoDL.s 			page 3


 115              		.loc 2 167 22 is_stmt 0 view .LVU24
 116 0000 4FF08043 		mov	r3, #1073741824
 117 0004 0022     		movs	r2, #0
 118 0006 DA60     		str	r2, [r3, #12]
 119              	.LBE14:
 120              	.LBE13:
 121              		.loc 1 93 1 view .LVU25
 122 0008 7047     		bx	lr
 123              		.cfi_endproc
 124              	.LFE279:
 125              		.size	stStopAlarm, .-stStopAlarm
 126 000a 00BF     		.section	.text.stSetAlarm,"ax",%progbits
 127              		.align	1
 128              		.p2align 4,,15
 129              		.global	stSetAlarm
 130              		.syntax unified
 131              		.thumb
 132              		.thumb_func
 133              		.fpu softvfp
 134              		.type	stSetAlarm, %function
 135              	stSetAlarm:
 136              	.LVL4:
 137              	.LFB280:
 138              		.loc 1 104 36 is_stmt 1 view -0
 139              		.cfi_startproc
 140              		@ args = 0, pretend = 0, frame = 0
 141              		@ frame_needed = 0, uses_anonymous_args = 0
 142              		@ link register save eliminated.
 143              		.loc 1 106 3 view .LVU27
 144              		.loc 1 106 3 view .LVU28
 145              		.loc 1 106 3 view .LVU29
 146              		.loc 1 108 3 view .LVU30
 147              	.LBB15:
 148              	.LBB16:
 149              		.loc 2 179 24 is_stmt 0 view .LVU31
 150 0000 4FF08043 		mov	r3, #1073741824
 151              	.LVL5:
 152              		.loc 2 179 24 view .LVU32
 153              	.LBE16:
 154              	.LBI15:
 155              		.loc 2 177 20 is_stmt 1 view .LVU33
 156              	.LBB17:
 157              		.loc 2 179 3 view .LVU34
 158              		.loc 2 179 24 is_stmt 0 view .LVU35
 159 0004 5863     		str	r0, [r3, #52]
 160              	.LVL6:
 161              		.loc 2 179 24 view .LVU36
 162              	.LBE17:
 163              	.LBE15:
 164              		.loc 1 109 1 view .LVU37
 165 0006 7047     		bx	lr
 166              		.cfi_endproc
 167              	.LFE280:
 168              		.size	stSetAlarm, .-stSetAlarm
 169              		.section	.text.stGetAlarm,"ax",%progbits
 170              		.align	1
 171              		.p2align 4,,15
ARM GAS  /tmp/ccdwKoDL.s 			page 4


 172              		.global	stGetAlarm
 173              		.syntax unified
 174              		.thumb
 175              		.thumb_func
 176              		.fpu softvfp
 177              		.type	stGetAlarm, %function
 178              	stGetAlarm:
 179              	.LFB281:
 180              		.loc 1 120 28 is_stmt 1 view -0
 181              		.cfi_startproc
 182              		@ args = 0, pretend = 0, frame = 0
 183              		@ frame_needed = 0, uses_anonymous_args = 0
 184              		@ link register save eliminated.
 185              		.loc 1 122 3 view .LVU39
 186              		.loc 1 122 3 view .LVU40
 187              		.loc 1 122 3 view .LVU41
 188              		.loc 1 124 3 view .LVU42
 189              	.LBB18:
 190              	.LBI18:
 191              		.loc 2 189 25 view .LVU43
 192              	.LBB19:
 193              		.loc 2 191 3 view .LVU44
 194              		.loc 2 191 10 is_stmt 0 view .LVU45
 195 0000 4FF08043 		mov	r3, #1073741824
 196 0004 586B     		ldr	r0, [r3, #52]
 197              	.LBE19:
 198              	.LBE18:
 199              		.loc 1 125 1 view .LVU46
 200 0006 7047     		bx	lr
 201              		.cfi_endproc
 202              	.LFE281:
 203              		.size	stGetAlarm, .-stGetAlarm
 204              		.text
 205              	.Letext0:
 206              		.file 3 "/usr/lib/gcc/arm-none-eabi/10.3.1/include/stdint.h"
 207              		.file 4 "../../../os/rt/include/chsystypes.h"
 208              		.file 5 "../../../os/hal/ports/STM32/LLD/TIMv1/stm32_tim.h"