ARM GAS  /tmp/cc3HRWRS.s 			page 1


   1              		.cpu cortex-m4
   2              		.eabi_attribute 20, 1
   3              		.eabi_attribute 21, 1
   4              		.eabi_attribute 23, 3
   5              		.eabi_attribute 24, 1
   6              		.eabi_attribute 25, 1
   7              		.eabi_attribute 26, 1
   8              		.eabi_attribute 30, 2
   9              		.eabi_attribute 34, 1
  10              		.eabi_attribute 18, 4
  11              		.file	"hal_serial_lld.c"
  12              		.text
  13              	.Ltext0:
  14              		.cfi_sections	.debug_frame
  15              		.section	.text.notify2,"ax",%progbits
  16              		.align	1
  17              		.p2align 4,,15
  18              		.arch armv7e-m
  19              		.syntax unified
  20              		.thumb
  21              		.thumb_func
  22              		.fpu softvfp
  23              		.type	notify2, %function
  24              	notify2:
  25              	.LVL0:
  26              	.LFB281:
  27              		.file 1 "../../../os/hal/ports/STM32/LLD/USARTv1/hal_serial_lld.c"
  28              		.loc 1 235 37 view -0
  29              		.cfi_startproc
  30              		@ args = 0, pretend = 0, frame = 0
  31              		@ frame_needed = 0, uses_anonymous_args = 0
  32              		@ link register save eliminated.
  33              		.loc 1 237 3 view .LVU1
  34              		.loc 1 238 3 view .LVU2
  35              		.loc 1 238 15 is_stmt 0 view .LVU3
  36 0000 024A     		ldr	r2, .L3
  37 0002 D368     		ldr	r3, [r2, #12]
  38 0004 43F08003 		orr	r3, r3, #128
  39 0008 D360     		str	r3, [r2, #12]
  40              		.loc 1 239 1 view .LVU4
  41 000a 7047     		bx	lr
  42              	.L4:
  43              		.align	2
  44              	.L3:
  45 000c 00440040 		.word	1073759232
  46              		.cfi_endproc
  47              	.LFE281:
  48              		.size	notify2, .-notify2
  49              		.section	.text.VectorD8,"ax",%progbits
  50              		.align	1
  51              		.p2align 4,,15
  52              		.global	VectorD8
  53              		.syntax unified
  54              		.thumb
  55              		.thumb_func
  56              		.fpu softvfp
  57              		.type	VectorD8, %function
ARM GAS  /tmp/cc3HRWRS.s 			page 2


  58              	VectorD8:
  59              	.LFB282:
  60              		.loc 1 322 40 is_stmt 1 view -0
  61              		.cfi_startproc
  62              		@ args = 0, pretend = 0, frame = 0
  63              		@ frame_needed = 0, uses_anonymous_args = 0
  64              		.loc 1 324 3 view .LVU6
  65              		.loc 1 324 3 view .LVU7
  66              		.loc 1 324 3 view .LVU8
  67              		.loc 1 324 3 view .LVU9
  68              		.loc 1 324 3 view .LVU10
  69              		.loc 1 324 22 view .LVU11
  70              		.loc 1 326 3 view .LVU12
  71              	.LBB232:
  72              	.LBI232:
  73              		.loc 1 172 13 view .LVU13
  74              	.LVL1:
  75              	.LBB233:
  76              		.loc 1 173 3 view .LVU14
  77              	.LBE233:
  78              	.LBE232:
  79              		.loc 1 322 40 is_stmt 0 view .LVU15
  80 0000 2DE9F843 		push	{r3, r4, r5, r6, r7, r8, r9, lr}
  81              		.cfi_def_cfa_offset 32
  82              		.cfi_offset 3, -32
  83              		.cfi_offset 4, -28
  84              		.cfi_offset 5, -24
  85              		.cfi_offset 6, -20
  86              		.cfi_offset 7, -16
  87              		.cfi_offset 8, -12
  88              		.cfi_offset 9, -8
  89              		.cfi_offset 14, -4
  90              	.LBB441:
  91              	.LBB406:
  92              		.loc 1 173 18 view .LVU16
  93 0004 464E     		ldr	r6, .L59
  94 0006 756F     		ldr	r5, [r6, #116]
  95              	.LVL2:
  96              		.loc 1 174 3 is_stmt 1 view .LVU17
  97              		.loc 1 174 19 is_stmt 0 view .LVU18
  98 0008 D5F80C90 		ldr	r9, [r5, #12]
  99              	.LVL3:
 100              		.loc 1 175 3 is_stmt 1 view .LVU19
 101              		.loc 1 175 18 is_stmt 0 view .LVU20
 102 000c 2B68     		ldr	r3, [r5]
 103              		.loc 1 178 6 view .LVU21
 104 000e DA05     		lsls	r2, r3, #23
 105              		.loc 1 175 12 view .LVU22
 106 0010 9CB2     		uxth	r4, r3
 107              	.LVL4:
 108              		.loc 1 178 3 is_stmt 1 view .LVU23
 109              		.loc 1 178 6 is_stmt 0 view .LVU24
 110 0012 55D4     		bmi	.L54
 111              	.L6:
 112              		.loc 1 186 3 is_stmt 1 view .LVU25
 113              	.LBB234:
 114              	.LBI234:
ARM GAS  /tmp/cc3HRWRS.s 			page 3


 115              		.file 2 "../../../os/hal/osal/rt/osal.h"
 116              		.loc 2 513 20 view .LVU26
 117              	.LBE234:
 118              	.LBE406:
 119              	.LBE441:
 120              		.loc 2 515 3 view .LVU27
 121              	.LBB442:
 122              	.LBB407:
 123              	.LBB246:
 124              	.LBB235:
 125              	.LBI235:
 126              		.file 3 "../../../os/rt/include/chsys.h"
 127              		.loc 3 414 20 view .LVU28
 128              	.LBE235:
 129              	.LBE246:
 130              	.LBE407:
 131              	.LBE442:
 132              		.loc 3 416 3 view .LVU29
 133              	.LBB443:
 134              	.LBB408:
 135              	.LBB247:
 136              	.LBB243:
 137              	.LBB236:
 138              	.LBI236:
 139              		.file 4 "../../../os/common/ports/ARMCMx/chcore_v7m.h"
 140              		.loc 4 633 20 view .LVU30
 141              	.LBE236:
 142              	.LBE243:
 143              	.LBE247:
 144              	.LBE408:
 145              	.LBE443:
 146              		.loc 4 635 3 view .LVU31
 147              	.LBB444:
 148              	.LBB409:
 149              	.LBB248:
 150              	.LBB244:
 151              	.LBB241:
 152              	.LBB237:
 153              	.LBI237:
 154              		.loc 4 594 20 view .LVU32
 155              	.LBE237:
 156              	.LBE241:
 157              	.LBE244:
 158              	.LBE248:
 159              	.LBE409:
 160              	.LBE444:
 161              		.loc 4 602 3 view .LVU33
 162              	.LVL5:
 163              	.LBB445:
 164              	.LBB410:
 165              	.LBB249:
 166              	.LBB245:
 167              	.LBB242:
 168              	.LBB240:
 169              	.LBB238:
 170              	.LBI238:
 171              		.file 5 "../../../os/common/ext/CMSIS/include/cmsis_gcc.h"
ARM GAS  /tmp/cc3HRWRS.s 			page 4


 172              		.loc 5 262 57 view .LVU34
 173              	.LBB239:
 174              		.loc 5 264 3 view .LVU35
 175 0014 2023     		movs	r3, #32
 176              		.syntax unified
 177              	@ 264 "../../../os/common/ext/CMSIS/include/cmsis_gcc.h" 1
 178 0016 83F31188 		MSR basepri, r3
 179              	@ 0 "" 2
 180              	.LVL6:
 181              		.loc 5 264 3 is_stmt 0 view .LVU36
 182              		.thumb
 183              		.syntax unified
 184              	.LBE239:
 185              	.LBE238:
 186              	.LBE240:
 187              	.LBE242:
 188              	.LBE245:
 189              	.LBE249:
 190              	.LBE410:
 191              	.LBE445:
 192              		.loc 3 417 34 is_stmt 1 view .LVU37
 193              		.loc 3 418 29 view .LVU38
 194              	.LBB446:
 195              	.LBB411:
 196              		.loc 1 187 9 view .LVU39
 197 001a 14F02F0F 		tst	r4, #47
 198 001e 2FD0     		beq	.L7
 199              	.LBB250:
 200              	.LBB251:
 201              	.LBB252:
 202              	.LBB253:
 203              	.LBB254:
 204              		.loc 2 844 3 is_stmt 0 view .LVU40
 205 0020 404F     		ldr	r7, .L59+4
 206              	.LBE254:
 207              	.LBE253:
 208              	.LBE252:
 209              	.LBE251:
 210              		.loc 1 196 7 view .LVU41
 211 0022 A7F10408 		sub	r8, r7, #4
 212 0026 07E0     		b	.L14
 213              	.L8:
 214              		.loc 1 194 5 is_stmt 1 view .LVU42
 215              		.loc 1 195 8 is_stmt 0 view .LVU43
 216 0028 A006     		lsls	r0, r4, #26
 217              		.loc 1 194 19 view .LVU44
 218 002a 6B68     		ldr	r3, [r5, #4]
 219              	.LVL7:
 220              		.loc 1 195 5 is_stmt 1 view .LVU45
 221              		.loc 1 195 8 is_stmt 0 view .LVU46
 222 002c 1DD4     		bmi	.L55
 223              	.LVL8:
 224              	.L13:
 225              		.loc 1 197 5 is_stmt 1 view .LVU47
 226              		.loc 1 197 11 is_stmt 0 view .LVU48
 227 002e 2B68     		ldr	r3, [r5]
 228              	.LBE250:
ARM GAS  /tmp/cc3HRWRS.s 			page 5


 229              		.loc 1 187 9 view .LVU49
 230 0030 13F02F0F 		tst	r3, #47
 231              	.LBB259:
 232              		.loc 1 197 8 view .LVU50
 233 0034 9CB2     		uxth	r4, r3
 234              	.LVL9:
 235              		.loc 1 197 8 view .LVU51
 236              	.LBE259:
 237              		.loc 1 187 9 is_stmt 1 view .LVU52
 238 0036 23D0     		beq	.L7
 239              	.L14:
 240              	.LBB260:
 241              		.loc 1 189 5 view .LVU53
 242              		.loc 1 192 5 view .LVU54
 243              		.loc 1 192 8 is_stmt 0 view .LVU55
 244 0038 2307     		lsls	r3, r4, #28
 245 003a F5D0     		beq	.L8
 246              		.loc 1 193 7 is_stmt 1 view .LVU56
 247              	.LVL10:
 248              	.LBB258:
 249              	.LBI251:
 250              		.loc 1 153 13 view .LVU57
 251              	.LBB257:
 252              		.loc 1 154 3 view .LVU58
 253              		.loc 1 156 3 view .LVU59
 254              		.loc 1 157 9 is_stmt 0 view .LVU60
 255 003c 14F0080F 		tst	r4, #8
 256 0040 0CBF     		ite	eq
 257 0042 0021     		moveq	r1, #0
 258 0044 8021     		movne	r1, #128
 259              	.LVL11:
 260              		.loc 1 158 3 is_stmt 1 view .LVU61
 261              		.loc 1 158 6 is_stmt 0 view .LVU62
 262 0046 E007     		lsls	r0, r4, #31
 263              		.loc 1 159 5 is_stmt 1 view .LVU63
 264              		.loc 1 159 9 is_stmt 0 view .LVU64
 265 0048 48BF     		it	mi
 266 004a 41F02001 		orrmi	r1, r1, #32
 267              	.LVL12:
 268              		.loc 1 160 3 is_stmt 1 view .LVU65
 269              		.loc 1 160 6 is_stmt 0 view .LVU66
 270 004e A207     		lsls	r2, r4, #30
 271              		.loc 1 161 5 is_stmt 1 view .LVU67
 272              		.loc 1 161 9 is_stmt 0 view .LVU68
 273 0050 48BF     		it	mi
 274 0052 41F04001 		orrmi	r1, r1, #64
 275              	.LVL13:
 276              		.loc 1 162 3 is_stmt 1 view .LVU69
 277              		.loc 1 162 6 is_stmt 0 view .LVU70
 278 0056 6307     		lsls	r3, r4, #29
 279              		.loc 1 163 5 is_stmt 1 view .LVU71
 280              		.loc 1 163 9 is_stmt 0 view .LVU72
 281 0058 48BF     		it	mi
 282 005a 41F48071 		orrmi	r1, r1, #256
 283              	.LVL14:
 284              		.loc 1 164 3 is_stmt 1 view .LVU73
 285              	.LBB256:
ARM GAS  /tmp/cc3HRWRS.s 			page 6


 286              	.LBI253:
 287              		.loc 2 841 20 view .LVU74
 288              	.LBB255:
 289              		.loc 2 844 3 view .LVU75
 290 005e 3846     		mov	r0, r7
 291 0060 FFF7FEFF 		bl	chEvtBroadcastFlagsI
 292              	.LVL15:
 293              		.loc 2 844 3 is_stmt 0 view .LVU76
 294              	.LBE255:
 295              	.LBE256:
 296              		.loc 1 164 25 is_stmt 1 view .LVU77
 297              		.loc 1 164 25 is_stmt 0 view .LVU78
 298              	.LBE257:
 299              	.LBE258:
 300              		.loc 1 194 5 is_stmt 1 view .LVU79
 301              		.loc 1 195 8 is_stmt 0 view .LVU80
 302 0064 A006     		lsls	r0, r4, #26
 303              		.loc 1 194 19 view .LVU81
 304 0066 6B68     		ldr	r3, [r5, #4]
 305              	.LVL16:
 306              		.loc 1 195 5 is_stmt 1 view .LVU82
 307              		.loc 1 195 8 is_stmt 0 view .LVU83
 308 0068 E1D5     		bpl	.L13
 309              	.LVL17:
 310              	.L55:
 311              		.loc 1 196 7 is_stmt 1 view .LVU84
 312              		.loc 1 194 7 is_stmt 0 view .LVU85
 313 006a 96F87810 		ldrb	r1, [r6, #120]	@ zero_extendqisi2
 314              		.loc 1 196 7 view .LVU86
 315 006e 4046     		mov	r0, r8
 316 0070 1940     		ands	r1, r1, r3
 317 0072 FFF7FEFF 		bl	sdIncomingDataI
 318              	.LVL18:
 319              		.loc 1 197 5 is_stmt 1 view .LVU87
 320              		.loc 1 197 11 is_stmt 0 view .LVU88
 321 0076 2B68     		ldr	r3, [r5]
 322              	.LBE260:
 323              		.loc 1 187 9 view .LVU89
 324 0078 13F02F0F 		tst	r3, #47
 325              	.LBB261:
 326              		.loc 1 197 8 view .LVU90
 327 007c 9CB2     		uxth	r4, r3
 328              	.LVL19:
 329              		.loc 1 197 8 view .LVU91
 330              	.LBE261:
 331              		.loc 1 187 9 is_stmt 1 view .LVU92
 332 007e DBD1     		bne	.L14
 333              	.L7:
 334              		.loc 1 199 3 view .LVU93
 335              	.LBB262:
 336              	.LBI262:
 337              		.loc 2 524 20 view .LVU94
 338              	.LBE262:
 339              	.LBE411:
 340              	.LBE446:
 341              		.loc 2 526 3 view .LVU95
 342              	.LBB447:
ARM GAS  /tmp/cc3HRWRS.s 			page 7


 343              	.LBB412:
 344              	.LBB274:
 345              	.LBB263:
 346              	.LBI263:
 347              		.loc 3 434 20 view .LVU96
 348              	.LBE263:
 349              	.LBE274:
 350              	.LBE412:
 351              	.LBE447:
 352              		.loc 3 436 31 view .LVU97
 353              		.loc 3 437 33 view .LVU98
 354              		.loc 3 438 3 view .LVU99
 355              	.LBB448:
 356              	.LBB413:
 357              	.LBB275:
 358              	.LBB271:
 359              	.LBB264:
 360              	.LBI264:
 361              		.loc 4 644 20 view .LVU100
 362              	.LBE264:
 363              	.LBE271:
 364              	.LBE275:
 365              	.LBE413:
 366              	.LBE448:
 367              		.loc 4 646 3 view .LVU101
 368              	.LBB449:
 369              	.LBB414:
 370              	.LBB276:
 371              	.LBB272:
 372              	.LBB269:
 373              	.LBB265:
 374              	.LBI265:
 375              		.loc 4 618 20 view .LVU102
 376              	.LBE265:
 377              	.LBE269:
 378              	.LBE272:
 379              	.LBE276:
 380              	.LBE414:
 381              	.LBE449:
 382              		.loc 4 621 3 view .LVU103
 383              	.LVL20:
 384              	.LBB450:
 385              	.LBB415:
 386              	.LBB277:
 387              	.LBB273:
 388              	.LBB270:
 389              	.LBB268:
 390              	.LBB266:
 391              	.LBI266:
 392              		.loc 5 262 57 view .LVU104
 393              	.LBB267:
 394              		.loc 5 264 3 view .LVU105
 395 0080 0023     		movs	r3, #0
 396              		.syntax unified
 397              	@ 264 "../../../os/common/ext/CMSIS/include/cmsis_gcc.h" 1
 398 0082 83F31188 		MSR basepri, r3
 399              	@ 0 "" 2
ARM GAS  /tmp/cc3HRWRS.s 			page 8


 400              	.LVL21:
 401              		.loc 5 264 3 is_stmt 0 view .LVU106
 402              		.thumb
 403              		.syntax unified
 404              	.LBE267:
 405              	.LBE266:
 406              	.LBE268:
 407              	.LBE270:
 408              	.LBE273:
 409              	.LBE277:
 410              		.loc 1 202 3 is_stmt 1 view .LVU107
 411              		.loc 1 202 6 is_stmt 0 view .LVU108
 412 0086 19F0800F 		tst	r9, #128
 413 008a 01D0     		beq	.L15
 414              		.loc 1 202 31 view .LVU109
 415 008c 2206     		lsls	r2, r4, #24
 416 008e 26D4     		bmi	.L56
 417              	.L15:
 418              		.loc 1 216 3 is_stmt 1 view .LVU110
 419              		.loc 1 216 6 is_stmt 0 view .LVU111
 420 0090 6306     		lsls	r3, r4, #25
 421 0092 11D5     		bpl	.L18
 422              		.loc 1 217 5 is_stmt 1 view .LVU112
 423              	.LBB278:
 424              	.LBI278:
 425              		.loc 2 513 20 view .LVU113
 426              	.LBE278:
 427              	.LBE415:
 428              	.LBE450:
 429              		.loc 2 515 3 view .LVU114
 430              	.LBB451:
 431              	.LBB416:
 432              	.LBB290:
 433              	.LBB279:
 434              	.LBI279:
 435              		.loc 3 414 20 view .LVU115
 436              	.LBE279:
 437              	.LBE290:
 438              	.LBE416:
 439              	.LBE451:
 440              		.loc 3 416 3 view .LVU116
 441              	.LBB452:
 442              	.LBB417:
 443              	.LBB291:
 444              	.LBB287:
 445              	.LBB280:
 446              	.LBI280:
 447              		.loc 4 633 20 view .LVU117
 448              	.LBE280:
 449              	.LBE287:
 450              	.LBE291:
 451              	.LBE417:
 452              	.LBE452:
 453              		.loc 4 635 3 view .LVU118
 454              	.LBB453:
 455              	.LBB418:
 456              	.LBB292:
ARM GAS  /tmp/cc3HRWRS.s 			page 9


 457              	.LBB288:
 458              	.LBB285:
 459              	.LBB281:
 460              	.LBI281:
 461              		.loc 4 594 20 view .LVU119
 462              	.LBE281:
 463              	.LBE285:
 464              	.LBE288:
 465              	.LBE292:
 466              	.LBE418:
 467              	.LBE453:
 468              		.loc 4 602 3 view .LVU120
 469              	.LVL22:
 470              	.LBB454:
 471              	.LBB419:
 472              	.LBB293:
 473              	.LBB289:
 474              	.LBB286:
 475              	.LBB284:
 476              	.LBB282:
 477              	.LBI282:
 478              		.loc 5 262 57 view .LVU121
 479              	.LBB283:
 480              		.loc 5 264 3 view .LVU122
 481 0094 2023     		movs	r3, #32
 482              		.syntax unified
 483              	@ 264 "../../../os/common/ext/CMSIS/include/cmsis_gcc.h" 1
 484 0096 83F31188 		MSR basepri, r3
 485              	@ 0 "" 2
 486              	.LVL23:
 487              		.loc 5 264 3 is_stmt 0 view .LVU123
 488              		.thumb
 489              		.syntax unified
 490              	.LBE283:
 491              	.LBE282:
 492              	.LBE284:
 493              	.LBE286:
 494              	.LBE289:
 495              	.LBE293:
 496              	.LBE419:
 497              	.LBE454:
 498              		.loc 3 417 34 is_stmt 1 view .LVU124
 499              		.loc 3 418 29 view .LVU125
 500              	.LBB455:
 501              	.LBB420:
 502              		.loc 1 218 5 view .LVU126
 503              		.loc 1 218 9 is_stmt 0 view .LVU127
 504 009a D6E91123 		ldrd	r2, r3, [r6, #68]
 505 009e 9A42     		cmp	r2, r3
 506 00a0 2AD0     		beq	.L57
 507              	.L19:
 508              		.loc 1 219 46 is_stmt 1 view .LVU128
 509              		.loc 1 220 5 view .LVU129
 510              		.loc 1 220 18 is_stmt 0 view .LVU130
 511 00a2 4FF6BF73 		movw	r3, #65471
 512 00a6 09EA0303 		and	r3, r9, r3
 513              		.loc 1 221 11 view .LVU131
ARM GAS  /tmp/cc3HRWRS.s 			page 10


 514 00aa 6FF04002 		mvn	r2, #64
 515              		.loc 1 220 12 view .LVU132
 516 00ae EB60     		str	r3, [r5, #12]
 517              		.loc 1 221 5 is_stmt 1 view .LVU133
 518              	.LBB294:
 519              	.LBB295:
 520              	.LBB296:
 521              	.LBB297:
 522              	.LBB298:
 523              	.LBB299:
 524              	.LBB300:
 525              		.loc 5 264 3 is_stmt 0 view .LVU134
 526 00b0 0023     		movs	r3, #0
 527              	.LBE300:
 528              	.LBE299:
 529              	.LBE298:
 530              	.LBE297:
 531              	.LBE296:
 532              	.LBE295:
 533              	.LBE294:
 534              		.loc 1 221 11 view .LVU135
 535 00b2 2A60     		str	r2, [r5]
 536              		.loc 1 222 5 is_stmt 1 view .LVU136
 537              	.LBB316:
 538              	.LBI294:
 539              		.loc 2 524 20 view .LVU137
 540              	.LBB312:
 541              		.loc 2 526 3 view .LVU138
 542              	.LBB308:
 543              	.LBI296:
 544              		.loc 3 434 20 view .LVU139
 545              	.LBE308:
 546              	.LBE312:
 547              	.LBE316:
 548              	.LBE420:
 549              	.LBE455:
 550              		.loc 3 436 31 view .LVU140
 551              		.loc 3 437 33 view .LVU141
 552              		.loc 3 438 3 view .LVU142
 553              	.LBB456:
 554              	.LBB421:
 555              	.LBB317:
 556              	.LBB313:
 557              	.LBB309:
 558              	.LBB305:
 559              	.LBI297:
 560              		.loc 4 644 20 view .LVU143
 561              	.LBE305:
 562              	.LBE309:
 563              	.LBE313:
 564              	.LBE317:
 565              	.LBE421:
 566              	.LBE456:
 567              		.loc 4 646 3 view .LVU144
 568              	.LBB457:
 569              	.LBB422:
 570              	.LBB318:
ARM GAS  /tmp/cc3HRWRS.s 			page 11


 571              	.LBB314:
 572              	.LBB310:
 573              	.LBB306:
 574              	.LBB303:
 575              	.LBI298:
 576              		.loc 4 618 20 view .LVU145
 577              	.LBE303:
 578              	.LBE306:
 579              	.LBE310:
 580              	.LBE314:
 581              	.LBE318:
 582              	.LBE422:
 583              	.LBE457:
 584              		.loc 4 621 3 view .LVU146
 585              	.LVL24:
 586              	.LBB458:
 587              	.LBB423:
 588              	.LBB319:
 589              	.LBB315:
 590              	.LBB311:
 591              	.LBB307:
 592              	.LBB304:
 593              	.LBB302:
 594              	.LBI299:
 595              		.loc 5 262 57 view .LVU147
 596              	.LBB301:
 597              		.loc 5 264 3 view .LVU148
 598              		.syntax unified
 599              	@ 264 "../../../os/common/ext/CMSIS/include/cmsis_gcc.h" 1
 600 00b4 83F31188 		MSR basepri, r3
 601              	@ 0 "" 2
 602              	.LVL25:
 603              		.thumb
 604              		.syntax unified
 605              	.L18:
 606              		.loc 5 264 3 is_stmt 0 view .LVU149
 607              	.LBE301:
 608              	.LBE302:
 609              	.LBE304:
 610              	.LBE307:
 611              	.LBE311:
 612              	.LBE315:
 613              	.LBE319:
 614              	.LBE423:
 615              	.LBE458:
 616              		.loc 1 328 3 is_stmt 1 view .LVU150
 617              		.loc 1 328 3 view .LVU151
 618              		.loc 1 328 3 view .LVU152
 619              		.loc 1 328 3 view .LVU153
 620              		.loc 1 328 3 view .LVU154
 621              		.loc 1 329 1 is_stmt 0 view .LVU155
 622 00b8 BDE8F843 		pop	{r3, r4, r5, r6, r7, r8, r9, lr}
 623              		.cfi_remember_state
 624              		.cfi_restore 14
 625              		.cfi_restore 9
 626              		.cfi_restore 8
 627              		.cfi_restore 7
ARM GAS  /tmp/cc3HRWRS.s 			page 12


 628              		.cfi_restore 6
 629              		.cfi_restore 5
 630              		.cfi_restore 4
 631              		.cfi_restore 3
 632              		.cfi_def_cfa_offset 0
 633              	.LVL26:
 634              		.loc 1 328 3 view .LVU156
 635 00bc FFF7FEBF 		b	_port_irq_epilogue
 636              	.LVL27:
 637              	.L54:
 638              		.cfi_restore_state
 639              	.LBB459:
 640              	.LBB424:
 641              		.loc 1 179 5 is_stmt 1 view .LVU157
 642              	.LBB320:
 643              	.LBI320:
 644              		.loc 2 513 20 view .LVU158
 645              	.LBE320:
 646              	.LBE424:
 647              	.LBE459:
 648              		.loc 2 515 3 view .LVU159
 649              	.LBB460:
 650              	.LBB425:
 651              	.LBB332:
 652              	.LBB321:
 653              	.LBI321:
 654              		.loc 3 414 20 view .LVU160
 655              	.LBE321:
 656              	.LBE332:
 657              	.LBE425:
 658              	.LBE460:
 659              		.loc 3 416 3 view .LVU161
 660              	.LBB461:
 661              	.LBB426:
 662              	.LBB333:
 663              	.LBB329:
 664              	.LBB322:
 665              	.LBI322:
 666              		.loc 4 633 20 view .LVU162
 667              	.LBE322:
 668              	.LBE329:
 669              	.LBE333:
 670              	.LBE426:
 671              	.LBE461:
 672              		.loc 4 635 3 view .LVU163
 673              	.LBB462:
 674              	.LBB427:
 675              	.LBB334:
 676              	.LBB330:
 677              	.LBB327:
 678              	.LBB323:
 679              	.LBI323:
 680              		.loc 4 594 20 view .LVU164
 681              	.LBE323:
 682              	.LBE327:
 683              	.LBE330:
 684              	.LBE334:
ARM GAS  /tmp/cc3HRWRS.s 			page 13


 685              	.LBE427:
 686              	.LBE462:
 687              		.loc 4 602 3 view .LVU165
 688              	.LBB463:
 689              	.LBB428:
 690              	.LBB335:
 691              	.LBB331:
 692              	.LBB328:
 693              	.LBB326:
 694              	.LBB324:
 695              	.LBI324:
 696              		.loc 5 262 57 view .LVU166
 697              	.LBB325:
 698              		.loc 5 264 3 view .LVU167
 699 00c0 2023     		movs	r3, #32
 700              		.syntax unified
 701              	@ 264 "../../../os/common/ext/CMSIS/include/cmsis_gcc.h" 1
 702 00c2 83F31188 		MSR basepri, r3
 703              	@ 0 "" 2
 704              	.LVL28:
 705              		.loc 5 264 3 is_stmt 0 view .LVU168
 706              		.thumb
 707              		.syntax unified
 708              	.LBE325:
 709              	.LBE324:
 710              	.LBE326:
 711              	.LBE328:
 712              	.LBE331:
 713              	.LBE335:
 714              	.LBE428:
 715              	.LBE463:
 716              		.loc 3 417 34 is_stmt 1 view .LVU169
 717              		.loc 3 418 29 view .LVU170
 718              	.LBB464:
 719              	.LBB429:
 720              		.loc 1 180 5 view .LVU171
 721              	.LBB336:
 722              	.LBI336:
 723              		.loc 2 841 20 view .LVU172
 724              	.LBB337:
 725              		.loc 2 844 3 view .LVU173
 726 00c6 4FF40071 		mov	r1, #512
 727 00ca 301D     		adds	r0, r6, #4
 728 00cc FFF7FEFF 		bl	chEvtBroadcastFlagsI
 729              	.LVL29:
 730              		.loc 2 844 3 is_stmt 0 view .LVU174
 731              	.LBE337:
 732              	.LBE336:
 733              		.loc 1 180 41 is_stmt 1 view .LVU175
 734              		.loc 1 181 5 view .LVU176
 735              		.loc 1 181 11 is_stmt 0 view .LVU177
 736 00d0 6FF48073 		mvn	r3, #256
 737 00d4 2B60     		str	r3, [r5]
 738              		.loc 1 182 5 is_stmt 1 view .LVU178
 739              	.LBB338:
 740              	.LBI338:
 741              		.loc 2 524 20 view .LVU179
ARM GAS  /tmp/cc3HRWRS.s 			page 14


 742              	.LBB339:
 743              		.loc 2 526 3 view .LVU180
 744              	.LBB340:
 745              	.LBI340:
 746              		.loc 3 434 20 view .LVU181
 747              	.LBE340:
 748              	.LBE339:
 749              	.LBE338:
 750              	.LBE429:
 751              	.LBE464:
 752              		.loc 3 436 31 view .LVU182
 753              		.loc 3 437 33 view .LVU183
 754              		.loc 3 438 3 view .LVU184
 755              	.LBB465:
 756              	.LBB430:
 757              	.LBB354:
 758              	.LBB351:
 759              	.LBB348:
 760              	.LBB341:
 761              	.LBI341:
 762              		.loc 4 644 20 view .LVU185
 763              	.LBE341:
 764              	.LBE348:
 765              	.LBE351:
 766              	.LBE354:
 767              	.LBE430:
 768              	.LBE465:
 769              		.loc 4 646 3 view .LVU186
 770              	.LBB466:
 771              	.LBB431:
 772              	.LBB355:
 773              	.LBB352:
 774              	.LBB349:
 775              	.LBB346:
 776              	.LBB342:
 777              	.LBI342:
 778              		.loc 4 618 20 view .LVU187
 779              	.LBE342:
 780              	.LBE346:
 781              	.LBE349:
 782              	.LBE352:
 783              	.LBE355:
 784              	.LBE431:
 785              	.LBE466:
 786              		.loc 4 621 3 view .LVU188
 787              	.LVL30:
 788              	.LBB467:
 789              	.LBB432:
 790              	.LBB356:
 791              	.LBB353:
 792              	.LBB350:
 793              	.LBB347:
 794              	.LBB345:
 795              	.LBB343:
 796              	.LBI343:
 797              		.loc 5 262 57 view .LVU189
 798              	.LBB344:
ARM GAS  /tmp/cc3HRWRS.s 			page 15


 799              		.loc 5 264 3 view .LVU190
 800 00d6 0023     		movs	r3, #0
 801              		.syntax unified
 802              	@ 264 "../../../os/common/ext/CMSIS/include/cmsis_gcc.h" 1
 803 00d8 83F31188 		MSR basepri, r3
 804              	@ 0 "" 2
 805              	.LVL31:
 806              		.loc 5 264 3 is_stmt 0 view .LVU191
 807              		.thumb
 808              		.syntax unified
 809              	.LBE344:
 810              	.LBE343:
 811              	.LBE345:
 812              	.LBE347:
 813              	.LBE350:
 814              		.loc 2 527 1 view .LVU192
 815 00dc 9AE7     		b	.L6
 816              	.L56:
 817              		.loc 2 527 1 view .LVU193
 818              	.LBE353:
 819              	.LBE356:
 820              	.LBB357:
 821              		.loc 1 203 5 is_stmt 1 view .LVU194
 822              		.loc 1 204 5 view .LVU195
 823              	.LBB358:
 824              	.LBI358:
 825              		.loc 2 513 20 view .LVU196
 826              	.LBE358:
 827              	.LBE357:
 828              	.LBE432:
 829              	.LBE467:
 830              		.loc 2 515 3 view .LVU197
 831              	.LBB468:
 832              	.LBB433:
 833              	.LBB395:
 834              	.LBB370:
 835              	.LBB359:
 836              	.LBI359:
 837              		.loc 3 414 20 view .LVU198
 838              	.LBE359:
 839              	.LBE370:
 840              	.LBE395:
 841              	.LBE433:
 842              	.LBE468:
 843              		.loc 3 416 3 view .LVU199
 844              	.LBB469:
 845              	.LBB434:
 846              	.LBB396:
 847              	.LBB371:
 848              	.LBB367:
 849              	.LBB360:
 850              	.LBI360:
 851              		.loc 4 633 20 view .LVU200
 852              	.LBE360:
 853              	.LBE367:
 854              	.LBE371:
 855              	.LBE396:
ARM GAS  /tmp/cc3HRWRS.s 			page 16


 856              	.LBE434:
 857              	.LBE469:
 858              		.loc 4 635 3 view .LVU201
 859              	.LBB470:
 860              	.LBB435:
 861              	.LBB397:
 862              	.LBB372:
 863              	.LBB368:
 864              	.LBB365:
 865              	.LBB361:
 866              	.LBI361:
 867              		.loc 4 594 20 view .LVU202
 868              	.LBE361:
 869              	.LBE365:
 870              	.LBE368:
 871              	.LBE372:
 872              	.LBE397:
 873              	.LBE435:
 874              	.LBE470:
 875              		.loc 4 602 3 view .LVU203
 876              	.LVL32:
 877              	.LBB471:
 878              	.LBB436:
 879              	.LBB398:
 880              	.LBB373:
 881              	.LBB369:
 882              	.LBB366:
 883              	.LBB364:
 884              	.LBB362:
 885              	.LBI362:
 886              		.loc 5 262 57 view .LVU204
 887              	.LBB363:
 888              		.loc 5 264 3 view .LVU205
 889 00de 2023     		movs	r3, #32
 890              		.syntax unified
 891              	@ 264 "../../../os/common/ext/CMSIS/include/cmsis_gcc.h" 1
 892 00e0 83F31188 		MSR basepri, r3
 893              	@ 0 "" 2
 894              	.LVL33:
 895              		.loc 5 264 3 is_stmt 0 view .LVU206
 896              		.thumb
 897              		.syntax unified
 898              	.LBE363:
 899              	.LBE362:
 900              	.LBE364:
 901              	.LBE366:
 902              	.LBE369:
 903              	.LBE373:
 904              	.LBE398:
 905              	.LBE436:
 906              	.LBE471:
 907              		.loc 3 417 34 is_stmt 1 view .LVU207
 908              		.loc 3 418 29 view .LVU208
 909              	.LBB472:
 910              	.LBB437:
 911              	.LBB399:
 912              		.loc 1 205 5 view .LVU209
ARM GAS  /tmp/cc3HRWRS.s 			page 17


 913              		.loc 1 205 9 is_stmt 0 view .LVU210
 914 00e4 1048     		ldr	r0, .L59+8
 915 00e6 FFF7FEFF 		bl	oqGetI
 916              	.LVL34:
 917              		.loc 1 206 5 is_stmt 1 view .LVU211
 918              		.loc 1 206 8 is_stmt 0 view .LVU212
 919 00ea 0028     		cmp	r0, #0
 920              		.loc 1 206 8 view .LVU213
 921 00ec 0CDB     		blt	.L58
 922              		.loc 1 211 7 is_stmt 1 view .LVU214
 923              		.loc 1 211 13 is_stmt 0 view .LVU215
 924 00ee 6860     		str	r0, [r5, #4]
 925              	.LVL35:
 926              	.L17:
 927              		.loc 1 212 5 is_stmt 1 view .LVU216
 928              	.LBB374:
 929              	.LBI374:
 930              		.loc 2 524 20 view .LVU217
 931              	.LBB375:
 932              		.loc 2 526 3 view .LVU218
 933              	.LBB376:
 934              	.LBI376:
 935              		.loc 3 434 20 view .LVU219
 936              	.LBE376:
 937              	.LBE375:
 938              	.LBE374:
 939              	.LBE399:
 940              	.LBE437:
 941              	.LBE472:
 942              		.loc 3 436 31 view .LVU220
 943              		.loc 3 437 33 view .LVU221
 944              		.loc 3 438 3 view .LVU222
 945              	.LBB473:
 946              	.LBB438:
 947              	.LBB400:
 948              	.LBB390:
 949              	.LBB387:
 950              	.LBB384:
 951              	.LBB377:
 952              	.LBI377:
 953              		.loc 4 644 20 view .LVU223
 954              	.LBE377:
 955              	.LBE384:
 956              	.LBE387:
 957              	.LBE390:
 958              	.LBE400:
 959              	.LBE438:
 960              	.LBE473:
 961              		.loc 4 646 3 view .LVU224
 962              	.LBB474:
 963              	.LBB439:
 964              	.LBB401:
 965              	.LBB391:
 966              	.LBB388:
 967              	.LBB385:
 968              	.LBB382:
 969              	.LBB378:
ARM GAS  /tmp/cc3HRWRS.s 			page 18


 970              	.LBI378:
 971              		.loc 4 618 20 view .LVU225
 972              	.LBE378:
 973              	.LBE382:
 974              	.LBE385:
 975              	.LBE388:
 976              	.LBE391:
 977              	.LBE401:
 978              	.LBE439:
 979              	.LBE474:
 980              		.loc 4 621 3 view .LVU226
 981              	.LBB475:
 982              	.LBB440:
 983              	.LBB402:
 984              	.LBB392:
 985              	.LBB389:
 986              	.LBB386:
 987              	.LBB383:
 988              	.LBB381:
 989              	.LBB379:
 990              	.LBI379:
 991              		.loc 5 262 57 view .LVU227
 992              	.LBB380:
 993              		.loc 5 264 3 view .LVU228
 994 00f0 0023     		movs	r3, #0
 995              		.syntax unified
 996              	@ 264 "../../../os/common/ext/CMSIS/include/cmsis_gcc.h" 1
 997 00f2 83F31188 		MSR basepri, r3
 998              	@ 0 "" 2
 999              	.LVL36:
 1000              		.loc 5 264 3 is_stmt 0 view .LVU229
 1001              		.thumb
 1002              		.syntax unified
 1003              	.LBE380:
 1004              	.LBE379:
 1005              	.LBE381:
 1006              	.LBE383:
 1007              	.LBE386:
 1008              		.loc 2 527 1 view .LVU230
 1009 00f6 CBE7     		b	.L15
 1010              	.L57:
 1011              		.loc 2 527 1 view .LVU231
 1012              	.LBE389:
 1013              	.LBE392:
 1014              	.LBE402:
 1015              		.loc 1 218 9 view .LVU232
 1016 00f8 B36B     		ldr	r3, [r6, #56]
 1017 00fa 002B     		cmp	r3, #0
 1018 00fc D1D0     		beq	.L19
 1019              		.loc 1 219 7 is_stmt 1 view .LVU233
 1020              	.LVL37:
 1021              	.LBB403:
 1022              	.LBI403:
 1023              		.loc 2 841 20 view .LVU234
 1024              	.LBB404:
 1025              		.loc 2 844 3 view .LVU235
 1026 00fe 0948     		ldr	r0, .L59+4
ARM GAS  /tmp/cc3HRWRS.s 			page 19


 1027 0100 1021     		movs	r1, #16
 1028 0102 FFF7FEFF 		bl	chEvtBroadcastFlagsI
 1029              	.LVL38:
 1030              		.loc 2 845 1 is_stmt 0 view .LVU236
 1031 0106 CCE7     		b	.L19
 1032              	.LVL39:
 1033              	.L58:
 1034              		.loc 2 845 1 view .LVU237
 1035              	.LBE404:
 1036              	.LBE403:
 1037              	.LBB405:
 1038              		.loc 1 207 7 is_stmt 1 view .LVU238
 1039              	.LBB393:
 1040              	.LBI393:
 1041              		.loc 2 841 20 view .LVU239
 1042              	.LBB394:
 1043              		.loc 2 844 3 view .LVU240
 1044 0108 0648     		ldr	r0, .L59+4
 1045              	.LVL40:
 1046              		.loc 2 844 3 is_stmt 0 view .LVU241
 1047 010a 0821     		movs	r1, #8
 1048 010c FFF7FEFF 		bl	chEvtBroadcastFlagsI
 1049              	.LVL41:
 1050              		.loc 2 844 3 view .LVU242
 1051              	.LBE394:
 1052              	.LBE393:
 1053              		.loc 1 207 42 is_stmt 1 view .LVU243
 1054              		.loc 1 208 7 view .LVU244
 1055              		.loc 1 208 41 is_stmt 0 view .LVU245
 1056 0110 4FF63F73 		movw	r3, #65343
 1057 0114 09EA0303 		and	r3, r9, r3
 1058 0118 43F04003 		orr	r3, r3, #64
 1059              		.loc 1 208 14 view .LVU246
 1060 011c EB60     		str	r3, [r5, #12]
 1061 011e E7E7     		b	.L17
 1062              	.L60:
 1063              		.align	2
 1064              	.L59:
 1065 0120 00000000 		.word	.LANCHOR0
 1066 0124 04000000 		.word	.LANCHOR0+4
 1067 0128 30000000 		.word	.LANCHOR0+48
 1068              	.LBE405:
 1069              	.LBE440:
 1070              	.LBE475:
 1071              		.cfi_endproc
 1072              	.LFE282:
 1073              		.size	VectorD8, .-VectorD8
 1074              		.section	.text.sd_lld_init,"ax",%progbits
 1075              		.align	1
 1076              		.p2align 4,,15
 1077              		.global	sd_lld_init
 1078              		.syntax unified
 1079              		.thumb
 1080              		.thumb_func
 1081              		.fpu softvfp
 1082              		.type	sd_lld_init, %function
 1083              	sd_lld_init:
ARM GAS  /tmp/cc3HRWRS.s 			page 20


 1084              	.LFB283:
 1085              		.loc 1 455 24 is_stmt 1 view -0
 1086              		.cfi_startproc
 1087              		@ args = 0, pretend = 0, frame = 0
 1088              		@ frame_needed = 0, uses_anonymous_args = 0
 1089              		.loc 1 463 3 view .LVU248
 1090              		.loc 1 455 24 is_stmt 0 view .LVU249
 1091 0000 10B5     		push	{r4, lr}
 1092              		.cfi_def_cfa_offset 8
 1093              		.cfi_offset 4, -8
 1094              		.cfi_offset 14, -4
 1095              		.loc 1 463 3 view .LVU250
 1096 0002 044C     		ldr	r4, .L63
 1097 0004 044A     		ldr	r2, .L63+4
 1098 0006 0021     		movs	r1, #0
 1099 0008 2046     		mov	r0, r4
 1100 000a FFF7FEFF 		bl	sdObjectInit
 1101              	.LVL42:
 1102              		.loc 1 464 3 is_stmt 1 view .LVU251
 1103              		.loc 1 464 13 is_stmt 0 view .LVU252
 1104 000e 034B     		ldr	r3, .L63+8
 1105 0010 6367     		str	r3, [r4, #116]
 1106              		.loc 1 496 1 view .LVU253
 1107 0012 10BD     		pop	{r4, pc}
 1108              	.L64:
 1109              		.align	2
 1110              	.L63:
 1111 0014 00000000 		.word	.LANCHOR0
 1112 0018 00000000 		.word	notify2
 1113 001c 00440040 		.word	1073759232
 1114              		.cfi_endproc
 1115              	.LFE283:
 1116              		.size	sd_lld_init, .-sd_lld_init
 1117              		.section	.text.sd_lld_start,"ax",%progbits
 1118              		.align	1
 1119              		.p2align 4,,15
 1120              		.global	sd_lld_start
 1121              		.syntax unified
 1122              		.thumb
 1123              		.thumb_func
 1124              		.fpu softvfp
 1125              		.type	sd_lld_start, %function
 1126              	sd_lld_start:
 1127              	.LVL43:
 1128              	.LFB284:
 1129              		.loc 1 508 66 is_stmt 1 view -0
 1130              		.cfi_startproc
 1131              		@ args = 0, pretend = 0, frame = 0
 1132              		@ frame_needed = 0, uses_anonymous_args = 0
 1133              		.loc 1 510 3 view .LVU255
 1134              		.loc 1 508 66 is_stmt 0 view .LVU256
 1135 0000 38B5     		push	{r3, r4, r5, lr}
 1136              		.cfi_def_cfa_offset 16
 1137              		.cfi_offset 3, -16
 1138              		.cfi_offset 4, -12
 1139              		.cfi_offset 5, -8
 1140              		.cfi_offset 14, -4
ARM GAS  /tmp/cc3HRWRS.s 			page 21


 1141              		.loc 1 511 12 view .LVU257
 1142 0002 224C     		ldr	r4, .L75
 1143              		.loc 1 513 6 view .LVU258
 1144 0004 037A     		ldrb	r3, [r0, #8]	@ zero_extendqisi2
 1145              		.loc 1 511 12 view .LVU259
 1146 0006 0029     		cmp	r1, #0
 1147 0008 18BF     		it	ne
 1148 000a 0C46     		movne	r4, r1
 1149              	.LVL44:
 1150              		.loc 1 513 3 is_stmt 1 view .LVU260
 1151              		.loc 1 513 6 is_stmt 0 view .LVU261
 1152 000c 012B     		cmp	r3, #1
 1153              		.loc 1 508 66 view .LVU262
 1154 000e 0546     		mov	r5, r0
 1155              		.loc 1 513 6 view .LVU263
 1156 0010 2FD0     		beq	.L74
 1157              	.LVL45:
 1158              	.L67:
 1159              		.loc 1 563 3 is_stmt 1 view .LVU264
 1160              	.LBB478:
 1161              	.LBI478:
 1162              		.loc 1 101 13 view .LVU265
 1163              	.LBB479:
 1164              		.loc 1 102 3 view .LVU266
 1165              		.loc 1 102 18 is_stmt 0 view .LVU267
 1166 0012 6B6F     		ldr	r3, [r5, #116]
 1167              	.LVL46:
 1168              		.loc 1 106 3 is_stmt 1 view .LVU268
 1169              		.loc 1 106 6 is_stmt 0 view .LVU269
 1170 0014 1E4A     		ldr	r2, .L75+4
 1171              		.loc 1 110 26 view .LVU270
 1172 0016 2168     		ldr	r1, [r4]
 1173              		.loc 1 106 6 view .LVU271
 1174 0018 9342     		cmp	r3, r2
 1175 001a 08D0     		beq	.L68
 1176              		.loc 1 106 30 view .LVU272
 1177 001c 02F58062 		add	r2, r2, #1024
 1178 0020 9342     		cmp	r3, r2
 1179 0022 04D0     		beq	.L68
 1180              		.loc 1 112 5 is_stmt 1 view .LVU273
 1181              		.loc 1 112 26 is_stmt 0 view .LVU274
 1182 0024 1B4A     		ldr	r2, .L75+8
 1183 0026 B2FBF1F2 		udiv	r2, r2, r1
 1184              		.loc 1 112 12 view .LVU275
 1185 002a 9A60     		str	r2, [r3, #8]
 1186 002c 03E0     		b	.L70
 1187              	.L68:
 1188              		.loc 1 110 5 is_stmt 1 view .LVU276
 1189              		.loc 1 110 26 is_stmt 0 view .LVU277
 1190 002e 1A4A     		ldr	r2, .L75+12
 1191 0030 B2FBF1F2 		udiv	r2, r2, r1
 1192              		.loc 1 110 12 view .LVU278
 1193 0034 9A60     		str	r2, [r3, #8]
 1194              	.L70:
 1195              		.loc 1 115 3 is_stmt 1 view .LVU279
 1196              		.loc 1 115 24 is_stmt 0 view .LVU280
 1197 0036 E088     		ldrh	r0, [r4, #6]
ARM GAS  /tmp/cc3HRWRS.s 			page 22


 1198              		.loc 1 116 24 view .LVU281
 1199 0038 2189     		ldrh	r1, [r4, #8]
 1200              		.loc 1 117 18 view .LVU282
 1201 003a A288     		ldrh	r2, [r4, #4]
 1202              		.loc 1 115 24 view .LVU283
 1203 003c 40F04000 		orr	r0, r0, #64
 1204              		.loc 1 116 24 view .LVU284
 1205 0040 41F00101 		orr	r1, r1, #1
 1206              		.loc 1 115 10 view .LVU285
 1207 0044 1861     		str	r0, [r3, #16]
 1208              		.loc 1 116 3 is_stmt 1 view .LVU286
 1209              		.loc 1 116 10 is_stmt 0 view .LVU287
 1210 0046 5961     		str	r1, [r3, #20]
 1211              		.loc 1 117 3 is_stmt 1 view .LVU288
 1212              		.loc 1 118 58 is_stmt 0 view .LVU289
 1213 0048 42F40451 		orr	r1, r2, #8448
 1214              		.loc 1 126 6 view .LVU290
 1215 004c 02F4A052 		and	r2, r2, #5120
 1216              		.loc 1 118 58 view .LVU291
 1217 0050 41F02C01 		orr	r1, r1, #44
 1218              		.loc 1 130 17 view .LVU292
 1219 0054 B2F5806F 		cmp	r2, #1024
 1220              		.loc 1 120 9 view .LVU293
 1221 0058 4FF00000 		mov	r0, #0
 1222              		.loc 1 117 10 view .LVU294
 1223 005c D960     		str	r1, [r3, #12]
 1224              		.loc 1 120 3 is_stmt 1 view .LVU295
 1225              		.loc 1 130 17 is_stmt 0 view .LVU296
 1226 005e 08BF     		it	eq
 1227 0060 7F22     		moveq	r2, #127
 1228              		.loc 1 120 9 view .LVU297
 1229 0062 1860     		str	r0, [r3]
 1230              		.loc 1 121 3 is_stmt 1 view .LVU298
 1231              		.loc 1 130 17 is_stmt 0 view .LVU299
 1232 0064 18BF     		it	ne
 1233 0066 FF22     		movne	r2, #255
 1234              		.loc 1 121 3 view .LVU300
 1235 0068 1968     		ldr	r1, [r3]
 1236              		.loc 1 122 3 is_stmt 1 view .LVU301
 1237 006a 5B68     		ldr	r3, [r3, #4]
 1238              	.LVL47:
 1239              		.loc 1 126 3 view .LVU302
 1240 006c 85F87820 		strb	r2, [r5, #120]
 1241              	.LVL48:
 1242              		.loc 1 126 3 is_stmt 0 view .LVU303
 1243              	.LBE479:
 1244              	.LBE478:
 1245              		.loc 1 564 1 view .LVU304
 1246 0070 38BD     		pop	{r3, r4, r5, pc}
 1247              	.LVL49:
 1248              	.L74:
 1249              		.loc 1 521 5 is_stmt 1 view .LVU305
 1250              		.loc 1 521 8 is_stmt 0 view .LVU306
 1251 0072 0A4B     		ldr	r3, .L75+16
 1252 0074 9842     		cmp	r0, r3
 1253 0076 CCD1     		bne	.L67
 1254              		.loc 1 522 7 is_stmt 1 view .LVU307
ARM GAS  /tmp/cc3HRWRS.s 			page 23


 1255 0078 094A     		ldr	r2, .L75+20
 1256 007a 136C     		ldr	r3, [r2, #64]
 1257 007c 43F40033 		orr	r3, r3, #131072
 1258              		.loc 1 523 7 is_stmt 0 view .LVU308
 1259 0080 0C21     		movs	r1, #12
 1260              		.loc 1 522 7 view .LVU309
 1261 0082 1364     		str	r3, [r2, #64]
 1262              		.loc 1 522 7 is_stmt 1 view .LVU310
 1263              		.loc 1 522 29 view .LVU311
 1264              		.loc 1 523 7 view .LVU312
 1265 0084 2620     		movs	r0, #38
 1266              	.LVL50:
 1267              		.loc 1 523 7 is_stmt 0 view .LVU313
 1268 0086 FFF7FEFF 		bl	nvicEnableVector
 1269              	.LVL51:
 1270 008a C2E7     		b	.L67
 1271              	.L76:
 1272              		.align	2
 1273              	.L75:
 1274 008c 00000000 		.word	.LANCHOR1
 1275 0090 00100140 		.word	1073811456
 1276 0094 80DE8002 		.word	42000000
 1277 0098 00BD0105 		.word	84000000
 1278 009c 00000000 		.word	.LANCHOR0
 1279 00a0 00380240 		.word	1073887232
 1280              		.cfi_endproc
 1281              	.LFE284:
 1282              		.size	sd_lld_start, .-sd_lld_start
 1283              		.section	.text.sd_lld_stop,"ax",%progbits
 1284              		.align	1
 1285              		.p2align 4,,15
 1286              		.global	sd_lld_stop
 1287              		.syntax unified
 1288              		.thumb
 1289              		.thumb_func
 1290              		.fpu softvfp
 1291              		.type	sd_lld_stop, %function
 1292              	sd_lld_stop:
 1293              	.LVL52:
 1294              	.LFB285:
 1295              		.loc 1 575 37 is_stmt 1 view -0
 1296              		.cfi_startproc
 1297              		@ args = 0, pretend = 0, frame = 0
 1298              		@ frame_needed = 0, uses_anonymous_args = 0
 1299              		@ link register save eliminated.
 1300              		.loc 1 577 3 view .LVU315
 1301              		.loc 1 577 6 is_stmt 0 view .LVU316
 1302 0000 037A     		ldrb	r3, [r0, #8]	@ zero_extendqisi2
 1303 0002 022B     		cmp	r3, #2
 1304 0004 00D0     		beq	.L81
 1305              	.L77:
 1306              		.loc 1 636 1 view .LVU317
 1307 0006 7047     		bx	lr
 1308              	.L81:
 1309              		.loc 1 578 5 is_stmt 1 view .LVU318
 1310              		.loc 1 587 8 is_stmt 0 view .LVU319
 1311 0008 0749     		ldr	r1, .L82
ARM GAS  /tmp/cc3HRWRS.s 			page 24


 1312              		.loc 1 578 5 view .LVU320
 1313 000a 436F     		ldr	r3, [r0, #116]
 1314              	.LVL53:
 1315              	.LBB480:
 1316              	.LBI480:
 1317              		.loc 1 140 13 is_stmt 1 view .LVU321
 1318              	.LBB481:
 1319              		.loc 1 142 3 view .LVU322
 1320              		.loc 1 142 10 is_stmt 0 view .LVU323
 1321 000c 0022     		movs	r2, #0
 1322              	.LBE481:
 1323              	.LBE480:
 1324              		.loc 1 587 8 view .LVU324
 1325 000e 8842     		cmp	r0, r1
 1326              	.LBB483:
 1327              	.LBB482:
 1328              		.loc 1 142 10 view .LVU325
 1329 0010 DA60     		str	r2, [r3, #12]
 1330              		.loc 1 143 3 is_stmt 1 view .LVU326
 1331              		.loc 1 143 10 is_stmt 0 view .LVU327
 1332 0012 1A61     		str	r2, [r3, #16]
 1333              		.loc 1 144 3 is_stmt 1 view .LVU328
 1334              		.loc 1 144 10 is_stmt 0 view .LVU329
 1335 0014 5A61     		str	r2, [r3, #20]
 1336              	.LVL54:
 1337              		.loc 1 144 10 view .LVU330
 1338              	.LBE482:
 1339              	.LBE483:
 1340              		.loc 1 587 5 is_stmt 1 view .LVU331
 1341              		.loc 1 587 8 is_stmt 0 view .LVU332
 1342 0016 F6D1     		bne	.L77
 1343              		.loc 1 588 7 is_stmt 1 view .LVU333
 1344 0018 044A     		ldr	r2, .L82+4
 1345 001a 136C     		ldr	r3, [r2, #64]
 1346 001c 23F40033 		bic	r3, r3, #131072
 1347              		.loc 1 589 7 is_stmt 0 view .LVU334
 1348 0020 2620     		movs	r0, #38
 1349              	.LVL55:
 1350              		.loc 1 588 7 view .LVU335
 1351 0022 1364     		str	r3, [r2, #64]
 1352              		.loc 1 588 7 is_stmt 1 view .LVU336
 1353              		.loc 1 588 30 view .LVU337
 1354              		.loc 1 589 7 view .LVU338
 1355 0024 FFF7FEBF 		b	nvicDisableVector
 1356              	.LVL56:
 1357              	.L83:
 1358              		.align	2
 1359              	.L82:
 1360 0028 00000000 		.word	.LANCHOR0
 1361 002c 00380240 		.word	1073887232
 1362              		.cfi_endproc
 1363              	.LFE285:
 1364              		.size	sd_lld_stop, .-sd_lld_stop
 1365              		.global	SD2
 1366              		.section	.bss.SD2,"aw",%nobits
 1367              		.align	2
 1368              		.set	.LANCHOR0,. + 0
ARM GAS  /tmp/cc3HRWRS.s 			page 25


 1369              		.type	SD2, %object
 1370              		.size	SD2, 124
 1371              	SD2:
 1372 0000 00000000 		.space	124
 1372      00000000 
 1372      00000000 
 1372      00000000 
 1372      00000000 
 1373              		.section	.rodata.default_config,"a"
 1374              		.align	2
 1375              		.set	.LANCHOR1,. + 0
 1376              		.type	default_config, %object
 1377              		.size	default_config, 12
 1378              	default_config:
 1379 0000 00960000 		.word	38400
 1380 0004 0000     		.short	0
 1381 0006 0000     		.short	0
 1382 0008 0000     		.short	0
 1383 000a 0000     		.space	2
 1384              		.text
 1385              	.Letext0:
 1386              		.file 6 "/usr/lib/gcc/arm-none-eabi/10.3.1/include/stddef.h"
 1387              		.file 7 "/usr/lib/gcc/arm-none-eabi/10.3.1/include/stdint.h"
 1388              		.file 8 "../../../os/common/ports/ARMCMx/compilers/GCC/chtypes.h"
 1389              		.file 9 "../../../os/rt/include/chsystypes.h"
 1390              		.file 10 "../../../os/rt/include/chschd.h"
 1391              		.file 11 "../../../os/common/ext/CMSIS/ST/STM32F4xx/stm32f407xx.h"
 1392              		.file 12 "../../../os/common/ports/ARMCMx/chcore.h"
 1393              		.file 13 "../../../os/rt/include/chsem.h"
 1394              		.file 14 "../../../os/rt/include/chmtx.h"
 1395              		.file 15 "../../../os/rt/include/chevents.h"
 1396              		.file 16 "../../../os/hal/include/hal_queues.h"
 1397              		.file 17 "../../../os/hal/include/hal_serial.h"
 1398              		.file 18 "../../../os/hal/ports/STM32/LLD/USARTv1/hal_serial_lld.h"
 1399              		.file 19 "../../../os/hal/ports/common/ARMCMx/nvic.h"