ARM GAS  /tmp/ccBgKJxE.s 			page 1


   1              		.cpu cortex-m4
   2              		.eabi_attribute 20, 1
   3              		.eabi_attribute 21, 1
   4              		.eabi_attribute 23, 3
   5              		.eabi_attribute 24, 1
   6              		.eabi_attribute 25, 1
   7              		.eabi_attribute 26, 1
   8              		.eabi_attribute 30, 2
   9              		.eabi_attribute 34, 1
  10              		.eabi_attribute 18, 4
  11              		.file	"hal_pwm.c"
  12              		.text
  13              	.Ltext0:
  14              		.cfi_sections	.debug_frame
  15              		.section	.text.pwmInit,"ax",%progbits
  16              		.align	1
  17              		.p2align 4,,15
  18              		.global	pwmInit
  19              		.arch armv7e-m
  20              		.syntax unified
  21              		.thumb
  22              		.thumb_func
  23              		.fpu softvfp
  24              		.type	pwmInit, %function
  25              	pwmInit:
  26              	.LFB277:
  27              		.file 1 "../../../os/hal/src/hal_pwm.c"
  28              		.loc 1 56 20 view -0
  29              		.cfi_startproc
  30              		@ args = 0, pretend = 0, frame = 0
  31              		@ frame_needed = 0, uses_anonymous_args = 0
  32              		@ link register save eliminated.
  33              		.loc 1 58 3 view .LVU1
  34 0000 FFF7FEBF 		b	pwm_lld_init
  35              	.LVL0:
  36              		.cfi_endproc
  37              	.LFE277:
  38              		.size	pwmInit, .-pwmInit
  39              		.section	.text.pwmObjectInit,"ax",%progbits
  40              		.align	1
  41              		.p2align 4,,15
  42              		.global	pwmObjectInit
  43              		.syntax unified
  44              		.thumb
  45              		.thumb_func
  46              		.fpu softvfp
  47              		.type	pwmObjectInit, %function
  48              	pwmObjectInit:
  49              	.LVL1:
  50              	.LFB278:
  51              		.loc 1 68 37 view -0
  52              		.cfi_startproc
  53              		@ args = 0, pretend = 0, frame = 0
  54              		@ frame_needed = 0, uses_anonymous_args = 0
  55              		@ link register save eliminated.
  56              		.loc 1 70 3 view .LVU3
  57              		.loc 1 71 18 is_stmt 0 view .LVU4
ARM GAS  /tmp/ccBgKJxE.s 			page 2


  58 0000 0023     		movs	r3, #0
  59              		.loc 1 70 18 view .LVU5
  60 0002 0122     		movs	r2, #1
  61 0004 0270     		strb	r2, [r0]
  62              		.loc 1 71 3 is_stmt 1 view .LVU6
  63              		.loc 1 71 18 is_stmt 0 view .LVU7
  64 0006 4360     		str	r3, [r0, #4]
  65              		.loc 1 72 3 is_stmt 1 view .LVU8
  66              		.loc 1 72 18 is_stmt 0 view .LVU9
  67 0008 C360     		str	r3, [r0, #12]
  68              		.loc 1 73 3 is_stmt 1 view .LVU10
  69              		.loc 1 73 18 is_stmt 0 view .LVU11
  70 000a 0374     		strb	r3, [r0, #16]
  71              		.loc 1 77 1 view .LVU12
  72 000c 7047     		bx	lr
  73              		.cfi_endproc
  74              	.LFE278:
  75              		.size	pwmObjectInit, .-pwmObjectInit
  76 000e 00BF     		.section	.text.pwmStart,"ax",%progbits
  77              		.align	1
  78              		.p2align 4,,15
  79              		.global	pwmStart
  80              		.syntax unified
  81              		.thumb
  82              		.thumb_func
  83              		.fpu softvfp
  84              		.type	pwmStart, %function
  85              	pwmStart:
  86              	.LVL2:
  87              	.LFB279:
  88              		.loc 1 89 57 is_stmt 1 view -0
  89              		.cfi_startproc
  90              		@ args = 0, pretend = 0, frame = 0
  91              		@ frame_needed = 0, uses_anonymous_args = 0
  92              		.loc 1 91 3 view .LVU14
  93              		.loc 1 91 3 view .LVU15
  94              		.loc 1 91 3 view .LVU16
  95              		.loc 1 93 3 view .LVU17
  96              	.LBB141:
  97              	.LBI141:
  98              		.file 2 "../../../os/hal/osal/rt/osal.h"
  99              		.loc 2 491 20 view .LVU18
 100              	.LBE141:
 101              		.loc 2 493 3 view .LVU19
 102              	.LBB157:
 103              	.LBB142:
 104              	.LBI142:
 105              		.file 3 "../../../os/rt/include/chsys.h"
 106              		.loc 3 374 20 view .LVU20
 107              	.LBE142:
 108              	.LBE157:
 109              		.loc 3 376 3 view .LVU21
 110              	.LBB158:
 111              	.LBB153:
 112              	.LBB143:
 113              	.LBI143:
 114              		.file 4 "../../../os/common/ports/ARMCMx/chcore_v7m.h"
ARM GAS  /tmp/ccBgKJxE.s 			page 3


 115              		.loc 4 594 20 view .LVU22
 116              	.LBE143:
 117              	.LBE153:
 118              	.LBE158:
 119              		.loc 4 602 3 view .LVU23
 120              	.LBB159:
 121              	.LBB154:
 122              	.LBB150:
 123              	.LBB144:
 124              	.LBI144:
 125              		.file 5 "../../../os/common/ext/CMSIS/include/cmsis_gcc.h"
 126              		.loc 5 262 57 view .LVU24
 127              	.LBB145:
 128              		.loc 5 264 3 view .LVU25
 129              	.LBE145:
 130              	.LBE144:
 131              	.LBE150:
 132              	.LBE154:
 133              	.LBE159:
 134              		.loc 1 89 57 is_stmt 0 view .LVU26
 135 0000 10B5     		push	{r4, lr}
 136              		.cfi_def_cfa_offset 8
 137              		.cfi_offset 4, -8
 138              		.cfi_offset 14, -4
 139              	.LBB160:
 140              	.LBB155:
 141              	.LBB151:
 142              	.LBB148:
 143              	.LBB146:
 144              		.loc 5 264 3 view .LVU27
 145 0002 2023     		movs	r3, #32
 146              	.LBE146:
 147              	.LBE148:
 148              	.LBE151:
 149              	.LBE155:
 150              	.LBE160:
 151              		.loc 1 89 57 view .LVU28
 152 0004 0446     		mov	r4, r0
 153              	.LBB161:
 154              	.LBB156:
 155              	.LBB152:
 156              	.LBB149:
 157              	.LBB147:
 158              		.loc 5 264 3 view .LVU29
 159              		.syntax unified
 160              	@ 264 "../../../os/common/ext/CMSIS/include/cmsis_gcc.h" 1
 161 0006 83F31188 		MSR basepri, r3
 162              	@ 0 "" 2
 163              	.LVL3:
 164              		.loc 5 264 3 view .LVU30
 165              		.thumb
 166              		.syntax unified
 167              	.LBE147:
 168              	.LBE149:
 169              	.LBE152:
 170              	.LBE156:
 171              	.LBE161:
ARM GAS  /tmp/ccBgKJxE.s 			page 4


 172              		.loc 3 377 34 is_stmt 1 view .LVU31
 173              		.loc 3 378 20 view .LVU32
 174              		.loc 1 94 3 view .LVU33
 175              		.loc 1 94 3 view .LVU34
 176              		.loc 1 94 3 view .LVU35
 177              		.loc 1 96 3 view .LVU36
 178              		.loc 1 97 16 is_stmt 0 view .LVU37
 179 000a 4B68     		ldr	r3, [r1, #4]
 180 000c C0E90113 		strd	r1, r3, [r0, #4]
 181              		.loc 1 98 3 is_stmt 1 view .LVU38
 182 0010 FFF7FEFF 		bl	pwm_lld_start
 183              	.LVL4:
 184              		.loc 1 99 3 view .LVU39
 185              		.loc 1 99 17 is_stmt 0 view .LVU40
 186 0014 0023     		movs	r3, #0
 187              		.loc 1 100 15 view .LVU41
 188 0016 0222     		movs	r2, #2
 189              		.loc 1 99 17 view .LVU42
 190 0018 E360     		str	r3, [r4, #12]
 191              		.loc 1 100 3 is_stmt 1 view .LVU43
 192              		.loc 1 100 15 is_stmt 0 view .LVU44
 193 001a 2270     		strb	r2, [r4]
 194              		.loc 1 101 3 is_stmt 1 view .LVU45
 195              	.LBB162:
 196              	.LBI162:
 197              		.loc 2 502 20 view .LVU46
 198              	.LBE162:
 199              		.loc 2 504 3 view .LVU47
 200              	.LBB171:
 201              	.LBB163:
 202              	.LBI163:
 203              		.loc 3 386 20 view .LVU48
 204              	.LBB164:
 205              		.loc 3 388 22 view .LVU49
 206              		.loc 3 389 33 view .LVU50
 207              		.loc 3 395 3 view .LVU51
 208              		.loc 3 395 3 view .LVU52
 209              		.loc 3 395 3 view .LVU53
 210              		.loc 3 399 3 view .LVU54
 211              	.LBB165:
 212              	.LBI165:
 213              		.loc 4 618 20 view .LVU55
 214              	.LBE165:
 215              	.LBE164:
 216              	.LBE163:
 217              	.LBE171:
 218              		.loc 4 621 3 view .LVU56
 219              	.LVL5:
 220              	.LBB172:
 221              	.LBB170:
 222              	.LBB169:
 223              	.LBB168:
 224              	.LBB166:
 225              	.LBI166:
 226              		.loc 5 262 57 view .LVU57
 227              	.LBB167:
 228              		.loc 5 264 3 view .LVU58
ARM GAS  /tmp/ccBgKJxE.s 			page 5


 229              		.syntax unified
 230              	@ 264 "../../../os/common/ext/CMSIS/include/cmsis_gcc.h" 1
 231 001c 83F31188 		MSR basepri, r3
 232              	@ 0 "" 2
 233              	.LVL6:
 234              		.loc 5 264 3 is_stmt 0 view .LVU59
 235              		.thumb
 236              		.syntax unified
 237              	.LBE167:
 238              	.LBE166:
 239              	.LBE168:
 240              	.LBE169:
 241              	.LBE170:
 242              	.LBE172:
 243              		.loc 1 102 1 view .LVU60
 244 0020 10BD     		pop	{r4, pc}
 245              		.loc 1 102 1 view .LVU61
 246              		.cfi_endproc
 247              	.LFE279:
 248              		.size	pwmStart, .-pwmStart
 249 0022 00BF     		.section	.text.pwmStop,"ax",%progbits
 250              		.align	1
 251              		.p2align 4,,15
 252              		.global	pwmStop
 253              		.syntax unified
 254              		.thumb
 255              		.thumb_func
 256              		.fpu softvfp
 257              		.type	pwmStop, %function
 258              	pwmStop:
 259              	.LVL7:
 260              	.LFB280:
 261              		.loc 1 111 31 is_stmt 1 view -0
 262              		.cfi_startproc
 263              		@ args = 0, pretend = 0, frame = 0
 264              		@ frame_needed = 0, uses_anonymous_args = 0
 265              		.loc 1 113 3 view .LVU63
 266              		.loc 1 113 3 view .LVU64
 267              		.loc 1 113 3 view .LVU65
 268              		.loc 1 115 3 view .LVU66
 269              	.LBB173:
 270              	.LBI173:
 271              		.loc 2 491 20 view .LVU67
 272              	.LBE173:
 273              		.loc 2 493 3 view .LVU68
 274              	.LBB189:
 275              	.LBB174:
 276              	.LBI174:
 277              		.loc 3 374 20 view .LVU69
 278              	.LBE174:
 279              	.LBE189:
 280              		.loc 3 376 3 view .LVU70
 281              	.LBB190:
 282              	.LBB185:
 283              	.LBB175:
 284              	.LBI175:
 285              		.loc 4 594 20 view .LVU71
ARM GAS  /tmp/ccBgKJxE.s 			page 6


 286              	.LBE175:
 287              	.LBE185:
 288              	.LBE190:
 289              		.loc 4 602 3 view .LVU72
 290              	.LBB191:
 291              	.LBB186:
 292              	.LBB182:
 293              	.LBB176:
 294              	.LBI176:
 295              		.loc 5 262 57 view .LVU73
 296              	.LBB177:
 297              		.loc 5 264 3 view .LVU74
 298              	.LBE177:
 299              	.LBE176:
 300              	.LBE182:
 301              	.LBE186:
 302              	.LBE191:
 303              		.loc 1 111 31 is_stmt 0 view .LVU75
 304 0000 10B5     		push	{r4, lr}
 305              		.cfi_def_cfa_offset 8
 306              		.cfi_offset 4, -8
 307              		.cfi_offset 14, -4
 308              	.LBB192:
 309              	.LBB187:
 310              	.LBB183:
 311              	.LBB180:
 312              	.LBB178:
 313              		.loc 5 264 3 view .LVU76
 314 0002 2023     		movs	r3, #32
 315              	.LBE178:
 316              	.LBE180:
 317              	.LBE183:
 318              	.LBE187:
 319              	.LBE192:
 320              		.loc 1 111 31 view .LVU77
 321 0004 0446     		mov	r4, r0
 322              	.LBB193:
 323              	.LBB188:
 324              	.LBB184:
 325              	.LBB181:
 326              	.LBB179:
 327              		.loc 5 264 3 view .LVU78
 328              		.syntax unified
 329              	@ 264 "../../../os/common/ext/CMSIS/include/cmsis_gcc.h" 1
 330 0006 83F31188 		MSR basepri, r3
 331              	@ 0 "" 2
 332              	.LVL8:
 333              		.loc 5 264 3 view .LVU79
 334              		.thumb
 335              		.syntax unified
 336              	.LBE179:
 337              	.LBE181:
 338              	.LBE184:
 339              	.LBE188:
 340              	.LBE193:
 341              		.loc 3 377 34 is_stmt 1 view .LVU80
 342              		.loc 3 378 20 view .LVU81
ARM GAS  /tmp/ccBgKJxE.s 			page 7


 343              		.loc 1 117 3 view .LVU82
 344              		.loc 1 117 3 view .LVU83
 345              		.loc 1 117 3 view .LVU84
 346              		.loc 1 120 3 view .LVU85
 347 000a FFF7FEFF 		bl	pwm_lld_stop
 348              	.LVL9:
 349              		.loc 1 121 3 view .LVU86
 350              		.loc 1 121 17 is_stmt 0 view .LVU87
 351 000e 0023     		movs	r3, #0
 352              		.loc 1 123 17 view .LVU88
 353 0010 0122     		movs	r2, #1
 354              		.loc 1 121 17 view .LVU89
 355 0012 E360     		str	r3, [r4, #12]
 356              		.loc 1 122 3 is_stmt 1 view .LVU90
 357              		.loc 1 122 17 is_stmt 0 view .LVU91
 358 0014 6360     		str	r3, [r4, #4]
 359              		.loc 1 123 3 is_stmt 1 view .LVU92
 360              		.loc 1 123 17 is_stmt 0 view .LVU93
 361 0016 2270     		strb	r2, [r4]
 362              		.loc 1 125 3 is_stmt 1 view .LVU94
 363              	.LBB194:
 364              	.LBI194:
 365              		.loc 2 502 20 view .LVU95
 366              	.LBE194:
 367              		.loc 2 504 3 view .LVU96
 368              	.LBB203:
 369              	.LBB195:
 370              	.LBI195:
 371              		.loc 3 386 20 view .LVU97
 372              	.LBB196:
 373              		.loc 3 388 22 view .LVU98
 374              		.loc 3 389 33 view .LVU99
 375              		.loc 3 395 3 view .LVU100
 376              		.loc 3 395 3 view .LVU101
 377              		.loc 3 395 3 view .LVU102
 378              		.loc 3 399 3 view .LVU103
 379              	.LBB197:
 380              	.LBI197:
 381              		.loc 4 618 20 view .LVU104
 382              	.LBE197:
 383              	.LBE196:
 384              	.LBE195:
 385              	.LBE203:
 386              		.loc 4 621 3 view .LVU105
 387              	.LVL10:
 388              	.LBB204:
 389              	.LBB202:
 390              	.LBB201:
 391              	.LBB200:
 392              	.LBB198:
 393              	.LBI198:
 394              		.loc 5 262 57 view .LVU106
 395              	.LBB199:
 396              		.loc 5 264 3 view .LVU107
 397              		.syntax unified
 398              	@ 264 "../../../os/common/ext/CMSIS/include/cmsis_gcc.h" 1
 399 0018 83F31188 		MSR basepri, r3
ARM GAS  /tmp/ccBgKJxE.s 			page 8


 400              	@ 0 "" 2
 401              	.LVL11:
 402              		.loc 5 264 3 is_stmt 0 view .LVU108
 403              		.thumb
 404              		.syntax unified
 405              	.LBE199:
 406              	.LBE198:
 407              	.LBE200:
 408              	.LBE201:
 409              	.LBE202:
 410              	.LBE204:
 411              		.loc 1 126 1 view .LVU109
 412 001c 10BD     		pop	{r4, pc}
 413              		.loc 1 126 1 view .LVU110
 414              		.cfi_endproc
 415              	.LFE280:
 416              		.size	pwmStop, .-pwmStop
 417 001e 00BF     		.section	.text.pwmChangePeriod,"ax",%progbits
 418              		.align	1
 419              		.p2align 4,,15
 420              		.global	pwmChangePeriod
 421              		.syntax unified
 422              		.thumb
 423              		.thumb_func
 424              		.fpu softvfp
 425              		.type	pwmChangePeriod, %function
 426              	pwmChangePeriod:
 427              	.LVL12:
 428              	.LFB281:
 429              		.loc 1 143 56 is_stmt 1 view -0
 430              		.cfi_startproc
 431              		@ args = 0, pretend = 0, frame = 0
 432              		@ frame_needed = 0, uses_anonymous_args = 0
 433              		@ link register save eliminated.
 434              		.loc 1 145 3 view .LVU112
 435              		.loc 1 145 3 view .LVU113
 436              		.loc 1 145 3 view .LVU114
 437              		.loc 1 147 3 view .LVU115
 438              	.LBB205:
 439              	.LBI205:
 440              		.loc 2 491 20 view .LVU116
 441              	.LBE205:
 442              		.loc 2 493 3 view .LVU117
 443              	.LBB217:
 444              	.LBB206:
 445              	.LBI206:
 446              		.loc 3 374 20 view .LVU118
 447              	.LBE206:
 448              	.LBE217:
 449              		.loc 3 376 3 view .LVU119
 450              	.LBB218:
 451              	.LBB214:
 452              	.LBB207:
 453              	.LBI207:
 454              		.loc 4 594 20 view .LVU120
 455              	.LBE207:
 456              	.LBE214:
ARM GAS  /tmp/ccBgKJxE.s 			page 9


 457              	.LBE218:
 458              		.loc 4 602 3 view .LVU121
 459              	.LBB219:
 460              	.LBB215:
 461              	.LBB212:
 462              	.LBB208:
 463              	.LBI208:
 464              		.loc 5 262 57 view .LVU122
 465              	.LBB209:
 466              		.loc 5 264 3 view .LVU123
 467              	.LBE209:
 468              	.LBE208:
 469              	.LBE212:
 470              	.LBE215:
 471              	.LBE219:
 472              		.loc 1 143 56 is_stmt 0 view .LVU124
 473 0000 10B4     		push	{r4}
 474              		.cfi_def_cfa_offset 4
 475              		.cfi_offset 4, -4
 476              	.LBB220:
 477              	.LBB216:
 478              	.LBB213:
 479              	.LBB211:
 480              	.LBB210:
 481              		.loc 5 264 3 view .LVU125
 482 0002 2023     		movs	r3, #32
 483              		.syntax unified
 484              	@ 264 "../../../os/common/ext/CMSIS/include/cmsis_gcc.h" 1
 485 0004 83F31188 		MSR basepri, r3
 486              	@ 0 "" 2
 487              	.LVL13:
 488              		.loc 5 264 3 view .LVU126
 489              		.thumb
 490              		.syntax unified
 491              	.LBE210:
 492              	.LBE211:
 493              	.LBE213:
 494              	.LBE216:
 495              	.LBE220:
 496              		.loc 3 377 34 is_stmt 1 view .LVU127
 497              		.loc 3 378 20 view .LVU128
 498              		.loc 1 148 3 view .LVU129
 499              		.loc 1 148 3 view .LVU130
 500              		.loc 1 148 3 view .LVU131
 501              		.loc 1 149 3 view .LVU132
 502 0008 8269     		ldr	r2, [r0, #24]
 503 000a 8160     		str	r1, [r0, #8]
 504              		.loc 1 149 3 view .LVU133
 505 000c 4C1E     		subs	r4, r1, #1
 506              	.LBB221:
 507              	.LBB222:
 508              	.LBB223:
 509              	.LBB224:
 510              	.LBB225:
 511              	.LBB226:
 512              		.loc 5 264 3 is_stmt 0 view .LVU134
 513 000e 0023     		movs	r3, #0
ARM GAS  /tmp/ccBgKJxE.s 			page 10


 514              	.LBE226:
 515              	.LBE225:
 516              	.LBE224:
 517              	.LBE223:
 518              	.LBE222:
 519              	.LBE221:
 520              		.loc 1 149 3 view .LVU135
 521 0010 D462     		str	r4, [r2, #44]
 522              		.loc 1 149 33 is_stmt 1 view .LVU136
 523              		.loc 1 150 3 view .LVU137
 524              	.LBB235:
 525              	.LBI221:
 526              		.loc 2 502 20 view .LVU138
 527              	.LBE235:
 528              		.loc 2 504 3 view .LVU139
 529              	.LBB236:
 530              	.LBB233:
 531              	.LBI222:
 532              		.loc 3 386 20 view .LVU140
 533              	.LBB231:
 534              		.loc 3 388 22 view .LVU141
 535              		.loc 3 389 33 view .LVU142
 536              		.loc 3 395 3 view .LVU143
 537              		.loc 3 395 3 view .LVU144
 538              		.loc 3 395 3 view .LVU145
 539              		.loc 3 399 3 view .LVU146
 540              	.LBB229:
 541              	.LBI224:
 542              		.loc 4 618 20 view .LVU147
 543              	.LBE229:
 544              	.LBE231:
 545              	.LBE233:
 546              	.LBE236:
 547              		.loc 4 621 3 view .LVU148
 548              	.LVL14:
 549              	.LBB237:
 550              	.LBB234:
 551              	.LBB232:
 552              	.LBB230:
 553              	.LBB228:
 554              	.LBI225:
 555              		.loc 5 262 57 view .LVU149
 556              	.LBB227:
 557              		.loc 5 264 3 view .LVU150
 558              		.syntax unified
 559              	@ 264 "../../../os/common/ext/CMSIS/include/cmsis_gcc.h" 1
 560 0012 83F31188 		MSR basepri, r3
 561              	@ 0 "" 2
 562              	.LVL15:
 563              		.loc 5 264 3 is_stmt 0 view .LVU151
 564              		.thumb
 565              		.syntax unified
 566              	.LBE227:
 567              	.LBE228:
 568              	.LBE230:
 569              	.LBE232:
 570              	.LBE234:
ARM GAS  /tmp/ccBgKJxE.s 			page 11


 571              	.LBE237:
 572              		.loc 1 151 1 view .LVU152
 573 0016 10BC     		pop	{r4}
 574              		.cfi_restore 4
 575              		.cfi_def_cfa_offset 0
 576 0018 7047     		bx	lr
 577              		.cfi_endproc
 578              	.LFE281:
 579              		.size	pwmChangePeriod, .-pwmChangePeriod
 580 001a 00BF     		.section	.text.pwmEnableChannel,"ax",%progbits
 581              		.align	1
 582              		.p2align 4,,15
 583              		.global	pwmEnableChannel
 584              		.syntax unified
 585              		.thumb
 586              		.thumb_func
 587              		.fpu softvfp
 588              		.type	pwmEnableChannel, %function
 589              	pwmEnableChannel:
 590              	.LVL16:
 591              	.LFB282:
 592              		.loc 1 169 39 is_stmt 1 view -0
 593              		.cfi_startproc
 594              		@ args = 0, pretend = 0, frame = 0
 595              		@ frame_needed = 0, uses_anonymous_args = 0
 596              		.loc 1 171 3 view .LVU154
 597              		.loc 1 171 3 view .LVU155
 598              		.loc 1 171 3 view .LVU156
 599              		.loc 1 173 3 view .LVU157
 600              	.LBB238:
 601              	.LBI238:
 602              		.loc 2 491 20 view .LVU158
 603              	.LBE238:
 604              		.loc 2 493 3 view .LVU159
 605              	.LBB250:
 606              	.LBB239:
 607              	.LBI239:
 608              		.loc 3 374 20 view .LVU160
 609              	.LBE239:
 610              	.LBE250:
 611              		.loc 3 376 3 view .LVU161
 612              	.LBB251:
 613              	.LBB247:
 614              	.LBB240:
 615              	.LBI240:
 616              		.loc 4 594 20 view .LVU162
 617              	.LBE240:
 618              	.LBE247:
 619              	.LBE251:
 620              		.loc 4 602 3 view .LVU163
 621              	.LBB252:
 622              	.LBB248:
 623              	.LBB245:
 624              	.LBB241:
 625              	.LBI241:
 626              		.loc 5 262 57 view .LVU164
 627              	.LBB242:
ARM GAS  /tmp/ccBgKJxE.s 			page 12


 628              		.loc 5 264 3 view .LVU165
 629              	.LBE242:
 630              	.LBE241:
 631              	.LBE245:
 632              	.LBE248:
 633              	.LBE252:
 634              		.loc 1 169 39 is_stmt 0 view .LVU166
 635 0000 38B5     		push	{r3, r4, r5, lr}
 636              		.cfi_def_cfa_offset 16
 637              		.cfi_offset 3, -16
 638              		.cfi_offset 4, -12
 639              		.cfi_offset 5, -8
 640              		.cfi_offset 14, -4
 641              	.LBB253:
 642              	.LBB249:
 643              	.LBB246:
 644              	.LBB244:
 645              	.LBB243:
 646              		.loc 5 264 3 view .LVU167
 647 0002 2024     		movs	r4, #32
 648              		.syntax unified
 649              	@ 264 "../../../os/common/ext/CMSIS/include/cmsis_gcc.h" 1
 650 0004 84F31188 		MSR basepri, r4
 651              	@ 0 "" 2
 652              	.LVL17:
 653              		.loc 5 264 3 view .LVU168
 654              		.thumb
 655              		.syntax unified
 656              	.LBE243:
 657              	.LBE244:
 658              	.LBE246:
 659              	.LBE249:
 660              	.LBE253:
 661              		.loc 3 377 34 is_stmt 1 view .LVU169
 662              		.loc 3 378 20 view .LVU170
 663              		.loc 1 175 3 view .LVU171
 664              		.loc 1 175 3 view .LVU172
 665              		.loc 1 175 3 view .LVU173
 666              		.loc 1 177 3 view .LVU174
 667              		.loc 1 177 3 view .LVU175
 668 0008 0124     		movs	r4, #1
 669 000a C568     		ldr	r5, [r0, #12]
 670 000c 8C40     		lsls	r4, r4, r1
 671 000e 2C43     		orrs	r4, r4, r5
 672 0010 C460     		str	r4, [r0, #12]
 673              		.loc 1 177 3 view .LVU176
 674 0012 FFF7FEFF 		bl	pwm_lld_enable_channel
 675              	.LVL18:
 676              		.loc 1 177 3 view .LVU177
 677              		.loc 1 179 3 view .LVU178
 678              	.LBB254:
 679              	.LBI254:
 680              		.loc 2 502 20 view .LVU179
 681              	.LBE254:
 682              		.loc 2 504 3 view .LVU180
 683              	.LBB263:
 684              	.LBB255:
ARM GAS  /tmp/ccBgKJxE.s 			page 13


 685              	.LBI255:
 686              		.loc 3 386 20 view .LVU181
 687              	.LBB256:
 688              		.loc 3 388 22 view .LVU182
 689              		.loc 3 389 33 view .LVU183
 690              		.loc 3 395 3 view .LVU184
 691              		.loc 3 395 3 view .LVU185
 692              		.loc 3 395 3 view .LVU186
 693              		.loc 3 399 3 view .LVU187
 694              	.LBB257:
 695              	.LBI257:
 696              		.loc 4 618 20 view .LVU188
 697              	.LBE257:
 698              	.LBE256:
 699              	.LBE255:
 700              	.LBE263:
 701              		.loc 4 621 3 view .LVU189
 702              	.LBB264:
 703              	.LBB262:
 704              	.LBB261:
 705              	.LBB260:
 706              	.LBB258:
 707              	.LBI258:
 708              		.loc 5 262 57 view .LVU190
 709              	.LBB259:
 710              		.loc 5 264 3 view .LVU191
 711 0016 0023     		movs	r3, #0
 712              		.syntax unified
 713              	@ 264 "../../../os/common/ext/CMSIS/include/cmsis_gcc.h" 1
 714 0018 83F31188 		MSR basepri, r3
 715              	@ 0 "" 2
 716              	.LVL19:
 717              		.loc 5 264 3 is_stmt 0 view .LVU192
 718              		.thumb
 719              		.syntax unified
 720              	.LBE259:
 721              	.LBE258:
 722              	.LBE260:
 723              	.LBE261:
 724              	.LBE262:
 725              	.LBE264:
 726              		.loc 1 180 1 view .LVU193
 727 001c 38BD     		pop	{r3, r4, r5, pc}
 728              		.cfi_endproc
 729              	.LFE282:
 730              		.size	pwmEnableChannel, .-pwmEnableChannel
 731 001e 00BF     		.section	.text.pwmDisableChannel,"ax",%progbits
 732              		.align	1
 733              		.p2align 4,,15
 734              		.global	pwmDisableChannel
 735              		.syntax unified
 736              		.thumb
 737              		.thumb_func
 738              		.fpu softvfp
 739              		.type	pwmDisableChannel, %function
 740              	pwmDisableChannel:
 741              	.LVL20:
ARM GAS  /tmp/ccBgKJxE.s 			page 14


 742              	.LFB283:
 743              		.loc 1 196 63 is_stmt 1 view -0
 744              		.cfi_startproc
 745              		@ args = 0, pretend = 0, frame = 0
 746              		@ frame_needed = 0, uses_anonymous_args = 0
 747              		.loc 1 198 3 view .LVU195
 748              		.loc 1 198 3 view .LVU196
 749              		.loc 1 198 3 view .LVU197
 750              		.loc 1 200 3 view .LVU198
 751              	.LBB265:
 752              	.LBI265:
 753              		.loc 2 491 20 view .LVU199
 754              	.LBE265:
 755              		.loc 2 493 3 view .LVU200
 756              	.LBB277:
 757              	.LBB266:
 758              	.LBI266:
 759              		.loc 3 374 20 view .LVU201
 760              	.LBE266:
 761              	.LBE277:
 762              		.loc 3 376 3 view .LVU202
 763              	.LBB278:
 764              	.LBB274:
 765              	.LBB267:
 766              	.LBI267:
 767              		.loc 4 594 20 view .LVU203
 768              	.LBE267:
 769              	.LBE274:
 770              	.LBE278:
 771              		.loc 4 602 3 view .LVU204
 772              	.LBB279:
 773              	.LBB275:
 774              	.LBB272:
 775              	.LBB268:
 776              	.LBI268:
 777              		.loc 5 262 57 view .LVU205
 778              	.LBB269:
 779              		.loc 5 264 3 view .LVU206
 780              	.LBE269:
 781              	.LBE268:
 782              	.LBE272:
 783              	.LBE275:
 784              	.LBE279:
 785              		.loc 1 196 63 is_stmt 0 view .LVU207
 786 0000 08B5     		push	{r3, lr}
 787              		.cfi_def_cfa_offset 8
 788              		.cfi_offset 3, -8
 789              		.cfi_offset 14, -4
 790              	.LBB280:
 791              	.LBB276:
 792              	.LBB273:
 793              	.LBB271:
 794              	.LBB270:
 795              		.loc 5 264 3 view .LVU208
 796 0002 2022     		movs	r2, #32
 797              		.syntax unified
 798              	@ 264 "../../../os/common/ext/CMSIS/include/cmsis_gcc.h" 1
ARM GAS  /tmp/ccBgKJxE.s 			page 15


 799 0004 82F31188 		MSR basepri, r2
 800              	@ 0 "" 2
 801              	.LVL21:
 802              		.loc 5 264 3 view .LVU209
 803              		.thumb
 804              		.syntax unified
 805              	.LBE270:
 806              	.LBE271:
 807              	.LBE273:
 808              	.LBE276:
 809              	.LBE280:
 810              		.loc 3 377 34 is_stmt 1 view .LVU210
 811              		.loc 3 378 20 view .LVU211
 812              		.loc 1 202 3 view .LVU212
 813              		.loc 1 202 3 view .LVU213
 814              		.loc 1 202 3 view .LVU214
 815              		.loc 1 204 3 view .LVU215
 816              		.loc 1 204 3 view .LVU216
 817 0008 0122     		movs	r2, #1
 818 000a 02FA01FC 		lsl	ip, r2, r1
 819 000e C268     		ldr	r2, [r0, #12]
 820 0010 22EA0C02 		bic	r2, r2, ip
 821 0014 C260     		str	r2, [r0, #12]
 822              		.loc 1 204 3 view .LVU217
 823 0016 FFF7FEFF 		bl	pwm_lld_disable_channel
 824              	.LVL22:
 825              		.loc 1 204 3 view .LVU218
 826              		.loc 1 206 3 view .LVU219
 827              	.LBB281:
 828              	.LBI281:
 829              		.loc 2 502 20 view .LVU220
 830              	.LBE281:
 831              		.loc 2 504 3 view .LVU221
 832              	.LBB290:
 833              	.LBB282:
 834              	.LBI282:
 835              		.loc 3 386 20 view .LVU222
 836              	.LBB283:
 837              		.loc 3 388 22 view .LVU223
 838              		.loc 3 389 33 view .LVU224
 839              		.loc 3 395 3 view .LVU225
 840              		.loc 3 395 3 view .LVU226
 841              		.loc 3 395 3 view .LVU227
 842              		.loc 3 399 3 view .LVU228
 843              	.LBB284:
 844              	.LBI284:
 845              		.loc 4 618 20 view .LVU229
 846              	.LBE284:
 847              	.LBE283:
 848              	.LBE282:
 849              	.LBE290:
 850              		.loc 4 621 3 view .LVU230
 851              	.LBB291:
 852              	.LBB289:
 853              	.LBB288:
 854              	.LBB287:
 855              	.LBB285:
ARM GAS  /tmp/ccBgKJxE.s 			page 16


 856              	.LBI285:
 857              		.loc 5 262 57 view .LVU231
 858              	.LBB286:
 859              		.loc 5 264 3 view .LVU232
 860 001a 0023     		movs	r3, #0
 861              		.syntax unified
 862              	@ 264 "../../../os/common/ext/CMSIS/include/cmsis_gcc.h" 1
 863 001c 83F31188 		MSR basepri, r3
 864              	@ 0 "" 2
 865              	.LVL23:
 866              		.loc 5 264 3 is_stmt 0 view .LVU233
 867              		.thumb
 868              		.syntax unified
 869              	.LBE286:
 870              	.LBE285:
 871              	.LBE287:
 872              	.LBE288:
 873              	.LBE289:
 874              	.LBE291:
 875              		.loc 1 207 1 view .LVU234
 876 0020 08BD     		pop	{r3, pc}
 877              		.cfi_endproc
 878              	.LFE283:
 879              		.size	pwmDisableChannel, .-pwmDisableChannel
 880 0022 00BF     		.section	.text.pwmEnablePeriodicNotification,"ax",%progbits
 881              		.align	1
 882              		.p2align 4,,15
 883              		.global	pwmEnablePeriodicNotification
 884              		.syntax unified
 885              		.thumb
 886              		.thumb_func
 887              		.fpu softvfp
 888              		.type	pwmEnablePeriodicNotification, %function
 889              	pwmEnablePeriodicNotification:
 890              	.LVL24:
 891              	.LFB284:
 892              		.loc 1 218 53 is_stmt 1 view -0
 893              		.cfi_startproc
 894              		@ args = 0, pretend = 0, frame = 0
 895              		@ frame_needed = 0, uses_anonymous_args = 0
 896              		.loc 1 220 3 view .LVU236
 897              		.loc 1 220 3 view .LVU237
 898              		.loc 1 220 3 view .LVU238
 899              		.loc 1 222 3 view .LVU239
 900              	.LBB292:
 901              	.LBI292:
 902              		.loc 2 491 20 view .LVU240
 903              	.LBE292:
 904              		.loc 2 493 3 view .LVU241
 905              	.LBB304:
 906              	.LBB293:
 907              	.LBI293:
 908              		.loc 3 374 20 view .LVU242
 909              	.LBE293:
 910              	.LBE304:
 911              		.loc 3 376 3 view .LVU243
 912              	.LBB305:
ARM GAS  /tmp/ccBgKJxE.s 			page 17


 913              	.LBB301:
 914              	.LBB294:
 915              	.LBI294:
 916              		.loc 4 594 20 view .LVU244
 917              	.LBE294:
 918              	.LBE301:
 919              	.LBE305:
 920              		.loc 4 602 3 view .LVU245
 921              	.LBB306:
 922              	.LBB302:
 923              	.LBB299:
 924              	.LBB295:
 925              	.LBI295:
 926              		.loc 5 262 57 view .LVU246
 927              	.LBB296:
 928              		.loc 5 264 3 view .LVU247
 929              	.LBE296:
 930              	.LBE295:
 931              	.LBE299:
 932              	.LBE302:
 933              	.LBE306:
 934              		.loc 1 218 53 is_stmt 0 view .LVU248
 935 0000 08B5     		push	{r3, lr}
 936              		.cfi_def_cfa_offset 8
 937              		.cfi_offset 3, -8
 938              		.cfi_offset 14, -4
 939              	.LBB307:
 940              	.LBB303:
 941              	.LBB300:
 942              	.LBB298:
 943              	.LBB297:
 944              		.loc 5 264 3 view .LVU249
 945 0002 2023     		movs	r3, #32
 946              		.syntax unified
 947              	@ 264 "../../../os/common/ext/CMSIS/include/cmsis_gcc.h" 1
 948 0004 83F31188 		MSR basepri, r3
 949              	@ 0 "" 2
 950              	.LVL25:
 951              		.loc 5 264 3 view .LVU250
 952              		.thumb
 953              		.syntax unified
 954              	.LBE297:
 955              	.LBE298:
 956              	.LBE300:
 957              	.LBE303:
 958              	.LBE307:
 959              		.loc 3 377 34 is_stmt 1 view .LVU251
 960              		.loc 3 378 20 view .LVU252
 961              		.loc 1 224 3 view .LVU253
 962              		.loc 1 224 3 view .LVU254
 963              		.loc 1 224 3 view .LVU255
 964              		.loc 1 225 3 view .LVU256
 965              		.loc 1 225 3 view .LVU257
 966              		.loc 1 225 3 view .LVU258
 967              		.loc 1 227 3 view .LVU259
 968 0008 FFF7FEFF 		bl	pwm_lld_enable_periodic_notification
 969              	.LVL26:
ARM GAS  /tmp/ccBgKJxE.s 			page 18


 970              		.loc 1 229 3 view .LVU260
 971              	.LBB308:
 972              	.LBI308:
 973              		.loc 2 502 20 view .LVU261
 974              	.LBE308:
 975              		.loc 2 504 3 view .LVU262
 976              	.LBB317:
 977              	.LBB309:
 978              	.LBI309:
 979              		.loc 3 386 20 view .LVU263
 980              	.LBB310:
 981              		.loc 3 388 22 view .LVU264
 982              		.loc 3 389 33 view .LVU265
 983              		.loc 3 395 3 view .LVU266
 984              		.loc 3 395 3 view .LVU267
 985              		.loc 3 395 3 view .LVU268
 986              		.loc 3 399 3 view .LVU269
 987              	.LBB311:
 988              	.LBI311:
 989              		.loc 4 618 20 view .LVU270
 990              	.LBE311:
 991              	.LBE310:
 992              	.LBE309:
 993              	.LBE317:
 994              		.loc 4 621 3 view .LVU271
 995              	.LBB318:
 996              	.LBB316:
 997              	.LBB315:
 998              	.LBB314:
 999              	.LBB312:
 1000              	.LBI312:
 1001              		.loc 5 262 57 view .LVU272
 1002              	.LBB313:
 1003              		.loc 5 264 3 view .LVU273
 1004 000c 0023     		movs	r3, #0
 1005              		.syntax unified
 1006              	@ 264 "../../../os/common/ext/CMSIS/include/cmsis_gcc.h" 1
 1007 000e 83F31188 		MSR basepri, r3
 1008              	@ 0 "" 2
 1009              	.LVL27:
 1010              		.loc 5 264 3 is_stmt 0 view .LVU274
 1011              		.thumb
 1012              		.syntax unified
 1013              	.LBE313:
 1014              	.LBE312:
 1015              	.LBE314:
 1016              	.LBE315:
 1017              	.LBE316:
 1018              	.LBE318:
 1019              		.loc 1 230 1 view .LVU275
 1020 0012 08BD     		pop	{r3, pc}
 1021              		.cfi_endproc
 1022              	.LFE284:
 1023              		.size	pwmEnablePeriodicNotification, .-pwmEnablePeriodicNotification
 1024              		.section	.text.pwmDisablePeriodicNotification,"ax",%progbits
 1025              		.align	1
 1026              		.p2align 4,,15
ARM GAS  /tmp/ccBgKJxE.s 			page 19


 1027              		.global	pwmDisablePeriodicNotification
 1028              		.syntax unified
 1029              		.thumb
 1030              		.thumb_func
 1031              		.fpu softvfp
 1032              		.type	pwmDisablePeriodicNotification, %function
 1033              	pwmDisablePeriodicNotification:
 1034              	.LVL28:
 1035              	.LFB285:
 1036              		.loc 1 241 54 is_stmt 1 view -0
 1037              		.cfi_startproc
 1038              		@ args = 0, pretend = 0, frame = 0
 1039              		@ frame_needed = 0, uses_anonymous_args = 0
 1040              		.loc 1 243 3 view .LVU277
 1041              		.loc 1 243 3 view .LVU278
 1042              		.loc 1 243 3 view .LVU279
 1043              		.loc 1 245 3 view .LVU280
 1044              	.LBB319:
 1045              	.LBI319:
 1046              		.loc 2 491 20 view .LVU281
 1047              	.LBE319:
 1048              		.loc 2 493 3 view .LVU282
 1049              	.LBB331:
 1050              	.LBB320:
 1051              	.LBI320:
 1052              		.loc 3 374 20 view .LVU283
 1053              	.LBE320:
 1054              	.LBE331:
 1055              		.loc 3 376 3 view .LVU284
 1056              	.LBB332:
 1057              	.LBB328:
 1058              	.LBB321:
 1059              	.LBI321:
 1060              		.loc 4 594 20 view .LVU285
 1061              	.LBE321:
 1062              	.LBE328:
 1063              	.LBE332:
 1064              		.loc 4 602 3 view .LVU286
 1065              	.LBB333:
 1066              	.LBB329:
 1067              	.LBB326:
 1068              	.LBB322:
 1069              	.LBI322:
 1070              		.loc 5 262 57 view .LVU287
 1071              	.LBB323:
 1072              		.loc 5 264 3 view .LVU288
 1073              	.LBE323:
 1074              	.LBE322:
 1075              	.LBE326:
 1076              	.LBE329:
 1077              	.LBE333:
 1078              		.loc 1 241 54 is_stmt 0 view .LVU289
 1079 0000 08B5     		push	{r3, lr}
 1080              		.cfi_def_cfa_offset 8
 1081              		.cfi_offset 3, -8
 1082              		.cfi_offset 14, -4
 1083              	.LBB334:
ARM GAS  /tmp/ccBgKJxE.s 			page 20


 1084              	.LBB330:
 1085              	.LBB327:
 1086              	.LBB325:
 1087              	.LBB324:
 1088              		.loc 5 264 3 view .LVU290
 1089 0002 2023     		movs	r3, #32
 1090              		.syntax unified
 1091              	@ 264 "../../../os/common/ext/CMSIS/include/cmsis_gcc.h" 1
 1092 0004 83F31188 		MSR basepri, r3
 1093              	@ 0 "" 2
 1094              	.LVL29:
 1095              		.loc 5 264 3 view .LVU291
 1096              		.thumb
 1097              		.syntax unified
 1098              	.LBE324:
 1099              	.LBE325:
 1100              	.LBE327:
 1101              	.LBE330:
 1102              	.LBE334:
 1103              		.loc 3 377 34 is_stmt 1 view .LVU292
 1104              		.loc 3 378 20 view .LVU293
 1105              		.loc 1 247 3 view .LVU294
 1106              		.loc 1 247 3 view .LVU295
 1107              		.loc 1 247 3 view .LVU296
 1108              		.loc 1 248 3 view .LVU297
 1109              		.loc 1 248 3 view .LVU298
 1110              		.loc 1 248 3 view .LVU299
 1111              		.loc 1 250 3 view .LVU300
 1112 0008 FFF7FEFF 		bl	pwm_lld_disable_periodic_notification
 1113              	.LVL30:
 1114              		.loc 1 252 3 view .LVU301
 1115              	.LBB335:
 1116              	.LBI335:
 1117              		.loc 2 502 20 view .LVU302
 1118              	.LBE335:
 1119              		.loc 2 504 3 view .LVU303
 1120              	.LBB344:
 1121              	.LBB336:
 1122              	.LBI336:
 1123              		.loc 3 386 20 view .LVU304
 1124              	.LBB337:
 1125              		.loc 3 388 22 view .LVU305
 1126              		.loc 3 389 33 view .LVU306
 1127              		.loc 3 395 3 view .LVU307
 1128              		.loc 3 395 3 view .LVU308
 1129              		.loc 3 395 3 view .LVU309
 1130              		.loc 3 399 3 view .LVU310
 1131              	.LBB338:
 1132              	.LBI338:
 1133              		.loc 4 618 20 view .LVU311
 1134              	.LBE338:
 1135              	.LBE337:
 1136              	.LBE336:
 1137              	.LBE344:
 1138              		.loc 4 621 3 view .LVU312
 1139              	.LBB345:
 1140              	.LBB343:
ARM GAS  /tmp/ccBgKJxE.s 			page 21


 1141              	.LBB342:
 1142              	.LBB341:
 1143              	.LBB339:
 1144              	.LBI339:
 1145              		.loc 5 262 57 view .LVU313
 1146              	.LBB340:
 1147              		.loc 5 264 3 view .LVU314
 1148 000c 0023     		movs	r3, #0
 1149              		.syntax unified
 1150              	@ 264 "../../../os/common/ext/CMSIS/include/cmsis_gcc.h" 1
 1151 000e 83F31188 		MSR basepri, r3
 1152              	@ 0 "" 2
 1153              	.LVL31:
 1154              		.loc 5 264 3 is_stmt 0 view .LVU315
 1155              		.thumb
 1156              		.syntax unified
 1157              	.LBE340:
 1158              	.LBE339:
 1159              	.LBE341:
 1160              	.LBE342:
 1161              	.LBE343:
 1162              	.LBE345:
 1163              		.loc 1 253 1 view .LVU316
 1164 0012 08BD     		pop	{r3, pc}
 1165              		.cfi_endproc
 1166              	.LFE285:
 1167              		.size	pwmDisablePeriodicNotification, .-pwmDisablePeriodicNotification
 1168              		.section	.text.pwmEnableChannelNotification,"ax",%progbits
 1169              		.align	1
 1170              		.p2align 4,,15
 1171              		.global	pwmEnableChannelNotification
 1172              		.syntax unified
 1173              		.thumb
 1174              		.thumb_func
 1175              		.fpu softvfp
 1176              		.type	pwmEnableChannelNotification, %function
 1177              	pwmEnableChannelNotification:
 1178              	.LVL32:
 1179              	.LFB286:
 1180              		.loc 1 266 74 is_stmt 1 view -0
 1181              		.cfi_startproc
 1182              		@ args = 0, pretend = 0, frame = 0
 1183              		@ frame_needed = 0, uses_anonymous_args = 0
 1184              		.loc 1 268 3 view .LVU318
 1185              		.loc 1 268 3 view .LVU319
 1186              		.loc 1 268 3 view .LVU320
 1187              		.loc 1 270 3 view .LVU321
 1188              	.LBB346:
 1189              	.LBI346:
 1190              		.loc 2 491 20 view .LVU322
 1191              	.LBE346:
 1192              		.loc 2 493 3 view .LVU323
 1193              	.LBB358:
 1194              	.LBB347:
 1195              	.LBI347:
 1196              		.loc 3 374 20 view .LVU324
 1197              	.LBE347:
ARM GAS  /tmp/ccBgKJxE.s 			page 22


 1198              	.LBE358:
 1199              		.loc 3 376 3 view .LVU325
 1200              	.LBB359:
 1201              	.LBB355:
 1202              	.LBB348:
 1203              	.LBI348:
 1204              		.loc 4 594 20 view .LVU326
 1205              	.LBE348:
 1206              	.LBE355:
 1207              	.LBE359:
 1208              		.loc 4 602 3 view .LVU327
 1209              	.LBB360:
 1210              	.LBB356:
 1211              	.LBB353:
 1212              	.LBB349:
 1213              	.LBI349:
 1214              		.loc 5 262 57 view .LVU328
 1215              	.LBB350:
 1216              		.loc 5 264 3 view .LVU329
 1217              	.LBE350:
 1218              	.LBE349:
 1219              	.LBE353:
 1220              	.LBE356:
 1221              	.LBE360:
 1222              		.loc 1 266 74 is_stmt 0 view .LVU330
 1223 0000 08B5     		push	{r3, lr}
 1224              		.cfi_def_cfa_offset 8
 1225              		.cfi_offset 3, -8
 1226              		.cfi_offset 14, -4
 1227              	.LBB361:
 1228              	.LBB357:
 1229              	.LBB354:
 1230              	.LBB352:
 1231              	.LBB351:
 1232              		.loc 5 264 3 view .LVU331
 1233 0002 2023     		movs	r3, #32
 1234              		.syntax unified
 1235              	@ 264 "../../../os/common/ext/CMSIS/include/cmsis_gcc.h" 1
 1236 0004 83F31188 		MSR basepri, r3
 1237              	@ 0 "" 2
 1238              	.LVL33:
 1239              		.loc 5 264 3 view .LVU332
 1240              		.thumb
 1241              		.syntax unified
 1242              	.LBE351:
 1243              	.LBE352:
 1244              	.LBE354:
 1245              	.LBE357:
 1246              	.LBE361:
 1247              		.loc 3 377 34 is_stmt 1 view .LVU333
 1248              		.loc 3 378 20 view .LVU334
 1249              		.loc 1 272 3 view .LVU335
 1250              		.loc 1 272 3 view .LVU336
 1251              		.loc 1 272 3 view .LVU337
 1252              		.loc 1 273 3 view .LVU338
 1253              		.loc 1 273 3 view .LVU339
 1254              		.loc 1 273 3 view .LVU340
ARM GAS  /tmp/ccBgKJxE.s 			page 23


 1255              		.loc 1 275 3 view .LVU341
 1256              		.loc 1 275 3 view .LVU342
 1257              		.loc 1 275 3 view .LVU343
 1258              		.loc 1 278 3 view .LVU344
 1259 0008 FFF7FEFF 		bl	pwm_lld_enable_channel_notification
 1260              	.LVL34:
 1261              		.loc 1 280 3 view .LVU345
 1262              	.LBB362:
 1263              	.LBI362:
 1264              		.loc 2 502 20 view .LVU346
 1265              	.LBE362:
 1266              		.loc 2 504 3 view .LVU347
 1267              	.LBB371:
 1268              	.LBB363:
 1269              	.LBI363:
 1270              		.loc 3 386 20 view .LVU348
 1271              	.LBB364:
 1272              		.loc 3 388 22 view .LVU349
 1273              		.loc 3 389 33 view .LVU350
 1274              		.loc 3 395 3 view .LVU351
 1275              		.loc 3 395 3 view .LVU352
 1276              		.loc 3 395 3 view .LVU353
 1277              		.loc 3 399 3 view .LVU354
 1278              	.LBB365:
 1279              	.LBI365:
 1280              		.loc 4 618 20 view .LVU355
 1281              	.LBE365:
 1282              	.LBE364:
 1283              	.LBE363:
 1284              	.LBE371:
 1285              		.loc 4 621 3 view .LVU356
 1286              	.LBB372:
 1287              	.LBB370:
 1288              	.LBB369:
 1289              	.LBB368:
 1290              	.LBB366:
 1291              	.LBI366:
 1292              		.loc 5 262 57 view .LVU357
 1293              	.LBB367:
 1294              		.loc 5 264 3 view .LVU358
 1295 000c 0023     		movs	r3, #0
 1296              		.syntax unified
 1297              	@ 264 "../../../os/common/ext/CMSIS/include/cmsis_gcc.h" 1
 1298 000e 83F31188 		MSR basepri, r3
 1299              	@ 0 "" 2
 1300              	.LVL35:
 1301              		.loc 5 264 3 is_stmt 0 view .LVU359
 1302              		.thumb
 1303              		.syntax unified
 1304              	.LBE367:
 1305              	.LBE366:
 1306              	.LBE368:
 1307              	.LBE369:
 1308              	.LBE370:
 1309              	.LBE372:
 1310              		.loc 1 281 1 view .LVU360
 1311 0012 08BD     		pop	{r3, pc}
ARM GAS  /tmp/ccBgKJxE.s 			page 24


 1312              		.cfi_endproc
 1313              	.LFE286:
 1314              		.size	pwmEnableChannelNotification, .-pwmEnableChannelNotification
 1315              		.section	.text.pwmDisableChannelNotification,"ax",%progbits
 1316              		.align	1
 1317              		.p2align 4,,15
 1318              		.global	pwmDisableChannelNotification
 1319              		.syntax unified
 1320              		.thumb
 1321              		.thumb_func
 1322              		.fpu softvfp
 1323              		.type	pwmDisableChannelNotification, %function
 1324              	pwmDisableChannelNotification:
 1325              	.LVL36:
 1326              	.LFB287:
 1327              		.loc 1 294 75 is_stmt 1 view -0
 1328              		.cfi_startproc
 1329              		@ args = 0, pretend = 0, frame = 0
 1330              		@ frame_needed = 0, uses_anonymous_args = 0
 1331              		.loc 1 296 3 view .LVU362
 1332              		.loc 1 296 3 view .LVU363
 1333              		.loc 1 296 3 view .LVU364
 1334              		.loc 1 298 3 view .LVU365
 1335              	.LBB373:
 1336              	.LBI373:
 1337              		.loc 2 491 20 view .LVU366
 1338              	.LBE373:
 1339              		.loc 2 493 3 view .LVU367
 1340              	.LBB385:
 1341              	.LBB374:
 1342              	.LBI374:
 1343              		.loc 3 374 20 view .LVU368
 1344              	.LBE374:
 1345              	.LBE385:
 1346              		.loc 3 376 3 view .LVU369
 1347              	.LBB386:
 1348              	.LBB382:
 1349              	.LBB375:
 1350              	.LBI375:
 1351              		.loc 4 594 20 view .LVU370
 1352              	.LBE375:
 1353              	.LBE382:
 1354              	.LBE386:
 1355              		.loc 4 602 3 view .LVU371
 1356              	.LBB387:
 1357              	.LBB383:
 1358              	.LBB380:
 1359              	.LBB376:
 1360              	.LBI376:
 1361              		.loc 5 262 57 view .LVU372
 1362              	.LBB377:
 1363              		.loc 5 264 3 view .LVU373
 1364              	.LBE377:
 1365              	.LBE376:
 1366              	.LBE380:
 1367              	.LBE383:
 1368              	.LBE387:
ARM GAS  /tmp/ccBgKJxE.s 			page 25


 1369              		.loc 1 294 75 is_stmt 0 view .LVU374
 1370 0000 08B5     		push	{r3, lr}
 1371              		.cfi_def_cfa_offset 8
 1372              		.cfi_offset 3, -8
 1373              		.cfi_offset 14, -4
 1374              	.LBB388:
 1375              	.LBB384:
 1376              	.LBB381:
 1377              	.LBB379:
 1378              	.LBB378:
 1379              		.loc 5 264 3 view .LVU375
 1380 0002 2023     		movs	r3, #32
 1381              		.syntax unified
 1382              	@ 264 "../../../os/common/ext/CMSIS/include/cmsis_gcc.h" 1
 1383 0004 83F31188 		MSR basepri, r3
 1384              	@ 0 "" 2
 1385              	.LVL37:
 1386              		.loc 5 264 3 view .LVU376
 1387              		.thumb
 1388              		.syntax unified
 1389              	.LBE378:
 1390              	.LBE379:
 1391              	.LBE381:
 1392              	.LBE384:
 1393              	.LBE388:
 1394              		.loc 3 377 34 is_stmt 1 view .LVU377
 1395              		.loc 3 378 20 view .LVU378
 1396              		.loc 1 300 3 view .LVU379
 1397              		.loc 1 300 3 view .LVU380
 1398              		.loc 1 300 3 view .LVU381
 1399              		.loc 1 301 3 view .LVU382
 1400              		.loc 1 301 3 view .LVU383
 1401              		.loc 1 301 3 view .LVU384
 1402              		.loc 1 303 3 view .LVU385
 1403              		.loc 1 303 3 view .LVU386
 1404              		.loc 1 303 3 view .LVU387
 1405              		.loc 1 306 3 view .LVU388
 1406 0008 FFF7FEFF 		bl	pwm_lld_disable_channel_notification
 1407              	.LVL38:
 1408              		.loc 1 308 3 view .LVU389
 1409              	.LBB389:
 1410              	.LBI389:
 1411              		.loc 2 502 20 view .LVU390
 1412              	.LBE389:
 1413              		.loc 2 504 3 view .LVU391
 1414              	.LBB398:
 1415              	.LBB390:
 1416              	.LBI390:
 1417              		.loc 3 386 20 view .LVU392
 1418              	.LBB391:
 1419              		.loc 3 388 22 view .LVU393
 1420              		.loc 3 389 33 view .LVU394
 1421              		.loc 3 395 3 view .LVU395
 1422              		.loc 3 395 3 view .LVU396
 1423              		.loc 3 395 3 view .LVU397
 1424              		.loc 3 399 3 view .LVU398
 1425              	.LBB392:
ARM GAS  /tmp/ccBgKJxE.s 			page 26


 1426              	.LBI392:
 1427              		.loc 4 618 20 view .LVU399
 1428              	.LBE392:
 1429              	.LBE391:
 1430              	.LBE390:
 1431              	.LBE398:
 1432              		.loc 4 621 3 view .LVU400
 1433              	.LBB399:
 1434              	.LBB397:
 1435              	.LBB396:
 1436              	.LBB395:
 1437              	.LBB393:
 1438              	.LBI393:
 1439              		.loc 5 262 57 view .LVU401
 1440              	.LBB394:
 1441              		.loc 5 264 3 view .LVU402
 1442 000c 0023     		movs	r3, #0
 1443              		.syntax unified
 1444              	@ 264 "../../../os/common/ext/CMSIS/include/cmsis_gcc.h" 1
 1445 000e 83F31188 		MSR basepri, r3
 1446              	@ 0 "" 2
 1447              	.LVL39:
 1448              		.loc 5 264 3 is_stmt 0 view .LVU403
 1449              		.thumb
 1450              		.syntax unified
 1451              	.LBE394:
 1452              	.LBE393:
 1453              	.LBE395:
 1454              	.LBE396:
 1455              	.LBE397:
 1456              	.LBE399:
 1457              		.loc 1 309 1 view .LVU404
 1458 0012 08BD     		pop	{r3, pc}
 1459              		.cfi_endproc
 1460              	.LFE287:
 1461              		.size	pwmDisableChannelNotification, .-pwmDisableChannelNotification
 1462              		.text
 1463              	.Letext0:
 1464              		.file 6 "/usr/lib/gcc/arm-none-eabi/10.3.1/include/stdint.h"
 1465              		.file 7 "../../../os/common/ports/ARMCMx/compilers/GCC/chtypes.h"
 1466              		.file 8 "../../../os/rt/include/chsystypes.h"
 1467              		.file 9 "../../../os/rt/include/chschd.h"
 1468              		.file 10 "../../../os/common/ports/ARMCMx/chcore.h"
 1469              		.file 11 "../../../os/hal/ports/STM32/LLD/TIMv1/stm32_tim.h"
 1470              		.file 12 "../../../os/rt/include/chsem.h"
 1471              		.file 13 "../../../os/rt/include/chmtx.h"
 1472              		.file 14 "../../../os/hal/include/hal_pwm.h"
 1473              		.file 15 "../../../os/hal/ports/STM32/LLD/TIMv1/hal_pwm_lld.h"