ARM GAS  /tmp/ccXGWUfY.s 			page 1


   1              		.cpu cortex-m4
   2              		.eabi_attribute 20, 1
   3              		.eabi_attribute 21, 1
   4              		.eabi_attribute 23, 3
   5              		.eabi_attribute 24, 1
   6              		.eabi_attribute 25, 1
   7              		.eabi_attribute 26, 1
   8              		.eabi_attribute 30, 2
   9              		.eabi_attribute 34, 1
  10              		.eabi_attribute 18, 4
  11              		.file	"hal_pal_lld.c"
  12              		.text
  13              	.Ltext0:
  14              		.cfi_sections	.debug_frame
  15              		.section	.text._pal_lld_init,"ax",%progbits
  16              		.align	1
  17              		.p2align 4,,15
  18              		.global	_pal_lld_init
  19              		.arch armv7e-m
  20              		.syntax unified
  21              		.thumb
  22              		.thumb_func
  23              		.fpu softvfp
  24              		.type	_pal_lld_init, %function
  25              	_pal_lld_init:
  26              	.LVL0:
  27              	.LFB278:
  28              		.file 1 "../../../os/hal/ports/STM32/LLD/GPIOv2/hal_pal_lld.c"
  29              		.loc 1 88 45 view -0
  30              		.cfi_startproc
  31              		@ args = 0, pretend = 0, frame = 0
  32              		@ frame_needed = 0, uses_anonymous_args = 0
  33              		@ link register save eliminated.
  34              		.loc 1 104 3 view .LVU1
  35              		.loc 1 104 18 is_stmt 0 view .LVU2
  36 0000 624B     		ldr	r3, .L3
  37 0002 196B     		ldr	r1, [r3, #48]
  38 0004 40F2FF1C 		movw	ip, #511
  39 0008 41EA0C01 		orr	r1, r1, ip
  40 000c 1963     		str	r1, [r3, #48]
  41              		.loc 1 105 3 is_stmt 1 view .LVU3
  42              		.loc 1 105 18 is_stmt 0 view .LVU4
  43 000e 1A6D     		ldr	r2, [r3, #80]
  44 0010 42EA0C02 		orr	r2, r2, ip
  45 0014 1A65     		str	r2, [r3, #80]
  46              		.loc 1 112 3 is_stmt 1 view .LVU5
  47              	.LVL1:
  48              	.LBB20:
  49              	.LBI20:
  50              		.loc 1 61 13 view .LVU6
  51              	.LBB21:
  52              		.loc 1 63 3 view .LVU7
  53              		.loc 1 63 18 is_stmt 0 view .LVU8
  54 0016 A3F56053 		sub	r3, r3, #14336
  55              		.loc 1 63 26 view .LVU9
  56 001a 4268     		ldr	r2, [r0, #4]
  57              		.loc 1 63 18 view .LVU10
ARM GAS  /tmp/ccXGWUfY.s 			page 2


  58 001c 5A60     		str	r2, [r3, #4]
  59              		.loc 1 64 3 is_stmt 1 view .LVU11
  60              		.loc 1 64 26 is_stmt 0 view .LVU12
  61 001e 8268     		ldr	r2, [r0, #8]
  62              		.loc 1 64 18 view .LVU13
  63 0020 9A60     		str	r2, [r3, #8]
  64              		.loc 1 65 3 is_stmt 1 view .LVU14
  65              		.loc 1 65 26 is_stmt 0 view .LVU15
  66 0022 C268     		ldr	r2, [r0, #12]
  67              		.loc 1 65 18 view .LVU16
  68 0024 DA60     		str	r2, [r3, #12]
  69              		.loc 1 66 3 is_stmt 1 view .LVU17
  70              		.loc 1 66 26 is_stmt 0 view .LVU18
  71 0026 0269     		ldr	r2, [r0, #16]
  72              		.loc 1 66 18 view .LVU19
  73 0028 5A61     		str	r2, [r3, #20]
  74              		.loc 1 67 3 is_stmt 1 view .LVU20
  75              		.loc 1 67 26 is_stmt 0 view .LVU21
  76 002a 4269     		ldr	r2, [r0, #20]
  77              		.loc 1 67 18 view .LVU22
  78 002c 1A62     		str	r2, [r3, #32]
  79              		.loc 1 68 3 is_stmt 1 view .LVU23
  80              		.loc 1 68 26 is_stmt 0 view .LVU24
  81 002e 8269     		ldr	r2, [r0, #24]
  82              		.loc 1 68 18 view .LVU25
  83 0030 5A62     		str	r2, [r3, #36]
  84              		.loc 1 69 3 is_stmt 1 view .LVU26
  85              		.loc 1 69 26 is_stmt 0 view .LVU27
  86 0032 0268     		ldr	r2, [r0]
  87              		.loc 1 69 18 view .LVU28
  88 0034 1A60     		str	r2, [r3]
  89              	.LVL2:
  90              		.loc 1 69 18 view .LVU29
  91              	.LBE21:
  92              	.LBE20:
  93              		.loc 1 115 3 is_stmt 1 view .LVU30
  94              	.LBB22:
  95              	.LBI22:
  96              		.loc 1 61 13 view .LVU31
  97              	.LBB23:
  98              		.loc 1 63 3 view .LVU32
  99              		.loc 1 63 18 is_stmt 0 view .LVU33
 100 0036 564A     		ldr	r2, .L3+4
 101              		.loc 1 63 26 view .LVU34
 102 0038 036A     		ldr	r3, [r0, #32]
 103              		.loc 1 63 18 view .LVU35
 104 003a 5360     		str	r3, [r2, #4]
 105              		.loc 1 64 3 is_stmt 1 view .LVU36
 106              		.loc 1 64 26 is_stmt 0 view .LVU37
 107 003c 436A     		ldr	r3, [r0, #36]
 108              		.loc 1 64 18 view .LVU38
 109 003e 9360     		str	r3, [r2, #8]
 110              		.loc 1 65 3 is_stmt 1 view .LVU39
 111              		.loc 1 65 26 is_stmt 0 view .LVU40
 112 0040 836A     		ldr	r3, [r0, #40]
 113              		.loc 1 65 18 view .LVU41
 114 0042 D360     		str	r3, [r2, #12]
ARM GAS  /tmp/ccXGWUfY.s 			page 3


 115              		.loc 1 66 3 is_stmt 1 view .LVU42
 116              		.loc 1 66 26 is_stmt 0 view .LVU43
 117 0044 C36A     		ldr	r3, [r0, #44]
 118              		.loc 1 66 18 view .LVU44
 119 0046 5361     		str	r3, [r2, #20]
 120              		.loc 1 67 3 is_stmt 1 view .LVU45
 121              		.loc 1 67 26 is_stmt 0 view .LVU46
 122 0048 036B     		ldr	r3, [r0, #48]
 123              		.loc 1 67 18 view .LVU47
 124 004a 1362     		str	r3, [r2, #32]
 125              		.loc 1 68 3 is_stmt 1 view .LVU48
 126              		.loc 1 68 26 is_stmt 0 view .LVU49
 127 004c 436B     		ldr	r3, [r0, #52]
 128              		.loc 1 68 18 view .LVU50
 129 004e 5362     		str	r3, [r2, #36]
 130              		.loc 1 69 3 is_stmt 1 view .LVU51
 131              		.loc 1 69 26 is_stmt 0 view .LVU52
 132 0050 C169     		ldr	r1, [r0, #28]
 133              	.LBE23:
 134              	.LBE22:
 135              	.LBB25:
 136              	.LBB26:
 137              		.loc 1 63 18 view .LVU53
 138 0052 504B     		ldr	r3, .L3+8
 139              	.LBE26:
 140              	.LBE25:
 141              	.LBB28:
 142              	.LBB24:
 143              		.loc 1 69 18 view .LVU54
 144 0054 1160     		str	r1, [r2]
 145              	.LVL3:
 146              		.loc 1 69 18 view .LVU55
 147              	.LBE24:
 148              	.LBE28:
 149              		.loc 1 118 3 is_stmt 1 view .LVU56
 150              	.LBB29:
 151              	.LBI25:
 152              		.loc 1 61 13 view .LVU57
 153              	.LBB27:
 154              		.loc 1 63 3 view .LVU58
 155              		.loc 1 63 26 is_stmt 0 view .LVU59
 156 0056 C26B     		ldr	r2, [r0, #60]
 157              		.loc 1 63 18 view .LVU60
 158 0058 5A60     		str	r2, [r3, #4]
 159              		.loc 1 64 3 is_stmt 1 view .LVU61
 160              		.loc 1 64 26 is_stmt 0 view .LVU62
 161 005a 026C     		ldr	r2, [r0, #64]
 162              		.loc 1 64 18 view .LVU63
 163 005c 9A60     		str	r2, [r3, #8]
 164              		.loc 1 65 3 is_stmt 1 view .LVU64
 165              		.loc 1 65 26 is_stmt 0 view .LVU65
 166 005e 426C     		ldr	r2, [r0, #68]
 167              		.loc 1 65 18 view .LVU66
 168 0060 DA60     		str	r2, [r3, #12]
 169              		.loc 1 66 3 is_stmt 1 view .LVU67
 170              		.loc 1 66 26 is_stmt 0 view .LVU68
 171 0062 826C     		ldr	r2, [r0, #72]
ARM GAS  /tmp/ccXGWUfY.s 			page 4


 172              		.loc 1 66 18 view .LVU69
 173 0064 5A61     		str	r2, [r3, #20]
 174              		.loc 1 67 3 is_stmt 1 view .LVU70
 175              		.loc 1 67 26 is_stmt 0 view .LVU71
 176 0066 C26C     		ldr	r2, [r0, #76]
 177              		.loc 1 67 18 view .LVU72
 178 0068 1A62     		str	r2, [r3, #32]
 179              		.loc 1 68 3 is_stmt 1 view .LVU73
 180              		.loc 1 68 26 is_stmt 0 view .LVU74
 181 006a 026D     		ldr	r2, [r0, #80]
 182              		.loc 1 68 18 view .LVU75
 183 006c 5A62     		str	r2, [r3, #36]
 184              		.loc 1 69 3 is_stmt 1 view .LVU76
 185              		.loc 1 69 26 is_stmt 0 view .LVU77
 186 006e 826B     		ldr	r2, [r0, #56]
 187              		.loc 1 69 18 view .LVU78
 188 0070 1A60     		str	r2, [r3]
 189              	.LVL4:
 190              		.loc 1 69 18 view .LVU79
 191              	.LBE27:
 192              	.LBE29:
 193              		.loc 1 121 3 is_stmt 1 view .LVU80
 194              	.LBB30:
 195              	.LBI30:
 196              		.loc 1 61 13 view .LVU81
 197              	.LBB31:
 198              		.loc 1 63 3 view .LVU82
 199              		.loc 1 63 18 is_stmt 0 view .LVU83
 200 0072 494A     		ldr	r2, .L3+12
 201              		.loc 1 63 26 view .LVU84
 202 0074 836D     		ldr	r3, [r0, #88]
 203              		.loc 1 63 18 view .LVU85
 204 0076 5360     		str	r3, [r2, #4]
 205              		.loc 1 64 3 is_stmt 1 view .LVU86
 206              		.loc 1 64 26 is_stmt 0 view .LVU87
 207 0078 C36D     		ldr	r3, [r0, #92]
 208              		.loc 1 64 18 view .LVU88
 209 007a 9360     		str	r3, [r2, #8]
 210              		.loc 1 65 3 is_stmt 1 view .LVU89
 211              		.loc 1 65 26 is_stmt 0 view .LVU90
 212 007c 036E     		ldr	r3, [r0, #96]
 213              		.loc 1 65 18 view .LVU91
 214 007e D360     		str	r3, [r2, #12]
 215              		.loc 1 66 3 is_stmt 1 view .LVU92
 216              		.loc 1 66 26 is_stmt 0 view .LVU93
 217 0080 436E     		ldr	r3, [r0, #100]
 218              		.loc 1 66 18 view .LVU94
 219 0082 5361     		str	r3, [r2, #20]
 220              		.loc 1 67 3 is_stmt 1 view .LVU95
 221              		.loc 1 67 26 is_stmt 0 view .LVU96
 222 0084 836E     		ldr	r3, [r0, #104]
 223              		.loc 1 67 18 view .LVU97
 224 0086 1362     		str	r3, [r2, #32]
 225              		.loc 1 68 3 is_stmt 1 view .LVU98
 226              		.loc 1 68 26 is_stmt 0 view .LVU99
 227 0088 C36E     		ldr	r3, [r0, #108]
 228              		.loc 1 68 18 view .LVU100
ARM GAS  /tmp/ccXGWUfY.s 			page 5


 229 008a 5362     		str	r3, [r2, #36]
 230              		.loc 1 69 3 is_stmt 1 view .LVU101
 231              		.loc 1 69 26 is_stmt 0 view .LVU102
 232 008c 416D     		ldr	r1, [r0, #84]
 233              	.LBE31:
 234              	.LBE30:
 235              	.LBB33:
 236              	.LBB34:
 237              		.loc 1 63 18 view .LVU103
 238 008e 434B     		ldr	r3, .L3+16
 239              	.LBE34:
 240              	.LBE33:
 241              	.LBB36:
 242              	.LBB32:
 243              		.loc 1 69 18 view .LVU104
 244 0090 1160     		str	r1, [r2]
 245              	.LVL5:
 246              		.loc 1 69 18 view .LVU105
 247              	.LBE32:
 248              	.LBE36:
 249              		.loc 1 124 3 is_stmt 1 view .LVU106
 250              	.LBB37:
 251              	.LBI33:
 252              		.loc 1 61 13 view .LVU107
 253              	.LBB35:
 254              		.loc 1 63 3 view .LVU108
 255              		.loc 1 63 26 is_stmt 0 view .LVU109
 256 0092 426F     		ldr	r2, [r0, #116]
 257              		.loc 1 63 18 view .LVU110
 258 0094 5A60     		str	r2, [r3, #4]
 259              		.loc 1 64 3 is_stmt 1 view .LVU111
 260              		.loc 1 64 26 is_stmt 0 view .LVU112
 261 0096 826F     		ldr	r2, [r0, #120]
 262              		.loc 1 64 18 view .LVU113
 263 0098 9A60     		str	r2, [r3, #8]
 264              		.loc 1 65 3 is_stmt 1 view .LVU114
 265              		.loc 1 65 26 is_stmt 0 view .LVU115
 266 009a C26F     		ldr	r2, [r0, #124]
 267              		.loc 1 65 18 view .LVU116
 268 009c DA60     		str	r2, [r3, #12]
 269              		.loc 1 66 3 is_stmt 1 view .LVU117
 270              		.loc 1 66 26 is_stmt 0 view .LVU118
 271 009e D0F88020 		ldr	r2, [r0, #128]
 272              		.loc 1 66 18 view .LVU119
 273 00a2 5A61     		str	r2, [r3, #20]
 274              		.loc 1 67 3 is_stmt 1 view .LVU120
 275              		.loc 1 67 26 is_stmt 0 view .LVU121
 276 00a4 D0F88420 		ldr	r2, [r0, #132]
 277              		.loc 1 67 18 view .LVU122
 278 00a8 1A62     		str	r2, [r3, #32]
 279              		.loc 1 68 3 is_stmt 1 view .LVU123
 280              		.loc 1 68 26 is_stmt 0 view .LVU124
 281 00aa D0F88820 		ldr	r2, [r0, #136]
 282              		.loc 1 68 18 view .LVU125
 283 00ae 5A62     		str	r2, [r3, #36]
 284              		.loc 1 69 3 is_stmt 1 view .LVU126
 285              		.loc 1 69 26 is_stmt 0 view .LVU127
ARM GAS  /tmp/ccXGWUfY.s 			page 6


 286 00b0 026F     		ldr	r2, [r0, #112]
 287              		.loc 1 69 18 view .LVU128
 288 00b2 1A60     		str	r2, [r3]
 289              	.LVL6:
 290              		.loc 1 69 18 view .LVU129
 291              	.LBE35:
 292              	.LBE37:
 293              		.loc 1 127 3 is_stmt 1 view .LVU130
 294              	.LBB38:
 295              	.LBI38:
 296              		.loc 1 61 13 view .LVU131
 297              	.LBB39:
 298              		.loc 1 63 3 view .LVU132
 299              		.loc 1 63 26 is_stmt 0 view .LVU133
 300 00b4 D0F89020 		ldr	r2, [r0, #144]
 301              		.loc 1 63 18 view .LVU134
 302 00b8 C3F80424 		str	r2, [r3, #1028]
 303              		.loc 1 64 3 is_stmt 1 view .LVU135
 304              		.loc 1 64 26 is_stmt 0 view .LVU136
 305 00bc D0F89420 		ldr	r2, [r0, #148]
 306              		.loc 1 64 18 view .LVU137
 307 00c0 C3F80824 		str	r2, [r3, #1032]
 308              		.loc 1 65 3 is_stmt 1 view .LVU138
 309              		.loc 1 65 26 is_stmt 0 view .LVU139
 310 00c4 D0F89820 		ldr	r2, [r0, #152]
 311              		.loc 1 65 18 view .LVU140
 312 00c8 C3F80C24 		str	r2, [r3, #1036]
 313              		.loc 1 66 3 is_stmt 1 view .LVU141
 314              		.loc 1 66 26 is_stmt 0 view .LVU142
 315 00cc D0F89C20 		ldr	r2, [r0, #156]
 316              		.loc 1 66 18 view .LVU143
 317 00d0 C3F81424 		str	r2, [r3, #1044]
 318              		.loc 1 67 3 is_stmt 1 view .LVU144
 319              		.loc 1 67 26 is_stmt 0 view .LVU145
 320 00d4 D0F8A020 		ldr	r2, [r0, #160]
 321              		.loc 1 67 18 view .LVU146
 322 00d8 C3F82024 		str	r2, [r3, #1056]
 323              		.loc 1 68 3 is_stmt 1 view .LVU147
 324              		.loc 1 68 26 is_stmt 0 view .LVU148
 325 00dc D0F8A420 		ldr	r2, [r0, #164]
 326              		.loc 1 68 18 view .LVU149
 327 00e0 C3F82424 		str	r2, [r3, #1060]
 328              		.loc 1 69 3 is_stmt 1 view .LVU150
 329              		.loc 1 69 26 is_stmt 0 view .LVU151
 330 00e4 D0F88C20 		ldr	r2, [r0, #140]
 331              		.loc 1 69 18 view .LVU152
 332 00e8 C3F80024 		str	r2, [r3, #1024]
 333              	.LVL7:
 334              		.loc 1 69 18 view .LVU153
 335              	.LBE39:
 336              	.LBE38:
 337              		.loc 1 130 3 is_stmt 1 view .LVU154
 338              	.LBB40:
 339              	.LBI40:
 340              		.loc 1 61 13 view .LVU155
 341              	.LBB41:
 342              		.loc 1 63 3 view .LVU156
ARM GAS  /tmp/ccXGWUfY.s 			page 7


 343              		.loc 1 63 18 is_stmt 0 view .LVU157
 344 00ec 03F50063 		add	r3, r3, #2048
 345              		.loc 1 63 26 view .LVU158
 346 00f0 D0F8AC20 		ldr	r2, [r0, #172]
 347              		.loc 1 63 18 view .LVU159
 348 00f4 5A60     		str	r2, [r3, #4]
 349              		.loc 1 64 3 is_stmt 1 view .LVU160
 350              		.loc 1 64 26 is_stmt 0 view .LVU161
 351 00f6 D0F8B020 		ldr	r2, [r0, #176]
 352              		.loc 1 64 18 view .LVU162
 353 00fa 9A60     		str	r2, [r3, #8]
 354              		.loc 1 65 3 is_stmt 1 view .LVU163
 355              		.loc 1 65 26 is_stmt 0 view .LVU164
 356 00fc D0F8B420 		ldr	r2, [r0, #180]
 357              		.loc 1 65 18 view .LVU165
 358 0100 DA60     		str	r2, [r3, #12]
 359              		.loc 1 66 3 is_stmt 1 view .LVU166
 360              		.loc 1 66 26 is_stmt 0 view .LVU167
 361 0102 D0F8B820 		ldr	r2, [r0, #184]
 362              		.loc 1 66 18 view .LVU168
 363 0106 5A61     		str	r2, [r3, #20]
 364              		.loc 1 67 3 is_stmt 1 view .LVU169
 365              		.loc 1 67 26 is_stmt 0 view .LVU170
 366 0108 D0F8BC20 		ldr	r2, [r0, #188]
 367              		.loc 1 67 18 view .LVU171
 368 010c 1A62     		str	r2, [r3, #32]
 369              		.loc 1 68 3 is_stmt 1 view .LVU172
 370              		.loc 1 68 26 is_stmt 0 view .LVU173
 371 010e D0F8C020 		ldr	r2, [r0, #192]
 372              		.loc 1 68 18 view .LVU174
 373 0112 5A62     		str	r2, [r3, #36]
 374              		.loc 1 69 3 is_stmt 1 view .LVU175
 375              		.loc 1 69 26 is_stmt 0 view .LVU176
 376 0114 D0F8A820 		ldr	r2, [r0, #168]
 377              		.loc 1 69 18 view .LVU177
 378 0118 1A60     		str	r2, [r3]
 379              	.LVL8:
 380              		.loc 1 69 18 view .LVU178
 381              	.LBE41:
 382              	.LBE40:
 383              		.loc 1 133 3 is_stmt 1 view .LVU179
 384              	.LBB42:
 385              	.LBI42:
 386              		.loc 1 61 13 view .LVU180
 387              	.LBB43:
 388              		.loc 1 63 3 view .LVU181
 389              		.loc 1 63 26 is_stmt 0 view .LVU182
 390 011a D0F8C820 		ldr	r2, [r0, #200]
 391              		.loc 1 63 18 view .LVU183
 392 011e C3F80424 		str	r2, [r3, #1028]
 393              		.loc 1 64 3 is_stmt 1 view .LVU184
 394              		.loc 1 64 26 is_stmt 0 view .LVU185
 395 0122 D0F8CC20 		ldr	r2, [r0, #204]
 396              		.loc 1 64 18 view .LVU186
 397 0126 C3F80824 		str	r2, [r3, #1032]
 398              		.loc 1 65 3 is_stmt 1 view .LVU187
 399              		.loc 1 65 26 is_stmt 0 view .LVU188
ARM GAS  /tmp/ccXGWUfY.s 			page 8


 400 012a D0F8D020 		ldr	r2, [r0, #208]
 401              		.loc 1 65 18 view .LVU189
 402 012e C3F80C24 		str	r2, [r3, #1036]
 403              		.loc 1 66 3 is_stmt 1 view .LVU190
 404              		.loc 1 66 26 is_stmt 0 view .LVU191
 405 0132 D0F8D420 		ldr	r2, [r0, #212]
 406              		.loc 1 66 18 view .LVU192
 407 0136 C3F81424 		str	r2, [r3, #1044]
 408              		.loc 1 67 3 is_stmt 1 view .LVU193
 409              		.loc 1 67 26 is_stmt 0 view .LVU194
 410 013a D0F8D820 		ldr	r2, [r0, #216]
 411              		.loc 1 67 18 view .LVU195
 412 013e C3F82024 		str	r2, [r3, #1056]
 413              		.loc 1 68 3 is_stmt 1 view .LVU196
 414              		.loc 1 68 26 is_stmt 0 view .LVU197
 415 0142 D0F8DC20 		ldr	r2, [r0, #220]
 416              		.loc 1 68 18 view .LVU198
 417 0146 C3F82424 		str	r2, [r3, #1060]
 418              		.loc 1 69 3 is_stmt 1 view .LVU199
 419              		.loc 1 69 26 is_stmt 0 view .LVU200
 420 014a D0F8C420 		ldr	r2, [r0, #196]
 421              		.loc 1 69 18 view .LVU201
 422 014e C3F80024 		str	r2, [r3, #1024]
 423              	.LVL9:
 424              		.loc 1 69 18 view .LVU202
 425              	.LBE43:
 426              	.LBE42:
 427              		.loc 1 136 3 is_stmt 1 view .LVU203
 428              	.LBB44:
 429              	.LBI44:
 430              		.loc 1 61 13 view .LVU204
 431              	.LBB45:
 432              		.loc 1 63 3 view .LVU205
 433              		.loc 1 63 26 is_stmt 0 view .LVU206
 434 0152 D0F8E420 		ldr	r2, [r0, #228]
 435              		.loc 1 63 18 view .LVU207
 436 0156 C3F80428 		str	r2, [r3, #2052]
 437              		.loc 1 64 3 is_stmt 1 view .LVU208
 438              		.loc 1 64 26 is_stmt 0 view .LVU209
 439 015a D0F8E820 		ldr	r2, [r0, #232]
 440              		.loc 1 64 18 view .LVU210
 441 015e C3F80828 		str	r2, [r3, #2056]
 442              		.loc 1 65 3 is_stmt 1 view .LVU211
 443              		.loc 1 65 26 is_stmt 0 view .LVU212
 444 0162 D0F8EC20 		ldr	r2, [r0, #236]
 445              		.loc 1 65 18 view .LVU213
 446 0166 C3F80C28 		str	r2, [r3, #2060]
 447              		.loc 1 66 3 is_stmt 1 view .LVU214
 448              		.loc 1 66 26 is_stmt 0 view .LVU215
 449 016a D0F8F020 		ldr	r2, [r0, #240]
 450              		.loc 1 66 18 view .LVU216
 451 016e C3F81428 		str	r2, [r3, #2068]
 452              		.loc 1 67 3 is_stmt 1 view .LVU217
 453              		.loc 1 67 26 is_stmt 0 view .LVU218
 454 0172 D0F8F420 		ldr	r2, [r0, #244]
 455              		.loc 1 67 18 view .LVU219
 456 0176 C3F82028 		str	r2, [r3, #2080]
ARM GAS  /tmp/ccXGWUfY.s 			page 9


 457              		.loc 1 68 3 is_stmt 1 view .LVU220
 458              		.loc 1 68 26 is_stmt 0 view .LVU221
 459 017a D0F8F820 		ldr	r2, [r0, #248]
 460              		.loc 1 68 18 view .LVU222
 461 017e C3F82428 		str	r2, [r3, #2084]
 462              		.loc 1 69 3 is_stmt 1 view .LVU223
 463              		.loc 1 69 26 is_stmt 0 view .LVU224
 464 0182 D0F8E020 		ldr	r2, [r0, #224]
 465              		.loc 1 69 18 view .LVU225
 466 0186 C3F80028 		str	r2, [r3, #2048]
 467              	.LVL10:
 468              		.loc 1 69 18 view .LVU226
 469              	.LBE45:
 470              	.LBE44:
 471              		.loc 1 144 1 view .LVU227
 472 018a 7047     		bx	lr
 473              	.L4:
 474              		.align	2
 475              	.L3:
 476 018c 00380240 		.word	1073887232
 477 0190 00040240 		.word	1073873920
 478 0194 00080240 		.word	1073874944
 479 0198 000C0240 		.word	1073875968
 480 019c 00100240 		.word	1073876992
 481              		.cfi_endproc
 482              	.LFE278:
 483              		.size	_pal_lld_init, .-_pal_lld_init
 484              		.section	.text._pal_lld_setgroupmode,"ax",%progbits
 485              		.align	1
 486              		.p2align 4,,15
 487              		.global	_pal_lld_setgroupmode
 488              		.syntax unified
 489              		.thumb
 490              		.thumb_func
 491              		.fpu softvfp
 492              		.type	_pal_lld_setgroupmode, %function
 493              	_pal_lld_setgroupmode:
 494              	.LVL11:
 495              	.LFB279:
 496              		.loc 1 161 43 is_stmt 1 view -0
 497              		.cfi_startproc
 498              		@ args = 0, pretend = 0, frame = 0
 499              		@ frame_needed = 0, uses_anonymous_args = 0
 500              		.loc 1 163 3 view .LVU229
 501              		.loc 1 161 43 is_stmt 0 view .LVU230
 502 0000 2DE9F04F 		push	{r4, r5, r6, r7, r8, r9, r10, fp, lr}
 503              		.cfi_def_cfa_offset 36
 504              		.cfi_offset 4, -36
 505              		.cfi_offset 5, -32
 506              		.cfi_offset 6, -28
 507              		.cfi_offset 7, -24
 508              		.cfi_offset 8, -20
 509              		.cfi_offset 9, -16
 510              		.cfi_offset 10, -12
 511              		.cfi_offset 11, -8
 512              		.cfi_offset 14, -4
 513              		.loc 1 163 12 view .LVU231
ARM GAS  /tmp/ccXGWUfY.s 			page 10


 514 0004 02F00309 		and	r9, r2, #3
 515              	.LVL12:
 516              		.loc 1 164 3 is_stmt 1 view .LVU232
 517              		.loc 1 166 12 is_stmt 0 view .LVU233
 518 0008 C2F34114 		ubfx	r4, r2, #5, #2
 519              		.loc 1 164 12 view .LVU234
 520 000c C2F38006 		ubfx	r6, r2, #2, #1
 521              	.LVL13:
 522              		.loc 1 165 3 is_stmt 1 view .LVU235
 523              		.loc 1 165 12 is_stmt 0 view .LVU236
 524 0010 C2F3C105 		ubfx	r5, r2, #3, #2
 525              	.LVL14:
 526              		.loc 1 166 3 is_stmt 1 view .LVU237
 527              		.loc 1 167 3 view .LVU238
 528              		.loc 1 167 12 is_stmt 0 view .LVU239
 529 0014 C2F3C317 		ubfx	r7, r2, #7, #4
 530              	.LVL15:
 531              		.loc 1 168 3 is_stmt 1 view .LVU240
 532              		.loc 1 163 12 is_stmt 0 view .LVU241
 533 0018 CE46     		mov	lr, r9
 534              		.loc 1 168 12 view .LVU242
 535 001a 0022     		movs	r2, #0
 536              	.LVL16:
 537              	.LBB46:
 538              		.loc 1 176 15 view .LVU243
 539 001c 4FF00F0B 		mov	fp, #15
 540              		.loc 1 175 14 view .LVU244
 541 0020 A046     		mov	r8, r4
 542 0022 17E0     		b	.L12
 543              	.LVL17:
 544              	.L7:
 545              		.loc 1 192 9 is_stmt 1 view .LVU245
 546              		.loc 1 192 30 is_stmt 0 view .LVU246
 547 0024 D0F800A0 		ldr	r10, [r0]
 548              		.loc 1 192 38 view .LVU247
 549 0028 03EA0A03 		and	r3, r3, r10
 550              	.LVL18:
 551              		.loc 1 192 45 view .LVU248
 552 002c 43EA0E03 		orr	r3, r3, lr
 553              		.loc 1 193 12 view .LVU249
 554 0030 072A     		cmp	r2, #7
 555              		.loc 1 192 23 view .LVU250
 556 0032 0360     		str	r3, [r0]
 557              		.loc 1 193 9 is_stmt 1 view .LVU251
 558              		.loc 1 193 12 is_stmt 0 view .LVU252
 559 0034 45D8     		bhi	.L10
 560              		.loc 1 194 11 is_stmt 1 view .LVU253
 561              		.loc 1 194 29 is_stmt 0 view .LVU254
 562 0036 036A     		ldr	r3, [r0, #32]
 563              		.loc 1 194 36 view .LVU255
 564 0038 23EA0404 		bic	r4, r3, r4
 565              	.LVL19:
 566              		.loc 1 194 43 view .LVU256
 567 003c 44EA0C04 		orr	r4, r4, ip
 568              		.loc 1 194 22 view .LVU257
 569 0040 0462     		str	r4, [r0, #32]
 570              	.LVL20:
ARM GAS  /tmp/ccXGWUfY.s 			page 11


 571              	.L6:
 572              		.loc 1 194 22 view .LVU258
 573              	.LBE46:
 574              		.loc 1 199 5 is_stmt 1 view .LVU259
 575              		.loc 1 200 5 view .LVU260
 576              		.loc 1 200 8 is_stmt 0 view .LVU261
 577 0042 4908     		lsrs	r1, r1, #1
 578              	.LVL21:
 579              		.loc 1 200 8 view .LVU262
 580 0044 3BD0     		beq	.L16
 581              	.LVL22:
 582              	.L18:
 583              		.loc 1 202 5 is_stmt 1 view .LVU263
 584              		.loc 1 202 12 is_stmt 0 view .LVU264
 585 0046 7600     		lsls	r6, r6, #1
 586              	.LVL23:
 587              		.loc 1 203 5 is_stmt 1 view .LVU265
 588              		.loc 1 203 13 is_stmt 0 view .LVU266
 589 0048 AD00     		lsls	r5, r5, #2
 590              	.LVL24:
 591              		.loc 1 204 5 is_stmt 1 view .LVU267
 592              		.loc 1 204 11 is_stmt 0 view .LVU268
 593 004a 4FEA8808 		lsl	r8, r8, #2
 594              	.LVL25:
 595              		.loc 1 205 5 is_stmt 1 view .LVU269
 596              		.loc 1 205 11 is_stmt 0 view .LVU270
 597 004e 4FEA8E0E 		lsl	lr, lr, #2
 598              	.LVL26:
 599              		.loc 1 206 5 is_stmt 1 view .LVU271
 600              		.loc 1 206 8 is_stmt 0 view .LVU272
 601 0052 0132     		adds	r2, r2, #1
 602              	.LVL27:
 603              		.loc 1 169 9 is_stmt 1 view .LVU273
 604              	.L12:
 605              		.loc 1 169 3 view .LVU274
 606              		.loc 1 170 5 view .LVU275
 607              		.loc 1 170 8 is_stmt 0 view .LVU276
 608 0054 CB07     		lsls	r3, r1, #31
 609 0056 F4D5     		bpl	.L6
 610              	.LBB47:
 611              		.loc 1 171 7 is_stmt 1 view .LVU277
 612              		.loc 1 173 7 view .LVU278
 613              		.loc 1 177 28 is_stmt 0 view .LVU279
 614 0058 4368     		ldr	r3, [r0, #4]
 615              		.loc 1 174 14 view .LVU280
 616 005a 0124     		movs	r4, #1
 617 005c 9440     		lsls	r4, r4, r2
 618              		.loc 1 177 37 view .LVU281
 619 005e 23EA0403 		bic	r3, r3, r4
 620              		.loc 1 177 44 view .LVU282
 621 0062 3343     		orrs	r3, r3, r6
 622              		.loc 1 177 21 view .LVU283
 623 0064 4360     		str	r3, [r0, #4]
 624              		.loc 1 178 28 view .LVU284
 625 0066 8468     		ldr	r4, [r0, #8]
 626              		.loc 1 175 14 view .LVU285
 627 0068 4FF0030C 		mov	ip, #3
ARM GAS  /tmp/ccXGWUfY.s 			page 12


 628 006c 5300     		lsls	r3, r2, #1
 629 006e 0CFA03F3 		lsl	r3, ip, r3
 630              		.loc 1 178 38 view .LVU286
 631 0072 24EA0304 		bic	r4, r4, r3
 632              		.loc 1 178 45 view .LVU287
 633 0076 2C43     		orrs	r4, r4, r5
 634              		.loc 1 178 21 view .LVU288
 635 0078 8460     		str	r4, [r0, #8]
 636              		.loc 1 179 28 view .LVU289
 637 007a C468     		ldr	r4, [r0, #12]
 638              		.loc 1 179 36 view .LVU290
 639 007c 24EA030C 		bic	ip, r4, r3
 640              		.loc 1 179 43 view .LVU291
 641 0080 4CEA0804 		orr	r4, ip, r8
 642              		.loc 1 179 21 view .LVU292
 643 0084 C460     		str	r4, [r0, #12]
 644              		.loc 1 173 32 view .LVU293
 645 0086 02F00704 		and	r4, r2, #7
 646              		.loc 1 173 37 view .LVU294
 647 008a A400     		lsls	r4, r4, #2
 648              		.loc 1 180 10 view .LVU295
 649 008c B9F1020F 		cmp	r9, #2
 650              		.loc 1 173 16 view .LVU296
 651 0090 07FA04FC 		lsl	ip, r7, r4
 652              	.LVL28:
 653              		.loc 1 174 7 is_stmt 1 view .LVU297
 654              		.loc 1 175 7 view .LVU298
 655              		.loc 1 176 7 view .LVU299
 656              		.loc 1 178 40 is_stmt 0 view .LVU300
 657 0094 6FEA0303 		mvn	r3, r3
 658              	.LVL29:
 659              		.loc 1 176 15 view .LVU301
 660 0098 0BFA04F4 		lsl	r4, fp, r4
 661              	.LVL30:
 662              		.loc 1 177 7 is_stmt 1 view .LVU302
 663              		.loc 1 178 7 view .LVU303
 664              		.loc 1 179 7 view .LVU304
 665              		.loc 1 180 7 view .LVU305
 666              		.loc 1 180 10 is_stmt 0 view .LVU306
 667 009c C2D1     		bne	.L7
 668              		.loc 1 183 9 is_stmt 1 view .LVU307
 669              		.loc 1 183 12 is_stmt 0 view .LVU308
 670 009e 072A     		cmp	r2, #7
 671 00a0 16D8     		bhi	.L8
 672              		.loc 1 184 11 is_stmt 1 view .LVU309
 673              		.loc 1 184 29 is_stmt 0 view .LVU310
 674 00a2 D0F820A0 		ldr	r10, [r0, #32]
 675              		.loc 1 184 36 view .LVU311
 676 00a6 2AEA0404 		bic	r4, r10, r4
 677              	.LVL31:
 678              		.loc 1 184 43 view .LVU312
 679 00aa 44EA0C04 		orr	r4, r4, ip
 680              		.loc 1 184 22 view .LVU313
 681 00ae 0462     		str	r4, [r0, #32]
 682              	.L9:
 683              		.loc 1 187 9 is_stmt 1 view .LVU314
 684              		.loc 1 187 30 is_stmt 0 view .LVU315
ARM GAS  /tmp/ccXGWUfY.s 			page 13


 685 00b0 0468     		ldr	r4, [r0]
 686              		.loc 1 187 38 view .LVU316
 687 00b2 2340     		ands	r3, r3, r4
 688              	.LVL32:
 689              		.loc 1 187 45 view .LVU317
 690 00b4 43EA0E03 		orr	r3, r3, lr
 691              	.LBE47:
 692              		.loc 1 200 8 view .LVU318
 693 00b8 4908     		lsrs	r1, r1, #1
 694              	.LVL33:
 695              	.LBB48:
 696              		.loc 1 187 23 view .LVU319
 697 00ba 0360     		str	r3, [r0]
 698              	.LBE48:
 699              		.loc 1 199 5 is_stmt 1 view .LVU320
 700              		.loc 1 200 5 view .LVU321
 701              		.loc 1 200 8 is_stmt 0 view .LVU322
 702 00bc C3D1     		bne	.L18
 703              	.LVL34:
 704              	.L16:
 705              		.loc 1 208 1 view .LVU323
 706 00be BDE8F08F 		pop	{r4, r5, r6, r7, r8, r9, r10, fp, pc}
 707              	.LVL35:
 708              	.L10:
 709              	.LBB49:
 710              		.loc 1 196 11 is_stmt 1 view .LVU324
 711              		.loc 1 196 29 is_stmt 0 view .LVU325
 712 00c2 436A     		ldr	r3, [r0, #36]
 713              		.loc 1 196 36 view .LVU326
 714 00c4 23EA0404 		bic	r4, r3, r4
 715              	.LVL36:
 716              		.loc 1 196 43 view .LVU327
 717 00c8 44EA0C04 		orr	r4, r4, ip
 718              		.loc 1 196 22 view .LVU328
 719 00cc 4462     		str	r4, [r0, #36]
 720 00ce B8E7     		b	.L6
 721              	.LVL37:
 722              	.L8:
 723              		.loc 1 186 11 is_stmt 1 view .LVU329
 724              		.loc 1 186 29 is_stmt 0 view .LVU330
 725 00d0 D0F824A0 		ldr	r10, [r0, #36]
 726              		.loc 1 186 36 view .LVU331
 727 00d4 2AEA0404 		bic	r4, r10, r4
 728              	.LVL38:
 729              		.loc 1 186 43 view .LVU332
 730 00d8 44EA0C04 		orr	r4, r4, ip
 731              		.loc 1 186 22 view .LVU333
 732 00dc 4462     		str	r4, [r0, #36]
 733 00de E7E7     		b	.L9
 734              	.LBE49:
 735              		.cfi_endproc
 736              	.LFE279:
 737              		.size	_pal_lld_setgroupmode, .-_pal_lld_setgroupmode
 738              		.text
 739              	.Letext0:
 740              		.file 2 "/usr/lib/gcc/arm-none-eabi/10.3.1/include/stdint.h"
 741              		.file 3 "../../../os/common/ext/CMSIS/ST/STM32F4xx/stm32f407xx.h"
ARM GAS  /tmp/ccXGWUfY.s 			page 14


 742              		.file 4 "../../../os/hal/ports/STM32/LLD/GPIOv2/hal_pal_lld.h"
 743              		.section	.debug_info,"",%progbits
 744              	.Ldebug_info0:
 745 0000 C1070000 		.4byte	0x7c1
 746 0004 0400     		.2byte	0x4
 747 0006 00000000 		.4byte	.Ldebug_abbrev0
 748 000a 04       		.byte	0x4
 749 000b 01       		.uleb128 0x1
 750 000c 33020000 		.4byte	.LASF81
 751 0010 0C       		.byte	0xc
 752 0011 EC000000 		.4byte	.LASF82
 753 0015 16030000 		.4byte	.LASF83
 754 0019 88000000 		.4byte	.Ldebug_ranges0+0x88
 755 001d 00000000 		.4byte	0
 756 0021 00000000 		.4byte	.Ldebug_line0
 757 0025 02       		.uleb128 0x2
 758 0026 04       		.byte	0x4
 759 0027 05       		.byte	0x5
 760 0028 696E7400 		.ascii	"int\000"
 761 002c 03       		.uleb128 0x3
 762 002d 04       		.byte	0x4
 763 002e 07       		.byte	0x7
 764 002f 0A040000 		.4byte	.LASF0
 765 0033 03       		.uleb128 0x3
 766 0034 08       		.byte	0x8
 767 0035 05       		.byte	0x5
 768 0036 31010000 		.4byte	.LASF1
 769 003a 03       		.uleb128 0x3
 770 003b 08       		.byte	0x8
 771 003c 04       		.byte	0x4
 772 003d 97010000 		.4byte	.LASF2
 773 0041 03       		.uleb128 0x3
 774 0042 01       		.byte	0x1
 775 0043 06       		.byte	0x6
 776 0044 E0000000 		.4byte	.LASF3
 777 0048 03       		.uleb128 0x3
 778 0049 02       		.byte	0x2
 779 004a 05       		.byte	0x5
 780 004b 5B000000 		.4byte	.LASF4
 781 004f 03       		.uleb128 0x3
 782 0050 04       		.byte	0x4
 783 0051 05       		.byte	0x5
 784 0052 4D010000 		.4byte	.LASF5
 785 0056 03       		.uleb128 0x3
 786 0057 01       		.byte	0x1
 787 0058 08       		.byte	0x8
 788 0059 A3010000 		.4byte	.LASF6
 789 005d 04       		.uleb128 0x4
 790 005e E9010000 		.4byte	.LASF8
 791 0062 02       		.byte	0x2
 792 0063 31       		.byte	0x31
 793 0064 19       		.byte	0x19
 794 0065 69000000 		.4byte	0x69
 795 0069 03       		.uleb128 0x3
 796 006a 02       		.byte	0x2
 797 006b 07       		.byte	0x7
 798 006c 16020000 		.4byte	.LASF7
ARM GAS  /tmp/ccXGWUfY.s 			page 15


 799 0070 04       		.uleb128 0x4
 800 0071 D0010000 		.4byte	.LASF9
 801 0075 02       		.byte	0x2
 802 0076 34       		.byte	0x34
 803 0077 19       		.byte	0x19
 804 0078 81000000 		.4byte	0x81
 805 007c 05       		.uleb128 0x5
 806 007d 70000000 		.4byte	0x70
 807 0081 03       		.uleb128 0x3
 808 0082 04       		.byte	0x4
 809 0083 07       		.byte	0x7
 810 0084 F2010000 		.4byte	.LASF10
 811 0088 03       		.uleb128 0x3
 812 0089 08       		.byte	0x8
 813 008a 07       		.byte	0x7
 814 008b B9010000 		.4byte	.LASF11
 815 008f 06       		.uleb128 0x6
 816 0090 70000000 		.4byte	0x70
 817 0094 9F000000 		.4byte	0x9f
 818 0098 07       		.uleb128 0x7
 819 0099 2C000000 		.4byte	0x2c
 820 009d 01       		.byte	0x1
 821 009e 00       		.byte	0
 822 009f 08       		.uleb128 0x8
 823 00a0 88       		.byte	0x88
 824 00a1 03       		.byte	0x3
 825 00a2 6502     		.2byte	0x265
 826 00a4 09       		.byte	0x9
 827 00a5 4D020000 		.4byte	0x24d
 828 00a9 09       		.uleb128 0x9
 829 00aa 435200   		.ascii	"CR\000"
 830 00ad 03       		.byte	0x3
 831 00ae 6702     		.2byte	0x267
 832 00b0 11       		.byte	0x11
 833 00b1 7C000000 		.4byte	0x7c
 834 00b5 00       		.byte	0
 835 00b6 0A       		.uleb128 0xa
 836 00b7 09020000 		.4byte	.LASF12
 837 00bb 03       		.byte	0x3
 838 00bc 6802     		.2byte	0x268
 839 00be 11       		.byte	0x11
 840 00bf 7C000000 		.4byte	0x7c
 841 00c3 04       		.byte	0x4
 842 00c4 0A       		.uleb128 0xa
 843 00c5 17040000 		.4byte	.LASF13
 844 00c9 03       		.byte	0x3
 845 00ca 6902     		.2byte	0x269
 846 00cc 11       		.byte	0x11
 847 00cd 7C000000 		.4byte	0x7c
 848 00d1 08       		.byte	0x8
 849 00d2 09       		.uleb128 0x9
 850 00d3 43495200 		.ascii	"CIR\000"
 851 00d7 03       		.byte	0x3
 852 00d8 6A02     		.2byte	0x26a
 853 00da 11       		.byte	0x11
 854 00db 7C000000 		.4byte	0x7c
 855 00df 0C       		.byte	0xc
ARM GAS  /tmp/ccXGWUfY.s 			page 16


 856 00e0 0A       		.uleb128 0xa
 857 00e1 EA030000 		.4byte	.LASF14
 858 00e5 03       		.byte	0x3
 859 00e6 6B02     		.2byte	0x26b
 860 00e8 11       		.byte	0x11
 861 00e9 7C000000 		.4byte	0x7c
 862 00ed 10       		.byte	0x10
 863 00ee 0A       		.uleb128 0xa
 864 00ef E0010000 		.4byte	.LASF15
 865 00f3 03       		.byte	0x3
 866 00f4 6C02     		.2byte	0x26c
 867 00f6 11       		.byte	0x11
 868 00f7 7C000000 		.4byte	0x7c
 869 00fb 14       		.byte	0x14
 870 00fc 0A       		.uleb128 0xa
 871 00fd F3030000 		.4byte	.LASF16
 872 0101 03       		.byte	0x3
 873 0102 6D02     		.2byte	0x26d
 874 0104 11       		.byte	0x11
 875 0105 7C000000 		.4byte	0x7c
 876 0109 18       		.byte	0x18
 877 010a 0A       		.uleb128 0xa
 878 010b 7A030000 		.4byte	.LASF17
 879 010f 03       		.byte	0x3
 880 0110 6E02     		.2byte	0x26e
 881 0112 11       		.byte	0x11
 882 0113 70000000 		.4byte	0x70
 883 0117 1C       		.byte	0x1c
 884 0118 0A       		.uleb128 0xa
 885 0119 27000000 		.4byte	.LASF18
 886 011d 03       		.byte	0x3
 887 011e 6F02     		.2byte	0x26f
 888 0120 11       		.byte	0x11
 889 0121 7C000000 		.4byte	0x7c
 890 0125 20       		.byte	0x20
 891 0126 0A       		.uleb128 0xa
 892 0127 6F010000 		.4byte	.LASF19
 893 012b 03       		.byte	0x3
 894 012c 7002     		.2byte	0x270
 895 012e 11       		.byte	0x11
 896 012f 7C000000 		.4byte	0x7c
 897 0133 24       		.byte	0x24
 898 0134 0A       		.uleb128 0xa
 899 0135 84030000 		.4byte	.LASF20
 900 0139 03       		.byte	0x3
 901 013a 7102     		.2byte	0x271
 902 013c 11       		.byte	0x11
 903 013d 8F000000 		.4byte	0x8f
 904 0141 28       		.byte	0x28
 905 0142 0A       		.uleb128 0xa
 906 0143 C7030000 		.4byte	.LASF21
 907 0147 03       		.byte	0x3
 908 0148 7202     		.2byte	0x272
 909 014a 11       		.byte	0x11
 910 014b 7C000000 		.4byte	0x7c
 911 014f 30       		.byte	0x30
 912 0150 0A       		.uleb128 0xa
ARM GAS  /tmp/ccXGWUfY.s 			page 17


 913 0151 30000000 		.4byte	.LASF22
 914 0155 03       		.byte	0x3
 915 0156 7302     		.2byte	0x273
 916 0158 11       		.byte	0x11
 917 0159 7C000000 		.4byte	0x7c
 918 015d 34       		.byte	0x34
 919 015e 0A       		.uleb128 0xa
 920 015f 21010000 		.4byte	.LASF23
 921 0163 03       		.byte	0x3
 922 0164 7402     		.2byte	0x274
 923 0166 11       		.byte	0x11
 924 0167 7C000000 		.4byte	0x7c
 925 016b 38       		.byte	0x38
 926 016c 0A       		.uleb128 0xa
 927 016d 8E030000 		.4byte	.LASF24
 928 0171 03       		.byte	0x3
 929 0172 7502     		.2byte	0x275
 930 0174 11       		.byte	0x11
 931 0175 70000000 		.4byte	0x70
 932 0179 3C       		.byte	0x3c
 933 017a 0A       		.uleb128 0xa
 934 017b C4000000 		.4byte	.LASF25
 935 017f 03       		.byte	0x3
 936 0180 7602     		.2byte	0x276
 937 0182 11       		.byte	0x11
 938 0183 7C000000 		.4byte	0x7c
 939 0187 40       		.byte	0x40
 940 0188 0A       		.uleb128 0xa
 941 0189 B1010000 		.4byte	.LASF26
 942 018d 03       		.byte	0x3
 943 018e 7702     		.2byte	0x277
 944 0190 11       		.byte	0x11
 945 0191 7C000000 		.4byte	0x7c
 946 0195 44       		.byte	0x44
 947 0196 0A       		.uleb128 0xa
 948 0197 98030000 		.4byte	.LASF27
 949 019b 03       		.byte	0x3
 950 019c 7802     		.2byte	0x278
 951 019e 11       		.byte	0x11
 952 019f 8F000000 		.4byte	0x8f
 953 01a3 48       		.byte	0x48
 954 01a4 0A       		.uleb128 0xa
 955 01a5 00000000 		.4byte	.LASF28
 956 01a9 03       		.byte	0x3
 957 01aa 7902     		.2byte	0x279
 958 01ac 11       		.byte	0x11
 959 01ad 7C000000 		.4byte	0x7c
 960 01b1 50       		.byte	0x50
 961 01b2 0A       		.uleb128 0xa
 962 01b3 64030000 		.4byte	.LASF29
 963 01b7 03       		.byte	0x3
 964 01b8 7A02     		.2byte	0x27a
 965 01ba 11       		.byte	0x11
 966 01bb 7C000000 		.4byte	0x7c
 967 01bf 54       		.byte	0x54
 968 01c0 0A       		.uleb128 0xa
 969 01c1 AA000000 		.4byte	.LASF30
ARM GAS  /tmp/ccXGWUfY.s 			page 18


 970 01c5 03       		.byte	0x3
 971 01c6 7B02     		.2byte	0x27b
 972 01c8 11       		.byte	0x11
 973 01c9 7C000000 		.4byte	0x7c
 974 01cd 58       		.byte	0x58
 975 01ce 0A       		.uleb128 0xa
 976 01cf A2030000 		.4byte	.LASF31
 977 01d3 03       		.byte	0x3
 978 01d4 7C02     		.2byte	0x27c
 979 01d6 11       		.byte	0x11
 980 01d7 70000000 		.4byte	0x70
 981 01db 5C       		.byte	0x5c
 982 01dc 0A       		.uleb128 0xa
 983 01dd 29020000 		.4byte	.LASF32
 984 01e1 03       		.byte	0x3
 985 01e2 7D02     		.2byte	0x27d
 986 01e4 11       		.byte	0x11
 987 01e5 7C000000 		.4byte	0x7c
 988 01e9 60       		.byte	0x60
 989 01ea 0A       		.uleb128 0xa
 990 01eb 21040000 		.4byte	.LASF33
 991 01ef 03       		.byte	0x3
 992 01f0 7E02     		.2byte	0x27e
 993 01f2 11       		.byte	0x11
 994 01f3 7C000000 		.4byte	0x7c
 995 01f7 64       		.byte	0x64
 996 01f8 0A       		.uleb128 0xa
 997 01f9 AC030000 		.4byte	.LASF34
 998 01fd 03       		.byte	0x3
 999 01fe 7F02     		.2byte	0x27f
 1000 0200 11       		.byte	0x11
 1001 0201 8F000000 		.4byte	0x8f
 1002 0205 68       		.byte	0x68
 1003 0206 0A       		.uleb128 0xa
 1004 0207 78000000 		.4byte	.LASF35
 1005 020b 03       		.byte	0x3
 1006 020c 8002     		.2byte	0x280
 1007 020e 11       		.byte	0x11
 1008 020f 7C000000 		.4byte	0x7c
 1009 0213 70       		.byte	0x70
 1010 0214 09       		.uleb128 0x9
 1011 0215 43535200 		.ascii	"CSR\000"
 1012 0219 03       		.byte	0x3
 1013 021a 8102     		.2byte	0x281
 1014 021c 11       		.byte	0x11
 1015 021d 7C000000 		.4byte	0x7c
 1016 0221 74       		.byte	0x74
 1017 0222 0A       		.uleb128 0xa
 1018 0223 B6030000 		.4byte	.LASF36
 1019 0227 03       		.byte	0x3
 1020 0228 8202     		.2byte	0x282
 1021 022a 11       		.byte	0x11
 1022 022b 8F000000 		.4byte	0x8f
 1023 022f 78       		.byte	0x78
 1024 0230 0A       		.uleb128 0xa
 1025 0231 9D000000 		.4byte	.LASF37
 1026 0235 03       		.byte	0x3
ARM GAS  /tmp/ccXGWUfY.s 			page 19


 1027 0236 8302     		.2byte	0x283
 1028 0238 11       		.byte	0x11
 1029 0239 7C000000 		.4byte	0x7c
 1030 023d 80       		.byte	0x80
 1031 023e 0A       		.uleb128 0xa
 1032 023f 84000000 		.4byte	.LASF38
 1033 0243 03       		.byte	0x3
 1034 0244 8402     		.2byte	0x284
 1035 0246 11       		.byte	0x11
 1036 0247 7C000000 		.4byte	0x7c
 1037 024b 84       		.byte	0x84
 1038 024c 00       		.byte	0
 1039 024d 0B       		.uleb128 0xb
 1040 024e 5D010000 		.4byte	.LASF39
 1041 0252 03       		.byte	0x3
 1042 0253 8502     		.2byte	0x285
 1043 0255 03       		.byte	0x3
 1044 0256 9F000000 		.4byte	0x9f
 1045 025a 03       		.uleb128 0x3
 1046 025b 01       		.byte	0x1
 1047 025c 08       		.byte	0x8
 1048 025d 07030000 		.4byte	.LASF40
 1049 0261 03       		.uleb128 0x3
 1050 0262 01       		.byte	0x1
 1051 0263 02       		.byte	0x2
 1052 0264 59030000 		.4byte	.LASF41
 1053 0268 0C       		.uleb128 0xc
 1054 0269 04       		.byte	0x4
 1055 026a 04       		.byte	0x4
 1056 026b E7       		.byte	0xe7
 1057 026c 05       		.byte	0x5
 1058 026d 8C020000 		.4byte	0x28c
 1059 0271 0D       		.uleb128 0xd
 1060 0272 73657400 		.ascii	"set\000"
 1061 0276 04       		.byte	0x4
 1062 0277 E8       		.byte	0xe8
 1063 0278 19       		.byte	0x19
 1064 0279 5D000000 		.4byte	0x5d
 1065 027d 00       		.byte	0
 1066 027e 0E       		.uleb128 0xe
 1067 027f 78010000 		.4byte	.LASF42
 1068 0283 04       		.byte	0x4
 1069 0284 E9       		.byte	0xe9
 1070 0285 19       		.byte	0x19
 1071 0286 5D000000 		.4byte	0x5d
 1072 028a 02       		.byte	0x2
 1073 028b 00       		.byte	0
 1074 028c 0F       		.uleb128 0xf
 1075 028d 04       		.byte	0x4
 1076 028e 04       		.byte	0x4
 1077 028f E5       		.byte	0xe5
 1078 0290 0C       		.byte	0xc
 1079 0291 AA020000 		.4byte	0x2aa
 1080 0295 10       		.uleb128 0x10
 1081 0296 5700     		.ascii	"W\000"
 1082 0298 04       		.byte	0x4
 1083 0299 E6       		.byte	0xe6
ARM GAS  /tmp/ccXGWUfY.s 			page 20


 1084 029a 19       		.byte	0x19
 1085 029b 70000000 		.4byte	0x70
 1086 029f 10       		.uleb128 0x10
 1087 02a0 4800     		.ascii	"H\000"
 1088 02a2 04       		.byte	0x4
 1089 02a3 EA       		.byte	0xea
 1090 02a4 07       		.byte	0x7
 1091 02a5 68020000 		.4byte	0x268
 1092 02a9 00       		.byte	0
 1093 02aa 05       		.uleb128 0x5
 1094 02ab 8C020000 		.4byte	0x28c
 1095 02af 0C       		.uleb128 0xc
 1096 02b0 2C       		.byte	0x2c
 1097 02b1 04       		.byte	0x4
 1098 02b2 DD       		.byte	0xdd
 1099 02b3 09       		.byte	0x9
 1100 02b4 48030000 		.4byte	0x348
 1101 02b8 0E       		.uleb128 0xe
 1102 02b9 69010000 		.4byte	.LASF43
 1103 02bd 04       		.byte	0x4
 1104 02be DF       		.byte	0xdf
 1105 02bf 19       		.byte	0x19
 1106 02c0 7C000000 		.4byte	0x7c
 1107 02c4 00       		.byte	0
 1108 02c5 0E       		.uleb128 0xe
 1109 02c6 D9000000 		.4byte	.LASF44
 1110 02ca 04       		.byte	0x4
 1111 02cb E0       		.byte	0xe0
 1112 02cc 19       		.byte	0x19
 1113 02cd 7C000000 		.4byte	0x7c
 1114 02d1 04       		.byte	0x4
 1115 02d2 0E       		.uleb128 0xe
 1116 02d3 29010000 		.4byte	.LASF45
 1117 02d7 04       		.byte	0x4
 1118 02d8 E1       		.byte	0xe1
 1119 02d9 19       		.byte	0x19
 1120 02da 7C000000 		.4byte	0x7c
 1121 02de 08       		.byte	0x8
 1122 02df 0E       		.uleb128 0xe
 1123 02e0 3F010000 		.4byte	.LASF46
 1124 02e4 04       		.byte	0x4
 1125 02e5 E2       		.byte	0xe2
 1126 02e6 19       		.byte	0x19
 1127 02e7 7C000000 		.4byte	0x7c
 1128 02eb 0C       		.byte	0xc
 1129 02ec 0D       		.uleb128 0xd
 1130 02ed 49445200 		.ascii	"IDR\000"
 1131 02f1 04       		.byte	0x4
 1132 02f2 E3       		.byte	0xe3
 1133 02f3 19       		.byte	0x19
 1134 02f4 7C000000 		.4byte	0x7c
 1135 02f8 10       		.byte	0x10
 1136 02f9 0D       		.uleb128 0xd
 1137 02fa 4F445200 		.ascii	"ODR\000"
 1138 02fe 04       		.byte	0x4
 1139 02ff E4       		.byte	0xe4
 1140 0300 19       		.byte	0x19
ARM GAS  /tmp/ccXGWUfY.s 			page 21


 1141 0301 7C000000 		.4byte	0x7c
 1142 0305 14       		.byte	0x14
 1143 0306 0E       		.uleb128 0xe
 1144 0307 2B040000 		.4byte	.LASF47
 1145 030b 04       		.byte	0x4
 1146 030c EB       		.byte	0xeb
 1147 030d 05       		.byte	0x5
 1148 030e AA020000 		.4byte	0x2aa
 1149 0312 18       		.byte	0x18
 1150 0313 0E       		.uleb128 0xe
 1151 0314 1C040000 		.4byte	.LASF48
 1152 0318 04       		.byte	0x4
 1153 0319 EC       		.byte	0xec
 1154 031a 19       		.byte	0x19
 1155 031b 7C000000 		.4byte	0x7c
 1156 031f 1C       		.byte	0x1c
 1157 0320 0E       		.uleb128 0xe
 1158 0321 11020000 		.4byte	.LASF49
 1159 0325 04       		.byte	0x4
 1160 0326 ED       		.byte	0xed
 1161 0327 19       		.byte	0x19
 1162 0328 7C000000 		.4byte	0x7c
 1163 032c 20       		.byte	0x20
 1164 032d 0E       		.uleb128 0xe
 1165 032e 04020000 		.4byte	.LASF50
 1166 0332 04       		.byte	0x4
 1167 0333 EE       		.byte	0xee
 1168 0334 19       		.byte	0x19
 1169 0335 7C000000 		.4byte	0x7c
 1170 0339 24       		.byte	0x24
 1171 033a 0D       		.uleb128 0xd
 1172 033b 42525200 		.ascii	"BRR\000"
 1173 033f 04       		.byte	0x4
 1174 0340 EF       		.byte	0xef
 1175 0341 19       		.byte	0x19
 1176 0342 7C000000 		.4byte	0x7c
 1177 0346 28       		.byte	0x28
 1178 0347 00       		.byte	0
 1179 0348 04       		.uleb128 0x4
 1180 0349 65000000 		.4byte	.LASF51
 1181 034d 04       		.byte	0x4
 1182 034e F0       		.byte	0xf0
 1183 034f 03       		.byte	0x3
 1184 0350 AF020000 		.4byte	0x2af
 1185 0354 0C       		.uleb128 0xc
 1186 0355 1C       		.byte	0x1c
 1187 0356 04       		.byte	0x4
 1188 0357 F5       		.byte	0xf5
 1189 0358 09       		.byte	0x9
 1190 0359 BB030000 		.4byte	0x3bb
 1191 035d 0E       		.uleb128 0xe
 1192 035e E4030000 		.4byte	.LASF52
 1193 0362 04       		.byte	0x4
 1194 0363 F7       		.byte	0xf7
 1195 0364 19       		.byte	0x19
 1196 0365 70000000 		.4byte	0x70
 1197 0369 00       		.byte	0
ARM GAS  /tmp/ccXGWUfY.s 			page 22


 1198 036a 0E       		.uleb128 0xe
 1199 036b D9010000 		.4byte	.LASF53
 1200 036f 04       		.byte	0x4
 1201 0370 F9       		.byte	0xf9
 1202 0371 19       		.byte	0x19
 1203 0372 70000000 		.4byte	0x70
 1204 0376 04       		.byte	0x4
 1205 0377 0E       		.uleb128 0xe
 1206 0378 45010000 		.4byte	.LASF54
 1207 037c 04       		.byte	0x4
 1208 037d FB       		.byte	0xfb
 1209 037e 19       		.byte	0x19
 1210 037f 70000000 		.4byte	0x70
 1211 0383 08       		.byte	0x8
 1212 0384 0E       		.uleb128 0xe
 1213 0385 D4030000 		.4byte	.LASF55
 1214 0389 04       		.byte	0x4
 1215 038a FD       		.byte	0xfd
 1216 038b 19       		.byte	0x19
 1217 038c 70000000 		.4byte	0x70
 1218 0390 0C       		.byte	0xc
 1219 0391 0D       		.uleb128 0xd
 1220 0392 6F647200 		.ascii	"odr\000"
 1221 0396 04       		.byte	0x4
 1222 0397 FF       		.byte	0xff
 1223 0398 19       		.byte	0x19
 1224 0399 70000000 		.4byte	0x70
 1225 039d 10       		.byte	0x10
 1226 039e 0A       		.uleb128 0xa
 1227 039f DF030000 		.4byte	.LASF56
 1228 03a3 04       		.byte	0x4
 1229 03a4 0101     		.2byte	0x101
 1230 03a6 19       		.byte	0x19
 1231 03a7 70000000 		.4byte	0x70
 1232 03ab 14       		.byte	0x14
 1233 03ac 0A       		.uleb128 0xa
 1234 03ad DA030000 		.4byte	.LASF57
 1235 03b1 04       		.byte	0x4
 1236 03b2 0301     		.2byte	0x103
 1237 03b4 19       		.byte	0x19
 1238 03b5 70000000 		.4byte	0x70
 1239 03b9 18       		.byte	0x18
 1240 03ba 00       		.byte	0
 1241 03bb 0B       		.uleb128 0xb
 1242 03bc 38000000 		.4byte	.LASF58
 1243 03c0 04       		.byte	0x4
 1244 03c1 0401     		.2byte	0x104
 1245 03c3 03       		.byte	0x3
 1246 03c4 54030000 		.4byte	0x354
 1247 03c8 11       		.uleb128 0x11
 1248 03c9 BB030000 		.4byte	0x3bb
 1249 03cd 08       		.uleb128 0x8
 1250 03ce FC       		.byte	0xfc
 1251 03cf 04       		.byte	0x4
 1252 03d0 0D01     		.2byte	0x10d
 1253 03d2 09       		.byte	0x9
 1254 03d3 56040000 		.4byte	0x456
ARM GAS  /tmp/ccXGWUfY.s 			page 23


 1255 03d7 0A       		.uleb128 0xa
 1256 03d8 85010000 		.4byte	.LASF59
 1257 03dc 04       		.byte	0x4
 1258 03dd 1001     		.2byte	0x110
 1259 03df 19       		.byte	0x19
 1260 03e0 BB030000 		.4byte	0x3bb
 1261 03e4 00       		.byte	0
 1262 03e5 0A       		.uleb128 0xa
 1263 03e6 A3000000 		.4byte	.LASF60
 1264 03ea 04       		.byte	0x4
 1265 03eb 1401     		.2byte	0x114
 1266 03ed 19       		.byte	0x19
 1267 03ee BB030000 		.4byte	0x3bb
 1268 03f2 1C       		.byte	0x1c
 1269 03f3 0A       		.uleb128 0xa
 1270 03f4 0A000000 		.4byte	.LASF61
 1271 03f8 04       		.byte	0x4
 1272 03f9 1801     		.2byte	0x118
 1273 03fb 19       		.byte	0x19
 1274 03fc BB030000 		.4byte	0x3bb
 1275 0400 38       		.byte	0x38
 1276 0401 0A       		.uleb128 0xa
 1277 0402 56010000 		.4byte	.LASF62
 1278 0406 04       		.byte	0x4
 1279 0407 1C01     		.2byte	0x11c
 1280 0409 19       		.byte	0x19
 1281 040a BB030000 		.4byte	0x3bb
 1282 040e 54       		.byte	0x54
 1283 040f 0A       		.uleb128 0xa
 1284 0410 73030000 		.4byte	.LASF63
 1285 0414 04       		.byte	0x4
 1286 0415 2001     		.2byte	0x120
 1287 0417 19       		.byte	0x19
 1288 0418 BB030000 		.4byte	0x3bb
 1289 041c 70       		.byte	0x70
 1290 041d 0A       		.uleb128 0xa
 1291 041e 4B000000 		.4byte	.LASF64
 1292 0422 04       		.byte	0x4
 1293 0423 2401     		.2byte	0x124
 1294 0425 19       		.byte	0x19
 1295 0426 BB030000 		.4byte	0x3bb
 1296 042a 8C       		.byte	0x8c
 1297 042b 0A       		.uleb128 0xa
 1298 042c 7E010000 		.4byte	.LASF65
 1299 0430 04       		.byte	0x4
 1300 0431 2801     		.2byte	0x128
 1301 0433 19       		.byte	0x19
 1302 0434 BB030000 		.4byte	0x3bb
 1303 0438 A8       		.byte	0xa8
 1304 0439 0A       		.uleb128 0xa
 1305 043a C0030000 		.4byte	.LASF66
 1306 043e 04       		.byte	0x4
 1307 043f 2C01     		.2byte	0x12c
 1308 0441 19       		.byte	0x19
 1309 0442 BB030000 		.4byte	0x3bb
 1310 0446 C4       		.byte	0xc4
 1311 0447 0A       		.uleb128 0xa
ARM GAS  /tmp/ccXGWUfY.s 			page 24


 1312 0448 7D000000 		.4byte	.LASF67
 1313 044c 04       		.byte	0x4
 1314 044d 3001     		.2byte	0x130
 1315 044f 19       		.byte	0x19
 1316 0450 BB030000 		.4byte	0x3bb
 1317 0454 E0       		.byte	0xe0
 1318 0455 00       		.byte	0
 1319 0456 0B       		.uleb128 0xb
 1320 0457 0C030000 		.4byte	.LASF68
 1321 045b 04       		.byte	0x4
 1322 045c 3A01     		.2byte	0x13a
 1323 045e 03       		.byte	0x3
 1324 045f CD030000 		.4byte	0x3cd
 1325 0463 11       		.uleb128 0x11
 1326 0464 56040000 		.4byte	0x456
 1327 0468 0B       		.uleb128 0xb
 1328 0469 CC000000 		.4byte	.LASF69
 1329 046d 04       		.byte	0x4
 1330 046e 3F01     		.2byte	0x13f
 1331 0470 12       		.byte	0x12
 1332 0471 70000000 		.4byte	0x70
 1333 0475 0B       		.uleb128 0xb
 1334 0476 BB000000 		.4byte	.LASF70
 1335 047a 04       		.byte	0x4
 1336 047b 4401     		.2byte	0x144
 1337 047d 12       		.byte	0x12
 1338 047e 70000000 		.4byte	0x70
 1339 0482 0B       		.uleb128 0xb
 1340 0483 8C010000 		.4byte	.LASF71
 1341 0487 04       		.byte	0x4
 1342 0488 5101     		.2byte	0x151
 1343 048a 18       		.byte	0x18
 1344 048b 8F040000 		.4byte	0x48f
 1345 048f 12       		.uleb128 0x12
 1346 0490 04       		.byte	0x4
 1347 0491 48030000 		.4byte	0x348
 1348 0495 13       		.uleb128 0x13
 1349 0496 11000000 		.4byte	.LASF76
 1350 049a 01       		.byte	0x1
 1351 049b 9F       		.byte	0x9f
 1352 049c 06       		.byte	0x6
 1353 049d 00000000 		.4byte	.LFB279
 1354 04a1 E0000000 		.4byte	.LFE279-.LFB279
 1355 04a5 01       		.uleb128 0x1
 1356 04a6 9C       		.byte	0x9c
 1357 04a7 AD050000 		.4byte	0x5ad
 1358 04ab 14       		.uleb128 0x14
 1359 04ac 6E030000 		.4byte	.LASF78
 1360 04b0 01       		.byte	0x1
 1361 04b1 9F       		.byte	0x9f
 1362 04b2 27       		.byte	0x27
 1363 04b3 82040000 		.4byte	0x482
 1364 04b7 01       		.uleb128 0x1
 1365 04b8 50       		.byte	0x50
 1366 04b9 15       		.uleb128 0x15
 1367 04ba CF030000 		.4byte	.LASF72
 1368 04be 01       		.byte	0x1
ARM GAS  /tmp/ccXGWUfY.s 			page 25


 1369 04bf A0       		.byte	0xa0
 1370 04c0 29       		.byte	0x29
 1371 04c1 68040000 		.4byte	0x468
 1372 04c5 0A000000 		.4byte	.LLST18
 1373 04c9 00000000 		.4byte	.LVUS18
 1374 04cd 15       		.uleb128 0x15
 1375 04ce 5F030000 		.4byte	.LASF73
 1376 04d2 01       		.byte	0x1
 1377 04d3 A1       		.byte	0xa1
 1378 04d4 25       		.byte	0x25
 1379 04d5 75040000 		.4byte	0x475
 1380 04d9 51000000 		.4byte	.LLST19
 1381 04dd 4D000000 		.4byte	.LVUS19
 1382 04e1 16       		.uleb128 0x16
 1383 04e2 E4030000 		.4byte	.LASF52
 1384 04e6 01       		.byte	0x1
 1385 04e7 A3       		.byte	0xa3
 1386 04e8 0C       		.byte	0xc
 1387 04e9 70000000 		.4byte	0x70
 1388 04ed 76000000 		.4byte	.LLST20
 1389 04f1 72000000 		.4byte	.LVUS20
 1390 04f5 16       		.uleb128 0x16
 1391 04f6 D9010000 		.4byte	.LASF53
 1392 04fa 01       		.byte	0x1
 1393 04fb A4       		.byte	0xa4
 1394 04fc 0C       		.byte	0xc
 1395 04fd 70000000 		.4byte	0x70
 1396 0501 96000000 		.4byte	.LLST21
 1397 0505 94000000 		.4byte	.LVUS21
 1398 0509 16       		.uleb128 0x16
 1399 050a 45010000 		.4byte	.LASF54
 1400 050e 01       		.byte	0x1
 1401 050f A5       		.byte	0xa5
 1402 0510 0C       		.byte	0xc
 1403 0511 70000000 		.4byte	0x70
 1404 0515 AB000000 		.4byte	.LLST22
 1405 0519 A9000000 		.4byte	.LVUS22
 1406 051d 16       		.uleb128 0x16
 1407 051e D4030000 		.4byte	.LASF55
 1408 0522 01       		.byte	0x1
 1409 0523 A6       		.byte	0xa6
 1410 0524 0C       		.byte	0xc
 1411 0525 70000000 		.4byte	0x70
 1412 0529 C2000000 		.4byte	.LLST23
 1413 052d BE000000 		.4byte	.LVUS23
 1414 0531 16       		.uleb128 0x16
 1415 0532 FC030000 		.4byte	.LASF74
 1416 0536 01       		.byte	0x1
 1417 0537 A7       		.byte	0xa7
 1418 0538 0C       		.byte	0xc
 1419 0539 70000000 		.4byte	0x70
 1420 053d E2000000 		.4byte	.LLST24
 1421 0541 E0000000 		.4byte	.LVUS24
 1422 0545 17       		.uleb128 0x17
 1423 0546 62697400 		.ascii	"bit\000"
 1424 054a 01       		.byte	0x1
 1425 054b A8       		.byte	0xa8
ARM GAS  /tmp/ccXGWUfY.s 			page 26


 1426 054c 0C       		.byte	0xc
 1427 054d 70000000 		.4byte	0x70
 1428 0551 F9000000 		.4byte	.LLST25
 1429 0555 F5000000 		.4byte	.LVUS25
 1430 0559 18       		.uleb128 0x18
 1431 055a 60000000 		.4byte	.Ldebug_ranges0+0x60
 1432 055e 16       		.uleb128 0x16
 1433 055f 01040000 		.4byte	.LASF75
 1434 0563 01       		.byte	0x1
 1435 0564 AB       		.byte	0xab
 1436 0565 10       		.byte	0x10
 1437 0566 70000000 		.4byte	0x70
 1438 056a 1E010000 		.4byte	.LLST26
 1439 056e 18010000 		.4byte	.LVUS26
 1440 0572 17       		.uleb128 0x17
 1441 0573 6D3100   		.ascii	"m1\000"
 1442 0576 01       		.byte	0x1
 1443 0577 AB       		.byte	0xab
 1444 0578 1A       		.byte	0x1a
 1445 0579 70000000 		.4byte	0x70
 1446 057d 4D010000 		.4byte	.LLST27
 1447 0581 47010000 		.4byte	.LVUS27
 1448 0585 17       		.uleb128 0x17
 1449 0586 6D3200   		.ascii	"m2\000"
 1450 0589 01       		.byte	0x1
 1451 058a AB       		.byte	0xab
 1452 058b 1E       		.byte	0x1e
 1453 058c 70000000 		.4byte	0x70
 1454 0590 90010000 		.4byte	.LLST28
 1455 0594 82010000 		.4byte	.LVUS28
 1456 0598 17       		.uleb128 0x17
 1457 0599 6D3400   		.ascii	"m4\000"
 1458 059c 01       		.byte	0x1
 1459 059d AB       		.byte	0xab
 1460 059e 22       		.byte	0x22
 1461 059f 70000000 		.4byte	0x70
 1462 05a3 10020000 		.4byte	.LLST29
 1463 05a7 00020000 		.4byte	.LVUS29
 1464 05ab 00       		.byte	0
 1465 05ac 00       		.byte	0
 1466 05ad 13       		.uleb128 0x13
 1467 05ae 8F000000 		.4byte	.LASF77
 1468 05b2 01       		.byte	0x1
 1469 05b3 58       		.byte	0x58
 1470 05b4 06       		.byte	0x6
 1471 05b5 00000000 		.4byte	.LFB278
 1472 05b9 A0010000 		.4byte	.LFE278-.LFB278
 1473 05bd 01       		.uleb128 0x1
 1474 05be 9C       		.byte	0x9c
 1475 05bf 92070000 		.4byte	0x792
 1476 05c3 14       		.uleb128 0x14
 1477 05c4 B4000000 		.4byte	.LASF79
 1478 05c8 01       		.byte	0x1
 1479 05c9 58       		.byte	0x58
 1480 05ca 25       		.byte	0x25
 1481 05cb 92070000 		.4byte	0x792
 1482 05cf 01       		.uleb128 0x1
ARM GAS  /tmp/ccXGWUfY.s 			page 27


 1483 05d0 50       		.byte	0x50
 1484 05d1 19       		.uleb128 0x19
 1485 05d2 98070000 		.4byte	0x798
 1486 05d6 16000000 		.4byte	.LBI20
 1487 05da 01       		.byte	.LVU6
 1488 05db 16000000 		.4byte	.LBB20
 1489 05df 20000000 		.4byte	.LBE20-.LBB20
 1490 05e3 01       		.byte	0x1
 1491 05e4 70       		.byte	0x70
 1492 05e5 03       		.byte	0x3
 1493 05e6 05060000 		.4byte	0x605
 1494 05ea 1A       		.uleb128 0x1a
 1495 05eb B1070000 		.4byte	0x7b1
 1496 05ef 96020000 		.4byte	.LLST0
 1497 05f3 94020000 		.4byte	.LVUS0
 1498 05f7 1A       		.uleb128 0x1a
 1499 05f8 A5070000 		.4byte	0x7a5
 1500 05fc AB020000 		.4byte	.LLST1
 1501 0600 A9020000 		.4byte	.LVUS1
 1502 0604 00       		.byte	0
 1503 0605 1B       		.uleb128 0x1b
 1504 0606 98070000 		.4byte	0x798
 1505 060a 36000000 		.4byte	.LBI22
 1506 060e 02       		.byte	.LVU31
 1507 060f 00000000 		.4byte	.Ldebug_ranges0+0
 1508 0613 01       		.byte	0x1
 1509 0614 73       		.byte	0x73
 1510 0615 03       		.byte	0x3
 1511 0616 35060000 		.4byte	0x635
 1512 061a 1A       		.uleb128 0x1a
 1513 061b B1070000 		.4byte	0x7b1
 1514 061f C5020000 		.4byte	.LLST2
 1515 0623 C3020000 		.4byte	.LVUS2
 1516 0627 1A       		.uleb128 0x1a
 1517 0628 A5070000 		.4byte	0x7a5
 1518 062c DC020000 		.4byte	.LLST3
 1519 0630 DA020000 		.4byte	.LVUS3
 1520 0634 00       		.byte	0
 1521 0635 1B       		.uleb128 0x1b
 1522 0636 98070000 		.4byte	0x798
 1523 063a 56000000 		.4byte	.LBI25
 1524 063e 02       		.byte	.LVU57
 1525 063f 18000000 		.4byte	.Ldebug_ranges0+0x18
 1526 0643 01       		.byte	0x1
 1527 0644 76       		.byte	0x76
 1528 0645 03       		.byte	0x3
 1529 0646 65060000 		.4byte	0x665
 1530 064a 1A       		.uleb128 0x1a
 1531 064b B1070000 		.4byte	0x7b1
 1532 064f F6020000 		.4byte	.LLST4
 1533 0653 F4020000 		.4byte	.LVUS4
 1534 0657 1A       		.uleb128 0x1a
 1535 0658 A5070000 		.4byte	0x7a5
 1536 065c 0D030000 		.4byte	.LLST5
 1537 0660 0B030000 		.4byte	.LVUS5
 1538 0664 00       		.byte	0
 1539 0665 1B       		.uleb128 0x1b
ARM GAS  /tmp/ccXGWUfY.s 			page 28


 1540 0666 98070000 		.4byte	0x798
 1541 066a 72000000 		.4byte	.LBI30
 1542 066e 02       		.byte	.LVU81
 1543 066f 30000000 		.4byte	.Ldebug_ranges0+0x30
 1544 0673 01       		.byte	0x1
 1545 0674 79       		.byte	0x79
 1546 0675 03       		.byte	0x3
 1547 0676 95060000 		.4byte	0x695
 1548 067a 1A       		.uleb128 0x1a
 1549 067b B1070000 		.4byte	0x7b1
 1550 067f 27030000 		.4byte	.LLST6
 1551 0683 25030000 		.4byte	.LVUS6
 1552 0687 1A       		.uleb128 0x1a
 1553 0688 A5070000 		.4byte	0x7a5
 1554 068c 3F030000 		.4byte	.LLST7
 1555 0690 3D030000 		.4byte	.LVUS7
 1556 0694 00       		.byte	0
 1557 0695 1B       		.uleb128 0x1b
 1558 0696 98070000 		.4byte	0x798
 1559 069a 92000000 		.4byte	.LBI33
 1560 069e 02       		.byte	.LVU107
 1561 069f 48000000 		.4byte	.Ldebug_ranges0+0x48
 1562 06a3 01       		.byte	0x1
 1563 06a4 7C       		.byte	0x7c
 1564 06a5 03       		.byte	0x3
 1565 06a6 C5060000 		.4byte	0x6c5
 1566 06aa 1A       		.uleb128 0x1a
 1567 06ab B1070000 		.4byte	0x7b1
 1568 06af 59030000 		.4byte	.LLST8
 1569 06b3 57030000 		.4byte	.LVUS8
 1570 06b7 1A       		.uleb128 0x1a
 1571 06b8 A5070000 		.4byte	0x7a5
 1572 06bc 71030000 		.4byte	.LLST9
 1573 06c0 6F030000 		.4byte	.LVUS9
 1574 06c4 00       		.byte	0
 1575 06c5 19       		.uleb128 0x19
 1576 06c6 98070000 		.4byte	0x798
 1577 06ca B4000000 		.4byte	.LBI38
 1578 06ce 02       		.byte	.LVU131
 1579 06cf B4000000 		.4byte	.LBB38
 1580 06d3 38000000 		.4byte	.LBE38-.LBB38
 1581 06d7 01       		.byte	0x1
 1582 06d8 7F       		.byte	0x7f
 1583 06d9 03       		.byte	0x3
 1584 06da F9060000 		.4byte	0x6f9
 1585 06de 1A       		.uleb128 0x1a
 1586 06df B1070000 		.4byte	0x7b1
 1587 06e3 8B030000 		.4byte	.LLST10
 1588 06e7 89030000 		.4byte	.LVUS10
 1589 06eb 1A       		.uleb128 0x1a
 1590 06ec A5070000 		.4byte	0x7a5
 1591 06f0 A3030000 		.4byte	.LLST11
 1592 06f4 A1030000 		.4byte	.LVUS11
 1593 06f8 00       		.byte	0
 1594 06f9 19       		.uleb128 0x19
 1595 06fa 98070000 		.4byte	0x798
 1596 06fe EC000000 		.4byte	.LBI40
ARM GAS  /tmp/ccXGWUfY.s 			page 29


 1597 0702 02       		.byte	.LVU155
 1598 0703 EC000000 		.4byte	.LBB40
 1599 0707 2E000000 		.4byte	.LBE40-.LBB40
 1600 070b 01       		.byte	0x1
 1601 070c 82       		.byte	0x82
 1602 070d 03       		.byte	0x3
 1603 070e 2D070000 		.4byte	0x72d
 1604 0712 1A       		.uleb128 0x1a
 1605 0713 B1070000 		.4byte	0x7b1
 1606 0717 BD030000 		.4byte	.LLST12
 1607 071b BB030000 		.4byte	.LVUS12
 1608 071f 1A       		.uleb128 0x1a
 1609 0720 A5070000 		.4byte	0x7a5
 1610 0724 D5030000 		.4byte	.LLST13
 1611 0728 D3030000 		.4byte	.LVUS13
 1612 072c 00       		.byte	0
 1613 072d 19       		.uleb128 0x19
 1614 072e 98070000 		.4byte	0x798
 1615 0732 1A010000 		.4byte	.LBI42
 1616 0736 02       		.byte	.LVU180
 1617 0737 1A010000 		.4byte	.LBB42
 1618 073b 38000000 		.4byte	.LBE42-.LBB42
 1619 073f 01       		.byte	0x1
 1620 0740 85       		.byte	0x85
 1621 0741 03       		.byte	0x3
 1622 0742 61070000 		.4byte	0x761
 1623 0746 1A       		.uleb128 0x1a
 1624 0747 B1070000 		.4byte	0x7b1
 1625 074b EF030000 		.4byte	.LLST14
 1626 074f ED030000 		.4byte	.LVUS14
 1627 0753 1A       		.uleb128 0x1a
 1628 0754 A5070000 		.4byte	0x7a5
 1629 0758 07040000 		.4byte	.LLST15
 1630 075c 05040000 		.4byte	.LVUS15
 1631 0760 00       		.byte	0
 1632 0761 1C       		.uleb128 0x1c
 1633 0762 98070000 		.4byte	0x798
 1634 0766 52010000 		.4byte	.LBI44
 1635 076a 02       		.byte	.LVU204
 1636 076b 52010000 		.4byte	.LBB44
 1637 076f 38000000 		.4byte	.LBE44-.LBB44
 1638 0773 01       		.byte	0x1
 1639 0774 88       		.byte	0x88
 1640 0775 03       		.byte	0x3
 1641 0776 1A       		.uleb128 0x1a
 1642 0777 B1070000 		.4byte	0x7b1
 1643 077b 21040000 		.4byte	.LLST16
 1644 077f 1F040000 		.4byte	.LVUS16
 1645 0783 1A       		.uleb128 0x1a
 1646 0784 A5070000 		.4byte	0x7a5
 1647 0788 39040000 		.4byte	.LLST17
 1648 078c 37040000 		.4byte	.LVUS17
 1649 0790 00       		.byte	0
 1650 0791 00       		.byte	0
 1651 0792 12       		.uleb128 0x12
 1652 0793 04       		.byte	0x4
 1653 0794 63040000 		.4byte	0x463
ARM GAS  /tmp/ccXGWUfY.s 			page 30


 1654 0798 1D       		.uleb128 0x1d
 1655 0799 52000000 		.4byte	.LASF84
 1656 079d 01       		.byte	0x1
 1657 079e 3D       		.byte	0x3d
 1658 079f 0D       		.byte	0xd
 1659 07a0 01       		.byte	0x1
 1660 07a1 BE070000 		.4byte	0x7be
 1661 07a5 1E       		.uleb128 0x1e
 1662 07a6 72000000 		.4byte	.LASF80
 1663 07aa 01       		.byte	0x1
 1664 07ab 3D       		.byte	0x3d
 1665 07ac 24       		.byte	0x24
 1666 07ad 8F040000 		.4byte	0x48f
 1667 07b1 1E       		.uleb128 0x1e
 1668 07b2 B4000000 		.4byte	.LASF79
 1669 07b6 01       		.byte	0x1
 1670 07b7 3D       		.byte	0x3d
 1671 07b8 45       		.byte	0x45
 1672 07b9 BE070000 		.4byte	0x7be
 1673 07bd 00       		.byte	0
 1674 07be 12       		.uleb128 0x12
 1675 07bf 04       		.byte	0x4
 1676 07c0 C8030000 		.4byte	0x3c8
 1677 07c4 00       		.byte	0
 1678              		.section	.debug_abbrev,"",%progbits
 1679              	.Ldebug_abbrev0:
 1680 0000 01       		.uleb128 0x1
 1681 0001 11       		.uleb128 0x11
 1682 0002 01       		.byte	0x1
 1683 0003 25       		.uleb128 0x25
 1684 0004 0E       		.uleb128 0xe
 1685 0005 13       		.uleb128 0x13
 1686 0006 0B       		.uleb128 0xb
 1687 0007 03       		.uleb128 0x3
 1688 0008 0E       		.uleb128 0xe
 1689 0009 1B       		.uleb128 0x1b
 1690 000a 0E       		.uleb128 0xe
 1691 000b 55       		.uleb128 0x55
 1692 000c 17       		.uleb128 0x17
 1693 000d 11       		.uleb128 0x11
 1694 000e 01       		.uleb128 0x1
 1695 000f 10       		.uleb128 0x10
 1696 0010 17       		.uleb128 0x17
 1697 0011 00       		.byte	0
 1698 0012 00       		.byte	0
 1699 0013 02       		.uleb128 0x2
 1700 0014 24       		.uleb128 0x24
 1701 0015 00       		.byte	0
 1702 0016 0B       		.uleb128 0xb
 1703 0017 0B       		.uleb128 0xb
 1704 0018 3E       		.uleb128 0x3e
 1705 0019 0B       		.uleb128 0xb
 1706 001a 03       		.uleb128 0x3
 1707 001b 08       		.uleb128 0x8
 1708 001c 00       		.byte	0
 1709 001d 00       		.byte	0
 1710 001e 03       		.uleb128 0x3
ARM GAS  /tmp/ccXGWUfY.s 			page 31


 1711 001f 24       		.uleb128 0x24
 1712 0020 00       		.byte	0
 1713 0021 0B       		.uleb128 0xb
 1714 0022 0B       		.uleb128 0xb
 1715 0023 3E       		.uleb128 0x3e
 1716 0024 0B       		.uleb128 0xb
 1717 0025 03       		.uleb128 0x3
 1718 0026 0E       		.uleb128 0xe
 1719 0027 00       		.byte	0
 1720 0028 00       		.byte	0
 1721 0029 04       		.uleb128 0x4
 1722 002a 16       		.uleb128 0x16
 1723 002b 00       		.byte	0
 1724 002c 03       		.uleb128 0x3
 1725 002d 0E       		.uleb128 0xe
 1726 002e 3A       		.uleb128 0x3a
 1727 002f 0B       		.uleb128 0xb
 1728 0030 3B       		.uleb128 0x3b
 1729 0031 0B       		.uleb128 0xb
 1730 0032 39       		.uleb128 0x39
 1731 0033 0B       		.uleb128 0xb
 1732 0034 49       		.uleb128 0x49
 1733 0035 13       		.uleb128 0x13
 1734 0036 00       		.byte	0
 1735 0037 00       		.byte	0
 1736 0038 05       		.uleb128 0x5
 1737 0039 35       		.uleb128 0x35
 1738 003a 00       		.byte	0
 1739 003b 49       		.uleb128 0x49
 1740 003c 13       		.uleb128 0x13
 1741 003d 00       		.byte	0
 1742 003e 00       		.byte	0
 1743 003f 06       		.uleb128 0x6
 1744 0040 01       		.uleb128 0x1
 1745 0041 01       		.byte	0x1
 1746 0042 49       		.uleb128 0x49
 1747 0043 13       		.uleb128 0x13
 1748 0044 01       		.uleb128 0x1
 1749 0045 13       		.uleb128 0x13
 1750 0046 00       		.byte	0
 1751 0047 00       		.byte	0
 1752 0048 07       		.uleb128 0x7
 1753 0049 21       		.uleb128 0x21
 1754 004a 00       		.byte	0
 1755 004b 49       		.uleb128 0x49
 1756 004c 13       		.uleb128 0x13
 1757 004d 2F       		.uleb128 0x2f
 1758 004e 0B       		.uleb128 0xb
 1759 004f 00       		.byte	0
 1760 0050 00       		.byte	0
 1761 0051 08       		.uleb128 0x8
 1762 0052 13       		.uleb128 0x13
 1763 0053 01       		.byte	0x1
 1764 0054 0B       		.uleb128 0xb
 1765 0055 0B       		.uleb128 0xb
 1766 0056 3A       		.uleb128 0x3a
 1767 0057 0B       		.uleb128 0xb
ARM GAS  /tmp/ccXGWUfY.s 			page 32


 1768 0058 3B       		.uleb128 0x3b
 1769 0059 05       		.uleb128 0x5
 1770 005a 39       		.uleb128 0x39
 1771 005b 0B       		.uleb128 0xb
 1772 005c 01       		.uleb128 0x1
 1773 005d 13       		.uleb128 0x13
 1774 005e 00       		.byte	0
 1775 005f 00       		.byte	0
 1776 0060 09       		.uleb128 0x9
 1777 0061 0D       		.uleb128 0xd
 1778 0062 00       		.byte	0
 1779 0063 03       		.uleb128 0x3
 1780 0064 08       		.uleb128 0x8
 1781 0065 3A       		.uleb128 0x3a
 1782 0066 0B       		.uleb128 0xb
 1783 0067 3B       		.uleb128 0x3b
 1784 0068 05       		.uleb128 0x5
 1785 0069 39       		.uleb128 0x39
 1786 006a 0B       		.uleb128 0xb
 1787 006b 49       		.uleb128 0x49
 1788 006c 13       		.uleb128 0x13
 1789 006d 38       		.uleb128 0x38
 1790 006e 0B       		.uleb128 0xb
 1791 006f 00       		.byte	0
 1792 0070 00       		.byte	0
 1793 0071 0A       		.uleb128 0xa
 1794 0072 0D       		.uleb128 0xd
 1795 0073 00       		.byte	0
 1796 0074 03       		.uleb128 0x3
 1797 0075 0E       		.uleb128 0xe
 1798 0076 3A       		.uleb128 0x3a
 1799 0077 0B       		.uleb128 0xb
 1800 0078 3B       		.uleb128 0x3b
 1801 0079 05       		.uleb128 0x5
 1802 007a 39       		.uleb128 0x39
 1803 007b 0B       		.uleb128 0xb
 1804 007c 49       		.uleb128 0x49
 1805 007d 13       		.uleb128 0x13
 1806 007e 38       		.uleb128 0x38
 1807 007f 0B       		.uleb128 0xb
 1808 0080 00       		.byte	0
 1809 0081 00       		.byte	0
 1810 0082 0B       		.uleb128 0xb
 1811 0083 16       		.uleb128 0x16
 1812 0084 00       		.byte	0
 1813 0085 03       		.uleb128 0x3
 1814 0086 0E       		.uleb128 0xe
 1815 0087 3A       		.uleb128 0x3a
 1816 0088 0B       		.uleb128 0xb
 1817 0089 3B       		.uleb128 0x3b
 1818 008a 05       		.uleb128 0x5
 1819 008b 39       		.uleb128 0x39
 1820 008c 0B       		.uleb128 0xb
 1821 008d 49       		.uleb128 0x49
 1822 008e 13       		.uleb128 0x13
 1823 008f 00       		.byte	0
 1824 0090 00       		.byte	0
ARM GAS  /tmp/ccXGWUfY.s 			page 33


 1825 0091 0C       		.uleb128 0xc
 1826 0092 13       		.uleb128 0x13
 1827 0093 01       		.byte	0x1
 1828 0094 0B       		.uleb128 0xb
 1829 0095 0B       		.uleb128 0xb
 1830 0096 3A       		.uleb128 0x3a
 1831 0097 0B       		.uleb128 0xb
 1832 0098 3B       		.uleb128 0x3b
 1833 0099 0B       		.uleb128 0xb
 1834 009a 39       		.uleb128 0x39
 1835 009b 0B       		.uleb128 0xb
 1836 009c 01       		.uleb128 0x1
 1837 009d 13       		.uleb128 0x13
 1838 009e 00       		.byte	0
 1839 009f 00       		.byte	0
 1840 00a0 0D       		.uleb128 0xd
 1841 00a1 0D       		.uleb128 0xd
 1842 00a2 00       		.byte	0
 1843 00a3 03       		.uleb128 0x3
 1844 00a4 08       		.uleb128 0x8
 1845 00a5 3A       		.uleb128 0x3a
 1846 00a6 0B       		.uleb128 0xb
 1847 00a7 3B       		.uleb128 0x3b
 1848 00a8 0B       		.uleb128 0xb
 1849 00a9 39       		.uleb128 0x39
 1850 00aa 0B       		.uleb128 0xb
 1851 00ab 49       		.uleb128 0x49
 1852 00ac 13       		.uleb128 0x13
 1853 00ad 38       		.uleb128 0x38
 1854 00ae 0B       		.uleb128 0xb
 1855 00af 00       		.byte	0
 1856 00b0 00       		.byte	0
 1857 00b1 0E       		.uleb128 0xe
 1858 00b2 0D       		.uleb128 0xd
 1859 00b3 00       		.byte	0
 1860 00b4 03       		.uleb128 0x3
 1861 00b5 0E       		.uleb128 0xe
 1862 00b6 3A       		.uleb128 0x3a
 1863 00b7 0B       		.uleb128 0xb
 1864 00b8 3B       		.uleb128 0x3b
 1865 00b9 0B       		.uleb128 0xb
 1866 00ba 39       		.uleb128 0x39
 1867 00bb 0B       		.uleb128 0xb
 1868 00bc 49       		.uleb128 0x49
 1869 00bd 13       		.uleb128 0x13
 1870 00be 38       		.uleb128 0x38
 1871 00bf 0B       		.uleb128 0xb
 1872 00c0 00       		.byte	0
 1873 00c1 00       		.byte	0
 1874 00c2 0F       		.uleb128 0xf
 1875 00c3 17       		.uleb128 0x17
 1876 00c4 01       		.byte	0x1
 1877 00c5 0B       		.uleb128 0xb
 1878 00c6 0B       		.uleb128 0xb
 1879 00c7 3A       		.uleb128 0x3a
 1880 00c8 0B       		.uleb128 0xb
 1881 00c9 3B       		.uleb128 0x3b
ARM GAS  /tmp/ccXGWUfY.s 			page 34


 1882 00ca 0B       		.uleb128 0xb
 1883 00cb 39       		.uleb128 0x39
 1884 00cc 0B       		.uleb128 0xb
 1885 00cd 01       		.uleb128 0x1
 1886 00ce 13       		.uleb128 0x13
 1887 00cf 00       		.byte	0
 1888 00d0 00       		.byte	0
 1889 00d1 10       		.uleb128 0x10
 1890 00d2 0D       		.uleb128 0xd
 1891 00d3 00       		.byte	0
 1892 00d4 03       		.uleb128 0x3
 1893 00d5 08       		.uleb128 0x8
 1894 00d6 3A       		.uleb128 0x3a
 1895 00d7 0B       		.uleb128 0xb
 1896 00d8 3B       		.uleb128 0x3b
 1897 00d9 0B       		.uleb128 0xb
 1898 00da 39       		.uleb128 0x39
 1899 00db 0B       		.uleb128 0xb
 1900 00dc 49       		.uleb128 0x49
 1901 00dd 13       		.uleb128 0x13
 1902 00de 00       		.byte	0
 1903 00df 00       		.byte	0
 1904 00e0 11       		.uleb128 0x11
 1905 00e1 26       		.uleb128 0x26
 1906 00e2 00       		.byte	0
 1907 00e3 49       		.uleb128 0x49
 1908 00e4 13       		.uleb128 0x13
 1909 00e5 00       		.byte	0
 1910 00e6 00       		.byte	0
 1911 00e7 12       		.uleb128 0x12
 1912 00e8 0F       		.uleb128 0xf
 1913 00e9 00       		.byte	0
 1914 00ea 0B       		.uleb128 0xb
 1915 00eb 0B       		.uleb128 0xb
 1916 00ec 49       		.uleb128 0x49
 1917 00ed 13       		.uleb128 0x13
 1918 00ee 00       		.byte	0
 1919 00ef 00       		.byte	0
 1920 00f0 13       		.uleb128 0x13
 1921 00f1 2E       		.uleb128 0x2e
 1922 00f2 01       		.byte	0x1
 1923 00f3 3F       		.uleb128 0x3f
 1924 00f4 19       		.uleb128 0x19
 1925 00f5 03       		.uleb128 0x3
 1926 00f6 0E       		.uleb128 0xe
 1927 00f7 3A       		.uleb128 0x3a
 1928 00f8 0B       		.uleb128 0xb
 1929 00f9 3B       		.uleb128 0x3b
 1930 00fa 0B       		.uleb128 0xb
 1931 00fb 39       		.uleb128 0x39
 1932 00fc 0B       		.uleb128 0xb
 1933 00fd 27       		.uleb128 0x27
 1934 00fe 19       		.uleb128 0x19
 1935 00ff 11       		.uleb128 0x11
 1936 0100 01       		.uleb128 0x1
 1937 0101 12       		.uleb128 0x12
 1938 0102 06       		.uleb128 0x6
ARM GAS  /tmp/ccXGWUfY.s 			page 35


 1939 0103 40       		.uleb128 0x40
 1940 0104 18       		.uleb128 0x18
 1941 0105 9742     		.uleb128 0x2117
 1942 0107 19       		.uleb128 0x19
 1943 0108 01       		.uleb128 0x1
 1944 0109 13       		.uleb128 0x13
 1945 010a 00       		.byte	0
 1946 010b 00       		.byte	0
 1947 010c 14       		.uleb128 0x14
 1948 010d 05       		.uleb128 0x5
 1949 010e 00       		.byte	0
 1950 010f 03       		.uleb128 0x3
 1951 0110 0E       		.uleb128 0xe
 1952 0111 3A       		.uleb128 0x3a
 1953 0112 0B       		.uleb128 0xb
 1954 0113 3B       		.uleb128 0x3b
 1955 0114 0B       		.uleb128 0xb
 1956 0115 39       		.uleb128 0x39
 1957 0116 0B       		.uleb128 0xb
 1958 0117 49       		.uleb128 0x49
 1959 0118 13       		.uleb128 0x13
 1960 0119 02       		.uleb128 0x2
 1961 011a 18       		.uleb128 0x18
 1962 011b 00       		.byte	0
 1963 011c 00       		.byte	0
 1964 011d 15       		.uleb128 0x15
 1965 011e 05       		.uleb128 0x5
 1966 011f 00       		.byte	0
 1967 0120 03       		.uleb128 0x3
 1968 0121 0E       		.uleb128 0xe
 1969 0122 3A       		.uleb128 0x3a
 1970 0123 0B       		.uleb128 0xb
 1971 0124 3B       		.uleb128 0x3b
 1972 0125 0B       		.uleb128 0xb
 1973 0126 39       		.uleb128 0x39
 1974 0127 0B       		.uleb128 0xb
 1975 0128 49       		.uleb128 0x49
 1976 0129 13       		.uleb128 0x13
 1977 012a 02       		.uleb128 0x2
 1978 012b 17       		.uleb128 0x17
 1979 012c B742     		.uleb128 0x2137
 1980 012e 17       		.uleb128 0x17
 1981 012f 00       		.byte	0
 1982 0130 00       		.byte	0
 1983 0131 16       		.uleb128 0x16
 1984 0132 34       		.uleb128 0x34
 1985 0133 00       		.byte	0
 1986 0134 03       		.uleb128 0x3
 1987 0135 0E       		.uleb128 0xe
 1988 0136 3A       		.uleb128 0x3a
 1989 0137 0B       		.uleb128 0xb
 1990 0138 3B       		.uleb128 0x3b
 1991 0139 0B       		.uleb128 0xb
 1992 013a 39       		.uleb128 0x39
 1993 013b 0B       		.uleb128 0xb
 1994 013c 49       		.uleb128 0x49
 1995 013d 13       		.uleb128 0x13
ARM GAS  /tmp/ccXGWUfY.s 			page 36


 1996 013e 02       		.uleb128 0x2
 1997 013f 17       		.uleb128 0x17
 1998 0140 B742     		.uleb128 0x2137
 1999 0142 17       		.uleb128 0x17
 2000 0143 00       		.byte	0
 2001 0144 00       		.byte	0
 2002 0145 17       		.uleb128 0x17
 2003 0146 34       		.uleb128 0x34
 2004 0147 00       		.byte	0
 2005 0148 03       		.uleb128 0x3
 2006 0149 08       		.uleb128 0x8
 2007 014a 3A       		.uleb128 0x3a
 2008 014b 0B       		.uleb128 0xb
 2009 014c 3B       		.uleb128 0x3b
 2010 014d 0B       		.uleb128 0xb
 2011 014e 39       		.uleb128 0x39
 2012 014f 0B       		.uleb128 0xb
 2013 0150 49       		.uleb128 0x49
 2014 0151 13       		.uleb128 0x13
 2015 0152 02       		.uleb128 0x2
 2016 0153 17       		.uleb128 0x17
 2017 0154 B742     		.uleb128 0x2137
 2018 0156 17       		.uleb128 0x17
 2019 0157 00       		.byte	0
 2020 0158 00       		.byte	0
 2021 0159 18       		.uleb128 0x18
 2022 015a 0B       		.uleb128 0xb
 2023 015b 01       		.byte	0x1
 2024 015c 55       		.uleb128 0x55
 2025 015d 17       		.uleb128 0x17
 2026 015e 00       		.byte	0
 2027 015f 00       		.byte	0
 2028 0160 19       		.uleb128 0x19
 2029 0161 1D       		.uleb128 0x1d
 2030 0162 01       		.byte	0x1
 2031 0163 31       		.uleb128 0x31
 2032 0164 13       		.uleb128 0x13
 2033 0165 52       		.uleb128 0x52
 2034 0166 01       		.uleb128 0x1
 2035 0167 B842     		.uleb128 0x2138
 2036 0169 0B       		.uleb128 0xb
 2037 016a 11       		.uleb128 0x11
 2038 016b 01       		.uleb128 0x1
 2039 016c 12       		.uleb128 0x12
 2040 016d 06       		.uleb128 0x6
 2041 016e 58       		.uleb128 0x58
 2042 016f 0B       		.uleb128 0xb
 2043 0170 59       		.uleb128 0x59
 2044 0171 0B       		.uleb128 0xb
 2045 0172 57       		.uleb128 0x57
 2046 0173 0B       		.uleb128 0xb
 2047 0174 01       		.uleb128 0x1
 2048 0175 13       		.uleb128 0x13
 2049 0176 00       		.byte	0
 2050 0177 00       		.byte	0
 2051 0178 1A       		.uleb128 0x1a
 2052 0179 05       		.uleb128 0x5
ARM GAS  /tmp/ccXGWUfY.s 			page 37


 2053 017a 00       		.byte	0
 2054 017b 31       		.uleb128 0x31
 2055 017c 13       		.uleb128 0x13
 2056 017d 02       		.uleb128 0x2
 2057 017e 17       		.uleb128 0x17
 2058 017f B742     		.uleb128 0x2137
 2059 0181 17       		.uleb128 0x17
 2060 0182 00       		.byte	0
 2061 0183 00       		.byte	0
 2062 0184 1B       		.uleb128 0x1b
 2063 0185 1D       		.uleb128 0x1d
 2064 0186 01       		.byte	0x1
 2065 0187 31       		.uleb128 0x31
 2066 0188 13       		.uleb128 0x13
 2067 0189 52       		.uleb128 0x52
 2068 018a 01       		.uleb128 0x1
 2069 018b B842     		.uleb128 0x2138
 2070 018d 0B       		.uleb128 0xb
 2071 018e 55       		.uleb128 0x55
 2072 018f 17       		.uleb128 0x17
 2073 0190 58       		.uleb128 0x58
 2074 0191 0B       		.uleb128 0xb
 2075 0192 59       		.uleb128 0x59
 2076 0193 0B       		.uleb128 0xb
 2077 0194 57       		.uleb128 0x57
 2078 0195 0B       		.uleb128 0xb
 2079 0196 01       		.uleb128 0x1
 2080 0197 13       		.uleb128 0x13
 2081 0198 00       		.byte	0
 2082 0199 00       		.byte	0
 2083 019a 1C       		.uleb128 0x1c
 2084 019b 1D       		.uleb128 0x1d
 2085 019c 01       		.byte	0x1
 2086 019d 31       		.uleb128 0x31
 2087 019e 13       		.uleb128 0x13
 2088 019f 52       		.uleb128 0x52
 2089 01a0 01       		.uleb128 0x1
 2090 01a1 B842     		.uleb128 0x2138
 2091 01a3 0B       		.uleb128 0xb
 2092 01a4 11       		.uleb128 0x11
 2093 01a5 01       		.uleb128 0x1
 2094 01a6 12       		.uleb128 0x12
 2095 01a7 06       		.uleb128 0x6
 2096 01a8 58       		.uleb128 0x58
 2097 01a9 0B       		.uleb128 0xb
 2098 01aa 59       		.uleb128 0x59
 2099 01ab 0B       		.uleb128 0xb
 2100 01ac 57       		.uleb128 0x57
 2101 01ad 0B       		.uleb128 0xb
 2102 01ae 00       		.byte	0
 2103 01af 00       		.byte	0
 2104 01b0 1D       		.uleb128 0x1d
 2105 01b1 2E       		.uleb128 0x2e
 2106 01b2 01       		.byte	0x1
 2107 01b3 03       		.uleb128 0x3
 2108 01b4 0E       		.uleb128 0xe
 2109 01b5 3A       		.uleb128 0x3a
ARM GAS  /tmp/ccXGWUfY.s 			page 38


 2110 01b6 0B       		.uleb128 0xb
 2111 01b7 3B       		.uleb128 0x3b
 2112 01b8 0B       		.uleb128 0xb
 2113 01b9 39       		.uleb128 0x39
 2114 01ba 0B       		.uleb128 0xb
 2115 01bb 27       		.uleb128 0x27
 2116 01bc 19       		.uleb128 0x19
 2117 01bd 20       		.uleb128 0x20
 2118 01be 0B       		.uleb128 0xb
 2119 01bf 01       		.uleb128 0x1
 2120 01c0 13       		.uleb128 0x13
 2121 01c1 00       		.byte	0
 2122 01c2 00       		.byte	0
 2123 01c3 1E       		.uleb128 0x1e
 2124 01c4 05       		.uleb128 0x5
 2125 01c5 00       		.byte	0
 2126 01c6 03       		.uleb128 0x3
 2127 01c7 0E       		.uleb128 0xe
 2128 01c8 3A       		.uleb128 0x3a
 2129 01c9 0B       		.uleb128 0xb
 2130 01ca 3B       		.uleb128 0x3b
 2131 01cb 0B       		.uleb128 0xb
 2132 01cc 39       		.uleb128 0x39
 2133 01cd 0B       		.uleb128 0xb
 2134 01ce 49       		.uleb128 0x49
 2135 01cf 13       		.uleb128 0x13
 2136 01d0 00       		.byte	0
 2137 01d1 00       		.byte	0
 2138 01d2 00       		.byte	0
 2139              		.section	.debug_loc,"",%progbits
 2140              	.Ldebug_loc0:
 2141              	.LVUS18:
 2142 0000 00       		.uleb128 0
 2143 0001 02       		.uleb128 .LVU260
 2144 0002 02       		.uleb128 .LVU260
 2145 0003 00       		.uleb128 .LVU262
 2146 0004 00       		.uleb128 .LVU262
 2147 0005 00       		.uleb128 .LVU263
 2148 0006 01       		.uleb128 .LVU274
 2149 0007 00       		.uleb128 .LVU319
 2150 0008 00       		.uleb128 .LVU324
 2151 0009 00       		.uleb128 0
 2152              	.LLST18:
 2153 000a 00000000 		.4byte	.LVL11
 2154 000e 42000000 		.4byte	.LVL20
 2155 0012 0100     		.2byte	0x1
 2156 0014 51       		.byte	0x51
 2157 0015 42000000 		.4byte	.LVL20
 2158 0019 44000000 		.4byte	.LVL21
 2159 001d 0500     		.2byte	0x5
 2160 001f 71       		.byte	0x71
 2161 0020 00       		.sleb128 0
 2162 0021 31       		.byte	0x31
 2163 0022 25       		.byte	0x25
 2164 0023 9F       		.byte	0x9f
 2165 0024 44000000 		.4byte	.LVL21
 2166 0028 46000000 		.4byte	.LVL22
ARM GAS  /tmp/ccXGWUfY.s 			page 39


 2167 002c 0100     		.2byte	0x1
 2168 002e 51       		.byte	0x51
 2169 002f 54000000 		.4byte	.LVL27
 2170 0033 BA000000 		.4byte	.LVL33
 2171 0037 0100     		.2byte	0x1
 2172 0039 51       		.byte	0x51
 2173 003a C2000000 		.4byte	.LVL35
 2174 003e E0000000 		.4byte	.LFE279
 2175 0042 0100     		.2byte	0x1
 2176 0044 51       		.byte	0x51
 2177 0045 00000000 		.4byte	0
 2178 0049 00000000 		.4byte	0
 2179              	.LVUS19:
 2180 004d 00       		.uleb128 0
 2181 004e 00       		.uleb128 .LVU243
 2182 004f 00       		.uleb128 .LVU243
 2183 0050 00       		.uleb128 0
 2184              	.LLST19:
 2185 0051 00000000 		.4byte	.LVL11
 2186 0055 1C000000 		.4byte	.LVL16
 2187 0059 0100     		.2byte	0x1
 2188 005b 52       		.byte	0x52
 2189 005c 1C000000 		.4byte	.LVL16
 2190 0060 E0000000 		.4byte	.LFE279
 2191 0064 0400     		.2byte	0x4
 2192 0066 F3       		.byte	0xf3
 2193 0067 01       		.uleb128 0x1
 2194 0068 52       		.byte	0x52
 2195 0069 9F       		.byte	0x9f
 2196 006a 00000000 		.4byte	0
 2197 006e 00000000 		.4byte	0
 2198              	.LVUS20:
 2199 0072 00       		.uleb128 .LVU232
 2200 0073 00       		.uleb128 .LVU245
 2201 0074 00       		.uleb128 .LVU245
 2202 0075 00       		.uleb128 0
 2203              	.LLST20:
 2204 0076 08000000 		.4byte	.LVL12
 2205 007a 24000000 		.4byte	.LVL17
 2206 007e 0100     		.2byte	0x1
 2207 0080 59       		.byte	0x59
 2208 0081 24000000 		.4byte	.LVL17
 2209 0085 E0000000 		.4byte	.LFE279
 2210 0089 0100     		.2byte	0x1
 2211 008b 5E       		.byte	0x5e
 2212 008c 00000000 		.4byte	0
 2213 0090 00000000 		.4byte	0
 2214              	.LVUS21:
 2215 0094 00       		.uleb128 .LVU235
 2216 0095 00       		.uleb128 0
 2217              	.LLST21:
 2218 0096 10000000 		.4byte	.LVL13
 2219 009a E0000000 		.4byte	.LFE279
 2220 009e 0100     		.2byte	0x1
 2221 00a0 56       		.byte	0x56
 2222 00a1 00000000 		.4byte	0
 2223 00a5 00000000 		.4byte	0
ARM GAS  /tmp/ccXGWUfY.s 			page 40


 2224              	.LVUS22:
 2225 00a9 00       		.uleb128 .LVU237
 2226 00aa 00       		.uleb128 0
 2227              	.LLST22:
 2228 00ab 14000000 		.4byte	.LVL14
 2229 00af E0000000 		.4byte	.LFE279
 2230 00b3 0100     		.2byte	0x1
 2231 00b5 55       		.byte	0x55
 2232 00b6 00000000 		.4byte	0
 2233 00ba 00000000 		.4byte	0
 2234              	.LVUS23:
 2235 00be 01       		.uleb128 .LVU238
 2236 00bf 00       		.uleb128 .LVU245
 2237 00c0 00       		.uleb128 .LVU245
 2238 00c1 00       		.uleb128 0
 2239              	.LLST23:
 2240 00c2 14000000 		.4byte	.LVL14
 2241 00c6 24000000 		.4byte	.LVL17
 2242 00ca 0100     		.2byte	0x1
 2243 00cc 54       		.byte	0x54
 2244 00cd 24000000 		.4byte	.LVL17
 2245 00d1 E0000000 		.4byte	.LFE279
 2246 00d5 0100     		.2byte	0x1
 2247 00d7 58       		.byte	0x58
 2248 00d8 00000000 		.4byte	0
 2249 00dc 00000000 		.4byte	0
 2250              	.LVUS24:
 2251 00e0 00       		.uleb128 .LVU240
 2252 00e1 00       		.uleb128 0
 2253              	.LLST24:
 2254 00e2 18000000 		.4byte	.LVL15
 2255 00e6 E0000000 		.4byte	.LFE279
 2256 00ea 0100     		.2byte	0x1
 2257 00ec 57       		.byte	0x57
 2258 00ed 00000000 		.4byte	0
 2259 00f1 00000000 		.4byte	0
 2260              	.LVUS25:
 2261 00f5 01       		.uleb128 .LVU241
 2262 00f6 00       		.uleb128 .LVU245
 2263 00f7 00       		.uleb128 .LVU245
 2264 00f8 00       		.uleb128 0
 2265              	.LLST25:
 2266 00f9 18000000 		.4byte	.LVL15
 2267 00fd 24000000 		.4byte	.LVL17
 2268 0101 0200     		.2byte	0x2
 2269 0103 30       		.byte	0x30
 2270 0104 9F       		.byte	0x9f
 2271 0105 24000000 		.4byte	.LVL17
 2272 0109 E0000000 		.4byte	.LFE279
 2273 010d 0100     		.2byte	0x1
 2274 010f 52       		.byte	0x52
 2275 0110 00000000 		.4byte	0
 2276 0114 00000000 		.4byte	0
 2277              	.LVUS26:
 2278 0118 00       		.uleb128 .LVU245
 2279 0119 00       		.uleb128 .LVU258
 2280 011a 00       		.uleb128 .LVU297
ARM GAS  /tmp/ccXGWUfY.s 			page 41


 2281 011b 00       		.uleb128 .LVU323
 2282 011c 00       		.uleb128 .LVU324
 2283 011d 00       		.uleb128 0
 2284              	.LLST26:
 2285 011e 24000000 		.4byte	.LVL17
 2286 0122 42000000 		.4byte	.LVL20
 2287 0126 0100     		.2byte	0x1
 2288 0128 5C       		.byte	0x5c
 2289 0129 94000000 		.4byte	.LVL28
 2290 012d BE000000 		.4byte	.LVL34
 2291 0131 0100     		.2byte	0x1
 2292 0133 5C       		.byte	0x5c
 2293 0134 C2000000 		.4byte	.LVL35
 2294 0138 E0000000 		.4byte	.LFE279
 2295 013c 0100     		.2byte	0x1
 2296 013e 5C       		.byte	0x5c
 2297 013f 00000000 		.4byte	0
 2298 0143 00000000 		.4byte	0
 2299              	.LVUS27:
 2300 0147 00       		.uleb128 .LVU245
 2301 0148 00       		.uleb128 .LVU258
 2302 0149 01       		.uleb128 .LVU298
 2303 014a 00       		.uleb128 .LVU323
 2304 014b 00       		.uleb128 .LVU324
 2305 014c 00       		.uleb128 0
 2306              	.LLST27:
 2307 014d 24000000 		.4byte	.LVL17
 2308 0151 42000000 		.4byte	.LVL20
 2309 0155 0500     		.2byte	0x5
 2310 0157 31       		.byte	0x31
 2311 0158 72       		.byte	0x72
 2312 0159 00       		.sleb128 0
 2313 015a 24       		.byte	0x24
 2314 015b 9F       		.byte	0x9f
 2315 015c 94000000 		.4byte	.LVL28
 2316 0160 BE000000 		.4byte	.LVL34
 2317 0164 0500     		.2byte	0x5
 2318 0166 31       		.byte	0x31
 2319 0167 72       		.byte	0x72
 2320 0168 00       		.sleb128 0
 2321 0169 24       		.byte	0x24
 2322 016a 9F       		.byte	0x9f
 2323 016b C2000000 		.4byte	.LVL35
 2324 016f E0000000 		.4byte	.LFE279
 2325 0173 0500     		.2byte	0x5
 2326 0175 31       		.byte	0x31
 2327 0176 72       		.byte	0x72
 2328 0177 00       		.sleb128 0
 2329 0178 24       		.byte	0x24
 2330 0179 9F       		.byte	0x9f
 2331 017a 00000000 		.4byte	0
 2332 017e 00000000 		.4byte	0
 2333              	.LVUS28:
 2334 0182 00       		.uleb128 .LVU245
 2335 0183 00       		.uleb128 .LVU248
 2336 0184 00       		.uleb128 .LVU248
 2337 0185 00       		.uleb128 .LVU258
ARM GAS  /tmp/ccXGWUfY.s 			page 42


 2338 0186 02       		.uleb128 .LVU299
 2339 0187 00       		.uleb128 .LVU301
 2340 0188 00       		.uleb128 .LVU301
 2341 0189 00       		.uleb128 .LVU317
 2342 018a 00       		.uleb128 .LVU317
 2343 018b 00       		.uleb128 .LVU323
 2344 018c 00       		.uleb128 .LVU324
 2345 018d 00       		.uleb128 .LVU329
 2346 018e 00       		.uleb128 .LVU329
 2347 018f 00       		.uleb128 0
 2348              	.LLST28:
 2349 0190 24000000 		.4byte	.LVL17
 2350 0194 2C000000 		.4byte	.LVL18
 2351 0198 0400     		.2byte	0x4
 2352 019a 73       		.byte	0x73
 2353 019b 00       		.sleb128 0
 2354 019c 20       		.byte	0x20
 2355 019d 9F       		.byte	0x9f
 2356 019e 2C000000 		.4byte	.LVL18
 2357 01a2 42000000 		.4byte	.LVL20
 2358 01a6 0700     		.2byte	0x7
 2359 01a8 33       		.byte	0x33
 2360 01a9 72       		.byte	0x72
 2361 01aa 00       		.sleb128 0
 2362 01ab 31       		.byte	0x31
 2363 01ac 24       		.byte	0x24
 2364 01ad 24       		.byte	0x24
 2365 01ae 9F       		.byte	0x9f
 2366 01af 94000000 		.4byte	.LVL28
 2367 01b3 98000000 		.4byte	.LVL29
 2368 01b7 0100     		.2byte	0x1
 2369 01b9 53       		.byte	0x53
 2370 01ba 98000000 		.4byte	.LVL29
 2371 01be B4000000 		.4byte	.LVL32
 2372 01c2 0400     		.2byte	0x4
 2373 01c4 73       		.byte	0x73
 2374 01c5 00       		.sleb128 0
 2375 01c6 20       		.byte	0x20
 2376 01c7 9F       		.byte	0x9f
 2377 01c8 B4000000 		.4byte	.LVL32
 2378 01cc BE000000 		.4byte	.LVL34
 2379 01d0 0700     		.2byte	0x7
 2380 01d2 33       		.byte	0x33
 2381 01d3 72       		.byte	0x72
 2382 01d4 00       		.sleb128 0
 2383 01d5 31       		.byte	0x31
 2384 01d6 24       		.byte	0x24
 2385 01d7 24       		.byte	0x24
 2386 01d8 9F       		.byte	0x9f
 2387 01d9 C2000000 		.4byte	.LVL35
 2388 01dd D0000000 		.4byte	.LVL37
 2389 01e1 0700     		.2byte	0x7
 2390 01e3 33       		.byte	0x33
 2391 01e4 72       		.byte	0x72
 2392 01e5 00       		.sleb128 0
 2393 01e6 31       		.byte	0x31
 2394 01e7 24       		.byte	0x24
ARM GAS  /tmp/ccXGWUfY.s 			page 43


 2395 01e8 24       		.byte	0x24
 2396 01e9 9F       		.byte	0x9f
 2397 01ea D0000000 		.4byte	.LVL37
 2398 01ee E0000000 		.4byte	.LFE279
 2399 01f2 0400     		.2byte	0x4
 2400 01f4 73       		.byte	0x73
 2401 01f5 00       		.sleb128 0
 2402 01f6 20       		.byte	0x20
 2403 01f7 9F       		.byte	0x9f
 2404 01f8 00000000 		.4byte	0
 2405 01fc 00000000 		.4byte	0
 2406              	.LVUS29:
 2407 0200 00       		.uleb128 .LVU245
 2408 0201 00       		.uleb128 .LVU256
 2409 0202 00       		.uleb128 .LVU256
 2410 0203 00       		.uleb128 .LVU258
 2411 0204 00       		.uleb128 .LVU302
 2412 0205 00       		.uleb128 .LVU312
 2413 0206 00       		.uleb128 .LVU312
 2414 0207 00       		.uleb128 .LVU323
 2415 0208 00       		.uleb128 .LVU324
 2416 0209 00       		.uleb128 .LVU327
 2417 020a 00       		.uleb128 .LVU327
 2418 020b 00       		.uleb128 .LVU329
 2419 020c 00       		.uleb128 .LVU329
 2420 020d 00       		.uleb128 .LVU332
 2421 020e 00       		.uleb128 .LVU332
 2422 020f 00       		.uleb128 0
 2423              	.LLST29:
 2424 0210 24000000 		.4byte	.LVL17
 2425 0214 3C000000 		.4byte	.LVL19
 2426 0218 0100     		.2byte	0x1
 2427 021a 54       		.byte	0x54
 2428 021b 3C000000 		.4byte	.LVL19
 2429 021f 42000000 		.4byte	.LVL20
 2430 0223 0A00     		.2byte	0xa
 2431 0225 7B       		.byte	0x7b
 2432 0226 00       		.sleb128 0
 2433 0227 72       		.byte	0x72
 2434 0228 00       		.sleb128 0
 2435 0229 37       		.byte	0x37
 2436 022a 1A       		.byte	0x1a
 2437 022b 32       		.byte	0x32
 2438 022c 24       		.byte	0x24
 2439 022d 24       		.byte	0x24
 2440 022e 9F       		.byte	0x9f
 2441 022f 9C000000 		.4byte	.LVL30
 2442 0233 AA000000 		.4byte	.LVL31
 2443 0237 0100     		.2byte	0x1
 2444 0239 54       		.byte	0x54
 2445 023a AA000000 		.4byte	.LVL31
 2446 023e BE000000 		.4byte	.LVL34
 2447 0242 0A00     		.2byte	0xa
 2448 0244 7B       		.byte	0x7b
 2449 0245 00       		.sleb128 0
 2450 0246 72       		.byte	0x72
 2451 0247 00       		.sleb128 0
ARM GAS  /tmp/ccXGWUfY.s 			page 44


 2452 0248 37       		.byte	0x37
 2453 0249 1A       		.byte	0x1a
 2454 024a 32       		.byte	0x32
 2455 024b 24       		.byte	0x24
 2456 024c 24       		.byte	0x24
 2457 024d 9F       		.byte	0x9f
 2458 024e C2000000 		.4byte	.LVL35
 2459 0252 C8000000 		.4byte	.LVL36
 2460 0256 0100     		.2byte	0x1
 2461 0258 54       		.byte	0x54
 2462 0259 C8000000 		.4byte	.LVL36
 2463 025d D0000000 		.4byte	.LVL37
 2464 0261 0A00     		.2byte	0xa
 2465 0263 7B       		.byte	0x7b
 2466 0264 00       		.sleb128 0
 2467 0265 72       		.byte	0x72
 2468 0266 00       		.sleb128 0
 2469 0267 37       		.byte	0x37
 2470 0268 1A       		.byte	0x1a
 2471 0269 32       		.byte	0x32
 2472 026a 24       		.byte	0x24
 2473 026b 24       		.byte	0x24
 2474 026c 9F       		.byte	0x9f
 2475 026d D0000000 		.4byte	.LVL37
 2476 0271 D8000000 		.4byte	.LVL38
 2477 0275 0100     		.2byte	0x1
 2478 0277 54       		.byte	0x54
 2479 0278 D8000000 		.4byte	.LVL38
 2480 027c E0000000 		.4byte	.LFE279
 2481 0280 0A00     		.2byte	0xa
 2482 0282 7B       		.byte	0x7b
 2483 0283 00       		.sleb128 0
 2484 0284 72       		.byte	0x72
 2485 0285 00       		.sleb128 0
 2486 0286 37       		.byte	0x37
 2487 0287 1A       		.byte	0x1a
 2488 0288 32       		.byte	0x32
 2489 0289 24       		.byte	0x24
 2490 028a 24       		.byte	0x24
 2491 028b 9F       		.byte	0x9f
 2492 028c 00000000 		.4byte	0
 2493 0290 00000000 		.4byte	0
 2494              	.LVUS0:
 2495 0294 01       		.uleb128 .LVU6
 2496 0295 00       		.uleb128 .LVU29
 2497              	.LLST0:
 2498 0296 16000000 		.4byte	.LVL1
 2499 029a 36000000 		.4byte	.LVL2
 2500 029e 0100     		.2byte	0x1
 2501 02a0 50       		.byte	0x50
 2502 02a1 00000000 		.4byte	0
 2503 02a5 00000000 		.4byte	0
 2504              	.LVUS1:
 2505 02a9 01       		.uleb128 .LVU6
 2506 02aa 00       		.uleb128 .LVU29
 2507              	.LLST1:
 2508 02ab 16000000 		.4byte	.LVL1
ARM GAS  /tmp/ccXGWUfY.s 			page 45


 2509 02af 36000000 		.4byte	.LVL2
 2510 02b3 0600     		.2byte	0x6
 2511 02b5 0C       		.byte	0xc
 2512 02b6 00000240 		.4byte	0x40020000
 2513 02ba 9F       		.byte	0x9f
 2514 02bb 00000000 		.4byte	0
 2515 02bf 00000000 		.4byte	0
 2516              	.LVUS2:
 2517 02c3 02       		.uleb128 .LVU31
 2518 02c4 00       		.uleb128 .LVU55
 2519              	.LLST2:
 2520 02c5 36000000 		.4byte	.LVL2
 2521 02c9 56000000 		.4byte	.LVL3
 2522 02cd 0300     		.2byte	0x3
 2523 02cf 70       		.byte	0x70
 2524 02d0 1C       		.sleb128 28
 2525 02d1 9F       		.byte	0x9f
 2526 02d2 00000000 		.4byte	0
 2527 02d6 00000000 		.4byte	0
 2528              	.LVUS3:
 2529 02da 02       		.uleb128 .LVU31
 2530 02db 00       		.uleb128 .LVU55
 2531              	.LLST3:
 2532 02dc 36000000 		.4byte	.LVL2
 2533 02e0 56000000 		.4byte	.LVL3
 2534 02e4 0600     		.2byte	0x6
 2535 02e6 0C       		.byte	0xc
 2536 02e7 00040240 		.4byte	0x40020400
 2537 02eb 9F       		.byte	0x9f
 2538 02ec 00000000 		.4byte	0
 2539 02f0 00000000 		.4byte	0
 2540              	.LVUS4:
 2541 02f4 02       		.uleb128 .LVU57
 2542 02f5 00       		.uleb128 .LVU79
 2543              	.LLST4:
 2544 02f6 56000000 		.4byte	.LVL3
 2545 02fa 72000000 		.4byte	.LVL4
 2546 02fe 0300     		.2byte	0x3
 2547 0300 70       		.byte	0x70
 2548 0301 38       		.sleb128 56
 2549 0302 9F       		.byte	0x9f
 2550 0303 00000000 		.4byte	0
 2551 0307 00000000 		.4byte	0
 2552              	.LVUS5:
 2553 030b 02       		.uleb128 .LVU57
 2554 030c 00       		.uleb128 .LVU79
 2555              	.LLST5:
 2556 030d 56000000 		.4byte	.LVL3
 2557 0311 72000000 		.4byte	.LVL4
 2558 0315 0600     		.2byte	0x6
 2559 0317 0C       		.byte	0xc
 2560 0318 00080240 		.4byte	0x40020800
 2561 031c 9F       		.byte	0x9f
 2562 031d 00000000 		.4byte	0
 2563 0321 00000000 		.4byte	0
 2564              	.LVUS6:
 2565 0325 02       		.uleb128 .LVU81
ARM GAS  /tmp/ccXGWUfY.s 			page 46


 2566 0326 00       		.uleb128 .LVU105
 2567              	.LLST6:
 2568 0327 72000000 		.4byte	.LVL4
 2569 032b 92000000 		.4byte	.LVL5
 2570 032f 0400     		.2byte	0x4
 2571 0331 70       		.byte	0x70
 2572 0332 D400     		.sleb128 84
 2573 0334 9F       		.byte	0x9f
 2574 0335 00000000 		.4byte	0
 2575 0339 00000000 		.4byte	0
 2576              	.LVUS7:
 2577 033d 02       		.uleb128 .LVU81
 2578 033e 00       		.uleb128 .LVU105
 2579              	.LLST7:
 2580 033f 72000000 		.4byte	.LVL4
 2581 0343 92000000 		.4byte	.LVL5
 2582 0347 0600     		.2byte	0x6
 2583 0349 0C       		.byte	0xc
 2584 034a 000C0240 		.4byte	0x40020c00
 2585 034e 9F       		.byte	0x9f
 2586 034f 00000000 		.4byte	0
 2587 0353 00000000 		.4byte	0
 2588              	.LVUS8:
 2589 0357 02       		.uleb128 .LVU107
 2590 0358 00       		.uleb128 .LVU129
 2591              	.LLST8:
 2592 0359 92000000 		.4byte	.LVL5
 2593 035d B4000000 		.4byte	.LVL6
 2594 0361 0400     		.2byte	0x4
 2595 0363 70       		.byte	0x70
 2596 0364 F000     		.sleb128 112
 2597 0366 9F       		.byte	0x9f
 2598 0367 00000000 		.4byte	0
 2599 036b 00000000 		.4byte	0
 2600              	.LVUS9:
 2601 036f 02       		.uleb128 .LVU107
 2602 0370 00       		.uleb128 .LVU129
 2603              	.LLST9:
 2604 0371 92000000 		.4byte	.LVL5
 2605 0375 B4000000 		.4byte	.LVL6
 2606 0379 0600     		.2byte	0x6
 2607 037b 0C       		.byte	0xc
 2608 037c 00100240 		.4byte	0x40021000
 2609 0380 9F       		.byte	0x9f
 2610 0381 00000000 		.4byte	0
 2611 0385 00000000 		.4byte	0
 2612              	.LVUS10:
 2613 0389 02       		.uleb128 .LVU131
 2614 038a 00       		.uleb128 .LVU153
 2615              	.LLST10:
 2616 038b B4000000 		.4byte	.LVL6
 2617 038f EC000000 		.4byte	.LVL7
 2618 0393 0400     		.2byte	0x4
 2619 0395 70       		.byte	0x70
 2620 0396 8C01     		.sleb128 140
 2621 0398 9F       		.byte	0x9f
 2622 0399 00000000 		.4byte	0
ARM GAS  /tmp/ccXGWUfY.s 			page 47


 2623 039d 00000000 		.4byte	0
 2624              	.LVUS11:
 2625 03a1 02       		.uleb128 .LVU131
 2626 03a2 00       		.uleb128 .LVU153
 2627              	.LLST11:
 2628 03a3 B4000000 		.4byte	.LVL6
 2629 03a7 EC000000 		.4byte	.LVL7
 2630 03ab 0600     		.2byte	0x6
 2631 03ad 0C       		.byte	0xc
 2632 03ae 00140240 		.4byte	0x40021400
 2633 03b2 9F       		.byte	0x9f
 2634 03b3 00000000 		.4byte	0
 2635 03b7 00000000 		.4byte	0
 2636              	.LVUS12:
 2637 03bb 02       		.uleb128 .LVU155
 2638 03bc 00       		.uleb128 .LVU178
 2639              	.LLST12:
 2640 03bd EC000000 		.4byte	.LVL7
 2641 03c1 1A010000 		.4byte	.LVL8
 2642 03c5 0400     		.2byte	0x4
 2643 03c7 70       		.byte	0x70
 2644 03c8 A801     		.sleb128 168
 2645 03ca 9F       		.byte	0x9f
 2646 03cb 00000000 		.4byte	0
 2647 03cf 00000000 		.4byte	0
 2648              	.LVUS13:
 2649 03d3 02       		.uleb128 .LVU155
 2650 03d4 00       		.uleb128 .LVU178
 2651              	.LLST13:
 2652 03d5 EC000000 		.4byte	.LVL7
 2653 03d9 1A010000 		.4byte	.LVL8
 2654 03dd 0600     		.2byte	0x6
 2655 03df 0C       		.byte	0xc
 2656 03e0 00180240 		.4byte	0x40021800
 2657 03e4 9F       		.byte	0x9f
 2658 03e5 00000000 		.4byte	0
 2659 03e9 00000000 		.4byte	0
 2660              	.LVUS14:
 2661 03ed 02       		.uleb128 .LVU180
 2662 03ee 00       		.uleb128 .LVU202
 2663              	.LLST14:
 2664 03ef 1A010000 		.4byte	.LVL8
 2665 03f3 52010000 		.4byte	.LVL9
 2666 03f7 0400     		.2byte	0x4
 2667 03f9 70       		.byte	0x70
 2668 03fa C401     		.sleb128 196
 2669 03fc 9F       		.byte	0x9f
 2670 03fd 00000000 		.4byte	0
 2671 0401 00000000 		.4byte	0
 2672              	.LVUS15:
 2673 0405 02       		.uleb128 .LVU180
 2674 0406 00       		.uleb128 .LVU202
 2675              	.LLST15:
 2676 0407 1A010000 		.4byte	.LVL8
 2677 040b 52010000 		.4byte	.LVL9
 2678 040f 0600     		.2byte	0x6
 2679 0411 0C       		.byte	0xc
ARM GAS  /tmp/ccXGWUfY.s 			page 48


 2680 0412 001C0240 		.4byte	0x40021c00
 2681 0416 9F       		.byte	0x9f
 2682 0417 00000000 		.4byte	0
 2683 041b 00000000 		.4byte	0
 2684              	.LVUS16:
 2685 041f 02       		.uleb128 .LVU204
 2686 0420 00       		.uleb128 .LVU226
 2687              	.LLST16:
 2688 0421 52010000 		.4byte	.LVL9
 2689 0425 8A010000 		.4byte	.LVL10
 2690 0429 0400     		.2byte	0x4
 2691 042b 70       		.byte	0x70
 2692 042c E001     		.sleb128 224
 2693 042e 9F       		.byte	0x9f
 2694 042f 00000000 		.4byte	0
 2695 0433 00000000 		.4byte	0
 2696              	.LVUS17:
 2697 0437 02       		.uleb128 .LVU204
 2698 0438 00       		.uleb128 .LVU226
 2699              	.LLST17:
 2700 0439 52010000 		.4byte	.LVL9
 2701 043d 8A010000 		.4byte	.LVL10
 2702 0441 0600     		.2byte	0x6
 2703 0443 0C       		.byte	0xc
 2704 0444 00200240 		.4byte	0x40022000
 2705 0448 9F       		.byte	0x9f
 2706 0449 00000000 		.4byte	0
 2707 044d 00000000 		.4byte	0
 2708              		.section	.debug_aranges,"",%progbits
 2709 0000 24000000 		.4byte	0x24
 2710 0004 0200     		.2byte	0x2
 2711 0006 00000000 		.4byte	.Ldebug_info0
 2712 000a 04       		.byte	0x4
 2713 000b 00       		.byte	0
 2714 000c 0000     		.2byte	0
 2715 000e 0000     		.2byte	0
 2716 0010 00000000 		.4byte	.LFB278
 2717 0014 A0010000 		.4byte	.LFE278-.LFB278
 2718 0018 00000000 		.4byte	.LFB279
 2719 001c E0000000 		.4byte	.LFE279-.LFB279
 2720 0020 00000000 		.4byte	0
 2721 0024 00000000 		.4byte	0
 2722              		.section	.debug_ranges,"",%progbits
 2723              	.Ldebug_ranges0:
 2724 0000 36000000 		.4byte	.LBB22
 2725 0004 52000000 		.4byte	.LBE22
 2726 0008 54000000 		.4byte	.LBB28
 2727 000c 56000000 		.4byte	.LBE28
 2728 0010 00000000 		.4byte	0
 2729 0014 00000000 		.4byte	0
 2730 0018 52000000 		.4byte	.LBB25
 2731 001c 54000000 		.4byte	.LBE25
 2732 0020 56000000 		.4byte	.LBB29
 2733 0024 72000000 		.4byte	.LBE29
 2734 0028 00000000 		.4byte	0
 2735 002c 00000000 		.4byte	0
 2736 0030 72000000 		.4byte	.LBB30
ARM GAS  /tmp/ccXGWUfY.s 			page 49


 2737 0034 8E000000 		.4byte	.LBE30
 2738 0038 90000000 		.4byte	.LBB36
 2739 003c 92000000 		.4byte	.LBE36
 2740 0040 00000000 		.4byte	0
 2741 0044 00000000 		.4byte	0
 2742 0048 8E000000 		.4byte	.LBB33
 2743 004c 90000000 		.4byte	.LBE33
 2744 0050 92000000 		.4byte	.LBB37
 2745 0054 B4000000 		.4byte	.LBE37
 2746 0058 00000000 		.4byte	0
 2747 005c 00000000 		.4byte	0
 2748 0060 1C000000 		.4byte	.LBB46
 2749 0064 42000000 		.4byte	.LBE46
 2750 0068 58000000 		.4byte	.LBB47
 2751 006c B8000000 		.4byte	.LBE47
 2752 0070 BA000000 		.4byte	.LBB48
 2753 0074 BC000000 		.4byte	.LBE48
 2754 0078 C2000000 		.4byte	.LBB49
 2755 007c E0000000 		.4byte	.LBE49
 2756 0080 00000000 		.4byte	0
 2757 0084 00000000 		.4byte	0
 2758 0088 00000000 		.4byte	.LFB278
 2759 008c A0010000 		.4byte	.LFE278
 2760 0090 00000000 		.4byte	.LFB279
 2761 0094 E0000000 		.4byte	.LFE279
 2762 0098 00000000 		.4byte	0
 2763 009c 00000000 		.4byte	0
 2764              		.section	.debug_line,"",%progbits
 2765              	.Ldebug_line0:
 2766 0000 9E050000 		.section	.debug_str,"MS",%progbits,1
 2766      0300CD00 
 2766      00000201 
 2766      FB0E0D00 
 2766      01010101 
 2767              	.LASF28:
 2768 0000 41484231 		.ascii	"AHB1LPENR\000"
 2768      4C50454E 
 2768      5200
 2769              	.LASF61:
 2770 000a 50434461 		.ascii	"PCData\000"
 2770      746100
 2771              	.LASF76:
 2772 0011 5F70616C 		.ascii	"_pal_lld_setgroupmode\000"
 2772      5F6C6C64 
 2772      5F736574 
 2772      67726F75 
 2772      706D6F64 
 2773              	.LASF18:
 2774 0027 41504231 		.ascii	"APB1RSTR\000"
 2774      52535452 
 2774      00
 2775              	.LASF22:
 2776 0030 41484232 		.ascii	"AHB2ENR\000"
 2776      454E5200 
 2777              	.LASF58:
 2778 0038 73746D33 		.ascii	"stm32_gpio_setup_t\000"
 2778      325F6770 
ARM GAS  /tmp/ccXGWUfY.s 			page 50


 2778      696F5F73 
 2778      65747570 
 2778      5F7400
 2779              	.LASF64:
 2780 004b 50464461 		.ascii	"PFData\000"
 2780      746100
 2781              	.LASF84:
 2782 0052 696E6974 		.ascii	"initgpio\000"
 2782      6770696F 
 2782      00
 2783              	.LASF4:
 2784 005b 73686F72 		.ascii	"short int\000"
 2784      7420696E 
 2784      7400
 2785              	.LASF51:
 2786 0065 73746D33 		.ascii	"stm32_gpio_t\000"
 2786      325F6770 
 2786      696F5F74 
 2786      00
 2787              	.LASF80:
 2788 0072 6770696F 		.ascii	"gpiop\000"
 2788      7000
 2789              	.LASF35:
 2790 0078 42444352 		.ascii	"BDCR\000"
 2790      00
 2791              	.LASF67:
 2792 007d 50494461 		.ascii	"PIData\000"
 2792      746100
 2793              	.LASF38:
 2794 0084 504C4C49 		.ascii	"PLLI2SCFGR\000"
 2794      32534346 
 2794      475200
 2795              	.LASF77:
 2796 008f 5F70616C 		.ascii	"_pal_lld_init\000"
 2796      5F6C6C64 
 2796      5F696E69 
 2796      7400
 2797              	.LASF37:
 2798 009d 53534347 		.ascii	"SSCGR\000"
 2798      5200
 2799              	.LASF60:
 2800 00a3 50424461 		.ascii	"PBData\000"
 2800      746100
 2801              	.LASF30:
 2802 00aa 41484233 		.ascii	"AHB3LPENR\000"
 2802      4C50454E 
 2802      5200
 2803              	.LASF79:
 2804 00b4 636F6E66 		.ascii	"config\000"
 2804      696700
 2805              	.LASF70:
 2806 00bb 696F6D6F 		.ascii	"iomode_t\000"
 2806      64655F74 
 2806      00
 2807              	.LASF25:
 2808 00c4 41504231 		.ascii	"APB1ENR\000"
 2808      454E5200 
ARM GAS  /tmp/ccXGWUfY.s 			page 51


 2809              	.LASF69:
 2810 00cc 696F706F 		.ascii	"ioportmask_t\000"
 2810      72746D61 
 2810      736B5F74 
 2810      00
 2811              	.LASF44:
 2812 00d9 4F545950 		.ascii	"OTYPER\000"
 2812      455200
 2813              	.LASF3:
 2814 00e0 7369676E 		.ascii	"signed char\000"
 2814      65642063 
 2814      68617200 
 2815              	.LASF82:
 2816 00ec 2E2E2F2E 		.ascii	"../../../os/hal/ports/STM32/LLD/GPIOv2/hal_pal_lld."
 2816      2E2F2E2E 
 2816      2F6F732F 
 2816      68616C2F 
 2816      706F7274 
 2817 011f 6300     		.ascii	"c\000"
 2818              	.LASF23:
 2819 0121 41484233 		.ascii	"AHB3ENR\000"
 2819      454E5200 
 2820              	.LASF45:
 2821 0129 4F535045 		.ascii	"OSPEEDR\000"
 2821      45445200 
 2822              	.LASF1:
 2823 0131 6C6F6E67 		.ascii	"long long int\000"
 2823      206C6F6E 
 2823      6720696E 
 2823      7400
 2824              	.LASF46:
 2825 013f 50555044 		.ascii	"PUPDR\000"
 2825      5200
 2826              	.LASF54:
 2827 0145 6F737065 		.ascii	"ospeedr\000"
 2827      65647200 
 2828              	.LASF5:
 2829 014d 6C6F6E67 		.ascii	"long int\000"
 2829      20696E74 
 2829      00
 2830              	.LASF62:
 2831 0156 50444461 		.ascii	"PDData\000"
 2831      746100
 2832              	.LASF39:
 2833 015d 5243435F 		.ascii	"RCC_TypeDef\000"
 2833      54797065 
 2833      44656600 
 2834              	.LASF43:
 2835 0169 4D4F4445 		.ascii	"MODER\000"
 2835      5200
 2836              	.LASF19:
 2837 016f 41504232 		.ascii	"APB2RSTR\000"
 2837      52535452 
 2837      00
 2838              	.LASF42:
 2839 0178 636C6561 		.ascii	"clear\000"
 2839      7200
ARM GAS  /tmp/ccXGWUfY.s 			page 52


 2840              	.LASF65:
 2841 017e 50474461 		.ascii	"PGData\000"
 2841      746100
 2842              	.LASF59:
 2843 0185 50414461 		.ascii	"PAData\000"
 2843      746100
 2844              	.LASF71:
 2845 018c 696F706F 		.ascii	"ioportid_t\000"
 2845      72746964 
 2845      5F7400
 2846              	.LASF2:
 2847 0197 6C6F6E67 		.ascii	"long double\000"
 2847      20646F75 
 2847      626C6500 
 2848              	.LASF6:
 2849 01a3 756E7369 		.ascii	"unsigned char\000"
 2849      676E6564 
 2849      20636861 
 2849      7200
 2850              	.LASF26:
 2851 01b1 41504232 		.ascii	"APB2ENR\000"
 2851      454E5200 
 2852              	.LASF11:
 2853 01b9 6C6F6E67 		.ascii	"long long unsigned int\000"
 2853      206C6F6E 
 2853      6720756E 
 2853      7369676E 
 2853      65642069 
 2854              	.LASF9:
 2855 01d0 75696E74 		.ascii	"uint32_t\000"
 2855      33325F74 
 2855      00
 2856              	.LASF53:
 2857 01d9 6F747970 		.ascii	"otyper\000"
 2857      657200
 2858              	.LASF15:
 2859 01e0 41484232 		.ascii	"AHB2RSTR\000"
 2859      52535452 
 2859      00
 2860              	.LASF8:
 2861 01e9 75696E74 		.ascii	"uint16_t\000"
 2861      31365F74 
 2861      00
 2862              	.LASF10:
 2863 01f2 6C6F6E67 		.ascii	"long unsigned int\000"
 2863      20756E73 
 2863      69676E65 
 2863      6420696E 
 2863      7400
 2864              	.LASF50:
 2865 0204 41465248 		.ascii	"AFRH\000"
 2865      00
 2866              	.LASF12:
 2867 0209 504C4C43 		.ascii	"PLLCFGR\000"
 2867      46475200 
 2868              	.LASF49:
 2869 0211 4146524C 		.ascii	"AFRL\000"
ARM GAS  /tmp/ccXGWUfY.s 			page 53


 2869      00
 2870              	.LASF7:
 2871 0216 73686F72 		.ascii	"short unsigned int\000"
 2871      7420756E 
 2871      7369676E 
 2871      65642069 
 2871      6E7400
 2872              	.LASF32:
 2873 0229 41504231 		.ascii	"APB1LPENR\000"
 2873      4C50454E 
 2873      5200
 2874              	.LASF81:
 2875 0233 474E5520 		.ascii	"GNU C17 10.3.1 20210621 (release) -mcpu=cortex-m4 -"
 2875      43313720 
 2875      31302E33 
 2875      2E312032 
 2875      30323130 
 2876 0266 6D6E6F2D 		.ascii	"mno-thumb-interwork -mthumb -mfloat-abi=soft -march"
 2876      7468756D 
 2876      622D696E 
 2876      74657277 
 2876      6F726B20 
 2877 0299 3D61726D 		.ascii	"=armv7e-m -ggdb -O2 -fomit-frame-pointer -falign-fu"
 2877      7637652D 
 2877      6D202D67 
 2877      67646220 
 2877      2D4F3220 
 2878 02cc 6E637469 		.ascii	"nctions=16 -ffunction-sections -fdata-sections -fno"
 2878      6F6E733D 
 2878      3136202D 
 2878      6666756E 
 2878      6374696F 
 2879 02ff 2D636F6D 		.ascii	"-common\000"
 2879      6D6F6E00 
 2880              	.LASF40:
 2881 0307 63686172 		.ascii	"char\000"
 2881      00
 2882              	.LASF68:
 2883 030c 50414C43 		.ascii	"PALConfig\000"
 2883      6F6E6669 
 2883      6700
 2884              	.LASF83:
 2885 0316 2F686F6D 		.ascii	"/home/tfateba/nlab/ip/trunk/demos/STM32/RT-STM32F40"
 2885      652F7466 
 2885      61746562 
 2885      612F6E6C 
 2885      61622F69 
 2886 0349 372D4449 		.ascii	"7-DISCOVERY-G++\000"
 2886      53434F56 
 2886      4552592D 
 2886      472B2B00 
 2887              	.LASF41:
 2888 0359 5F426F6F 		.ascii	"_Bool\000"
 2888      6C00
 2889              	.LASF73:
 2890 035f 6D6F6465 		.ascii	"mode\000"
 2890      00
ARM GAS  /tmp/ccXGWUfY.s 			page 54


 2891              	.LASF29:
 2892 0364 41484232 		.ascii	"AHB2LPENR\000"
 2892      4C50454E 
 2892      5200
 2893              	.LASF78:
 2894 036e 706F7274 		.ascii	"port\000"
 2894      00
 2895              	.LASF63:
 2896 0373 50454461 		.ascii	"PEData\000"
 2896      746100
 2897              	.LASF17:
 2898 037a 52455345 		.ascii	"RESERVED0\000"
 2898      52564544 
 2898      3000
 2899              	.LASF20:
 2900 0384 52455345 		.ascii	"RESERVED1\000"
 2900      52564544 
 2900      3100
 2901              	.LASF24:
 2902 038e 52455345 		.ascii	"RESERVED2\000"
 2902      52564544 
 2902      3200
 2903              	.LASF27:
 2904 0398 52455345 		.ascii	"RESERVED3\000"
 2904      52564544 
 2904      3300
 2905              	.LASF31:
 2906 03a2 52455345 		.ascii	"RESERVED4\000"
 2906      52564544 
 2906      3400
 2907              	.LASF34:
 2908 03ac 52455345 		.ascii	"RESERVED5\000"
 2908      52564544 
 2908      3500
 2909              	.LASF36:
 2910 03b6 52455345 		.ascii	"RESERVED6\000"
 2910      52564544 
 2910      3600
 2911              	.LASF66:
 2912 03c0 50484461 		.ascii	"PHData\000"
 2912      746100
 2913              	.LASF21:
 2914 03c7 41484231 		.ascii	"AHB1ENR\000"
 2914      454E5200 
 2915              	.LASF72:
 2916 03cf 6D61736B 		.ascii	"mask\000"
 2916      00
 2917              	.LASF55:
 2918 03d4 70757064 		.ascii	"pupdr\000"
 2918      7200
 2919              	.LASF57:
 2920 03da 61667268 		.ascii	"afrh\000"
 2920      00
 2921              	.LASF56:
 2922 03df 6166726C 		.ascii	"afrl\000"
 2922      00
 2923              	.LASF52:
ARM GAS  /tmp/ccXGWUfY.s 			page 55


 2924 03e4 6D6F6465 		.ascii	"moder\000"
 2924      7200
 2925              	.LASF14:
 2926 03ea 41484231 		.ascii	"AHB1RSTR\000"
 2926      52535452 
 2926      00
 2927              	.LASF16:
 2928 03f3 41484233 		.ascii	"AHB3RSTR\000"
 2928      52535452 
 2928      00
 2929              	.LASF74:
 2930 03fc 616C7472 		.ascii	"altr\000"
 2930      00
 2931              	.LASF75:
 2932 0401 616C7472 		.ascii	"altrmask\000"
 2932      6D61736B 
 2932      00
 2933              	.LASF0:
 2934 040a 756E7369 		.ascii	"unsigned int\000"
 2934      676E6564 
 2934      20696E74 
 2934      00
 2935              	.LASF13:
 2936 0417 43464752 		.ascii	"CFGR\000"
 2936      00
 2937              	.LASF48:
 2938 041c 4C434B52 		.ascii	"LCKR\000"
 2938      00
 2939              	.LASF33:
 2940 0421 41504232 		.ascii	"APB2LPENR\000"
 2940      4C50454E 
 2940      5200
 2941              	.LASF47:
 2942 042b 42535252 		.ascii	"BSRR\000"
 2942      00
 2943              		.ident	"GCC: (15:10.3-2021.07-4) 10.3.1 20210621 (release)"
ARM GAS  /tmp/ccXGWUfY.s 			page 56


DEFINED SYMBOLS
                            *ABS*:0000000000000000 hal_pal_lld.c
     /tmp/ccXGWUfY.s:16     .text._pal_lld_init:0000000000000000 $t
     /tmp/ccXGWUfY.s:25     .text._pal_lld_init:0000000000000000 _pal_lld_init
     /tmp/ccXGWUfY.s:476    .text._pal_lld_init:000000000000018c $d
     /tmp/ccXGWUfY.s:485    .text._pal_lld_setgroupmode:0000000000000000 $t
     /tmp/ccXGWUfY.s:493    .text._pal_lld_setgroupmode:0000000000000000 _pal_lld_setgroupmode

NO UNDEFINED SYMBOLS
