ARM GAS  /tmp/ccstZxWH.s 			page 1


   1              		.cpu cortex-m4
   2              		.eabi_attribute 20, 1
   3              		.eabi_attribute 21, 1
   4              		.eabi_attribute 23, 3
   5              		.eabi_attribute 24, 1
   6              		.eabi_attribute 25, 1
   7              		.eabi_attribute 26, 1
   8              		.eabi_attribute 30, 2
   9              		.eabi_attribute 34, 1
  10              		.eabi_attribute 18, 4
  11              		.file	"hal_buffers.c"
  12              		.text
  13              	.Ltext0:
  14              		.cfi_sections	.debug_frame
  15              		.section	.text.ibqObjectInit,"ax",%progbits
  16              		.align	1
  17              		.p2align 4,,15
  18              		.global	ibqObjectInit
  19              		.arch armv7e-m
  20              		.syntax unified
  21              		.thumb
  22              		.thumb_func
  23              		.fpu softvfp
  24              		.type	ibqObjectInit, %function
  25              	ibqObjectInit:
  26              	.LVL0:
  27              	.LFB277:
  28              		.file 1 "../../../os/hal/src/hal_buffers.c"
  29              		.loc 1 77 72 view -0
  30              		.cfi_startproc
  31              		@ args = 12, pretend = 0, frame = 0
  32              		@ frame_needed = 0, uses_anonymous_args = 0
  33              		@ link register save eliminated.
  34              		.loc 1 79 3 view .LVU1
  35              		.loc 1 79 3 view .LVU2
  36              		.loc 1 79 3 view .LVU3
  37              		.loc 1 81 3 view .LVU4
  38              		.loc 1 77 72 is_stmt 0 view .LVU5
  39 0000 10B4     		push	{r4}
  40              		.cfi_def_cfa_offset 4
  41              		.cfi_offset 4, -4
  42              		.loc 1 77 72 view .LVU6
  43 0002 019C     		ldr	r4, [sp, #4]
  44              	.LVL1:
  45              	.LBB273:
  46              	.LBI273:
  47              		.file 2 "../../../os/hal/osal/rt/osal.h"
  48              		.loc 2 753 20 is_stmt 1 view .LVU7
  49              	.LBE273:
  50              		.loc 2 755 3 view .LVU8
  51              	.LBB281:
  52              	.LBB274:
  53              	.LBI274:
  54              		.file 3 "../../../os/rt/include/chthreads.h"
  55              		.loc 3 404 20 view .LVU9
  56              	.LBE274:
  57              	.LBE281:
ARM GAS  /tmp/ccstZxWH.s 			page 2


  58              		.loc 3 406 3 view .LVU10
  59              	.LBB282:
  60              	.LBB279:
  61              	.LBB275:
  62              	.LBI275:
  63              		.file 4 "../../../os/rt/include/chschd.h"
  64              		.loc 4 548 20 view .LVU11
  65              	.LBB276:
  66              		.loc 4 550 3 view .LVU12
  67              	.LBE276:
  68              	.LBE275:
  69              	.LBE279:
  70              	.LBE282:
  71              		.loc 1 82 19 is_stmt 0 view .LVU13
  72 0004 0172     		strb	r1, [r0, #8]
  73              		.loc 1 86 33 view .LVU14
  74 0006 0433     		adds	r3, r3, #4
  75              	.LVL2:
  76              		.loc 1 87 19 view .LVU15
  77 0008 C361     		str	r3, [r0, #28]
  78              		.loc 1 86 24 view .LVU16
  79 000a 04FB0323 		mla	r3, r4, r3, r2
  80              	.LVL3:
  81              		.loc 1 89 19 view .LVU17
  82 000e C0E90842 		strd	r4, r2, [r0, #32]
  83              		.loc 1 85 19 view .LVU18
  84 0012 C0E90422 		strd	r2, r2, [r0, #16]
  85              		.loc 1 86 19 view .LVU19
  86 0016 8361     		str	r3, [r0, #24]
  87              		.loc 1 77 72 view .LVU20
  88 0018 DDE90223 		ldrd	r2, r3, [sp, #8]
  89              	.LVL4:
  90              		.loc 1 83 19 view .LVU21
  91 001c 0021     		movs	r1, #0
  92              	.LVL5:
  93              	.LBB283:
  94              	.LBB280:
  95              	.LBB278:
  96              	.LBB277:
  97              		.loc 4 551 13 view .LVU22
  98 001e C0E90000 		strd	r0, r0, [r0]
  99              	.LVL6:
 100              		.loc 4 551 13 view .LVU23
 101              	.LBE277:
 102              	.LBE278:
 103              	.LBE280:
 104              	.LBE283:
 105              		.loc 1 82 3 is_stmt 1 view .LVU24
 106              		.loc 1 83 3 view .LVU25
 107              		.loc 1 91 19 is_stmt 0 view .LVU26
 108 0022 C0E90A11 		strd	r1, r1, [r0, #40]
 109              		.loc 1 93 19 view .LVU27
 110 0026 C0E90C23 		strd	r2, r3, [r0, #48]
 111              		.loc 1 94 1 view .LVU28
 112 002a 10BC     		pop	{r4}
 113              		.cfi_restore 4
 114              		.cfi_def_cfa_offset 0
ARM GAS  /tmp/ccstZxWH.s 			page 3


 115              	.LVL7:
 116              		.loc 1 83 19 view .LVU29
 117 002c C160     		str	r1, [r0, #12]
 118              		.loc 1 84 3 is_stmt 1 view .LVU30
 119              		.loc 1 86 3 view .LVU31
 120              		.loc 1 87 3 view .LVU32
 121              		.loc 1 88 3 view .LVU33
 122              		.loc 1 90 3 view .LVU34
 123              		.loc 1 92 3 view .LVU35
 124              		.loc 1 94 1 is_stmt 0 view .LVU36
 125 002e 7047     		bx	lr
 126              		.cfi_endproc
 127              	.LFE277:
 128              		.size	ibqObjectInit, .-ibqObjectInit
 129              		.section	.text.ibqResetI,"ax",%progbits
 130              		.align	1
 131              		.p2align 4,,15
 132              		.global	ibqResetI
 133              		.syntax unified
 134              		.thumb
 135              		.thumb_func
 136              		.fpu softvfp
 137              		.type	ibqResetI, %function
 138              	ibqResetI:
 139              	.LVL8:
 140              	.LFB278:
 141              		.loc 1 107 45 is_stmt 1 view -0
 142              		.cfi_startproc
 143              		@ args = 0, pretend = 0, frame = 0
 144              		@ frame_needed = 0, uses_anonymous_args = 0
 145              		@ link register save eliminated.
 146              		.loc 1 109 23 view .LVU38
 147              		.loc 1 111 3 view .LVU39
 148              		.loc 1 112 25 is_stmt 0 view .LVU40
 149 0000 416A     		ldr	r1, [r0, #36]
 150              		.loc 1 111 19 view .LVU41
 151 0002 0022     		movs	r2, #0
 152              		.loc 1 113 19 view .LVU42
 153 0004 C0E90411 		strd	r1, r1, [r0, #16]
 154              		.loc 1 115 19 view .LVU43
 155 0008 C0E90A22 		strd	r2, r2, [r0, #40]
 156              		.loc 1 111 19 view .LVU44
 157 000c C260     		str	r2, [r0, #12]
 158              		.loc 1 112 3 is_stmt 1 view .LVU45
 159              		.loc 1 114 3 view .LVU46
 160              		.loc 1 116 3 view .LVU47
 161              	.LVL9:
 162              	.LBB284:
 163              	.LBI284:
 164              		.loc 2 808 20 view .LVU48
 165              	.LBB285:
 166              		.loc 2 810 3 view .LVU49
 167 000e 6FF00101 		mvn	r1, #1
 168 0012 FFF7FEBF 		b	chThdDequeueAllI
 169              	.LVL10:
 170              		.loc 2 810 3 is_stmt 0 view .LVU50
 171              	.LBE285:
ARM GAS  /tmp/ccstZxWH.s 			page 4


 172              	.LBE284:
 173              		.cfi_endproc
 174              	.LFE278:
 175              		.size	ibqResetI, .-ibqResetI
 176 0016 00BF     		.section	.text.ibqGetEmptyBufferI,"ax",%progbits
 177              		.align	1
 178              		.p2align 4,,15
 179              		.global	ibqGetEmptyBufferI
 180              		.syntax unified
 181              		.thumb
 182              		.thumb_func
 183              		.fpu softvfp
 184              		.type	ibqGetEmptyBufferI, %function
 185              	ibqGetEmptyBufferI:
 186              	.LVL11:
 187              	.LFB279:
 188              		.loc 1 129 58 is_stmt 1 view -0
 189              		.cfi_startproc
 190              		@ args = 0, pretend = 0, frame = 0
 191              		@ frame_needed = 0, uses_anonymous_args = 0
 192              		@ link register save eliminated.
 193              		.loc 1 131 23 view .LVU52
 194              		.loc 1 133 3 view .LVU53
 195              		.loc 1 133 7 is_stmt 0 view .LVU54
 196 0000 D0E90432 		ldrd	r3, r2, [r0, #16]
 197 0004 9342     		cmp	r3, r2
 198 0006 01D0     		beq	.L11
 199              	.L6:
 200              		.loc 1 137 3 is_stmt 1 view .LVU55
 201              		.loc 1 137 23 is_stmt 0 view .LVU56
 202 0008 181D     		adds	r0, r3, #4
 203              	.LVL12:
 204              		.loc 1 138 1 view .LVU57
 205 000a 7047     		bx	lr
 206              	.LVL13:
 207              	.L11:
 208              		.loc 1 133 7 discriminator 1 view .LVU58
 209 000c C268     		ldr	r2, [r0, #12]
 210 000e 002A     		cmp	r2, #0
 211 0010 FAD0     		beq	.L6
 212              		.loc 1 134 12 view .LVU59
 213 0012 0020     		movs	r0, #0
 214              	.LVL14:
 215              		.loc 1 134 12 view .LVU60
 216 0014 7047     		bx	lr
 217              		.cfi_endproc
 218              	.LFE279:
 219              		.size	ibqGetEmptyBufferI, .-ibqGetEmptyBufferI
 220 0016 00BF     		.section	.text.ibqPostFullBufferI,"ax",%progbits
 221              		.align	1
 222              		.p2align 4,,15
 223              		.global	ibqPostFullBufferI
 224              		.syntax unified
 225              		.thumb
 226              		.thumb_func
 227              		.fpu softvfp
 228              		.type	ibqPostFullBufferI, %function
ARM GAS  /tmp/ccstZxWH.s 			page 5


 229              	ibqPostFullBufferI:
 230              	.LVL15:
 231              	.LFB280:
 232              		.loc 1 148 67 is_stmt 1 view -0
 233              		.cfi_startproc
 234              		@ args = 0, pretend = 0, frame = 0
 235              		@ frame_needed = 0, uses_anonymous_args = 0
 236              		@ link register save eliminated.
 237              		.loc 1 150 23 view .LVU62
 238              		.loc 1 152 3 view .LVU63
 239              		.loc 1 152 3 view .LVU64
 240              		.loc 1 152 3 view .LVU65
 241              		.loc 1 153 3 view .LVU66
 242              		.loc 1 153 3 view .LVU67
 243              		.loc 1 153 3 view .LVU68
 244              		.loc 1 156 3 view .LVU69
 245              		.loc 1 156 19 is_stmt 0 view .LVU70
 246 0000 0369     		ldr	r3, [r0, #16]
 247              		.loc 1 148 67 view .LVU71
 248 0002 10B4     		push	{r4}
 249              		.cfi_def_cfa_offset 4
 250              		.cfi_offset 4, -4
 251              		.loc 1 161 6 view .LVU72
 252 0004 8469     		ldr	r4, [r0, #24]
 253              		.loc 1 156 29 view .LVU73
 254 0006 1960     		str	r1, [r3]
 255              		.loc 1 159 3 is_stmt 1 view .LVU74
 256              		.loc 1 160 16 is_stmt 0 view .LVU75
 257 0008 C169     		ldr	r1, [r0, #28]
 258              	.LVL16:
 259              		.loc 1 159 7 view .LVU76
 260 000a C268     		ldr	r2, [r0, #12]
 261              		.loc 1 160 16 view .LVU77
 262 000c 0B44     		add	r3, r3, r1
 263              	.LVL17:
 264              		.loc 1 161 6 view .LVU78
 265 000e A342     		cmp	r3, r4
 266              		.loc 1 160 16 view .LVU79
 267 0010 0361     		str	r3, [r0, #16]
 268              	.LVL18:
 269              		.loc 1 159 17 view .LVU80
 270 0012 02F10102 		add	r2, r2, #1
 271              		.loc 1 162 18 view .LVU81
 272 0016 28BF     		it	cs
 273 0018 436A     		ldrcs	r3, [r0, #36]
 274              		.loc 1 167 1 view .LVU82
 275 001a 10BC     		pop	{r4}
 276              		.cfi_restore 4
 277              		.cfi_def_cfa_offset 0
 278              		.loc 1 159 17 view .LVU83
 279 001c C260     		str	r2, [r0, #12]
 280              		.loc 1 160 3 is_stmt 1 view .LVU84
 281              		.loc 1 161 3 view .LVU85
 282              		.loc 1 162 5 view .LVU86
 283              		.loc 1 162 18 is_stmt 0 view .LVU87
 284 001e 28BF     		it	cs
 285 0020 0361     		strcs	r3, [r0, #16]
ARM GAS  /tmp/ccstZxWH.s 			page 6


 286              		.loc 1 166 3 is_stmt 1 view .LVU88
 287              	.LVL19:
 288              	.LBB286:
 289              	.LBI286:
 290              		.loc 2 795 20 view .LVU89
 291              	.LBB287:
 292              		.loc 2 797 3 view .LVU90
 293 0022 0021     		movs	r1, #0
 294 0024 FFF7FEBF 		b	chThdDequeueNextI
 295              	.LVL20:
 296              		.loc 2 797 3 is_stmt 0 view .LVU91
 297              	.LBE287:
 298              	.LBE286:
 299              		.cfi_endproc
 300              	.LFE280:
 301              		.size	ibqPostFullBufferI, .-ibqPostFullBufferI
 302              		.section	.text.ibqGetFullBufferTimeout,"ax",%progbits
 303              		.align	1
 304              		.p2align 4,,15
 305              		.global	ibqGetFullBufferTimeout
 306              		.syntax unified
 307              		.thumb
 308              		.thumb_func
 309              		.fpu softvfp
 310              		.type	ibqGetFullBufferTimeout, %function
 311              	ibqGetFullBufferTimeout:
 312              	.LVL21:
 313              	.LFB281:
 314              		.loc 1 191 50 is_stmt 1 view -0
 315              		.cfi_startproc
 316              		@ args = 0, pretend = 0, frame = 0
 317              		@ frame_needed = 0, uses_anonymous_args = 0
 318              		.loc 1 191 50 is_stmt 0 view .LVU93
 319 0000 38B5     		push	{r3, r4, r5, lr}
 320              		.cfi_def_cfa_offset 16
 321              		.cfi_offset 3, -16
 322              		.cfi_offset 4, -12
 323              		.cfi_offset 5, -8
 324              		.cfi_offset 14, -4
 325              		.loc 1 191 50 view .LVU94
 326 0002 0446     		mov	r4, r0
 327              		.loc 1 192 3 is_stmt 1 view .LVU95
 328              		.loc 1 194 3 view .LVU96
 329              	.LBB309:
 330              	.LBI309:
 331              		.loc 2 491 20 view .LVU97
 332              	.LBE309:
 333              		.loc 2 493 3 view .LVU98
 334              	.LBB321:
 335              	.LBB310:
 336              	.LBI310:
 337              		.file 5 "../../../os/rt/include/chsys.h"
 338              		.loc 5 374 20 view .LVU99
 339              	.LBE310:
 340              	.LBE321:
 341              		.loc 5 376 3 view .LVU100
 342              	.LBB322:
ARM GAS  /tmp/ccstZxWH.s 			page 7


 343              	.LBB318:
 344              	.LBB311:
 345              	.LBI311:
 346              		.file 6 "../../../os/common/ports/ARMCMx/chcore_v7m.h"
 347              		.loc 6 594 20 view .LVU101
 348              	.LBE311:
 349              	.LBE318:
 350              	.LBE322:
 351              		.loc 6 602 3 view .LVU102
 352              	.LVL22:
 353              	.LBB323:
 354              	.LBB319:
 355              	.LBB316:
 356              	.LBB312:
 357              	.LBI312:
 358              		.file 7 "../../../os/common/ext/CMSIS/include/cmsis_gcc.h"
 359              		.loc 7 262 57 view .LVU103
 360              	.LBB313:
 361              		.loc 7 264 3 view .LVU104
 362              	.LBE313:
 363              	.LBE312:
 364              	.LBE316:
 365              	.LBE319:
 366              	.LBE323:
 367              		.loc 1 191 50 is_stmt 0 view .LVU105
 368 0004 0D46     		mov	r5, r1
 369              	.LBB324:
 370              	.LBB320:
 371              	.LBB317:
 372              	.LBB315:
 373              	.LBB314:
 374              		.loc 7 264 3 view .LVU106
 375 0006 2023     		movs	r3, #32
 376              		.syntax unified
 377              	@ 264 "../../../os/common/ext/CMSIS/include/cmsis_gcc.h" 1
 378 0008 83F31188 		MSR basepri, r3
 379              	@ 0 "" 2
 380              	.LVL23:
 381              		.loc 7 264 3 view .LVU107
 382              		.thumb
 383              		.syntax unified
 384              	.LBE314:
 385              	.LBE315:
 386              	.LBE317:
 387              	.LBE320:
 388              	.LBE324:
 389              		.loc 5 377 34 is_stmt 1 view .LVU108
 390              		.loc 5 378 20 view .LVU109
 391              		.loc 1 195 3 view .LVU110
 392              	.LBB325:
 393              	.LBI325:
 394              		.loc 1 222 9 view .LVU111
 395              	.LBB326:
 396              		.loc 1 225 23 view .LVU112
 397              		.loc 1 227 3 view .LVU113
 398              		.loc 1 227 9 is_stmt 0 view .LVU114
 399 000c 05E0     		b	.L16
ARM GAS  /tmp/ccstZxWH.s 			page 8


 400              	.LVL24:
 401              	.L18:
 402              	.LBB327:
 403              		.loc 1 228 8 view .LVU115
 404 000e 237A     		ldrb	r3, [r4, #8]	@ zero_extendqisi2
 405 0010 9BB9     		cbnz	r3, .L19
 406              	.LBB328:
 407              	.LBB329:
 408              		.loc 2 784 10 view .LVU116
 409 0012 FFF7FEFF 		bl	chThdEnqueueTimeoutS
 410              	.LVL25:
 411              		.loc 2 784 10 view .LVU117
 412              	.LBE329:
 413              	.LBE328:
 414              		.loc 1 232 5 is_stmt 1 view .LVU118
 415              		.loc 1 232 8 is_stmt 0 view .LVU119
 416 0016 0028     		cmp	r0, #0
 417              		.loc 1 232 8 view .LVU120
 418 0018 0BDB     		blt	.L17
 419              	.LVL26:
 420              	.L16:
 421              		.loc 1 228 5 is_stmt 1 view .LVU121
 422              		.loc 1 231 5 view .LVU122
 423              	.LBB332:
 424              	.LBI328:
 425              		.loc 2 781 21 view .LVU123
 426              	.LBB330:
 427              		.loc 2 784 3 view .LVU124
 428              	.LBE330:
 429              	.LBE332:
 430              	.LBE327:
 431              		.loc 1 227 9 view .LVU125
 432              		.loc 1 227 10 is_stmt 0 view .LVU126
 433 001a E368     		ldr	r3, [r4, #12]
 434              	.LBB334:
 435              	.LBB333:
 436              	.LBB331:
 437              		.loc 2 784 10 view .LVU127
 438 001c 2946     		mov	r1, r5
 439 001e 2046     		mov	r0, r4
 440              	.LBE331:
 441              	.LBE333:
 442              	.LBE334:
 443              		.loc 1 227 9 view .LVU128
 444 0020 002B     		cmp	r3, #0
 445 0022 F4D0     		beq	.L18
 446              	.LVL27:
 447              	.LBB335:
 448              	.LBI335:
 449              		.loc 1 222 9 is_stmt 1 view .LVU129
 450              	.LBB336:
 451              		.loc 1 237 3 view .LVU130
 452              		.loc 1 237 3 view .LVU131
 453              		.loc 1 237 3 view .LVU132
 454              		.loc 1 240 3 view .LVU133
 455              		.loc 1 240 19 is_stmt 0 view .LVU134
 456 0024 6369     		ldr	r3, [r4, #20]
ARM GAS  /tmp/ccstZxWH.s 			page 9


 457              		.loc 1 241 25 view .LVU135
 458 0026 1A68     		ldr	r2, [r3]
 459              		.loc 1 240 28 view .LVU136
 460 0028 0433     		adds	r3, r3, #4
 461              		.loc 1 241 25 view .LVU137
 462 002a 1A44     		add	r2, r2, r3
 463              		.loc 1 241 13 view .LVU138
 464 002c C4E90A32 		strd	r3, r2, [r4, #40]
 465              		.loc 1 243 3 is_stmt 1 view .LVU139
 466              	.LVL28:
 467              		.loc 1 241 13 is_stmt 0 view .LVU140
 468 0030 0020     		movs	r0, #0
 469              	.LVL29:
 470              	.L17:
 471              		.loc 1 241 13 view .LVU141
 472              	.LBE336:
 473              	.LBE335:
 474              	.LBE326:
 475              	.LBE325:
 476              		.loc 1 196 3 is_stmt 1 view .LVU142
 477              	.LBB339:
 478              	.LBI339:
 479              		.loc 2 502 20 view .LVU143
 480              	.LBE339:
 481              		.loc 2 504 3 view .LVU144
 482              	.LBB356:
 483              	.LBB340:
 484              	.LBI340:
 485              		.loc 5 386 20 view .LVU145
 486              	.LBB341:
 487              		.loc 5 388 22 view .LVU146
 488              		.loc 5 389 33 view .LVU147
 489              		.loc 5 395 3 view .LVU148
 490              		.loc 5 395 3 view .LVU149
 491              		.loc 5 395 3 view .LVU150
 492              		.loc 5 399 3 view .LVU151
 493              	.LBB342:
 494              	.LBI342:
 495              		.loc 6 618 20 view .LVU152
 496              	.LBE342:
 497              	.LBE341:
 498              	.LBE340:
 499              	.LBE356:
 500              		.loc 6 621 3 view .LVU153
 501              	.LBB357:
 502              	.LBB353:
 503              	.LBB350:
 504              	.LBB347:
 505              	.LBB343:
 506              	.LBI343:
 507              		.loc 7 262 57 view .LVU154
 508              	.LBB344:
 509              		.loc 7 264 3 view .LVU155
 510 0032 0023     		movs	r3, #0
 511              		.syntax unified
 512              	@ 264 "../../../os/common/ext/CMSIS/include/cmsis_gcc.h" 1
 513 0034 83F31188 		MSR basepri, r3
ARM GAS  /tmp/ccstZxWH.s 			page 10


 514              	@ 0 "" 2
 515              	.LVL30:
 516              		.loc 7 264 3 is_stmt 0 view .LVU156
 517              		.thumb
 518              		.syntax unified
 519              	.LBE344:
 520              	.LBE343:
 521              	.LBE347:
 522              	.LBE350:
 523              	.LBE353:
 524              	.LBE357:
 525              		.loc 1 198 3 is_stmt 1 view .LVU157
 526              		.loc 1 199 1 is_stmt 0 view .LVU158
 527 0038 38BD     		pop	{r3, r4, r5, pc}
 528              	.LVL31:
 529              	.L19:
 530              	.LBB358:
 531              	.LBB338:
 532              	.LBB337:
 533              		.loc 1 229 14 view .LVU159
 534 003a 6FF00100 		mvn	r0, #1
 535              	.LVL32:
 536              		.loc 1 229 14 view .LVU160
 537              	.LBE337:
 538              	.LBE338:
 539              	.LBE358:
 540              		.loc 1 196 3 is_stmt 1 view .LVU161
 541              	.LBB359:
 542              		.loc 2 502 20 view .LVU162
 543              	.LBE359:
 544              		.loc 2 504 3 view .LVU163
 545              	.LBB360:
 546              	.LBB354:
 547              		.loc 5 386 20 view .LVU164
 548              	.LBB351:
 549              		.loc 5 388 22 view .LVU165
 550              		.loc 5 389 33 view .LVU166
 551              		.loc 5 395 3 view .LVU167
 552              		.loc 5 395 3 view .LVU168
 553              		.loc 5 395 3 view .LVU169
 554              		.loc 5 399 3 view .LVU170
 555              	.LBB348:
 556              		.loc 6 618 20 view .LVU171
 557              	.LBE348:
 558              	.LBE351:
 559              	.LBE354:
 560              	.LBE360:
 561              		.loc 6 621 3 view .LVU172
 562              	.LBB361:
 563              	.LBB355:
 564              	.LBB352:
 565              	.LBB349:
 566              	.LBB346:
 567              		.loc 7 262 57 view .LVU173
 568              	.LBB345:
 569              		.loc 7 264 3 view .LVU174
 570 003e 0023     		movs	r3, #0
ARM GAS  /tmp/ccstZxWH.s 			page 11


 571              		.syntax unified
 572              	@ 264 "../../../os/common/ext/CMSIS/include/cmsis_gcc.h" 1
 573 0040 83F31188 		MSR basepri, r3
 574              	@ 0 "" 2
 575              	.LVL33:
 576              		.loc 7 264 3 is_stmt 0 view .LVU175
 577              		.thumb
 578              		.syntax unified
 579              	.LBE345:
 580              	.LBE346:
 581              	.LBE349:
 582              	.LBE352:
 583              	.LBE355:
 584              	.LBE361:
 585              		.loc 1 198 3 is_stmt 1 view .LVU176
 586              		.loc 1 199 1 is_stmt 0 view .LVU177
 587 0044 38BD     		pop	{r3, r4, r5, pc}
 588              		.loc 1 199 1 view .LVU178
 589              		.cfi_endproc
 590              	.LFE281:
 591              		.size	ibqGetFullBufferTimeout, .-ibqGetFullBufferTimeout
 592 0046 00BF     		.section	.text.ibqGetFullBufferTimeoutS,"ax",%progbits
 593              		.align	1
 594              		.p2align 4,,15
 595              		.global	ibqGetFullBufferTimeoutS
 596              		.syntax unified
 597              		.thumb
 598              		.thumb_func
 599              		.fpu softvfp
 600              		.type	ibqGetFullBufferTimeoutS, %function
 601              	ibqGetFullBufferTimeoutS:
 602              	.LVL34:
 603              	.LFB282:
 604              		.loc 1 223 53 is_stmt 1 view -0
 605              		.cfi_startproc
 606              		@ args = 0, pretend = 0, frame = 0
 607              		@ frame_needed = 0, uses_anonymous_args = 0
 608              		.loc 1 223 53 is_stmt 0 view .LVU180
 609 0000 38B5     		push	{r3, r4, r5, lr}
 610              		.cfi_def_cfa_offset 16
 611              		.cfi_offset 3, -16
 612              		.cfi_offset 4, -12
 613              		.cfi_offset 5, -8
 614              		.cfi_offset 14, -4
 615              		.loc 1 223 53 view .LVU181
 616 0002 0446     		mov	r4, r0
 617              		.loc 1 225 23 is_stmt 1 view .LVU182
 618              		.loc 1 227 3 view .LVU183
 619              		.loc 1 223 53 is_stmt 0 view .LVU184
 620 0004 0D46     		mov	r5, r1
 621              		.loc 1 227 9 view .LVU185
 622 0006 05E0     		b	.L22
 623              	.LVL35:
 624              	.L24:
 625              	.LBB373:
 626              		.loc 1 228 8 view .LVU186
 627 0008 237A     		ldrb	r3, [r4, #8]	@ zero_extendqisi2
ARM GAS  /tmp/ccstZxWH.s 			page 12


 628 000a 83B9     		cbnz	r3, .L25
 629              	.LBB374:
 630              	.LBB375:
 631              		.loc 2 784 10 view .LVU187
 632 000c FFF7FEFF 		bl	chThdEnqueueTimeoutS
 633              	.LVL36:
 634              		.loc 2 784 10 view .LVU188
 635              	.LBE375:
 636              	.LBE374:
 637              		.loc 1 232 5 is_stmt 1 view .LVU189
 638              		.loc 1 232 8 is_stmt 0 view .LVU190
 639 0010 0028     		cmp	r0, #0
 640              		.loc 1 232 8 view .LVU191
 641 0012 0BDB     		blt	.L21
 642              	.LVL37:
 643              	.L22:
 644              		.loc 1 228 5 is_stmt 1 view .LVU192
 645              		.loc 1 231 5 view .LVU193
 646              	.LBB378:
 647              	.LBI374:
 648              		.loc 2 781 21 view .LVU194
 649              	.LBB376:
 650              		.loc 2 784 3 view .LVU195
 651              	.LBE376:
 652              	.LBE378:
 653              	.LBE373:
 654              		.loc 1 227 9 view .LVU196
 655              		.loc 1 227 10 is_stmt 0 view .LVU197
 656 0014 E368     		ldr	r3, [r4, #12]
 657              	.LBB380:
 658              	.LBB379:
 659              	.LBB377:
 660              		.loc 2 784 10 view .LVU198
 661 0016 2946     		mov	r1, r5
 662 0018 2046     		mov	r0, r4
 663              	.LBE377:
 664              	.LBE379:
 665              	.LBE380:
 666              		.loc 1 227 9 view .LVU199
 667 001a 002B     		cmp	r3, #0
 668 001c F4D0     		beq	.L24
 669              	.LVL38:
 670              	.LBB381:
 671              	.LBI381:
 672              		.loc 1 222 9 is_stmt 1 view .LVU200
 673              	.LBB382:
 674              		.loc 1 237 3 view .LVU201
 675              		.loc 1 237 3 view .LVU202
 676              		.loc 1 237 3 view .LVU203
 677              		.loc 1 240 3 view .LVU204
 678              		.loc 1 240 19 is_stmt 0 view .LVU205
 679 001e 6369     		ldr	r3, [r4, #20]
 680              		.loc 1 241 25 view .LVU206
 681 0020 1A68     		ldr	r2, [r3]
 682              		.loc 1 240 28 view .LVU207
 683 0022 0433     		adds	r3, r3, #4
 684              		.loc 1 241 25 view .LVU208
ARM GAS  /tmp/ccstZxWH.s 			page 13


 685 0024 1A44     		add	r2, r2, r3
 686              		.loc 1 241 13 view .LVU209
 687 0026 C4E90A32 		strd	r3, r2, [r4, #40]
 688              		.loc 1 243 3 is_stmt 1 view .LVU210
 689              	.LVL39:
 690              		.loc 1 241 13 is_stmt 0 view .LVU211
 691 002a 0020     		movs	r0, #0
 692              	.LVL40:
 693              	.L21:
 694              		.loc 1 241 13 view .LVU212
 695              	.LBE382:
 696              	.LBE381:
 697              		.loc 1 244 1 view .LVU213
 698 002c 38BD     		pop	{r3, r4, r5, pc}
 699              	.LVL41:
 700              	.L25:
 701              	.LBB383:
 702              		.loc 1 229 14 view .LVU214
 703 002e 6FF00100 		mvn	r0, #1
 704              	.LVL42:
 705              		.loc 1 229 14 view .LVU215
 706              	.LBE383:
 707              		.loc 1 244 1 view .LVU216
 708 0032 38BD     		pop	{r3, r4, r5, pc}
 709              		.loc 1 244 1 view .LVU217
 710              		.cfi_endproc
 711              	.LFE282:
 712              		.size	ibqGetFullBufferTimeoutS, .-ibqGetFullBufferTimeoutS
 713              		.section	.text.ibqReleaseEmptyBuffer,"ax",%progbits
 714              		.align	1
 715              		.p2align 4,,15
 716              		.global	ibqReleaseEmptyBuffer
 717              		.syntax unified
 718              		.thumb
 719              		.thumb_func
 720              		.fpu softvfp
 721              		.type	ibqReleaseEmptyBuffer, %function
 722              	ibqReleaseEmptyBuffer:
 723              	.LVL43:
 724              	.LFB283:
 725              		.loc 1 254 57 is_stmt 1 view -0
 726              		.cfi_startproc
 727              		@ args = 0, pretend = 0, frame = 0
 728              		@ frame_needed = 0, uses_anonymous_args = 0
 729              		.loc 1 256 3 view .LVU219
 730              	.LBB397:
 731              	.LBI397:
 732              		.loc 2 491 20 view .LVU220
 733              	.LBE397:
 734              		.loc 2 493 3 view .LVU221
 735              	.LBB409:
 736              	.LBB398:
 737              	.LBI398:
 738              		.loc 5 374 20 view .LVU222
 739              	.LBE398:
 740              	.LBE409:
 741              		.loc 5 376 3 view .LVU223
ARM GAS  /tmp/ccstZxWH.s 			page 14


 742              	.LBB410:
 743              	.LBB406:
 744              	.LBB399:
 745              	.LBI399:
 746              		.loc 6 594 20 view .LVU224
 747              	.LBE399:
 748              	.LBE406:
 749              	.LBE410:
 750              		.loc 6 602 3 view .LVU225
 751              	.LBB411:
 752              	.LBB407:
 753              	.LBB404:
 754              	.LBB400:
 755              	.LBI400:
 756              		.loc 7 262 57 view .LVU226
 757              	.LBB401:
 758              		.loc 7 264 3 view .LVU227
 759              	.LBE401:
 760              	.LBE400:
 761              	.LBE404:
 762              	.LBE407:
 763              	.LBE411:
 764              		.loc 1 254 57 is_stmt 0 view .LVU228
 765 0000 08B5     		push	{r3, lr}
 766              		.cfi_def_cfa_offset 8
 767              		.cfi_offset 3, -8
 768              		.cfi_offset 14, -4
 769              	.LBB412:
 770              	.LBB408:
 771              	.LBB405:
 772              	.LBB403:
 773              	.LBB402:
 774              		.loc 7 264 3 view .LVU229
 775 0002 2023     		movs	r3, #32
 776              		.syntax unified
 777              	@ 264 "../../../os/common/ext/CMSIS/include/cmsis_gcc.h" 1
 778 0004 83F31188 		MSR basepri, r3
 779              	@ 0 "" 2
 780              	.LVL44:
 781              		.loc 7 264 3 view .LVU230
 782              		.thumb
 783              		.syntax unified
 784              	.LBE402:
 785              	.LBE403:
 786              	.LBE405:
 787              	.LBE408:
 788              	.LBE412:
 789              		.loc 5 377 34 is_stmt 1 view .LVU231
 790              		.loc 5 378 20 view .LVU232
 791              		.loc 1 257 3 view .LVU233
 792              	.LBB413:
 793              	.LBI413:
 794              		.loc 1 269 8 view .LVU234
 795              	.LBB414:
 796              		.loc 1 271 23 view .LVU235
 797              		.loc 1 272 3 view .LVU236
 798              		.loc 1 272 3 view .LVU237
ARM GAS  /tmp/ccstZxWH.s 			page 15


 799              		.loc 1 272 3 view .LVU238
 800              		.loc 1 275 3 view .LVU239
 801              		.loc 1 277 6 is_stmt 0 view .LVU240
 802 0008 D0E90531 		ldrd	r3, r1, [r0, #20]
 803              		.loc 1 276 16 view .LVU241
 804 000c D0F81CC0 		ldr	ip, [r0, #28]
 805              		.loc 1 275 7 view .LVU242
 806 0010 C268     		ldr	r2, [r0, #12]
 807              		.loc 1 276 16 view .LVU243
 808 0012 6344     		add	r3, r3, ip
 809              		.loc 1 277 6 view .LVU244
 810 0014 8B42     		cmp	r3, r1
 811              		.loc 1 276 16 view .LVU245
 812 0016 4361     		str	r3, [r0, #20]
 813              		.loc 1 278 18 view .LVU246
 814 0018 24BF     		itt	cs
 815 001a 436A     		ldrcs	r3, [r0, #36]
 816 001c 4361     		strcs	r3, [r0, #20]
 817              		.loc 1 275 17 view .LVU247
 818 001e 013A     		subs	r2, r2, #1
 819              		.loc 1 285 11 view .LVU248
 820 0020 036B     		ldr	r3, [r0, #48]
 821              		.loc 1 275 17 view .LVU249
 822 0022 C260     		str	r2, [r0, #12]
 823              		.loc 1 276 3 is_stmt 1 view .LVU250
 824              		.loc 1 277 3 view .LVU251
 825              		.loc 1 278 5 view .LVU252
 826              		.loc 1 282 3 view .LVU253
 827              		.loc 1 282 13 is_stmt 0 view .LVU254
 828 0024 0022     		movs	r2, #0
 829 0026 8262     		str	r2, [r0, #40]
 830              		.loc 1 285 3 is_stmt 1 view .LVU255
 831              		.loc 1 285 6 is_stmt 0 view .LVU256
 832 0028 03B1     		cbz	r3, .L29
 833              		.loc 1 286 5 is_stmt 1 view .LVU257
 834 002a 9847     		blx	r3
 835              	.LVL45:
 836              	.L29:
 837              		.loc 1 286 5 is_stmt 0 view .LVU258
 838              	.LBE414:
 839              	.LBE413:
 840              		.loc 1 258 3 is_stmt 1 view .LVU259
 841              	.LBB415:
 842              	.LBI415:
 843              		.loc 2 502 20 view .LVU260
 844              	.LBE415:
 845              		.loc 2 504 3 view .LVU261
 846              	.LBB424:
 847              	.LBB416:
 848              	.LBI416:
 849              		.loc 5 386 20 view .LVU262
 850              	.LBB417:
 851              		.loc 5 388 22 view .LVU263
 852              		.loc 5 389 33 view .LVU264
 853              		.loc 5 395 3 view .LVU265
 854              		.loc 5 395 3 view .LVU266
 855              		.loc 5 395 3 view .LVU267
ARM GAS  /tmp/ccstZxWH.s 			page 16


 856              		.loc 5 399 3 view .LVU268
 857              	.LBB418:
 858              	.LBI418:
 859              		.loc 6 618 20 view .LVU269
 860              	.LBE418:
 861              	.LBE417:
 862              	.LBE416:
 863              	.LBE424:
 864              		.loc 6 621 3 view .LVU270
 865              	.LBB425:
 866              	.LBB423:
 867              	.LBB422:
 868              	.LBB421:
 869              	.LBB419:
 870              	.LBI419:
 871              		.loc 7 262 57 view .LVU271
 872              	.LBB420:
 873              		.loc 7 264 3 view .LVU272
 874 002c 0023     		movs	r3, #0
 875              		.syntax unified
 876              	@ 264 "../../../os/common/ext/CMSIS/include/cmsis_gcc.h" 1
 877 002e 83F31188 		MSR basepri, r3
 878              	@ 0 "" 2
 879              	.LVL46:
 880              		.loc 7 264 3 is_stmt 0 view .LVU273
 881              		.thumb
 882              		.syntax unified
 883              	.LBE420:
 884              	.LBE419:
 885              	.LBE421:
 886              	.LBE422:
 887              	.LBE423:
 888              	.LBE425:
 889              		.loc 1 259 1 view .LVU274
 890 0032 08BD     		pop	{r3, pc}
 891              		.cfi_endproc
 892              	.LFE283:
 893              		.size	ibqReleaseEmptyBuffer, .-ibqReleaseEmptyBuffer
 894              		.section	.text.ibqReleaseEmptyBufferS,"ax",%progbits
 895              		.align	1
 896              		.p2align 4,,15
 897              		.global	ibqReleaseEmptyBufferS
 898              		.syntax unified
 899              		.thumb
 900              		.thumb_func
 901              		.fpu softvfp
 902              		.type	ibqReleaseEmptyBufferS, %function
 903              	ibqReleaseEmptyBufferS:
 904              	.LVL47:
 905              	.LFB284:
 906              		.loc 1 269 60 is_stmt 1 view -0
 907              		.cfi_startproc
 908              		@ args = 0, pretend = 0, frame = 0
 909              		@ frame_needed = 0, uses_anonymous_args = 0
 910              		@ link register save eliminated.
 911              		.loc 1 271 23 view .LVU276
 912              		.loc 1 272 3 view .LVU277
ARM GAS  /tmp/ccstZxWH.s 			page 17


 913              		.loc 1 272 3 view .LVU278
 914              		.loc 1 272 3 view .LVU279
 915              		.loc 1 275 3 view .LVU280
 916              		.loc 1 277 6 is_stmt 0 view .LVU281
 917 0000 D0E90531 		ldrd	r3, r1, [r0, #20]
 918              		.loc 1 276 16 view .LVU282
 919 0004 D0F81CC0 		ldr	ip, [r0, #28]
 920              		.loc 1 275 7 view .LVU283
 921 0008 C268     		ldr	r2, [r0, #12]
 922              		.loc 1 276 16 view .LVU284
 923 000a 6344     		add	r3, r3, ip
 924              		.loc 1 277 6 view .LVU285
 925 000c 8B42     		cmp	r3, r1
 926              		.loc 1 276 16 view .LVU286
 927 000e 4361     		str	r3, [r0, #20]
 928              		.loc 1 278 18 view .LVU287
 929 0010 24BF     		itt	cs
 930 0012 436A     		ldrcs	r3, [r0, #36]
 931 0014 4361     		strcs	r3, [r0, #20]
 932              		.loc 1 275 17 view .LVU288
 933 0016 013A     		subs	r2, r2, #1
 934              		.loc 1 285 11 view .LVU289
 935 0018 036B     		ldr	r3, [r0, #48]
 936              		.loc 1 275 17 view .LVU290
 937 001a C260     		str	r2, [r0, #12]
 938              		.loc 1 276 3 is_stmt 1 view .LVU291
 939              		.loc 1 277 3 view .LVU292
 940              		.loc 1 278 5 view .LVU293
 941              		.loc 1 282 3 view .LVU294
 942              		.loc 1 282 13 is_stmt 0 view .LVU295
 943 001c 0022     		movs	r2, #0
 944 001e 8262     		str	r2, [r0, #40]
 945              		.loc 1 285 3 is_stmt 1 view .LVU296
 946              		.loc 1 285 6 is_stmt 0 view .LVU297
 947 0020 03B1     		cbz	r3, .L34
 948              		.loc 1 286 5 is_stmt 1 view .LVU298
 949 0022 1847     		bx	r3	@ indirect register sibling call
 950              	.LVL48:
 951              	.L34:
 952              		.loc 1 288 1 is_stmt 0 view .LVU299
 953 0024 7047     		bx	lr
 954              		.cfi_endproc
 955              	.LFE284:
 956              		.size	ibqReleaseEmptyBufferS, .-ibqReleaseEmptyBufferS
 957 0026 00BF     		.section	.text.ibqGetTimeout,"ax",%progbits
 958              		.align	1
 959              		.p2align 4,,15
 960              		.global	ibqGetTimeout
 961              		.syntax unified
 962              		.thumb
 963              		.thumb_func
 964              		.fpu softvfp
 965              		.type	ibqGetTimeout, %function
 966              	ibqGetTimeout:
 967              	.LVL49:
 968              	.LFB285:
 969              		.loc 1 309 69 is_stmt 1 view -0
ARM GAS  /tmp/ccstZxWH.s 			page 18


 970              		.cfi_startproc
 971              		@ args = 0, pretend = 0, frame = 0
 972              		@ frame_needed = 0, uses_anonymous_args = 0
 973              		.loc 1 309 69 is_stmt 0 view .LVU301
 974 0000 70B5     		push	{r4, r5, r6, lr}
 975              		.cfi_def_cfa_offset 16
 976              		.cfi_offset 4, -16
 977              		.cfi_offset 5, -12
 978              		.cfi_offset 6, -8
 979              		.cfi_offset 14, -4
 980              	.LBB455:
 981              	.LBB456:
 982              	.LBB457:
 983              	.LBB458:
 984              	.LBB459:
 985              		.loc 7 264 3 view .LVU302
 986 0002 2023     		movs	r3, #32
 987              	.LBE459:
 988              	.LBE458:
 989              	.LBE457:
 990              	.LBE456:
 991              	.LBE455:
 992              		.loc 1 309 69 view .LVU303
 993 0004 0446     		mov	r4, r0
 994              		.loc 1 310 3 is_stmt 1 view .LVU304
 995              		.loc 1 312 3 view .LVU305
 996              	.LBB467:
 997              	.LBI455:
 998              		.loc 2 491 20 view .LVU306
 999              	.LBE467:
 1000              		.loc 2 493 3 view .LVU307
 1001              	.LBB468:
 1002              	.LBB464:
 1003              	.LBI456:
 1004              		.loc 5 374 20 view .LVU308
 1005              	.LBE464:
 1006              	.LBE468:
 1007              		.loc 5 376 3 view .LVU309
 1008              	.LBB469:
 1009              	.LBB465:
 1010              	.LBB462:
 1011              	.LBI457:
 1012              		.loc 6 594 20 view .LVU310
 1013              	.LBE462:
 1014              	.LBE465:
 1015              	.LBE469:
 1016              		.loc 6 602 3 view .LVU311
 1017              	.LVL50:
 1018              	.LBB470:
 1019              	.LBB466:
 1020              	.LBB463:
 1021              	.LBB461:
 1022              	.LBI458:
 1023              		.loc 7 262 57 view .LVU312
 1024              	.LBB460:
 1025              		.loc 7 264 3 view .LVU313
 1026              		.syntax unified
ARM GAS  /tmp/ccstZxWH.s 			page 19


 1027              	@ 264 "../../../os/common/ext/CMSIS/include/cmsis_gcc.h" 1
 1028 0006 83F31188 		MSR basepri, r3
 1029              	@ 0 "" 2
 1030              	.LVL51:
 1031              		.loc 7 264 3 is_stmt 0 view .LVU314
 1032              		.thumb
 1033              		.syntax unified
 1034              	.LBE460:
 1035              	.LBE461:
 1036              	.LBE463:
 1037              	.LBE466:
 1038              	.LBE470:
 1039              		.loc 5 377 34 is_stmt 1 view .LVU315
 1040              		.loc 5 378 20 view .LVU316
 1041              		.loc 1 315 3 view .LVU317
 1042              		.loc 1 315 11 is_stmt 0 view .LVU318
 1043 000a 836A     		ldr	r3, [r0, #40]
 1044              		.loc 1 315 6 view .LVU319
 1045 000c 13B3     		cbz	r3, .L53
 1046              		.loc 1 329 24 view .LVU320
 1047 000e C26A     		ldr	r2, [r0, #44]
 1048              	.L39:
 1049              		.loc 1 324 3 is_stmt 1 view .LVU321
 1050              		.loc 1 324 7 is_stmt 0 view .LVU322
 1051 0010 13F8016B 		ldrb	r6, [r3], #1	@ zero_extendqisi2
 1052              	.LVL52:
 1053              		.loc 1 325 3 is_stmt 1 view .LVU323
 1054              		.loc 1 325 12 is_stmt 0 view .LVU324
 1055 0014 A362     		str	r3, [r4, #40]
 1056              		.loc 1 329 3 is_stmt 1 view .LVU325
 1057              		.loc 1 329 6 is_stmt 0 view .LVU326
 1058 0016 9342     		cmp	r3, r2
 1059 0018 04D2     		bcs	.L55
 1060              	.LVL53:
 1061              	.L40:
 1062              		.loc 1 317 5 is_stmt 1 view .LVU327
 1063              		.loc 1 318 7 view .LVU328
 1064              	.LBB471:
 1065              	.LBI471:
 1066              		.loc 2 502 20 view .LVU329
 1067              	.LBE471:
 1068              		.loc 2 504 3 view .LVU330
 1069              	.LBB488:
 1070              	.LBB472:
 1071              	.LBI472:
 1072              		.loc 5 386 20 view .LVU331
 1073              	.LBB473:
 1074              		.loc 5 388 22 view .LVU332
 1075              		.loc 5 389 33 view .LVU333
 1076              		.loc 5 395 3 view .LVU334
 1077              		.loc 5 395 3 view .LVU335
 1078              		.loc 5 395 3 view .LVU336
 1079              		.loc 5 399 3 view .LVU337
 1080              	.LBB474:
 1081              	.LBI474:
 1082              		.loc 6 618 20 view .LVU338
 1083              	.LBE474:
ARM GAS  /tmp/ccstZxWH.s 			page 20


 1084              	.LBE473:
 1085              	.LBE472:
 1086              	.LBE488:
 1087              		.loc 6 621 3 view .LVU339
 1088              	.LBB489:
 1089              	.LBB485:
 1090              	.LBB482:
 1091              	.LBB479:
 1092              	.LBB475:
 1093              	.LBI475:
 1094              		.loc 7 262 57 view .LVU340
 1095              	.LBB476:
 1096              		.loc 7 264 3 view .LVU341
 1097 001a 0023     		movs	r3, #0
 1098              		.syntax unified
 1099              	@ 264 "../../../os/common/ext/CMSIS/include/cmsis_gcc.h" 1
 1100 001c 83F31188 		MSR basepri, r3
 1101              	@ 0 "" 2
 1102              	.LVL54:
 1103              		.loc 7 264 3 is_stmt 0 view .LVU342
 1104              		.thumb
 1105              		.syntax unified
 1106              	.LBE476:
 1107              	.LBE475:
 1108              	.LBE479:
 1109              	.LBE482:
 1110              	.LBE485:
 1111              	.LBE489:
 1112              		.loc 1 319 7 is_stmt 1 view .LVU343
 1113              		.loc 1 335 1 is_stmt 0 view .LVU344
 1114 0020 3046     		mov	r0, r6
 1115 0022 70BD     		pop	{r4, r5, r6, pc}
 1116              	.LVL55:
 1117              	.L55:
 1118              		.loc 1 330 5 is_stmt 1 view .LVU345
 1119              	.LBB490:
 1120              	.LBI490:
 1121              		.loc 1 269 8 view .LVU346
 1122              	.LBB491:
 1123              		.loc 1 271 23 view .LVU347
 1124              		.loc 1 272 3 view .LVU348
 1125              		.loc 1 272 3 view .LVU349
 1126              		.loc 1 272 3 view .LVU350
 1127              		.loc 1 275 3 view .LVU351
 1128              		.loc 1 276 16 is_stmt 0 view .LVU352
 1129 0024 6369     		ldr	r3, [r4, #20]
 1130 0026 E169     		ldr	r1, [r4, #28]
 1131              	.LVL56:
 1132              		.loc 1 275 7 view .LVU353
 1133 0028 E268     		ldr	r2, [r4, #12]
 1134              		.loc 1 276 16 view .LVU354
 1135 002a 0B44     		add	r3, r3, r1
 1136              		.loc 1 277 6 view .LVU355
 1137 002c A169     		ldr	r1, [r4, #24]
 1138              		.loc 1 276 16 view .LVU356
 1139 002e 6361     		str	r3, [r4, #20]
 1140              		.loc 1 277 6 view .LVU357
ARM GAS  /tmp/ccstZxWH.s 			page 21


 1141 0030 8B42     		cmp	r3, r1
 1142              		.loc 1 278 18 view .LVU358
 1143 0032 24BF     		itt	cs
 1144 0034 636A     		ldrcs	r3, [r4, #36]
 1145 0036 6361     		strcs	r3, [r4, #20]
 1146              		.loc 1 275 17 view .LVU359
 1147 0038 013A     		subs	r2, r2, #1
 1148              		.loc 1 285 11 view .LVU360
 1149 003a 236B     		ldr	r3, [r4, #48]
 1150              		.loc 1 275 17 view .LVU361
 1151 003c E260     		str	r2, [r4, #12]
 1152              		.loc 1 276 3 is_stmt 1 view .LVU362
 1153              		.loc 1 277 3 view .LVU363
 1154              		.loc 1 278 5 view .LVU364
 1155              		.loc 1 282 3 view .LVU365
 1156              		.loc 1 282 13 is_stmt 0 view .LVU366
 1157 003e 0022     		movs	r2, #0
 1158 0040 A262     		str	r2, [r4, #40]
 1159              		.loc 1 285 3 is_stmt 1 view .LVU367
 1160              		.loc 1 285 6 is_stmt 0 view .LVU368
 1161 0042 002B     		cmp	r3, #0
 1162 0044 E9D0     		beq	.L40
 1163              		.loc 1 286 5 is_stmt 1 view .LVU369
 1164 0046 2046     		mov	r0, r4
 1165              	.LVL57:
 1166              		.loc 1 286 5 is_stmt 0 view .LVU370
 1167 0048 9847     		blx	r3
 1168              	.LVL58:
 1169              		.loc 1 286 5 view .LVU371
 1170              	.LBE491:
 1171              	.LBE490:
 1172              		.loc 1 333 3 is_stmt 1 view .LVU372
 1173              	.LBB492:
 1174              	.LBI492:
 1175              		.loc 2 502 20 view .LVU373
 1176              	.LBE492:
 1177              		.loc 2 504 3 view .LVU374
 1178              	.LBB501:
 1179              	.LBB493:
 1180              	.LBI493:
 1181              		.loc 5 386 20 view .LVU375
 1182              	.LBB494:
 1183              		.loc 5 388 22 view .LVU376
 1184              		.loc 5 389 33 view .LVU377
 1185              		.loc 5 395 3 view .LVU378
 1186              		.loc 5 395 3 view .LVU379
 1187              		.loc 5 395 3 view .LVU380
 1188              		.loc 5 399 3 view .LVU381
 1189              	.LBB495:
 1190              	.LBI495:
 1191              		.loc 6 618 20 view .LVU382
 1192              	.LBE495:
 1193              	.LBE494:
 1194              	.LBE493:
 1195              	.LBE501:
 1196              		.loc 6 621 3 view .LVU383
 1197              	.LBB502:
ARM GAS  /tmp/ccstZxWH.s 			page 22


 1198              	.LBB500:
 1199              	.LBB499:
 1200              	.LBB498:
 1201              	.LBB496:
 1202              	.LBI496:
 1203              		.loc 7 262 57 view .LVU384
 1204              	.LBB497:
 1205              		.loc 7 264 3 view .LVU385
 1206              		.loc 7 264 3 is_stmt 0 view .LVU386
 1207              	.LBE497:
 1208              	.LBE496:
 1209              	.LBE498:
 1210              	.LBE499:
 1211              	.LBE500:
 1212              	.LBE502:
 1213              		.loc 1 317 5 is_stmt 1 view .LVU387
 1214              		.loc 1 318 7 view .LVU388
 1215              	.LBB503:
 1216              		.loc 2 502 20 view .LVU389
 1217              	.LBE503:
 1218              		.loc 2 504 3 view .LVU390
 1219              	.LBB504:
 1220              	.LBB486:
 1221              		.loc 5 386 20 view .LVU391
 1222              	.LBB483:
 1223              		.loc 5 388 22 view .LVU392
 1224              		.loc 5 389 33 view .LVU393
 1225              		.loc 5 395 3 view .LVU394
 1226              		.loc 5 395 3 view .LVU395
 1227              		.loc 5 395 3 view .LVU396
 1228              		.loc 5 399 3 view .LVU397
 1229              	.LBB480:
 1230              		.loc 6 618 20 view .LVU398
 1231              	.LBE480:
 1232              	.LBE483:
 1233              	.LBE486:
 1234              	.LBE504:
 1235              		.loc 6 621 3 view .LVU399
 1236              	.LBB505:
 1237              	.LBB487:
 1238              	.LBB484:
 1239              	.LBB481:
 1240              	.LBB478:
 1241              		.loc 7 262 57 view .LVU400
 1242              	.LBB477:
 1243              		.loc 7 264 3 view .LVU401
 1244 004a 0023     		movs	r3, #0
 1245              		.syntax unified
 1246              	@ 264 "../../../os/common/ext/CMSIS/include/cmsis_gcc.h" 1
 1247 004c 83F31188 		MSR basepri, r3
 1248              	@ 0 "" 2
 1249              	.LVL59:
 1250              		.loc 7 264 3 is_stmt 0 view .LVU402
 1251              		.thumb
 1252              		.syntax unified
 1253              	.LBE477:
 1254              	.LBE478:
ARM GAS  /tmp/ccstZxWH.s 			page 23


 1255              	.LBE481:
 1256              	.LBE484:
 1257              	.LBE487:
 1258              	.LBE505:
 1259              		.loc 1 319 7 is_stmt 1 view .LVU403
 1260              		.loc 1 335 1 is_stmt 0 view .LVU404
 1261 0050 3046     		mov	r0, r6
 1262 0052 70BD     		pop	{r4, r5, r6, pc}
 1263              	.LVL60:
 1264              	.L53:
 1265              		.loc 1 335 1 view .LVU405
 1266 0054 0D46     		mov	r5, r1
 1267 0056 05E0     		b	.L38
 1268              	.LVL61:
 1269              	.L41:
 1270              	.LBB506:
 1271              	.LBB507:
 1272              	.LBB508:
 1273              		.loc 1 228 8 view .LVU406
 1274 0058 237A     		ldrb	r3, [r4, #8]	@ zero_extendqisi2
 1275 005a 7BB9     		cbnz	r3, .L47
 1276              	.LBB509:
 1277              	.LBB510:
 1278              		.loc 2 784 10 view .LVU407
 1279 005c FFF7FEFF 		bl	chThdEnqueueTimeoutS
 1280              	.LVL62:
 1281              		.loc 2 784 10 view .LVU408
 1282              	.LBE510:
 1283              	.LBE509:
 1284              		.loc 1 232 5 is_stmt 1 view .LVU409
 1285              		.loc 1 232 8 is_stmt 0 view .LVU410
 1286 0060 061E     		subs	r6, r0, #0
 1287 0062 DADB     		blt	.L40
 1288              	.LVL63:
 1289              	.L38:
 1290              		.loc 1 228 5 is_stmt 1 view .LVU411
 1291              		.loc 1 231 5 view .LVU412
 1292              	.LBB513:
 1293              	.LBI509:
 1294              		.loc 2 781 21 view .LVU413
 1295              	.LBB511:
 1296              		.loc 2 784 3 view .LVU414
 1297              	.LBE511:
 1298              	.LBE513:
 1299              	.LBE508:
 1300              		.loc 1 227 9 view .LVU415
 1301              		.loc 1 227 10 is_stmt 0 view .LVU416
 1302 0064 E368     		ldr	r3, [r4, #12]
 1303              	.LBB515:
 1304              	.LBB514:
 1305              	.LBB512:
 1306              		.loc 2 784 10 view .LVU417
 1307 0066 2946     		mov	r1, r5
 1308 0068 2046     		mov	r0, r4
 1309              	.LBE512:
 1310              	.LBE514:
 1311              	.LBE515:
ARM GAS  /tmp/ccstZxWH.s 			page 24


 1312              		.loc 1 227 9 view .LVU418
 1313 006a 002B     		cmp	r3, #0
 1314 006c F4D0     		beq	.L41
 1315              	.LVL64:
 1316              	.LBB516:
 1317              	.LBI516:
 1318              		.loc 1 222 9 is_stmt 1 view .LVU419
 1319              	.LBB517:
 1320              		.loc 1 237 3 view .LVU420
 1321              		.loc 1 237 3 view .LVU421
 1322              		.loc 1 237 3 view .LVU422
 1323              		.loc 1 240 3 view .LVU423
 1324              		.loc 1 240 19 is_stmt 0 view .LVU424
 1325 006e 6369     		ldr	r3, [r4, #20]
 1326              		.loc 1 241 25 view .LVU425
 1327 0070 1A68     		ldr	r2, [r3]
 1328              		.loc 1 240 28 view .LVU426
 1329 0072 0433     		adds	r3, r3, #4
 1330              		.loc 1 241 25 view .LVU427
 1331 0074 1A44     		add	r2, r2, r3
 1332              		.loc 1 241 13 view .LVU428
 1333 0076 C4E90A32 		strd	r3, r2, [r4, #40]
 1334              		.loc 1 243 3 is_stmt 1 view .LVU429
 1335              	.LVL65:
 1336              		.loc 1 243 3 is_stmt 0 view .LVU430
 1337              	.LBE517:
 1338              	.LBE516:
 1339              	.LBE507:
 1340              	.LBE506:
 1341              		.loc 1 317 5 is_stmt 1 view .LVU431
 1342 007a C9E7     		b	.L39
 1343              	.LVL66:
 1344              	.L47:
 1345              	.LBB520:
 1346              	.LBB519:
 1347              	.LBB518:
 1348              		.loc 1 229 14 is_stmt 0 view .LVU432
 1349 007c 6FF00106 		mvn	r6, #1
 1350 0080 CBE7     		b	.L40
 1351              	.LBE518:
 1352              	.LBE519:
 1353              	.LBE520:
 1354              		.cfi_endproc
 1355              	.LFE285:
 1356              		.size	ibqGetTimeout, .-ibqGetTimeout
 1357 0082 00BF     		.section	.text.ibqReadTimeout,"ax",%progbits
 1358              		.align	1
 1359              		.p2align 4,,15
 1360              		.global	ibqReadTimeout
 1361              		.syntax unified
 1362              		.thumb
 1363              		.thumb_func
 1364              		.fpu softvfp
 1365              		.type	ibqReadTimeout, %function
 1366              	ibqReadTimeout:
 1367              	.LVL67:
 1368              	.LFB286:
ARM GAS  /tmp/ccstZxWH.s 			page 25


 1369              		.loc 1 359 52 is_stmt 1 view -0
 1370              		.cfi_startproc
 1371              		@ args = 0, pretend = 0, frame = 8
 1372              		@ frame_needed = 0, uses_anonymous_args = 0
 1373              		.loc 1 360 3 view .LVU434
 1374              		.loc 1 361 3 view .LVU435
 1375              		.loc 1 363 3 view .LVU436
 1376              		.loc 1 363 3 view .LVU437
 1377              		.loc 1 363 3 view .LVU438
 1378              		.loc 1 365 3 view .LVU439
 1379              	.LBB585:
 1380              	.LBI585:
 1381              		.loc 2 491 20 view .LVU440
 1382              	.LBE585:
 1383              		.loc 2 493 3 view .LVU441
 1384              	.LBB597:
 1385              	.LBB586:
 1386              	.LBI586:
 1387              		.loc 5 374 20 view .LVU442
 1388              	.LBE586:
 1389              	.LBE597:
 1390              		.loc 5 376 3 view .LVU443
 1391              	.LBB598:
 1392              	.LBB594:
 1393              	.LBB587:
 1394              	.LBI587:
 1395              		.loc 6 594 20 view .LVU444
 1396              	.LBE587:
 1397              	.LBE594:
 1398              	.LBE598:
 1399              		.loc 6 602 3 view .LVU445
 1400              	.LBB599:
 1401              	.LBB595:
 1402              	.LBB592:
 1403              	.LBB588:
 1404              	.LBI588:
 1405              		.loc 7 262 57 view .LVU446
 1406              	.LBB589:
 1407              		.loc 7 264 3 view .LVU447
 1408              	.LBE589:
 1409              	.LBE588:
 1410              	.LBE592:
 1411              	.LBE595:
 1412              	.LBE599:
 1413              		.loc 1 359 52 is_stmt 0 view .LVU448
 1414 0000 2DE9F04F 		push	{r4, r5, r6, r7, r8, r9, r10, fp, lr}
 1415              		.cfi_def_cfa_offset 36
 1416              		.cfi_offset 4, -36
 1417              		.cfi_offset 5, -32
 1418              		.cfi_offset 6, -28
 1419              		.cfi_offset 7, -24
 1420              		.cfi_offset 8, -20
 1421              		.cfi_offset 9, -16
 1422              		.cfi_offset 10, -12
 1423              		.cfi_offset 11, -8
 1424              		.cfi_offset 14, -4
 1425 0004 9846     		mov	r8, r3
ARM GAS  /tmp/ccstZxWH.s 			page 26


 1426 0006 83B0     		sub	sp, sp, #12
 1427              		.cfi_def_cfa_offset 48
 1428              		.loc 1 359 52 view .LVU449
 1429 0008 0446     		mov	r4, r0
 1430 000a 0E46     		mov	r6, r1
 1431 000c 1746     		mov	r7, r2
 1432              	.LBB600:
 1433              	.LBB596:
 1434              	.LBB593:
 1435              	.LBB591:
 1436              	.LBB590:
 1437              		.loc 7 264 3 view .LVU450
 1438 000e 2023     		movs	r3, #32
 1439              	.LVL68:
 1440              		.loc 7 264 3 view .LVU451
 1441              		.syntax unified
 1442              	@ 264 "../../../os/common/ext/CMSIS/include/cmsis_gcc.h" 1
 1443 0010 83F31188 		MSR basepri, r3
 1444              	@ 0 "" 2
 1445              	.LVL69:
 1446              		.loc 7 264 3 view .LVU452
 1447              		.thumb
 1448              		.syntax unified
 1449              	.LBE590:
 1450              	.LBE591:
 1451              	.LBE593:
 1452              	.LBE596:
 1453              	.LBE600:
 1454              		.loc 5 377 34 is_stmt 1 view .LVU453
 1455              		.loc 5 378 20 view .LVU454
 1456              		.loc 1 368 3 view .LVU455
 1457              	.LBB601:
 1458              	.LBI601:
 1459              		.loc 2 616 25 view .LVU456
 1460              	.LBE601:
 1461              		.loc 2 618 3 view .LVU457
 1462              	.LBB613:
 1463              	.LBB602:
 1464              	.LBI602:
 1465              		.file 8 "../../../os/rt/include/chvt.h"
 1466              		.loc 8 392 25 view .LVU458
 1467              	.LBE602:
 1468              	.LBE613:
 1469              		.loc 8 397 3 view .LVU459
 1470              	.LBB614:
 1471              	.LBB610:
 1472              	.LBB603:
 1473              	.LBI603:
 1474              		.file 9 "../../../os/common/ports/ARMCMx/chcore_timer.h"
 1475              		.loc 9 105 25 view .LVU460
 1476              	.LBE603:
 1477              	.LBE610:
 1478              	.LBE614:
 1479              		.loc 9 107 3 view .LVU461
 1480              	.LBB615:
 1481              	.LBB611:
 1482              	.LBB608:
ARM GAS  /tmp/ccstZxWH.s 			page 27


 1483              	.LBB604:
 1484              	.LBI604:
 1485              		.file 10 "../../../os/hal/ports/STM32/LLD/TIMv1/hal_st_lld.h"
 1486              		.loc 10 139 25 view .LVU462
 1487              	.LBB605:
 1488              		.loc 10 141 3 view .LVU463
 1489              		.loc 10 141 10 is_stmt 0 view .LVU464
 1490 0014 4FF08043 		mov	r3, #1073741824
 1491              	.LBE605:
 1492              	.LBE604:
 1493              	.LBE608:
 1494              	.LBE611:
 1495              	.LBE615:
 1496              	.LBB616:
 1497              		.loc 1 374 13 view .LVU465
 1498 0018 A16A     		ldr	r1, [r4, #40]
 1499              	.LVL70:
 1500              		.loc 1 374 13 view .LVU466
 1501              	.LBE616:
 1502              	.LBB723:
 1503              	.LBB612:
 1504              	.LBB609:
 1505              	.LBB607:
 1506              	.LBB606:
 1507              		.loc 10 141 10 view .LVU467
 1508 001a 5B6A     		ldr	r3, [r3, #36]
 1509              	.LBE606:
 1510              	.LBE607:
 1511              	.LBE609:
 1512              	.LBE612:
 1513              	.LBE723:
 1514              		.loc 1 360 10 view .LVU468
 1515 001c 0025     		movs	r5, #0
 1516              		.loc 1 368 12 view .LVU469
 1517 001e 4344     		add	r3, r8, r3
 1518 0020 0193     		str	r3, [sp, #4]
 1519              	.LVL71:
 1520              		.loc 1 370 3 is_stmt 1 view .LVU470
 1521              	.LBB724:
 1522              		.loc 1 371 5 view .LVU471
 1523              		.loc 1 374 5 view .LVU472
 1524              	.LBB617:
 1525              		.loc 1 379 38 is_stmt 0 view .LVU473
 1526 0022 08F1FF3A 		add	r10, r8, #-1
 1527              	.LBE617:
 1528              	.LBB685:
 1529              	.LBB686:
 1530              		.loc 1 282 13 view .LVU474
 1531 0026 A946     		mov	r9, r5
 1532              	.LBE686:
 1533              	.LBE685:
 1534              		.loc 1 374 8 view .LVU475
 1535 0028 89B3     		cbz	r1, .L57
 1536              	.LVL72:
 1537              	.L90:
 1538              		.loc 1 403 24 view .LVU476
 1539 002a E26A     		ldr	r2, [r4, #44]
ARM GAS  /tmp/ccstZxWH.s 			page 28


 1540              	.L58:
 1541              		.loc 1 403 5 is_stmt 1 view .LVU477
 1542              		.loc 1 404 19 is_stmt 0 view .LVU478
 1543 002c A7EB050B 		sub	fp, r7, r5
 1544              		.loc 1 403 10 view .LVU479
 1545 0030 521A     		subs	r2, r2, r1
 1546              	.LVL73:
 1547              		.loc 1 404 5 is_stmt 1 view .LVU480
 1548 0032 9345     		cmp	fp, r2
 1549 0034 28BF     		it	cs
 1550 0036 9346     		movcs	fp, r2
 1551              	.LVL74:
 1552              		.loc 1 410 5 view .LVU481
 1553              		.loc 1 410 8 is_stmt 0 view .LVU482
 1554 0038 BBF1400F 		cmp	fp, #64
 1555 003c 46D9     		bls	.L66
 1556              		.loc 1 412 7 is_stmt 1 view .LVU483
 1557 003e 3346     		mov	r3, r6
 1558 0040 01F1400B 		add	fp, r1, #64
 1559              	.LVL75:
 1560              	.L67:
 1561              		.loc 1 412 7 is_stmt 0 view .LVU484
 1562 0044 D1F800C0 		ldr	ip, [r1]	@ unaligned
 1563 0048 4868     		ldr	r0, [r1, #4]	@ unaligned
 1564 004a 8A68     		ldr	r2, [r1, #8]	@ unaligned
 1565 004c D1F80CE0 		ldr	lr, [r1, #12]	@ unaligned
 1566 0050 C3F80CE0 		str	lr, [r3, #12]	@ unaligned
 1567 0054 1031     		adds	r1, r1, #16
 1568 0056 5945     		cmp	r1, fp
 1569 0058 C3F800C0 		str	ip, [r3]	@ unaligned
 1570 005c 5860     		str	r0, [r3, #4]	@ unaligned
 1571 005e 9A60     		str	r2, [r3, #8]	@ unaligned
 1572 0060 03F11003 		add	r3, r3, #16
 1573 0064 EED1     		bne	.L67
 1574              		.loc 1 413 7 is_stmt 1 view .LVU485
 1575              		.loc 1 414 17 is_stmt 0 view .LVU486
 1576 0066 A36A     		ldr	r3, [r4, #40]
 1577              		.loc 1 425 8 view .LVU487
 1578 0068 E26A     		ldr	r2, [r4, #44]
 1579              		.loc 1 414 17 view .LVU488
 1580 006a 4033     		adds	r3, r3, #64
 1581              		.loc 1 425 8 view .LVU489
 1582 006c 9A42     		cmp	r2, r3
 1583              		.loc 1 413 17 view .LVU490
 1584 006e 06F14006 		add	r6, r6, #64
 1585              	.LVL76:
 1586              		.loc 1 414 7 is_stmt 1 view .LVU491
 1587              		.loc 1 414 17 is_stmt 0 view .LVU492
 1588 0072 A362     		str	r3, [r4, #40]
 1589              		.loc 1 415 7 is_stmt 1 view .LVU493
 1590              		.loc 1 415 17 is_stmt 0 view .LVU494
 1591 0074 05F14005 		add	r5, r5, #64
 1592              	.LVL77:
 1593              		.loc 1 425 5 is_stmt 1 view .LVU495
 1594              		.loc 1 425 8 is_stmt 0 view .LVU496
 1595 0078 34D9     		bls	.L89
 1596              	.L70:
ARM GAS  /tmp/ccstZxWH.s 			page 29


 1597              		.loc 1 430 5 is_stmt 1 view .LVU497
 1598              	.LBB688:
 1599              	.LBI688:
 1600              		.loc 2 502 20 view .LVU498
 1601              	.LBE688:
 1602              	.LBE724:
 1603              		.loc 2 504 3 view .LVU499
 1604              	.LBB725:
 1605              	.LBB697:
 1606              	.LBB689:
 1607              	.LBI689:
 1608              		.loc 5 386 20 view .LVU500
 1609              	.LBB690:
 1610              		.loc 5 388 22 view .LVU501
 1611              		.loc 5 389 33 view .LVU502
 1612              		.loc 5 395 3 view .LVU503
 1613              		.loc 5 395 3 view .LVU504
 1614              		.loc 5 395 3 view .LVU505
 1615              		.loc 5 399 3 view .LVU506
 1616              	.LBB691:
 1617              	.LBI691:
 1618              		.loc 6 618 20 view .LVU507
 1619              	.LBE691:
 1620              	.LBE690:
 1621              	.LBE689:
 1622              	.LBE697:
 1623              	.LBE725:
 1624              		.loc 6 621 3 view .LVU508
 1625              	.LVL78:
 1626              	.LBB726:
 1627              	.LBB698:
 1628              	.LBB696:
 1629              	.LBB695:
 1630              	.LBB694:
 1631              	.LBB692:
 1632              	.LBI692:
 1633              		.loc 7 262 57 view .LVU509
 1634              	.LBB693:
 1635              		.loc 7 264 3 view .LVU510
 1636              		.syntax unified
 1637              	@ 264 "../../../os/common/ext/CMSIS/include/cmsis_gcc.h" 1
 1638 007a 89F31188 		MSR basepri, r9
 1639              	@ 0 "" 2
 1640              	.LVL79:
 1641              		.loc 7 264 3 is_stmt 0 view .LVU511
 1642              		.thumb
 1643              		.syntax unified
 1644              	.LBE693:
 1645              	.LBE692:
 1646              	.LBE694:
 1647              	.LBE695:
 1648              	.LBE696:
 1649              	.LBE698:
 1650              		.loc 1 431 5 is_stmt 1 view .LVU512
 1651              		.loc 1 431 8 is_stmt 0 view .LVU513
 1652 007e BD42     		cmp	r5, r7
 1653 0080 53D2     		bcs	.L56
ARM GAS  /tmp/ccstZxWH.s 			page 30


 1654              		.loc 1 434 5 is_stmt 1 view .LVU514
 1655              	.LBB699:
 1656              	.LBI699:
 1657              		.loc 2 491 20 view .LVU515
 1658              	.LBB700:
 1659              		.loc 2 493 3 view .LVU516
 1660              	.LBB701:
 1661              	.LBI701:
 1662              		.loc 5 374 20 view .LVU517
 1663              	.LBE701:
 1664              	.LBE700:
 1665              	.LBE699:
 1666              	.LBE726:
 1667              		.loc 5 376 3 view .LVU518
 1668              	.LBB727:
 1669              	.LBB710:
 1670              	.LBB708:
 1671              	.LBB706:
 1672              	.LBB702:
 1673              	.LBI702:
 1674              		.loc 6 594 20 view .LVU519
 1675              	.LBE702:
 1676              	.LBE706:
 1677              	.LBE708:
 1678              	.LBE710:
 1679              	.LBE727:
 1680              		.loc 6 602 3 view .LVU520
 1681              	.LVL80:
 1682              	.LBB728:
 1683              	.LBB711:
 1684              	.LBB709:
 1685              	.LBB707:
 1686              	.LBB705:
 1687              	.LBB703:
 1688              	.LBI703:
 1689              		.loc 7 262 57 view .LVU521
 1690              	.LBB704:
 1691              		.loc 7 264 3 view .LVU522
 1692 0082 2023     		movs	r3, #32
 1693              		.syntax unified
 1694              	@ 264 "../../../os/common/ext/CMSIS/include/cmsis_gcc.h" 1
 1695 0084 83F31188 		MSR basepri, r3
 1696              	@ 0 "" 2
 1697              	.LVL81:
 1698              		.loc 7 264 3 is_stmt 0 view .LVU523
 1699              		.thumb
 1700              		.syntax unified
 1701              	.LBE704:
 1702              	.LBE703:
 1703              	.LBE705:
 1704              	.LBE707:
 1705              	.LBE709:
 1706              	.LBE711:
 1707              	.LBE728:
 1708              		.loc 5 377 34 is_stmt 1 view .LVU524
 1709              		.loc 5 378 20 view .LVU525
 1710              		.loc 1 370 3 view .LVU526
ARM GAS  /tmp/ccstZxWH.s 			page 31


 1711              	.LBB729:
 1712              		.loc 1 371 5 view .LVU527
 1713              		.loc 1 374 5 view .LVU528
 1714              		.loc 1 374 13 is_stmt 0 view .LVU529
 1715 0088 A16A     		ldr	r1, [r4, #40]
 1716              		.loc 1 374 8 view .LVU530
 1717 008a 0029     		cmp	r1, #0
 1718 008c CDD1     		bne	.L90
 1719              	.L57:
 1720              	.LBB712:
 1721              		.loc 1 375 7 is_stmt 1 view .LVU531
 1722              		.loc 1 379 7 view .LVU532
 1723              		.loc 1 379 10 is_stmt 0 view .LVU533
 1724 008e 1AF1030F 		cmn	r10, #3
 1725 0092 41D8     		bhi	.L59
 1726              	.LBB618:
 1727              		.loc 1 383 9 is_stmt 1 view .LVU534
 1728              	.LBB619:
 1729              	.LBI619:
 1730              		.loc 2 616 25 view .LVU535
 1731              	.LBE619:
 1732              	.LBE618:
 1733              	.LBE712:
 1734              	.LBE729:
 1735              		.loc 2 618 3 view .LVU536
 1736              	.LBB730:
 1737              	.LBB713:
 1738              	.LBB658:
 1739              	.LBB631:
 1740              	.LBB620:
 1741              	.LBI620:
 1742              		.loc 8 392 25 view .LVU537
 1743              	.LBE620:
 1744              	.LBE631:
 1745              	.LBE658:
 1746              	.LBE713:
 1747              	.LBE730:
 1748              		.loc 8 397 3 view .LVU538
 1749              	.LBB731:
 1750              	.LBB714:
 1751              	.LBB659:
 1752              	.LBB632:
 1753              	.LBB628:
 1754              	.LBB621:
 1755              	.LBI621:
 1756              		.loc 9 105 25 view .LVU539
 1757              	.LBE621:
 1758              	.LBE628:
 1759              	.LBE632:
 1760              	.LBE659:
 1761              	.LBE714:
 1762              	.LBE731:
 1763              		.loc 9 107 3 view .LVU540
 1764              	.LBB732:
 1765              	.LBB715:
 1766              	.LBB660:
 1767              	.LBB633:
ARM GAS  /tmp/ccstZxWH.s 			page 32


 1768              	.LBB629:
 1769              	.LBB626:
 1770              	.LBB622:
 1771              	.LBI622:
 1772              		.loc 10 139 25 view .LVU541
 1773              	.LBB623:
 1774              		.loc 10 141 3 view .LVU542
 1775              		.loc 10 141 10 is_stmt 0 view .LVU543
 1776 0094 4FF08043 		mov	r3, #1073741824
 1777              	.LBE623:
 1778              	.LBE622:
 1779              	.LBE626:
 1780              	.LBE629:
 1781              	.LBE633:
 1782              		.loc 1 383 19 view .LVU544
 1783 0098 019A     		ldr	r2, [sp, #4]
 1784              	.LBB634:
 1785              	.LBB630:
 1786              	.LBB627:
 1787              	.LBB625:
 1788              	.LBB624:
 1789              		.loc 10 141 10 view .LVU545
 1790 009a 5B6A     		ldr	r3, [r3, #36]
 1791              	.LBE624:
 1792              	.LBE625:
 1793              	.LBE627:
 1794              	.LBE630:
 1795              	.LBE634:
 1796              		.loc 1 383 19 view .LVU546
 1797 009c A2EB030B 		sub	fp, r2, r3
 1798              	.LVL82:
 1799              		.loc 1 388 9 is_stmt 1 view .LVU547
 1800              		.loc 1 388 12 is_stmt 0 view .LVU548
 1801 00a0 D845     		cmp	r8, fp
 1802 00a2 07D2     		bcs	.L63
 1803 00a4 45E0     		b	.L91
 1804              	.LVL83:
 1805              	.L65:
 1806              	.LBB635:
 1807              	.LBB636:
 1808              	.LBB637:
 1809              		.loc 1 228 8 view .LVU549
 1810 00a6 237A     		ldrb	r3, [r4, #8]	@ zero_extendqisi2
 1811 00a8 002B     		cmp	r3, #0
 1812 00aa 3BD1     		bne	.L61
 1813              	.LBB638:
 1814              	.LBB639:
 1815              		.loc 2 784 10 view .LVU550
 1816 00ac FFF7FEFF 		bl	chThdEnqueueTimeoutS
 1817              	.LVL84:
 1818              		.loc 2 784 10 view .LVU551
 1819              	.LBE639:
 1820              	.LBE638:
 1821              		.loc 1 232 5 is_stmt 1 view .LVU552
 1822              		.loc 1 232 8 is_stmt 0 view .LVU553
 1823 00b0 0028     		cmp	r0, #0
 1824 00b2 37DB     		blt	.L61
ARM GAS  /tmp/ccstZxWH.s 			page 33


 1825              	.LVL85:
 1826              	.L63:
 1827              		.loc 1 228 5 is_stmt 1 view .LVU554
 1828              		.loc 1 231 5 view .LVU555
 1829              	.LBB642:
 1830              	.LBI638:
 1831              		.loc 2 781 21 view .LVU556
 1832              	.LBB640:
 1833              		.loc 2 784 3 view .LVU557
 1834              	.LBE640:
 1835              	.LBE642:
 1836              	.LBE637:
 1837              		.loc 1 227 9 view .LVU558
 1838              		.loc 1 227 10 is_stmt 0 view .LVU559
 1839 00b4 E368     		ldr	r3, [r4, #12]
 1840              	.LBB644:
 1841              	.LBB643:
 1842              	.LBB641:
 1843              		.loc 2 784 10 view .LVU560
 1844 00b6 5946     		mov	r1, fp
 1845 00b8 2046     		mov	r0, r4
 1846              	.LBE641:
 1847              	.LBE643:
 1848              	.LBE644:
 1849              		.loc 1 227 9 view .LVU561
 1850 00ba 002B     		cmp	r3, #0
 1851 00bc F3D0     		beq	.L65
 1852              	.LVL86:
 1853              	.L88:
 1854              	.LBB645:
 1855              	.LBI645:
 1856              		.loc 1 222 9 is_stmt 1 view .LVU562
 1857              	.LBB646:
 1858              		.loc 1 237 3 view .LVU563
 1859              		.loc 1 237 3 view .LVU564
 1860              		.loc 1 237 3 view .LVU565
 1861              		.loc 1 240 3 view .LVU566
 1862              		.loc 1 240 19 is_stmt 0 view .LVU567
 1863 00be 6169     		ldr	r1, [r4, #20]
 1864              		.loc 1 241 25 view .LVU568
 1865 00c0 0A68     		ldr	r2, [r1]
 1866              		.loc 1 240 28 view .LVU569
 1867 00c2 0431     		adds	r1, r1, #4
 1868              		.loc 1 241 25 view .LVU570
 1869 00c4 0A44     		add	r2, r2, r1
 1870              		.loc 1 241 13 view .LVU571
 1871 00c6 C4E90A12 		strd	r1, r2, [r4, #40]
 1872              		.loc 1 243 3 is_stmt 1 view .LVU572
 1873              	.LVL87:
 1874              		.loc 1 243 3 is_stmt 0 view .LVU573
 1875              	.LBE646:
 1876              	.LBE645:
 1877              	.LBE636:
 1878              	.LBE635:
 1879              	.LBE660:
 1880              		.loc 1 396 7 is_stmt 1 view .LVU574
 1881 00ca AFE7     		b	.L58
ARM GAS  /tmp/ccstZxWH.s 			page 34


 1882              	.LVL88:
 1883              	.L66:
 1884              		.loc 1 396 7 is_stmt 0 view .LVU575
 1885              	.LBE715:
 1886              		.loc 1 418 7 is_stmt 1 view .LVU576
 1887 00cc 3046     		mov	r0, r6
 1888 00ce 5A46     		mov	r2, fp
 1889 00d0 FFF7FEFF 		bl	memcpy
 1890              	.LVL89:
 1891              		.loc 1 419 7 view .LVU577
 1892              		.loc 1 420 17 is_stmt 0 view .LVU578
 1893 00d4 A36A     		ldr	r3, [r4, #40]
 1894              		.loc 1 425 8 view .LVU579
 1895 00d6 E26A     		ldr	r2, [r4, #44]
 1896              		.loc 1 420 17 view .LVU580
 1897 00d8 5B44     		add	r3, r3, fp
 1898              		.loc 1 425 8 view .LVU581
 1899 00da 9A42     		cmp	r2, r3
 1900              		.loc 1 419 17 view .LVU582
 1901 00dc 5E44     		add	r6, r6, fp
 1902              	.LVL90:
 1903              		.loc 1 420 7 is_stmt 1 view .LVU583
 1904              		.loc 1 420 17 is_stmt 0 view .LVU584
 1905 00de A362     		str	r3, [r4, #40]
 1906              		.loc 1 421 7 is_stmt 1 view .LVU585
 1907              		.loc 1 421 17 is_stmt 0 view .LVU586
 1908 00e0 5D44     		add	r5, r5, fp
 1909              	.LVL91:
 1910              		.loc 1 425 5 is_stmt 1 view .LVU587
 1911              		.loc 1 425 8 is_stmt 0 view .LVU588
 1912 00e2 CAD8     		bhi	.L70
 1913              	.LVL92:
 1914              	.L89:
 1915              		.loc 1 426 7 is_stmt 1 view .LVU589
 1916              	.LBB716:
 1917              	.LBI685:
 1918              		.loc 1 269 8 view .LVU590
 1919              	.LBB687:
 1920              		.loc 1 271 23 view .LVU591
 1921              		.loc 1 272 3 view .LVU592
 1922              		.loc 1 272 3 view .LVU593
 1923              		.loc 1 272 3 view .LVU594
 1924              		.loc 1 275 3 view .LVU595
 1925              		.loc 1 276 16 is_stmt 0 view .LVU596
 1926 00e4 6369     		ldr	r3, [r4, #20]
 1927 00e6 E169     		ldr	r1, [r4, #28]
 1928              		.loc 1 275 7 view .LVU597
 1929 00e8 E268     		ldr	r2, [r4, #12]
 1930              		.loc 1 282 13 view .LVU598
 1931 00ea C4F82890 		str	r9, [r4, #40]
 1932              		.loc 1 276 16 view .LVU599
 1933 00ee 0B44     		add	r3, r3, r1
 1934              		.loc 1 277 6 view .LVU600
 1935 00f0 A169     		ldr	r1, [r4, #24]
 1936              		.loc 1 276 16 view .LVU601
 1937 00f2 6361     		str	r3, [r4, #20]
 1938              		.loc 1 277 6 view .LVU602
ARM GAS  /tmp/ccstZxWH.s 			page 35


 1939 00f4 8B42     		cmp	r3, r1
 1940              		.loc 1 278 18 view .LVU603
 1941 00f6 24BF     		itt	cs
 1942 00f8 636A     		ldrcs	r3, [r4, #36]
 1943 00fa 6361     		strcs	r3, [r4, #20]
 1944              		.loc 1 285 11 view .LVU604
 1945 00fc 236B     		ldr	r3, [r4, #48]
 1946              		.loc 1 275 17 view .LVU605
 1947 00fe 013A     		subs	r2, r2, #1
 1948 0100 E260     		str	r2, [r4, #12]
 1949              		.loc 1 276 3 is_stmt 1 view .LVU606
 1950              		.loc 1 277 3 view .LVU607
 1951              		.loc 1 278 5 view .LVU608
 1952              		.loc 1 282 3 view .LVU609
 1953              		.loc 1 285 3 view .LVU610
 1954              		.loc 1 285 6 is_stmt 0 view .LVU611
 1955 0102 002B     		cmp	r3, #0
 1956 0104 B9D0     		beq	.L70
 1957              		.loc 1 286 5 is_stmt 1 view .LVU612
 1958 0106 2046     		mov	r0, r4
 1959 0108 9847     		blx	r3
 1960              	.LVL93:
 1961 010a B6E7     		b	.L70
 1962              	.LVL94:
 1963              	.L62:
 1964              		.loc 1 286 5 is_stmt 0 view .LVU613
 1965              	.LBE687:
 1966              	.LBE716:
 1967              	.LBB717:
 1968              	.LBB661:
 1969              	.LBB662:
 1970              	.LBB663:
 1971              		.loc 1 228 8 view .LVU614
 1972 010c 237A     		ldrb	r3, [r4, #8]	@ zero_extendqisi2
 1973 010e 4BB9     		cbnz	r3, .L61
 1974              	.LBB664:
 1975              	.LBB665:
 1976              		.loc 2 784 10 view .LVU615
 1977 0110 FFF7FEFF 		bl	chThdEnqueueTimeoutS
 1978              	.LVL95:
 1979              		.loc 2 784 10 view .LVU616
 1980              	.LBE665:
 1981              	.LBE664:
 1982              		.loc 1 232 5 is_stmt 1 view .LVU617
 1983              		.loc 1 232 8 is_stmt 0 view .LVU618
 1984 0114 0028     		cmp	r0, #0
 1985 0116 05DB     		blt	.L61
 1986              	.LVL96:
 1987              	.L59:
 1988              		.loc 1 228 5 is_stmt 1 view .LVU619
 1989              		.loc 1 231 5 view .LVU620
 1990              	.LBB668:
 1991              	.LBI664:
 1992              		.loc 2 781 21 view .LVU621
 1993              	.LBB666:
 1994              		.loc 2 784 3 view .LVU622
 1995              	.LBE666:
ARM GAS  /tmp/ccstZxWH.s 			page 36


 1996              	.LBE668:
 1997              	.LBE663:
 1998              		.loc 1 227 9 view .LVU623
 1999              		.loc 1 227 10 is_stmt 0 view .LVU624
 2000 0118 E368     		ldr	r3, [r4, #12]
 2001              	.LBB670:
 2002              	.LBB669:
 2003              	.LBB667:
 2004              		.loc 2 784 10 view .LVU625
 2005 011a 4146     		mov	r1, r8
 2006 011c 2046     		mov	r0, r4
 2007              	.LBE667:
 2008              	.LBE669:
 2009              	.LBE670:
 2010              		.loc 1 227 9 view .LVU626
 2011 011e 002B     		cmp	r3, #0
 2012 0120 F4D0     		beq	.L62
 2013              	.LVL97:
 2014              		.loc 1 227 9 view .LVU627
 2015 0122 CCE7     		b	.L88
 2016              	.LVL98:
 2017              	.L61:
 2018              		.loc 1 227 9 view .LVU628
 2019              	.LBE662:
 2020              	.LBE661:
 2021              		.loc 1 396 7 is_stmt 1 view .LVU629
 2022              		.loc 1 397 9 view .LVU630
 2023              	.LBB671:
 2024              	.LBI671:
 2025              		.loc 2 502 20 view .LVU631
 2026              	.LBE671:
 2027              	.LBE717:
 2028              	.LBE732:
 2029              		.loc 2 504 3 view .LVU632
 2030              	.LBB733:
 2031              	.LBB718:
 2032              	.LBB680:
 2033              	.LBB672:
 2034              	.LBI672:
 2035              		.loc 5 386 20 view .LVU633
 2036              	.LBB673:
 2037              		.loc 5 388 22 view .LVU634
 2038              		.loc 5 389 33 view .LVU635
 2039              		.loc 5 395 3 view .LVU636
 2040              		.loc 5 395 3 view .LVU637
 2041              		.loc 5 395 3 view .LVU638
 2042              		.loc 5 399 3 view .LVU639
 2043              	.LBB674:
 2044              	.LBI674:
 2045              		.loc 6 618 20 view .LVU640
 2046              	.LBE674:
 2047              	.LBE673:
 2048              	.LBE672:
 2049              	.LBE680:
 2050              	.LBE718:
 2051              	.LBE733:
 2052              		.loc 6 621 3 view .LVU641
ARM GAS  /tmp/ccstZxWH.s 			page 37


 2053              	.LBB734:
 2054              	.LBB719:
 2055              	.LBB681:
 2056              	.LBB679:
 2057              	.LBB678:
 2058              	.LBB677:
 2059              	.LBB675:
 2060              	.LBI675:
 2061              		.loc 7 262 57 view .LVU642
 2062              	.LBB676:
 2063              		.loc 7 264 3 view .LVU643
 2064 0124 0023     		movs	r3, #0
 2065              		.syntax unified
 2066              	@ 264 "../../../os/common/ext/CMSIS/include/cmsis_gcc.h" 1
 2067 0126 83F31188 		MSR basepri, r3
 2068              	@ 0 "" 2
 2069              	.LVL99:
 2070              		.loc 7 264 3 is_stmt 0 view .LVU644
 2071              		.thumb
 2072              		.syntax unified
 2073              	.LBE676:
 2074              	.LBE675:
 2075              	.LBE677:
 2076              	.LBE678:
 2077              	.LBE679:
 2078              	.LBE681:
 2079              		.loc 1 398 9 is_stmt 1 view .LVU645
 2080              	.L56:
 2081              		.loc 1 398 9 is_stmt 0 view .LVU646
 2082              	.LBE719:
 2083              	.LBE734:
 2084              		.loc 1 436 1 view .LVU647
 2085 012a 2846     		mov	r0, r5
 2086 012c 03B0     		add	sp, sp, #12
 2087              		.cfi_remember_state
 2088              		.cfi_def_cfa_offset 36
 2089              		@ sp needed
 2090 012e BDE8F08F 		pop	{r4, r5, r6, r7, r8, r9, r10, fp, pc}
 2091              	.LVL100:
 2092              	.L91:
 2093              		.cfi_restore_state
 2094              	.LBB735:
 2095              	.LBB720:
 2096              	.LBB682:
 2097              		.loc 1 389 11 is_stmt 1 view .LVU648
 2098              	.LBB647:
 2099              	.LBI647:
 2100              		.loc 2 502 20 view .LVU649
 2101              	.LBE647:
 2102              	.LBE682:
 2103              	.LBE720:
 2104              	.LBE735:
 2105              		.loc 2 504 3 view .LVU650
 2106              	.LBB736:
 2107              	.LBB721:
 2108              	.LBB683:
 2109              	.LBB656:
ARM GAS  /tmp/ccstZxWH.s 			page 38


 2110              	.LBB648:
 2111              	.LBI648:
 2112              		.loc 5 386 20 view .LVU651
 2113              	.LBB649:
 2114              		.loc 5 388 22 view .LVU652
 2115              		.loc 5 389 33 view .LVU653
 2116              		.loc 5 395 3 view .LVU654
 2117              		.loc 5 395 3 view .LVU655
 2118              		.loc 5 395 3 view .LVU656
 2119              		.loc 5 399 3 view .LVU657
 2120              	.LBB650:
 2121              	.LBI650:
 2122              		.loc 6 618 20 view .LVU658
 2123              	.LBE650:
 2124              	.LBE649:
 2125              	.LBE648:
 2126              	.LBE656:
 2127              	.LBE683:
 2128              	.LBE721:
 2129              	.LBE736:
 2130              		.loc 6 621 3 view .LVU659
 2131              	.LBB737:
 2132              	.LBB722:
 2133              	.LBB684:
 2134              	.LBB657:
 2135              	.LBB655:
 2136              	.LBB654:
 2137              	.LBB653:
 2138              	.LBB651:
 2139              	.LBI651:
 2140              		.loc 7 262 57 view .LVU660
 2141              	.LBB652:
 2142              		.loc 7 264 3 view .LVU661
 2143              		.syntax unified
 2144              	@ 264 "../../../os/common/ext/CMSIS/include/cmsis_gcc.h" 1
 2145 0132 81F31188 		MSR basepri, r1
 2146              	@ 0 "" 2
 2147              	.LVL101:
 2148              		.loc 7 264 3 is_stmt 0 view .LVU662
 2149              		.thumb
 2150              		.syntax unified
 2151              	.LBE652:
 2152              	.LBE651:
 2153              	.LBE653:
 2154              	.LBE654:
 2155              	.LBE655:
 2156              	.LBE657:
 2157              		.loc 1 390 11 is_stmt 1 view .LVU663
 2158              	.LBE684:
 2159              	.LBE722:
 2160              	.LBE737:
 2161              		.loc 1 436 1 is_stmt 0 view .LVU664
 2162 0136 2846     		mov	r0, r5
 2163 0138 03B0     		add	sp, sp, #12
 2164              		.cfi_def_cfa_offset 36
 2165              		@ sp needed
 2166 013a BDE8F08F 		pop	{r4, r5, r6, r7, r8, r9, r10, fp, pc}
ARM GAS  /tmp/ccstZxWH.s 			page 39


 2167              		.loc 1 436 1 view .LVU665
 2168              		.cfi_endproc
 2169              	.LFE286:
 2170              		.size	ibqReadTimeout, .-ibqReadTimeout
 2171 013e 00BF     		.section	.text.obqObjectInit,"ax",%progbits
 2172              		.align	1
 2173              		.p2align 4,,15
 2174              		.global	obqObjectInit
 2175              		.syntax unified
 2176              		.thumb
 2177              		.thumb_func
 2178              		.fpu softvfp
 2179              		.type	obqObjectInit, %function
 2180              	obqObjectInit:
 2181              	.LVL102:
 2182              	.LFB287:
 2183              		.loc 1 452 72 is_stmt 1 view -0
 2184              		.cfi_startproc
 2185              		@ args = 12, pretend = 0, frame = 0
 2186              		@ frame_needed = 0, uses_anonymous_args = 0
 2187              		@ link register save eliminated.
 2188              		.loc 1 454 3 view .LVU667
 2189              		.loc 1 454 3 view .LVU668
 2190              		.loc 1 454 3 view .LVU669
 2191              		.loc 1 456 3 view .LVU670
 2192              		.loc 1 452 72 is_stmt 0 view .LVU671
 2193 0000 10B4     		push	{r4}
 2194              		.cfi_def_cfa_offset 4
 2195              		.cfi_offset 4, -4
 2196              		.loc 1 452 72 view .LVU672
 2197 0002 019C     		ldr	r4, [sp, #4]
 2198              	.LVL103:
 2199              	.LBB738:
 2200              	.LBI738:
 2201              		.loc 2 753 20 is_stmt 1 view .LVU673
 2202              	.LBE738:
 2203              		.loc 2 755 3 view .LVU674
 2204              	.LBB746:
 2205              	.LBB739:
 2206              	.LBI739:
 2207              		.loc 3 404 20 view .LVU675
 2208              	.LBE739:
 2209              	.LBE746:
 2210              		.loc 3 406 3 view .LVU676
 2211              	.LBB747:
 2212              	.LBB744:
 2213              	.LBB740:
 2214              	.LBI740:
 2215              		.loc 4 548 20 view .LVU677
 2216              	.LBB741:
 2217              		.loc 4 550 3 view .LVU678
 2218              	.LBE741:
 2219              	.LBE740:
 2220              	.LBE744:
 2221              	.LBE747:
 2222              		.loc 1 457 19 is_stmt 0 view .LVU679
 2223 0004 0172     		strb	r1, [r0, #8]
ARM GAS  /tmp/ccstZxWH.s 			page 40


 2224              		.loc 1 461 33 view .LVU680
 2225 0006 0433     		adds	r3, r3, #4
 2226              	.LVL104:
 2227              		.loc 1 461 24 view .LVU681
 2228 0008 04FB0321 		mla	r1, r4, r3, r2
 2229              	.LVL105:
 2230              		.loc 1 461 19 view .LVU682
 2231 000c 8161     		str	r1, [r0, #24]
 2232              		.loc 1 465 19 view .LVU683
 2233 000e 0021     		movs	r1, #0
 2234              		.loc 1 463 19 view .LVU684
 2235 0010 C0E90734 		strd	r3, r4, [r0, #28]
 2236              		.loc 1 460 19 view .LVU685
 2237 0014 C0E90422 		strd	r2, r2, [r0, #16]
 2238              		.loc 1 465 19 view .LVU686
 2239 0018 C0E90921 		strd	r2, r1, [r0, #36]
 2240              		.loc 1 452 72 view .LVU687
 2241 001c DDE90223 		ldrd	r2, r3, [sp, #8]
 2242              	.LVL106:
 2243              		.loc 1 458 19 view .LVU688
 2244 0020 C460     		str	r4, [r0, #12]
 2245              	.LBB748:
 2246              	.LBB745:
 2247              	.LBB743:
 2248              	.LBB742:
 2249              		.loc 4 551 13 view .LVU689
 2250 0022 C0E90000 		strd	r0, r0, [r0]
 2251              	.LVL107:
 2252              		.loc 4 551 13 view .LVU690
 2253              	.LBE742:
 2254              	.LBE743:
 2255              	.LBE745:
 2256              	.LBE748:
 2257              		.loc 1 457 3 is_stmt 1 view .LVU691
 2258              		.loc 1 458 3 view .LVU692
 2259              		.loc 1 459 3 view .LVU693
 2260              		.loc 1 461 3 view .LVU694
 2261              		.loc 1 462 3 view .LVU695
 2262              		.loc 1 464 3 view .LVU696
 2263              		.loc 1 466 3 view .LVU697
 2264              		.loc 1 468 19 is_stmt 0 view .LVU698
 2265 0026 C0E90C23 		strd	r2, r3, [r0, #48]
 2266              		.loc 1 469 1 view .LVU699
 2267 002a 10BC     		pop	{r4}
 2268              		.cfi_restore 4
 2269              		.cfi_def_cfa_offset 0
 2270              	.LVL108:
 2271              		.loc 1 466 19 view .LVU700
 2272 002c C162     		str	r1, [r0, #44]
 2273              		.loc 1 467 3 is_stmt 1 view .LVU701
 2274              		.loc 1 469 1 is_stmt 0 view .LVU702
 2275 002e 7047     		bx	lr
 2276              		.cfi_endproc
 2277              	.LFE287:
 2278              		.size	obqObjectInit, .-obqObjectInit
 2279              		.section	.text.obqResetI,"ax",%progbits
 2280              		.align	1
ARM GAS  /tmp/ccstZxWH.s 			page 41


 2281              		.p2align 4,,15
 2282              		.global	obqResetI
 2283              		.syntax unified
 2284              		.thumb
 2285              		.thumb_func
 2286              		.fpu softvfp
 2287              		.type	obqResetI, %function
 2288              	obqResetI:
 2289              	.LVL109:
 2290              	.LFB288:
 2291              		.loc 1 482 46 is_stmt 1 view -0
 2292              		.cfi_startproc
 2293              		@ args = 0, pretend = 0, frame = 0
 2294              		@ frame_needed = 0, uses_anonymous_args = 0
 2295              		@ link register save eliminated.
 2296              		.loc 1 484 23 view .LVU704
 2297              		.loc 1 486 3 view .LVU705
 2298              		.loc 1 486 19 is_stmt 0 view .LVU706
 2299 0000 D0E908C1 		ldrd	ip, r1, [r0, #32]
 2300              		.loc 1 489 19 view .LVU707
 2301 0004 0022     		movs	r2, #0
 2302              		.loc 1 488 19 view .LVU708
 2303 0006 C0E90411 		strd	r1, r1, [r0, #16]
 2304              		.loc 1 490 19 view .LVU709
 2305 000a C0E90A22 		strd	r2, r2, [r0, #40]
 2306              		.loc 1 486 19 view .LVU710
 2307 000e C0F80CC0 		str	ip, [r0, #12]
 2308              		.loc 1 487 3 is_stmt 1 view .LVU711
 2309              		.loc 1 489 3 view .LVU712
 2310              		.loc 1 491 3 view .LVU713
 2311              	.LVL110:
 2312              	.LBB749:
 2313              	.LBI749:
 2314              		.loc 2 808 20 view .LVU714
 2315              	.LBB750:
 2316              		.loc 2 810 3 view .LVU715
 2317 0012 6FF00101 		mvn	r1, #1
 2318 0016 FFF7FEBF 		b	chThdDequeueAllI
 2319              	.LVL111:
 2320              		.loc 2 810 3 is_stmt 0 view .LVU716
 2321              	.LBE750:
 2322              	.LBE749:
 2323              		.cfi_endproc
 2324              	.LFE288:
 2325              		.size	obqResetI, .-obqResetI
 2326 001a 00BF     		.section	.text.obqGetFullBufferI,"ax",%progbits
 2327              		.align	1
 2328              		.p2align 4,,15
 2329              		.global	obqGetFullBufferI
 2330              		.syntax unified
 2331              		.thumb
 2332              		.thumb_func
 2333              		.fpu softvfp
 2334              		.type	obqGetFullBufferI, %function
 2335              	obqGetFullBufferI:
 2336              	.LVL112:
 2337              	.LFB289:
ARM GAS  /tmp/ccstZxWH.s 			page 42


 2338              		.loc 1 506 43 is_stmt 1 view -0
 2339              		.cfi_startproc
 2340              		@ args = 0, pretend = 0, frame = 0
 2341              		@ frame_needed = 0, uses_anonymous_args = 0
 2342              		@ link register save eliminated.
 2343              		.loc 1 508 23 view .LVU718
 2344              		.loc 1 510 3 view .LVU719
 2345              		.loc 1 506 43 is_stmt 0 view .LVU720
 2346 0000 0346     		mov	r3, r0
 2347              		.loc 1 510 7 view .LVU721
 2348 0002 D0E90420 		ldrd	r2, r0, [r0, #16]
 2349              	.LVL113:
 2350              		.loc 1 510 7 view .LVU722
 2351 0006 8242     		cmp	r2, r0
 2352 0008 03D0     		beq	.L101
 2353              	.LVL114:
 2354              	.L96:
 2355              		.loc 1 515 3 is_stmt 1 view .LVU723
 2356              		.loc 1 515 12 is_stmt 0 view .LVU724
 2357 000a 50F8043B 		ldr	r3, [r0], #4
 2358              		.loc 1 515 10 view .LVU725
 2359 000e 0B60     		str	r3, [r1]
 2360              		.loc 1 517 3 is_stmt 1 view .LVU726
 2361              		.loc 1 518 1 is_stmt 0 view .LVU727
 2362 0010 7047     		bx	lr
 2363              	.LVL115:
 2364              	.L101:
 2365              		.loc 1 510 7 discriminator 1 view .LVU728
 2366 0012 DB68     		ldr	r3, [r3, #12]
 2367              	.LVL116:
 2368              		.loc 1 510 7 discriminator 1 view .LVU729
 2369 0014 002B     		cmp	r3, #0
 2370 0016 F8D0     		beq	.L96
 2371              		.loc 1 511 12 view .LVU730
 2372 0018 0020     		movs	r0, #0
 2373 001a 7047     		bx	lr
 2374              		.cfi_endproc
 2375              	.LFE289:
 2376              		.size	obqGetFullBufferI, .-obqGetFullBufferI
 2377              		.section	.text.obqReleaseEmptyBufferI,"ax",%progbits
 2378              		.align	1
 2379              		.p2align 4,,15
 2380              		.global	obqReleaseEmptyBufferI
 2381              		.syntax unified
 2382              		.thumb
 2383              		.thumb_func
 2384              		.fpu softvfp
 2385              		.type	obqReleaseEmptyBufferI, %function
 2386              	obqReleaseEmptyBufferI:
 2387              	.LVL117:
 2388              	.LFB290:
 2389              		.loc 1 527 59 is_stmt 1 view -0
 2390              		.cfi_startproc
 2391              		@ args = 0, pretend = 0, frame = 0
 2392              		@ frame_needed = 0, uses_anonymous_args = 0
 2393              		@ link register save eliminated.
 2394              		.loc 1 529 23 view .LVU732
ARM GAS  /tmp/ccstZxWH.s 			page 43


 2395              		.loc 1 530 3 view .LVU733
 2396              		.loc 1 530 3 view .LVU734
 2397              		.loc 1 530 3 view .LVU735
 2398              		.loc 1 533 3 view .LVU736
 2399              		.loc 1 535 6 is_stmt 0 view .LVU737
 2400 0000 D0E90531 		ldrd	r3, r1, [r0, #20]
 2401              		.loc 1 534 16 view .LVU738
 2402 0004 D0F81CC0 		ldr	ip, [r0, #28]
 2403              		.loc 1 533 7 view .LVU739
 2404 0008 C268     		ldr	r2, [r0, #12]
 2405              		.loc 1 534 16 view .LVU740
 2406 000a 6344     		add	r3, r3, ip
 2407              		.loc 1 535 6 view .LVU741
 2408 000c 8B42     		cmp	r3, r1
 2409              		.loc 1 534 16 view .LVU742
 2410 000e 4361     		str	r3, [r0, #20]
 2411              		.loc 1 533 17 view .LVU743
 2412 0010 02F10102 		add	r2, r2, #1
 2413              		.loc 1 536 18 view .LVU744
 2414 0014 28BF     		it	cs
 2415 0016 436A     		ldrcs	r3, [r0, #36]
 2416              		.loc 1 533 17 view .LVU745
 2417 0018 C260     		str	r2, [r0, #12]
 2418              		.loc 1 534 3 is_stmt 1 view .LVU746
 2419              		.loc 1 535 3 view .LVU747
 2420              		.loc 1 536 5 view .LVU748
 2421              		.loc 1 536 18 is_stmt 0 view .LVU749
 2422 001a 28BF     		it	cs
 2423 001c 4361     		strcs	r3, [r0, #20]
 2424              		.loc 1 540 3 is_stmt 1 view .LVU750
 2425              	.LVL118:
 2426              	.LBB751:
 2427              	.LBI751:
 2428              		.loc 2 795 20 view .LVU751
 2429              	.LBB752:
 2430              		.loc 2 797 3 view .LVU752
 2431 001e 0021     		movs	r1, #0
 2432 0020 FFF7FEBF 		b	chThdDequeueNextI
 2433              	.LVL119:
 2434              		.loc 2 797 3 is_stmt 0 view .LVU753
 2435              	.LBE752:
 2436              	.LBE751:
 2437              		.cfi_endproc
 2438              	.LFE290:
 2439              		.size	obqReleaseEmptyBufferI, .-obqReleaseEmptyBufferI
 2440              		.section	.text.obqGetEmptyBufferTimeout,"ax",%progbits
 2441              		.align	1
 2442              		.p2align 4,,15
 2443              		.global	obqGetEmptyBufferTimeout
 2444              		.syntax unified
 2445              		.thumb
 2446              		.thumb_func
 2447              		.fpu softvfp
 2448              		.type	obqGetEmptyBufferTimeout, %function
 2449              	obqGetEmptyBufferTimeout:
 2450              	.LVL120:
 2451              	.LFB291:
ARM GAS  /tmp/ccstZxWH.s 			page 44


 2452              		.loc 1 565 52 is_stmt 1 view -0
 2453              		.cfi_startproc
 2454              		@ args = 0, pretend = 0, frame = 0
 2455              		@ frame_needed = 0, uses_anonymous_args = 0
 2456              		.loc 1 565 52 is_stmt 0 view .LVU755
 2457 0000 38B5     		push	{r3, r4, r5, lr}
 2458              		.cfi_def_cfa_offset 16
 2459              		.cfi_offset 3, -16
 2460              		.cfi_offset 4, -12
 2461              		.cfi_offset 5, -8
 2462              		.cfi_offset 14, -4
 2463              		.loc 1 565 52 view .LVU756
 2464 0002 0446     		mov	r4, r0
 2465              		.loc 1 566 3 is_stmt 1 view .LVU757
 2466              		.loc 1 568 3 view .LVU758
 2467              	.LBB774:
 2468              	.LBI774:
 2469              		.loc 2 491 20 view .LVU759
 2470              	.LBE774:
 2471              		.loc 2 493 3 view .LVU760
 2472              	.LBB786:
 2473              	.LBB775:
 2474              	.LBI775:
 2475              		.loc 5 374 20 view .LVU761
 2476              	.LBE775:
 2477              	.LBE786:
 2478              		.loc 5 376 3 view .LVU762
 2479              	.LBB787:
 2480              	.LBB783:
 2481              	.LBB776:
 2482              	.LBI776:
 2483              		.loc 6 594 20 view .LVU763
 2484              	.LBE776:
 2485              	.LBE783:
 2486              	.LBE787:
 2487              		.loc 6 602 3 view .LVU764
 2488              	.LVL121:
 2489              	.LBB788:
 2490              	.LBB784:
 2491              	.LBB781:
 2492              	.LBB777:
 2493              	.LBI777:
 2494              		.loc 7 262 57 view .LVU765
 2495              	.LBB778:
 2496              		.loc 7 264 3 view .LVU766
 2497              	.LBE778:
 2498              	.LBE777:
 2499              	.LBE781:
 2500              	.LBE784:
 2501              	.LBE788:
 2502              		.loc 1 565 52 is_stmt 0 view .LVU767
 2503 0004 0D46     		mov	r5, r1
 2504              	.LBB789:
 2505              	.LBB785:
 2506              	.LBB782:
 2507              	.LBB780:
 2508              	.LBB779:
ARM GAS  /tmp/ccstZxWH.s 			page 45


 2509              		.loc 7 264 3 view .LVU768
 2510 0006 2023     		movs	r3, #32
 2511              		.syntax unified
 2512              	@ 264 "../../../os/common/ext/CMSIS/include/cmsis_gcc.h" 1
 2513 0008 83F31188 		MSR basepri, r3
 2514              	@ 0 "" 2
 2515              	.LVL122:
 2516              		.loc 7 264 3 view .LVU769
 2517              		.thumb
 2518              		.syntax unified
 2519              	.LBE779:
 2520              	.LBE780:
 2521              	.LBE782:
 2522              	.LBE785:
 2523              	.LBE789:
 2524              		.loc 5 377 34 is_stmt 1 view .LVU770
 2525              		.loc 5 378 20 view .LVU771
 2526              		.loc 1 569 3 view .LVU772
 2527              	.LBB790:
 2528              	.LBI790:
 2529              		.loc 1 596 7 view .LVU773
 2530              	.LBB791:
 2531              		.loc 1 599 23 view .LVU774
 2532              		.loc 1 601 3 view .LVU775
 2533              		.loc 1 601 9 is_stmt 0 view .LVU776
 2534 000c 05E0     		b	.L105
 2535              	.LVL123:
 2536              	.L107:
 2537              	.LBB792:
 2538              		.loc 1 602 8 view .LVU777
 2539 000e 237A     		ldrb	r3, [r4, #8]	@ zero_extendqisi2
 2540 0010 9BB9     		cbnz	r3, .L108
 2541              	.LBB793:
 2542              	.LBB794:
 2543              		.loc 2 784 10 view .LVU778
 2544 0012 FFF7FEFF 		bl	chThdEnqueueTimeoutS
 2545              	.LVL124:
 2546              		.loc 2 784 10 view .LVU779
 2547              	.LBE794:
 2548              	.LBE793:
 2549              		.loc 1 606 5 is_stmt 1 view .LVU780
 2550              		.loc 1 606 8 is_stmt 0 view .LVU781
 2551 0016 0028     		cmp	r0, #0
 2552              		.loc 1 606 8 view .LVU782
 2553 0018 0BDB     		blt	.L106
 2554              	.LVL125:
 2555              	.L105:
 2556              		.loc 1 602 5 is_stmt 1 view .LVU783
 2557              		.loc 1 605 5 view .LVU784
 2558              	.LBB797:
 2559              	.LBI793:
 2560              		.loc 2 781 21 view .LVU785
 2561              	.LBB795:
 2562              		.loc 2 784 3 view .LVU786
 2563              	.LBE795:
 2564              	.LBE797:
 2565              	.LBE792:
ARM GAS  /tmp/ccstZxWH.s 			page 46


 2566              		.loc 1 601 9 view .LVU787
 2567              		.loc 1 601 10 is_stmt 0 view .LVU788
 2568 001a E368     		ldr	r3, [r4, #12]
 2569              	.LBB799:
 2570              	.LBB798:
 2571              	.LBB796:
 2572              		.loc 2 784 10 view .LVU789
 2573 001c 2946     		mov	r1, r5
 2574 001e 2046     		mov	r0, r4
 2575              	.LBE796:
 2576              	.LBE798:
 2577              	.LBE799:
 2578              		.loc 1 601 9 view .LVU790
 2579 0020 002B     		cmp	r3, #0
 2580 0022 F4D0     		beq	.L107
 2581              	.LVL126:
 2582              	.LBB800:
 2583              	.LBI800:
 2584              		.loc 1 596 7 is_stmt 1 view .LVU791
 2585              	.LBB801:
 2586              		.loc 1 611 3 view .LVU792
 2587              		.loc 1 611 3 view .LVU793
 2588              		.loc 1 611 3 view .LVU794
 2589              		.loc 1 614 3 view .LVU795
 2590              		.loc 1 614 19 is_stmt 0 view .LVU796
 2591 0024 2369     		ldr	r3, [r4, #16]
 2592              		.loc 1 615 28 view .LVU797
 2593 0026 E169     		ldr	r1, [r4, #28]
 2594              	.LVL127:
 2595              		.loc 1 614 28 view .LVU798
 2596 0028 1A1D     		adds	r2, r3, #4
 2597              		.loc 1 615 28 view .LVU799
 2598 002a 0B44     		add	r3, r3, r1
 2599              		.loc 1 615 13 view .LVU800
 2600 002c C4E90A23 		strd	r2, r3, [r4, #40]
 2601              		.loc 1 617 3 is_stmt 1 view .LVU801
 2602              	.LVL128:
 2603              		.loc 1 615 13 is_stmt 0 view .LVU802
 2604 0030 0020     		movs	r0, #0
 2605              	.LVL129:
 2606              	.L106:
 2607              		.loc 1 615 13 view .LVU803
 2608              	.LBE801:
 2609              	.LBE800:
 2610              	.LBE791:
 2611              	.LBE790:
 2612              		.loc 1 570 3 is_stmt 1 view .LVU804
 2613              	.LBB804:
 2614              	.LBI804:
 2615              		.loc 2 502 20 view .LVU805
 2616              	.LBE804:
 2617              		.loc 2 504 3 view .LVU806
 2618              	.LBB821:
 2619              	.LBB805:
 2620              	.LBI805:
 2621              		.loc 5 386 20 view .LVU807
 2622              	.LBB806:
ARM GAS  /tmp/ccstZxWH.s 			page 47


 2623              		.loc 5 388 22 view .LVU808
 2624              		.loc 5 389 33 view .LVU809
 2625              		.loc 5 395 3 view .LVU810
 2626              		.loc 5 395 3 view .LVU811
 2627              		.loc 5 395 3 view .LVU812
 2628              		.loc 5 399 3 view .LVU813
 2629              	.LBB807:
 2630              	.LBI807:
 2631              		.loc 6 618 20 view .LVU814
 2632              	.LBE807:
 2633              	.LBE806:
 2634              	.LBE805:
 2635              	.LBE821:
 2636              		.loc 6 621 3 view .LVU815
 2637              	.LBB822:
 2638              	.LBB818:
 2639              	.LBB815:
 2640              	.LBB812:
 2641              	.LBB808:
 2642              	.LBI808:
 2643              		.loc 7 262 57 view .LVU816
 2644              	.LBB809:
 2645              		.loc 7 264 3 view .LVU817
 2646 0032 0023     		movs	r3, #0
 2647              		.syntax unified
 2648              	@ 264 "../../../os/common/ext/CMSIS/include/cmsis_gcc.h" 1
 2649 0034 83F31188 		MSR basepri, r3
 2650              	@ 0 "" 2
 2651              	.LVL130:
 2652              		.loc 7 264 3 is_stmt 0 view .LVU818
 2653              		.thumb
 2654              		.syntax unified
 2655              	.LBE809:
 2656              	.LBE808:
 2657              	.LBE812:
 2658              	.LBE815:
 2659              	.LBE818:
 2660              	.LBE822:
 2661              		.loc 1 572 3 is_stmt 1 view .LVU819
 2662              		.loc 1 573 1 is_stmt 0 view .LVU820
 2663 0038 38BD     		pop	{r3, r4, r5, pc}
 2664              	.LVL131:
 2665              	.L108:
 2666              	.LBB823:
 2667              	.LBB803:
 2668              	.LBB802:
 2669              		.loc 1 603 14 view .LVU821
 2670 003a 6FF00100 		mvn	r0, #1
 2671              	.LVL132:
 2672              		.loc 1 603 14 view .LVU822
 2673              	.LBE802:
 2674              	.LBE803:
 2675              	.LBE823:
 2676              		.loc 1 570 3 is_stmt 1 view .LVU823
 2677              	.LBB824:
 2678              		.loc 2 502 20 view .LVU824
 2679              	.LBE824:
ARM GAS  /tmp/ccstZxWH.s 			page 48


 2680              		.loc 2 504 3 view .LVU825
 2681              	.LBB825:
 2682              	.LBB819:
 2683              		.loc 5 386 20 view .LVU826
 2684              	.LBB816:
 2685              		.loc 5 388 22 view .LVU827
 2686              		.loc 5 389 33 view .LVU828
 2687              		.loc 5 395 3 view .LVU829
 2688              		.loc 5 395 3 view .LVU830
 2689              		.loc 5 395 3 view .LVU831
 2690              		.loc 5 399 3 view .LVU832
 2691              	.LBB813:
 2692              		.loc 6 618 20 view .LVU833
 2693              	.LBE813:
 2694              	.LBE816:
 2695              	.LBE819:
 2696              	.LBE825:
 2697              		.loc 6 621 3 view .LVU834
 2698              	.LBB826:
 2699              	.LBB820:
 2700              	.LBB817:
 2701              	.LBB814:
 2702              	.LBB811:
 2703              		.loc 7 262 57 view .LVU835
 2704              	.LBB810:
 2705              		.loc 7 264 3 view .LVU836
 2706 003e 0023     		movs	r3, #0
 2707              		.syntax unified
 2708              	@ 264 "../../../os/common/ext/CMSIS/include/cmsis_gcc.h" 1
 2709 0040 83F31188 		MSR basepri, r3
 2710              	@ 0 "" 2
 2711              	.LVL133:
 2712              		.loc 7 264 3 is_stmt 0 view .LVU837
 2713              		.thumb
 2714              		.syntax unified
 2715              	.LBE810:
 2716              	.LBE811:
 2717              	.LBE814:
 2718              	.LBE817:
 2719              	.LBE820:
 2720              	.LBE826:
 2721              		.loc 1 572 3 is_stmt 1 view .LVU838
 2722              		.loc 1 573 1 is_stmt 0 view .LVU839
 2723 0044 38BD     		pop	{r3, r4, r5, pc}
 2724              		.loc 1 573 1 view .LVU840
 2725              		.cfi_endproc
 2726              	.LFE291:
 2727              		.size	obqGetEmptyBufferTimeout, .-obqGetEmptyBufferTimeout
 2728 0046 00BF     		.section	.text.obqGetEmptyBufferTimeoutS,"ax",%progbits
 2729              		.align	1
 2730              		.p2align 4,,15
 2731              		.global	obqGetEmptyBufferTimeoutS
 2732              		.syntax unified
 2733              		.thumb
 2734              		.thumb_func
 2735              		.fpu softvfp
 2736              		.type	obqGetEmptyBufferTimeoutS, %function
ARM GAS  /tmp/ccstZxWH.s 			page 49


 2737              	obqGetEmptyBufferTimeoutS:
 2738              	.LVL134:
 2739              	.LFB292:
 2740              		.loc 1 597 52 is_stmt 1 view -0
 2741              		.cfi_startproc
 2742              		@ args = 0, pretend = 0, frame = 0
 2743              		@ frame_needed = 0, uses_anonymous_args = 0
 2744              		.loc 1 597 52 is_stmt 0 view .LVU842
 2745 0000 38B5     		push	{r3, r4, r5, lr}
 2746              		.cfi_def_cfa_offset 16
 2747              		.cfi_offset 3, -16
 2748              		.cfi_offset 4, -12
 2749              		.cfi_offset 5, -8
 2750              		.cfi_offset 14, -4
 2751              		.loc 1 597 52 view .LVU843
 2752 0002 0446     		mov	r4, r0
 2753              		.loc 1 599 23 is_stmt 1 view .LVU844
 2754              		.loc 1 601 3 view .LVU845
 2755              		.loc 1 597 52 is_stmt 0 view .LVU846
 2756 0004 0D46     		mov	r5, r1
 2757              		.loc 1 601 9 view .LVU847
 2758 0006 05E0     		b	.L111
 2759              	.LVL135:
 2760              	.L113:
 2761              	.LBB838:
 2762              		.loc 1 602 8 view .LVU848
 2763 0008 237A     		ldrb	r3, [r4, #8]	@ zero_extendqisi2
 2764 000a 83B9     		cbnz	r3, .L114
 2765              	.LBB839:
 2766              	.LBB840:
 2767              		.loc 2 784 10 view .LVU849
 2768 000c FFF7FEFF 		bl	chThdEnqueueTimeoutS
 2769              	.LVL136:
 2770              		.loc 2 784 10 view .LVU850
 2771              	.LBE840:
 2772              	.LBE839:
 2773              		.loc 1 606 5 is_stmt 1 view .LVU851
 2774              		.loc 1 606 8 is_stmt 0 view .LVU852
 2775 0010 0028     		cmp	r0, #0
 2776              		.loc 1 606 8 view .LVU853
 2777 0012 0BDB     		blt	.L110
 2778              	.LVL137:
 2779              	.L111:
 2780              		.loc 1 602 5 is_stmt 1 view .LVU854
 2781              		.loc 1 605 5 view .LVU855
 2782              	.LBB843:
 2783              	.LBI839:
 2784              		.loc 2 781 21 view .LVU856
 2785              	.LBB841:
 2786              		.loc 2 784 3 view .LVU857
 2787              	.LBE841:
 2788              	.LBE843:
 2789              	.LBE838:
 2790              		.loc 1 601 9 view .LVU858
 2791              		.loc 1 601 10 is_stmt 0 view .LVU859
 2792 0014 E368     		ldr	r3, [r4, #12]
 2793              	.LBB845:
ARM GAS  /tmp/ccstZxWH.s 			page 50


 2794              	.LBB844:
 2795              	.LBB842:
 2796              		.loc 2 784 10 view .LVU860
 2797 0016 2946     		mov	r1, r5
 2798 0018 2046     		mov	r0, r4
 2799              	.LBE842:
 2800              	.LBE844:
 2801              	.LBE845:
 2802              		.loc 1 601 9 view .LVU861
 2803 001a 002B     		cmp	r3, #0
 2804 001c F4D0     		beq	.L113
 2805              	.LVL138:
 2806              	.LBB846:
 2807              	.LBI846:
 2808              		.loc 1 596 7 is_stmt 1 view .LVU862
 2809              	.LBB847:
 2810              		.loc 1 611 3 view .LVU863
 2811              		.loc 1 611 3 view .LVU864
 2812              		.loc 1 611 3 view .LVU865
 2813              		.loc 1 614 3 view .LVU866
 2814              		.loc 1 614 19 is_stmt 0 view .LVU867
 2815 001e 2369     		ldr	r3, [r4, #16]
 2816              		.loc 1 615 28 view .LVU868
 2817 0020 E169     		ldr	r1, [r4, #28]
 2818              	.LVL139:
 2819              		.loc 1 614 28 view .LVU869
 2820 0022 1A1D     		adds	r2, r3, #4
 2821              		.loc 1 615 28 view .LVU870
 2822 0024 0B44     		add	r3, r3, r1
 2823              		.loc 1 615 13 view .LVU871
 2824 0026 C4E90A23 		strd	r2, r3, [r4, #40]
 2825              		.loc 1 617 3 is_stmt 1 view .LVU872
 2826              	.LVL140:
 2827              		.loc 1 615 13 is_stmt 0 view .LVU873
 2828 002a 0020     		movs	r0, #0
 2829              	.LVL141:
 2830              	.L110:
 2831              		.loc 1 615 13 view .LVU874
 2832              	.LBE847:
 2833              	.LBE846:
 2834              		.loc 1 618 1 view .LVU875
 2835 002c 38BD     		pop	{r3, r4, r5, pc}
 2836              	.LVL142:
 2837              	.L114:
 2838              	.LBB848:
 2839              		.loc 1 603 14 view .LVU876
 2840 002e 6FF00100 		mvn	r0, #1
 2841              	.LVL143:
 2842              		.loc 1 603 14 view .LVU877
 2843              	.LBE848:
 2844              		.loc 1 618 1 view .LVU878
 2845 0032 38BD     		pop	{r3, r4, r5, pc}
 2846              		.loc 1 618 1 view .LVU879
 2847              		.cfi_endproc
 2848              	.LFE292:
 2849              		.size	obqGetEmptyBufferTimeoutS, .-obqGetEmptyBufferTimeoutS
 2850              		.section	.text.obqPostFullBuffer,"ax",%progbits
ARM GAS  /tmp/ccstZxWH.s 			page 51


 2851              		.align	1
 2852              		.p2align 4,,15
 2853              		.global	obqPostFullBuffer
 2854              		.syntax unified
 2855              		.thumb
 2856              		.thumb_func
 2857              		.fpu softvfp
 2858              		.type	obqPostFullBuffer, %function
 2859              	obqPostFullBuffer:
 2860              	.LVL144:
 2861              	.LFB293:
 2862              		.loc 1 629 67 is_stmt 1 view -0
 2863              		.cfi_startproc
 2864              		@ args = 0, pretend = 0, frame = 0
 2865              		@ frame_needed = 0, uses_anonymous_args = 0
 2866              		.loc 1 631 3 view .LVU881
 2867              	.LBB862:
 2868              	.LBI862:
 2869              		.loc 2 491 20 view .LVU882
 2870              	.LBE862:
 2871              		.loc 2 493 3 view .LVU883
 2872              	.LBB874:
 2873              	.LBB863:
 2874              	.LBI863:
 2875              		.loc 5 374 20 view .LVU884
 2876              	.LBE863:
 2877              	.LBE874:
 2878              		.loc 5 376 3 view .LVU885
 2879              	.LBB875:
 2880              	.LBB871:
 2881              	.LBB864:
 2882              	.LBI864:
 2883              		.loc 6 594 20 view .LVU886
 2884              	.LBE864:
 2885              	.LBE871:
 2886              	.LBE875:
 2887              		.loc 6 602 3 view .LVU887
 2888              	.LBB876:
 2889              	.LBB872:
 2890              	.LBB869:
 2891              	.LBB865:
 2892              	.LBI865:
 2893              		.loc 7 262 57 view .LVU888
 2894              	.LBB866:
 2895              		.loc 7 264 3 view .LVU889
 2896              	.LBE866:
 2897              	.LBE865:
 2898              	.LBE869:
 2899              	.LBE872:
 2900              	.LBE876:
 2901              		.loc 1 629 67 is_stmt 0 view .LVU890
 2902 0000 10B5     		push	{r4, lr}
 2903              		.cfi_def_cfa_offset 8
 2904              		.cfi_offset 4, -8
 2905              		.cfi_offset 14, -4
 2906              	.LBB877:
 2907              	.LBB873:
ARM GAS  /tmp/ccstZxWH.s 			page 52


 2908              	.LBB870:
 2909              	.LBB868:
 2910              	.LBB867:
 2911              		.loc 7 264 3 view .LVU891
 2912 0002 2023     		movs	r3, #32
 2913              		.syntax unified
 2914              	@ 264 "../../../os/common/ext/CMSIS/include/cmsis_gcc.h" 1
 2915 0004 83F31188 		MSR basepri, r3
 2916              	@ 0 "" 2
 2917              	.LVL145:
 2918              		.loc 7 264 3 view .LVU892
 2919              		.thumb
 2920              		.syntax unified
 2921              	.LBE867:
 2922              	.LBE868:
 2923              	.LBE870:
 2924              	.LBE873:
 2925              	.LBE877:
 2926              		.loc 5 377 34 is_stmt 1 view .LVU893
 2927              		.loc 5 378 20 view .LVU894
 2928              		.loc 1 632 3 view .LVU895
 2929              	.LBB878:
 2930              	.LBI878:
 2931              		.loc 1 645 6 view .LVU896
 2932              	.LBB879:
 2933              		.loc 1 647 23 view .LVU897
 2934              		.loc 1 648 3 view .LVU898
 2935              		.loc 1 648 3 view .LVU899
 2936              		.loc 1 648 3 view .LVU900
 2937              		.loc 1 649 3 view .LVU901
 2938              		.loc 1 649 3 view .LVU902
 2939              		.loc 1 649 3 view .LVU903
 2940              		.loc 1 652 3 view .LVU904
 2941              		.loc 1 652 19 is_stmt 0 view .LVU905
 2942 0008 0369     		ldr	r3, [r0, #16]
 2943              		.loc 1 657 6 view .LVU906
 2944 000a 8469     		ldr	r4, [r0, #24]
 2945              		.loc 1 652 29 view .LVU907
 2946 000c 1960     		str	r1, [r3]
 2947              		.loc 1 655 3 is_stmt 1 view .LVU908
 2948              		.loc 1 656 16 is_stmt 0 view .LVU909
 2949 000e C169     		ldr	r1, [r0, #28]
 2950              	.LVL146:
 2951              		.loc 1 655 7 view .LVU910
 2952 0010 C268     		ldr	r2, [r0, #12]
 2953              		.loc 1 656 16 view .LVU911
 2954 0012 0B44     		add	r3, r3, r1
 2955              	.LVL147:
 2956              		.loc 1 657 6 view .LVU912
 2957 0014 A342     		cmp	r3, r4
 2958              		.loc 1 656 16 view .LVU913
 2959 0016 0361     		str	r3, [r0, #16]
 2960              	.LVL148:
 2961              		.loc 1 658 18 view .LVU914
 2962 0018 24BF     		itt	cs
 2963 001a 436A     		ldrcs	r3, [r0, #36]
 2964 001c 0361     		strcs	r3, [r0, #16]
ARM GAS  /tmp/ccstZxWH.s 			page 53


 2965              		.loc 1 655 17 view .LVU915
 2966 001e 013A     		subs	r2, r2, #1
 2967              		.loc 1 665 11 view .LVU916
 2968 0020 036B     		ldr	r3, [r0, #48]
 2969              		.loc 1 655 17 view .LVU917
 2970 0022 C260     		str	r2, [r0, #12]
 2971              		.loc 1 656 3 is_stmt 1 view .LVU918
 2972              		.loc 1 657 3 view .LVU919
 2973              		.loc 1 658 5 view .LVU920
 2974              		.loc 1 662 3 view .LVU921
 2975              		.loc 1 662 13 is_stmt 0 view .LVU922
 2976 0024 0022     		movs	r2, #0
 2977 0026 8262     		str	r2, [r0, #40]
 2978              		.loc 1 665 3 is_stmt 1 view .LVU923
 2979              		.loc 1 665 6 is_stmt 0 view .LVU924
 2980 0028 03B1     		cbz	r3, .L118
 2981              		.loc 1 666 5 is_stmt 1 view .LVU925
 2982 002a 9847     		blx	r3
 2983              	.LVL149:
 2984              	.L118:
 2985              		.loc 1 666 5 is_stmt 0 view .LVU926
 2986              	.LBE879:
 2987              	.LBE878:
 2988              		.loc 1 633 3 is_stmt 1 view .LVU927
 2989              	.LBB880:
 2990              	.LBI880:
 2991              		.loc 2 502 20 view .LVU928
 2992              	.LBE880:
 2993              		.loc 2 504 3 view .LVU929
 2994              	.LBB889:
 2995              	.LBB881:
 2996              	.LBI881:
 2997              		.loc 5 386 20 view .LVU930
 2998              	.LBB882:
 2999              		.loc 5 388 22 view .LVU931
 3000              		.loc 5 389 33 view .LVU932
 3001              		.loc 5 395 3 view .LVU933
 3002              		.loc 5 395 3 view .LVU934
 3003              		.loc 5 395 3 view .LVU935
 3004              		.loc 5 399 3 view .LVU936
 3005              	.LBB883:
 3006              	.LBI883:
 3007              		.loc 6 618 20 view .LVU937
 3008              	.LBE883:
 3009              	.LBE882:
 3010              	.LBE881:
 3011              	.LBE889:
 3012              		.loc 6 621 3 view .LVU938
 3013              	.LBB890:
 3014              	.LBB888:
 3015              	.LBB887:
 3016              	.LBB886:
 3017              	.LBB884:
 3018              	.LBI884:
 3019              		.loc 7 262 57 view .LVU939
 3020              	.LBB885:
 3021              		.loc 7 264 3 view .LVU940
ARM GAS  /tmp/ccstZxWH.s 			page 54


 3022 002c 0023     		movs	r3, #0
 3023              		.syntax unified
 3024              	@ 264 "../../../os/common/ext/CMSIS/include/cmsis_gcc.h" 1
 3025 002e 83F31188 		MSR basepri, r3
 3026              	@ 0 "" 2
 3027              	.LVL150:
 3028              		.loc 7 264 3 is_stmt 0 view .LVU941
 3029              		.thumb
 3030              		.syntax unified
 3031              	.LBE885:
 3032              	.LBE884:
 3033              	.LBE886:
 3034              	.LBE887:
 3035              	.LBE888:
 3036              	.LBE890:
 3037              		.loc 1 634 1 view .LVU942
 3038 0032 10BD     		pop	{r4, pc}
 3039              		.cfi_endproc
 3040              	.LFE293:
 3041              		.size	obqPostFullBuffer, .-obqPostFullBuffer
 3042              		.section	.text.obqPostFullBufferS,"ax",%progbits
 3043              		.align	1
 3044              		.p2align 4,,15
 3045              		.global	obqPostFullBufferS
 3046              		.syntax unified
 3047              		.thumb
 3048              		.thumb_func
 3049              		.fpu softvfp
 3050              		.type	obqPostFullBufferS, %function
 3051              	obqPostFullBufferS:
 3052              	.LVL151:
 3053              	.LFB294:
 3054              		.loc 1 645 68 is_stmt 1 view -0
 3055              		.cfi_startproc
 3056              		@ args = 0, pretend = 0, frame = 0
 3057              		@ frame_needed = 0, uses_anonymous_args = 0
 3058              		@ link register save eliminated.
 3059              		.loc 1 647 23 view .LVU944
 3060              		.loc 1 648 3 view .LVU945
 3061              		.loc 1 648 3 view .LVU946
 3062              		.loc 1 648 3 view .LVU947
 3063              		.loc 1 649 3 view .LVU948
 3064              		.loc 1 649 3 view .LVU949
 3065              		.loc 1 649 3 view .LVU950
 3066              		.loc 1 652 3 view .LVU951
 3067              		.loc 1 652 19 is_stmt 0 view .LVU952
 3068 0000 0369     		ldr	r3, [r0, #16]
 3069              		.loc 1 645 68 view .LVU953
 3070 0002 10B4     		push	{r4}
 3071              		.cfi_def_cfa_offset 4
 3072              		.cfi_offset 4, -4
 3073              		.loc 1 657 6 view .LVU954
 3074 0004 8469     		ldr	r4, [r0, #24]
 3075              		.loc 1 652 29 view .LVU955
 3076 0006 1960     		str	r1, [r3]
 3077              		.loc 1 655 3 is_stmt 1 view .LVU956
 3078              		.loc 1 656 16 is_stmt 0 view .LVU957
ARM GAS  /tmp/ccstZxWH.s 			page 55


 3079 0008 C169     		ldr	r1, [r0, #28]
 3080              	.LVL152:
 3081              		.loc 1 655 7 view .LVU958
 3082 000a C268     		ldr	r2, [r0, #12]
 3083              		.loc 1 656 16 view .LVU959
 3084 000c 0B44     		add	r3, r3, r1
 3085              	.LVL153:
 3086              		.loc 1 657 6 view .LVU960
 3087 000e A342     		cmp	r3, r4
 3088              		.loc 1 656 16 view .LVU961
 3089 0010 0361     		str	r3, [r0, #16]
 3090              	.LVL154:
 3091              		.loc 1 658 18 view .LVU962
 3092 0012 24BF     		itt	cs
 3093 0014 436A     		ldrcs	r3, [r0, #36]
 3094 0016 0361     		strcs	r3, [r0, #16]
 3095              		.loc 1 655 17 view .LVU963
 3096 0018 013A     		subs	r2, r2, #1
 3097              		.loc 1 665 11 view .LVU964
 3098 001a 036B     		ldr	r3, [r0, #48]
 3099              		.loc 1 655 17 view .LVU965
 3100 001c C260     		str	r2, [r0, #12]
 3101              		.loc 1 656 3 is_stmt 1 view .LVU966
 3102              		.loc 1 657 3 view .LVU967
 3103              		.loc 1 658 5 view .LVU968
 3104              		.loc 1 662 3 view .LVU969
 3105              		.loc 1 662 13 is_stmt 0 view .LVU970
 3106 001e 0022     		movs	r2, #0
 3107 0020 8262     		str	r2, [r0, #40]
 3108              		.loc 1 665 3 is_stmt 1 view .LVU971
 3109              		.loc 1 665 6 is_stmt 0 view .LVU972
 3110 0022 0BB1     		cbz	r3, .L123
 3111              		.loc 1 666 5 is_stmt 1 view .LVU973
 3112              		.loc 1 668 1 is_stmt 0 view .LVU974
 3113 0024 10BC     		pop	{r4}
 3114              		.cfi_remember_state
 3115              		.cfi_restore 4
 3116              		.cfi_def_cfa_offset 0
 3117              		.loc 1 666 5 view .LVU975
 3118 0026 1847     		bx	r3	@ indirect register sibling call
 3119              	.LVL155:
 3120              	.L123:
 3121              		.cfi_restore_state
 3122              		.loc 1 668 1 view .LVU976
 3123 0028 10BC     		pop	{r4}
 3124              		.cfi_restore 4
 3125              		.cfi_def_cfa_offset 0
 3126 002a 7047     		bx	lr
 3127              		.cfi_endproc
 3128              	.LFE294:
 3129              		.size	obqPostFullBufferS, .-obqPostFullBufferS
 3130              		.section	.text.obqPutTimeout,"ax",%progbits
 3131              		.align	1
 3132              		.p2align 4,,15
 3133              		.global	obqPutTimeout
 3134              		.syntax unified
 3135              		.thumb
ARM GAS  /tmp/ccstZxWH.s 			page 56


 3136              		.thumb_func
 3137              		.fpu softvfp
 3138              		.type	obqPutTimeout, %function
 3139              	obqPutTimeout:
 3140              	.LVL156:
 3141              	.LFB295:
 3142              		.loc 1 691 40 is_stmt 1 view -0
 3143              		.cfi_startproc
 3144              		@ args = 0, pretend = 0, frame = 0
 3145              		@ frame_needed = 0, uses_anonymous_args = 0
 3146              		.loc 1 691 40 is_stmt 0 view .LVU978
 3147 0000 70B5     		push	{r4, r5, r6, lr}
 3148              		.cfi_def_cfa_offset 16
 3149              		.cfi_offset 4, -16
 3150              		.cfi_offset 5, -12
 3151              		.cfi_offset 6, -8
 3152              		.cfi_offset 14, -4
 3153              	.LBB920:
 3154              	.LBB921:
 3155              	.LBB922:
 3156              	.LBB923:
 3157              	.LBB924:
 3158              		.loc 7 264 3 view .LVU979
 3159 0002 2023     		movs	r3, #32
 3160              	.LBE924:
 3161              	.LBE923:
 3162              	.LBE922:
 3163              	.LBE921:
 3164              	.LBE920:
 3165              		.loc 1 691 40 view .LVU980
 3166 0004 0446     		mov	r4, r0
 3167 0006 0E46     		mov	r6, r1
 3168              		.loc 1 692 3 is_stmt 1 view .LVU981
 3169              		.loc 1 694 3 view .LVU982
 3170              	.LBB932:
 3171              	.LBI920:
 3172              		.loc 2 491 20 view .LVU983
 3173              	.LBE932:
 3174              		.loc 2 493 3 view .LVU984
 3175              	.LBB933:
 3176              	.LBB929:
 3177              	.LBI921:
 3178              		.loc 5 374 20 view .LVU985
 3179              	.LBE929:
 3180              	.LBE933:
 3181              		.loc 5 376 3 view .LVU986
 3182              	.LBB934:
 3183              	.LBB930:
 3184              	.LBB927:
 3185              	.LBI922:
 3186              		.loc 6 594 20 view .LVU987
 3187              	.LBE927:
 3188              	.LBE930:
 3189              	.LBE934:
 3190              		.loc 6 602 3 view .LVU988
 3191              	.LVL157:
 3192              	.LBB935:
ARM GAS  /tmp/ccstZxWH.s 			page 57


 3193              	.LBB931:
 3194              	.LBB928:
 3195              	.LBB926:
 3196              	.LBI923:
 3197              		.loc 7 262 57 view .LVU989
 3198              	.LBB925:
 3199              		.loc 7 264 3 view .LVU990
 3200              		.syntax unified
 3201              	@ 264 "../../../os/common/ext/CMSIS/include/cmsis_gcc.h" 1
 3202 0008 83F31188 		MSR basepri, r3
 3203              	@ 0 "" 2
 3204              	.LVL158:
 3205              		.loc 7 264 3 is_stmt 0 view .LVU991
 3206              		.thumb
 3207              		.syntax unified
 3208              	.LBE925:
 3209              	.LBE926:
 3210              	.LBE928:
 3211              	.LBE931:
 3212              	.LBE935:
 3213              		.loc 5 377 34 is_stmt 1 view .LVU992
 3214              		.loc 5 378 20 view .LVU993
 3215              		.loc 1 697 3 view .LVU994
 3216              		.loc 1 697 11 is_stmt 0 view .LVU995
 3217 000c 836A     		ldr	r3, [r0, #40]
 3218              		.loc 1 697 6 view .LVU996
 3219 000e 0BB3     		cbz	r3, .L144
 3220              	.LVL159:
 3221              	.L129:
 3222              		.loc 1 706 3 is_stmt 1 view .LVU997
 3223              		.loc 1 706 14 is_stmt 0 view .LVU998
 3224 0010 1E70     		strb	r6, [r3]
 3225              		.loc 1 707 3 is_stmt 1 view .LVU999
 3226              		.loc 1 711 6 is_stmt 0 view .LVU1000
 3227 0012 D4E90A32 		ldrd	r3, r2, [r4, #40]
 3228              		.loc 1 707 12 view .LVU1001
 3229 0016 0133     		adds	r3, r3, #1
 3230              		.loc 1 711 6 view .LVU1002
 3231 0018 9342     		cmp	r3, r2
 3232              		.loc 1 707 12 view .LVU1003
 3233 001a A362     		str	r3, [r4, #40]
 3234              		.loc 1 711 3 is_stmt 1 view .LVU1004
 3235              		.loc 1 711 6 is_stmt 0 view .LVU1005
 3236 001c 03D2     		bcs	.L145
 3237              	.LVL160:
 3238              	.L133:
 3239              		.loc 1 715 3 is_stmt 1 view .LVU1006
 3240              	.LBB936:
 3241              	.LBI936:
 3242              		.loc 2 502 20 view .LVU1007
 3243              	.LBE936:
 3244              		.loc 2 504 3 view .LVU1008
 3245              	.LBB945:
 3246              	.LBB937:
 3247              	.LBI937:
 3248              		.loc 5 386 20 view .LVU1009
 3249              	.LBB938:
ARM GAS  /tmp/ccstZxWH.s 			page 58


 3250              		.loc 5 388 22 view .LVU1010
 3251              		.loc 5 389 33 view .LVU1011
 3252              		.loc 5 395 3 view .LVU1012
 3253              		.loc 5 395 3 view .LVU1013
 3254              		.loc 5 395 3 view .LVU1014
 3255              		.loc 5 399 3 view .LVU1015
 3256              	.LBB939:
 3257              	.LBI939:
 3258              		.loc 6 618 20 view .LVU1016
 3259              	.LBE939:
 3260              	.LBE938:
 3261              	.LBE937:
 3262              	.LBE945:
 3263              		.loc 6 621 3 view .LVU1017
 3264              	.LBB946:
 3265              	.LBB944:
 3266              	.LBB943:
 3267              	.LBB942:
 3268              	.LBB940:
 3269              	.LBI940:
 3270              		.loc 7 262 57 view .LVU1018
 3271              	.LBB941:
 3272              		.loc 7 264 3 view .LVU1019
 3273 001e 0020     		movs	r0, #0
 3274              		.syntax unified
 3275              	@ 264 "../../../os/common/ext/CMSIS/include/cmsis_gcc.h" 1
 3276 0020 80F31188 		MSR basepri, r0
 3277              	@ 0 "" 2
 3278              	.LVL161:
 3279              		.loc 7 264 3 is_stmt 0 view .LVU1020
 3280              		.thumb
 3281              		.syntax unified
 3282              	.LBE941:
 3283              	.LBE940:
 3284              	.LBE942:
 3285              	.LBE943:
 3286              	.LBE944:
 3287              	.LBE946:
 3288              		.loc 1 716 3 is_stmt 1 view .LVU1021
 3289              		.loc 1 717 1 is_stmt 0 view .LVU1022
 3290 0024 70BD     		pop	{r4, r5, r6, pc}
 3291              	.LVL162:
 3292              	.L145:
 3293              		.loc 1 712 5 is_stmt 1 view .LVU1023
 3294              	.LBB947:
 3295              	.LBI947:
 3296              		.loc 1 645 6 view .LVU1024
 3297              	.LBB948:
 3298              		.loc 1 647 23 view .LVU1025
 3299              		.loc 1 648 3 view .LVU1026
 3300              		.loc 1 648 3 view .LVU1027
 3301              		.loc 1 648 3 view .LVU1028
 3302              		.loc 1 649 3 view .LVU1029
 3303              		.loc 1 649 3 view .LVU1030
 3304              		.loc 1 649 3 view .LVU1031
 3305              		.loc 1 652 3 view .LVU1032
 3306              	.LBE948:
ARM GAS  /tmp/ccstZxWH.s 			page 59


 3307              	.LBE947:
 3308              		.loc 1 712 5 is_stmt 0 view .LVU1033
 3309 0026 E269     		ldr	r2, [r4, #28]
 3310              	.LBB951:
 3311              	.LBB949:
 3312              		.loc 1 652 19 view .LVU1034
 3313 0028 2369     		ldr	r3, [r4, #16]
 3314              	.LBE949:
 3315              	.LBE951:
 3316              		.loc 1 712 5 view .LVU1035
 3317 002a 043A     		subs	r2, r2, #4
 3318              	.LVL163:
 3319              	.LBB952:
 3320              	.LBB950:
 3321              		.loc 1 652 29 view .LVU1036
 3322 002c 1A60     		str	r2, [r3]
 3323              		.loc 1 655 3 is_stmt 1 view .LVU1037
 3324              		.loc 1 657 6 is_stmt 0 view .LVU1038
 3325 002e D4E90610 		ldrd	r1, r0, [r4, #24]
 3326              	.LVL164:
 3327              		.loc 1 656 16 view .LVU1039
 3328 0032 0344     		add	r3, r3, r0
 3329              		.loc 1 657 6 view .LVU1040
 3330 0034 8B42     		cmp	r3, r1
 3331              		.loc 1 655 7 view .LVU1041
 3332 0036 E268     		ldr	r2, [r4, #12]
 3333              	.LVL165:
 3334              		.loc 1 656 16 view .LVU1042
 3335 0038 2361     		str	r3, [r4, #16]
 3336              	.LVL166:
 3337              		.loc 1 658 18 view .LVU1043
 3338 003a 24BF     		itt	cs
 3339 003c 636A     		ldrcs	r3, [r4, #36]
 3340 003e 2361     		strcs	r3, [r4, #16]
 3341              		.loc 1 655 17 view .LVU1044
 3342 0040 013A     		subs	r2, r2, #1
 3343              		.loc 1 665 11 view .LVU1045
 3344 0042 236B     		ldr	r3, [r4, #48]
 3345              		.loc 1 655 17 view .LVU1046
 3346 0044 E260     		str	r2, [r4, #12]
 3347              		.loc 1 656 3 is_stmt 1 view .LVU1047
 3348              		.loc 1 657 3 view .LVU1048
 3349              		.loc 1 658 5 view .LVU1049
 3350              		.loc 1 662 3 view .LVU1050
 3351              		.loc 1 662 13 is_stmt 0 view .LVU1051
 3352 0046 0022     		movs	r2, #0
 3353 0048 A262     		str	r2, [r4, #40]
 3354              		.loc 1 665 3 is_stmt 1 view .LVU1052
 3355              		.loc 1 665 6 is_stmt 0 view .LVU1053
 3356 004a 002B     		cmp	r3, #0
 3357 004c E7D0     		beq	.L133
 3358              		.loc 1 666 5 is_stmt 1 view .LVU1054
 3359 004e 2046     		mov	r0, r4
 3360 0050 9847     		blx	r3
 3361              	.LVL167:
 3362 0052 E4E7     		b	.L133
 3363              	.LVL168:
ARM GAS  /tmp/ccstZxWH.s 			page 60


 3364              	.L144:
 3365              		.loc 1 666 5 is_stmt 0 view .LVU1055
 3366 0054 1546     		mov	r5, r2
 3367              	.LBE950:
 3368              	.LBE952:
 3369 0056 05E0     		b	.L128
 3370              	.LVL169:
 3371              	.L131:
 3372              	.LBB953:
 3373              	.LBB954:
 3374              	.LBB955:
 3375              		.loc 1 602 8 view .LVU1056
 3376 0058 237A     		ldrb	r3, [r4, #8]	@ zero_extendqisi2
 3377 005a 7BB9     		cbnz	r3, .L137
 3378              	.LBB956:
 3379              	.LBB957:
 3380              		.loc 2 784 10 view .LVU1057
 3381 005c FFF7FEFF 		bl	chThdEnqueueTimeoutS
 3382              	.LVL170:
 3383              		.loc 2 784 10 view .LVU1058
 3384              	.LBE957:
 3385              	.LBE956:
 3386              		.loc 1 606 5 is_stmt 1 view .LVU1059
 3387              		.loc 1 606 8 is_stmt 0 view .LVU1060
 3388 0060 0028     		cmp	r0, #0
 3389              		.loc 1 606 8 view .LVU1061
 3390 0062 0DDB     		blt	.L130
 3391              	.LVL171:
 3392              	.L128:
 3393              		.loc 1 602 5 is_stmt 1 view .LVU1062
 3394              		.loc 1 605 5 view .LVU1063
 3395              	.LBB960:
 3396              	.LBI956:
 3397              		.loc 2 781 21 view .LVU1064
 3398              	.LBB958:
 3399              		.loc 2 784 3 view .LVU1065
 3400              	.LBE958:
 3401              	.LBE960:
 3402              	.LBE955:
 3403              		.loc 1 601 9 view .LVU1066
 3404              		.loc 1 601 10 is_stmt 0 view .LVU1067
 3405 0064 E368     		ldr	r3, [r4, #12]
 3406              	.LBB962:
 3407              	.LBB961:
 3408              	.LBB959:
 3409              		.loc 2 784 10 view .LVU1068
 3410 0066 2946     		mov	r1, r5
 3411 0068 2046     		mov	r0, r4
 3412              	.LBE959:
 3413              	.LBE961:
 3414              	.LBE962:
 3415              		.loc 1 601 9 view .LVU1069
 3416 006a 002B     		cmp	r3, #0
 3417 006c F4D0     		beq	.L131
 3418              	.LVL172:
 3419              	.LBB963:
 3420              	.LBI963:
ARM GAS  /tmp/ccstZxWH.s 			page 61


 3421              		.loc 1 596 7 is_stmt 1 view .LVU1070
 3422              	.LBB964:
 3423              		.loc 1 611 3 view .LVU1071
 3424              		.loc 1 611 3 view .LVU1072
 3425              		.loc 1 611 3 view .LVU1073
 3426              		.loc 1 614 3 view .LVU1074
 3427              		.loc 1 614 19 is_stmt 0 view .LVU1075
 3428 006e 2269     		ldr	r2, [r4, #16]
 3429              		.loc 1 615 28 view .LVU1076
 3430 0070 E169     		ldr	r1, [r4, #28]
 3431              	.LVL173:
 3432              		.loc 1 614 28 view .LVU1077
 3433 0072 131D     		adds	r3, r2, #4
 3434              		.loc 1 615 28 view .LVU1078
 3435 0074 0A44     		add	r2, r2, r1
 3436              		.loc 1 615 13 view .LVU1079
 3437 0076 C4E90A32 		strd	r3, r2, [r4, #40]
 3438              		.loc 1 617 3 is_stmt 1 view .LVU1080
 3439              	.LVL174:
 3440              		.loc 1 617 3 is_stmt 0 view .LVU1081
 3441              	.LBE964:
 3442              	.LBE963:
 3443              	.LBE954:
 3444              	.LBE953:
 3445              		.loc 1 699 5 is_stmt 1 view .LVU1082
 3446 007a C9E7     		b	.L129
 3447              	.LVL175:
 3448              	.L137:
 3449              	.LBB967:
 3450              	.LBB966:
 3451              	.LBB965:
 3452              		.loc 1 603 14 is_stmt 0 view .LVU1083
 3453 007c 6FF00100 		mvn	r0, #1
 3454              	.LVL176:
 3455              	.L130:
 3456              		.loc 1 603 14 view .LVU1084
 3457              	.LBE965:
 3458              	.LBE966:
 3459              	.LBE967:
 3460              		.loc 1 699 5 is_stmt 1 view .LVU1085
 3461              		.loc 1 700 7 view .LVU1086
 3462              	.LBB968:
 3463              	.LBI968:
 3464              		.loc 2 502 20 view .LVU1087
 3465              	.LBE968:
 3466              		.loc 2 504 3 view .LVU1088
 3467              	.LBB977:
 3468              	.LBB969:
 3469              	.LBI969:
 3470              		.loc 5 386 20 view .LVU1089
 3471              	.LBB970:
 3472              		.loc 5 388 22 view .LVU1090
 3473              		.loc 5 389 33 view .LVU1091
 3474              		.loc 5 395 3 view .LVU1092
 3475              		.loc 5 395 3 view .LVU1093
 3476              		.loc 5 395 3 view .LVU1094
 3477              		.loc 5 399 3 view .LVU1095
ARM GAS  /tmp/ccstZxWH.s 			page 62


 3478              	.LBB971:
 3479              	.LBI971:
 3480              		.loc 6 618 20 view .LVU1096
 3481              	.LBE971:
 3482              	.LBE970:
 3483              	.LBE969:
 3484              	.LBE977:
 3485              		.loc 6 621 3 view .LVU1097
 3486              	.LBB978:
 3487              	.LBB976:
 3488              	.LBB975:
 3489              	.LBB974:
 3490              	.LBB972:
 3491              	.LBI972:
 3492              		.loc 7 262 57 view .LVU1098
 3493              	.LBB973:
 3494              		.loc 7 264 3 view .LVU1099
 3495 0080 0023     		movs	r3, #0
 3496              		.syntax unified
 3497              	@ 264 "../../../os/common/ext/CMSIS/include/cmsis_gcc.h" 1
 3498 0082 83F31188 		MSR basepri, r3
 3499              	@ 0 "" 2
 3500              	.LVL177:
 3501              		.loc 7 264 3 is_stmt 0 view .LVU1100
 3502              		.thumb
 3503              		.syntax unified
 3504              	.LBE973:
 3505              	.LBE972:
 3506              	.LBE974:
 3507              	.LBE975:
 3508              	.LBE976:
 3509              	.LBE978:
 3510              		.loc 1 701 7 is_stmt 1 view .LVU1101
 3511              		.loc 1 717 1 is_stmt 0 view .LVU1102
 3512 0086 70BD     		pop	{r4, r5, r6, pc}
 3513              		.loc 1 717 1 view .LVU1103
 3514              		.cfi_endproc
 3515              	.LFE295:
 3516              		.size	obqPutTimeout, .-obqPutTimeout
 3517              		.section	.text.obqWriteTimeout,"ax",%progbits
 3518              		.align	1
 3519              		.p2align 4,,15
 3520              		.global	obqWriteTimeout
 3521              		.syntax unified
 3522              		.thumb
 3523              		.thumb_func
 3524              		.fpu softvfp
 3525              		.type	obqWriteTimeout, %function
 3526              	obqWriteTimeout:
 3527              	.LVL178:
 3528              	.LFB296:
 3529              		.loc 1 741 53 is_stmt 1 view -0
 3530              		.cfi_startproc
 3531              		@ args = 0, pretend = 0, frame = 8
 3532              		@ frame_needed = 0, uses_anonymous_args = 0
 3533              		.loc 1 742 3 view .LVU1105
 3534              		.loc 1 743 3 view .LVU1106
ARM GAS  /tmp/ccstZxWH.s 			page 63


 3535              		.loc 1 745 3 view .LVU1107
 3536              		.loc 1 745 3 view .LVU1108
 3537              		.loc 1 745 3 view .LVU1109
 3538              		.loc 1 747 3 view .LVU1110
 3539              	.LBB1043:
 3540              	.LBI1043:
 3541              		.loc 2 491 20 view .LVU1111
 3542              	.LBE1043:
 3543              		.loc 2 493 3 view .LVU1112
 3544              	.LBB1055:
 3545              	.LBB1044:
 3546              	.LBI1044:
 3547              		.loc 5 374 20 view .LVU1113
 3548              	.LBE1044:
 3549              	.LBE1055:
 3550              		.loc 5 376 3 view .LVU1114
 3551              	.LBB1056:
 3552              	.LBB1052:
 3553              	.LBB1045:
 3554              	.LBI1045:
 3555              		.loc 6 594 20 view .LVU1115
 3556              	.LBE1045:
 3557              	.LBE1052:
 3558              	.LBE1056:
 3559              		.loc 6 602 3 view .LVU1116
 3560              	.LBB1057:
 3561              	.LBB1053:
 3562              	.LBB1050:
 3563              	.LBB1046:
 3564              	.LBI1046:
 3565              		.loc 7 262 57 view .LVU1117
 3566              	.LBB1047:
 3567              		.loc 7 264 3 view .LVU1118
 3568              	.LBE1047:
 3569              	.LBE1046:
 3570              	.LBE1050:
 3571              	.LBE1053:
 3572              	.LBE1057:
 3573              		.loc 1 741 53 is_stmt 0 view .LVU1119
 3574 0000 2DE9F04F 		push	{r4, r5, r6, r7, r8, r9, r10, fp, lr}
 3575              		.cfi_def_cfa_offset 36
 3576              		.cfi_offset 4, -36
 3577              		.cfi_offset 5, -32
 3578              		.cfi_offset 6, -28
 3579              		.cfi_offset 7, -24
 3580              		.cfi_offset 8, -20
 3581              		.cfi_offset 9, -16
 3582              		.cfi_offset 10, -12
 3583              		.cfi_offset 11, -8
 3584              		.cfi_offset 14, -4
 3585 0004 1F46     		mov	r7, r3
 3586 0006 83B0     		sub	sp, sp, #12
 3587              		.cfi_def_cfa_offset 48
 3588              		.loc 1 741 53 view .LVU1120
 3589 0008 0446     		mov	r4, r0
 3590 000a 8B46     		mov	fp, r1
 3591 000c 1646     		mov	r6, r2
ARM GAS  /tmp/ccstZxWH.s 			page 64


 3592              	.LBB1058:
 3593              	.LBB1054:
 3594              	.LBB1051:
 3595              	.LBB1049:
 3596              	.LBB1048:
 3597              		.loc 7 264 3 view .LVU1121
 3598 000e 2023     		movs	r3, #32
 3599              	.LVL179:
 3600              		.loc 7 264 3 view .LVU1122
 3601              		.syntax unified
 3602              	@ 264 "../../../os/common/ext/CMSIS/include/cmsis_gcc.h" 1
 3603 0010 83F31188 		MSR basepri, r3
 3604              	@ 0 "" 2
 3605              	.LVL180:
 3606              		.loc 7 264 3 view .LVU1123
 3607              		.thumb
 3608              		.syntax unified
 3609              	.LBE1048:
 3610              	.LBE1049:
 3611              	.LBE1051:
 3612              	.LBE1054:
 3613              	.LBE1058:
 3614              		.loc 5 377 34 is_stmt 1 view .LVU1124
 3615              		.loc 5 378 20 view .LVU1125
 3616              		.loc 1 750 3 view .LVU1126
 3617              	.LBB1059:
 3618              	.LBI1059:
 3619              		.loc 2 616 25 view .LVU1127
 3620              	.LBE1059:
 3621              		.loc 2 618 3 view .LVU1128
 3622              	.LBB1071:
 3623              	.LBB1060:
 3624              	.LBI1060:
 3625              		.loc 8 392 25 view .LVU1129
 3626              	.LBE1060:
 3627              	.LBE1071:
 3628              		.loc 8 397 3 view .LVU1130
 3629              	.LBB1072:
 3630              	.LBB1068:
 3631              	.LBB1061:
 3632              	.LBI1061:
 3633              		.loc 9 105 25 view .LVU1131
 3634              	.LBE1061:
 3635              	.LBE1068:
 3636              	.LBE1072:
 3637              		.loc 9 107 3 view .LVU1132
 3638              	.LBB1073:
 3639              	.LBB1069:
 3640              	.LBB1066:
 3641              	.LBB1062:
 3642              	.LBI1062:
 3643              		.loc 10 139 25 view .LVU1133
 3644              	.LBB1063:
 3645              		.loc 10 141 3 view .LVU1134
 3646              		.loc 10 141 10 is_stmt 0 view .LVU1135
 3647 0014 4FF08043 		mov	r3, #1073741824
 3648              	.LBE1063:
ARM GAS  /tmp/ccstZxWH.s 			page 65


 3649              	.LBE1062:
 3650              	.LBE1066:
 3651              	.LBE1069:
 3652              	.LBE1073:
 3653              	.LBB1074:
 3654              		.loc 1 756 13 view .LVU1136
 3655 0018 A06A     		ldr	r0, [r4, #40]
 3656              	.LVL181:
 3657              		.loc 1 756 13 view .LVU1137
 3658              	.LBE1074:
 3659              	.LBB1185:
 3660              	.LBB1070:
 3661              	.LBB1067:
 3662              	.LBB1065:
 3663              	.LBB1064:
 3664              		.loc 10 141 10 view .LVU1138
 3665 001a 5B6A     		ldr	r3, [r3, #36]
 3666              	.LBE1064:
 3667              	.LBE1065:
 3668              	.LBE1067:
 3669              	.LBE1070:
 3670              	.LBE1185:
 3671              		.loc 1 742 10 view .LVU1139
 3672 001c 0025     		movs	r5, #0
 3673              		.loc 1 750 12 view .LVU1140
 3674 001e FB18     		adds	r3, r7, r3
 3675 0020 0193     		str	r3, [sp, #4]
 3676              	.LVL182:
 3677              		.loc 1 752 3 is_stmt 1 view .LVU1141
 3678              	.LBB1186:
 3679              		.loc 1 753 5 view .LVU1142
 3680              		.loc 1 756 5 view .LVU1143
 3681              	.LBB1075:
 3682              		.loc 1 761 38 is_stmt 0 view .LVU1144
 3683 0022 07F1FF39 		add	r9, r7, #-1
 3684              	.LBE1075:
 3685              	.LBB1143:
 3686              	.LBB1144:
 3687              		.loc 1 662 13 view .LVU1145
 3688 0026 A846     		mov	r8, r5
 3689              	.LBE1144:
 3690              	.LBE1143:
 3691              		.loc 1 756 8 view .LVU1146
 3692 0028 78B3     		cbz	r0, .L147
 3693              	.LVL183:
 3694              	.L180:
 3695              		.loc 1 785 24 view .LVU1147
 3696 002a E26A     		ldr	r2, [r4, #44]
 3697              	.L148:
 3698              		.loc 1 785 5 is_stmt 1 view .LVU1148
 3699              		.loc 1 786 19 is_stmt 0 view .LVU1149
 3700 002c 731B     		subs	r3, r6, r5
 3701              		.loc 1 785 10 view .LVU1150
 3702 002e 121A     		subs	r2, r2, r0
 3703              	.LVL184:
 3704              		.loc 1 786 5 is_stmt 1 view .LVU1151
 3705 0030 9342     		cmp	r3, r2
ARM GAS  /tmp/ccstZxWH.s 			page 66


 3706 0032 28BF     		it	cs
 3707 0034 1346     		movcs	r3, r2
 3708              		.loc 1 792 8 is_stmt 0 view .LVU1152
 3709 0036 402B     		cmp	r3, #64
 3710 0038 9A46     		mov	r10, r3
 3711              	.LVL185:
 3712              		.loc 1 792 5 is_stmt 1 view .LVU1153
 3713              		.loc 1 794 7 is_stmt 0 view .LVU1154
 3714 003a 5946     		mov	r1, fp
 3715              		.loc 1 792 8 view .LVU1155
 3716 003c 44D9     		bls	.L156
 3717              	.LVL186:
 3718              		.loc 1 794 7 is_stmt 1 view .LVU1156
 3719 003e 0BF1400B 		add	fp, fp, #64
 3720              	.LVL187:
 3721              	.L157:
 3722              		.loc 1 794 7 is_stmt 0 view .LVU1157
 3723 0042 D1F800C0 		ldr	ip, [r1]	@ unaligned
 3724 0046 4A68     		ldr	r2, [r1, #4]	@ unaligned
 3725 0048 8B68     		ldr	r3, [r1, #8]	@ unaligned
 3726 004a D1F80CE0 		ldr	lr, [r1, #12]	@ unaligned
 3727 004e C0F80CE0 		str	lr, [r0, #12]	@ unaligned
 3728 0052 1031     		adds	r1, r1, #16
 3729 0054 5945     		cmp	r1, fp
 3730 0056 C0F800C0 		str	ip, [r0]	@ unaligned
 3731 005a 4260     		str	r2, [r0, #4]	@ unaligned
 3732 005c 8360     		str	r3, [r0, #8]	@ unaligned
 3733 005e 00F11000 		add	r0, r0, #16
 3734 0062 EED1     		bne	.L157
 3735              		.loc 1 795 7 is_stmt 1 view .LVU1158
 3736              		.loc 1 796 17 is_stmt 0 view .LVU1159
 3737 0064 A36A     		ldr	r3, [r4, #40]
 3738              		.loc 1 807 8 view .LVU1160
 3739 0066 E26A     		ldr	r2, [r4, #44]
 3740              		.loc 1 796 17 view .LVU1161
 3741 0068 4033     		adds	r3, r3, #64
 3742              		.loc 1 807 8 view .LVU1162
 3743 006a 9A42     		cmp	r2, r3
 3744              		.loc 1 795 17 view .LVU1163
 3745 006c 8B46     		mov	fp, r1
 3746              	.LVL188:
 3747              		.loc 1 796 7 is_stmt 1 view .LVU1164
 3748              		.loc 1 796 17 is_stmt 0 view .LVU1165
 3749 006e A362     		str	r3, [r4, #40]
 3750              		.loc 1 797 7 is_stmt 1 view .LVU1166
 3751              		.loc 1 797 17 is_stmt 0 view .LVU1167
 3752 0070 05F14005 		add	r5, r5, #64
 3753              	.LVL189:
 3754              		.loc 1 807 5 is_stmt 1 view .LVU1168
 3755              		.loc 1 807 8 is_stmt 0 view .LVU1169
 3756 0074 33D9     		bls	.L179
 3757              	.LVL190:
 3758              	.L160:
 3759              		.loc 1 812 5 is_stmt 1 view .LVU1170
 3760              	.LBB1148:
 3761              	.LBI1148:
 3762              		.loc 2 502 20 view .LVU1171
ARM GAS  /tmp/ccstZxWH.s 			page 67


 3763              	.LBE1148:
 3764              	.LBE1186:
 3765              		.loc 2 504 3 view .LVU1172
 3766              	.LBB1187:
 3767              	.LBB1157:
 3768              	.LBB1149:
 3769              	.LBI1149:
 3770              		.loc 5 386 20 view .LVU1173
 3771              	.LBB1150:
 3772              		.loc 5 388 22 view .LVU1174
 3773              		.loc 5 389 33 view .LVU1175
 3774              		.loc 5 395 3 view .LVU1176
 3775              		.loc 5 395 3 view .LVU1177
 3776              		.loc 5 395 3 view .LVU1178
 3777              		.loc 5 399 3 view .LVU1179
 3778              	.LBB1151:
 3779              	.LBI1151:
 3780              		.loc 6 618 20 view .LVU1180
 3781              	.LBE1151:
 3782              	.LBE1150:
 3783              	.LBE1149:
 3784              	.LBE1157:
 3785              	.LBE1187:
 3786              		.loc 6 621 3 view .LVU1181
 3787              	.LBB1188:
 3788              	.LBB1158:
 3789              	.LBB1156:
 3790              	.LBB1155:
 3791              	.LBB1154:
 3792              	.LBB1152:
 3793              	.LBI1152:
 3794              		.loc 7 262 57 view .LVU1182
 3795              	.LBB1153:
 3796              		.loc 7 264 3 view .LVU1183
 3797              		.syntax unified
 3798              	@ 264 "../../../os/common/ext/CMSIS/include/cmsis_gcc.h" 1
 3799 0076 88F31188 		MSR basepri, r8
 3800              	@ 0 "" 2
 3801              	.LVL191:
 3802              		.loc 7 264 3 is_stmt 0 view .LVU1184
 3803              		.thumb
 3804              		.syntax unified
 3805              	.LBE1153:
 3806              	.LBE1152:
 3807              	.LBE1154:
 3808              	.LBE1155:
 3809              	.LBE1156:
 3810              	.LBE1158:
 3811              		.loc 1 813 5 is_stmt 1 view .LVU1185
 3812              		.loc 1 813 8 is_stmt 0 view .LVU1186
 3813 007a B542     		cmp	r5, r6
 3814 007c 55D2     		bcs	.L146
 3815              		.loc 1 816 5 is_stmt 1 view .LVU1187
 3816              	.LBB1159:
 3817              	.LBI1159:
 3818              		.loc 2 491 20 view .LVU1188
 3819              	.LBB1160:
ARM GAS  /tmp/ccstZxWH.s 			page 68


 3820              		.loc 2 493 3 view .LVU1189
 3821              	.LBB1161:
 3822              	.LBI1161:
 3823              		.loc 5 374 20 view .LVU1190
 3824              	.LBE1161:
 3825              	.LBE1160:
 3826              	.LBE1159:
 3827              	.LBE1188:
 3828              		.loc 5 376 3 view .LVU1191
 3829              	.LBB1189:
 3830              	.LBB1170:
 3831              	.LBB1168:
 3832              	.LBB1166:
 3833              	.LBB1162:
 3834              	.LBI1162:
 3835              		.loc 6 594 20 view .LVU1192
 3836              	.LBE1162:
 3837              	.LBE1166:
 3838              	.LBE1168:
 3839              	.LBE1170:
 3840              	.LBE1189:
 3841              		.loc 6 602 3 view .LVU1193
 3842              	.LVL192:
 3843              	.LBB1190:
 3844              	.LBB1171:
 3845              	.LBB1169:
 3846              	.LBB1167:
 3847              	.LBB1165:
 3848              	.LBB1163:
 3849              	.LBI1163:
 3850              		.loc 7 262 57 view .LVU1194
 3851              	.LBB1164:
 3852              		.loc 7 264 3 view .LVU1195
 3853 007e 2023     		movs	r3, #32
 3854              		.syntax unified
 3855              	@ 264 "../../../os/common/ext/CMSIS/include/cmsis_gcc.h" 1
 3856 0080 83F31188 		MSR basepri, r3
 3857              	@ 0 "" 2
 3858              	.LVL193:
 3859              		.loc 7 264 3 is_stmt 0 view .LVU1196
 3860              		.thumb
 3861              		.syntax unified
 3862              	.LBE1164:
 3863              	.LBE1163:
 3864              	.LBE1165:
 3865              	.LBE1167:
 3866              	.LBE1169:
 3867              	.LBE1171:
 3868              	.LBE1190:
 3869              		.loc 5 377 34 is_stmt 1 view .LVU1197
 3870              		.loc 5 378 20 view .LVU1198
 3871              		.loc 1 752 3 view .LVU1199
 3872              	.LBB1191:
 3873              		.loc 1 753 5 view .LVU1200
 3874              		.loc 1 756 5 view .LVU1201
 3875              		.loc 1 756 13 is_stmt 0 view .LVU1202
 3876 0084 A06A     		ldr	r0, [r4, #40]
ARM GAS  /tmp/ccstZxWH.s 			page 69


 3877              		.loc 1 756 8 view .LVU1203
 3878 0086 0028     		cmp	r0, #0
 3879 0088 CFD1     		bne	.L180
 3880              	.LVL194:
 3881              	.L147:
 3882              	.LBB1172:
 3883              		.loc 1 757 7 is_stmt 1 view .LVU1204
 3884              		.loc 1 761 7 view .LVU1205
 3885              		.loc 1 761 10 is_stmt 0 view .LVU1206
 3886 008a 19F1030F 		cmn	r9, #3
 3887 008e 43D8     		bhi	.L149
 3888              	.LBB1076:
 3889              		.loc 1 765 9 is_stmt 1 view .LVU1207
 3890              	.LBB1077:
 3891              	.LBI1077:
 3892              		.loc 2 616 25 view .LVU1208
 3893              	.LBE1077:
 3894              	.LBE1076:
 3895              	.LBE1172:
 3896              	.LBE1191:
 3897              		.loc 2 618 3 view .LVU1209
 3898              	.LBB1192:
 3899              	.LBB1173:
 3900              	.LBB1116:
 3901              	.LBB1089:
 3902              	.LBB1078:
 3903              	.LBI1078:
 3904              		.loc 8 392 25 view .LVU1210
 3905              	.LBE1078:
 3906              	.LBE1089:
 3907              	.LBE1116:
 3908              	.LBE1173:
 3909              	.LBE1192:
 3910              		.loc 8 397 3 view .LVU1211
 3911              	.LBB1193:
 3912              	.LBB1174:
 3913              	.LBB1117:
 3914              	.LBB1090:
 3915              	.LBB1086:
 3916              	.LBB1079:
 3917              	.LBI1079:
 3918              		.loc 9 105 25 view .LVU1212
 3919              	.LBE1079:
 3920              	.LBE1086:
 3921              	.LBE1090:
 3922              	.LBE1117:
 3923              	.LBE1174:
 3924              	.LBE1193:
 3925              		.loc 9 107 3 view .LVU1213
 3926              	.LBB1194:
 3927              	.LBB1175:
 3928              	.LBB1118:
 3929              	.LBB1091:
 3930              	.LBB1087:
 3931              	.LBB1084:
 3932              	.LBB1080:
 3933              	.LBI1080:
ARM GAS  /tmp/ccstZxWH.s 			page 70


 3934              		.loc 10 139 25 view .LVU1214
 3935              	.LBB1081:
 3936              		.loc 10 141 3 view .LVU1215
 3937              		.loc 10 141 10 is_stmt 0 view .LVU1216
 3938 0090 4FF08043 		mov	r3, #1073741824
 3939              	.LBE1081:
 3940              	.LBE1080:
 3941              	.LBE1084:
 3942              	.LBE1087:
 3943              	.LBE1091:
 3944              		.loc 1 765 19 view .LVU1217
 3945 0094 019A     		ldr	r2, [sp, #4]
 3946              	.LBB1092:
 3947              	.LBB1088:
 3948              	.LBB1085:
 3949              	.LBB1083:
 3950              	.LBB1082:
 3951              		.loc 10 141 10 view .LVU1218
 3952 0096 5B6A     		ldr	r3, [r3, #36]
 3953              	.LBE1082:
 3954              	.LBE1083:
 3955              	.LBE1085:
 3956              	.LBE1088:
 3957              	.LBE1092:
 3958              		.loc 1 765 19 view .LVU1219
 3959 0098 A2EB030A 		sub	r10, r2, r3
 3960              	.LVL195:
 3961              		.loc 1 770 9 is_stmt 1 view .LVU1220
 3962              		.loc 1 770 12 is_stmt 0 view .LVU1221
 3963 009c 5745     		cmp	r7, r10
 3964 009e 07D2     		bcs	.L153
 3965 00a0 47E0     		b	.L181
 3966              	.LVL196:
 3967              	.L155:
 3968              	.LBB1093:
 3969              	.LBB1094:
 3970              	.LBB1095:
 3971              		.loc 1 602 8 view .LVU1222
 3972 00a2 237A     		ldrb	r3, [r4, #8]	@ zero_extendqisi2
 3973 00a4 002B     		cmp	r3, #0
 3974 00a6 3DD1     		bne	.L151
 3975              	.LBB1096:
 3976              	.LBB1097:
 3977              		.loc 2 784 10 view .LVU1223
 3978 00a8 FFF7FEFF 		bl	chThdEnqueueTimeoutS
 3979              	.LVL197:
 3980              		.loc 2 784 10 view .LVU1224
 3981              	.LBE1097:
 3982              	.LBE1096:
 3983              		.loc 1 606 5 is_stmt 1 view .LVU1225
 3984              		.loc 1 606 8 is_stmt 0 view .LVU1226
 3985 00ac 0028     		cmp	r0, #0
 3986 00ae 39DB     		blt	.L151
 3987              	.LVL198:
 3988              	.L153:
 3989              		.loc 1 602 5 is_stmt 1 view .LVU1227
 3990              		.loc 1 605 5 view .LVU1228
ARM GAS  /tmp/ccstZxWH.s 			page 71


 3991              	.LBB1100:
 3992              	.LBI1096:
 3993              		.loc 2 781 21 view .LVU1229
 3994              	.LBB1098:
 3995              		.loc 2 784 3 view .LVU1230
 3996              	.LBE1098:
 3997              	.LBE1100:
 3998              	.LBE1095:
 3999              		.loc 1 601 9 view .LVU1231
 4000              		.loc 1 601 10 is_stmt 0 view .LVU1232
 4001 00b0 E368     		ldr	r3, [r4, #12]
 4002              	.LBB1102:
 4003              	.LBB1101:
 4004              	.LBB1099:
 4005              		.loc 2 784 10 view .LVU1233
 4006 00b2 5146     		mov	r1, r10
 4007 00b4 2046     		mov	r0, r4
 4008              	.LBE1099:
 4009              	.LBE1101:
 4010              	.LBE1102:
 4011              		.loc 1 601 9 view .LVU1234
 4012 00b6 002B     		cmp	r3, #0
 4013 00b8 F3D0     		beq	.L155
 4014              	.LVL199:
 4015              	.L178:
 4016              	.LBB1103:
 4017              	.LBI1103:
 4018              		.loc 1 596 7 is_stmt 1 view .LVU1235
 4019              	.LBB1104:
 4020              		.loc 1 611 3 view .LVU1236
 4021              		.loc 1 611 3 view .LVU1237
 4022              		.loc 1 611 3 view .LVU1238
 4023              		.loc 1 614 3 view .LVU1239
 4024              		.loc 1 614 19 is_stmt 0 view .LVU1240
 4025 00ba 2069     		ldr	r0, [r4, #16]
 4026              	.LVL200:
 4027              		.loc 1 615 28 view .LVU1241
 4028 00bc E269     		ldr	r2, [r4, #28]
 4029 00be 0244     		add	r2, r2, r0
 4030              		.loc 1 614 28 view .LVU1242
 4031 00c0 0430     		adds	r0, r0, #4
 4032              		.loc 1 615 13 view .LVU1243
 4033 00c2 C4E90A02 		strd	r0, r2, [r4, #40]
 4034              		.loc 1 617 3 is_stmt 1 view .LVU1244
 4035              	.LVL201:
 4036              		.loc 1 617 3 is_stmt 0 view .LVU1245
 4037              	.LBE1104:
 4038              	.LBE1103:
 4039              	.LBE1094:
 4040              	.LBE1093:
 4041              	.LBE1118:
 4042              		.loc 1 778 7 is_stmt 1 view .LVU1246
 4043 00c6 B1E7     		b	.L148
 4044              	.LVL202:
 4045              	.L156:
 4046              		.loc 1 778 7 is_stmt 0 view .LVU1247
 4047              	.LBE1175:
ARM GAS  /tmp/ccstZxWH.s 			page 72


 4048              		.loc 1 800 7 is_stmt 1 view .LVU1248
 4049 00c8 1A46     		mov	r2, r3
 4050 00ca FFF7FEFF 		bl	memcpy
 4051              	.LVL203:
 4052              		.loc 1 801 7 view .LVU1249
 4053              		.loc 1 802 17 is_stmt 0 view .LVU1250
 4054 00ce A36A     		ldr	r3, [r4, #40]
 4055              		.loc 1 807 8 view .LVU1251
 4056 00d0 E26A     		ldr	r2, [r4, #44]
 4057              		.loc 1 802 17 view .LVU1252
 4058 00d2 5344     		add	r3, r3, r10
 4059              		.loc 1 807 8 view .LVU1253
 4060 00d4 9A42     		cmp	r2, r3
 4061              		.loc 1 801 17 view .LVU1254
 4062 00d6 D344     		add	fp, fp, r10
 4063              	.LVL204:
 4064              		.loc 1 802 7 is_stmt 1 view .LVU1255
 4065              		.loc 1 802 17 is_stmt 0 view .LVU1256
 4066 00d8 A362     		str	r3, [r4, #40]
 4067              		.loc 1 803 7 is_stmt 1 view .LVU1257
 4068              		.loc 1 803 17 is_stmt 0 view .LVU1258
 4069 00da 5544     		add	r5, r5, r10
 4070              	.LVL205:
 4071              		.loc 1 807 5 is_stmt 1 view .LVU1259
 4072              		.loc 1 807 8 is_stmt 0 view .LVU1260
 4073 00dc CBD8     		bhi	.L160
 4074              	.L179:
 4075              		.loc 1 808 7 is_stmt 1 view .LVU1261
 4076              	.LVL206:
 4077              	.LBB1176:
 4078              	.LBI1143:
 4079              		.loc 1 645 6 view .LVU1262
 4080              	.LBB1145:
 4081              		.loc 1 647 23 view .LVU1263
 4082              		.loc 1 648 3 view .LVU1264
 4083              		.loc 1 648 3 view .LVU1265
 4084              		.loc 1 648 3 view .LVU1266
 4085              		.loc 1 649 3 view .LVU1267
 4086              		.loc 1 649 3 view .LVU1268
 4087              		.loc 1 649 3 view .LVU1269
 4088              		.loc 1 652 3 view .LVU1270
 4089              	.LBE1145:
 4090              	.LBE1176:
 4091              		.loc 1 808 7 is_stmt 0 view .LVU1271
 4092 00de E269     		ldr	r2, [r4, #28]
 4093              	.LBB1177:
 4094              	.LBB1146:
 4095              		.loc 1 652 19 view .LVU1272
 4096 00e0 2369     		ldr	r3, [r4, #16]
 4097              	.LBE1146:
 4098              	.LBE1177:
 4099              		.loc 1 808 7 view .LVU1273
 4100 00e2 043A     		subs	r2, r2, #4
 4101              	.LVL207:
 4102              	.LBB1178:
 4103              	.LBB1147:
 4104              		.loc 1 652 29 view .LVU1274
ARM GAS  /tmp/ccstZxWH.s 			page 73


 4105 00e4 1A60     		str	r2, [r3]
 4106              		.loc 1 655 3 is_stmt 1 view .LVU1275
 4107              		.loc 1 656 16 is_stmt 0 view .LVU1276
 4108 00e6 E169     		ldr	r1, [r4, #28]
 4109              		.loc 1 655 7 view .LVU1277
 4110 00e8 E268     		ldr	r2, [r4, #12]
 4111              	.LVL208:
 4112              		.loc 1 662 13 view .LVU1278
 4113 00ea C4F82880 		str	r8, [r4, #40]
 4114              		.loc 1 656 16 view .LVU1279
 4115 00ee 0B44     		add	r3, r3, r1
 4116              	.LVL209:
 4117              		.loc 1 657 6 view .LVU1280
 4118 00f0 A169     		ldr	r1, [r4, #24]
 4119              		.loc 1 656 16 view .LVU1281
 4120 00f2 2361     		str	r3, [r4, #16]
 4121              	.LVL210:
 4122              		.loc 1 657 6 view .LVU1282
 4123 00f4 8B42     		cmp	r3, r1
 4124              		.loc 1 658 18 view .LVU1283
 4125 00f6 24BF     		itt	cs
 4126 00f8 636A     		ldrcs	r3, [r4, #36]
 4127 00fa 2361     		strcs	r3, [r4, #16]
 4128              		.loc 1 665 11 view .LVU1284
 4129 00fc 236B     		ldr	r3, [r4, #48]
 4130              		.loc 1 655 17 view .LVU1285
 4131 00fe 013A     		subs	r2, r2, #1
 4132 0100 E260     		str	r2, [r4, #12]
 4133              		.loc 1 656 3 is_stmt 1 view .LVU1286
 4134              		.loc 1 657 3 view .LVU1287
 4135              		.loc 1 658 5 view .LVU1288
 4136              		.loc 1 662 3 view .LVU1289
 4137              		.loc 1 665 3 view .LVU1290
 4138              		.loc 1 665 6 is_stmt 0 view .LVU1291
 4139 0102 002B     		cmp	r3, #0
 4140 0104 B7D0     		beq	.L160
 4141              		.loc 1 666 5 is_stmt 1 view .LVU1292
 4142 0106 2046     		mov	r0, r4
 4143 0108 9847     		blx	r3
 4144              	.LVL211:
 4145 010a B4E7     		b	.L160
 4146              	.LVL212:
 4147              	.L152:
 4148              		.loc 1 666 5 is_stmt 0 view .LVU1293
 4149              	.LBE1147:
 4150              	.LBE1178:
 4151              	.LBB1179:
 4152              	.LBB1119:
 4153              	.LBB1120:
 4154              	.LBB1121:
 4155              		.loc 1 602 8 view .LVU1294
 4156 010c 237A     		ldrb	r3, [r4, #8]	@ zero_extendqisi2
 4157 010e 4BB9     		cbnz	r3, .L151
 4158              	.LBB1122:
 4159              	.LBB1123:
 4160              		.loc 2 784 10 view .LVU1295
 4161 0110 FFF7FEFF 		bl	chThdEnqueueTimeoutS
ARM GAS  /tmp/ccstZxWH.s 			page 74


 4162              	.LVL213:
 4163              		.loc 2 784 10 view .LVU1296
 4164              	.LBE1123:
 4165              	.LBE1122:
 4166              		.loc 1 606 5 is_stmt 1 view .LVU1297
 4167              		.loc 1 606 8 is_stmt 0 view .LVU1298
 4168 0114 0028     		cmp	r0, #0
 4169 0116 05DB     		blt	.L151
 4170              	.LVL214:
 4171              	.L149:
 4172              		.loc 1 602 5 is_stmt 1 view .LVU1299
 4173              		.loc 1 605 5 view .LVU1300
 4174              	.LBB1126:
 4175              	.LBI1122:
 4176              		.loc 2 781 21 view .LVU1301
 4177              	.LBB1124:
 4178              		.loc 2 784 3 view .LVU1302
 4179              	.LBE1124:
 4180              	.LBE1126:
 4181              	.LBE1121:
 4182              		.loc 1 601 9 view .LVU1303
 4183              		.loc 1 601 10 is_stmt 0 view .LVU1304
 4184 0118 E368     		ldr	r3, [r4, #12]
 4185              	.LBB1128:
 4186              	.LBB1127:
 4187              	.LBB1125:
 4188              		.loc 2 784 10 view .LVU1305
 4189 011a 3946     		mov	r1, r7
 4190 011c 2046     		mov	r0, r4
 4191              	.LBE1125:
 4192              	.LBE1127:
 4193              	.LBE1128:
 4194              		.loc 1 601 9 view .LVU1306
 4195 011e 002B     		cmp	r3, #0
 4196 0120 F4D0     		beq	.L152
 4197              	.LVL215:
 4198              		.loc 1 601 9 view .LVU1307
 4199 0122 CAE7     		b	.L178
 4200              	.LVL216:
 4201              	.L151:
 4202              		.loc 1 601 9 view .LVU1308
 4203              	.LBE1120:
 4204              	.LBE1119:
 4205              		.loc 1 778 7 is_stmt 1 view .LVU1309
 4206              		.loc 1 779 9 view .LVU1310
 4207              	.LBB1129:
 4208              	.LBI1129:
 4209              		.loc 2 502 20 view .LVU1311
 4210              	.LBE1129:
 4211              	.LBE1179:
 4212              	.LBE1194:
 4213              		.loc 2 504 3 view .LVU1312
 4214              	.LBB1195:
 4215              	.LBB1180:
 4216              	.LBB1138:
 4217              	.LBB1130:
 4218              	.LBI1130:
ARM GAS  /tmp/ccstZxWH.s 			page 75


 4219              		.loc 5 386 20 view .LVU1313
 4220              	.LBB1131:
 4221              		.loc 5 388 22 view .LVU1314
 4222              		.loc 5 389 33 view .LVU1315
 4223              		.loc 5 395 3 view .LVU1316
 4224              		.loc 5 395 3 view .LVU1317
 4225              		.loc 5 395 3 view .LVU1318
 4226              		.loc 5 399 3 view .LVU1319
 4227              	.LBB1132:
 4228              	.LBI1132:
 4229              		.loc 6 618 20 view .LVU1320
 4230              	.LBE1132:
 4231              	.LBE1131:
 4232              	.LBE1130:
 4233              	.LBE1138:
 4234              	.LBE1180:
 4235              	.LBE1195:
 4236              		.loc 6 621 3 view .LVU1321
 4237              	.LBB1196:
 4238              	.LBB1181:
 4239              	.LBB1139:
 4240              	.LBB1137:
 4241              	.LBB1136:
 4242              	.LBB1135:
 4243              	.LBB1133:
 4244              	.LBI1133:
 4245              		.loc 7 262 57 view .LVU1322
 4246              	.LBB1134:
 4247              		.loc 7 264 3 view .LVU1323
 4248 0124 0023     		movs	r3, #0
 4249              		.syntax unified
 4250              	@ 264 "../../../os/common/ext/CMSIS/include/cmsis_gcc.h" 1
 4251 0126 83F31188 		MSR basepri, r3
 4252              	@ 0 "" 2
 4253              	.LVL217:
 4254              		.loc 7 264 3 is_stmt 0 view .LVU1324
 4255              		.thumb
 4256              		.syntax unified
 4257              	.LBE1134:
 4258              	.LBE1133:
 4259              	.LBE1135:
 4260              	.LBE1136:
 4261              	.LBE1137:
 4262              	.LBE1139:
 4263              		.loc 1 780 9 is_stmt 1 view .LVU1325
 4264              	.L146:
 4265              		.loc 1 780 9 is_stmt 0 view .LVU1326
 4266              	.LBE1181:
 4267              	.LBE1196:
 4268              		.loc 1 818 1 view .LVU1327
 4269 012a 2846     		mov	r0, r5
 4270 012c 03B0     		add	sp, sp, #12
 4271              		.cfi_remember_state
 4272              		.cfi_def_cfa_offset 36
 4273              		@ sp needed
 4274 012e BDE8F08F 		pop	{r4, r5, r6, r7, r8, r9, r10, fp, pc}
 4275              	.LVL218:
ARM GAS  /tmp/ccstZxWH.s 			page 76


 4276              	.L181:
 4277              		.cfi_restore_state
 4278              	.LBB1197:
 4279              	.LBB1182:
 4280              	.LBB1140:
 4281              		.loc 1 771 11 is_stmt 1 view .LVU1328
 4282              	.LBB1105:
 4283              	.LBI1105:
 4284              		.loc 2 502 20 view .LVU1329
 4285              	.LBE1105:
 4286              	.LBE1140:
 4287              	.LBE1182:
 4288              	.LBE1197:
 4289              		.loc 2 504 3 view .LVU1330
 4290              	.LBB1198:
 4291              	.LBB1183:
 4292              	.LBB1141:
 4293              	.LBB1114:
 4294              	.LBB1106:
 4295              	.LBI1106:
 4296              		.loc 5 386 20 view .LVU1331
 4297              	.LBB1107:
 4298              		.loc 5 388 22 view .LVU1332
 4299              		.loc 5 389 33 view .LVU1333
 4300              		.loc 5 395 3 view .LVU1334
 4301              		.loc 5 395 3 view .LVU1335
 4302              		.loc 5 395 3 view .LVU1336
 4303              		.loc 5 399 3 view .LVU1337
 4304              	.LBB1108:
 4305              	.LBI1108:
 4306              		.loc 6 618 20 view .LVU1338
 4307              	.LBE1108:
 4308              	.LBE1107:
 4309              	.LBE1106:
 4310              	.LBE1114:
 4311              	.LBE1141:
 4312              	.LBE1183:
 4313              	.LBE1198:
 4314              		.loc 6 621 3 view .LVU1339
 4315              	.LBB1199:
 4316              	.LBB1184:
 4317              	.LBB1142:
 4318              	.LBB1115:
 4319              	.LBB1113:
 4320              	.LBB1112:
 4321              	.LBB1111:
 4322              	.LBB1109:
 4323              	.LBI1109:
 4324              		.loc 7 262 57 view .LVU1340
 4325              	.LBB1110:
 4326              		.loc 7 264 3 view .LVU1341
 4327              		.syntax unified
 4328              	@ 264 "../../../os/common/ext/CMSIS/include/cmsis_gcc.h" 1
 4329 0132 80F31188 		MSR basepri, r0
 4330              	@ 0 "" 2
 4331              	.LVL219:
 4332              		.loc 7 264 3 is_stmt 0 view .LVU1342
ARM GAS  /tmp/ccstZxWH.s 			page 77


 4333              		.thumb
 4334              		.syntax unified
 4335              	.LBE1110:
 4336              	.LBE1109:
 4337              	.LBE1111:
 4338              	.LBE1112:
 4339              	.LBE1113:
 4340              	.LBE1115:
 4341              		.loc 1 772 11 is_stmt 1 view .LVU1343
 4342              	.LBE1142:
 4343              	.LBE1184:
 4344              	.LBE1199:
 4345              		.loc 1 818 1 is_stmt 0 view .LVU1344
 4346 0136 2846     		mov	r0, r5
 4347 0138 03B0     		add	sp, sp, #12
 4348              		.cfi_def_cfa_offset 36
 4349              		@ sp needed
 4350 013a BDE8F08F 		pop	{r4, r5, r6, r7, r8, r9, r10, fp, pc}
 4351              		.loc 1 818 1 view .LVU1345
 4352              		.cfi_endproc
 4353              	.LFE296:
 4354              		.size	obqWriteTimeout, .-obqWriteTimeout
 4355 013e 00BF     		.section	.text.obqTryFlushI,"ax",%progbits
 4356              		.align	1
 4357              		.p2align 4,,15
 4358              		.global	obqTryFlushI
 4359              		.syntax unified
 4360              		.thumb
 4361              		.thumb_func
 4362              		.fpu softvfp
 4363              		.type	obqTryFlushI, %function
 4364              	obqTryFlushI:
 4365              	.LVL220:
 4366              	.LFB297:
 4367              		.loc 1 833 49 is_stmt 1 view -0
 4368              		.cfi_startproc
 4369              		@ args = 0, pretend = 0, frame = 0
 4370              		@ frame_needed = 0, uses_anonymous_args = 0
 4371              		@ link register save eliminated.
 4372              		.loc 1 835 23 view .LVU1347
 4373              		.loc 1 839 3 view .LVU1348
 4374              		.loc 1 839 7 is_stmt 0 view .LVU1349
 4375 0000 D0E90423 		ldrd	r2, r3, [r0, #16]
 4376 0004 9A42     		cmp	r2, r3
 4377 0006 01D0     		beq	.L191
 4378              	.L187:
 4379              		.loc 1 860 10 view .LVU1350
 4380 0008 0020     		movs	r0, #0
 4381              	.LVL221:
 4382              		.loc 1 860 10 view .LVU1351
 4383 000a 7047     		bx	lr
 4384              	.LVL222:
 4385              	.L191:
 4386              		.loc 1 839 7 discriminator 1 view .LVU1352
 4387 000c C368     		ldr	r3, [r0, #12]
 4388 000e 002B     		cmp	r3, #0
 4389 0010 FAD0     		beq	.L187
ARM GAS  /tmp/ccstZxWH.s 			page 78


 4390              		.loc 1 839 33 view .LVU1353
 4391 0012 836A     		ldr	r3, [r0, #40]
 4392              		.loc 1 839 25 view .LVU1354
 4393 0014 002B     		cmp	r3, #0
 4394 0016 F7D0     		beq	.L187
 4395              	.LBB1200:
 4396              		.loc 1 840 5 is_stmt 1 view .LVU1355
 4397              		.loc 1 840 12 is_stmt 0 view .LVU1356
 4398 0018 043B     		subs	r3, r3, #4
 4399              	.LVL223:
 4400              		.loc 1 842 5 is_stmt 1 view .LVU1357
 4401              		.loc 1 842 8 is_stmt 0 view .LVU1358
 4402 001a 9B1A     		subs	r3, r3, r2
 4403              	.LVL224:
 4404              		.loc 1 842 8 view .LVU1359
 4405 001c F4D0     		beq	.L187
 4406              		.loc 1 845 7 is_stmt 1 view .LVU1360
 4407              		.loc 1 845 33 is_stmt 0 view .LVU1361
 4408 001e 1360     		str	r3, [r2]
 4409              		.loc 1 848 7 is_stmt 1 view .LVU1362
 4410              		.loc 1 849 20 is_stmt 0 view .LVU1363
 4411 0020 D0F81CC0 		ldr	ip, [r0, #28]
 4412              		.loc 1 848 11 view .LVU1364
 4413 0024 C368     		ldr	r3, [r0, #12]
 4414              	.LVL225:
 4415              		.loc 1 850 10 view .LVU1365
 4416 0026 8169     		ldr	r1, [r0, #24]
 4417              		.loc 1 849 20 view .LVU1366
 4418 0028 6244     		add	r2, r2, ip
 4419              	.LVL226:
 4420              		.loc 1 848 21 view .LVU1367
 4421 002a 013B     		subs	r3, r3, #1
 4422              		.loc 1 850 10 view .LVU1368
 4423 002c 8A42     		cmp	r2, r1
 4424              		.loc 1 848 21 view .LVU1369
 4425 002e C360     		str	r3, [r0, #12]
 4426              	.LVL227:
 4427              		.loc 1 849 7 is_stmt 1 view .LVU1370
 4428              		.loc 1 851 22 is_stmt 0 view .LVU1371
 4429 0030 28BF     		it	cs
 4430 0032 436A     		ldrcs	r3, [r0, #36]
 4431              		.loc 1 849 20 view .LVU1372
 4432 0034 0261     		str	r2, [r0, #16]
 4433              	.LVL228:
 4434              		.loc 1 850 7 is_stmt 1 view .LVU1373
 4435              		.loc 1 851 9 view .LVU1374
 4436              		.loc 1 851 22 is_stmt 0 view .LVU1375
 4437 0036 28BF     		it	cs
 4438 0038 0361     		strcs	r3, [r0, #16]
 4439              		.loc 1 855 7 is_stmt 1 view .LVU1376
 4440              		.loc 1 855 17 is_stmt 0 view .LVU1377
 4441 003a 0023     		movs	r3, #0
 4442 003c 8362     		str	r3, [r0, #40]
 4443              		.loc 1 857 7 is_stmt 1 view .LVU1378
 4444              		.loc 1 857 14 is_stmt 0 view .LVU1379
 4445 003e 0120     		movs	r0, #1
 4446              	.LVL229:
ARM GAS  /tmp/ccstZxWH.s 			page 79


 4447              		.loc 1 857 14 view .LVU1380
 4448 0040 7047     		bx	lr
 4449              	.LBE1200:
 4450              		.cfi_endproc
 4451              	.LFE297:
 4452              		.size	obqTryFlushI, .-obqTryFlushI
 4453 0042 00BF     		.section	.text.obqFlush,"ax",%progbits
 4454              		.align	1
 4455              		.p2align 4,,15
 4456              		.global	obqFlush
 4457              		.syntax unified
 4458              		.thumb
 4459              		.thumb_func
 4460              		.fpu softvfp
 4461              		.type	obqFlush, %function
 4462              	obqFlush:
 4463              	.LVL230:
 4464              	.LFB298:
 4465              		.loc 1 870 45 is_stmt 1 view -0
 4466              		.cfi_startproc
 4467              		@ args = 0, pretend = 0, frame = 0
 4468              		@ frame_needed = 0, uses_anonymous_args = 0
 4469              		.loc 1 872 3 view .LVU1382
 4470              	.LBB1215:
 4471              	.LBI1215:
 4472              		.loc 2 491 20 view .LVU1383
 4473              	.LBE1215:
 4474              		.loc 2 493 3 view .LVU1384
 4475              	.LBB1227:
 4476              	.LBB1216:
 4477              	.LBI1216:
 4478              		.loc 5 374 20 view .LVU1385
 4479              	.LBE1216:
 4480              	.LBE1227:
 4481              		.loc 5 376 3 view .LVU1386
 4482              	.LBB1228:
 4483              	.LBB1224:
 4484              	.LBB1217:
 4485              	.LBI1217:
 4486              		.loc 6 594 20 view .LVU1387
 4487              	.LBE1217:
 4488              	.LBE1224:
 4489              	.LBE1228:
 4490              		.loc 6 602 3 view .LVU1388
 4491              	.LBB1229:
 4492              	.LBB1225:
 4493              	.LBB1222:
 4494              	.LBB1218:
 4495              	.LBI1218:
 4496              		.loc 7 262 57 view .LVU1389
 4497              	.LBB1219:
 4498              		.loc 7 264 3 view .LVU1390
 4499              	.LBE1219:
 4500              	.LBE1218:
 4501              	.LBE1222:
 4502              	.LBE1225:
 4503              	.LBE1229:
ARM GAS  /tmp/ccstZxWH.s 			page 80


 4504              		.loc 1 870 45 is_stmt 0 view .LVU1391
 4505 0000 08B5     		push	{r3, lr}
 4506              		.cfi_def_cfa_offset 8
 4507              		.cfi_offset 3, -8
 4508              		.cfi_offset 14, -4
 4509              	.LBB1230:
 4510              	.LBB1226:
 4511              	.LBB1223:
 4512              	.LBB1221:
 4513              	.LBB1220:
 4514              		.loc 7 264 3 view .LVU1392
 4515 0002 2023     		movs	r3, #32
 4516              		.syntax unified
 4517              	@ 264 "../../../os/common/ext/CMSIS/include/cmsis_gcc.h" 1
 4518 0004 83F31188 		MSR basepri, r3
 4519              	@ 0 "" 2
 4520              	.LVL231:
 4521              		.loc 7 264 3 view .LVU1393
 4522              		.thumb
 4523              		.syntax unified
 4524              	.LBE1220:
 4525              	.LBE1221:
 4526              	.LBE1223:
 4527              	.LBE1226:
 4528              	.LBE1230:
 4529              		.loc 5 377 34 is_stmt 1 view .LVU1394
 4530              		.loc 5 378 20 view .LVU1395
 4531              		.loc 1 875 3 view .LVU1396
 4532              		.loc 1 875 11 is_stmt 0 view .LVU1397
 4533 0008 836A     		ldr	r3, [r0, #40]
 4534              		.loc 1 875 6 view .LVU1398
 4535 000a 1BB1     		cbz	r3, .L194
 4536              	.LBB1231:
 4537              		.loc 1 876 5 is_stmt 1 view .LVU1399
 4538              		.loc 1 876 52 is_stmt 0 view .LVU1400
 4539 000c 0269     		ldr	r2, [r0, #16]
 4540              		.loc 1 876 12 view .LVU1401
 4541 000e 043B     		subs	r3, r3, #4
 4542              	.LVL232:
 4543              		.loc 1 878 5 is_stmt 1 view .LVU1402
 4544              		.loc 1 878 8 is_stmt 0 view .LVU1403
 4545 0010 9B1A     		subs	r3, r3, r2
 4546              	.LVL233:
 4547              		.loc 1 878 8 view .LVU1404
 4548 0012 03D1     		bne	.L204
 4549              	.LVL234:
 4550              	.L194:
 4551              		.loc 1 878 8 view .LVU1405
 4552              	.LBE1231:
 4553              		.loc 1 883 3 is_stmt 1 view .LVU1406
 4554              	.LBB1234:
 4555              	.LBI1234:
 4556              		.loc 2 502 20 view .LVU1407
 4557              	.LBE1234:
 4558              		.loc 2 504 3 view .LVU1408
 4559              	.LBB1251:
 4560              	.LBB1235:
ARM GAS  /tmp/ccstZxWH.s 			page 81


 4561              	.LBI1235:
 4562              		.loc 5 386 20 view .LVU1409
 4563              	.LBB1236:
 4564              		.loc 5 388 22 view .LVU1410
 4565              		.loc 5 389 33 view .LVU1411
 4566              		.loc 5 395 3 view .LVU1412
 4567              		.loc 5 395 3 view .LVU1413
 4568              		.loc 5 395 3 view .LVU1414
 4569              		.loc 5 399 3 view .LVU1415
 4570              	.LBB1237:
 4571              	.LBI1237:
 4572              		.loc 6 618 20 view .LVU1416
 4573              	.LBE1237:
 4574              	.LBE1236:
 4575              	.LBE1235:
 4576              	.LBE1251:
 4577              		.loc 6 621 3 view .LVU1417
 4578              	.LBB1252:
 4579              	.LBB1248:
 4580              	.LBB1245:
 4581              	.LBB1242:
 4582              	.LBB1238:
 4583              	.LBI1238:
 4584              		.loc 7 262 57 view .LVU1418
 4585              	.LBB1239:
 4586              		.loc 7 264 3 view .LVU1419
 4587 0014 0023     		movs	r3, #0
 4588              		.syntax unified
 4589              	@ 264 "../../../os/common/ext/CMSIS/include/cmsis_gcc.h" 1
 4590 0016 83F31188 		MSR basepri, r3
 4591              	@ 0 "" 2
 4592              	.LVL235:
 4593              		.loc 7 264 3 is_stmt 0 view .LVU1420
 4594              		.thumb
 4595              		.syntax unified
 4596              	.LBE1239:
 4597              	.LBE1238:
 4598              	.LBE1242:
 4599              	.LBE1245:
 4600              	.LBE1248:
 4601              	.LBE1252:
 4602              		.loc 1 884 1 view .LVU1421
 4603 001a 08BD     		pop	{r3, pc}
 4604              	.LVL236:
 4605              	.L204:
 4606              	.LBB1253:
 4607              		.loc 1 879 7 is_stmt 1 view .LVU1422
 4608              	.LBB1232:
 4609              	.LBI1232:
 4610              		.loc 1 645 6 view .LVU1423
 4611              	.LBB1233:
 4612              		.loc 1 647 23 view .LVU1424
 4613              		.loc 1 648 3 view .LVU1425
 4614              		.loc 1 648 3 view .LVU1426
 4615              		.loc 1 648 3 view .LVU1427
 4616              		.loc 1 649 3 view .LVU1428
 4617              		.loc 1 649 3 view .LVU1429
ARM GAS  /tmp/ccstZxWH.s 			page 82


 4618              		.loc 1 649 3 view .LVU1430
 4619              		.loc 1 652 3 view .LVU1431
 4620              		.loc 1 652 29 is_stmt 0 view .LVU1432
 4621 001c 1360     		str	r3, [r2]
 4622              		.loc 1 655 3 is_stmt 1 view .LVU1433
 4623              		.loc 1 656 16 is_stmt 0 view .LVU1434
 4624 001e D0F81CC0 		ldr	ip, [r0, #28]
 4625              		.loc 1 655 7 view .LVU1435
 4626 0022 C368     		ldr	r3, [r0, #12]
 4627              	.LVL237:
 4628              		.loc 1 657 6 view .LVU1436
 4629 0024 8169     		ldr	r1, [r0, #24]
 4630              		.loc 1 656 16 view .LVU1437
 4631 0026 6244     		add	r2, r2, ip
 4632              	.LVL238:
 4633              		.loc 1 655 17 view .LVU1438
 4634 0028 013B     		subs	r3, r3, #1
 4635              		.loc 1 657 6 view .LVU1439
 4636 002a 8A42     		cmp	r2, r1
 4637              		.loc 1 655 17 view .LVU1440
 4638 002c C360     		str	r3, [r0, #12]
 4639              	.LVL239:
 4640              		.loc 1 656 3 is_stmt 1 view .LVU1441
 4641              		.loc 1 658 18 is_stmt 0 view .LVU1442
 4642 002e 28BF     		it	cs
 4643 0030 436A     		ldrcs	r3, [r0, #36]
 4644              		.loc 1 656 16 view .LVU1443
 4645 0032 0261     		str	r2, [r0, #16]
 4646              	.LVL240:
 4647              		.loc 1 657 3 is_stmt 1 view .LVU1444
 4648              		.loc 1 658 5 view .LVU1445
 4649              		.loc 1 662 3 view .LVU1446
 4650              		.loc 1 658 18 is_stmt 0 view .LVU1447
 4651 0034 28BF     		it	cs
 4652 0036 0361     		strcs	r3, [r0, #16]
 4653              		.loc 1 665 11 view .LVU1448
 4654 0038 036B     		ldr	r3, [r0, #48]
 4655              		.loc 1 662 13 view .LVU1449
 4656 003a 0022     		movs	r2, #0
 4657 003c 8262     		str	r2, [r0, #40]
 4658              		.loc 1 665 3 is_stmt 1 view .LVU1450
 4659              		.loc 1 665 6 is_stmt 0 view .LVU1451
 4660 003e 002B     		cmp	r3, #0
 4661 0040 E8D0     		beq	.L194
 4662              		.loc 1 666 5 is_stmt 1 view .LVU1452
 4663 0042 9847     		blx	r3
 4664              	.LVL241:
 4665              		.loc 1 666 5 is_stmt 0 view .LVU1453
 4666              	.LBE1233:
 4667              	.LBE1232:
 4668              	.LBE1253:
 4669              		.loc 1 883 3 is_stmt 1 view .LVU1454
 4670              	.LBB1254:
 4671              		.loc 2 502 20 view .LVU1455
 4672              	.LBE1254:
 4673              		.loc 2 504 3 view .LVU1456
 4674              	.LBB1255:
ARM GAS  /tmp/ccstZxWH.s 			page 83


 4675              	.LBB1249:
 4676              		.loc 5 386 20 view .LVU1457
 4677              	.LBB1246:
 4678              		.loc 5 388 22 view .LVU1458
 4679              		.loc 5 389 33 view .LVU1459
 4680              		.loc 5 395 3 view .LVU1460
 4681              		.loc 5 395 3 view .LVU1461
 4682              		.loc 5 395 3 view .LVU1462
 4683              		.loc 5 399 3 view .LVU1463
 4684              	.LBB1243:
 4685              		.loc 6 618 20 view .LVU1464
 4686              	.LBE1243:
 4687              	.LBE1246:
 4688              	.LBE1249:
 4689              	.LBE1255:
 4690              		.loc 6 621 3 view .LVU1465
 4691              	.LBB1256:
 4692              	.LBB1250:
 4693              	.LBB1247:
 4694              	.LBB1244:
 4695              	.LBB1241:
 4696              		.loc 7 262 57 view .LVU1466
 4697              	.LBB1240:
 4698              		.loc 7 264 3 view .LVU1467
 4699 0044 0023     		movs	r3, #0
 4700              		.syntax unified
 4701              	@ 264 "../../../os/common/ext/CMSIS/include/cmsis_gcc.h" 1
 4702 0046 83F31188 		MSR basepri, r3
 4703              	@ 0 "" 2
 4704              	.LVL242:
 4705              		.loc 7 264 3 is_stmt 0 view .LVU1468
 4706              		.thumb
 4707              		.syntax unified
 4708              	.LBE1240:
 4709              	.LBE1241:
 4710              	.LBE1244:
 4711              	.LBE1247:
 4712              	.LBE1250:
 4713              	.LBE1256:
 4714              		.loc 1 884 1 view .LVU1469
 4715 004a 08BD     		pop	{r3, pc}
 4716              		.cfi_endproc
 4717              	.LFE298:
 4718              		.size	obqFlush, .-obqFlush
 4719              		.text
 4720              	.Letext0:
 4721              		.file 11 "/usr/lib/gcc/arm-none-eabi/10.3.1/include/stddef.h"
 4722              		.file 12 "/usr/lib/gcc/arm-none-eabi/10.3.1/include/stdint.h"
 4723              		.file 13 "../../../os/common/ports/ARMCMx/compilers/GCC/chtypes.h"
 4724              		.file 14 "../../../os/rt/include/chsystypes.h"
 4725              		.file 15 "../../../os/common/ports/ARMCMx/chcore.h"
 4726              		.file 16 "../../../os/hal/ports/STM32/LLD/TIMv1/stm32_tim.h"
 4727              		.file 17 "../../../os/rt/include/chsem.h"
 4728              		.file 18 "../../../os/rt/include/chmtx.h"
 4729              		.file 19 "../../../os/hal/include/hal_buffers.h"
 4730              		.file 20 "<built-in>"
 4731              		.section	.debug_info,"",%progbits
ARM GAS  /tmp/ccstZxWH.s 			page 84


 4732              	.Ldebug_info0:
 4733 0000 FE250000 		.4byte	0x25fe
 4734 0004 0400     		.2byte	0x4
 4735 0006 00000000 		.4byte	.Ldebug_abbrev0
 4736 000a 04       		.byte	0x4
 4737 000b 01       		.uleb128 0x1
 4738 000c D6030000 		.4byte	.LASF142
 4739 0010 0C       		.byte	0xc
 4740 0011 CD000000 		.4byte	.LASF143
 4741 0015 2B030000 		.4byte	.LASF144
 4742 0019 A80C0000 		.4byte	.Ldebug_ranges0+0xca8
 4743 001d 00000000 		.4byte	0
 4744 0021 00000000 		.4byte	.Ldebug_line0
 4745 0025 02       		.uleb128 0x2
 4746 0026 04       		.byte	0x4
 4747 0027 05       		.byte	0x5
 4748 0028 696E7400 		.ascii	"int\000"
 4749 002c 03       		.uleb128 0x3
 4750 002d 18000000 		.4byte	.LASF11
 4751 0031 0B       		.byte	0xb
 4752 0032 D1       		.byte	0xd1
 4753 0033 17       		.byte	0x17
 4754 0034 3D000000 		.4byte	0x3d
 4755 0038 04       		.uleb128 0x4
 4756 0039 2C000000 		.4byte	0x2c
 4757 003d 05       		.uleb128 0x5
 4758 003e 04       		.byte	0x4
 4759 003f 07       		.byte	0x7
 4760 0040 8F020000 		.4byte	.LASF0
 4761 0044 05       		.uleb128 0x5
 4762 0045 08       		.byte	0x8
 4763 0046 05       		.byte	0x5
 4764 0047 D3010000 		.4byte	.LASF1
 4765 004b 05       		.uleb128 0x5
 4766 004c 08       		.byte	0x8
 4767 004d 04       		.byte	0x4
 4768 004e BC030000 		.4byte	.LASF2
 4769 0052 05       		.uleb128 0x5
 4770 0053 01       		.byte	0x1
 4771 0054 06       		.byte	0x6
 4772 0055 2D010000 		.4byte	.LASF3
 4773 0059 05       		.uleb128 0x5
 4774 005a 01       		.byte	0x1
 4775 005b 08       		.byte	0x8
 4776 005c 28050000 		.4byte	.LASF4
 4777 0060 05       		.uleb128 0x5
 4778 0061 02       		.byte	0x2
 4779 0062 05       		.byte	0x5
 4780 0063 5E050000 		.4byte	.LASF5
 4781 0067 05       		.uleb128 0x5
 4782 0068 02       		.byte	0x2
 4783 0069 07       		.byte	0x7
 4784 006a 52060000 		.4byte	.LASF6
 4785 006e 05       		.uleb128 0x5
 4786 006f 04       		.byte	0x4
 4787 0070 05       		.byte	0x5
 4788 0071 B5010000 		.4byte	.LASF7
ARM GAS  /tmp/ccstZxWH.s 			page 85


 4789 0075 05       		.uleb128 0x5
 4790 0076 04       		.byte	0x4
 4791 0077 07       		.byte	0x7
 4792 0078 F8050000 		.4byte	.LASF8
 4793 007c 05       		.uleb128 0x5
 4794 007d 08       		.byte	0x8
 4795 007e 07       		.byte	0x7
 4796 007f 8E000000 		.4byte	.LASF9
 4797 0083 06       		.uleb128 0x6
 4798 0084 04       		.byte	0x4
 4799 0085 05       		.uleb128 0x5
 4800 0086 01       		.byte	0x1
 4801 0087 08       		.byte	0x8
 4802 0088 18060000 		.4byte	.LASF10
 4803 008c 07       		.uleb128 0x7
 4804 008d 85000000 		.4byte	0x85
 4805 0091 08       		.uleb128 0x8
 4806 0092 04       		.byte	0x4
 4807 0093 8C000000 		.4byte	0x8c
 4808 0097 03       		.uleb128 0x3
 4809 0098 20050000 		.4byte	.LASF12
 4810 009c 0C       		.byte	0xc
 4811 009d 28       		.byte	0x28
 4812 009e 18       		.byte	0x18
 4813 009f 6E000000 		.4byte	0x6e
 4814 00a3 03       		.uleb128 0x3
 4815 00a4 D9060000 		.4byte	.LASF13
 4816 00a8 0C       		.byte	0xc
 4817 00a9 2E       		.byte	0x2e
 4818 00aa 18       		.byte	0x18
 4819 00ab 59000000 		.4byte	0x59
 4820 00af 07       		.uleb128 0x7
 4821 00b0 A3000000 		.4byte	0xa3
 4822 00b4 03       		.uleb128 0x3
 4823 00b5 D2050000 		.4byte	.LASF14
 4824 00b9 0C       		.byte	0xc
 4825 00ba 34       		.byte	0x34
 4826 00bb 19       		.byte	0x19
 4827 00bc 75000000 		.4byte	0x75
 4828 00c0 04       		.uleb128 0x4
 4829 00c1 B4000000 		.4byte	0xb4
 4830 00c5 03       		.uleb128 0x3
 4831 00c6 2B000000 		.4byte	.LASF15
 4832 00ca 0C       		.byte	0xc
 4833 00cb 37       		.byte	0x37
 4834 00cc 19       		.byte	0x19
 4835 00cd 7C000000 		.4byte	0x7c
 4836 00d1 03       		.uleb128 0x3
 4837 00d2 62070000 		.4byte	.LASF16
 4838 00d6 0D       		.byte	0xd
 4839 00d7 3C       		.byte	0x3c
 4840 00d8 1D       		.byte	0x1d
 4841 00d9 A3000000 		.4byte	0xa3
 4842 00dd 03       		.uleb128 0x3
 4843 00de BE010000 		.4byte	.LASF17
 4844 00e2 0D       		.byte	0xd
 4845 00e3 3D       		.byte	0x3d
ARM GAS  /tmp/ccstZxWH.s 			page 86


 4846 00e4 1D       		.byte	0x1d
 4847 00e5 A3000000 		.4byte	0xa3
 4848 00e9 03       		.uleb128 0x3
 4849 00ea EE040000 		.4byte	.LASF18
 4850 00ee 0D       		.byte	0xd
 4851 00ef 3E       		.byte	0x3e
 4852 00f0 1D       		.byte	0x1d
 4853 00f1 A3000000 		.4byte	0xa3
 4854 00f5 03       		.uleb128 0x3
 4855 00f6 FB040000 		.4byte	.LASF19
 4856 00fa 0D       		.byte	0xd
 4857 00fb 40       		.byte	0x40
 4858 00fc 1D       		.byte	0x1d
 4859 00fd B4000000 		.4byte	0xb4
 4860 0101 03       		.uleb128 0x3
 4861 0102 93060000 		.4byte	.LASF20
 4862 0106 0D       		.byte	0xd
 4863 0107 41       		.byte	0x41
 4864 0108 1D       		.byte	0x1d
 4865 0109 97000000 		.4byte	0x97
 4866 010d 03       		.uleb128 0x3
 4867 010e 6E030000 		.4byte	.LASF21
 4868 0112 0D       		.byte	0xd
 4869 0113 43       		.byte	0x43
 4870 0114 1D       		.byte	0x1d
 4871 0115 B4000000 		.4byte	0xb4
 4872 0119 03       		.uleb128 0x3
 4873 011a 76020000 		.4byte	.LASF22
 4874 011e 0D       		.byte	0xd
 4875 011f 45       		.byte	0x45
 4876 0120 1D       		.byte	0x1d
 4877 0121 97000000 		.4byte	0x97
 4878 0125 03       		.uleb128 0x3
 4879 0126 43060000 		.4byte	.LASF23
 4880 012a 0E       		.byte	0xe
 4881 012b 33       		.byte	0x33
 4882 012c 12       		.byte	0x12
 4883 012d B4000000 		.4byte	0xb4
 4884 0131 03       		.uleb128 0x3
 4885 0132 3A060000 		.4byte	.LASF24
 4886 0136 0E       		.byte	0xe
 4887 0137 3F       		.byte	0x3f
 4888 0138 1A       		.byte	0x1a
 4889 0139 3D010000 		.4byte	0x13d
 4890 013d 09       		.uleb128 0x9
 4891 013e CE020000 		.4byte	.LASF42
 4892 0142 44       		.byte	0x44
 4893 0143 04       		.byte	0x4
 4894 0144 9A       		.byte	0x9a
 4895 0145 08       		.byte	0x8
 4896 0146 2D020000 		.4byte	0x22d
 4897 014a 0A       		.uleb128 0xa
 4898 014b E1010000 		.4byte	.LASF25
 4899 014f 04       		.byte	0x4
 4900 0150 9B       		.byte	0x9b
 4901 0151 19       		.byte	0x19
 4902 0152 66020000 		.4byte	0x266
ARM GAS  /tmp/ccstZxWH.s 			page 87


 4903 0156 00       		.byte	0
 4904 0157 0A       		.uleb128 0xa
 4905 0158 DB040000 		.4byte	.LASF26
 4906 015c 04       		.byte	0x4
 4907 015d 9C       		.byte	0x9c
 4908 015e 19       		.byte	0x19
 4909 015f F5000000 		.4byte	0xf5
 4910 0163 08       		.byte	0x8
 4911 0164 0B       		.uleb128 0xb
 4912 0165 63747800 		.ascii	"ctx\000"
 4913 0169 04       		.byte	0x4
 4914 016a 9D       		.byte	0x9d
 4915 016b 19       		.byte	0x19
 4916 016c DC020000 		.4byte	0x2dc
 4917 0170 0C       		.byte	0xc
 4918 0171 0A       		.uleb128 0xa
 4919 0172 85030000 		.4byte	.LASF27
 4920 0176 04       		.byte	0x4
 4921 0177 9F       		.byte	0x9f
 4922 0178 1A       		.byte	0x1a
 4923 0179 39020000 		.4byte	0x239
 4924 017d 10       		.byte	0x10
 4925 017e 0A       		.uleb128 0xa
 4926 017f 1D060000 		.4byte	.LASF28
 4927 0183 04       		.byte	0x4
 4928 0184 A0       		.byte	0xa0
 4929 0185 1A       		.byte	0x1a
 4930 0186 39020000 		.4byte	0x239
 4931 018a 14       		.byte	0x14
 4932 018b 0A       		.uleb128 0xa
 4933 018c B9020000 		.4byte	.LASF29
 4934 0190 04       		.byte	0x4
 4935 0191 A7       		.byte	0xa7
 4936 0192 1A       		.byte	0x1a
 4937 0193 91000000 		.4byte	0x91
 4938 0197 18       		.byte	0x18
 4939 0198 0A       		.uleb128 0xa
 4940 0199 0A060000 		.4byte	.LASF30
 4941 019d 04       		.byte	0x4
 4942 019e B0       		.byte	0xb0
 4943 019f 1A       		.byte	0x1a
 4944 01a0 8B050000 		.4byte	0x58b
 4945 01a4 1C       		.byte	0x1c
 4946 01a5 0A       		.uleb128 0xa
 4947 01a6 AF010000 		.4byte	.LASF31
 4948 01aa 04       		.byte	0x4
 4949 01ab B5       		.byte	0xb5
 4950 01ac 19       		.byte	0x19
 4951 01ad DD000000 		.4byte	0xdd
 4952 01b1 20       		.byte	0x20
 4953 01b2 0A       		.uleb128 0xa
 4954 01b3 E1060000 		.4byte	.LASF32
 4955 01b7 04       		.byte	0x4
 4956 01b8 B9       		.byte	0xb9
 4957 01b9 19       		.byte	0x19
 4958 01ba D1000000 		.4byte	0xd1
 4959 01be 21       		.byte	0x21
ARM GAS  /tmp/ccstZxWH.s 			page 88


 4960 01bf 0A       		.uleb128 0xa
 4961 01c0 F6040000 		.4byte	.LASF33
 4962 01c4 04       		.byte	0x4
 4963 01c5 BE       		.byte	0xbe
 4964 01c6 19       		.byte	0x19
 4965 01c7 E9000000 		.4byte	0xe9
 4966 01cb 22       		.byte	0x22
 4967 01cc 0C       		.uleb128 0xc
 4968 01cd 7500     		.ascii	"u\000"
 4969 01cf 04       		.byte	0x4
 4970 01d0 0F01     		.2byte	0x10f
 4971 01d2 19       		.byte	0x19
 4972 01d3 B0040000 		.4byte	0x4b0
 4973 01d7 24       		.byte	0x24
 4974 01d8 0D       		.uleb128 0xd
 4975 01d9 2B020000 		.4byte	.LASF34
 4976 01dd 04       		.byte	0x4
 4977 01de 1401     		.2byte	0x114
 4978 01e0 19       		.byte	0x19
 4979 01e1 3F020000 		.4byte	0x23f
 4980 01e5 28       		.byte	0x28
 4981 01e6 0D       		.uleb128 0xd
 4982 01e7 98010000 		.4byte	.LASF35
 4983 01eb 04       		.byte	0x4
 4984 01ec 1A01     		.2byte	0x11a
 4985 01ee 19       		.byte	0x19
 4986 01ef 66020000 		.4byte	0x266
 4987 01f3 2C       		.byte	0x2c
 4988 01f4 0D       		.uleb128 0xd
 4989 01f5 EB020000 		.4byte	.LASF36
 4990 01f9 04       		.byte	0x4
 4991 01fa 2001     		.2byte	0x120
 4992 01fc 19       		.byte	0x19
 4993 01fd 0D010000 		.4byte	0x10d
 4994 0201 34       		.byte	0x34
 4995 0202 0D       		.uleb128 0xd
 4996 0203 7F070000 		.4byte	.LASF37
 4997 0207 04       		.byte	0x4
 4998 0208 2701     		.2byte	0x127
 4999 020a 1A       		.byte	0x1a
 5000 020b 85050000 		.4byte	0x585
 5001 020f 38       		.byte	0x38
 5002 0210 0D       		.uleb128 0xd
 5003 0211 A0030000 		.4byte	.LASF38
 5004 0215 04       		.byte	0x4
 5005 0216 2B01     		.2byte	0x12b
 5006 0218 19       		.byte	0x19
 5007 0219 F5000000 		.4byte	0xf5
 5008 021d 3C       		.byte	0x3c
 5009 021e 0D       		.uleb128 0xd
 5010 021f BE020000 		.4byte	.LASF39
 5011 0223 04       		.byte	0x4
 5012 0224 3201     		.2byte	0x132
 5013 0226 1A       		.byte	0x1a
 5014 0227 83000000 		.4byte	0x83
 5015 022b 40       		.byte	0x40
 5016 022c 00       		.byte	0
ARM GAS  /tmp/ccstZxWH.s 			page 89


 5017 022d 03       		.uleb128 0x3
 5018 022e A9030000 		.4byte	.LASF40
 5019 0232 0E       		.byte	0xe
 5020 0233 44       		.byte	0x44
 5021 0234 14       		.byte	0x14
 5022 0235 39020000 		.4byte	0x239
 5023 0239 08       		.uleb128 0x8
 5024 023a 04       		.byte	0x4
 5025 023b 31010000 		.4byte	0x131
 5026 023f 03       		.uleb128 0x3
 5027 0240 3E070000 		.4byte	.LASF41
 5028 0244 0E       		.byte	0xe
 5029 0245 49       		.byte	0x49
 5030 0246 20       		.byte	0x20
 5031 0247 4B020000 		.4byte	0x24b
 5032 024b 09       		.uleb128 0x9
 5033 024c E2050000 		.4byte	.LASF43
 5034 0250 04       		.byte	0x4
 5035 0251 04       		.byte	0x4
 5036 0252 88       		.byte	0x88
 5037 0253 08       		.byte	0x8
 5038 0254 66020000 		.4byte	0x266
 5039 0258 0A       		.uleb128 0xa
 5040 0259 1F000000 		.4byte	.LASF44
 5041 025d 04       		.byte	0x4
 5042 025e 89       		.byte	0x89
 5043 025f 1A       		.byte	0x1a
 5044 0260 39020000 		.4byte	0x239
 5045 0264 00       		.byte	0
 5046 0265 00       		.byte	0
 5047 0266 03       		.uleb128 0x3
 5048 0267 A4060000 		.4byte	.LASF45
 5049 026b 0E       		.byte	0xe
 5050 026c 50       		.byte	0x50
 5051 026d 21       		.byte	0x21
 5052 026e 72020000 		.4byte	0x272
 5053 0272 09       		.uleb128 0x9
 5054 0273 68000000 		.4byte	.LASF46
 5055 0277 08       		.byte	0x8
 5056 0278 04       		.byte	0x4
 5057 0279 8F       		.byte	0x8f
 5058 027a 08       		.byte	0x8
 5059 027b 9A020000 		.4byte	0x29a
 5060 027f 0A       		.uleb128 0xa
 5061 0280 1F000000 		.4byte	.LASF44
 5062 0284 04       		.byte	0x4
 5063 0285 90       		.byte	0x90
 5064 0286 1A       		.byte	0x1a
 5065 0287 39020000 		.4byte	0x239
 5066 028b 00       		.byte	0
 5067 028c 0A       		.uleb128 0xa
 5068 028d 57000000 		.4byte	.LASF47
 5069 0291 04       		.byte	0x4
 5070 0292 91       		.byte	0x91
 5071 0293 1A       		.byte	0x1a
 5072 0294 39020000 		.4byte	0x239
 5073 0298 04       		.byte	0x4
ARM GAS  /tmp/ccstZxWH.s 			page 90


 5074 0299 00       		.byte	0
 5075 029a 0E       		.uleb128 0xe
 5076 029b C0000000 		.4byte	0xc0
 5077 029f AA020000 		.4byte	0x2aa
 5078 02a3 0F       		.uleb128 0xf
 5079 02a4 3D000000 		.4byte	0x3d
 5080 02a8 01       		.byte	0x1
 5081 02a9 00       		.byte	0
 5082 02aa 04       		.uleb128 0x4
 5083 02ab 9A020000 		.4byte	0x29a
 5084 02af 0E       		.uleb128 0xe
 5085 02b0 C0000000 		.4byte	0xc0
 5086 02b4 BF020000 		.4byte	0x2bf
 5087 02b8 0F       		.uleb128 0xf
 5088 02b9 3D000000 		.4byte	0x3d
 5089 02bd 03       		.byte	0x3
 5090 02be 00       		.byte	0
 5091 02bf 04       		.uleb128 0x4
 5092 02c0 AF020000 		.4byte	0x2af
 5093 02c4 03       		.uleb128 0x3
 5094 02c5 00020000 		.4byte	.LASF48
 5095 02c9 0F       		.byte	0xf
 5096 02ca 65       		.byte	0x65
 5097 02cb 0F       		.byte	0xf
 5098 02cc 83000000 		.4byte	0x83
 5099 02d0 03       		.uleb128 0x3
 5100 02d1 7A030000 		.4byte	.LASF49
 5101 02d5 0F       		.byte	0xf
 5102 02d6 6D       		.byte	0x6d
 5103 02d7 12       		.byte	0x12
 5104 02d8 C5000000 		.4byte	0xc5
 5105 02dc 09       		.uleb128 0x9
 5106 02dd 60020000 		.4byte	.LASF50
 5107 02e1 04       		.byte	0x4
 5108 02e2 0F       		.byte	0xf
 5109 02e3 89       		.byte	0x89
 5110 02e4 08       		.byte	0x8
 5111 02e5 F6020000 		.4byte	0x2f6
 5112 02e9 0B       		.uleb128 0xb
 5113 02ea 737000   		.ascii	"sp\000"
 5114 02ed 0F       		.byte	0xf
 5115 02ee 8A       		.byte	0x8a
 5116 02ef 17       		.byte	0x17
 5117 02f0 7C030000 		.4byte	0x37c
 5118 02f4 00       		.byte	0
 5119 02f5 00       		.byte	0
 5120 02f6 10       		.uleb128 0x10
 5121 02f7 5C000000 		.4byte	.LASF51
 5122 02fb 24       		.byte	0x24
 5123 02fc 06       		.byte	0x6
 5124 02fd 5901     		.2byte	0x159
 5125 02ff 08       		.byte	0x8
 5126 0300 7C030000 		.4byte	0x37c
 5127 0304 0C       		.uleb128 0xc
 5128 0305 723400   		.ascii	"r4\000"
 5129 0308 06       		.byte	0x6
 5130 0309 6C01     		.2byte	0x16c
ARM GAS  /tmp/ccstZxWH.s 			page 91


 5131 030b 11       		.byte	0x11
 5132 030c C4020000 		.4byte	0x2c4
 5133 0310 00       		.byte	0
 5134 0311 0C       		.uleb128 0xc
 5135 0312 723500   		.ascii	"r5\000"
 5136 0315 06       		.byte	0x6
 5137 0316 6D01     		.2byte	0x16d
 5138 0318 11       		.byte	0x11
 5139 0319 C4020000 		.4byte	0x2c4
 5140 031d 04       		.byte	0x4
 5141 031e 0C       		.uleb128 0xc
 5142 031f 723600   		.ascii	"r6\000"
 5143 0322 06       		.byte	0x6
 5144 0323 6E01     		.2byte	0x16e
 5145 0325 11       		.byte	0x11
 5146 0326 C4020000 		.4byte	0x2c4
 5147 032a 08       		.byte	0x8
 5148 032b 0C       		.uleb128 0xc
 5149 032c 723700   		.ascii	"r7\000"
 5150 032f 06       		.byte	0x6
 5151 0330 6F01     		.2byte	0x16f
 5152 0332 11       		.byte	0x11
 5153 0333 C4020000 		.4byte	0x2c4
 5154 0337 0C       		.byte	0xc
 5155 0338 0C       		.uleb128 0xc
 5156 0339 723800   		.ascii	"r8\000"
 5157 033c 06       		.byte	0x6
 5158 033d 7001     		.2byte	0x170
 5159 033f 11       		.byte	0x11
 5160 0340 C4020000 		.4byte	0x2c4
 5161 0344 10       		.byte	0x10
 5162 0345 0C       		.uleb128 0xc
 5163 0346 723900   		.ascii	"r9\000"
 5164 0349 06       		.byte	0x6
 5165 034a 7101     		.2byte	0x171
 5166 034c 11       		.byte	0x11
 5167 034d C4020000 		.4byte	0x2c4
 5168 0351 14       		.byte	0x14
 5169 0352 0C       		.uleb128 0xc
 5170 0353 72313000 		.ascii	"r10\000"
 5171 0357 06       		.byte	0x6
 5172 0358 7201     		.2byte	0x172
 5173 035a 11       		.byte	0x11
 5174 035b C4020000 		.4byte	0x2c4
 5175 035f 18       		.byte	0x18
 5176 0360 0C       		.uleb128 0xc
 5177 0361 72313100 		.ascii	"r11\000"
 5178 0365 06       		.byte	0x6
 5179 0366 7301     		.2byte	0x173
 5180 0368 11       		.byte	0x11
 5181 0369 C4020000 		.4byte	0x2c4
 5182 036d 1C       		.byte	0x1c
 5183 036e 0C       		.uleb128 0xc
 5184 036f 6C7200   		.ascii	"lr\000"
 5185 0372 06       		.byte	0x6
 5186 0373 7401     		.2byte	0x174
 5187 0375 11       		.byte	0x11
ARM GAS  /tmp/ccstZxWH.s 			page 92


 5188 0376 C4020000 		.4byte	0x2c4
 5189 037a 20       		.byte	0x20
 5190 037b 00       		.byte	0
 5191 037c 08       		.uleb128 0x8
 5192 037d 04       		.byte	0x4
 5193 037e F6020000 		.4byte	0x2f6
 5194 0382 11       		.uleb128 0x11
 5195 0383 60       		.byte	0x60
 5196 0384 10       		.byte	0x10
 5197 0385 A101     		.2byte	0x1a1
 5198 0387 09       		.byte	0x9
 5199 0388 A3040000 		.4byte	0x4a3
 5200 038c 0C       		.uleb128 0xc
 5201 038d 43523100 		.ascii	"CR1\000"
 5202 0391 10       		.byte	0x10
 5203 0392 A201     		.2byte	0x1a2
 5204 0394 19       		.byte	0x19
 5205 0395 C0000000 		.4byte	0xc0
 5206 0399 00       		.byte	0
 5207 039a 0C       		.uleb128 0xc
 5208 039b 43523200 		.ascii	"CR2\000"
 5209 039f 10       		.byte	0x10
 5210 03a0 A301     		.2byte	0x1a3
 5211 03a2 19       		.byte	0x19
 5212 03a3 C0000000 		.4byte	0xc0
 5213 03a7 04       		.byte	0x4
 5214 03a8 0D       		.uleb128 0xd
 5215 03a9 C9020000 		.4byte	.LASF52
 5216 03ad 10       		.byte	0x10
 5217 03ae A401     		.2byte	0x1a4
 5218 03b0 19       		.byte	0x19
 5219 03b1 C0000000 		.4byte	0xc0
 5220 03b5 08       		.byte	0x8
 5221 03b6 0D       		.uleb128 0xd
 5222 03b7 23070000 		.4byte	.LASF53
 5223 03bb 10       		.byte	0x10
 5224 03bc A501     		.2byte	0x1a5
 5225 03be 19       		.byte	0x19
 5226 03bf C0000000 		.4byte	0xc0
 5227 03c3 0C       		.byte	0xc
 5228 03c4 0C       		.uleb128 0xc
 5229 03c5 535200   		.ascii	"SR\000"
 5230 03c8 10       		.byte	0x10
 5231 03c9 A601     		.2byte	0x1a6
 5232 03cb 19       		.byte	0x19
 5233 03cc C0000000 		.4byte	0xc0
 5234 03d0 10       		.byte	0x10
 5235 03d1 0C       		.uleb128 0xc
 5236 03d2 45475200 		.ascii	"EGR\000"
 5237 03d6 10       		.byte	0x10
 5238 03d7 A701     		.2byte	0x1a7
 5239 03d9 19       		.byte	0x19
 5240 03da C0000000 		.4byte	0xc0
 5241 03de 14       		.byte	0x14
 5242 03df 0D       		.uleb128 0xd
 5243 03e0 1B010000 		.4byte	.LASF54
 5244 03e4 10       		.byte	0x10
ARM GAS  /tmp/ccstZxWH.s 			page 93


 5245 03e5 A801     		.2byte	0x1a8
 5246 03e7 19       		.byte	0x19
 5247 03e8 C0000000 		.4byte	0xc0
 5248 03ec 18       		.byte	0x18
 5249 03ed 0D       		.uleb128 0xd
 5250 03ee 21010000 		.4byte	.LASF55
 5251 03f2 10       		.byte	0x10
 5252 03f3 A901     		.2byte	0x1a9
 5253 03f5 19       		.byte	0x19
 5254 03f6 C0000000 		.4byte	0xc0
 5255 03fa 1C       		.byte	0x1c
 5256 03fb 0D       		.uleb128 0xd
 5257 03fc CE010000 		.4byte	.LASF56
 5258 0400 10       		.byte	0x10
 5259 0401 AA01     		.2byte	0x1aa
 5260 0403 19       		.byte	0x19
 5261 0404 C0000000 		.4byte	0xc0
 5262 0408 20       		.byte	0x20
 5263 0409 0C       		.uleb128 0xc
 5264 040a 434E5400 		.ascii	"CNT\000"
 5265 040e 10       		.byte	0x10
 5266 040f AB01     		.2byte	0x1ab
 5267 0411 19       		.byte	0x19
 5268 0412 C0000000 		.4byte	0xc0
 5269 0416 24       		.byte	0x24
 5270 0417 0C       		.uleb128 0xc
 5271 0418 50534300 		.ascii	"PSC\000"
 5272 041c 10       		.byte	0x10
 5273 041d AC01     		.2byte	0x1ac
 5274 041f 19       		.byte	0x19
 5275 0420 C0000000 		.4byte	0xc0
 5276 0424 28       		.byte	0x28
 5277 0425 0C       		.uleb128 0xc
 5278 0426 41525200 		.ascii	"ARR\000"
 5279 042a 10       		.byte	0x10
 5280 042b AD01     		.2byte	0x1ad
 5281 042d 19       		.byte	0x19
 5282 042e C0000000 		.4byte	0xc0
 5283 0432 2C       		.byte	0x2c
 5284 0433 0C       		.uleb128 0xc
 5285 0434 52435200 		.ascii	"RCR\000"
 5286 0438 10       		.byte	0x10
 5287 0439 AE01     		.2byte	0x1ae
 5288 043b 19       		.byte	0x19
 5289 043c C0000000 		.4byte	0xc0
 5290 0440 30       		.byte	0x30
 5291 0441 0C       		.uleb128 0xc
 5292 0442 43435200 		.ascii	"CCR\000"
 5293 0446 10       		.byte	0x10
 5294 0447 AF01     		.2byte	0x1af
 5295 0449 19       		.byte	0x19
 5296 044a BF020000 		.4byte	0x2bf
 5297 044e 34       		.byte	0x34
 5298 044f 0D       		.uleb128 0xd
 5299 0450 FD000000 		.4byte	.LASF57
 5300 0454 10       		.byte	0x10
 5301 0455 B001     		.2byte	0x1b0
ARM GAS  /tmp/ccstZxWH.s 			page 94


 5302 0457 19       		.byte	0x19
 5303 0458 C0000000 		.4byte	0xc0
 5304 045c 44       		.byte	0x44
 5305 045d 0C       		.uleb128 0xc
 5306 045e 44435200 		.ascii	"DCR\000"
 5307 0462 10       		.byte	0x10
 5308 0463 B101     		.2byte	0x1b1
 5309 0465 19       		.byte	0x19
 5310 0466 C0000000 		.4byte	0xc0
 5311 046a 48       		.byte	0x48
 5312 046b 0D       		.uleb128 0xd
 5313 046c 35060000 		.4byte	.LASF58
 5314 0470 10       		.byte	0x10
 5315 0471 B201     		.2byte	0x1b2
 5316 0473 19       		.byte	0x19
 5317 0474 C0000000 		.4byte	0xc0
 5318 0478 4C       		.byte	0x4c
 5319 0479 0C       		.uleb128 0xc
 5320 047a 4F5200   		.ascii	"OR\000"
 5321 047d 10       		.byte	0x10
 5322 047e B301     		.2byte	0x1b3
 5323 0480 19       		.byte	0x19
 5324 0481 C0000000 		.4byte	0xc0
 5325 0485 50       		.byte	0x50
 5326 0486 0D       		.uleb128 0xd
 5327 0487 27010000 		.4byte	.LASF59
 5328 048b 10       		.byte	0x10
 5329 048c B401     		.2byte	0x1b4
 5330 048e 19       		.byte	0x19
 5331 048f C0000000 		.4byte	0xc0
 5332 0493 54       		.byte	0x54
 5333 0494 0D       		.uleb128 0xd
 5334 0495 4D060000 		.4byte	.LASF60
 5335 0499 10       		.byte	0x10
 5336 049a B501     		.2byte	0x1b5
 5337 049c 19       		.byte	0x19
 5338 049d AA020000 		.4byte	0x2aa
 5339 04a1 58       		.byte	0x58
 5340 04a2 00       		.byte	0
 5341 04a3 12       		.uleb128 0x12
 5342 04a4 F4020000 		.4byte	.LASF61
 5343 04a8 10       		.byte	0x10
 5344 04a9 B601     		.2byte	0x1b6
 5345 04ab 03       		.byte	0x3
 5346 04ac 82030000 		.4byte	0x382
 5347 04b0 13       		.uleb128 0x13
 5348 04b1 04       		.byte	0x4
 5349 04b2 04       		.byte	0x4
 5350 04b3 D2       		.byte	0xd2
 5351 04b4 03       		.byte	0x3
 5352 04b5 1C050000 		.4byte	0x51c
 5353 04b9 14       		.uleb128 0x14
 5354 04ba 24000000 		.4byte	.LASF62
 5355 04be 04       		.byte	0x4
 5356 04bf D9       		.byte	0xd9
 5357 04c0 19       		.byte	0x19
 5358 04c1 01010000 		.4byte	0x101
ARM GAS  /tmp/ccstZxWH.s 			page 95


 5359 04c5 14       		.uleb128 0x14
 5360 04c6 A5000000 		.4byte	.LASF63
 5361 04ca 04       		.byte	0x4
 5362 04cb E0       		.byte	0xe0
 5363 04cc 19       		.byte	0x19
 5364 04cd 01010000 		.4byte	0x101
 5365 04d1 14       		.uleb128 0x14
 5366 04d2 00070000 		.4byte	.LASF64
 5367 04d6 04       		.byte	0x4
 5368 04d7 E7       		.byte	0xe7
 5369 04d8 1A       		.byte	0x1a
 5370 04d9 83000000 		.4byte	0x83
 5371 04dd 14       		.uleb128 0x14
 5372 04de A3020000 		.4byte	.LASF65
 5373 04e2 04       		.byte	0x4
 5374 04e3 EE       		.byte	0xee
 5375 04e4 1A       		.byte	0x1a
 5376 04e5 1C050000 		.4byte	0x51c
 5377 04e9 14       		.uleb128 0x14
 5378 04ea C5000000 		.4byte	.LASF66
 5379 04ee 04       		.byte	0x4
 5380 04ef F3       		.byte	0xf3
 5381 04f0 19       		.byte	0x19
 5382 04f1 01010000 		.4byte	0x101
 5383 04f5 14       		.uleb128 0x14
 5384 04f6 9C020000 		.4byte	.LASF67
 5385 04fa 04       		.byte	0x4
 5386 04fb FC       		.byte	0xfc
 5387 04fc 1A       		.byte	0x1a
 5388 04fd 4A050000 		.4byte	0x54a
 5389 0501 15       		.uleb128 0x15
 5390 0502 DB050000 		.4byte	.LASF68
 5391 0506 04       		.byte	0x4
 5392 0507 0501     		.2byte	0x105
 5393 0509 1A       		.byte	0x1a
 5394 050a 85050000 		.4byte	0x585
 5395 050e 15       		.uleb128 0x15
 5396 050f 68050000 		.4byte	.LASF69
 5397 0513 04       		.byte	0x4
 5398 0514 0D01     		.2byte	0x10d
 5399 0516 19       		.byte	0x19
 5400 0517 0D010000 		.4byte	0x10d
 5401 051b 00       		.byte	0
 5402 051c 08       		.uleb128 0x8
 5403 051d 04       		.byte	0x4
 5404 051e 2D020000 		.4byte	0x22d
 5405 0522 09       		.uleb128 0x9
 5406 0523 A5050000 		.4byte	.LASF70
 5407 0527 0C       		.byte	0xc
 5408 0528 11       		.byte	0x11
 5409 0529 34       		.byte	0x34
 5410 052a 10       		.byte	0x10
 5411 052b 4A050000 		.4byte	0x54a
 5412 052f 0A       		.uleb128 0xa
 5413 0530 E1010000 		.4byte	.LASF25
 5414 0534 11       		.byte	0x11
 5415 0535 35       		.byte	0x35
ARM GAS  /tmp/ccstZxWH.s 			page 96


 5416 0536 19       		.byte	0x19
 5417 0537 66020000 		.4byte	0x266
 5418 053b 00       		.byte	0
 5419 053c 0B       		.uleb128 0xb
 5420 053d 636E7400 		.ascii	"cnt\000"
 5421 0541 11       		.byte	0x11
 5422 0542 37       		.byte	0x37
 5423 0543 19       		.byte	0x19
 5424 0544 19010000 		.4byte	0x119
 5425 0548 08       		.byte	0x8
 5426 0549 00       		.byte	0
 5427 054a 08       		.uleb128 0x8
 5428 054b 04       		.byte	0x4
 5429 054c 22050000 		.4byte	0x522
 5430 0550 09       		.uleb128 0x9
 5431 0551 B4060000 		.4byte	.LASF71
 5432 0555 10       		.byte	0x10
 5433 0556 12       		.byte	0x12
 5434 0557 39       		.byte	0x39
 5435 0558 08       		.byte	0x8
 5436 0559 85050000 		.4byte	0x585
 5437 055d 0A       		.uleb128 0xa
 5438 055e E1010000 		.4byte	.LASF25
 5439 0562 12       		.byte	0x12
 5440 0563 3A       		.byte	0x3a
 5441 0564 19       		.byte	0x19
 5442 0565 66020000 		.4byte	0x266
 5443 0569 00       		.byte	0
 5444 056a 0A       		.uleb128 0xa
 5445 056b F2050000 		.4byte	.LASF72
 5446 056f 12       		.byte	0x12
 5447 0570 3C       		.byte	0x3c
 5448 0571 1A       		.byte	0x1a
 5449 0572 39020000 		.4byte	0x239
 5450 0576 08       		.byte	0x8
 5451 0577 0A       		.uleb128 0xa
 5452 0578 1F000000 		.4byte	.LASF44
 5453 057c 12       		.byte	0x12
 5454 057d 3E       		.byte	0x3e
 5455 057e 1A       		.byte	0x1a
 5456 057f 9D050000 		.4byte	0x59d
 5457 0583 0C       		.byte	0xc
 5458 0584 00       		.byte	0
 5459 0585 08       		.uleb128 0x8
 5460 0586 04       		.byte	0x4
 5461 0587 50050000 		.4byte	0x550
 5462 058b 08       		.uleb128 0x8
 5463 058c 04       		.byte	0x4
 5464 058d D0020000 		.4byte	0x2d0
 5465 0591 03       		.uleb128 0x3
 5466 0592 52020000 		.4byte	.LASF73
 5467 0596 12       		.byte	0x12
 5468 0597 34       		.byte	0x34
 5469 0598 19       		.byte	0x19
 5470 0599 50050000 		.4byte	0x550
 5471 059d 08       		.uleb128 0x8
 5472 059e 04       		.byte	0x4
ARM GAS  /tmp/ccstZxWH.s 			page 97


 5473 059f 91050000 		.4byte	0x591
 5474 05a3 05       		.uleb128 0x5
 5475 05a4 01       		.byte	0x1
 5476 05a5 02       		.byte	0x2
 5477 05a6 1A050000 		.4byte	.LASF74
 5478 05aa 08       		.uleb128 0x8
 5479 05ab 04       		.byte	0x4
 5480 05ac AF000000 		.4byte	0xaf
 5481 05b0 08       		.uleb128 0x8
 5482 05b1 04       		.byte	0x4
 5483 05b2 A3000000 		.4byte	0xa3
 5484 05b6 03       		.uleb128 0x3
 5485 05b7 3F020000 		.4byte	.LASF75
 5486 05bb 13       		.byte	0x13
 5487 05bc 2F       		.byte	0x2f
 5488 05bd 21       		.byte	0x21
 5489 05be C2050000 		.4byte	0x5c2
 5490 05c2 09       		.uleb128 0x9
 5491 05c3 5E010000 		.4byte	.LASF76
 5492 05c7 38       		.byte	0x38
 5493 05c8 13       		.byte	0x13
 5494 05c9 3B       		.byte	0x3b
 5495 05ca 08       		.byte	0x8
 5496 05cb 78060000 		.4byte	0x678
 5497 05cf 0A       		.uleb128 0xa
 5498 05d0 2B020000 		.4byte	.LASF34
 5499 05d4 13       		.byte	0x13
 5500 05d5 3F       		.byte	0x3f
 5501 05d6 19       		.byte	0x19
 5502 05d7 66020000 		.4byte	0x266
 5503 05db 00       		.byte	0
 5504 05dc 0A       		.uleb128 0xa
 5505 05dd BD040000 		.4byte	.LASF77
 5506 05e1 13       		.byte	0x13
 5507 05e2 43       		.byte	0x43
 5508 05e3 19       		.byte	0x19
 5509 05e4 A3050000 		.4byte	0x5a3
 5510 05e8 08       		.byte	0x8
 5511 05e9 0A       		.uleb128 0xa
 5512 05ea E5040000 		.4byte	.LASF78
 5513 05ee 13       		.byte	0x13
 5514 05ef 47       		.byte	0x47
 5515 05f0 19       		.byte	0x19
 5516 05f1 38000000 		.4byte	0x38
 5517 05f5 0C       		.byte	0xc
 5518 05f6 0A       		.uleb128 0xa
 5519 05f7 02010000 		.4byte	.LASF79
 5520 05fb 13       		.byte	0x13
 5521 05fc 4B       		.byte	0x4b
 5522 05fd 1A       		.byte	0x1a
 5523 05fe B0050000 		.4byte	0x5b0
 5524 0602 10       		.byte	0x10
 5525 0603 0A       		.uleb128 0xa
 5526 0604 24020000 		.4byte	.LASF80
 5527 0608 13       		.byte	0x13
 5528 0609 4F       		.byte	0x4f
 5529 060a 1A       		.byte	0x1a
ARM GAS  /tmp/ccstZxWH.s 			page 98


 5530 060b B0050000 		.4byte	0x5b0
 5531 060f 14       		.byte	0x14
 5532 0610 0A       		.uleb128 0xa
 5533 0611 C7040000 		.4byte	.LASF81
 5534 0615 13       		.byte	0x13
 5535 0616 53       		.byte	0x53
 5536 0617 1A       		.byte	0x1a
 5537 0618 B0050000 		.4byte	0x5b0
 5538 061c 18       		.byte	0x18
 5539 061d 0A       		.uleb128 0xa
 5540 061e 36050000 		.4byte	.LASF82
 5541 0622 13       		.byte	0x13
 5542 0623 5A       		.byte	0x5a
 5543 0624 19       		.byte	0x19
 5544 0625 2C000000 		.4byte	0x2c
 5545 0629 1C       		.byte	0x1c
 5546 062a 0B       		.uleb128 0xb
 5547 062b 626E00   		.ascii	"bn\000"
 5548 062e 13       		.byte	0x13
 5549 062f 5E       		.byte	0x5e
 5550 0630 19       		.byte	0x19
 5551 0631 2C000000 		.4byte	0x2c
 5552 0635 20       		.byte	0x20
 5553 0636 0A       		.uleb128 0xa
 5554 0637 B1020000 		.4byte	.LASF83
 5555 063b 13       		.byte	0x13
 5556 063c 62       		.byte	0x62
 5557 063d 1A       		.byte	0x1a
 5558 063e B0050000 		.4byte	0x5b0
 5559 0642 24       		.byte	0x24
 5560 0643 0B       		.uleb128 0xb
 5561 0644 70747200 		.ascii	"ptr\000"
 5562 0648 13       		.byte	0x13
 5563 0649 67       		.byte	0x67
 5564 064a 1A       		.byte	0x1a
 5565 064b B0050000 		.4byte	0x5b0
 5566 064f 28       		.byte	0x28
 5567 0650 0B       		.uleb128 0xb
 5568 0651 746F7000 		.ascii	"top\000"
 5569 0655 13       		.byte	0x13
 5570 0656 6B       		.byte	0x6b
 5571 0657 1A       		.byte	0x1a
 5572 0658 B0050000 		.4byte	0x5b0
 5573 065c 2C       		.byte	0x2c
 5574 065d 0A       		.uleb128 0xa
 5575 065e 11060000 		.4byte	.LASF84
 5576 0662 13       		.byte	0x13
 5577 0663 6F       		.byte	0x6f
 5578 0664 19       		.byte	0x19
 5579 0665 78060000 		.4byte	0x678
 5580 0669 30       		.byte	0x30
 5581 066a 0A       		.uleb128 0xa
 5582 066b 09020000 		.4byte	.LASF85
 5583 066f 13       		.byte	0x13
 5584 0670 73       		.byte	0x73
 5585 0671 1A       		.byte	0x1a
 5586 0672 83000000 		.4byte	0x83
ARM GAS  /tmp/ccstZxWH.s 			page 99


 5587 0676 34       		.byte	0x34
 5588 0677 00       		.byte	0
 5589 0678 03       		.uleb128 0x3
 5590 0679 99060000 		.4byte	.LASF86
 5591 067d 13       		.byte	0x13
 5592 067e 36       		.byte	0x36
 5593 067f 10       		.byte	0x10
 5594 0680 84060000 		.4byte	0x684
 5595 0684 08       		.uleb128 0x8
 5596 0685 04       		.byte	0x4
 5597 0686 8A060000 		.4byte	0x68a
 5598 068a 16       		.uleb128 0x16
 5599 068b 95060000 		.4byte	0x695
 5600 068f 17       		.uleb128 0x17
 5601 0690 95060000 		.4byte	0x695
 5602 0694 00       		.byte	0
 5603 0695 08       		.uleb128 0x8
 5604 0696 04       		.byte	0x4
 5605 0697 B6050000 		.4byte	0x5b6
 5606 069b 03       		.uleb128 0x3
 5607 069c 0E020000 		.4byte	.LASF87
 5608 06a0 13       		.byte	0x13
 5609 06a1 79       		.byte	0x79
 5610 06a2 1C       		.byte	0x1c
 5611 06a3 B6050000 		.4byte	0x5b6
 5612 06a7 03       		.uleb128 0x3
 5613 06a8 03050000 		.4byte	.LASF88
 5614 06ac 13       		.byte	0x13
 5615 06ad 7E       		.byte	0x7e
 5616 06ae 1C       		.byte	0x1c
 5617 06af B6050000 		.4byte	0x5b6
 5618 06b3 18       		.uleb128 0x18
 5619 06b4 6D020000 		.4byte	.LASF98
 5620 06b8 01       		.byte	0x1
 5621 06b9 6603     		.2byte	0x366
 5622 06bb 06       		.byte	0x6
 5623 06bc 00000000 		.4byte	.LFB298
 5624 06c0 4C000000 		.4byte	.LFE298-.LFB298
 5625 06c4 01       		.uleb128 0x1
 5626 06c5 9C       		.byte	0x9c
 5627 06c6 F9070000 		.4byte	0x7f9
 5628 06ca 19       		.uleb128 0x19
 5629 06cb D4060000 		.4byte	.LASF89
 5630 06cf 01       		.byte	0x1
 5631 06d0 6603     		.2byte	0x366
 5632 06d2 27       		.byte	0x27
 5633 06d3 F9070000 		.4byte	0x7f9
 5634 06d7 04000000 		.4byte	.LLST151
 5635 06db 00000000 		.4byte	.LVUS151
 5636 06df 1A       		.uleb128 0x1a
 5637 06e0 180C0000 		.4byte	.Ldebug_ranges0+0xc18
 5638 06e4 3C070000 		.4byte	0x73c
 5639 06e8 1B       		.uleb128 0x1b
 5640 06e9 C4020000 		.4byte	.LASF90
 5641 06ed 01       		.byte	0x1
 5642 06ee 6C03     		.2byte	0x36c
 5643 06f0 0C       		.byte	0xc
ARM GAS  /tmp/ccstZxWH.s 			page 100


 5644 06f1 2C000000 		.4byte	0x2c
 5645 06f5 31000000 		.4byte	.LLST153
 5646 06f9 25000000 		.4byte	.LVUS153
 5647 06fd 1C       		.uleb128 0x1c
 5648 06fe B80F0000 		.4byte	0xfb8
 5649 0702 1C000000 		.4byte	.LBI1232
 5650 0706 01       		.byte	.LVU1423
 5651 0707 1C000000 		.4byte	.LBB1232
 5652 070b 28000000 		.4byte	.LBE1232-.LBB1232
 5653 070f 01       		.byte	0x1
 5654 0710 6F03     		.2byte	0x36f
 5655 0712 07       		.byte	0x7
 5656 0713 1D       		.uleb128 0x1d
 5657 0714 D30F0000 		.4byte	0xfd3
 5658 0718 94000000 		.4byte	.LLST154
 5659 071c 8C000000 		.4byte	.LVUS154
 5660 0720 1D       		.uleb128 0x1d
 5661 0721 C60F0000 		.4byte	0xfc6
 5662 0725 D8000000 		.4byte	.LLST155
 5663 0729 D4000000 		.4byte	.LVUS155
 5664 072d 1E       		.uleb128 0x1e
 5665 072e 44000000 		.4byte	.LVL241
 5666 0732 1F       		.uleb128 0x1f
 5667 0733 01       		.uleb128 0x1
 5668 0734 50       		.byte	0x50
 5669 0735 03       		.uleb128 0x3
 5670 0736 F3       		.byte	0xf3
 5671 0737 01       		.uleb128 0x1
 5672 0738 50       		.byte	0x50
 5673 0739 00       		.byte	0
 5674 073a 00       		.byte	0
 5675 073b 00       		.byte	0
 5676 073c 20       		.uleb128 0x20
 5677 073d 37230000 		.4byte	0x2337
 5678 0741 00000000 		.4byte	.LBI1215
 5679 0745 02       		.byte	.LVU1383
 5680 0746 E80B0000 		.4byte	.Ldebug_ranges0+0xbe8
 5681 074a 01       		.byte	0x1
 5682 074b 6803     		.2byte	0x368
 5683 074d 03       		.byte	0x3
 5684 074e 99070000 		.4byte	0x799
 5685 0752 21       		.uleb128 0x21
 5686 0753 98230000 		.4byte	0x2398
 5687 0757 00000000 		.4byte	.LBI1216
 5688 075b 04       		.byte	.LVU1385
 5689 075c F00B0000 		.4byte	.Ldebug_ranges0+0xbf0
 5690 0760 02       		.byte	0x2
 5691 0761 ED01     		.2byte	0x1ed
 5692 0763 03       		.byte	0x3
 5693 0764 21       		.uleb128 0x21
 5694 0765 E2230000 		.4byte	0x23e2
 5695 0769 00000000 		.4byte	.LBI1217
 5696 076d 06       		.byte	.LVU1387
 5697 076e F80B0000 		.4byte	.Ldebug_ranges0+0xbf8
 5698 0772 05       		.byte	0x5
 5699 0773 7801     		.2byte	0x178
 5700 0775 03       		.byte	0x3
ARM GAS  /tmp/ccstZxWH.s 			page 101


 5701 0776 21       		.uleb128 0x21
 5702 0777 EC230000 		.4byte	0x23ec
 5703 077b 00000000 		.4byte	.LBI1218
 5704 077f 08       		.byte	.LVU1389
 5705 0780 000C0000 		.4byte	.Ldebug_ranges0+0xc00
 5706 0784 06       		.byte	0x6
 5707 0785 5A02     		.2byte	0x25a
 5708 0787 03       		.byte	0x3
 5709 0788 1D       		.uleb128 0x1d
 5710 0789 FA230000 		.4byte	0x23fa
 5711 078d FB000000 		.4byte	.LLST152
 5712 0791 F9000000 		.4byte	.LVUS152
 5713 0795 00       		.byte	0
 5714 0796 00       		.byte	0
 5715 0797 00       		.byte	0
 5716 0798 00       		.byte	0
 5717 0799 21       		.uleb128 0x21
 5718 079a 2D230000 		.4byte	0x232d
 5719 079e 14000000 		.4byte	.LBI1234
 5720 07a2 02       		.byte	.LVU1407
 5721 07a3 300C0000 		.4byte	.Ldebug_ranges0+0xc30
 5722 07a7 01       		.byte	0x1
 5723 07a8 7303     		.2byte	0x373
 5724 07aa 03       		.byte	0x3
 5725 07ab 21       		.uleb128 0x21
 5726 07ac 6B230000 		.4byte	0x236b
 5727 07b0 14000000 		.4byte	.LBI1235
 5728 07b4 04       		.byte	.LVU1409
 5729 07b5 680C0000 		.4byte	.Ldebug_ranges0+0xc68
 5730 07b9 02       		.byte	0x2
 5731 07ba F801     		.2byte	0x1f8
 5732 07bc 03       		.byte	0x3
 5733 07bd 22       		.uleb128 0x22
 5734 07be 680C0000 		.4byte	.Ldebug_ranges0+0xc68
 5735 07c2 21       		.uleb128 0x21
 5736 07c3 D8230000 		.4byte	0x23d8
 5737 07c7 14000000 		.4byte	.LBI1237
 5738 07cb 0B       		.byte	.LVU1416
 5739 07cc 680C0000 		.4byte	.Ldebug_ranges0+0xc68
 5740 07d0 05       		.byte	0x5
 5741 07d1 8F01     		.2byte	0x18f
 5742 07d3 03       		.byte	0x3
 5743 07d4 21       		.uleb128 0x21
 5744 07d5 EC230000 		.4byte	0x23ec
 5745 07d9 14000000 		.4byte	.LBI1238
 5746 07dd 0D       		.byte	.LVU1418
 5747 07de 900C0000 		.4byte	.Ldebug_ranges0+0xc90
 5748 07e2 06       		.byte	0x6
 5749 07e3 6D02     		.2byte	0x26d
 5750 07e5 03       		.byte	0x3
 5751 07e6 1D       		.uleb128 0x1d
 5752 07e7 FA230000 		.4byte	0x23fa
 5753 07eb 14010000 		.4byte	.LLST156
 5754 07ef 10010000 		.4byte	.LVUS156
 5755 07f3 00       		.byte	0
 5756 07f4 00       		.byte	0
 5757 07f5 00       		.byte	0
ARM GAS  /tmp/ccstZxWH.s 			page 102


 5758 07f6 00       		.byte	0
 5759 07f7 00       		.byte	0
 5760 07f8 00       		.byte	0
 5761 07f9 08       		.uleb128 0x8
 5762 07fa 04       		.byte	0x4
 5763 07fb A7060000 		.4byte	0x6a7
 5764 07ff 23       		.uleb128 0x23
 5765 0800 C5050000 		.4byte	.LASF91
 5766 0804 01       		.byte	0x1
 5767 0805 4103     		.2byte	0x341
 5768 0807 06       		.byte	0x6
 5769 0808 A3050000 		.4byte	0x5a3
 5770 080c 00000000 		.4byte	.LFB297
 5771 0810 42000000 		.4byte	.LFE297-.LFB297
 5772 0814 01       		.uleb128 0x1
 5773 0815 9C       		.byte	0x9c
 5774 0816 4F080000 		.4byte	0x84f
 5775 081a 19       		.uleb128 0x19
 5776 081b D4060000 		.4byte	.LASF89
 5777 081f 01       		.byte	0x1
 5778 0820 4103     		.2byte	0x341
 5779 0822 2B       		.byte	0x2b
 5780 0823 F9070000 		.4byte	0x7f9
 5781 0827 3C010000 		.4byte	.LLST149
 5782 082b 34010000 		.4byte	.LVUS149
 5783 082f 24       		.uleb128 0x24
 5784 0830 18000000 		.4byte	.LBB1200
 5785 0834 2A000000 		.4byte	.LBE1200-.LBB1200
 5786 0838 1B       		.uleb128 0x1b
 5787 0839 C4020000 		.4byte	.LASF90
 5788 083d 01       		.byte	0x1
 5789 083e 4803     		.2byte	0x348
 5790 0840 0C       		.byte	0xc
 5791 0841 2C000000 		.4byte	0x2c
 5792 0845 80010000 		.4byte	.LLST150
 5793 0849 76010000 		.4byte	.LVUS150
 5794 084d 00       		.byte	0
 5795 084e 00       		.byte	0
 5796 084f 23       		.uleb128 0x23
 5797 0850 87050000 		.4byte	.LASF92
 5798 0854 01       		.byte	0x1
 5799 0855 E402     		.2byte	0x2e4
 5800 0857 08       		.byte	0x8
 5801 0858 2C000000 		.4byte	0x2c
 5802 085c 00000000 		.4byte	.LFB296
 5803 0860 3E010000 		.4byte	.LFE296-.LFB296
 5804 0864 01       		.uleb128 0x1
 5805 0865 9C       		.byte	0x9c
 5806 0866 270D0000 		.4byte	0xd27
 5807 086a 19       		.uleb128 0x19
 5808 086b D4060000 		.4byte	.LASF89
 5809 086f 01       		.byte	0x1
 5810 0870 E402     		.2byte	0x2e4
 5811 0872 30       		.byte	0x30
 5812 0873 F9070000 		.4byte	0x7f9
 5813 0877 E4010000 		.4byte	.LLST126
 5814 087b D0010000 		.4byte	.LVUS126
ARM GAS  /tmp/ccstZxWH.s 			page 103


 5815 087f 25       		.uleb128 0x25
 5816 0880 627000   		.ascii	"bp\000"
 5817 0883 01       		.byte	0x1
 5818 0884 E402     		.2byte	0x2e4
 5819 0886 45       		.byte	0x45
 5820 0887 AA050000 		.4byte	0x5aa
 5821 088b 6A020000 		.4byte	.LLST127
 5822 088f 5A020000 		.4byte	.LVUS127
 5823 0893 25       		.uleb128 0x25
 5824 0894 6E00     		.ascii	"n\000"
 5825 0896 01       		.byte	0x1
 5826 0897 E502     		.2byte	0x2e5
 5827 0899 1F       		.byte	0x1f
 5828 089a 2C000000 		.4byte	0x2c
 5829 089e D0020000 		.4byte	.LLST128
 5830 08a2 CC020000 		.4byte	.LVUS128
 5831 08a6 19       		.uleb128 0x19
 5832 08a7 A9020000 		.4byte	.LASF93
 5833 08ab 01       		.byte	0x1
 5834 08ac E502     		.2byte	0x2e5
 5835 08ae 2C       		.byte	0x2c
 5836 08af 25010000 		.4byte	0x125
 5837 08b3 FA020000 		.4byte	.LLST129
 5838 08b7 EE020000 		.4byte	.LVUS129
 5839 08bb 26       		.uleb128 0x26
 5840 08bc 7700     		.ascii	"w\000"
 5841 08be 01       		.byte	0x1
 5842 08bf E602     		.2byte	0x2e6
 5843 08c1 0A       		.byte	0xa
 5844 08c2 2C000000 		.4byte	0x2c
 5845 08c6 48030000 		.4byte	.LLST130
 5846 08ca 44030000 		.4byte	.LVUS130
 5847 08ce 1B       		.uleb128 0x1b
 5848 08cf 76070000 		.4byte	.LASF94
 5849 08d3 01       		.byte	0x1
 5850 08d4 E702     		.2byte	0x2e7
 5851 08d6 0D       		.byte	0xd
 5852 08d7 25010000 		.4byte	0x125
 5853 08db 69030000 		.4byte	.LLST131
 5854 08df 67030000 		.4byte	.LVUS131
 5855 08e3 27       		.uleb128 0x27
 5856 08e4 74050000 		.4byte	.LASF97
 5857 08e8 370D0000 		.4byte	0xd37
 5858 08ec 1A       		.uleb128 0x1a
 5859 08ed 68090000 		.4byte	.Ldebug_ranges0+0x968
 5860 08f1 7F0C0000 		.4byte	0xc7f
 5861 08f5 1B       		.uleb128 0x1b
 5862 08f6 C4020000 		.4byte	.LASF90
 5863 08fa 01       		.byte	0x1
 5864 08fb F102     		.2byte	0x2f1
 5865 08fd 0C       		.byte	0xc
 5866 08fe 2C000000 		.4byte	0x2c
 5867 0902 86030000 		.4byte	.LLST133
 5868 0906 7C030000 		.4byte	.LVUS133
 5869 090a 1A       		.uleb128 0x1a
 5870 090b E8090000 		.4byte	.Ldebug_ranges0+0x9e8
 5871 090f 630B0000 		.4byte	0xb63
ARM GAS  /tmp/ccstZxWH.s 			page 104


 5872 0913 26       		.uleb128 0x26
 5873 0914 6D736700 		.ascii	"msg\000"
 5874 0918 01       		.byte	0x1
 5875 0919 F502     		.2byte	0x2f5
 5876 091b 0D       		.byte	0xd
 5877 091c 01010000 		.4byte	0x101
 5878 0920 C7030000 		.4byte	.LLST134
 5879 0924 C5030000 		.4byte	.LVUS134
 5880 0928 1A       		.uleb128 0x1a
 5881 0929 480A0000 		.4byte	.Ldebug_ranges0+0xa48
 5882 092d 920A0000 		.4byte	0xa92
 5883 0931 1B       		.uleb128 0x1b
 5884 0932 B6070000 		.4byte	.LASF95
 5885 0936 01       		.byte	0x1
 5886 0937 FD02     		.2byte	0x2fd
 5887 0939 13       		.byte	0x13
 5888 093a 25010000 		.4byte	0x125
 5889 093e E3030000 		.4byte	.LLST135
 5890 0942 DB030000 		.4byte	.LVUS135
 5891 0946 20       		.uleb128 0x20
 5892 0947 1F230000 		.4byte	0x231f
 5893 094b 90000000 		.4byte	.LBI1077
 5894 094f 01       		.byte	.LVU1208
 5895 0950 880A0000 		.4byte	.Ldebug_ranges0+0xa88
 5896 0954 01       		.byte	0x1
 5897 0955 FD02     		.2byte	0x2fd
 5898 0957 2D       		.byte	0x2d
 5899 0958 94090000 		.4byte	0x994
 5900 095c 21       		.uleb128 0x21
 5901 095d 5D230000 		.4byte	0x235d
 5902 0961 90000000 		.4byte	.LBI1078
 5903 0965 03       		.byte	.LVU1210
 5904 0966 900A0000 		.4byte	.Ldebug_ranges0+0xa90
 5905 096a 02       		.byte	0x2
 5906 096b 6A02     		.2byte	0x26a
 5907 096d 0A       		.byte	0xa
 5908 096e 21       		.uleb128 0x21
 5909 096f BE230000 		.4byte	0x23be
 5910 0973 90000000 		.4byte	.LBI1079
 5911 0977 05       		.byte	.LVU1212
 5912 0978 980A0000 		.4byte	.Ldebug_ranges0+0xa98
 5913 097c 08       		.byte	0x8
 5914 097d 8D01     		.2byte	0x18d
 5915 097f 0A       		.byte	0xa
 5916 0980 28       		.uleb128 0x28
 5917 0981 CB230000 		.4byte	0x23cb
 5918 0985 90000000 		.4byte	.LBI1080
 5919 0989 07       		.byte	.LVU1214
 5920 098a A00A0000 		.4byte	.Ldebug_ranges0+0xaa0
 5921 098e 09       		.byte	0x9
 5922 098f 6B       		.byte	0x6b
 5923 0990 0A       		.byte	0xa
 5924 0991 00       		.byte	0
 5925 0992 00       		.byte	0
 5926 0993 00       		.byte	0
 5927 0994 29       		.uleb128 0x29
 5928 0995 43110000 		.4byte	0x1143
ARM GAS  /tmp/ccstZxWH.s 			page 105


 5929 0999 A2000000 		.4byte	.LBB1093
 5930 099d 24000000 		.4byte	.LBE1093-.LBB1093
 5931 09a1 01       		.byte	0x1
 5932 09a2 0603     		.2byte	0x306
 5933 09a4 0F       		.byte	0xf
 5934 09a5 2E0A0000 		.4byte	0xa2e
 5935 09a9 2A       		.uleb128 0x2a
 5936 09aa 62110000 		.4byte	0x1162
 5937 09ae 2A       		.uleb128 0x2a
 5938 09af 55110000 		.4byte	0x1155
 5939 09b3 2B       		.uleb128 0x2b
 5940 09b4 78110000 		.4byte	0x1178
 5941 09b8 B80A0000 		.4byte	.Ldebug_ranges0+0xab8
 5942 09bc 040A0000 		.4byte	0xa04
 5943 09c0 2C       		.uleb128 0x2c
 5944 09c1 79110000 		.4byte	0x1179
 5945 09c5 19040000 		.4byte	.LLST136
 5946 09c9 17040000 		.4byte	.LVUS136
 5947 09cd 21       		.uleb128 0x21
 5948 09ce D6220000 		.4byte	0x22d6
 5949 09d2 B0000000 		.4byte	.LBI1096
 5950 09d6 02       		.byte	.LVU1229
 5951 09d7 D00A0000 		.4byte	.Ldebug_ranges0+0xad0
 5952 09db 01       		.byte	0x1
 5953 09dc 5D02     		.2byte	0x25d
 5954 09de 11       		.byte	0x11
 5955 09df 1D       		.uleb128 0x1d
 5956 09e0 F5220000 		.4byte	0x22f5
 5957 09e4 32040000 		.4byte	.LLST137
 5958 09e8 2C040000 		.4byte	.LVUS137
 5959 09ec 1D       		.uleb128 0x1d
 5960 09ed E8220000 		.4byte	0x22e8
 5961 09f1 61040000 		.4byte	.LLST138
 5962 09f5 5B040000 		.4byte	.LVUS138
 5963 09f9 2D       		.uleb128 0x2d
 5964 09fa AC000000 		.4byte	.LVL197
 5965 09fe CF250000 		.4byte	0x25cf
 5966 0a02 00       		.byte	0
 5967 0a03 00       		.byte	0
 5968 0a04 1C       		.uleb128 0x1c
 5969 0a05 43110000 		.4byte	0x1143
 5970 0a09 BA000000 		.4byte	.LBI1103
 5971 0a0d 00       		.byte	.LVU1235
 5972 0a0e BA000000 		.4byte	.LBB1103
 5973 0a12 0C000000 		.4byte	.LBE1103-.LBB1103
 5974 0a16 01       		.byte	0x1
 5975 0a17 5402     		.2byte	0x254
 5976 0a19 07       		.byte	0x7
 5977 0a1a 2A       		.uleb128 0x2a
 5978 0a1b 62110000 		.4byte	0x1162
 5979 0a1f 1D       		.uleb128 0x1d
 5980 0a20 55110000 		.4byte	0x1155
 5981 0a24 8E040000 		.4byte	.LLST139
 5982 0a28 8A040000 		.4byte	.LVUS139
 5983 0a2c 00       		.byte	0
 5984 0a2d 00       		.byte	0
 5985 0a2e 21       		.uleb128 0x21
ARM GAS  /tmp/ccstZxWH.s 			page 106


 5986 0a2f 2D230000 		.4byte	0x232d
 5987 0a33 32010000 		.4byte	.LBI1105
 5988 0a37 01       		.byte	.LVU1329
 5989 0a38 680A0000 		.4byte	.Ldebug_ranges0+0xa68
 5990 0a3c 01       		.byte	0x1
 5991 0a3d 0303     		.2byte	0x303
 5992 0a3f 0B       		.byte	0xb
 5993 0a40 21       		.uleb128 0x21
 5994 0a41 6B230000 		.4byte	0x236b
 5995 0a45 32010000 		.4byte	.LBI1106
 5996 0a49 03       		.byte	.LVU1331
 5997 0a4a 700A0000 		.4byte	.Ldebug_ranges0+0xa70
 5998 0a4e 02       		.byte	0x2
 5999 0a4f F801     		.2byte	0x1f8
 6000 0a51 03       		.byte	0x3
 6001 0a52 22       		.uleb128 0x22
 6002 0a53 700A0000 		.4byte	.Ldebug_ranges0+0xa70
 6003 0a57 21       		.uleb128 0x21
 6004 0a58 D8230000 		.4byte	0x23d8
 6005 0a5c 32010000 		.4byte	.LBI1108
 6006 0a60 0A       		.byte	.LVU1338
 6007 0a61 700A0000 		.4byte	.Ldebug_ranges0+0xa70
 6008 0a65 05       		.byte	0x5
 6009 0a66 8F01     		.2byte	0x18f
 6010 0a68 03       		.byte	0x3
 6011 0a69 1C       		.uleb128 0x1c
 6012 0a6a EC230000 		.4byte	0x23ec
 6013 0a6e 32010000 		.4byte	.LBI1109
 6014 0a72 0C       		.byte	.LVU1340
 6015 0a73 32010000 		.4byte	.LBB1109
 6016 0a77 04000000 		.4byte	.LBE1109-.LBB1109
 6017 0a7b 06       		.byte	0x6
 6018 0a7c 6D02     		.2byte	0x26d
 6019 0a7e 03       		.byte	0x3
 6020 0a7f 1D       		.uleb128 0x1d
 6021 0a80 FA230000 		.4byte	0x23fa
 6022 0a84 AE040000 		.4byte	.LLST140
 6023 0a88 AC040000 		.4byte	.LVUS140
 6024 0a8c 00       		.byte	0
 6025 0a8d 00       		.byte	0
 6026 0a8e 00       		.byte	0
 6027 0a8f 00       		.byte	0
 6028 0a90 00       		.byte	0
 6029 0a91 00       		.byte	0
 6030 0a92 29       		.uleb128 0x29
 6031 0a93 43110000 		.4byte	0x1143
 6032 0a97 0C010000 		.4byte	.LBB1119
 6033 0a9b 18000000 		.4byte	.LBE1119-.LBB1119
 6034 0a9f 01       		.byte	0x1
 6035 0aa0 FA02     		.2byte	0x2fa
 6036 0aa2 0F       		.byte	0xf
 6037 0aa3 FF0A0000 		.4byte	0xaff
 6038 0aa7 2A       		.uleb128 0x2a
 6039 0aa8 62110000 		.4byte	0x1162
 6040 0aac 2A       		.uleb128 0x2a
 6041 0aad 55110000 		.4byte	0x1155
 6042 0ab1 2E       		.uleb128 0x2e
ARM GAS  /tmp/ccstZxWH.s 			page 107


 6043 0ab2 78110000 		.4byte	0x1178
 6044 0ab6 F00A0000 		.4byte	.Ldebug_ranges0+0xaf0
 6045 0aba 2C       		.uleb128 0x2c
 6046 0abb 79110000 		.4byte	0x1179
 6047 0abf C4040000 		.4byte	.LLST141
 6048 0ac3 C2040000 		.4byte	.LVUS141
 6049 0ac7 21       		.uleb128 0x21
 6050 0ac8 D6220000 		.4byte	0x22d6
 6051 0acc 18010000 		.4byte	.LBI1122
 6052 0ad0 02       		.byte	.LVU1301
 6053 0ad1 080B0000 		.4byte	.Ldebug_ranges0+0xb08
 6054 0ad5 01       		.byte	0x1
 6055 0ad6 5D02     		.2byte	0x25d
 6056 0ad8 11       		.byte	0x11
 6057 0ad9 1D       		.uleb128 0x1d
 6058 0ada F5220000 		.4byte	0x22f5
 6059 0ade DF040000 		.4byte	.LLST142
 6060 0ae2 D7040000 		.4byte	.LVUS142
 6061 0ae6 1D       		.uleb128 0x1d
 6062 0ae7 E8220000 		.4byte	0x22e8
 6063 0aeb 1B050000 		.4byte	.LLST143
 6064 0aef 13050000 		.4byte	.LVUS143
 6065 0af3 2D       		.uleb128 0x2d
 6066 0af4 14010000 		.4byte	.LVL213
 6067 0af8 CF250000 		.4byte	0x25cf
 6068 0afc 00       		.byte	0
 6069 0afd 00       		.byte	0
 6070 0afe 00       		.byte	0
 6071 0aff 21       		.uleb128 0x21
 6072 0b00 2D230000 		.4byte	0x232d
 6073 0b04 24010000 		.4byte	.LBI1129
 6074 0b08 03       		.byte	.LVU1311
 6075 0b09 280B0000 		.4byte	.Ldebug_ranges0+0xb28
 6076 0b0d 01       		.byte	0x1
 6077 0b0e 0B03     		.2byte	0x30b
 6078 0b10 09       		.byte	0x9
 6079 0b11 21       		.uleb128 0x21
 6080 0b12 6B230000 		.4byte	0x236b
 6081 0b16 24010000 		.4byte	.LBI1130
 6082 0b1a 05       		.byte	.LVU1313
 6083 0b1b 300B0000 		.4byte	.Ldebug_ranges0+0xb30
 6084 0b1f 02       		.byte	0x2
 6085 0b20 F801     		.2byte	0x1f8
 6086 0b22 03       		.byte	0x3
 6087 0b23 22       		.uleb128 0x22
 6088 0b24 300B0000 		.4byte	.Ldebug_ranges0+0xb30
 6089 0b28 21       		.uleb128 0x21
 6090 0b29 D8230000 		.4byte	0x23d8
 6091 0b2d 24010000 		.4byte	.LBI1132
 6092 0b31 0C       		.byte	.LVU1320
 6093 0b32 300B0000 		.4byte	.Ldebug_ranges0+0xb30
 6094 0b36 05       		.byte	0x5
 6095 0b37 8F01     		.2byte	0x18f
 6096 0b39 03       		.byte	0x3
 6097 0b3a 1C       		.uleb128 0x1c
 6098 0b3b EC230000 		.4byte	0x23ec
 6099 0b3f 24010000 		.4byte	.LBI1133
ARM GAS  /tmp/ccstZxWH.s 			page 108


 6100 0b43 0E       		.byte	.LVU1322
 6101 0b44 24010000 		.4byte	.LBB1133
 6102 0b48 06000000 		.4byte	.LBE1133-.LBB1133
 6103 0b4c 06       		.byte	0x6
 6104 0b4d 6D02     		.2byte	0x26d
 6105 0b4f 03       		.byte	0x3
 6106 0b50 1D       		.uleb128 0x1d
 6107 0b51 FA230000 		.4byte	0x23fa
 6108 0b55 51050000 		.4byte	.LLST144
 6109 0b59 4F050000 		.4byte	.LVUS144
 6110 0b5d 00       		.byte	0
 6111 0b5e 00       		.byte	0
 6112 0b5f 00       		.byte	0
 6113 0b60 00       		.byte	0
 6114 0b61 00       		.byte	0
 6115 0b62 00       		.byte	0
 6116 0b63 20       		.uleb128 0x20
 6117 0b64 B80F0000 		.4byte	0xfb8
 6118 0b68 DE000000 		.4byte	.LBI1143
 6119 0b6c 01       		.byte	.LVU1262
 6120 0b6d 480B0000 		.4byte	.Ldebug_ranges0+0xb48
 6121 0b71 01       		.byte	0x1
 6122 0b72 2803     		.2byte	0x328
 6123 0b74 07       		.byte	0x7
 6124 0b75 A60B0000 		.4byte	0xba6
 6125 0b79 1D       		.uleb128 0x1d
 6126 0b7a D30F0000 		.4byte	0xfd3
 6127 0b7e 6D050000 		.4byte	.LLST145
 6128 0b82 65050000 		.4byte	.LVUS145
 6129 0b86 1D       		.uleb128 0x1d
 6130 0b87 C60F0000 		.4byte	0xfc6
 6131 0b8b AB050000 		.4byte	.LLST146
 6132 0b8f A9050000 		.4byte	.LVUS146
 6133 0b93 22       		.uleb128 0x22
 6134 0b94 480B0000 		.4byte	.Ldebug_ranges0+0xb48
 6135 0b98 1E       		.uleb128 0x1e
 6136 0b99 0A010000 		.4byte	.LVL211
 6137 0b9d 1F       		.uleb128 0x1f
 6138 0b9e 01       		.uleb128 0x1
 6139 0b9f 50       		.byte	0x50
 6140 0ba0 02       		.uleb128 0x2
 6141 0ba1 74       		.byte	0x74
 6142 0ba2 00       		.sleb128 0
 6143 0ba3 00       		.byte	0
 6144 0ba4 00       		.byte	0
 6145 0ba5 00       		.byte	0
 6146 0ba6 20       		.uleb128 0x20
 6147 0ba7 2D230000 		.4byte	0x232d
 6148 0bab 76000000 		.4byte	.LBI1148
 6149 0baf 01       		.byte	.LVU1171
 6150 0bb0 700B0000 		.4byte	.Ldebug_ranges0+0xb70
 6151 0bb4 01       		.byte	0x1
 6152 0bb5 2C03     		.2byte	0x32c
 6153 0bb7 05       		.byte	0x5
 6154 0bb8 0D0C0000 		.4byte	0xc0d
 6155 0bbc 21       		.uleb128 0x21
 6156 0bbd 6B230000 		.4byte	0x236b
ARM GAS  /tmp/ccstZxWH.s 			page 109


 6157 0bc1 76000000 		.4byte	.LBI1149
 6158 0bc5 03       		.byte	.LVU1173
 6159 0bc6 780B0000 		.4byte	.Ldebug_ranges0+0xb78
 6160 0bca 02       		.byte	0x2
 6161 0bcb F801     		.2byte	0x1f8
 6162 0bcd 03       		.byte	0x3
 6163 0bce 22       		.uleb128 0x22
 6164 0bcf 780B0000 		.4byte	.Ldebug_ranges0+0xb78
 6165 0bd3 21       		.uleb128 0x21
 6166 0bd4 D8230000 		.4byte	0x23d8
 6167 0bd8 76000000 		.4byte	.LBI1151
 6168 0bdc 0A       		.byte	.LVU1180
 6169 0bdd 780B0000 		.4byte	.Ldebug_ranges0+0xb78
 6170 0be1 05       		.byte	0x5
 6171 0be2 8F01     		.2byte	0x18f
 6172 0be4 03       		.byte	0x3
 6173 0be5 1C       		.uleb128 0x1c
 6174 0be6 EC230000 		.4byte	0x23ec
 6175 0bea 76000000 		.4byte	.LBI1152
 6176 0bee 0C       		.byte	.LVU1182
 6177 0bef 76000000 		.4byte	.LBB1152
 6178 0bf3 04000000 		.4byte	.LBE1152-.LBB1152
 6179 0bf7 06       		.byte	0x6
 6180 0bf8 6D02     		.2byte	0x26d
 6181 0bfa 03       		.byte	0x3
 6182 0bfb 1D       		.uleb128 0x1d
 6183 0bfc FA230000 		.4byte	0x23fa
 6184 0c00 C0050000 		.4byte	.LLST147
 6185 0c04 BE050000 		.4byte	.LVUS147
 6186 0c08 00       		.byte	0
 6187 0c09 00       		.byte	0
 6188 0c0a 00       		.byte	0
 6189 0c0b 00       		.byte	0
 6190 0c0c 00       		.byte	0
 6191 0c0d 20       		.uleb128 0x20
 6192 0c0e 37230000 		.4byte	0x2337
 6193 0c12 7E000000 		.4byte	.LBI1159
 6194 0c16 01       		.byte	.LVU1188
 6195 0c17 900B0000 		.4byte	.Ldebug_ranges0+0xb90
 6196 0c1b 01       		.byte	0x1
 6197 0c1c 3003     		.2byte	0x330
 6198 0c1e 05       		.byte	0x5
 6199 0c1f 6E0C0000 		.4byte	0xc6e
 6200 0c23 21       		.uleb128 0x21
 6201 0c24 98230000 		.4byte	0x2398
 6202 0c28 7E000000 		.4byte	.LBI1161
 6203 0c2c 03       		.byte	.LVU1190
 6204 0c2d B00B0000 		.4byte	.Ldebug_ranges0+0xbb0
 6205 0c31 02       		.byte	0x2
 6206 0c32 ED01     		.2byte	0x1ed
 6207 0c34 03       		.byte	0x3
 6208 0c35 21       		.uleb128 0x21
 6209 0c36 E2230000 		.4byte	0x23e2
 6210 0c3a 7E000000 		.4byte	.LBI1162
 6211 0c3e 05       		.byte	.LVU1192
 6212 0c3f D00B0000 		.4byte	.Ldebug_ranges0+0xbd0
 6213 0c43 05       		.byte	0x5
ARM GAS  /tmp/ccstZxWH.s 			page 110


 6214 0c44 7801     		.2byte	0x178
 6215 0c46 03       		.byte	0x3
 6216 0c47 1C       		.uleb128 0x1c
 6217 0c48 EC230000 		.4byte	0x23ec
 6218 0c4c 7E000000 		.4byte	.LBI1163
 6219 0c50 07       		.byte	.LVU1194
 6220 0c51 7E000000 		.4byte	.LBB1163
 6221 0c55 06000000 		.4byte	.LBE1163-.LBB1163
 6222 0c59 06       		.byte	0x6
 6223 0c5a 5A02     		.2byte	0x25a
 6224 0c5c 03       		.byte	0x3
 6225 0c5d 1D       		.uleb128 0x1d
 6226 0c5e FA230000 		.4byte	0x23fa
 6227 0c62 D6050000 		.4byte	.LLST148
 6228 0c66 D4050000 		.4byte	.LVUS148
 6229 0c6a 00       		.byte	0
 6230 0c6b 00       		.byte	0
 6231 0c6c 00       		.byte	0
 6232 0c6d 00       		.byte	0
 6233 0c6e 2F       		.uleb128 0x2f
 6234 0c6f CE000000 		.4byte	.LVL203
 6235 0c73 DC250000 		.4byte	0x25dc
 6236 0c77 1F       		.uleb128 0x1f
 6237 0c78 01       		.uleb128 0x1
 6238 0c79 52       		.byte	0x52
 6239 0c7a 02       		.uleb128 0x2
 6240 0c7b 7A       		.byte	0x7a
 6241 0c7c 00       		.sleb128 0
 6242 0c7d 00       		.byte	0
 6243 0c7e 00       		.byte	0
 6244 0c7f 20       		.uleb128 0x20
 6245 0c80 37230000 		.4byte	0x2337
 6246 0c84 00000000 		.4byte	.LBI1043
 6247 0c88 07       		.byte	.LVU1111
 6248 0c89 08090000 		.4byte	.Ldebug_ranges0+0x908
 6249 0c8d 01       		.byte	0x1
 6250 0c8e EB02     		.2byte	0x2eb
 6251 0c90 03       		.byte	0x3
 6252 0c91 DC0C0000 		.4byte	0xcdc
 6253 0c95 21       		.uleb128 0x21
 6254 0c96 98230000 		.4byte	0x2398
 6255 0c9a 00000000 		.4byte	.LBI1044
 6256 0c9e 09       		.byte	.LVU1113
 6257 0c9f 10090000 		.4byte	.Ldebug_ranges0+0x910
 6258 0ca3 02       		.byte	0x2
 6259 0ca4 ED01     		.2byte	0x1ed
 6260 0ca6 03       		.byte	0x3
 6261 0ca7 21       		.uleb128 0x21
 6262 0ca8 E2230000 		.4byte	0x23e2
 6263 0cac 00000000 		.4byte	.LBI1045
 6264 0cb0 0B       		.byte	.LVU1115
 6265 0cb1 18090000 		.4byte	.Ldebug_ranges0+0x918
 6266 0cb5 05       		.byte	0x5
 6267 0cb6 7801     		.2byte	0x178
 6268 0cb8 03       		.byte	0x3
 6269 0cb9 21       		.uleb128 0x21
 6270 0cba EC230000 		.4byte	0x23ec
ARM GAS  /tmp/ccstZxWH.s 			page 111


 6271 0cbe 00000000 		.4byte	.LBI1046
 6272 0cc2 0D       		.byte	.LVU1117
 6273 0cc3 20090000 		.4byte	.Ldebug_ranges0+0x920
 6274 0cc7 06       		.byte	0x6
 6275 0cc8 5A02     		.2byte	0x25a
 6276 0cca 03       		.byte	0x3
 6277 0ccb 1D       		.uleb128 0x1d
 6278 0ccc FA230000 		.4byte	0x23fa
 6279 0cd0 ED050000 		.4byte	.LLST132
 6280 0cd4 EB050000 		.4byte	.LVUS132
 6281 0cd8 00       		.byte	0
 6282 0cd9 00       		.byte	0
 6283 0cda 00       		.byte	0
 6284 0cdb 00       		.byte	0
 6285 0cdc 21       		.uleb128 0x21
 6286 0cdd 1F230000 		.4byte	0x231f
 6287 0ce1 14000000 		.4byte	.LBI1059
 6288 0ce5 04       		.byte	.LVU1127
 6289 0ce6 38090000 		.4byte	.Ldebug_ranges0+0x938
 6290 0cea 01       		.byte	0x1
 6291 0ceb EE02     		.2byte	0x2ee
 6292 0ced 0E       		.byte	0xe
 6293 0cee 21       		.uleb128 0x21
 6294 0cef 5D230000 		.4byte	0x235d
 6295 0cf3 14000000 		.4byte	.LBI1060
 6296 0cf7 06       		.byte	.LVU1129
 6297 0cf8 40090000 		.4byte	.Ldebug_ranges0+0x940
 6298 0cfc 02       		.byte	0x2
 6299 0cfd 6A02     		.2byte	0x26a
 6300 0cff 0A       		.byte	0xa
 6301 0d00 21       		.uleb128 0x21
 6302 0d01 BE230000 		.4byte	0x23be
 6303 0d05 14000000 		.4byte	.LBI1061
 6304 0d09 08       		.byte	.LVU1131
 6305 0d0a 48090000 		.4byte	.Ldebug_ranges0+0x948
 6306 0d0e 08       		.byte	0x8
 6307 0d0f 8D01     		.2byte	0x18d
 6308 0d11 0A       		.byte	0xa
 6309 0d12 28       		.uleb128 0x28
 6310 0d13 CB230000 		.4byte	0x23cb
 6311 0d17 14000000 		.4byte	.LBI1062
 6312 0d1b 0A       		.byte	.LVU1133
 6313 0d1c 50090000 		.4byte	.Ldebug_ranges0+0x950
 6314 0d20 09       		.byte	0x9
 6315 0d21 6B       		.byte	0x6b
 6316 0d22 0A       		.byte	0xa
 6317 0d23 00       		.byte	0
 6318 0d24 00       		.byte	0
 6319 0d25 00       		.byte	0
 6320 0d26 00       		.byte	0
 6321 0d27 0E       		.uleb128 0xe
 6322 0d28 8C000000 		.4byte	0x8c
 6323 0d2c 370D0000 		.4byte	0xd37
 6324 0d30 0F       		.uleb128 0xf
 6325 0d31 3D000000 		.4byte	0x3d
 6326 0d35 0F       		.byte	0xf
 6327 0d36 00       		.byte	0
ARM GAS  /tmp/ccstZxWH.s 			page 112


 6328 0d37 07       		.uleb128 0x7
 6329 0d38 270D0000 		.4byte	0xd27
 6330 0d3c 23       		.uleb128 0x23
 6331 0d3d A1010000 		.4byte	.LASF96
 6332 0d41 01       		.byte	0x1
 6333 0d42 B202     		.2byte	0x2b2
 6334 0d44 07       		.byte	0x7
 6335 0d45 01010000 		.4byte	0x101
 6336 0d49 00000000 		.4byte	.LFB295
 6337 0d4d 88000000 		.4byte	.LFE295-.LFB295
 6338 0d51 01       		.uleb128 0x1
 6339 0d52 9C       		.byte	0x9c
 6340 0d53 B80F0000 		.4byte	0xfb8
 6341 0d57 19       		.uleb128 0x19
 6342 0d58 D4060000 		.4byte	.LASF89
 6343 0d5c 01       		.byte	0x1
 6344 0d5d B202     		.2byte	0x2b2
 6345 0d5f 2D       		.byte	0x2d
 6346 0d60 F9070000 		.4byte	0x7f9
 6347 0d64 12060000 		.4byte	.LLST112
 6348 0d68 02060000 		.4byte	.LVUS112
 6349 0d6c 25       		.uleb128 0x25
 6350 0d6d 6200     		.ascii	"b\000"
 6351 0d6f 01       		.byte	0x1
 6352 0d70 B202     		.2byte	0x2b2
 6353 0d72 3B       		.byte	0x3b
 6354 0d73 A3000000 		.4byte	0xa3
 6355 0d77 7A060000 		.4byte	.LLST113
 6356 0d7b 72060000 		.4byte	.LVUS113
 6357 0d7f 19       		.uleb128 0x19
 6358 0d80 A9020000 		.4byte	.LASF93
 6359 0d84 01       		.byte	0x1
 6360 0d85 B302     		.2byte	0x2b3
 6361 0d87 1F       		.byte	0x1f
 6362 0d88 25010000 		.4byte	0x125
 6363 0d8c C6060000 		.4byte	.LLST114
 6364 0d90 B4060000 		.4byte	.LVUS114
 6365 0d94 26       		.uleb128 0x26
 6366 0d95 6D736700 		.ascii	"msg\000"
 6367 0d99 01       		.byte	0x1
 6368 0d9a B402     		.2byte	0x2b4
 6369 0d9c 09       		.byte	0x9
 6370 0d9d 01010000 		.4byte	0x101
 6371 0da1 38070000 		.4byte	.LLST115
 6372 0da5 34070000 		.4byte	.LVUS115
 6373 0da9 20       		.uleb128 0x20
 6374 0daa 37230000 		.4byte	0x2337
 6375 0dae 08000000 		.4byte	.LBI920
 6376 0db2 02       		.byte	.LVU983
 6377 0db3 C0070000 		.4byte	.Ldebug_ranges0+0x7c0
 6378 0db7 01       		.byte	0x1
 6379 0db8 B602     		.2byte	0x2b6
 6380 0dba 03       		.byte	0x3
 6381 0dbb 060E0000 		.4byte	0xe06
 6382 0dbf 21       		.uleb128 0x21
 6383 0dc0 98230000 		.4byte	0x2398
 6384 0dc4 08000000 		.4byte	.LBI921
ARM GAS  /tmp/ccstZxWH.s 			page 113


 6385 0dc8 04       		.byte	.LVU985
 6386 0dc9 F0070000 		.4byte	.Ldebug_ranges0+0x7f0
 6387 0dcd 02       		.byte	0x2
 6388 0dce ED01     		.2byte	0x1ed
 6389 0dd0 03       		.byte	0x3
 6390 0dd1 21       		.uleb128 0x21
 6391 0dd2 E2230000 		.4byte	0x23e2
 6392 0dd6 08000000 		.4byte	.LBI922
 6393 0dda 06       		.byte	.LVU987
 6394 0ddb 18080000 		.4byte	.Ldebug_ranges0+0x818
 6395 0ddf 05       		.byte	0x5
 6396 0de0 7801     		.2byte	0x178
 6397 0de2 03       		.byte	0x3
 6398 0de3 21       		.uleb128 0x21
 6399 0de4 EC230000 		.4byte	0x23ec
 6400 0de8 08000000 		.4byte	.LBI923
 6401 0dec 08       		.byte	.LVU989
 6402 0ded 38080000 		.4byte	.Ldebug_ranges0+0x838
 6403 0df1 06       		.byte	0x6
 6404 0df2 5A02     		.2byte	0x25a
 6405 0df4 03       		.byte	0x3
 6406 0df5 1D       		.uleb128 0x1d
 6407 0df6 FA230000 		.4byte	0x23fa
 6408 0dfa 59070000 		.4byte	.LLST116
 6409 0dfe 57070000 		.4byte	.LVUS116
 6410 0e02 00       		.byte	0
 6411 0e03 00       		.byte	0
 6412 0e04 00       		.byte	0
 6413 0e05 00       		.byte	0
 6414 0e06 20       		.uleb128 0x20
 6415 0e07 2D230000 		.4byte	0x232d
 6416 0e0b 1E000000 		.4byte	.LBI936
 6417 0e0f 01       		.byte	.LVU1007
 6418 0e10 50080000 		.4byte	.Ldebug_ranges0+0x850
 6419 0e14 01       		.byte	0x1
 6420 0e15 CB02     		.2byte	0x2cb
 6421 0e17 03       		.byte	0x3
 6422 0e18 6D0E0000 		.4byte	0xe6d
 6423 0e1c 21       		.uleb128 0x21
 6424 0e1d 6B230000 		.4byte	0x236b
 6425 0e21 1E000000 		.4byte	.LBI937
 6426 0e25 03       		.byte	.LVU1009
 6427 0e26 58080000 		.4byte	.Ldebug_ranges0+0x858
 6428 0e2a 02       		.byte	0x2
 6429 0e2b F801     		.2byte	0x1f8
 6430 0e2d 03       		.byte	0x3
 6431 0e2e 22       		.uleb128 0x22
 6432 0e2f 58080000 		.4byte	.Ldebug_ranges0+0x858
 6433 0e33 21       		.uleb128 0x21
 6434 0e34 D8230000 		.4byte	0x23d8
 6435 0e38 1E000000 		.4byte	.LBI939
 6436 0e3c 0A       		.byte	.LVU1016
 6437 0e3d 58080000 		.4byte	.Ldebug_ranges0+0x858
 6438 0e41 05       		.byte	0x5
 6439 0e42 8F01     		.2byte	0x18f
 6440 0e44 03       		.byte	0x3
 6441 0e45 1C       		.uleb128 0x1c
ARM GAS  /tmp/ccstZxWH.s 			page 114


 6442 0e46 EC230000 		.4byte	0x23ec
 6443 0e4a 1E000000 		.4byte	.LBI940
 6444 0e4e 0C       		.byte	.LVU1018
 6445 0e4f 1E000000 		.4byte	.LBB940
 6446 0e53 06000000 		.4byte	.LBE940-.LBB940
 6447 0e57 06       		.byte	0x6
 6448 0e58 6D02     		.2byte	0x26d
 6449 0e5a 03       		.byte	0x3
 6450 0e5b 1D       		.uleb128 0x1d
 6451 0e5c FA230000 		.4byte	0x23fa
 6452 0e60 70070000 		.4byte	.LLST117
 6453 0e64 6E070000 		.4byte	.LVUS117
 6454 0e68 00       		.byte	0
 6455 0e69 00       		.byte	0
 6456 0e6a 00       		.byte	0
 6457 0e6b 00       		.byte	0
 6458 0e6c 00       		.byte	0
 6459 0e6d 20       		.uleb128 0x20
 6460 0e6e B80F0000 		.4byte	0xfb8
 6461 0e72 26000000 		.4byte	.LBI947
 6462 0e76 01       		.byte	.LVU1024
 6463 0e77 70080000 		.4byte	.Ldebug_ranges0+0x870
 6464 0e7b 01       		.byte	0x1
 6465 0e7c C802     		.2byte	0x2c8
 6466 0e7e 05       		.byte	0x5
 6467 0e7f B00E0000 		.4byte	0xeb0
 6468 0e83 1D       		.uleb128 0x1d
 6469 0e84 D30F0000 		.4byte	0xfd3
 6470 0e88 8A070000 		.4byte	.LLST118
 6471 0e8c 84070000 		.4byte	.LVUS118
 6472 0e90 1D       		.uleb128 0x1d
 6473 0e91 C60F0000 		.4byte	0xfc6
 6474 0e95 BE070000 		.4byte	.LLST119
 6475 0e99 BA070000 		.4byte	.LVUS119
 6476 0e9d 22       		.uleb128 0x22
 6477 0e9e 70080000 		.4byte	.Ldebug_ranges0+0x870
 6478 0ea2 1E       		.uleb128 0x1e
 6479 0ea3 52000000 		.4byte	.LVL167
 6480 0ea7 1F       		.uleb128 0x1f
 6481 0ea8 01       		.uleb128 0x1
 6482 0ea9 50       		.byte	0x50
 6483 0eaa 02       		.uleb128 0x2
 6484 0eab 74       		.byte	0x74
 6485 0eac 00       		.sleb128 0
 6486 0ead 00       		.byte	0
 6487 0eae 00       		.byte	0
 6488 0eaf 00       		.byte	0
 6489 0eb0 30       		.uleb128 0x30
 6490 0eb1 43110000 		.4byte	0x1143
 6491 0eb5 90080000 		.4byte	.Ldebug_ranges0+0x890
 6492 0eb9 01       		.byte	0x1
 6493 0eba BA02     		.2byte	0x2ba
 6494 0ebc 0B       		.byte	0xb
 6495 0ebd 540F0000 		.4byte	0xf54
 6496 0ec1 2A       		.uleb128 0x2a
 6497 0ec2 62110000 		.4byte	0x1162
 6498 0ec6 2A       		.uleb128 0x2a
ARM GAS  /tmp/ccstZxWH.s 			page 115


 6499 0ec7 55110000 		.4byte	0x1155
 6500 0ecb 22       		.uleb128 0x22
 6501 0ecc 90080000 		.4byte	.Ldebug_ranges0+0x890
 6502 0ed0 2B       		.uleb128 0x2b
 6503 0ed1 78110000 		.4byte	0x1178
 6504 0ed5 A8080000 		.4byte	.Ldebug_ranges0+0x8a8
 6505 0ed9 210F0000 		.4byte	0xf21
 6506 0edd 2C       		.uleb128 0x2c
 6507 0ede 79110000 		.4byte	0x1179
 6508 0ee2 DE070000 		.4byte	.LLST120
 6509 0ee6 DC070000 		.4byte	.LVUS120
 6510 0eea 21       		.uleb128 0x21
 6511 0eeb D6220000 		.4byte	0x22d6
 6512 0eef 64000000 		.4byte	.LBI956
 6513 0ef3 02       		.byte	.LVU1064
 6514 0ef4 C8080000 		.4byte	.Ldebug_ranges0+0x8c8
 6515 0ef8 01       		.byte	0x1
 6516 0ef9 5D02     		.2byte	0x25d
 6517 0efb 11       		.byte	0x11
 6518 0efc 1D       		.uleb128 0x1d
 6519 0efd F5220000 		.4byte	0x22f5
 6520 0f01 FD070000 		.4byte	.LLST121
 6521 0f05 F1070000 		.4byte	.LVUS121
 6522 0f09 1D       		.uleb128 0x1d
 6523 0f0a E8220000 		.4byte	0x22e8
 6524 0f0e 4F080000 		.4byte	.LLST122
 6525 0f12 47080000 		.4byte	.LVUS122
 6526 0f16 2D       		.uleb128 0x2d
 6527 0f17 60000000 		.4byte	.LVL170
 6528 0f1b CF250000 		.4byte	0x25cf
 6529 0f1f 00       		.byte	0
 6530 0f20 00       		.byte	0
 6531 0f21 1C       		.uleb128 0x1c
 6532 0f22 43110000 		.4byte	0x1143
 6533 0f26 6E000000 		.4byte	.LBI963
 6534 0f2a 00       		.byte	.LVU1070
 6535 0f2b 6E000000 		.4byte	.LBB963
 6536 0f2f 0C000000 		.4byte	.LBE963-.LBB963
 6537 0f33 01       		.byte	0x1
 6538 0f34 5402     		.2byte	0x254
 6539 0f36 07       		.byte	0x7
 6540 0f37 1D       		.uleb128 0x1d
 6541 0f38 62110000 		.4byte	0x1162
 6542 0f3c 87080000 		.4byte	.LLST123
 6543 0f40 83080000 		.4byte	.LVUS123
 6544 0f44 1D       		.uleb128 0x1d
 6545 0f45 55110000 		.4byte	0x1155
 6546 0f49 A7080000 		.4byte	.LLST124
 6547 0f4d A5080000 		.4byte	.LVUS124
 6548 0f51 00       		.byte	0
 6549 0f52 00       		.byte	0
 6550 0f53 00       		.byte	0
 6551 0f54 21       		.uleb128 0x21
 6552 0f55 2D230000 		.4byte	0x232d
 6553 0f59 80000000 		.4byte	.LBI968
 6554 0f5d 03       		.byte	.LVU1087
 6555 0f5e E8080000 		.4byte	.Ldebug_ranges0+0x8e8
ARM GAS  /tmp/ccstZxWH.s 			page 116


 6556 0f62 01       		.byte	0x1
 6557 0f63 BC02     		.2byte	0x2bc
 6558 0f65 07       		.byte	0x7
 6559 0f66 21       		.uleb128 0x21
 6560 0f67 6B230000 		.4byte	0x236b
 6561 0f6b 80000000 		.4byte	.LBI969
 6562 0f6f 05       		.byte	.LVU1089
 6563 0f70 F0080000 		.4byte	.Ldebug_ranges0+0x8f0
 6564 0f74 02       		.byte	0x2
 6565 0f75 F801     		.2byte	0x1f8
 6566 0f77 03       		.byte	0x3
 6567 0f78 22       		.uleb128 0x22
 6568 0f79 F0080000 		.4byte	.Ldebug_ranges0+0x8f0
 6569 0f7d 21       		.uleb128 0x21
 6570 0f7e D8230000 		.4byte	0x23d8
 6571 0f82 80000000 		.4byte	.LBI971
 6572 0f86 0C       		.byte	.LVU1096
 6573 0f87 F0080000 		.4byte	.Ldebug_ranges0+0x8f0
 6574 0f8b 05       		.byte	0x5
 6575 0f8c 8F01     		.2byte	0x18f
 6576 0f8e 03       		.byte	0x3
 6577 0f8f 1C       		.uleb128 0x1c
 6578 0f90 EC230000 		.4byte	0x23ec
 6579 0f94 80000000 		.4byte	.LBI972
 6580 0f98 0E       		.byte	.LVU1098
 6581 0f99 80000000 		.4byte	.LBB972
 6582 0f9d 06000000 		.4byte	.LBE972-.LBB972
 6583 0fa1 06       		.byte	0x6
 6584 0fa2 6D02     		.2byte	0x26d
 6585 0fa4 03       		.byte	0x3
 6586 0fa5 1D       		.uleb128 0x1d
 6587 0fa6 FA230000 		.4byte	0x23fa
 6588 0faa BC080000 		.4byte	.LLST125
 6589 0fae BA080000 		.4byte	.LVUS125
 6590 0fb2 00       		.byte	0
 6591 0fb3 00       		.byte	0
 6592 0fb4 00       		.byte	0
 6593 0fb5 00       		.byte	0
 6594 0fb6 00       		.byte	0
 6595 0fb7 00       		.byte	0
 6596 0fb8 31       		.uleb128 0x31
 6597 0fb9 D8020000 		.4byte	.LASF110
 6598 0fbd 01       		.byte	0x1
 6599 0fbe 8502     		.2byte	0x285
 6600 0fc0 06       		.byte	0x6
 6601 0fc1 01       		.byte	0x1
 6602 0fc2 EA0F0000 		.4byte	0xfea
 6603 0fc6 32       		.uleb128 0x32
 6604 0fc7 D4060000 		.4byte	.LASF89
 6605 0fcb 01       		.byte	0x1
 6606 0fcc 8502     		.2byte	0x285
 6607 0fce 31       		.byte	0x31
 6608 0fcf F9070000 		.4byte	0x7f9
 6609 0fd3 32       		.uleb128 0x32
 6610 0fd4 C4020000 		.4byte	.LASF90
 6611 0fd8 01       		.byte	0x1
 6612 0fd9 8502     		.2byte	0x285
ARM GAS  /tmp/ccstZxWH.s 			page 117


 6613 0fdb 3E       		.byte	0x3e
 6614 0fdc 2C000000 		.4byte	0x2c
 6615 0fe0 27       		.uleb128 0x27
 6616 0fe1 74050000 		.4byte	.LASF97
 6617 0fe5 FA0F0000 		.4byte	0xffa
 6618 0fe9 00       		.byte	0
 6619 0fea 0E       		.uleb128 0xe
 6620 0feb 8C000000 		.4byte	0x8c
 6621 0fef FA0F0000 		.4byte	0xffa
 6622 0ff3 0F       		.uleb128 0xf
 6623 0ff4 3D000000 		.4byte	0x3d
 6624 0ff8 12       		.byte	0x12
 6625 0ff9 00       		.byte	0
 6626 0ffa 07       		.uleb128 0x7
 6627 0ffb EA0F0000 		.4byte	0xfea
 6628 0fff 18       		.uleb128 0x18
 6629 1000 23060000 		.4byte	.LASF99
 6630 1004 01       		.byte	0x1
 6631 1005 7502     		.2byte	0x275
 6632 1007 06       		.byte	0x6
 6633 1008 00000000 		.4byte	.LFB293
 6634 100c 34000000 		.4byte	.LFE293-.LFB293
 6635 1010 01       		.uleb128 0x1
 6636 1011 9C       		.byte	0x9c
 6637 1012 43110000 		.4byte	0x1143
 6638 1016 19       		.uleb128 0x19
 6639 1017 D4060000 		.4byte	.LASF89
 6640 101b 01       		.byte	0x1
 6641 101c 7502     		.2byte	0x275
 6642 101e 30       		.byte	0x30
 6643 101f F9070000 		.4byte	0x7f9
 6644 1023 D4080000 		.4byte	.LLST104
 6645 1027 D0080000 		.4byte	.LVUS104
 6646 102b 19       		.uleb128 0x19
 6647 102c C4020000 		.4byte	.LASF90
 6648 1030 01       		.byte	0x1
 6649 1031 7502     		.2byte	0x275
 6650 1033 3D       		.byte	0x3d
 6651 1034 2C000000 		.4byte	0x2c
 6652 1038 FD080000 		.4byte	.LLST105
 6653 103c F5080000 		.4byte	.LVUS105
 6654 1040 20       		.uleb128 0x20
 6655 1041 37230000 		.4byte	0x2337
 6656 1045 00000000 		.4byte	.LBI862
 6657 1049 02       		.byte	.LVU882
 6658 104a 70070000 		.4byte	.Ldebug_ranges0+0x770
 6659 104e 01       		.byte	0x1
 6660 104f 7702     		.2byte	0x277
 6661 1051 03       		.byte	0x3
 6662 1052 9D100000 		.4byte	0x109d
 6663 1056 21       		.uleb128 0x21
 6664 1057 98230000 		.4byte	0x2398
 6665 105b 00000000 		.4byte	.LBI863
 6666 105f 04       		.byte	.LVU884
 6667 1060 78070000 		.4byte	.Ldebug_ranges0+0x778
 6668 1064 02       		.byte	0x2
 6669 1065 ED01     		.2byte	0x1ed
ARM GAS  /tmp/ccstZxWH.s 			page 118


 6670 1067 03       		.byte	0x3
 6671 1068 21       		.uleb128 0x21
 6672 1069 E2230000 		.4byte	0x23e2
 6673 106d 00000000 		.4byte	.LBI864
 6674 1071 06       		.byte	.LVU886
 6675 1072 80070000 		.4byte	.Ldebug_ranges0+0x780
 6676 1076 05       		.byte	0x5
 6677 1077 7801     		.2byte	0x178
 6678 1079 03       		.byte	0x3
 6679 107a 21       		.uleb128 0x21
 6680 107b EC230000 		.4byte	0x23ec
 6681 107f 00000000 		.4byte	.LBI865
 6682 1083 08       		.byte	.LVU888
 6683 1084 88070000 		.4byte	.Ldebug_ranges0+0x788
 6684 1088 06       		.byte	0x6
 6685 1089 5A02     		.2byte	0x25a
 6686 108b 03       		.byte	0x3
 6687 108c 1D       		.uleb128 0x1d
 6688 108d FA230000 		.4byte	0x23fa
 6689 1091 39090000 		.4byte	.LLST106
 6690 1095 37090000 		.4byte	.LVUS106
 6691 1099 00       		.byte	0
 6692 109a 00       		.byte	0
 6693 109b 00       		.byte	0
 6694 109c 00       		.byte	0
 6695 109d 33       		.uleb128 0x33
 6696 109e B80F0000 		.4byte	0xfb8
 6697 10a2 08000000 		.4byte	.LBI878
 6698 10a6 04       		.byte	.LVU896
 6699 10a7 08000000 		.4byte	.LBB878
 6700 10ab 24000000 		.4byte	.LBE878-.LBB878
 6701 10af 01       		.byte	0x1
 6702 10b0 7802     		.2byte	0x278
 6703 10b2 03       		.byte	0x3
 6704 10b3 DF100000 		.4byte	0x10df
 6705 10b7 1D       		.uleb128 0x1d
 6706 10b8 D30F0000 		.4byte	0xfd3
 6707 10bc 56090000 		.4byte	.LLST107
 6708 10c0 4E090000 		.4byte	.LVUS107
 6709 10c4 1D       		.uleb128 0x1d
 6710 10c5 C60F0000 		.4byte	0xfc6
 6711 10c9 94090000 		.4byte	.LLST108
 6712 10cd 90090000 		.4byte	.LVUS108
 6713 10d1 1E       		.uleb128 0x1e
 6714 10d2 2C000000 		.4byte	.LVL149
 6715 10d6 1F       		.uleb128 0x1f
 6716 10d7 01       		.uleb128 0x1
 6717 10d8 50       		.byte	0x50
 6718 10d9 03       		.uleb128 0x3
 6719 10da F3       		.byte	0xf3
 6720 10db 01       		.uleb128 0x1
 6721 10dc 50       		.byte	0x50
 6722 10dd 00       		.byte	0
 6723 10de 00       		.byte	0
 6724 10df 21       		.uleb128 0x21
 6725 10e0 2D230000 		.4byte	0x232d
 6726 10e4 2C000000 		.4byte	.LBI880
ARM GAS  /tmp/ccstZxWH.s 			page 119


 6727 10e8 02       		.byte	.LVU928
 6728 10e9 A0070000 		.4byte	.Ldebug_ranges0+0x7a0
 6729 10ed 01       		.byte	0x1
 6730 10ee 7902     		.2byte	0x279
 6731 10f0 03       		.byte	0x3
 6732 10f1 21       		.uleb128 0x21
 6733 10f2 6B230000 		.4byte	0x236b
 6734 10f6 2C000000 		.4byte	.LBI881
 6735 10fa 04       		.byte	.LVU930
 6736 10fb A8070000 		.4byte	.Ldebug_ranges0+0x7a8
 6737 10ff 02       		.byte	0x2
 6738 1100 F801     		.2byte	0x1f8
 6739 1102 03       		.byte	0x3
 6740 1103 22       		.uleb128 0x22
 6741 1104 A8070000 		.4byte	.Ldebug_ranges0+0x7a8
 6742 1108 21       		.uleb128 0x21
 6743 1109 D8230000 		.4byte	0x23d8
 6744 110d 2C000000 		.4byte	.LBI883
 6745 1111 0B       		.byte	.LVU937
 6746 1112 A8070000 		.4byte	.Ldebug_ranges0+0x7a8
 6747 1116 05       		.byte	0x5
 6748 1117 8F01     		.2byte	0x18f
 6749 1119 03       		.byte	0x3
 6750 111a 1C       		.uleb128 0x1c
 6751 111b EC230000 		.4byte	0x23ec
 6752 111f 2C000000 		.4byte	.LBI884
 6753 1123 0D       		.byte	.LVU939
 6754 1124 2C000000 		.4byte	.LBB884
 6755 1128 06000000 		.4byte	.LBE884-.LBB884
 6756 112c 06       		.byte	0x6
 6757 112d 6D02     		.2byte	0x26d
 6758 112f 03       		.byte	0x3
 6759 1130 1D       		.uleb128 0x1d
 6760 1131 FA230000 		.4byte	0x23fa
 6761 1135 B7090000 		.4byte	.LLST109
 6762 1139 B5090000 		.4byte	.LVUS109
 6763 113d 00       		.byte	0
 6764 113e 00       		.byte	0
 6765 113f 00       		.byte	0
 6766 1140 00       		.byte	0
 6767 1141 00       		.byte	0
 6768 1142 00       		.byte	0
 6769 1143 34       		.uleb128 0x34
 6770 1144 87070000 		.4byte	.LASF113
 6771 1148 01       		.byte	0x1
 6772 1149 5402     		.2byte	0x254
 6773 114b 07       		.byte	0x7
 6774 114c 01010000 		.4byte	0x101
 6775 1150 01       		.byte	0x1
 6776 1151 88110000 		.4byte	0x1188
 6777 1155 32       		.uleb128 0x32
 6778 1156 D4060000 		.4byte	.LASF89
 6779 115a 01       		.byte	0x1
 6780 115b 5402     		.2byte	0x254
 6781 115d 39       		.byte	0x39
 6782 115e F9070000 		.4byte	0x7f9
 6783 1162 32       		.uleb128 0x32
ARM GAS  /tmp/ccstZxWH.s 			page 120


 6784 1163 A9020000 		.4byte	.LASF93
 6785 1167 01       		.byte	0x1
 6786 1168 5502     		.2byte	0x255
 6787 116a 2B       		.byte	0x2b
 6788 116b 25010000 		.4byte	0x125
 6789 116f 27       		.uleb128 0x27
 6790 1170 74050000 		.4byte	.LASF97
 6791 1174 98110000 		.4byte	0x1198
 6792 1178 35       		.uleb128 0x35
 6793 1179 36       		.uleb128 0x36
 6794 117a 6D736700 		.ascii	"msg\000"
 6795 117e 01       		.byte	0x1
 6796 117f 5D02     		.2byte	0x25d
 6797 1181 0B       		.byte	0xb
 6798 1182 01010000 		.4byte	0x101
 6799 1186 00       		.byte	0
 6800 1187 00       		.byte	0
 6801 1188 0E       		.uleb128 0xe
 6802 1189 8C000000 		.4byte	0x8c
 6803 118d 98110000 		.4byte	0x1198
 6804 1191 0F       		.uleb128 0xf
 6805 1192 3D000000 		.4byte	0x3d
 6806 1196 19       		.byte	0x19
 6807 1197 00       		.byte	0
 6808 1198 07       		.uleb128 0x7
 6809 1199 88110000 		.4byte	0x1188
 6810 119d 23       		.uleb128 0x23
 6811 119e E7060000 		.4byte	.LASF100
 6812 11a2 01       		.byte	0x1
 6813 11a3 3402     		.2byte	0x234
 6814 11a5 07       		.byte	0x7
 6815 11a6 01010000 		.4byte	0x101
 6816 11aa 00000000 		.4byte	.LFB291
 6817 11ae 46000000 		.4byte	.LFE291-.LFB291
 6818 11b2 01       		.uleb128 0x1
 6819 11b3 9C       		.byte	0x9c
 6820 11b4 6D130000 		.4byte	0x136d
 6821 11b8 19       		.uleb128 0x19
 6822 11b9 D4060000 		.4byte	.LASF89
 6823 11bd 01       		.byte	0x1
 6824 11be 3402     		.2byte	0x234
 6825 11c0 38       		.byte	0x38
 6826 11c1 F9070000 		.4byte	0x7f9
 6827 11c5 D7090000 		.4byte	.LLST85
 6828 11c9 CB090000 		.4byte	.LVUS85
 6829 11cd 19       		.uleb128 0x19
 6830 11ce A9020000 		.4byte	.LASF93
 6831 11d2 01       		.byte	0x1
 6832 11d3 3502     		.2byte	0x235
 6833 11d5 2B       		.byte	0x2b
 6834 11d6 25010000 		.4byte	0x125
 6835 11da 2B0A0000 		.4byte	.LLST86
 6836 11de 210A0000 		.4byte	.LVUS86
 6837 11e2 26       		.uleb128 0x26
 6838 11e3 6D736700 		.ascii	"msg\000"
 6839 11e7 01       		.byte	0x1
 6840 11e8 3602     		.2byte	0x236
ARM GAS  /tmp/ccstZxWH.s 			page 121


 6841 11ea 09       		.byte	0x9
 6842 11eb 01010000 		.4byte	0x101
 6843 11ef 6E0A0000 		.4byte	.LLST87
 6844 11f3 6A0A0000 		.4byte	.LVUS87
 6845 11f7 20       		.uleb128 0x20
 6846 11f8 37230000 		.4byte	0x2337
 6847 11fc 04000000 		.4byte	.LBI774
 6848 1200 02       		.byte	.LVU759
 6849 1201 30060000 		.4byte	.Ldebug_ranges0+0x630
 6850 1205 01       		.byte	0x1
 6851 1206 3802     		.2byte	0x238
 6852 1208 03       		.byte	0x3
 6853 1209 54120000 		.4byte	0x1254
 6854 120d 21       		.uleb128 0x21
 6855 120e 98230000 		.4byte	0x2398
 6856 1212 04000000 		.4byte	.LBI775
 6857 1216 04       		.byte	.LVU761
 6858 1217 38060000 		.4byte	.Ldebug_ranges0+0x638
 6859 121b 02       		.byte	0x2
 6860 121c ED01     		.2byte	0x1ed
 6861 121e 03       		.byte	0x3
 6862 121f 21       		.uleb128 0x21
 6863 1220 E2230000 		.4byte	0x23e2
 6864 1224 04000000 		.4byte	.LBI776
 6865 1228 06       		.byte	.LVU763
 6866 1229 40060000 		.4byte	.Ldebug_ranges0+0x640
 6867 122d 05       		.byte	0x5
 6868 122e 7801     		.2byte	0x178
 6869 1230 03       		.byte	0x3
 6870 1231 21       		.uleb128 0x21
 6871 1232 EC230000 		.4byte	0x23ec
 6872 1236 04000000 		.4byte	.LBI777
 6873 123a 08       		.byte	.LVU765
 6874 123b 48060000 		.4byte	.Ldebug_ranges0+0x648
 6875 123f 06       		.byte	0x6
 6876 1240 5A02     		.2byte	0x25a
 6877 1242 03       		.byte	0x3
 6878 1243 1D       		.uleb128 0x1d
 6879 1244 FA230000 		.4byte	0x23fa
 6880 1248 8E0A0000 		.4byte	.LLST88
 6881 124c 8C0A0000 		.4byte	.LVUS88
 6882 1250 00       		.byte	0
 6883 1251 00       		.byte	0
 6884 1252 00       		.byte	0
 6885 1253 00       		.byte	0
 6886 1254 20       		.uleb128 0x20
 6887 1255 43110000 		.4byte	0x1143
 6888 1259 0C000000 		.4byte	.LBI790
 6889 125d 04       		.byte	.LVU773
 6890 125e 60060000 		.4byte	.Ldebug_ranges0+0x660
 6891 1262 01       		.byte	0x1
 6892 1263 3902     		.2byte	0x239
 6893 1265 09       		.byte	0x9
 6894 1266 0D130000 		.4byte	0x130d
 6895 126a 1D       		.uleb128 0x1d
 6896 126b 62110000 		.4byte	0x1162
 6897 126f AD0A0000 		.4byte	.LLST89
ARM GAS  /tmp/ccstZxWH.s 			page 122


 6898 1273 A30A0000 		.4byte	.LVUS89
 6899 1277 1D       		.uleb128 0x1d
 6900 1278 55110000 		.4byte	0x1155
 6901 127c F40A0000 		.4byte	.LLST90
 6902 1280 EC0A0000 		.4byte	.LVUS90
 6903 1284 22       		.uleb128 0x22
 6904 1285 60060000 		.4byte	.Ldebug_ranges0+0x660
 6905 1289 2B       		.uleb128 0x2b
 6906 128a 78110000 		.4byte	0x1178
 6907 128e 78060000 		.4byte	.Ldebug_ranges0+0x678
 6908 1292 DA120000 		.4byte	0x12da
 6909 1296 2C       		.uleb128 0x2c
 6910 1297 79110000 		.4byte	0x1179
 6911 129b 2A0B0000 		.4byte	.LLST91
 6912 129f 280B0000 		.4byte	.LVUS91
 6913 12a3 21       		.uleb128 0x21
 6914 12a4 D6220000 		.4byte	0x22d6
 6915 12a8 1A000000 		.4byte	.LBI793
 6916 12ac 02       		.byte	.LVU785
 6917 12ad 98060000 		.4byte	.Ldebug_ranges0+0x698
 6918 12b1 01       		.byte	0x1
 6919 12b2 5D02     		.2byte	0x25d
 6920 12b4 11       		.byte	0x11
 6921 12b5 1D       		.uleb128 0x1d
 6922 12b6 F5220000 		.4byte	0x22f5
 6923 12ba 490B0000 		.4byte	.LLST92
 6924 12be 3D0B0000 		.4byte	.LVUS92
 6925 12c2 1D       		.uleb128 0x1d
 6926 12c3 E8220000 		.4byte	0x22e8
 6927 12c7 9F0B0000 		.4byte	.LLST93
 6928 12cb 930B0000 		.4byte	.LVUS93
 6929 12cf 2D       		.uleb128 0x2d
 6930 12d0 16000000 		.4byte	.LVL124
 6931 12d4 CF250000 		.4byte	0x25cf
 6932 12d8 00       		.byte	0
 6933 12d9 00       		.byte	0
 6934 12da 1C       		.uleb128 0x1c
 6935 12db 43110000 		.4byte	0x1143
 6936 12df 24000000 		.4byte	.LBI800
 6937 12e3 00       		.byte	.LVU791
 6938 12e4 24000000 		.4byte	.LBB800
 6939 12e8 0E000000 		.4byte	.LBE800-.LBB800
 6940 12ec 01       		.byte	0x1
 6941 12ed 5402     		.2byte	0x254
 6942 12ef 07       		.byte	0x7
 6943 12f0 1D       		.uleb128 0x1d
 6944 12f1 62110000 		.4byte	0x1162
 6945 12f5 ED0B0000 		.4byte	.LLST94
 6946 12f9 E90B0000 		.4byte	.LVUS94
 6947 12fd 1D       		.uleb128 0x1d
 6948 12fe 55110000 		.4byte	0x1155
 6949 1302 0D0C0000 		.4byte	.LLST95
 6950 1306 0B0C0000 		.4byte	.LVUS95
 6951 130a 00       		.byte	0
 6952 130b 00       		.byte	0
 6953 130c 00       		.byte	0
 6954 130d 21       		.uleb128 0x21
ARM GAS  /tmp/ccstZxWH.s 			page 123


 6955 130e 2D230000 		.4byte	0x232d
 6956 1312 32000000 		.4byte	.LBI804
 6957 1316 02       		.byte	.LVU805
 6958 1317 B8060000 		.4byte	.Ldebug_ranges0+0x6b8
 6959 131b 01       		.byte	0x1
 6960 131c 3A02     		.2byte	0x23a
 6961 131e 03       		.byte	0x3
 6962 131f 21       		.uleb128 0x21
 6963 1320 6B230000 		.4byte	0x236b
 6964 1324 32000000 		.4byte	.LBI805
 6965 1328 04       		.byte	.LVU807
 6966 1329 F0060000 		.4byte	.Ldebug_ranges0+0x6f0
 6967 132d 02       		.byte	0x2
 6968 132e F801     		.2byte	0x1f8
 6969 1330 03       		.byte	0x3
 6970 1331 22       		.uleb128 0x22
 6971 1332 F0060000 		.4byte	.Ldebug_ranges0+0x6f0
 6972 1336 21       		.uleb128 0x21
 6973 1337 D8230000 		.4byte	0x23d8
 6974 133b 32000000 		.4byte	.LBI807
 6975 133f 0B       		.byte	.LVU814
 6976 1340 F0060000 		.4byte	.Ldebug_ranges0+0x6f0
 6977 1344 05       		.byte	0x5
 6978 1345 8F01     		.2byte	0x18f
 6979 1347 03       		.byte	0x3
 6980 1348 21       		.uleb128 0x21
 6981 1349 EC230000 		.4byte	0x23ec
 6982 134d 32000000 		.4byte	.LBI808
 6983 1351 0D       		.byte	.LVU816
 6984 1352 18070000 		.4byte	.Ldebug_ranges0+0x718
 6985 1356 06       		.byte	0x6
 6986 1357 6D02     		.2byte	0x26d
 6987 1359 03       		.byte	0x3
 6988 135a 1D       		.uleb128 0x1d
 6989 135b FA230000 		.4byte	0x23fa
 6990 135f 240C0000 		.4byte	.LLST96
 6991 1363 200C0000 		.4byte	.LVUS96
 6992 1367 00       		.byte	0
 6993 1368 00       		.byte	0
 6994 1369 00       		.byte	0
 6995 136a 00       		.byte	0
 6996 136b 00       		.byte	0
 6997 136c 00       		.byte	0
 6998 136d 18       		.uleb128 0x18
 6999 136e BD060000 		.4byte	.LASF101
 7000 1372 01       		.byte	0x1
 7001 1373 0F02     		.2byte	0x20f
 7002 1375 06       		.byte	0x6
 7003 1376 00000000 		.4byte	.LFB290
 7004 137a 24000000 		.4byte	.LFE290-.LFB290
 7005 137e 01       		.uleb128 0x1
 7006 137f 9C       		.byte	0x9c
 7007 1380 E3130000 		.4byte	0x13e3
 7008 1384 19       		.uleb128 0x19
 7009 1385 D4060000 		.4byte	.LASF89
 7010 1389 01       		.byte	0x1
 7011 138a 0F02     		.2byte	0x20f
ARM GAS  /tmp/ccstZxWH.s 			page 124


 7012 138c 35       		.byte	0x35
 7013 138d F9070000 		.4byte	0x7f9
 7014 1391 480C0000 		.4byte	.LLST83
 7015 1395 440C0000 		.4byte	.LVUS83
 7016 1399 27       		.uleb128 0x27
 7017 139a 74050000 		.4byte	.LASF97
 7018 139e F3130000 		.4byte	0x13f3
 7019 13a2 1C       		.uleb128 0x1c
 7020 13a3 AD220000 		.4byte	0x22ad
 7021 13a7 1E000000 		.4byte	.LBI751
 7022 13ab 01       		.byte	.LVU751
 7023 13ac 1E000000 		.4byte	.LBB751
 7024 13b0 06000000 		.4byte	.LBE751-.LBB751
 7025 13b4 01       		.byte	0x1
 7026 13b5 1C02     		.2byte	0x21c
 7027 13b7 03       		.byte	0x3
 7028 13b8 37       		.uleb128 0x37
 7029 13b9 C8220000 		.4byte	0x22c8
 7030 13bd 00       		.byte	0
 7031 13be 1D       		.uleb128 0x1d
 7032 13bf BB220000 		.4byte	0x22bb
 7033 13c3 6D0C0000 		.4byte	.LLST84
 7034 13c7 690C0000 		.4byte	.LVUS84
 7035 13cb 38       		.uleb128 0x38
 7036 13cc 24000000 		.4byte	.LVL119
 7037 13d0 E7250000 		.4byte	0x25e7
 7038 13d4 1F       		.uleb128 0x1f
 7039 13d5 01       		.uleb128 0x1
 7040 13d6 50       		.byte	0x50
 7041 13d7 03       		.uleb128 0x3
 7042 13d8 F3       		.byte	0xf3
 7043 13d9 01       		.uleb128 0x1
 7044 13da 50       		.byte	0x50
 7045 13db 1F       		.uleb128 0x1f
 7046 13dc 01       		.uleb128 0x1
 7047 13dd 51       		.byte	0x51
 7048 13de 01       		.uleb128 0x1
 7049 13df 30       		.byte	0x30
 7050 13e0 00       		.byte	0
 7051 13e1 00       		.byte	0
 7052 13e2 00       		.byte	0
 7053 13e3 0E       		.uleb128 0xe
 7054 13e4 8C000000 		.4byte	0x8c
 7055 13e8 F3130000 		.4byte	0x13f3
 7056 13ec 0F       		.uleb128 0xf
 7057 13ed 3D000000 		.4byte	0x3d
 7058 13f1 16       		.byte	0x16
 7059 13f2 00       		.byte	0
 7060 13f3 07       		.uleb128 0x7
 7061 13f4 E3130000 		.4byte	0x13e3
 7062 13f8 23       		.uleb128 0x23
 7063 13f9 09010000 		.4byte	.LASF102
 7064 13fd 01       		.byte	0x1
 7065 13fe F901     		.2byte	0x1f9
 7066 1400 0A       		.byte	0xa
 7067 1401 B0050000 		.4byte	0x5b0
 7068 1405 00000000 		.4byte	.LFB289
ARM GAS  /tmp/ccstZxWH.s 			page 125


 7069 1409 1C000000 		.4byte	.LFE289-.LFB289
 7070 140d 01       		.uleb128 0x1
 7071 140e 9C       		.byte	0x9c
 7072 140f 38140000 		.4byte	0x1438
 7073 1413 19       		.uleb128 0x19
 7074 1414 D4060000 		.4byte	.LASF89
 7075 1418 01       		.byte	0x1
 7076 1419 F901     		.2byte	0x1f9
 7077 141b 34       		.byte	0x34
 7078 141c F9070000 		.4byte	0x7f9
 7079 1420 980C0000 		.4byte	.LLST82
 7080 1424 8E0C0000 		.4byte	.LVUS82
 7081 1428 39       		.uleb128 0x39
 7082 1429 07070000 		.4byte	.LASF105
 7083 142d 01       		.byte	0x1
 7084 142e FA01     		.2byte	0x1fa
 7085 1430 24       		.byte	0x24
 7086 1431 38140000 		.4byte	0x1438
 7087 1435 01       		.uleb128 0x1
 7088 1436 51       		.byte	0x51
 7089 1437 00       		.byte	0
 7090 1438 08       		.uleb128 0x8
 7091 1439 04       		.byte	0x4
 7092 143a 2C000000 		.4byte	0x2c
 7093 143e 18       		.uleb128 0x18
 7094 143f CC040000 		.4byte	.LASF103
 7095 1443 01       		.byte	0x1
 7096 1444 E201     		.2byte	0x1e2
 7097 1446 06       		.byte	0x6
 7098 1447 00000000 		.4byte	.LFB288
 7099 144b 1A000000 		.4byte	.LFE288-.LFB288
 7100 144f 01       		.uleb128 0x1
 7101 1450 9C       		.byte	0x9c
 7102 1451 A4140000 		.4byte	0x14a4
 7103 1455 19       		.uleb128 0x19
 7104 1456 D4060000 		.4byte	.LASF89
 7105 145a 01       		.byte	0x1
 7106 145b E201     		.2byte	0x1e2
 7107 145d 28       		.byte	0x28
 7108 145e F9070000 		.4byte	0x7f9
 7109 1462 E10C0000 		.4byte	.LLST81
 7110 1466 DD0C0000 		.4byte	.LVUS81
 7111 146a 1C       		.uleb128 0x1c
 7112 146b 7E220000 		.4byte	0x227e
 7113 146f 12000000 		.4byte	.LBI749
 7114 1473 03       		.byte	.LVU714
 7115 1474 12000000 		.4byte	.LBB749
 7116 1478 08000000 		.4byte	.LBE749-.LBB749
 7117 147c 01       		.byte	0x1
 7118 147d EB01     		.2byte	0x1eb
 7119 147f 03       		.byte	0x3
 7120 1480 3A       		.uleb128 0x3a
 7121 1481 99220000 		.4byte	0x2299
 7122 1485 7E       		.sleb128 -2
 7123 1486 2A       		.uleb128 0x2a
 7124 1487 8C220000 		.4byte	0x228c
 7125 148b 38       		.uleb128 0x38
ARM GAS  /tmp/ccstZxWH.s 			page 126


 7126 148c 1A000000 		.4byte	.LVL111
 7127 1490 F4250000 		.4byte	0x25f4
 7128 1494 1F       		.uleb128 0x1f
 7129 1495 01       		.uleb128 0x1
 7130 1496 50       		.byte	0x50
 7131 1497 03       		.uleb128 0x3
 7132 1498 F3       		.byte	0xf3
 7133 1499 01       		.uleb128 0x1
 7134 149a 50       		.byte	0x50
 7135 149b 1F       		.uleb128 0x1f
 7136 149c 01       		.uleb128 0x1
 7137 149d 51       		.byte	0x51
 7138 149e 02       		.uleb128 0x2
 7139 149f 09       		.byte	0x9
 7140 14a0 FE       		.byte	0xfe
 7141 14a1 00       		.byte	0
 7142 14a2 00       		.byte	0
 7143 14a3 00       		.byte	0
 7144 14a4 18       		.uleb128 0x18
 7145 14a5 39010000 		.4byte	.LASF104
 7146 14a9 01       		.byte	0x1
 7147 14aa C301     		.2byte	0x1c3
 7148 14ac 06       		.byte	0x6
 7149 14ad 00000000 		.4byte	.LFB287
 7150 14b1 30000000 		.4byte	.LFE287-.LFB287
 7151 14b5 01       		.uleb128 0x1
 7152 14b6 9C       		.byte	0x9c
 7153 14b7 AF150000 		.4byte	0x15af
 7154 14bb 39       		.uleb128 0x39
 7155 14bc D4060000 		.4byte	.LASF89
 7156 14c0 01       		.byte	0x1
 7157 14c1 C301     		.2byte	0x1c3
 7158 14c3 2C       		.byte	0x2c
 7159 14c4 F9070000 		.4byte	0x7f9
 7160 14c8 01       		.uleb128 0x1
 7161 14c9 50       		.byte	0x50
 7162 14ca 19       		.uleb128 0x19
 7163 14cb BD040000 		.4byte	.LASF77
 7164 14cf 01       		.byte	0x1
 7165 14d0 C301     		.2byte	0x1c3
 7166 14d2 37       		.byte	0x37
 7167 14d3 A3050000 		.4byte	0x5a3
 7168 14d7 060D0000 		.4byte	.LLST72
 7169 14db 020D0000 		.4byte	.LVUS72
 7170 14df 25       		.uleb128 0x25
 7171 14e0 627000   		.ascii	"bp\000"
 7172 14e3 01       		.byte	0x1
 7173 14e4 C301     		.2byte	0x1c3
 7174 14e6 4B       		.byte	0x4b
 7175 14e7 B0050000 		.4byte	0x5b0
 7176 14eb 290D0000 		.4byte	.LLST73
 7177 14ef 250D0000 		.4byte	.LVUS73
 7178 14f3 19       		.uleb128 0x19
 7179 14f4 C4020000 		.4byte	.LASF90
 7180 14f8 01       		.byte	0x1
 7181 14f9 C401     		.2byte	0x1c4
 7182 14fb 1B       		.byte	0x1b
ARM GAS  /tmp/ccstZxWH.s 			page 127


 7183 14fc 2C000000 		.4byte	0x2c
 7184 1500 4E0D0000 		.4byte	.LLST74
 7185 1504 480D0000 		.4byte	.LVUS74
 7186 1508 25       		.uleb128 0x25
 7187 1509 6E00     		.ascii	"n\000"
 7188 150b 01       		.byte	0x1
 7189 150c C401     		.2byte	0x1c4
 7190 150e 28       		.byte	0x28
 7191 150f 2C000000 		.4byte	0x2c
 7192 1513 820D0000 		.4byte	.LLST75
 7193 1517 7E0D0000 		.4byte	.LVUS75
 7194 151b 19       		.uleb128 0x19
 7195 151c 13000000 		.4byte	.LASF106
 7196 1520 01       		.byte	0x1
 7197 1521 C401     		.2byte	0x1c4
 7198 1523 36       		.byte	0x36
 7199 1524 78060000 		.4byte	0x678
 7200 1528 A60D0000 		.4byte	.LLST76
 7201 152c A20D0000 		.4byte	.LVUS76
 7202 1530 19       		.uleb128 0x19
 7203 1531 09020000 		.4byte	.LASF85
 7204 1535 01       		.byte	0x1
 7205 1536 C401     		.2byte	0x1c4
 7206 1538 42       		.byte	0x42
 7207 1539 83000000 		.4byte	0x83
 7208 153d CA0D0000 		.4byte	.LLST77
 7209 1541 C60D0000 		.4byte	.LVUS77
 7210 1545 27       		.uleb128 0x27
 7211 1546 74050000 		.4byte	.LASF97
 7212 154a BF150000 		.4byte	0x15bf
 7213 154e 21       		.uleb128 0x21
 7214 154f 03230000 		.4byte	0x2303
 7215 1553 04000000 		.4byte	.LBI738
 7216 1557 00       		.byte	.LVU673
 7217 1558 08060000 		.4byte	.Ldebug_ranges0+0x608
 7218 155c 01       		.byte	0x1
 7219 155d C801     		.2byte	0x1c8
 7220 155f 03       		.byte	0x3
 7221 1560 1D       		.uleb128 0x1d
 7222 1561 11230000 		.4byte	0x2311
 7223 1565 EC0D0000 		.4byte	.LLST78
 7224 1569 EA0D0000 		.4byte	.LVUS78
 7225 156d 21       		.uleb128 0x21
 7226 156e 41230000 		.4byte	0x2341
 7227 1572 04000000 		.4byte	.LBI739
 7228 1576 02       		.byte	.LVU675
 7229 1577 10060000 		.4byte	.Ldebug_ranges0+0x610
 7230 157b 02       		.byte	0x2
 7231 157c F302     		.2byte	0x2f3
 7232 157e 03       		.byte	0x3
 7233 157f 1D       		.uleb128 0x1d
 7234 1580 4F230000 		.4byte	0x234f
 7235 1584 010E0000 		.4byte	.LLST79
 7236 1588 FF0D0000 		.4byte	.LVUS79
 7237 158c 21       		.uleb128 0x21
 7238 158d A2230000 		.4byte	0x23a2
 7239 1591 04000000 		.4byte	.LBI740
ARM GAS  /tmp/ccstZxWH.s 			page 128


 7240 1595 04       		.byte	.LVU677
 7241 1596 18060000 		.4byte	.Ldebug_ranges0+0x618
 7242 159a 03       		.byte	0x3
 7243 159b 9601     		.2byte	0x196
 7244 159d 03       		.byte	0x3
 7245 159e 1D       		.uleb128 0x1d
 7246 159f B0230000 		.4byte	0x23b0
 7247 15a3 160E0000 		.4byte	.LLST80
 7248 15a7 140E0000 		.4byte	.LVUS80
 7249 15ab 00       		.byte	0
 7250 15ac 00       		.byte	0
 7251 15ad 00       		.byte	0
 7252 15ae 00       		.byte	0
 7253 15af 0E       		.uleb128 0xe
 7254 15b0 8C000000 		.4byte	0x8c
 7255 15b4 BF150000 		.4byte	0x15bf
 7256 15b8 0F       		.uleb128 0xf
 7257 15b9 3D000000 		.4byte	0x3d
 7258 15bd 0D       		.byte	0xd
 7259 15be 00       		.byte	0
 7260 15bf 07       		.uleb128 0x7
 7261 15c0 AF150000 		.4byte	0x15af
 7262 15c4 23       		.uleb128 0x23
 7263 15c5 7D010000 		.4byte	.LASF107
 7264 15c9 01       		.byte	0x1
 7265 15ca 6601     		.2byte	0x166
 7266 15cc 08       		.byte	0x8
 7267 15cd 2C000000 		.4byte	0x2c
 7268 15d1 00000000 		.4byte	.LFB286
 7269 15d5 3E010000 		.4byte	.LFE286-.LFB286
 7270 15d9 01       		.uleb128 0x1
 7271 15da 9C       		.byte	0x9c
 7272 15db 921A0000 		.4byte	0x1a92
 7273 15df 19       		.uleb128 0x19
 7274 15e0 E0040000 		.4byte	.LASF108
 7275 15e4 01       		.byte	0x1
 7276 15e5 6601     		.2byte	0x166
 7277 15e7 2E       		.byte	0x2e
 7278 15e8 921A0000 		.4byte	0x1a92
 7279 15ec 3D0E0000 		.4byte	.LLST50
 7280 15f0 290E0000 		.4byte	.LVUS50
 7281 15f4 25       		.uleb128 0x25
 7282 15f5 627000   		.ascii	"bp\000"
 7283 15f8 01       		.byte	0x1
 7284 15f9 6601     		.2byte	0x166
 7285 15fb 3D       		.byte	0x3d
 7286 15fc B0050000 		.4byte	0x5b0
 7287 1600 B70E0000 		.4byte	.LLST51
 7288 1604 B30E0000 		.4byte	.LVUS51
 7289 1608 25       		.uleb128 0x25
 7290 1609 6E00     		.ascii	"n\000"
 7291 160b 01       		.byte	0x1
 7292 160c 6701     		.2byte	0x167
 7293 160e 1E       		.byte	0x1e
 7294 160f 2C000000 		.4byte	0x2c
 7295 1613 D90E0000 		.4byte	.LLST52
 7296 1617 D50E0000 		.4byte	.LVUS52
ARM GAS  /tmp/ccstZxWH.s 			page 129


 7297 161b 19       		.uleb128 0x19
 7298 161c A9020000 		.4byte	.LASF93
 7299 1620 01       		.byte	0x1
 7300 1621 6701     		.2byte	0x167
 7301 1623 2B       		.byte	0x2b
 7302 1624 25010000 		.4byte	0x125
 7303 1628 030F0000 		.4byte	.LLST53
 7304 162c F70E0000 		.4byte	.LVUS53
 7305 1630 26       		.uleb128 0x26
 7306 1631 7200     		.ascii	"r\000"
 7307 1633 01       		.byte	0x1
 7308 1634 6801     		.2byte	0x168
 7309 1636 0A       		.byte	0xa
 7310 1637 2C000000 		.4byte	0x2c
 7311 163b 510F0000 		.4byte	.LLST54
 7312 163f 4D0F0000 		.4byte	.LVUS54
 7313 1643 1B       		.uleb128 0x1b
 7314 1644 76070000 		.4byte	.LASF94
 7315 1648 01       		.byte	0x1
 7316 1649 6901     		.2byte	0x169
 7317 164b 0D       		.byte	0xd
 7318 164c 25010000 		.4byte	0x125
 7319 1650 720F0000 		.4byte	.LLST55
 7320 1654 700F0000 		.4byte	.LVUS55
 7321 1658 27       		.uleb128 0x27
 7322 1659 74050000 		.4byte	.LASF97
 7323 165d A81A0000 		.4byte	0x1aa8
 7324 1661 1A       		.uleb128 0x1a
 7325 1662 98030000 		.4byte	.Ldebug_ranges0+0x398
 7326 1666 EA190000 		.4byte	0x19ea
 7327 166a 1B       		.uleb128 0x1b
 7328 166b C4020000 		.4byte	.LASF90
 7329 166f 01       		.byte	0x1
 7330 1670 7301     		.2byte	0x173
 7331 1672 0C       		.byte	0xc
 7332 1673 2C000000 		.4byte	0x2c
 7333 1677 8B0F0000 		.4byte	.LLST57
 7334 167b 850F0000 		.4byte	.LVUS57
 7335 167f 1A       		.uleb128 0x1a
 7336 1680 18040000 		.4byte	.Ldebug_ranges0+0x418
 7337 1684 D5180000 		.4byte	0x18d5
 7338 1688 26       		.uleb128 0x26
 7339 1689 6D736700 		.ascii	"msg\000"
 7340 168d 01       		.byte	0x1
 7341 168e 7701     		.2byte	0x177
 7342 1690 0D       		.byte	0xd
 7343 1691 01010000 		.4byte	0x101
 7344 1695 B60F0000 		.4byte	.LLST58
 7345 1699 B40F0000 		.4byte	.LVUS58
 7346 169d 1A       		.uleb128 0x1a
 7347 169e 78040000 		.4byte	.Ldebug_ranges0+0x478
 7348 16a2 05180000 		.4byte	0x1805
 7349 16a6 1B       		.uleb128 0x1b
 7350 16a7 B6070000 		.4byte	.LASF95
 7351 16ab 01       		.byte	0x1
 7352 16ac 7F01     		.2byte	0x17f
 7353 16ae 13       		.byte	0x13
ARM GAS  /tmp/ccstZxWH.s 			page 130


 7354 16af 25010000 		.4byte	0x125
 7355 16b3 D20F0000 		.4byte	.LLST59
 7356 16b7 CA0F0000 		.4byte	.LVUS59
 7357 16bb 20       		.uleb128 0x20
 7358 16bc 1F230000 		.4byte	0x231f
 7359 16c0 94000000 		.4byte	.LBI619
 7360 16c4 01       		.byte	.LVU535
 7361 16c5 B8040000 		.4byte	.Ldebug_ranges0+0x4b8
 7362 16c9 01       		.byte	0x1
 7363 16ca 7F01     		.2byte	0x17f
 7364 16cc 2D       		.byte	0x2d
 7365 16cd 09170000 		.4byte	0x1709
 7366 16d1 21       		.uleb128 0x21
 7367 16d2 5D230000 		.4byte	0x235d
 7368 16d6 94000000 		.4byte	.LBI620
 7369 16da 03       		.byte	.LVU537
 7370 16db C0040000 		.4byte	.Ldebug_ranges0+0x4c0
 7371 16df 02       		.byte	0x2
 7372 16e0 6A02     		.2byte	0x26a
 7373 16e2 0A       		.byte	0xa
 7374 16e3 21       		.uleb128 0x21
 7375 16e4 BE230000 		.4byte	0x23be
 7376 16e8 94000000 		.4byte	.LBI621
 7377 16ec 05       		.byte	.LVU539
 7378 16ed C8040000 		.4byte	.Ldebug_ranges0+0x4c8
 7379 16f1 08       		.byte	0x8
 7380 16f2 8D01     		.2byte	0x18d
 7381 16f4 0A       		.byte	0xa
 7382 16f5 28       		.uleb128 0x28
 7383 16f6 CB230000 		.4byte	0x23cb
 7384 16fa 94000000 		.4byte	.LBI622
 7385 16fe 07       		.byte	.LVU541
 7386 16ff D0040000 		.4byte	.Ldebug_ranges0+0x4d0
 7387 1703 09       		.byte	0x9
 7388 1704 6B       		.byte	0x6b
 7389 1705 0A       		.byte	0xa
 7390 1706 00       		.byte	0
 7391 1707 00       		.byte	0
 7392 1708 00       		.byte	0
 7393 1709 29       		.uleb128 0x29
 7394 170a 461E0000 		.4byte	0x1e46
 7395 170e A6000000 		.4byte	.LBB635
 7396 1712 24000000 		.4byte	.LBE635-.LBB635
 7397 1716 01       		.byte	0x1
 7398 1717 8801     		.2byte	0x188
 7399 1719 0F       		.byte	0xf
 7400 171a A1170000 		.4byte	0x17a1
 7401 171e 2A       		.uleb128 0x2a
 7402 171f 631E0000 		.4byte	0x1e63
 7403 1723 2A       		.uleb128 0x2a
 7404 1724 571E0000 		.4byte	0x1e57
 7405 1728 2B       		.uleb128 0x2b
 7406 1729 781E0000 		.4byte	0x1e78
 7407 172d E8040000 		.4byte	.Ldebug_ranges0+0x4e8
 7408 1731 78170000 		.4byte	0x1778
 7409 1735 2C       		.uleb128 0x2c
 7410 1736 791E0000 		.4byte	0x1e79
ARM GAS  /tmp/ccstZxWH.s 			page 131


 7411 173a 08100000 		.4byte	.LLST60
 7412 173e 06100000 		.4byte	.LVUS60
 7413 1742 3B       		.uleb128 0x3b
 7414 1743 D6220000 		.4byte	0x22d6
 7415 1747 B4000000 		.4byte	.LBI638
 7416 174b 02       		.byte	.LVU556
 7417 174c 00050000 		.4byte	.Ldebug_ranges0+0x500
 7418 1750 01       		.byte	0x1
 7419 1751 E7       		.byte	0xe7
 7420 1752 11       		.byte	0x11
 7421 1753 1D       		.uleb128 0x1d
 7422 1754 F5220000 		.4byte	0x22f5
 7423 1758 21100000 		.4byte	.LLST61
 7424 175c 1B100000 		.4byte	.LVUS61
 7425 1760 1D       		.uleb128 0x1d
 7426 1761 E8220000 		.4byte	0x22e8
 7427 1765 50100000 		.4byte	.LLST62
 7428 1769 4A100000 		.4byte	.LVUS62
 7429 176d 2D       		.uleb128 0x2d
 7430 176e B0000000 		.4byte	.LVL84
 7431 1772 CF250000 		.4byte	0x25cf
 7432 1776 00       		.byte	0
 7433 1777 00       		.byte	0
 7434 1778 3C       		.uleb128 0x3c
 7435 1779 461E0000 		.4byte	0x1e46
 7436 177d BE000000 		.4byte	.LBI645
 7437 1781 00       		.byte	.LVU562
 7438 1782 BE000000 		.4byte	.LBB645
 7439 1786 0C000000 		.4byte	.LBE645-.LBB645
 7440 178a 01       		.byte	0x1
 7441 178b DE       		.byte	0xde
 7442 178c 09       		.byte	0x9
 7443 178d 2A       		.uleb128 0x2a
 7444 178e 631E0000 		.4byte	0x1e63
 7445 1792 1D       		.uleb128 0x1d
 7446 1793 571E0000 		.4byte	0x1e57
 7447 1797 7B100000 		.4byte	.LLST63
 7448 179b 79100000 		.4byte	.LVUS63
 7449 179f 00       		.byte	0
 7450 17a0 00       		.byte	0
 7451 17a1 21       		.uleb128 0x21
 7452 17a2 2D230000 		.4byte	0x232d
 7453 17a6 32010000 		.4byte	.LBI647
 7454 17aa 01       		.byte	.LVU649
 7455 17ab 98040000 		.4byte	.Ldebug_ranges0+0x498
 7456 17af 01       		.byte	0x1
 7457 17b0 8501     		.2byte	0x185
 7458 17b2 0B       		.byte	0xb
 7459 17b3 21       		.uleb128 0x21
 7460 17b4 6B230000 		.4byte	0x236b
 7461 17b8 32010000 		.4byte	.LBI648
 7462 17bc 03       		.byte	.LVU651
 7463 17bd A0040000 		.4byte	.Ldebug_ranges0+0x4a0
 7464 17c1 02       		.byte	0x2
 7465 17c2 F801     		.2byte	0x1f8
 7466 17c4 03       		.byte	0x3
 7467 17c5 22       		.uleb128 0x22
ARM GAS  /tmp/ccstZxWH.s 			page 132


 7468 17c6 A0040000 		.4byte	.Ldebug_ranges0+0x4a0
 7469 17ca 21       		.uleb128 0x21
 7470 17cb D8230000 		.4byte	0x23d8
 7471 17cf 32010000 		.4byte	.LBI650
 7472 17d3 0A       		.byte	.LVU658
 7473 17d4 A0040000 		.4byte	.Ldebug_ranges0+0x4a0
 7474 17d8 05       		.byte	0x5
 7475 17d9 8F01     		.2byte	0x18f
 7476 17db 03       		.byte	0x3
 7477 17dc 1C       		.uleb128 0x1c
 7478 17dd EC230000 		.4byte	0x23ec
 7479 17e1 32010000 		.4byte	.LBI651
 7480 17e5 0C       		.byte	.LVU660
 7481 17e6 32010000 		.4byte	.LBB651
 7482 17ea 04000000 		.4byte	.LBE651-.LBB651
 7483 17ee 06       		.byte	0x6
 7484 17ef 6D02     		.2byte	0x26d
 7485 17f1 03       		.byte	0x3
 7486 17f2 1D       		.uleb128 0x1d
 7487 17f3 FA230000 		.4byte	0x23fa
 7488 17f7 90100000 		.4byte	.LLST64
 7489 17fb 8E100000 		.4byte	.LVUS64
 7490 17ff 00       		.byte	0
 7491 1800 00       		.byte	0
 7492 1801 00       		.byte	0
 7493 1802 00       		.byte	0
 7494 1803 00       		.byte	0
 7495 1804 00       		.byte	0
 7496 1805 29       		.uleb128 0x29
 7497 1806 461E0000 		.4byte	0x1e46
 7498 180a 0C010000 		.4byte	.LBB661
 7499 180e 18000000 		.4byte	.LBE661-.LBB661
 7500 1812 01       		.byte	0x1
 7501 1813 7C01     		.2byte	0x17c
 7502 1815 0F       		.byte	0xf
 7503 1816 71180000 		.4byte	0x1871
 7504 181a 2A       		.uleb128 0x2a
 7505 181b 631E0000 		.4byte	0x1e63
 7506 181f 2A       		.uleb128 0x2a
 7507 1820 571E0000 		.4byte	0x1e57
 7508 1824 2E       		.uleb128 0x2e
 7509 1825 781E0000 		.4byte	0x1e78
 7510 1829 20050000 		.4byte	.Ldebug_ranges0+0x520
 7511 182d 2C       		.uleb128 0x2c
 7512 182e 791E0000 		.4byte	0x1e79
 7513 1832 A6100000 		.4byte	.LLST65
 7514 1836 A4100000 		.4byte	.LVUS65
 7515 183a 3B       		.uleb128 0x3b
 7516 183b D6220000 		.4byte	0x22d6
 7517 183f 18010000 		.4byte	.LBI664
 7518 1843 02       		.byte	.LVU621
 7519 1844 38050000 		.4byte	.Ldebug_ranges0+0x538
 7520 1848 01       		.byte	0x1
 7521 1849 E7       		.byte	0xe7
 7522 184a 11       		.byte	0x11
 7523 184b 1D       		.uleb128 0x1d
 7524 184c F5220000 		.4byte	0x22f5
ARM GAS  /tmp/ccstZxWH.s 			page 133


 7525 1850 C1100000 		.4byte	.LLST66
 7526 1854 B9100000 		.4byte	.LVUS66
 7527 1858 1D       		.uleb128 0x1d
 7528 1859 E8220000 		.4byte	0x22e8
 7529 185d FD100000 		.4byte	.LLST67
 7530 1861 F5100000 		.4byte	.LVUS67
 7531 1865 2D       		.uleb128 0x2d
 7532 1866 14010000 		.4byte	.LVL95
 7533 186a CF250000 		.4byte	0x25cf
 7534 186e 00       		.byte	0
 7535 186f 00       		.byte	0
 7536 1870 00       		.byte	0
 7537 1871 21       		.uleb128 0x21
 7538 1872 2D230000 		.4byte	0x232d
 7539 1876 24010000 		.4byte	.LBI671
 7540 187a 03       		.byte	.LVU631
 7541 187b 58050000 		.4byte	.Ldebug_ranges0+0x558
 7542 187f 01       		.byte	0x1
 7543 1880 8D01     		.2byte	0x18d
 7544 1882 09       		.byte	0x9
 7545 1883 21       		.uleb128 0x21
 7546 1884 6B230000 		.4byte	0x236b
 7547 1888 24010000 		.4byte	.LBI672
 7548 188c 05       		.byte	.LVU633
 7549 188d 60050000 		.4byte	.Ldebug_ranges0+0x560
 7550 1891 02       		.byte	0x2
 7551 1892 F801     		.2byte	0x1f8
 7552 1894 03       		.byte	0x3
 7553 1895 22       		.uleb128 0x22
 7554 1896 60050000 		.4byte	.Ldebug_ranges0+0x560
 7555 189a 21       		.uleb128 0x21
 7556 189b D8230000 		.4byte	0x23d8
 7557 189f 24010000 		.4byte	.LBI674
 7558 18a3 0C       		.byte	.LVU640
 7559 18a4 60050000 		.4byte	.Ldebug_ranges0+0x560
 7560 18a8 05       		.byte	0x5
 7561 18a9 8F01     		.2byte	0x18f
 7562 18ab 03       		.byte	0x3
 7563 18ac 1C       		.uleb128 0x1c
 7564 18ad EC230000 		.4byte	0x23ec
 7565 18b1 24010000 		.4byte	.LBI675
 7566 18b5 0E       		.byte	.LVU642
 7567 18b6 24010000 		.4byte	.LBB675
 7568 18ba 06000000 		.4byte	.LBE675-.LBB675
 7569 18be 06       		.byte	0x6
 7570 18bf 6D02     		.2byte	0x26d
 7571 18c1 03       		.byte	0x3
 7572 18c2 1D       		.uleb128 0x1d
 7573 18c3 FA230000 		.4byte	0x23fa
 7574 18c7 33110000 		.4byte	.LLST68
 7575 18cb 31110000 		.4byte	.LVUS68
 7576 18cf 00       		.byte	0
 7577 18d0 00       		.byte	0
 7578 18d1 00       		.byte	0
 7579 18d2 00       		.byte	0
 7580 18d3 00       		.byte	0
 7581 18d4 00       		.byte	0
ARM GAS  /tmp/ccstZxWH.s 			page 134


 7582 18d5 20       		.uleb128 0x20
 7583 18d6 011D0000 		.4byte	0x1d01
 7584 18da E4000000 		.4byte	.LBI685
 7585 18de 01       		.byte	.LVU590
 7586 18df 78050000 		.4byte	.Ldebug_ranges0+0x578
 7587 18e3 01       		.byte	0x1
 7588 18e4 AA01     		.2byte	0x1aa
 7589 18e6 07       		.byte	0x7
 7590 18e7 0B190000 		.4byte	0x190b
 7591 18eb 1D       		.uleb128 0x1d
 7592 18ec 0F1D0000 		.4byte	0x1d0f
 7593 18f0 49110000 		.4byte	.LLST69
 7594 18f4 47110000 		.4byte	.LVUS69
 7595 18f8 22       		.uleb128 0x22
 7596 18f9 78050000 		.4byte	.Ldebug_ranges0+0x578
 7597 18fd 1E       		.uleb128 0x1e
 7598 18fe 0A010000 		.4byte	.LVL93
 7599 1902 1F       		.uleb128 0x1f
 7600 1903 01       		.uleb128 0x1
 7601 1904 50       		.byte	0x50
 7602 1905 02       		.uleb128 0x2
 7603 1906 74       		.byte	0x74
 7604 1907 00       		.sleb128 0
 7605 1908 00       		.byte	0
 7606 1909 00       		.byte	0
 7607 190a 00       		.byte	0
 7608 190b 20       		.uleb128 0x20
 7609 190c 2D230000 		.4byte	0x232d
 7610 1910 7A000000 		.4byte	.LBI688
 7611 1914 01       		.byte	.LVU498
 7612 1915 90050000 		.4byte	.Ldebug_ranges0+0x590
 7613 1919 01       		.byte	0x1
 7614 191a AE01     		.2byte	0x1ae
 7615 191c 05       		.byte	0x5
 7616 191d 72190000 		.4byte	0x1972
 7617 1921 21       		.uleb128 0x21
 7618 1922 6B230000 		.4byte	0x236b
 7619 1926 7A000000 		.4byte	.LBI689
 7620 192a 03       		.byte	.LVU500
 7621 192b 98050000 		.4byte	.Ldebug_ranges0+0x598
 7622 192f 02       		.byte	0x2
 7623 1930 F801     		.2byte	0x1f8
 7624 1932 03       		.byte	0x3
 7625 1933 22       		.uleb128 0x22
 7626 1934 98050000 		.4byte	.Ldebug_ranges0+0x598
 7627 1938 21       		.uleb128 0x21
 7628 1939 D8230000 		.4byte	0x23d8
 7629 193d 7A000000 		.4byte	.LBI691
 7630 1941 0A       		.byte	.LVU507
 7631 1942 98050000 		.4byte	.Ldebug_ranges0+0x598
 7632 1946 05       		.byte	0x5
 7633 1947 8F01     		.2byte	0x18f
 7634 1949 03       		.byte	0x3
 7635 194a 1C       		.uleb128 0x1c
 7636 194b EC230000 		.4byte	0x23ec
 7637 194f 7A000000 		.4byte	.LBI692
 7638 1953 0C       		.byte	.LVU509
ARM GAS  /tmp/ccstZxWH.s 			page 135


 7639 1954 7A000000 		.4byte	.LBB692
 7640 1958 04000000 		.4byte	.LBE692-.LBB692
 7641 195c 06       		.byte	0x6
 7642 195d 6D02     		.2byte	0x26d
 7643 195f 03       		.byte	0x3
 7644 1960 1D       		.uleb128 0x1d
 7645 1961 FA230000 		.4byte	0x23fa
 7646 1965 5E110000 		.4byte	.LLST70
 7647 1969 5C110000 		.4byte	.LVUS70
 7648 196d 00       		.byte	0
 7649 196e 00       		.byte	0
 7650 196f 00       		.byte	0
 7651 1970 00       		.byte	0
 7652 1971 00       		.byte	0
 7653 1972 20       		.uleb128 0x20
 7654 1973 37230000 		.4byte	0x2337
 7655 1977 82000000 		.4byte	.LBI699
 7656 197b 01       		.byte	.LVU515
 7657 197c B0050000 		.4byte	.Ldebug_ranges0+0x5b0
 7658 1980 01       		.byte	0x1
 7659 1981 B201     		.2byte	0x1b2
 7660 1983 05       		.byte	0x5
 7661 1984 D3190000 		.4byte	0x19d3
 7662 1988 21       		.uleb128 0x21
 7663 1989 98230000 		.4byte	0x2398
 7664 198d 82000000 		.4byte	.LBI701
 7665 1991 03       		.byte	.LVU517
 7666 1992 D0050000 		.4byte	.Ldebug_ranges0+0x5d0
 7667 1996 02       		.byte	0x2
 7668 1997 ED01     		.2byte	0x1ed
 7669 1999 03       		.byte	0x3
 7670 199a 21       		.uleb128 0x21
 7671 199b E2230000 		.4byte	0x23e2
 7672 199f 82000000 		.4byte	.LBI702
 7673 19a3 05       		.byte	.LVU519
 7674 19a4 F0050000 		.4byte	.Ldebug_ranges0+0x5f0
 7675 19a8 05       		.byte	0x5
 7676 19a9 7801     		.2byte	0x178
 7677 19ab 03       		.byte	0x3
 7678 19ac 1C       		.uleb128 0x1c
 7679 19ad EC230000 		.4byte	0x23ec
 7680 19b1 82000000 		.4byte	.LBI703
 7681 19b5 07       		.byte	.LVU521
 7682 19b6 82000000 		.4byte	.LBB703
 7683 19ba 06000000 		.4byte	.LBE703-.LBB703
 7684 19be 06       		.byte	0x6
 7685 19bf 5A02     		.2byte	0x25a
 7686 19c1 03       		.byte	0x3
 7687 19c2 1D       		.uleb128 0x1d
 7688 19c3 FA230000 		.4byte	0x23fa
 7689 19c7 74110000 		.4byte	.LLST71
 7690 19cb 72110000 		.4byte	.LVUS71
 7691 19cf 00       		.byte	0
 7692 19d0 00       		.byte	0
 7693 19d1 00       		.byte	0
 7694 19d2 00       		.byte	0
 7695 19d3 2F       		.uleb128 0x2f
ARM GAS  /tmp/ccstZxWH.s 			page 136


 7696 19d4 D4000000 		.4byte	.LVL89
 7697 19d8 DC250000 		.4byte	0x25dc
 7698 19dc 1F       		.uleb128 0x1f
 7699 19dd 01       		.uleb128 0x1
 7700 19de 50       		.byte	0x50
 7701 19df 02       		.uleb128 0x2
 7702 19e0 76       		.byte	0x76
 7703 19e1 00       		.sleb128 0
 7704 19e2 1F       		.uleb128 0x1f
 7705 19e3 01       		.uleb128 0x1
 7706 19e4 52       		.byte	0x52
 7707 19e5 02       		.uleb128 0x2
 7708 19e6 7B       		.byte	0x7b
 7709 19e7 00       		.sleb128 0
 7710 19e8 00       		.byte	0
 7711 19e9 00       		.byte	0
 7712 19ea 20       		.uleb128 0x20
 7713 19eb 37230000 		.4byte	0x2337
 7714 19ef 00000000 		.4byte	.LBI585
 7715 19f3 07       		.byte	.LVU440
 7716 19f4 38030000 		.4byte	.Ldebug_ranges0+0x338
 7717 19f8 01       		.byte	0x1
 7718 19f9 6D01     		.2byte	0x16d
 7719 19fb 03       		.byte	0x3
 7720 19fc 471A0000 		.4byte	0x1a47
 7721 1a00 21       		.uleb128 0x21
 7722 1a01 98230000 		.4byte	0x2398
 7723 1a05 00000000 		.4byte	.LBI586
 7724 1a09 09       		.byte	.LVU442
 7725 1a0a 40030000 		.4byte	.Ldebug_ranges0+0x340
 7726 1a0e 02       		.byte	0x2
 7727 1a0f ED01     		.2byte	0x1ed
 7728 1a11 03       		.byte	0x3
 7729 1a12 21       		.uleb128 0x21
 7730 1a13 E2230000 		.4byte	0x23e2
 7731 1a17 00000000 		.4byte	.LBI587
 7732 1a1b 0B       		.byte	.LVU444
 7733 1a1c 48030000 		.4byte	.Ldebug_ranges0+0x348
 7734 1a20 05       		.byte	0x5
 7735 1a21 7801     		.2byte	0x178
 7736 1a23 03       		.byte	0x3
 7737 1a24 21       		.uleb128 0x21
 7738 1a25 EC230000 		.4byte	0x23ec
 7739 1a29 00000000 		.4byte	.LBI588
 7740 1a2d 0D       		.byte	.LVU446
 7741 1a2e 50030000 		.4byte	.Ldebug_ranges0+0x350
 7742 1a32 06       		.byte	0x6
 7743 1a33 5A02     		.2byte	0x25a
 7744 1a35 03       		.byte	0x3
 7745 1a36 1D       		.uleb128 0x1d
 7746 1a37 FA230000 		.4byte	0x23fa
 7747 1a3b 8B110000 		.4byte	.LLST56
 7748 1a3f 89110000 		.4byte	.LVUS56
 7749 1a43 00       		.byte	0
 7750 1a44 00       		.byte	0
 7751 1a45 00       		.byte	0
 7752 1a46 00       		.byte	0
ARM GAS  /tmp/ccstZxWH.s 			page 137


 7753 1a47 21       		.uleb128 0x21
 7754 1a48 1F230000 		.4byte	0x231f
 7755 1a4c 14000000 		.4byte	.LBI601
 7756 1a50 04       		.byte	.LVU456
 7757 1a51 68030000 		.4byte	.Ldebug_ranges0+0x368
 7758 1a55 01       		.byte	0x1
 7759 1a56 7001     		.2byte	0x170
 7760 1a58 0E       		.byte	0xe
 7761 1a59 21       		.uleb128 0x21
 7762 1a5a 5D230000 		.4byte	0x235d
 7763 1a5e 14000000 		.4byte	.LBI602
 7764 1a62 06       		.byte	.LVU458
 7765 1a63 70030000 		.4byte	.Ldebug_ranges0+0x370
 7766 1a67 02       		.byte	0x2
 7767 1a68 6A02     		.2byte	0x26a
 7768 1a6a 0A       		.byte	0xa
 7769 1a6b 21       		.uleb128 0x21
 7770 1a6c BE230000 		.4byte	0x23be
 7771 1a70 14000000 		.4byte	.LBI603
 7772 1a74 08       		.byte	.LVU460
 7773 1a75 78030000 		.4byte	.Ldebug_ranges0+0x378
 7774 1a79 08       		.byte	0x8
 7775 1a7a 8D01     		.2byte	0x18d
 7776 1a7c 0A       		.byte	0xa
 7777 1a7d 28       		.uleb128 0x28
 7778 1a7e CB230000 		.4byte	0x23cb
 7779 1a82 14000000 		.4byte	.LBI604
 7780 1a86 0A       		.byte	.LVU462
 7781 1a87 80030000 		.4byte	.Ldebug_ranges0+0x380
 7782 1a8b 09       		.byte	0x9
 7783 1a8c 6B       		.byte	0x6b
 7784 1a8d 0A       		.byte	0xa
 7785 1a8e 00       		.byte	0
 7786 1a8f 00       		.byte	0
 7787 1a90 00       		.byte	0
 7788 1a91 00       		.byte	0
 7789 1a92 08       		.uleb128 0x8
 7790 1a93 04       		.byte	0x4
 7791 1a94 9B060000 		.4byte	0x69b
 7792 1a98 0E       		.uleb128 0xe
 7793 1a99 8C000000 		.4byte	0x8c
 7794 1a9d A81A0000 		.4byte	0x1aa8
 7795 1aa1 0F       		.uleb128 0xf
 7796 1aa2 3D000000 		.4byte	0x3d
 7797 1aa6 0E       		.byte	0xe
 7798 1aa7 00       		.byte	0
 7799 1aa8 07       		.uleb128 0x7
 7800 1aa9 981A0000 		.4byte	0x1a98
 7801 1aad 23       		.uleb128 0x23
 7802 1aae 6F010000 		.4byte	.LASF109
 7803 1ab2 01       		.byte	0x1
 7804 1ab3 3501     		.2byte	0x135
 7805 1ab5 07       		.byte	0x7
 7806 1ab6 01010000 		.4byte	0x101
 7807 1aba 00000000 		.4byte	.LFB285
 7808 1abe 82000000 		.4byte	.LFE285-.LFB285
 7809 1ac2 01       		.uleb128 0x1
ARM GAS  /tmp/ccstZxWH.s 			page 138


 7810 1ac3 9C       		.byte	0x9c
 7811 1ac4 011D0000 		.4byte	0x1d01
 7812 1ac8 19       		.uleb128 0x19
 7813 1ac9 E0040000 		.4byte	.LASF108
 7814 1acd 01       		.byte	0x1
 7815 1ace 3501     		.2byte	0x135
 7816 1ad0 2C       		.byte	0x2c
 7817 1ad1 921A0000 		.4byte	0x1a92
 7818 1ad5 AE110000 		.4byte	.LLST38
 7819 1ad9 A0110000 		.4byte	.LVUS38
 7820 1add 19       		.uleb128 0x19
 7821 1ade A9020000 		.4byte	.LASF93
 7822 1ae2 01       		.byte	0x1
 7823 1ae3 3501     		.2byte	0x135
 7824 1ae5 3C       		.byte	0x3c
 7825 1ae6 25010000 		.4byte	0x125
 7826 1aea 11120000 		.4byte	.LLST39
 7827 1aee 03120000 		.4byte	.LVUS39
 7828 1af2 26       		.uleb128 0x26
 7829 1af3 6D736700 		.ascii	"msg\000"
 7830 1af7 01       		.byte	0x1
 7831 1af8 3601     		.2byte	0x136
 7832 1afa 09       		.byte	0x9
 7833 1afb 01010000 		.4byte	0x101
 7834 1aff 70120000 		.4byte	.LLST40
 7835 1b03 6C120000 		.4byte	.LVUS40
 7836 1b07 20       		.uleb128 0x20
 7837 1b08 37230000 		.4byte	0x2337
 7838 1b0c 06000000 		.4byte	.LBI455
 7839 1b10 02       		.byte	.LVU306
 7840 1b11 B8010000 		.4byte	.Ldebug_ranges0+0x1b8
 7841 1b15 01       		.byte	0x1
 7842 1b16 3801     		.2byte	0x138
 7843 1b18 03       		.byte	0x3
 7844 1b19 641B0000 		.4byte	0x1b64
 7845 1b1d 21       		.uleb128 0x21
 7846 1b1e 98230000 		.4byte	0x2398
 7847 1b22 06000000 		.4byte	.LBI456
 7848 1b26 04       		.byte	.LVU308
 7849 1b27 E8010000 		.4byte	.Ldebug_ranges0+0x1e8
 7850 1b2b 02       		.byte	0x2
 7851 1b2c ED01     		.2byte	0x1ed
 7852 1b2e 03       		.byte	0x3
 7853 1b2f 21       		.uleb128 0x21
 7854 1b30 E2230000 		.4byte	0x23e2
 7855 1b34 06000000 		.4byte	.LBI457
 7856 1b38 06       		.byte	.LVU310
 7857 1b39 10020000 		.4byte	.Ldebug_ranges0+0x210
 7858 1b3d 05       		.byte	0x5
 7859 1b3e 7801     		.2byte	0x178
 7860 1b40 03       		.byte	0x3
 7861 1b41 21       		.uleb128 0x21
 7862 1b42 EC230000 		.4byte	0x23ec
 7863 1b46 06000000 		.4byte	.LBI458
 7864 1b4a 08       		.byte	.LVU312
 7865 1b4b 30020000 		.4byte	.Ldebug_ranges0+0x230
 7866 1b4f 06       		.byte	0x6
ARM GAS  /tmp/ccstZxWH.s 			page 139


 7867 1b50 5A02     		.2byte	0x25a
 7868 1b52 03       		.byte	0x3
 7869 1b53 1D       		.uleb128 0x1d
 7870 1b54 FA230000 		.4byte	0x23fa
 7871 1b58 91120000 		.4byte	.LLST41
 7872 1b5c 8F120000 		.4byte	.LVUS41
 7873 1b60 00       		.byte	0
 7874 1b61 00       		.byte	0
 7875 1b62 00       		.byte	0
 7876 1b63 00       		.byte	0
 7877 1b64 20       		.uleb128 0x20
 7878 1b65 2D230000 		.4byte	0x232d
 7879 1b69 1A000000 		.4byte	.LBI471
 7880 1b6d 02       		.byte	.LVU329
 7881 1b6e 48020000 		.4byte	.Ldebug_ranges0+0x248
 7882 1b72 01       		.byte	0x1
 7883 1b73 3E01     		.2byte	0x13e
 7884 1b75 07       		.byte	0x7
 7885 1b76 C71B0000 		.4byte	0x1bc7
 7886 1b7a 21       		.uleb128 0x21
 7887 1b7b 6B230000 		.4byte	0x236b
 7888 1b7f 1A000000 		.4byte	.LBI472
 7889 1b83 04       		.byte	.LVU331
 7890 1b84 80020000 		.4byte	.Ldebug_ranges0+0x280
 7891 1b88 02       		.byte	0x2
 7892 1b89 F801     		.2byte	0x1f8
 7893 1b8b 03       		.byte	0x3
 7894 1b8c 22       		.uleb128 0x22
 7895 1b8d 80020000 		.4byte	.Ldebug_ranges0+0x280
 7896 1b91 21       		.uleb128 0x21
 7897 1b92 D8230000 		.4byte	0x23d8
 7898 1b96 1A000000 		.4byte	.LBI474
 7899 1b9a 0B       		.byte	.LVU338
 7900 1b9b 80020000 		.4byte	.Ldebug_ranges0+0x280
 7901 1b9f 05       		.byte	0x5
 7902 1ba0 8F01     		.2byte	0x18f
 7903 1ba2 03       		.byte	0x3
 7904 1ba3 21       		.uleb128 0x21
 7905 1ba4 EC230000 		.4byte	0x23ec
 7906 1ba8 1A000000 		.4byte	.LBI475
 7907 1bac 0D       		.byte	.LVU340
 7908 1bad A8020000 		.4byte	.Ldebug_ranges0+0x2a8
 7909 1bb1 06       		.byte	0x6
 7910 1bb2 6D02     		.2byte	0x26d
 7911 1bb4 03       		.byte	0x3
 7912 1bb5 1D       		.uleb128 0x1d
 7913 1bb6 FA230000 		.4byte	0x23fa
 7914 1bba AA120000 		.4byte	.LLST42
 7915 1bbe A6120000 		.4byte	.LVUS42
 7916 1bc2 00       		.byte	0
 7917 1bc3 00       		.byte	0
 7918 1bc4 00       		.byte	0
 7919 1bc5 00       		.byte	0
 7920 1bc6 00       		.byte	0
 7921 1bc7 33       		.uleb128 0x33
 7922 1bc8 011D0000 		.4byte	0x1d01
 7923 1bcc 24000000 		.4byte	.LBI490
ARM GAS  /tmp/ccstZxWH.s 			page 140


 7924 1bd0 01       		.byte	.LVU346
 7925 1bd1 24000000 		.4byte	.LBB490
 7926 1bd5 26000000 		.4byte	.LBE490-.LBB490
 7927 1bd9 01       		.byte	0x1
 7928 1bda 4A01     		.2byte	0x14a
 7929 1bdc 05       		.byte	0x5
 7930 1bdd FB1B0000 		.4byte	0x1bfb
 7931 1be1 1D       		.uleb128 0x1d
 7932 1be2 0F1D0000 		.4byte	0x1d0f
 7933 1be6 CE120000 		.4byte	.LLST43
 7934 1bea CA120000 		.4byte	.LVUS43
 7935 1bee 1E       		.uleb128 0x1e
 7936 1bef 4A000000 		.4byte	.LVL58
 7937 1bf3 1F       		.uleb128 0x1f
 7938 1bf4 01       		.uleb128 0x1
 7939 1bf5 50       		.byte	0x50
 7940 1bf6 02       		.uleb128 0x2
 7941 1bf7 74       		.byte	0x74
 7942 1bf8 00       		.sleb128 0
 7943 1bf9 00       		.byte	0
 7944 1bfa 00       		.byte	0
 7945 1bfb 20       		.uleb128 0x20
 7946 1bfc 2D230000 		.4byte	0x232d
 7947 1c00 4A000000 		.4byte	.LBI492
 7948 1c04 02       		.byte	.LVU373
 7949 1c05 C0020000 		.4byte	.Ldebug_ranges0+0x2c0
 7950 1c09 01       		.byte	0x1
 7951 1c0a 4D01     		.2byte	0x14d
 7952 1c0c 03       		.byte	0x3
 7953 1c0d 621C0000 		.4byte	0x1c62
 7954 1c11 21       		.uleb128 0x21
 7955 1c12 6B230000 		.4byte	0x236b
 7956 1c16 4A000000 		.4byte	.LBI493
 7957 1c1a 04       		.byte	.LVU375
 7958 1c1b C8020000 		.4byte	.Ldebug_ranges0+0x2c8
 7959 1c1f 02       		.byte	0x2
 7960 1c20 F801     		.2byte	0x1f8
 7961 1c22 03       		.byte	0x3
 7962 1c23 22       		.uleb128 0x22
 7963 1c24 C8020000 		.4byte	.Ldebug_ranges0+0x2c8
 7964 1c28 21       		.uleb128 0x21
 7965 1c29 D8230000 		.4byte	0x23d8
 7966 1c2d 4A000000 		.4byte	.LBI495
 7967 1c31 0B       		.byte	.LVU382
 7968 1c32 C8020000 		.4byte	.Ldebug_ranges0+0x2c8
 7969 1c36 05       		.byte	0x5
 7970 1c37 8F01     		.2byte	0x18f
 7971 1c39 03       		.byte	0x3
 7972 1c3a 1C       		.uleb128 0x1c
 7973 1c3b EC230000 		.4byte	0x23ec
 7974 1c3f 4A000000 		.4byte	.LBI496
 7975 1c43 0D       		.byte	.LVU384
 7976 1c44 4A000000 		.4byte	.LBB496
 7977 1c48 00000000 		.4byte	.LBE496-.LBB496
 7978 1c4c 06       		.byte	0x6
 7979 1c4d 6D02     		.2byte	0x26d
 7980 1c4f 03       		.byte	0x3
ARM GAS  /tmp/ccstZxWH.s 			page 141


 7981 1c50 1D       		.uleb128 0x1d
 7982 1c51 FA230000 		.4byte	0x23fa
 7983 1c55 EE120000 		.4byte	.LLST44
 7984 1c59 EC120000 		.4byte	.LVUS44
 7985 1c5d 00       		.byte	0
 7986 1c5e 00       		.byte	0
 7987 1c5f 00       		.byte	0
 7988 1c60 00       		.byte	0
 7989 1c61 00       		.byte	0
 7990 1c62 3D       		.uleb128 0x3d
 7991 1c63 461E0000 		.4byte	0x1e46
 7992 1c67 E0020000 		.4byte	.Ldebug_ranges0+0x2e0
 7993 1c6b 01       		.byte	0x1
 7994 1c6c 3C01     		.2byte	0x13c
 7995 1c6e 0B       		.byte	0xb
 7996 1c6f 2A       		.uleb128 0x2a
 7997 1c70 631E0000 		.4byte	0x1e63
 7998 1c74 2A       		.uleb128 0x2a
 7999 1c75 571E0000 		.4byte	0x1e57
 8000 1c79 22       		.uleb128 0x22
 8001 1c7a E0020000 		.4byte	.Ldebug_ranges0+0x2e0
 8002 1c7e 2B       		.uleb128 0x2b
 8003 1c7f 781E0000 		.4byte	0x1e78
 8004 1c83 F8020000 		.4byte	.Ldebug_ranges0+0x2f8
 8005 1c87 CE1C0000 		.4byte	0x1cce
 8006 1c8b 2C       		.uleb128 0x2c
 8007 1c8c 791E0000 		.4byte	0x1e79
 8008 1c90 04130000 		.4byte	.LLST45
 8009 1c94 02130000 		.4byte	.LVUS45
 8010 1c98 3B       		.uleb128 0x3b
 8011 1c99 D6220000 		.4byte	0x22d6
 8012 1c9d 64000000 		.4byte	.LBI509
 8013 1ca1 02       		.byte	.LVU413
 8014 1ca2 18030000 		.4byte	.Ldebug_ranges0+0x318
 8015 1ca6 01       		.byte	0x1
 8016 1ca7 E7       		.byte	0xe7
 8017 1ca8 11       		.byte	0x11
 8018 1ca9 1D       		.uleb128 0x1d
 8019 1caa F5220000 		.4byte	0x22f5
 8020 1cae 1F130000 		.4byte	.LLST46
 8021 1cb2 17130000 		.4byte	.LVUS46
 8022 1cb6 1D       		.uleb128 0x1d
 8023 1cb7 E8220000 		.4byte	0x22e8
 8024 1cbb 5B130000 		.4byte	.LLST47
 8025 1cbf 53130000 		.4byte	.LVUS47
 8026 1cc3 2D       		.uleb128 0x2d
 8027 1cc4 60000000 		.4byte	.LVL62
 8028 1cc8 CF250000 		.4byte	0x25cf
 8029 1ccc 00       		.byte	0
 8030 1ccd 00       		.byte	0
 8031 1cce 3C       		.uleb128 0x3c
 8032 1ccf 461E0000 		.4byte	0x1e46
 8033 1cd3 6E000000 		.4byte	.LBI516
 8034 1cd7 00       		.byte	.LVU419
 8035 1cd8 6E000000 		.4byte	.LBB516
 8036 1cdc 0C000000 		.4byte	.LBE516-.LBB516
 8037 1ce0 01       		.byte	0x1
ARM GAS  /tmp/ccstZxWH.s 			page 142


 8038 1ce1 DE       		.byte	0xde
 8039 1ce2 09       		.byte	0x9
 8040 1ce3 1D       		.uleb128 0x1d
 8041 1ce4 631E0000 		.4byte	0x1e63
 8042 1ce8 91130000 		.4byte	.LLST48
 8043 1cec 8F130000 		.4byte	.LVUS48
 8044 1cf0 1D       		.uleb128 0x1d
 8045 1cf1 571E0000 		.4byte	0x1e57
 8046 1cf5 A6130000 		.4byte	.LLST49
 8047 1cf9 A4130000 		.4byte	.LVUS49
 8048 1cfd 00       		.byte	0
 8049 1cfe 00       		.byte	0
 8050 1cff 00       		.byte	0
 8051 1d00 00       		.byte	0
 8052 1d01 31       		.uleb128 0x31
 8053 1d02 AE000000 		.4byte	.LASF111
 8054 1d06 01       		.byte	0x1
 8055 1d07 0D01     		.2byte	0x10d
 8056 1d09 08       		.byte	0x8
 8057 1d0a 01       		.byte	0x1
 8058 1d0b 261D0000 		.4byte	0x1d26
 8059 1d0f 32       		.uleb128 0x32
 8060 1d10 E0040000 		.4byte	.LASF108
 8061 1d14 01       		.byte	0x1
 8062 1d15 0D01     		.2byte	0x10d
 8063 1d17 36       		.byte	0x36
 8064 1d18 921A0000 		.4byte	0x1a92
 8065 1d1c 27       		.uleb128 0x27
 8066 1d1d 74050000 		.4byte	.LASF97
 8067 1d21 F3130000 		.4byte	0x13f3
 8068 1d25 00       		.byte	0
 8069 1d26 3E       		.uleb128 0x3e
 8070 1d27 0D070000 		.4byte	.LASF112
 8071 1d2b 01       		.byte	0x1
 8072 1d2c FE       		.byte	0xfe
 8073 1d2d 06       		.byte	0x6
 8074 1d2e 00000000 		.4byte	.LFB283
 8075 1d32 34000000 		.4byte	.LFE283-.LFB283
 8076 1d36 01       		.uleb128 0x1
 8077 1d37 9C       		.byte	0x9c
 8078 1d38 461E0000 		.4byte	0x1e46
 8079 1d3c 3F       		.uleb128 0x3f
 8080 1d3d E0040000 		.4byte	.LASF108
 8081 1d41 01       		.byte	0x1
 8082 1d42 FE       		.byte	0xfe
 8083 1d43 33       		.byte	0x33
 8084 1d44 921A0000 		.4byte	0x1a92
 8085 1d48 BD130000 		.4byte	.LLST33
 8086 1d4c B9130000 		.4byte	.LVUS33
 8087 1d50 20       		.uleb128 0x20
 8088 1d51 37230000 		.4byte	0x2337
 8089 1d55 00000000 		.4byte	.LBI397
 8090 1d59 02       		.byte	.LVU220
 8091 1d5a 68010000 		.4byte	.Ldebug_ranges0+0x168
 8092 1d5e 01       		.byte	0x1
 8093 1d5f 0001     		.2byte	0x100
 8094 1d61 03       		.byte	0x3
ARM GAS  /tmp/ccstZxWH.s 			page 143


 8095 1d62 AD1D0000 		.4byte	0x1dad
 8096 1d66 21       		.uleb128 0x21
 8097 1d67 98230000 		.4byte	0x2398
 8098 1d6b 00000000 		.4byte	.LBI398
 8099 1d6f 04       		.byte	.LVU222
 8100 1d70 70010000 		.4byte	.Ldebug_ranges0+0x170
 8101 1d74 02       		.byte	0x2
 8102 1d75 ED01     		.2byte	0x1ed
 8103 1d77 03       		.byte	0x3
 8104 1d78 21       		.uleb128 0x21
 8105 1d79 E2230000 		.4byte	0x23e2
 8106 1d7d 00000000 		.4byte	.LBI399
 8107 1d81 06       		.byte	.LVU224
 8108 1d82 78010000 		.4byte	.Ldebug_ranges0+0x178
 8109 1d86 05       		.byte	0x5
 8110 1d87 7801     		.2byte	0x178
 8111 1d89 03       		.byte	0x3
 8112 1d8a 21       		.uleb128 0x21
 8113 1d8b EC230000 		.4byte	0x23ec
 8114 1d8f 00000000 		.4byte	.LBI400
 8115 1d93 08       		.byte	.LVU226
 8116 1d94 80010000 		.4byte	.Ldebug_ranges0+0x180
 8117 1d98 06       		.byte	0x6
 8118 1d99 5A02     		.2byte	0x25a
 8119 1d9b 03       		.byte	0x3
 8120 1d9c 1D       		.uleb128 0x1d
 8121 1d9d FA230000 		.4byte	0x23fa
 8122 1da1 E0130000 		.4byte	.LLST34
 8123 1da5 DE130000 		.4byte	.LVUS34
 8124 1da9 00       		.byte	0
 8125 1daa 00       		.byte	0
 8126 1dab 00       		.byte	0
 8127 1dac 00       		.byte	0
 8128 1dad 33       		.uleb128 0x33
 8129 1dae 011D0000 		.4byte	0x1d01
 8130 1db2 08000000 		.4byte	.LBI413
 8131 1db6 04       		.byte	.LVU234
 8132 1db7 08000000 		.4byte	.LBB413
 8133 1dbb 24000000 		.4byte	.LBE413-.LBB413
 8134 1dbf 01       		.byte	0x1
 8135 1dc0 0101     		.2byte	0x101
 8136 1dc2 03       		.byte	0x3
 8137 1dc3 E21D0000 		.4byte	0x1de2
 8138 1dc7 1D       		.uleb128 0x1d
 8139 1dc8 0F1D0000 		.4byte	0x1d0f
 8140 1dcc F9130000 		.4byte	.LLST35
 8141 1dd0 F5130000 		.4byte	.LVUS35
 8142 1dd4 1E       		.uleb128 0x1e
 8143 1dd5 2C000000 		.4byte	.LVL45
 8144 1dd9 1F       		.uleb128 0x1f
 8145 1dda 01       		.uleb128 0x1
 8146 1ddb 50       		.byte	0x50
 8147 1ddc 03       		.uleb128 0x3
 8148 1ddd F3       		.byte	0xf3
 8149 1dde 01       		.uleb128 0x1
 8150 1ddf 50       		.byte	0x50
 8151 1de0 00       		.byte	0
ARM GAS  /tmp/ccstZxWH.s 			page 144


 8152 1de1 00       		.byte	0
 8153 1de2 21       		.uleb128 0x21
 8154 1de3 2D230000 		.4byte	0x232d
 8155 1de7 2C000000 		.4byte	.LBI415
 8156 1deb 02       		.byte	.LVU260
 8157 1dec 98010000 		.4byte	.Ldebug_ranges0+0x198
 8158 1df0 01       		.byte	0x1
 8159 1df1 0201     		.2byte	0x102
 8160 1df3 03       		.byte	0x3
 8161 1df4 21       		.uleb128 0x21
 8162 1df5 6B230000 		.4byte	0x236b
 8163 1df9 2C000000 		.4byte	.LBI416
 8164 1dfd 04       		.byte	.LVU262
 8165 1dfe A0010000 		.4byte	.Ldebug_ranges0+0x1a0
 8166 1e02 02       		.byte	0x2
 8167 1e03 F801     		.2byte	0x1f8
 8168 1e05 03       		.byte	0x3
 8169 1e06 22       		.uleb128 0x22
 8170 1e07 A0010000 		.4byte	.Ldebug_ranges0+0x1a0
 8171 1e0b 21       		.uleb128 0x21
 8172 1e0c D8230000 		.4byte	0x23d8
 8173 1e10 2C000000 		.4byte	.LBI418
 8174 1e14 0B       		.byte	.LVU269
 8175 1e15 A0010000 		.4byte	.Ldebug_ranges0+0x1a0
 8176 1e19 05       		.byte	0x5
 8177 1e1a 8F01     		.2byte	0x18f
 8178 1e1c 03       		.byte	0x3
 8179 1e1d 1C       		.uleb128 0x1c
 8180 1e1e EC230000 		.4byte	0x23ec
 8181 1e22 2C000000 		.4byte	.LBI419
 8182 1e26 0D       		.byte	.LVU271
 8183 1e27 2C000000 		.4byte	.LBB419
 8184 1e2b 06000000 		.4byte	.LBE419-.LBB419
 8185 1e2f 06       		.byte	0x6
 8186 1e30 6D02     		.2byte	0x26d
 8187 1e32 03       		.byte	0x3
 8188 1e33 1D       		.uleb128 0x1d
 8189 1e34 FA230000 		.4byte	0x23fa
 8190 1e38 1C140000 		.4byte	.LLST36
 8191 1e3c 1A140000 		.4byte	.LVUS36
 8192 1e40 00       		.byte	0
 8193 1e41 00       		.byte	0
 8194 1e42 00       		.byte	0
 8195 1e43 00       		.byte	0
 8196 1e44 00       		.byte	0
 8197 1e45 00       		.byte	0
 8198 1e46 40       		.uleb128 0x40
 8199 1e47 E7010000 		.4byte	.LASF114
 8200 1e4b 01       		.byte	0x1
 8201 1e4c DE       		.byte	0xde
 8202 1e4d 09       		.byte	0x9
 8203 1e4e 01010000 		.4byte	0x101
 8204 1e52 01       		.byte	0x1
 8205 1e53 871E0000 		.4byte	0x1e87
 8206 1e57 41       		.uleb128 0x41
 8207 1e58 E0040000 		.4byte	.LASF108
 8208 1e5c 01       		.byte	0x1
ARM GAS  /tmp/ccstZxWH.s 			page 145


 8209 1e5d DE       		.byte	0xde
 8210 1e5e 39       		.byte	0x39
 8211 1e5f 921A0000 		.4byte	0x1a92
 8212 1e63 41       		.uleb128 0x41
 8213 1e64 A9020000 		.4byte	.LASF93
 8214 1e68 01       		.byte	0x1
 8215 1e69 DF       		.byte	0xdf
 8216 1e6a 2C       		.byte	0x2c
 8217 1e6b 25010000 		.4byte	0x125
 8218 1e6f 27       		.uleb128 0x27
 8219 1e70 74050000 		.4byte	.LASF97
 8220 1e74 971E0000 		.4byte	0x1e97
 8221 1e78 35       		.uleb128 0x35
 8222 1e79 42       		.uleb128 0x42
 8223 1e7a 6D736700 		.ascii	"msg\000"
 8224 1e7e 01       		.byte	0x1
 8225 1e7f E7       		.byte	0xe7
 8226 1e80 0B       		.byte	0xb
 8227 1e81 01010000 		.4byte	0x101
 8228 1e85 00       		.byte	0
 8229 1e86 00       		.byte	0
 8230 1e87 0E       		.uleb128 0xe
 8231 1e88 8C000000 		.4byte	0x8c
 8232 1e8c 971E0000 		.4byte	0x1e97
 8233 1e90 0F       		.uleb128 0xf
 8234 1e91 3D000000 		.4byte	0x3d
 8235 1e95 18       		.byte	0x18
 8236 1e96 00       		.byte	0
 8237 1e97 07       		.uleb128 0x7
 8238 1e98 871E0000 		.4byte	0x1e87
 8239 1e9c 43       		.uleb128 0x43
 8240 1e9d 46050000 		.4byte	.LASF115
 8241 1ea1 01       		.byte	0x1
 8242 1ea2 BE       		.byte	0xbe
 8243 1ea3 07       		.byte	0x7
 8244 1ea4 01010000 		.4byte	0x101
 8245 1ea8 00000000 		.4byte	.LFB281
 8246 1eac 46000000 		.4byte	.LFE281-.LFB281
 8247 1eb0 01       		.uleb128 0x1
 8248 1eb1 9C       		.byte	0x9c
 8249 1eb2 63200000 		.4byte	0x2063
 8250 1eb6 3F       		.uleb128 0x3f
 8251 1eb7 E0040000 		.4byte	.LASF108
 8252 1ebb 01       		.byte	0x1
 8253 1ebc BE       		.byte	0xbe
 8254 1ebd 36       		.byte	0x36
 8255 1ebe 921A0000 		.4byte	0x1a92
 8256 1ec2 3C140000 		.4byte	.LLST14
 8257 1ec6 30140000 		.4byte	.LVUS14
 8258 1eca 3F       		.uleb128 0x3f
 8259 1ecb A9020000 		.4byte	.LASF93
 8260 1ecf 01       		.byte	0x1
 8261 1ed0 BF       		.byte	0xbf
 8262 1ed1 29       		.byte	0x29
 8263 1ed2 25010000 		.4byte	0x125
 8264 1ed6 90140000 		.4byte	.LLST15
 8265 1eda 86140000 		.4byte	.LVUS15
ARM GAS  /tmp/ccstZxWH.s 			page 146


 8266 1ede 44       		.uleb128 0x44
 8267 1edf 6D736700 		.ascii	"msg\000"
 8268 1ee3 01       		.byte	0x1
 8269 1ee4 C0       		.byte	0xc0
 8270 1ee5 09       		.byte	0x9
 8271 1ee6 01010000 		.4byte	0x101
 8272 1eea D3140000 		.4byte	.LLST16
 8273 1eee CF140000 		.4byte	.LVUS16
 8274 1ef2 45       		.uleb128 0x45
 8275 1ef3 37230000 		.4byte	0x2337
 8276 1ef7 04000000 		.4byte	.LBI309
 8277 1efb 02       		.byte	.LVU97
 8278 1efc 28000000 		.4byte	.Ldebug_ranges0+0x28
 8279 1f00 01       		.byte	0x1
 8280 1f01 C2       		.byte	0xc2
 8281 1f02 03       		.byte	0x3
 8282 1f03 4E1F0000 		.4byte	0x1f4e
 8283 1f07 21       		.uleb128 0x21
 8284 1f08 98230000 		.4byte	0x2398
 8285 1f0c 04000000 		.4byte	.LBI310
 8286 1f10 04       		.byte	.LVU99
 8287 1f11 30000000 		.4byte	.Ldebug_ranges0+0x30
 8288 1f15 02       		.byte	0x2
 8289 1f16 ED01     		.2byte	0x1ed
 8290 1f18 03       		.byte	0x3
 8291 1f19 21       		.uleb128 0x21
 8292 1f1a E2230000 		.4byte	0x23e2
 8293 1f1e 04000000 		.4byte	.LBI311
 8294 1f22 06       		.byte	.LVU101
 8295 1f23 38000000 		.4byte	.Ldebug_ranges0+0x38
 8296 1f27 05       		.byte	0x5
 8297 1f28 7801     		.2byte	0x178
 8298 1f2a 03       		.byte	0x3
 8299 1f2b 21       		.uleb128 0x21
 8300 1f2c EC230000 		.4byte	0x23ec
 8301 1f30 04000000 		.4byte	.LBI312
 8302 1f34 08       		.byte	.LVU103
 8303 1f35 40000000 		.4byte	.Ldebug_ranges0+0x40
 8304 1f39 06       		.byte	0x6
 8305 1f3a 5A02     		.2byte	0x25a
 8306 1f3c 03       		.byte	0x3
 8307 1f3d 1D       		.uleb128 0x1d
 8308 1f3e FA230000 		.4byte	0x23fa
 8309 1f42 F3140000 		.4byte	.LLST17
 8310 1f46 F1140000 		.4byte	.LVUS17
 8311 1f4a 00       		.byte	0
 8312 1f4b 00       		.byte	0
 8313 1f4c 00       		.byte	0
 8314 1f4d 00       		.byte	0
 8315 1f4e 45       		.uleb128 0x45
 8316 1f4f 461E0000 		.4byte	0x1e46
 8317 1f53 0C000000 		.4byte	.LBI325
 8318 1f57 04       		.byte	.LVU111
 8319 1f58 58000000 		.4byte	.Ldebug_ranges0+0x58
 8320 1f5c 01       		.byte	0x1
 8321 1f5d C3       		.byte	0xc3
 8322 1f5e 09       		.byte	0x9
ARM GAS  /tmp/ccstZxWH.s 			page 147


 8323 1f5f 04200000 		.4byte	0x2004
 8324 1f63 1D       		.uleb128 0x1d
 8325 1f64 631E0000 		.4byte	0x1e63
 8326 1f68 10150000 		.4byte	.LLST18
 8327 1f6c 08150000 		.4byte	.LVUS18
 8328 1f70 1D       		.uleb128 0x1d
 8329 1f71 571E0000 		.4byte	0x1e57
 8330 1f75 4C150000 		.4byte	.LLST19
 8331 1f79 44150000 		.4byte	.LVUS19
 8332 1f7d 22       		.uleb128 0x22
 8333 1f7e 58000000 		.4byte	.Ldebug_ranges0+0x58
 8334 1f82 2B       		.uleb128 0x2b
 8335 1f83 781E0000 		.4byte	0x1e78
 8336 1f87 70000000 		.4byte	.Ldebug_ranges0+0x70
 8337 1f8b D21F0000 		.4byte	0x1fd2
 8338 1f8f 2C       		.uleb128 0x2c
 8339 1f90 791E0000 		.4byte	0x1e79
 8340 1f94 82150000 		.4byte	.LLST20
 8341 1f98 80150000 		.4byte	.LVUS20
 8342 1f9c 3B       		.uleb128 0x3b
 8343 1f9d D6220000 		.4byte	0x22d6
 8344 1fa1 1A000000 		.4byte	.LBI328
 8345 1fa5 02       		.byte	.LVU123
 8346 1fa6 90000000 		.4byte	.Ldebug_ranges0+0x90
 8347 1faa 01       		.byte	0x1
 8348 1fab E7       		.byte	0xe7
 8349 1fac 11       		.byte	0x11
 8350 1fad 1D       		.uleb128 0x1d
 8351 1fae F5220000 		.4byte	0x22f5
 8352 1fb2 9F150000 		.4byte	.LLST21
 8353 1fb6 95150000 		.4byte	.LVUS21
 8354 1fba 1D       		.uleb128 0x1d
 8355 1fbb E8220000 		.4byte	0x22e8
 8356 1fbf EA150000 		.4byte	.LLST22
 8357 1fc3 DE150000 		.4byte	.LVUS22
 8358 1fc7 2D       		.uleb128 0x2d
 8359 1fc8 16000000 		.4byte	.LVL25
 8360 1fcc CF250000 		.4byte	0x25cf
 8361 1fd0 00       		.byte	0
 8362 1fd1 00       		.byte	0
 8363 1fd2 3C       		.uleb128 0x3c
 8364 1fd3 461E0000 		.4byte	0x1e46
 8365 1fd7 24000000 		.4byte	.LBI335
 8366 1fdb 00       		.byte	.LVU129
 8367 1fdc 24000000 		.4byte	.LBB335
 8368 1fe0 0E000000 		.4byte	.LBE335-.LBB335
 8369 1fe4 01       		.byte	0x1
 8370 1fe5 DE       		.byte	0xde
 8371 1fe6 09       		.byte	0x9
 8372 1fe7 1D       		.uleb128 0x1d
 8373 1fe8 631E0000 		.4byte	0x1e63
 8374 1fec 36160000 		.4byte	.LLST23
 8375 1ff0 34160000 		.4byte	.LVUS23
 8376 1ff4 1D       		.uleb128 0x1d
 8377 1ff5 571E0000 		.4byte	0x1e57
 8378 1ff9 4B160000 		.4byte	.LLST24
 8379 1ffd 49160000 		.4byte	.LVUS24
ARM GAS  /tmp/ccstZxWH.s 			page 148


 8380 2001 00       		.byte	0
 8381 2002 00       		.byte	0
 8382 2003 00       		.byte	0
 8383 2004 3B       		.uleb128 0x3b
 8384 2005 2D230000 		.4byte	0x232d
 8385 2009 32000000 		.4byte	.LBI339
 8386 200d 02       		.byte	.LVU143
 8387 200e B0000000 		.4byte	.Ldebug_ranges0+0xb0
 8388 2012 01       		.byte	0x1
 8389 2013 C4       		.byte	0xc4
 8390 2014 03       		.byte	0x3
 8391 2015 21       		.uleb128 0x21
 8392 2016 6B230000 		.4byte	0x236b
 8393 201a 32000000 		.4byte	.LBI340
 8394 201e 04       		.byte	.LVU145
 8395 201f E8000000 		.4byte	.Ldebug_ranges0+0xe8
 8396 2023 02       		.byte	0x2
 8397 2024 F801     		.2byte	0x1f8
 8398 2026 03       		.byte	0x3
 8399 2027 22       		.uleb128 0x22
 8400 2028 E8000000 		.4byte	.Ldebug_ranges0+0xe8
 8401 202c 21       		.uleb128 0x21
 8402 202d D8230000 		.4byte	0x23d8
 8403 2031 32000000 		.4byte	.LBI342
 8404 2035 0B       		.byte	.LVU152
 8405 2036 E8000000 		.4byte	.Ldebug_ranges0+0xe8
 8406 203a 05       		.byte	0x5
 8407 203b 8F01     		.2byte	0x18f
 8408 203d 03       		.byte	0x3
 8409 203e 21       		.uleb128 0x21
 8410 203f EC230000 		.4byte	0x23ec
 8411 2043 32000000 		.4byte	.LBI343
 8412 2047 0D       		.byte	.LVU154
 8413 2048 10010000 		.4byte	.Ldebug_ranges0+0x110
 8414 204c 06       		.byte	0x6
 8415 204d 6D02     		.2byte	0x26d
 8416 204f 03       		.byte	0x3
 8417 2050 1D       		.uleb128 0x1d
 8418 2051 FA230000 		.4byte	0x23fa
 8419 2055 62160000 		.4byte	.LLST25
 8420 2059 5E160000 		.4byte	.LVUS25
 8421 205d 00       		.byte	0
 8422 205e 00       		.byte	0
 8423 205f 00       		.byte	0
 8424 2060 00       		.byte	0
 8425 2061 00       		.byte	0
 8426 2062 00       		.byte	0
 8427 2063 3E       		.uleb128 0x3e
 8428 2064 AA040000 		.4byte	.LASF116
 8429 2068 01       		.byte	0x1
 8430 2069 94       		.byte	0x94
 8431 206a 06       		.byte	0x6
 8432 206b 00000000 		.4byte	.LFB280
 8433 206f 28000000 		.4byte	.LFE280-.LFB280
 8434 2073 01       		.uleb128 0x1
 8435 2074 9C       		.byte	0x9c
 8436 2075 EA200000 		.4byte	0x20ea
ARM GAS  /tmp/ccstZxWH.s 			page 149


 8437 2079 3F       		.uleb128 0x3f
 8438 207a E0040000 		.4byte	.LASF108
 8439 207e 01       		.byte	0x1
 8440 207f 94       		.byte	0x94
 8441 2080 30       		.byte	0x30
 8442 2081 921A0000 		.4byte	0x1a92
 8443 2085 86160000 		.4byte	.LLST11
 8444 2089 82160000 		.4byte	.LVUS11
 8445 208d 3F       		.uleb128 0x3f
 8446 208e C4020000 		.4byte	.LASF90
 8447 2092 01       		.byte	0x1
 8448 2093 94       		.byte	0x94
 8449 2094 3D       		.byte	0x3d
 8450 2095 2C000000 		.4byte	0x2c
 8451 2099 AF160000 		.4byte	.LLST12
 8452 209d A7160000 		.4byte	.LVUS12
 8453 20a1 27       		.uleb128 0x27
 8454 20a2 74050000 		.4byte	.LASF97
 8455 20a6 FA0F0000 		.4byte	0xffa
 8456 20aa 3C       		.uleb128 0x3c
 8457 20ab AD220000 		.4byte	0x22ad
 8458 20af 22000000 		.4byte	.LBI286
 8459 20b3 01       		.byte	.LVU89
 8460 20b4 22000000 		.4byte	.LBB286
 8461 20b8 06000000 		.4byte	.LBE286-.LBB286
 8462 20bc 01       		.byte	0x1
 8463 20bd A6       		.byte	0xa6
 8464 20be 03       		.byte	0x3
 8465 20bf 37       		.uleb128 0x37
 8466 20c0 C8220000 		.4byte	0x22c8
 8467 20c4 00       		.byte	0
 8468 20c5 1D       		.uleb128 0x1d
 8469 20c6 BB220000 		.4byte	0x22bb
 8470 20ca ED160000 		.4byte	.LLST13
 8471 20ce E9160000 		.4byte	.LVUS13
 8472 20d2 38       		.uleb128 0x38
 8473 20d3 28000000 		.4byte	.LVL20
 8474 20d7 E7250000 		.4byte	0x25e7
 8475 20db 1F       		.uleb128 0x1f
 8476 20dc 01       		.uleb128 0x1
 8477 20dd 50       		.byte	0x50
 8478 20de 03       		.uleb128 0x3
 8479 20df F3       		.byte	0xf3
 8480 20e0 01       		.uleb128 0x1
 8481 20e1 50       		.byte	0x50
 8482 20e2 1F       		.uleb128 0x1f
 8483 20e3 01       		.uleb128 0x1
 8484 20e4 51       		.byte	0x51
 8485 20e5 01       		.uleb128 0x1
 8486 20e6 30       		.byte	0x30
 8487 20e7 00       		.byte	0
 8488 20e8 00       		.byte	0
 8489 20e9 00       		.byte	0
 8490 20ea 43       		.uleb128 0x43
 8491 20eb 00000000 		.4byte	.LASF117
 8492 20ef 01       		.byte	0x1
 8493 20f0 81       		.byte	0x81
ARM GAS  /tmp/ccstZxWH.s 			page 150


 8494 20f1 0A       		.byte	0xa
 8495 20f2 B0050000 		.4byte	0x5b0
 8496 20f6 00000000 		.4byte	.LFB279
 8497 20fa 16000000 		.4byte	.LFE279-.LFB279
 8498 20fe 01       		.uleb128 0x1
 8499 20ff 9C       		.byte	0x9c
 8500 2100 19210000 		.4byte	0x2119
 8501 2104 3F       		.uleb128 0x3f
 8502 2105 E0040000 		.4byte	.LASF108
 8503 2109 01       		.byte	0x1
 8504 210a 81       		.byte	0x81
 8505 210b 34       		.byte	0x34
 8506 210c 921A0000 		.4byte	0x1a92
 8507 2110 16170000 		.4byte	.LLST10
 8508 2114 0E170000 		.4byte	.LVUS10
 8509 2118 00       		.byte	0
 8510 2119 3E       		.uleb128 0x3e
 8511 211a 3C050000 		.4byte	.LASF118
 8512 211e 01       		.byte	0x1
 8513 211f 6B       		.byte	0x6b
 8514 2120 06       		.byte	0x6
 8515 2121 00000000 		.4byte	.LFB278
 8516 2125 16000000 		.4byte	.LFE278-.LFB278
 8517 2129 01       		.uleb128 0x1
 8518 212a 9C       		.byte	0x9c
 8519 212b 7C210000 		.4byte	0x217c
 8520 212f 3F       		.uleb128 0x3f
 8521 2130 E0040000 		.4byte	.LASF108
 8522 2134 01       		.byte	0x1
 8523 2135 6B       		.byte	0x6b
 8524 2136 27       		.byte	0x27
 8525 2137 921A0000 		.4byte	0x1a92
 8526 213b 54170000 		.4byte	.LLST9
 8527 213f 50170000 		.4byte	.LVUS9
 8528 2143 3C       		.uleb128 0x3c
 8529 2144 7E220000 		.4byte	0x227e
 8530 2148 0E000000 		.4byte	.LBI284
 8531 214c 03       		.byte	.LVU48
 8532 214d 0E000000 		.4byte	.LBB284
 8533 2151 08000000 		.4byte	.LBE284-.LBB284
 8534 2155 01       		.byte	0x1
 8535 2156 74       		.byte	0x74
 8536 2157 03       		.byte	0x3
 8537 2158 3A       		.uleb128 0x3a
 8538 2159 99220000 		.4byte	0x2299
 8539 215d 7E       		.sleb128 -2
 8540 215e 2A       		.uleb128 0x2a
 8541 215f 8C220000 		.4byte	0x228c
 8542 2163 38       		.uleb128 0x38
 8543 2164 16000000 		.4byte	.LVL10
 8544 2168 F4250000 		.4byte	0x25f4
 8545 216c 1F       		.uleb128 0x1f
 8546 216d 01       		.uleb128 0x1
 8547 216e 50       		.byte	0x50
 8548 216f 03       		.uleb128 0x3
 8549 2170 F3       		.byte	0xf3
 8550 2171 01       		.uleb128 0x1
ARM GAS  /tmp/ccstZxWH.s 			page 151


 8551 2172 50       		.byte	0x50
 8552 2173 1F       		.uleb128 0x1f
 8553 2174 01       		.uleb128 0x1
 8554 2175 51       		.byte	0x51
 8555 2176 02       		.uleb128 0x2
 8556 2177 09       		.byte	0x9
 8557 2178 FE       		.byte	0xfe
 8558 2179 00       		.byte	0
 8559 217a 00       		.byte	0
 8560 217b 00       		.byte	0
 8561 217c 3E       		.uleb128 0x3e
 8562 217d EF000000 		.4byte	.LASF119
 8563 2181 01       		.byte	0x1
 8564 2182 4C       		.byte	0x4c
 8565 2183 06       		.byte	0x6
 8566 2184 00000000 		.4byte	.LFB277
 8567 2188 30000000 		.4byte	.LFE277-.LFB277
 8568 218c 01       		.uleb128 0x1
 8569 218d 9C       		.byte	0x9c
 8570 218e 7E220000 		.4byte	0x227e
 8571 2192 46       		.uleb128 0x46
 8572 2193 E0040000 		.4byte	.LASF108
 8573 2197 01       		.byte	0x1
 8574 2198 4C       		.byte	0x4c
 8575 2199 2B       		.byte	0x2b
 8576 219a 921A0000 		.4byte	0x1a92
 8577 219e 01       		.uleb128 0x1
 8578 219f 50       		.byte	0x50
 8579 21a0 3F       		.uleb128 0x3f
 8580 21a1 BD040000 		.4byte	.LASF77
 8581 21a5 01       		.byte	0x1
 8582 21a6 4C       		.byte	0x4c
 8583 21a7 36       		.byte	0x36
 8584 21a8 A3050000 		.4byte	0x5a3
 8585 21ac 79170000 		.4byte	.LLST0
 8586 21b0 75170000 		.4byte	.LVUS0
 8587 21b4 47       		.uleb128 0x47
 8588 21b5 627000   		.ascii	"bp\000"
 8589 21b8 01       		.byte	0x1
 8590 21b9 4C       		.byte	0x4c
 8591 21ba 4A       		.byte	0x4a
 8592 21bb B0050000 		.4byte	0x5b0
 8593 21bf 9C170000 		.4byte	.LLST1
 8594 21c3 98170000 		.4byte	.LVUS1
 8595 21c7 3F       		.uleb128 0x3f
 8596 21c8 C4020000 		.4byte	.LASF90
 8597 21cc 01       		.byte	0x1
 8598 21cd 4D       		.byte	0x4d
 8599 21ce 1B       		.byte	0x1b
 8600 21cf 2C000000 		.4byte	0x2c
 8601 21d3 C1170000 		.4byte	.LLST2
 8602 21d7 BB170000 		.4byte	.LVUS2
 8603 21db 47       		.uleb128 0x47
 8604 21dc 6E00     		.ascii	"n\000"
 8605 21de 01       		.byte	0x1
 8606 21df 4D       		.byte	0x4d
 8607 21e0 28       		.byte	0x28
ARM GAS  /tmp/ccstZxWH.s 			page 152


 8608 21e1 2C000000 		.4byte	0x2c
 8609 21e5 F5170000 		.4byte	.LLST3
 8610 21e9 F1170000 		.4byte	.LVUS3
 8611 21ed 3F       		.uleb128 0x3f
 8612 21ee 6F050000 		.4byte	.LASF120
 8613 21f2 01       		.byte	0x1
 8614 21f3 4D       		.byte	0x4d
 8615 21f4 36       		.byte	0x36
 8616 21f5 78060000 		.4byte	0x678
 8617 21f9 19180000 		.4byte	.LLST4
 8618 21fd 15180000 		.4byte	.LVUS4
 8619 2201 3F       		.uleb128 0x3f
 8620 2202 09020000 		.4byte	.LASF85
 8621 2206 01       		.byte	0x1
 8622 2207 4D       		.byte	0x4d
 8623 2208 42       		.byte	0x42
 8624 2209 83000000 		.4byte	0x83
 8625 220d 3D180000 		.4byte	.LLST5
 8626 2211 39180000 		.4byte	.LVUS5
 8627 2215 27       		.uleb128 0x27
 8628 2216 74050000 		.4byte	.LASF97
 8629 221a BF150000 		.4byte	0x15bf
 8630 221e 3B       		.uleb128 0x3b
 8631 221f 03230000 		.4byte	0x2303
 8632 2223 04000000 		.4byte	.LBI273
 8633 2227 00       		.byte	.LVU7
 8634 2228 00000000 		.4byte	.Ldebug_ranges0+0
 8635 222c 01       		.byte	0x1
 8636 222d 51       		.byte	0x51
 8637 222e 03       		.byte	0x3
 8638 222f 1D       		.uleb128 0x1d
 8639 2230 11230000 		.4byte	0x2311
 8640 2234 5F180000 		.4byte	.LLST6
 8641 2238 5D180000 		.4byte	.LVUS6
 8642 223c 21       		.uleb128 0x21
 8643 223d 41230000 		.4byte	0x2341
 8644 2241 04000000 		.4byte	.LBI274
 8645 2245 02       		.byte	.LVU9
 8646 2246 08000000 		.4byte	.Ldebug_ranges0+0x8
 8647 224a 02       		.byte	0x2
 8648 224b F302     		.2byte	0x2f3
 8649 224d 03       		.byte	0x3
 8650 224e 1D       		.uleb128 0x1d
 8651 224f 4F230000 		.4byte	0x234f
 8652 2253 74180000 		.4byte	.LLST7
 8653 2257 72180000 		.4byte	.LVUS7
 8654 225b 21       		.uleb128 0x21
 8655 225c A2230000 		.4byte	0x23a2
 8656 2260 04000000 		.4byte	.LBI275
 8657 2264 04       		.byte	.LVU11
 8658 2265 10000000 		.4byte	.Ldebug_ranges0+0x10
 8659 2269 03       		.byte	0x3
 8660 226a 9601     		.2byte	0x196
 8661 226c 03       		.byte	0x3
 8662 226d 1D       		.uleb128 0x1d
 8663 226e B0230000 		.4byte	0x23b0
 8664 2272 89180000 		.4byte	.LLST8
ARM GAS  /tmp/ccstZxWH.s 			page 153


 8665 2276 87180000 		.4byte	.LVUS8
 8666 227a 00       		.byte	0
 8667 227b 00       		.byte	0
 8668 227c 00       		.byte	0
 8669 227d 00       		.byte	0
 8670 227e 48       		.uleb128 0x48
 8671 227f 28070000 		.4byte	.LASF121
 8672 2283 02       		.byte	0x2
 8673 2284 2803     		.2byte	0x328
 8674 2286 14       		.byte	0x14
 8675 2287 03       		.byte	0x3
 8676 2288 A7220000 		.4byte	0x22a7
 8677 228c 49       		.uleb128 0x49
 8678 228d 74717000 		.ascii	"tqp\000"
 8679 2291 02       		.byte	0x2
 8680 2292 2803     		.2byte	0x328
 8681 2294 3B       		.byte	0x3b
 8682 2295 A7220000 		.4byte	0x22a7
 8683 2299 49       		.uleb128 0x49
 8684 229a 6D736700 		.ascii	"msg\000"
 8685 229e 02       		.byte	0x2
 8686 229f 2803     		.2byte	0x328
 8687 22a1 46       		.byte	0x46
 8688 22a2 01010000 		.4byte	0x101
 8689 22a6 00       		.byte	0
 8690 22a7 08       		.uleb128 0x8
 8691 22a8 04       		.byte	0x4
 8692 22a9 66020000 		.4byte	0x266
 8693 22ad 48       		.uleb128 0x48
 8694 22ae 47010000 		.4byte	.LASF122
 8695 22b2 02       		.byte	0x2
 8696 22b3 1B03     		.2byte	0x31b
 8697 22b5 14       		.byte	0x14
 8698 22b6 03       		.byte	0x3
 8699 22b7 D6220000 		.4byte	0x22d6
 8700 22bb 49       		.uleb128 0x49
 8701 22bc 74717000 		.ascii	"tqp\000"
 8702 22c0 02       		.byte	0x2
 8703 22c1 1B03     		.2byte	0x31b
 8704 22c3 3C       		.byte	0x3c
 8705 22c4 A7220000 		.4byte	0x22a7
 8706 22c8 49       		.uleb128 0x49
 8707 22c9 6D736700 		.ascii	"msg\000"
 8708 22cd 02       		.byte	0x2
 8709 22ce 1B03     		.2byte	0x31b
 8710 22d0 47       		.byte	0x47
 8711 22d1 01010000 		.4byte	0x101
 8712 22d5 00       		.byte	0
 8713 22d6 4A       		.uleb128 0x4a
 8714 22d7 11030000 		.4byte	.LASF145
 8715 22db 02       		.byte	0x2
 8716 22dc 0D03     		.2byte	0x30d
 8717 22de 15       		.byte	0x15
 8718 22df 01010000 		.4byte	0x101
 8719 22e3 03       		.byte	0x3
 8720 22e4 03230000 		.4byte	0x2303
 8721 22e8 49       		.uleb128 0x49
ARM GAS  /tmp/ccstZxWH.s 			page 154


 8722 22e9 74717000 		.ascii	"tqp\000"
 8723 22ed 02       		.byte	0x2
 8724 22ee 0D03     		.2byte	0x30d
 8725 22f0 40       		.byte	0x40
 8726 22f1 A7220000 		.4byte	0x22a7
 8727 22f5 32       		.uleb128 0x32
 8728 22f6 D6040000 		.4byte	.LASF123
 8729 22fa 02       		.byte	0x2
 8730 22fb 0E03     		.2byte	0x30e
 8731 22fd 39       		.byte	0x39
 8732 22fe 25010000 		.4byte	0x125
 8733 2302 00       		.byte	0
 8734 2303 48       		.uleb128 0x48
 8735 2304 65060000 		.4byte	.LASF124
 8736 2308 02       		.byte	0x2
 8737 2309 F102     		.2byte	0x2f1
 8738 230b 14       		.byte	0x14
 8739 230c 03       		.byte	0x3
 8740 230d 1F230000 		.4byte	0x231f
 8741 2311 49       		.uleb128 0x49
 8742 2312 74717000 		.ascii	"tqp\000"
 8743 2316 02       		.byte	0x2
 8744 2317 F102     		.2byte	0x2f1
 8745 2319 3F       		.byte	0x3f
 8746 231a A7220000 		.4byte	0x22a7
 8747 231e 00       		.byte	0
 8748 231f 4B       		.uleb128 0x4b
 8749 2320 4D070000 		.4byte	.LASF128
 8750 2324 02       		.byte	0x2
 8751 2325 6802     		.2byte	0x268
 8752 2327 19       		.byte	0x19
 8753 2328 25010000 		.4byte	0x125
 8754 232c 03       		.byte	0x3
 8755 232d 4C       		.uleb128 0x4c
 8756 232e 97050000 		.4byte	.LASF125
 8757 2332 02       		.byte	0x2
 8758 2333 F601     		.2byte	0x1f6
 8759 2335 14       		.byte	0x14
 8760 2336 03       		.byte	0x3
 8761 2337 4C       		.uleb128 0x4c
 8762 2338 33020000 		.4byte	.LASF126
 8763 233c 02       		.byte	0x2
 8764 233d EB01     		.2byte	0x1eb
 8765 233f 14       		.byte	0x14
 8766 2340 03       		.byte	0x3
 8767 2341 48       		.uleb128 0x48
 8768 2342 8B030000 		.4byte	.LASF127
 8769 2346 03       		.byte	0x3
 8770 2347 9401     		.2byte	0x194
 8771 2349 14       		.byte	0x14
 8772 234a 03       		.byte	0x3
 8773 234b 5D230000 		.4byte	0x235d
 8774 234f 49       		.uleb128 0x49
 8775 2350 74717000 		.ascii	"tqp\000"
 8776 2354 03       		.byte	0x3
 8777 2355 9401     		.2byte	0x194
 8778 2357 3A       		.byte	0x3a
ARM GAS  /tmp/ccstZxWH.s 			page 155


 8779 2358 A7220000 		.4byte	0x22a7
 8780 235c 00       		.byte	0
 8781 235d 4B       		.uleb128 0x4b
 8782 235e 7C020000 		.4byte	.LASF129
 8783 2362 08       		.byte	0x8
 8784 2363 8801     		.2byte	0x188
 8785 2365 19       		.byte	0x19
 8786 2366 25010000 		.4byte	0x125
 8787 236a 03       		.byte	0x3
 8788 236b 48       		.uleb128 0x48
 8789 236c 6A070000 		.4byte	.LASF130
 8790 2370 05       		.byte	0x5
 8791 2371 8201     		.2byte	0x182
 8792 2373 14       		.byte	0x14
 8793 2374 03       		.byte	0x3
 8794 2375 83230000 		.4byte	0x2383
 8795 2379 27       		.uleb128 0x27
 8796 237a 74050000 		.4byte	.LASF97
 8797 237e 93230000 		.4byte	0x2393
 8798 2382 00       		.byte	0
 8799 2383 0E       		.uleb128 0xe
 8800 2384 8C000000 		.4byte	0x8c
 8801 2388 93230000 		.4byte	0x2393
 8802 238c 0F       		.uleb128 0xf
 8803 238d 3D000000 		.4byte	0x3d
 8804 2391 0B       		.byte	0xb
 8805 2392 00       		.byte	0
 8806 2393 07       		.uleb128 0x7
 8807 2394 83230000 		.4byte	0x2383
 8808 2398 4C       		.uleb128 0x4c
 8809 2399 7D050000 		.4byte	.LASF131
 8810 239d 05       		.byte	0x5
 8811 239e 7601     		.2byte	0x176
 8812 23a0 14       		.byte	0x14
 8813 23a1 03       		.byte	0x3
 8814 23a2 48       		.uleb128 0x48
 8815 23a3 79000000 		.4byte	.LASF132
 8816 23a7 04       		.byte	0x4
 8817 23a8 2402     		.2byte	0x224
 8818 23aa 14       		.byte	0x14
 8819 23ab 03       		.byte	0x3
 8820 23ac BE230000 		.4byte	0x23be
 8821 23b0 49       		.uleb128 0x49
 8822 23b1 74717000 		.ascii	"tqp\000"
 8823 23b5 04       		.byte	0x4
 8824 23b6 2402     		.2byte	0x224
 8825 23b8 30       		.byte	0x30
 8826 23b9 A7220000 		.4byte	0x22a7
 8827 23bd 00       		.byte	0
 8828 23be 4D       		.uleb128 0x4d
 8829 23bf 7F060000 		.4byte	.LASF133
 8830 23c3 09       		.byte	0x9
 8831 23c4 69       		.byte	0x69
 8832 23c5 19       		.byte	0x19
 8833 23c6 25010000 		.4byte	0x125
 8834 23ca 03       		.byte	0x3
 8835 23cb 4D       		.uleb128 0x4d
ARM GAS  /tmp/ccstZxWH.s 			page 156


 8836 23cc B2050000 		.4byte	.LASF134
 8837 23d0 0A       		.byte	0xa
 8838 23d1 8B       		.byte	0x8b
 8839 23d2 19       		.byte	0x19
 8840 23d3 25010000 		.4byte	0x125
 8841 23d7 03       		.byte	0x3
 8842 23d8 4C       		.uleb128 0x4c
 8843 23d9 8C010000 		.4byte	.LASF135
 8844 23dd 06       		.byte	0x6
 8845 23de 6A02     		.2byte	0x26a
 8846 23e0 14       		.byte	0x14
 8847 23e1 03       		.byte	0x3
 8848 23e2 4C       		.uleb128 0x4c
 8849 23e3 84000000 		.4byte	.LASF136
 8850 23e7 06       		.byte	0x6
 8851 23e8 5202     		.2byte	0x252
 8852 23ea 14       		.byte	0x14
 8853 23eb 03       		.byte	0x3
 8854 23ec 48       		.uleb128 0x48
 8855 23ed C8030000 		.4byte	.LASF137
 8856 23f1 07       		.byte	0x7
 8857 23f2 0601     		.2byte	0x106
 8858 23f4 39       		.byte	0x39
 8859 23f5 03       		.byte	0x3
 8860 23f6 08240000 		.4byte	0x2408
 8861 23fa 32       		.uleb128 0x32
 8862 23fb 5A020000 		.4byte	.LASF138
 8863 23ff 07       		.byte	0x7
 8864 2400 0601     		.2byte	0x106
 8865 2402 50       		.byte	0x50
 8866 2403 B4000000 		.4byte	0xb4
 8867 2407 00       		.byte	0
 8868 2408 4E       		.uleb128 0x4e
 8869 2409 461E0000 		.4byte	0x1e46
 8870 240d 00000000 		.4byte	.LFB282
 8871 2411 34000000 		.4byte	.LFE282-.LFB282
 8872 2415 01       		.uleb128 0x1
 8873 2416 9C       		.byte	0x9c
 8874 2417 B6240000 		.4byte	0x24b6
 8875 241b 1D       		.uleb128 0x1d
 8876 241c 571E0000 		.4byte	0x1e57
 8877 2420 A8180000 		.4byte	.LLST26
 8878 2424 9C180000 		.4byte	.LVUS26
 8879 2428 1D       		.uleb128 0x1d
 8880 2429 631E0000 		.4byte	0x1e63
 8881 242d FC180000 		.4byte	.LLST27
 8882 2431 F2180000 		.4byte	.LVUS27
 8883 2435 2B       		.uleb128 0x2b
 8884 2436 781E0000 		.4byte	0x1e78
 8885 243a 28010000 		.4byte	.Ldebug_ranges0+0x128
 8886 243e 85240000 		.4byte	0x2485
 8887 2442 2C       		.uleb128 0x2c
 8888 2443 791E0000 		.4byte	0x1e79
 8889 2447 3D190000 		.4byte	.LLST28
 8890 244b 3B190000 		.4byte	.LVUS28
 8891 244f 3B       		.uleb128 0x3b
 8892 2450 D6220000 		.4byte	0x22d6
ARM GAS  /tmp/ccstZxWH.s 			page 157


 8893 2454 14000000 		.4byte	.LBI374
 8894 2458 02       		.byte	.LVU194
 8895 2459 48010000 		.4byte	.Ldebug_ranges0+0x148
 8896 245d 01       		.byte	0x1
 8897 245e E7       		.byte	0xe7
 8898 245f 11       		.byte	0x11
 8899 2460 1D       		.uleb128 0x1d
 8900 2461 F5220000 		.4byte	0x22f5
 8901 2465 5A190000 		.4byte	.LLST29
 8902 2469 50190000 		.4byte	.LVUS29
 8903 246d 1D       		.uleb128 0x1d
 8904 246e E8220000 		.4byte	0x22e8
 8905 2472 A5190000 		.4byte	.LLST30
 8906 2476 99190000 		.4byte	.LVUS30
 8907 247a 2D       		.uleb128 0x2d
 8908 247b 10000000 		.4byte	.LVL36
 8909 247f CF250000 		.4byte	0x25cf
 8910 2483 00       		.byte	0
 8911 2484 00       		.byte	0
 8912 2485 3C       		.uleb128 0x3c
 8913 2486 461E0000 		.4byte	0x1e46
 8914 248a 1E000000 		.4byte	.LBI381
 8915 248e 00       		.byte	.LVU200
 8916 248f 1E000000 		.4byte	.LBB381
 8917 2493 0E000000 		.4byte	.LBE381-.LBB381
 8918 2497 01       		.byte	0x1
 8919 2498 DE       		.byte	0xde
 8920 2499 09       		.byte	0x9
 8921 249a 1D       		.uleb128 0x1d
 8922 249b 631E0000 		.4byte	0x1e63
 8923 249f F1190000 		.4byte	.LLST31
 8924 24a3 EF190000 		.4byte	.LVUS31
 8925 24a7 1D       		.uleb128 0x1d
 8926 24a8 571E0000 		.4byte	0x1e57
 8927 24ac 061A0000 		.4byte	.LLST32
 8928 24b0 041A0000 		.4byte	.LVUS32
 8929 24b4 00       		.byte	0
 8930 24b5 00       		.byte	0
 8931 24b6 4E       		.uleb128 0x4e
 8932 24b7 011D0000 		.4byte	0x1d01
 8933 24bb 00000000 		.4byte	.LFB284
 8934 24bf 26000000 		.4byte	.LFE284-.LFB284
 8935 24c3 01       		.uleb128 0x1
 8936 24c4 9C       		.byte	0x9c
 8937 24c5 E4240000 		.4byte	0x24e4
 8938 24c9 1D       		.uleb128 0x1d
 8939 24ca 0F1D0000 		.4byte	0x1d0f
 8940 24ce 1F1A0000 		.4byte	.LLST37
 8941 24d2 191A0000 		.4byte	.LVUS37
 8942 24d6 4F       		.uleb128 0x4f
 8943 24d7 24000000 		.4byte	.LVL48
 8944 24db 1F       		.uleb128 0x1f
 8945 24dc 01       		.uleb128 0x1
 8946 24dd 50       		.byte	0x50
 8947 24de 03       		.uleb128 0x3
 8948 24df F3       		.byte	0xf3
 8949 24e0 01       		.uleb128 0x1
ARM GAS  /tmp/ccstZxWH.s 			page 158


 8950 24e1 50       		.byte	0x50
 8951 24e2 00       		.byte	0
 8952 24e3 00       		.byte	0
 8953 24e4 4E       		.uleb128 0x4e
 8954 24e5 43110000 		.4byte	0x1143
 8955 24e9 00000000 		.4byte	.LFB292
 8956 24ed 34000000 		.4byte	.LFE292-.LFB292
 8957 24f1 01       		.uleb128 0x1
 8958 24f2 9C       		.byte	0x9c
 8959 24f3 94250000 		.4byte	0x2594
 8960 24f7 1D       		.uleb128 0x1d
 8961 24f8 55110000 		.4byte	0x1155
 8962 24fc 571A0000 		.4byte	.LLST97
 8963 2500 4B1A0000 		.4byte	.LVUS97
 8964 2504 1D       		.uleb128 0x1d
 8965 2505 62110000 		.4byte	0x1162
 8966 2509 AB1A0000 		.4byte	.LLST98
 8967 250d A11A0000 		.4byte	.LVUS98
 8968 2511 2B       		.uleb128 0x2b
 8969 2512 78110000 		.4byte	0x1178
 8970 2516 30070000 		.4byte	.Ldebug_ranges0+0x730
 8971 251a 62250000 		.4byte	0x2562
 8972 251e 2C       		.uleb128 0x2c
 8973 251f 79110000 		.4byte	0x1179
 8974 2523 EC1A0000 		.4byte	.LLST99
 8975 2527 EA1A0000 		.4byte	.LVUS99
 8976 252b 21       		.uleb128 0x21
 8977 252c D6220000 		.4byte	0x22d6
 8978 2530 14000000 		.4byte	.LBI839
 8979 2534 02       		.byte	.LVU856
 8980 2535 50070000 		.4byte	.Ldebug_ranges0+0x750
 8981 2539 01       		.byte	0x1
 8982 253a 5D02     		.2byte	0x25d
 8983 253c 11       		.byte	0x11
 8984 253d 1D       		.uleb128 0x1d
 8985 253e F5220000 		.4byte	0x22f5
 8986 2542 0B1B0000 		.4byte	.LLST100
 8987 2546 FF1A0000 		.4byte	.LVUS100
 8988 254a 1D       		.uleb128 0x1d
 8989 254b E8220000 		.4byte	0x22e8
 8990 254f 611B0000 		.4byte	.LLST101
 8991 2553 551B0000 		.4byte	.LVUS101
 8992 2557 2D       		.uleb128 0x2d
 8993 2558 10000000 		.4byte	.LVL136
 8994 255c CF250000 		.4byte	0x25cf
 8995 2560 00       		.byte	0
 8996 2561 00       		.byte	0
 8997 2562 1C       		.uleb128 0x1c
 8998 2563 43110000 		.4byte	0x1143
 8999 2567 1E000000 		.4byte	.LBI846
 9000 256b 00       		.byte	.LVU862
 9001 256c 1E000000 		.4byte	.LBB846
 9002 2570 0E000000 		.4byte	.LBE846-.LBB846
 9003 2574 01       		.byte	0x1
 9004 2575 5402     		.2byte	0x254
 9005 2577 07       		.byte	0x7
 9006 2578 1D       		.uleb128 0x1d
ARM GAS  /tmp/ccstZxWH.s 			page 159


 9007 2579 62110000 		.4byte	0x1162
 9008 257d AF1B0000 		.4byte	.LLST102
 9009 2581 AB1B0000 		.4byte	.LVUS102
 9010 2585 1D       		.uleb128 0x1d
 9011 2586 55110000 		.4byte	0x1155
 9012 258a CF1B0000 		.4byte	.LLST103
 9013 258e CD1B0000 		.4byte	.LVUS103
 9014 2592 00       		.byte	0
 9015 2593 00       		.byte	0
 9016 2594 4E       		.uleb128 0x4e
 9017 2595 B80F0000 		.4byte	0xfb8
 9018 2599 00000000 		.4byte	.LFB294
 9019 259d 2C000000 		.4byte	.LFE294-.LFB294
 9020 25a1 01       		.uleb128 0x1
 9021 25a2 9C       		.byte	0x9c
 9022 25a3 CF250000 		.4byte	0x25cf
 9023 25a7 1D       		.uleb128 0x1d
 9024 25a8 C60F0000 		.4byte	0xfc6
 9025 25ac E81B0000 		.4byte	.LLST110
 9026 25b0 E21B0000 		.4byte	.LVUS110
 9027 25b4 1D       		.uleb128 0x1d
 9028 25b5 D30F0000 		.4byte	0xfd3
 9029 25b9 1C1C0000 		.4byte	.LLST111
 9030 25bd 141C0000 		.4byte	.LVUS111
 9031 25c1 4F       		.uleb128 0x4f
 9032 25c2 28000000 		.4byte	.LVL155
 9033 25c6 1F       		.uleb128 0x1f
 9034 25c7 01       		.uleb128 0x1
 9035 25c8 50       		.byte	0x50
 9036 25c9 03       		.uleb128 0x3
 9037 25ca F3       		.byte	0xf3
 9038 25cb 01       		.uleb128 0x1
 9039 25cc 50       		.byte	0x50
 9040 25cd 00       		.byte	0
 9041 25ce 00       		.byte	0
 9042 25cf 50       		.uleb128 0x50
 9043 25d0 A1070000 		.4byte	.LASF139
 9044 25d4 A1070000 		.4byte	.LASF139
 9045 25d8 03       		.byte	0x3
 9046 25d9 0601     		.2byte	0x106
 9047 25db 09       		.byte	0x9
 9048 25dc 51       		.uleb128 0x51
 9049 25dd C7010000 		.4byte	.LASF146
 9050 25e1 00030000 		.4byte	.LASF147
 9051 25e5 14       		.byte	0x14
 9052 25e6 00       		.byte	0
 9053 25e7 50       		.uleb128 0x50
 9054 25e8 45000000 		.4byte	.LASF140
 9055 25ec 45000000 		.4byte	.LASF140
 9056 25f0 03       		.byte	0x3
 9057 25f1 0701     		.2byte	0x107
 9058 25f3 08       		.byte	0x8
 9059 25f4 50       		.uleb128 0x50
 9060 25f5 34000000 		.4byte	.LASF141
 9061 25f9 34000000 		.4byte	.LASF141
 9062 25fd 03       		.byte	0x3
 9063 25fe 0801     		.2byte	0x108
ARM GAS  /tmp/ccstZxWH.s 			page 160


 9064 2600 08       		.byte	0x8
 9065 2601 00       		.byte	0
 9066              		.section	.debug_abbrev,"",%progbits
 9067              	.Ldebug_abbrev0:
 9068 0000 01       		.uleb128 0x1
 9069 0001 11       		.uleb128 0x11
 9070 0002 01       		.byte	0x1
 9071 0003 25       		.uleb128 0x25
 9072 0004 0E       		.uleb128 0xe
 9073 0005 13       		.uleb128 0x13
 9074 0006 0B       		.uleb128 0xb
 9075 0007 03       		.uleb128 0x3
 9076 0008 0E       		.uleb128 0xe
 9077 0009 1B       		.uleb128 0x1b
 9078 000a 0E       		.uleb128 0xe
 9079 000b 55       		.uleb128 0x55
 9080 000c 17       		.uleb128 0x17
 9081 000d 11       		.uleb128 0x11
 9082 000e 01       		.uleb128 0x1
 9083 000f 10       		.uleb128 0x10
 9084 0010 17       		.uleb128 0x17
 9085 0011 00       		.byte	0
 9086 0012 00       		.byte	0
 9087 0013 02       		.uleb128 0x2
 9088 0014 24       		.uleb128 0x24
 9089 0015 00       		.byte	0
 9090 0016 0B       		.uleb128 0xb
 9091 0017 0B       		.uleb128 0xb
 9092 0018 3E       		.uleb128 0x3e
 9093 0019 0B       		.uleb128 0xb
 9094 001a 03       		.uleb128 0x3
 9095 001b 08       		.uleb128 0x8
 9096 001c 00       		.byte	0
 9097 001d 00       		.byte	0
 9098 001e 03       		.uleb128 0x3
 9099 001f 16       		.uleb128 0x16
 9100 0020 00       		.byte	0
 9101 0021 03       		.uleb128 0x3
 9102 0022 0E       		.uleb128 0xe
 9103 0023 3A       		.uleb128 0x3a
 9104 0024 0B       		.uleb128 0xb
 9105 0025 3B       		.uleb128 0x3b
 9106 0026 0B       		.uleb128 0xb
 9107 0027 39       		.uleb128 0x39
 9108 0028 0B       		.uleb128 0xb
 9109 0029 49       		.uleb128 0x49
 9110 002a 13       		.uleb128 0x13
 9111 002b 00       		.byte	0
 9112 002c 00       		.byte	0
 9113 002d 04       		.uleb128 0x4
 9114 002e 35       		.uleb128 0x35
 9115 002f 00       		.byte	0
 9116 0030 49       		.uleb128 0x49
 9117 0031 13       		.uleb128 0x13
 9118 0032 00       		.byte	0
 9119 0033 00       		.byte	0
 9120 0034 05       		.uleb128 0x5
ARM GAS  /tmp/ccstZxWH.s 			page 161


 9121 0035 24       		.uleb128 0x24
 9122 0036 00       		.byte	0
 9123 0037 0B       		.uleb128 0xb
 9124 0038 0B       		.uleb128 0xb
 9125 0039 3E       		.uleb128 0x3e
 9126 003a 0B       		.uleb128 0xb
 9127 003b 03       		.uleb128 0x3
 9128 003c 0E       		.uleb128 0xe
 9129 003d 00       		.byte	0
 9130 003e 00       		.byte	0
 9131 003f 06       		.uleb128 0x6
 9132 0040 0F       		.uleb128 0xf
 9133 0041 00       		.byte	0
 9134 0042 0B       		.uleb128 0xb
 9135 0043 0B       		.uleb128 0xb
 9136 0044 00       		.byte	0
 9137 0045 00       		.byte	0
 9138 0046 07       		.uleb128 0x7
 9139 0047 26       		.uleb128 0x26
 9140 0048 00       		.byte	0
 9141 0049 49       		.uleb128 0x49
 9142 004a 13       		.uleb128 0x13
 9143 004b 00       		.byte	0
 9144 004c 00       		.byte	0
 9145 004d 08       		.uleb128 0x8
 9146 004e 0F       		.uleb128 0xf
 9147 004f 00       		.byte	0
 9148 0050 0B       		.uleb128 0xb
 9149 0051 0B       		.uleb128 0xb
 9150 0052 49       		.uleb128 0x49
 9151 0053 13       		.uleb128 0x13
 9152 0054 00       		.byte	0
 9153 0055 00       		.byte	0
 9154 0056 09       		.uleb128 0x9
 9155 0057 13       		.uleb128 0x13
 9156 0058 01       		.byte	0x1
 9157 0059 03       		.uleb128 0x3
 9158 005a 0E       		.uleb128 0xe
 9159 005b 0B       		.uleb128 0xb
 9160 005c 0B       		.uleb128 0xb
 9161 005d 3A       		.uleb128 0x3a
 9162 005e 0B       		.uleb128 0xb
 9163 005f 3B       		.uleb128 0x3b
 9164 0060 0B       		.uleb128 0xb
 9165 0061 39       		.uleb128 0x39
 9166 0062 0B       		.uleb128 0xb
 9167 0063 01       		.uleb128 0x1
 9168 0064 13       		.uleb128 0x13
 9169 0065 00       		.byte	0
 9170 0066 00       		.byte	0
 9171 0067 0A       		.uleb128 0xa
 9172 0068 0D       		.uleb128 0xd
 9173 0069 00       		.byte	0
 9174 006a 03       		.uleb128 0x3
 9175 006b 0E       		.uleb128 0xe
 9176 006c 3A       		.uleb128 0x3a
 9177 006d 0B       		.uleb128 0xb
ARM GAS  /tmp/ccstZxWH.s 			page 162


 9178 006e 3B       		.uleb128 0x3b
 9179 006f 0B       		.uleb128 0xb
 9180 0070 39       		.uleb128 0x39
 9181 0071 0B       		.uleb128 0xb
 9182 0072 49       		.uleb128 0x49
 9183 0073 13       		.uleb128 0x13
 9184 0074 38       		.uleb128 0x38
 9185 0075 0B       		.uleb128 0xb
 9186 0076 00       		.byte	0
 9187 0077 00       		.byte	0
 9188 0078 0B       		.uleb128 0xb
 9189 0079 0D       		.uleb128 0xd
 9190 007a 00       		.byte	0
 9191 007b 03       		.uleb128 0x3
 9192 007c 08       		.uleb128 0x8
 9193 007d 3A       		.uleb128 0x3a
 9194 007e 0B       		.uleb128 0xb
 9195 007f 3B       		.uleb128 0x3b
 9196 0080 0B       		.uleb128 0xb
 9197 0081 39       		.uleb128 0x39
 9198 0082 0B       		.uleb128 0xb
 9199 0083 49       		.uleb128 0x49
 9200 0084 13       		.uleb128 0x13
 9201 0085 38       		.uleb128 0x38
 9202 0086 0B       		.uleb128 0xb
 9203 0087 00       		.byte	0
 9204 0088 00       		.byte	0
 9205 0089 0C       		.uleb128 0xc
 9206 008a 0D       		.uleb128 0xd
 9207 008b 00       		.byte	0
 9208 008c 03       		.uleb128 0x3
 9209 008d 08       		.uleb128 0x8
 9210 008e 3A       		.uleb128 0x3a
 9211 008f 0B       		.uleb128 0xb
 9212 0090 3B       		.uleb128 0x3b
 9213 0091 05       		.uleb128 0x5
 9214 0092 39       		.uleb128 0x39
 9215 0093 0B       		.uleb128 0xb
 9216 0094 49       		.uleb128 0x49
 9217 0095 13       		.uleb128 0x13
 9218 0096 38       		.uleb128 0x38
 9219 0097 0B       		.uleb128 0xb
 9220 0098 00       		.byte	0
 9221 0099 00       		.byte	0
 9222 009a 0D       		.uleb128 0xd
 9223 009b 0D       		.uleb128 0xd
 9224 009c 00       		.byte	0
 9225 009d 03       		.uleb128 0x3
 9226 009e 0E       		.uleb128 0xe
 9227 009f 3A       		.uleb128 0x3a
 9228 00a0 0B       		.uleb128 0xb
 9229 00a1 3B       		.uleb128 0x3b
 9230 00a2 05       		.uleb128 0x5
 9231 00a3 39       		.uleb128 0x39
 9232 00a4 0B       		.uleb128 0xb
 9233 00a5 49       		.uleb128 0x49
 9234 00a6 13       		.uleb128 0x13
ARM GAS  /tmp/ccstZxWH.s 			page 163


 9235 00a7 38       		.uleb128 0x38
 9236 00a8 0B       		.uleb128 0xb
 9237 00a9 00       		.byte	0
 9238 00aa 00       		.byte	0
 9239 00ab 0E       		.uleb128 0xe
 9240 00ac 01       		.uleb128 0x1
 9241 00ad 01       		.byte	0x1
 9242 00ae 49       		.uleb128 0x49
 9243 00af 13       		.uleb128 0x13
 9244 00b0 01       		.uleb128 0x1
 9245 00b1 13       		.uleb128 0x13
 9246 00b2 00       		.byte	0
 9247 00b3 00       		.byte	0
 9248 00b4 0F       		.uleb128 0xf
 9249 00b5 21       		.uleb128 0x21
 9250 00b6 00       		.byte	0
 9251 00b7 49       		.uleb128 0x49
 9252 00b8 13       		.uleb128 0x13
 9253 00b9 2F       		.uleb128 0x2f
 9254 00ba 0B       		.uleb128 0xb
 9255 00bb 00       		.byte	0
 9256 00bc 00       		.byte	0
 9257 00bd 10       		.uleb128 0x10
 9258 00be 13       		.uleb128 0x13
 9259 00bf 01       		.byte	0x1
 9260 00c0 03       		.uleb128 0x3
 9261 00c1 0E       		.uleb128 0xe
 9262 00c2 0B       		.uleb128 0xb
 9263 00c3 0B       		.uleb128 0xb
 9264 00c4 3A       		.uleb128 0x3a
 9265 00c5 0B       		.uleb128 0xb
 9266 00c6 3B       		.uleb128 0x3b
 9267 00c7 05       		.uleb128 0x5
 9268 00c8 39       		.uleb128 0x39
 9269 00c9 0B       		.uleb128 0xb
 9270 00ca 01       		.uleb128 0x1
 9271 00cb 13       		.uleb128 0x13
 9272 00cc 00       		.byte	0
 9273 00cd 00       		.byte	0
 9274 00ce 11       		.uleb128 0x11
 9275 00cf 13       		.uleb128 0x13
 9276 00d0 01       		.byte	0x1
 9277 00d1 0B       		.uleb128 0xb
 9278 00d2 0B       		.uleb128 0xb
 9279 00d3 3A       		.uleb128 0x3a
 9280 00d4 0B       		.uleb128 0xb
 9281 00d5 3B       		.uleb128 0x3b
 9282 00d6 05       		.uleb128 0x5
 9283 00d7 39       		.uleb128 0x39
 9284 00d8 0B       		.uleb128 0xb
 9285 00d9 01       		.uleb128 0x1
 9286 00da 13       		.uleb128 0x13
 9287 00db 00       		.byte	0
 9288 00dc 00       		.byte	0
 9289 00dd 12       		.uleb128 0x12
 9290 00de 16       		.uleb128 0x16
 9291 00df 00       		.byte	0
ARM GAS  /tmp/ccstZxWH.s 			page 164


 9292 00e0 03       		.uleb128 0x3
 9293 00e1 0E       		.uleb128 0xe
 9294 00e2 3A       		.uleb128 0x3a
 9295 00e3 0B       		.uleb128 0xb
 9296 00e4 3B       		.uleb128 0x3b
 9297 00e5 05       		.uleb128 0x5
 9298 00e6 39       		.uleb128 0x39
 9299 00e7 0B       		.uleb128 0xb
 9300 00e8 49       		.uleb128 0x49
 9301 00e9 13       		.uleb128 0x13
 9302 00ea 00       		.byte	0
 9303 00eb 00       		.byte	0
 9304 00ec 13       		.uleb128 0x13
 9305 00ed 17       		.uleb128 0x17
 9306 00ee 01       		.byte	0x1
 9307 00ef 0B       		.uleb128 0xb
 9308 00f0 0B       		.uleb128 0xb
 9309 00f1 3A       		.uleb128 0x3a
 9310 00f2 0B       		.uleb128 0xb
 9311 00f3 3B       		.uleb128 0x3b
 9312 00f4 0B       		.uleb128 0xb
 9313 00f5 39       		.uleb128 0x39
 9314 00f6 0B       		.uleb128 0xb
 9315 00f7 01       		.uleb128 0x1
 9316 00f8 13       		.uleb128 0x13
 9317 00f9 00       		.byte	0
 9318 00fa 00       		.byte	0
 9319 00fb 14       		.uleb128 0x14
 9320 00fc 0D       		.uleb128 0xd
 9321 00fd 00       		.byte	0
 9322 00fe 03       		.uleb128 0x3
 9323 00ff 0E       		.uleb128 0xe
 9324 0100 3A       		.uleb128 0x3a
 9325 0101 0B       		.uleb128 0xb
 9326 0102 3B       		.uleb128 0x3b
 9327 0103 0B       		.uleb128 0xb
 9328 0104 39       		.uleb128 0x39
 9329 0105 0B       		.uleb128 0xb
 9330 0106 49       		.uleb128 0x49
 9331 0107 13       		.uleb128 0x13
 9332 0108 00       		.byte	0
 9333 0109 00       		.byte	0
 9334 010a 15       		.uleb128 0x15
 9335 010b 0D       		.uleb128 0xd
 9336 010c 00       		.byte	0
 9337 010d 03       		.uleb128 0x3
 9338 010e 0E       		.uleb128 0xe
 9339 010f 3A       		.uleb128 0x3a
 9340 0110 0B       		.uleb128 0xb
 9341 0111 3B       		.uleb128 0x3b
 9342 0112 05       		.uleb128 0x5
 9343 0113 39       		.uleb128 0x39
 9344 0114 0B       		.uleb128 0xb
 9345 0115 49       		.uleb128 0x49
 9346 0116 13       		.uleb128 0x13
 9347 0117 00       		.byte	0
 9348 0118 00       		.byte	0
ARM GAS  /tmp/ccstZxWH.s 			page 165


 9349 0119 16       		.uleb128 0x16
 9350 011a 15       		.uleb128 0x15
 9351 011b 01       		.byte	0x1
 9352 011c 27       		.uleb128 0x27
 9353 011d 19       		.uleb128 0x19
 9354 011e 01       		.uleb128 0x1
 9355 011f 13       		.uleb128 0x13
 9356 0120 00       		.byte	0
 9357 0121 00       		.byte	0
 9358 0122 17       		.uleb128 0x17
 9359 0123 05       		.uleb128 0x5
 9360 0124 00       		.byte	0
 9361 0125 49       		.uleb128 0x49
 9362 0126 13       		.uleb128 0x13
 9363 0127 00       		.byte	0
 9364 0128 00       		.byte	0
 9365 0129 18       		.uleb128 0x18
 9366 012a 2E       		.uleb128 0x2e
 9367 012b 01       		.byte	0x1
 9368 012c 3F       		.uleb128 0x3f
 9369 012d 19       		.uleb128 0x19
 9370 012e 03       		.uleb128 0x3
 9371 012f 0E       		.uleb128 0xe
 9372 0130 3A       		.uleb128 0x3a
 9373 0131 0B       		.uleb128 0xb
 9374 0132 3B       		.uleb128 0x3b
 9375 0133 05       		.uleb128 0x5
 9376 0134 39       		.uleb128 0x39
 9377 0135 0B       		.uleb128 0xb
 9378 0136 27       		.uleb128 0x27
 9379 0137 19       		.uleb128 0x19
 9380 0138 11       		.uleb128 0x11
 9381 0139 01       		.uleb128 0x1
 9382 013a 12       		.uleb128 0x12
 9383 013b 06       		.uleb128 0x6
 9384 013c 40       		.uleb128 0x40
 9385 013d 18       		.uleb128 0x18
 9386 013e 9742     		.uleb128 0x2117
 9387 0140 19       		.uleb128 0x19
 9388 0141 01       		.uleb128 0x1
 9389 0142 13       		.uleb128 0x13
 9390 0143 00       		.byte	0
 9391 0144 00       		.byte	0
 9392 0145 19       		.uleb128 0x19
 9393 0146 05       		.uleb128 0x5
 9394 0147 00       		.byte	0
 9395 0148 03       		.uleb128 0x3
 9396 0149 0E       		.uleb128 0xe
 9397 014a 3A       		.uleb128 0x3a
 9398 014b 0B       		.uleb128 0xb
 9399 014c 3B       		.uleb128 0x3b
 9400 014d 05       		.uleb128 0x5
 9401 014e 39       		.uleb128 0x39
 9402 014f 0B       		.uleb128 0xb
 9403 0150 49       		.uleb128 0x49
 9404 0151 13       		.uleb128 0x13
 9405 0152 02       		.uleb128 0x2
ARM GAS  /tmp/ccstZxWH.s 			page 166


 9406 0153 17       		.uleb128 0x17
 9407 0154 B742     		.uleb128 0x2137
 9408 0156 17       		.uleb128 0x17
 9409 0157 00       		.byte	0
 9410 0158 00       		.byte	0
 9411 0159 1A       		.uleb128 0x1a
 9412 015a 0B       		.uleb128 0xb
 9413 015b 01       		.byte	0x1
 9414 015c 55       		.uleb128 0x55
 9415 015d 17       		.uleb128 0x17
 9416 015e 01       		.uleb128 0x1
 9417 015f 13       		.uleb128 0x13
 9418 0160 00       		.byte	0
 9419 0161 00       		.byte	0
 9420 0162 1B       		.uleb128 0x1b
 9421 0163 34       		.uleb128 0x34
 9422 0164 00       		.byte	0
 9423 0165 03       		.uleb128 0x3
 9424 0166 0E       		.uleb128 0xe
 9425 0167 3A       		.uleb128 0x3a
 9426 0168 0B       		.uleb128 0xb
 9427 0169 3B       		.uleb128 0x3b
 9428 016a 05       		.uleb128 0x5
 9429 016b 39       		.uleb128 0x39
 9430 016c 0B       		.uleb128 0xb
 9431 016d 49       		.uleb128 0x49
 9432 016e 13       		.uleb128 0x13
 9433 016f 02       		.uleb128 0x2
 9434 0170 17       		.uleb128 0x17
 9435 0171 B742     		.uleb128 0x2137
 9436 0173 17       		.uleb128 0x17
 9437 0174 00       		.byte	0
 9438 0175 00       		.byte	0
 9439 0176 1C       		.uleb128 0x1c
 9440 0177 1D       		.uleb128 0x1d
 9441 0178 01       		.byte	0x1
 9442 0179 31       		.uleb128 0x31
 9443 017a 13       		.uleb128 0x13
 9444 017b 52       		.uleb128 0x52
 9445 017c 01       		.uleb128 0x1
 9446 017d B842     		.uleb128 0x2138
 9447 017f 0B       		.uleb128 0xb
 9448 0180 11       		.uleb128 0x11
 9449 0181 01       		.uleb128 0x1
 9450 0182 12       		.uleb128 0x12
 9451 0183 06       		.uleb128 0x6
 9452 0184 58       		.uleb128 0x58
 9453 0185 0B       		.uleb128 0xb
 9454 0186 59       		.uleb128 0x59
 9455 0187 05       		.uleb128 0x5
 9456 0188 57       		.uleb128 0x57
 9457 0189 0B       		.uleb128 0xb
 9458 018a 00       		.byte	0
 9459 018b 00       		.byte	0
 9460 018c 1D       		.uleb128 0x1d
 9461 018d 05       		.uleb128 0x5
 9462 018e 00       		.byte	0
ARM GAS  /tmp/ccstZxWH.s 			page 167


 9463 018f 31       		.uleb128 0x31
 9464 0190 13       		.uleb128 0x13
 9465 0191 02       		.uleb128 0x2
 9466 0192 17       		.uleb128 0x17
 9467 0193 B742     		.uleb128 0x2137
 9468 0195 17       		.uleb128 0x17
 9469 0196 00       		.byte	0
 9470 0197 00       		.byte	0
 9471 0198 1E       		.uleb128 0x1e
 9472 0199 898201   		.uleb128 0x4109
 9473 019c 01       		.byte	0x1
 9474 019d 11       		.uleb128 0x11
 9475 019e 01       		.uleb128 0x1
 9476 019f 00       		.byte	0
 9477 01a0 00       		.byte	0
 9478 01a1 1F       		.uleb128 0x1f
 9479 01a2 8A8201   		.uleb128 0x410a
 9480 01a5 00       		.byte	0
 9481 01a6 02       		.uleb128 0x2
 9482 01a7 18       		.uleb128 0x18
 9483 01a8 9142     		.uleb128 0x2111
 9484 01aa 18       		.uleb128 0x18
 9485 01ab 00       		.byte	0
 9486 01ac 00       		.byte	0
 9487 01ad 20       		.uleb128 0x20
 9488 01ae 1D       		.uleb128 0x1d
 9489 01af 01       		.byte	0x1
 9490 01b0 31       		.uleb128 0x31
 9491 01b1 13       		.uleb128 0x13
 9492 01b2 52       		.uleb128 0x52
 9493 01b3 01       		.uleb128 0x1
 9494 01b4 B842     		.uleb128 0x2138
 9495 01b6 0B       		.uleb128 0xb
 9496 01b7 55       		.uleb128 0x55
 9497 01b8 17       		.uleb128 0x17
 9498 01b9 58       		.uleb128 0x58
 9499 01ba 0B       		.uleb128 0xb
 9500 01bb 59       		.uleb128 0x59
 9501 01bc 05       		.uleb128 0x5
 9502 01bd 57       		.uleb128 0x57
 9503 01be 0B       		.uleb128 0xb
 9504 01bf 01       		.uleb128 0x1
 9505 01c0 13       		.uleb128 0x13
 9506 01c1 00       		.byte	0
 9507 01c2 00       		.byte	0
 9508 01c3 21       		.uleb128 0x21
 9509 01c4 1D       		.uleb128 0x1d
 9510 01c5 01       		.byte	0x1
 9511 01c6 31       		.uleb128 0x31
 9512 01c7 13       		.uleb128 0x13
 9513 01c8 52       		.uleb128 0x52
 9514 01c9 01       		.uleb128 0x1
 9515 01ca B842     		.uleb128 0x2138
 9516 01cc 0B       		.uleb128 0xb
 9517 01cd 55       		.uleb128 0x55
 9518 01ce 17       		.uleb128 0x17
 9519 01cf 58       		.uleb128 0x58
ARM GAS  /tmp/ccstZxWH.s 			page 168


 9520 01d0 0B       		.uleb128 0xb
 9521 01d1 59       		.uleb128 0x59
 9522 01d2 05       		.uleb128 0x5
 9523 01d3 57       		.uleb128 0x57
 9524 01d4 0B       		.uleb128 0xb
 9525 01d5 00       		.byte	0
 9526 01d6 00       		.byte	0
 9527 01d7 22       		.uleb128 0x22
 9528 01d8 0B       		.uleb128 0xb
 9529 01d9 01       		.byte	0x1
 9530 01da 55       		.uleb128 0x55
 9531 01db 17       		.uleb128 0x17
 9532 01dc 00       		.byte	0
 9533 01dd 00       		.byte	0
 9534 01de 23       		.uleb128 0x23
 9535 01df 2E       		.uleb128 0x2e
 9536 01e0 01       		.byte	0x1
 9537 01e1 3F       		.uleb128 0x3f
 9538 01e2 19       		.uleb128 0x19
 9539 01e3 03       		.uleb128 0x3
 9540 01e4 0E       		.uleb128 0xe
 9541 01e5 3A       		.uleb128 0x3a
 9542 01e6 0B       		.uleb128 0xb
 9543 01e7 3B       		.uleb128 0x3b
 9544 01e8 05       		.uleb128 0x5
 9545 01e9 39       		.uleb128 0x39
 9546 01ea 0B       		.uleb128 0xb
 9547 01eb 27       		.uleb128 0x27
 9548 01ec 19       		.uleb128 0x19
 9549 01ed 49       		.uleb128 0x49
 9550 01ee 13       		.uleb128 0x13
 9551 01ef 11       		.uleb128 0x11
 9552 01f0 01       		.uleb128 0x1
 9553 01f1 12       		.uleb128 0x12
 9554 01f2 06       		.uleb128 0x6
 9555 01f3 40       		.uleb128 0x40
 9556 01f4 18       		.uleb128 0x18
 9557 01f5 9742     		.uleb128 0x2117
 9558 01f7 19       		.uleb128 0x19
 9559 01f8 01       		.uleb128 0x1
 9560 01f9 13       		.uleb128 0x13
 9561 01fa 00       		.byte	0
 9562 01fb 00       		.byte	0
 9563 01fc 24       		.uleb128 0x24
 9564 01fd 0B       		.uleb128 0xb
 9565 01fe 01       		.byte	0x1
 9566 01ff 11       		.uleb128 0x11
 9567 0200 01       		.uleb128 0x1
 9568 0201 12       		.uleb128 0x12
 9569 0202 06       		.uleb128 0x6
 9570 0203 00       		.byte	0
 9571 0204 00       		.byte	0
 9572 0205 25       		.uleb128 0x25
 9573 0206 05       		.uleb128 0x5
 9574 0207 00       		.byte	0
 9575 0208 03       		.uleb128 0x3
 9576 0209 08       		.uleb128 0x8
ARM GAS  /tmp/ccstZxWH.s 			page 169


 9577 020a 3A       		.uleb128 0x3a
 9578 020b 0B       		.uleb128 0xb
 9579 020c 3B       		.uleb128 0x3b
 9580 020d 05       		.uleb128 0x5
 9581 020e 39       		.uleb128 0x39
 9582 020f 0B       		.uleb128 0xb
 9583 0210 49       		.uleb128 0x49
 9584 0211 13       		.uleb128 0x13
 9585 0212 02       		.uleb128 0x2
 9586 0213 17       		.uleb128 0x17
 9587 0214 B742     		.uleb128 0x2137
 9588 0216 17       		.uleb128 0x17
 9589 0217 00       		.byte	0
 9590 0218 00       		.byte	0
 9591 0219 26       		.uleb128 0x26
 9592 021a 34       		.uleb128 0x34
 9593 021b 00       		.byte	0
 9594 021c 03       		.uleb128 0x3
 9595 021d 08       		.uleb128 0x8
 9596 021e 3A       		.uleb128 0x3a
 9597 021f 0B       		.uleb128 0xb
 9598 0220 3B       		.uleb128 0x3b
 9599 0221 05       		.uleb128 0x5
 9600 0222 39       		.uleb128 0x39
 9601 0223 0B       		.uleb128 0xb
 9602 0224 49       		.uleb128 0x49
 9603 0225 13       		.uleb128 0x13
 9604 0226 02       		.uleb128 0x2
 9605 0227 17       		.uleb128 0x17
 9606 0228 B742     		.uleb128 0x2137
 9607 022a 17       		.uleb128 0x17
 9608 022b 00       		.byte	0
 9609 022c 00       		.byte	0
 9610 022d 27       		.uleb128 0x27
 9611 022e 34       		.uleb128 0x34
 9612 022f 00       		.byte	0
 9613 0230 03       		.uleb128 0x3
 9614 0231 0E       		.uleb128 0xe
 9615 0232 49       		.uleb128 0x49
 9616 0233 13       		.uleb128 0x13
 9617 0234 34       		.uleb128 0x34
 9618 0235 19       		.uleb128 0x19
 9619 0236 00       		.byte	0
 9620 0237 00       		.byte	0
 9621 0238 28       		.uleb128 0x28
 9622 0239 1D       		.uleb128 0x1d
 9623 023a 00       		.byte	0
 9624 023b 31       		.uleb128 0x31
 9625 023c 13       		.uleb128 0x13
 9626 023d 52       		.uleb128 0x52
 9627 023e 01       		.uleb128 0x1
 9628 023f B842     		.uleb128 0x2138
 9629 0241 0B       		.uleb128 0xb
 9630 0242 55       		.uleb128 0x55
 9631 0243 17       		.uleb128 0x17
 9632 0244 58       		.uleb128 0x58
 9633 0245 0B       		.uleb128 0xb
ARM GAS  /tmp/ccstZxWH.s 			page 170


 9634 0246 59       		.uleb128 0x59
 9635 0247 0B       		.uleb128 0xb
 9636 0248 57       		.uleb128 0x57
 9637 0249 0B       		.uleb128 0xb
 9638 024a 00       		.byte	0
 9639 024b 00       		.byte	0
 9640 024c 29       		.uleb128 0x29
 9641 024d 1D       		.uleb128 0x1d
 9642 024e 01       		.byte	0x1
 9643 024f 31       		.uleb128 0x31
 9644 0250 13       		.uleb128 0x13
 9645 0251 11       		.uleb128 0x11
 9646 0252 01       		.uleb128 0x1
 9647 0253 12       		.uleb128 0x12
 9648 0254 06       		.uleb128 0x6
 9649 0255 58       		.uleb128 0x58
 9650 0256 0B       		.uleb128 0xb
 9651 0257 59       		.uleb128 0x59
 9652 0258 05       		.uleb128 0x5
 9653 0259 57       		.uleb128 0x57
 9654 025a 0B       		.uleb128 0xb
 9655 025b 01       		.uleb128 0x1
 9656 025c 13       		.uleb128 0x13
 9657 025d 00       		.byte	0
 9658 025e 00       		.byte	0
 9659 025f 2A       		.uleb128 0x2a
 9660 0260 05       		.uleb128 0x5
 9661 0261 00       		.byte	0
 9662 0262 31       		.uleb128 0x31
 9663 0263 13       		.uleb128 0x13
 9664 0264 00       		.byte	0
 9665 0265 00       		.byte	0
 9666 0266 2B       		.uleb128 0x2b
 9667 0267 0B       		.uleb128 0xb
 9668 0268 01       		.byte	0x1
 9669 0269 31       		.uleb128 0x31
 9670 026a 13       		.uleb128 0x13
 9671 026b 55       		.uleb128 0x55
 9672 026c 17       		.uleb128 0x17
 9673 026d 01       		.uleb128 0x1
 9674 026e 13       		.uleb128 0x13
 9675 026f 00       		.byte	0
 9676 0270 00       		.byte	0
 9677 0271 2C       		.uleb128 0x2c
 9678 0272 34       		.uleb128 0x34
 9679 0273 00       		.byte	0
 9680 0274 31       		.uleb128 0x31
 9681 0275 13       		.uleb128 0x13
 9682 0276 02       		.uleb128 0x2
 9683 0277 17       		.uleb128 0x17
 9684 0278 B742     		.uleb128 0x2137
 9685 027a 17       		.uleb128 0x17
 9686 027b 00       		.byte	0
 9687 027c 00       		.byte	0
 9688 027d 2D       		.uleb128 0x2d
 9689 027e 898201   		.uleb128 0x4109
 9690 0281 00       		.byte	0
ARM GAS  /tmp/ccstZxWH.s 			page 171


 9691 0282 11       		.uleb128 0x11
 9692 0283 01       		.uleb128 0x1
 9693 0284 31       		.uleb128 0x31
 9694 0285 13       		.uleb128 0x13
 9695 0286 00       		.byte	0
 9696 0287 00       		.byte	0
 9697 0288 2E       		.uleb128 0x2e
 9698 0289 0B       		.uleb128 0xb
 9699 028a 01       		.byte	0x1
 9700 028b 31       		.uleb128 0x31
 9701 028c 13       		.uleb128 0x13
 9702 028d 55       		.uleb128 0x55
 9703 028e 17       		.uleb128 0x17
 9704 028f 00       		.byte	0
 9705 0290 00       		.byte	0
 9706 0291 2F       		.uleb128 0x2f
 9707 0292 898201   		.uleb128 0x4109
 9708 0295 01       		.byte	0x1
 9709 0296 11       		.uleb128 0x11
 9710 0297 01       		.uleb128 0x1
 9711 0298 31       		.uleb128 0x31
 9712 0299 13       		.uleb128 0x13
 9713 029a 00       		.byte	0
 9714 029b 00       		.byte	0
 9715 029c 30       		.uleb128 0x30
 9716 029d 1D       		.uleb128 0x1d
 9717 029e 01       		.byte	0x1
 9718 029f 31       		.uleb128 0x31
 9719 02a0 13       		.uleb128 0x13
 9720 02a1 55       		.uleb128 0x55
 9721 02a2 17       		.uleb128 0x17
 9722 02a3 58       		.uleb128 0x58
 9723 02a4 0B       		.uleb128 0xb
 9724 02a5 59       		.uleb128 0x59
 9725 02a6 05       		.uleb128 0x5
 9726 02a7 57       		.uleb128 0x57
 9727 02a8 0B       		.uleb128 0xb
 9728 02a9 01       		.uleb128 0x1
 9729 02aa 13       		.uleb128 0x13
 9730 02ab 00       		.byte	0
 9731 02ac 00       		.byte	0
 9732 02ad 31       		.uleb128 0x31
 9733 02ae 2E       		.uleb128 0x2e
 9734 02af 01       		.byte	0x1
 9735 02b0 3F       		.uleb128 0x3f
 9736 02b1 19       		.uleb128 0x19
 9737 02b2 03       		.uleb128 0x3
 9738 02b3 0E       		.uleb128 0xe
 9739 02b4 3A       		.uleb128 0x3a
 9740 02b5 0B       		.uleb128 0xb
 9741 02b6 3B       		.uleb128 0x3b
 9742 02b7 05       		.uleb128 0x5
 9743 02b8 39       		.uleb128 0x39
 9744 02b9 0B       		.uleb128 0xb
 9745 02ba 27       		.uleb128 0x27
 9746 02bb 19       		.uleb128 0x19
 9747 02bc 20       		.uleb128 0x20
ARM GAS  /tmp/ccstZxWH.s 			page 172


 9748 02bd 0B       		.uleb128 0xb
 9749 02be 01       		.uleb128 0x1
 9750 02bf 13       		.uleb128 0x13
 9751 02c0 00       		.byte	0
 9752 02c1 00       		.byte	0
 9753 02c2 32       		.uleb128 0x32
 9754 02c3 05       		.uleb128 0x5
 9755 02c4 00       		.byte	0
 9756 02c5 03       		.uleb128 0x3
 9757 02c6 0E       		.uleb128 0xe
 9758 02c7 3A       		.uleb128 0x3a
 9759 02c8 0B       		.uleb128 0xb
 9760 02c9 3B       		.uleb128 0x3b
 9761 02ca 05       		.uleb128 0x5
 9762 02cb 39       		.uleb128 0x39
 9763 02cc 0B       		.uleb128 0xb
 9764 02cd 49       		.uleb128 0x49
 9765 02ce 13       		.uleb128 0x13
 9766 02cf 00       		.byte	0
 9767 02d0 00       		.byte	0
 9768 02d1 33       		.uleb128 0x33
 9769 02d2 1D       		.uleb128 0x1d
 9770 02d3 01       		.byte	0x1
 9771 02d4 31       		.uleb128 0x31
 9772 02d5 13       		.uleb128 0x13
 9773 02d6 52       		.uleb128 0x52
 9774 02d7 01       		.uleb128 0x1
 9775 02d8 B842     		.uleb128 0x2138
 9776 02da 0B       		.uleb128 0xb
 9777 02db 11       		.uleb128 0x11
 9778 02dc 01       		.uleb128 0x1
 9779 02dd 12       		.uleb128 0x12
 9780 02de 06       		.uleb128 0x6
 9781 02df 58       		.uleb128 0x58
 9782 02e0 0B       		.uleb128 0xb
 9783 02e1 59       		.uleb128 0x59
 9784 02e2 05       		.uleb128 0x5
 9785 02e3 57       		.uleb128 0x57
 9786 02e4 0B       		.uleb128 0xb
 9787 02e5 01       		.uleb128 0x1
 9788 02e6 13       		.uleb128 0x13
 9789 02e7 00       		.byte	0
 9790 02e8 00       		.byte	0
 9791 02e9 34       		.uleb128 0x34
 9792 02ea 2E       		.uleb128 0x2e
 9793 02eb 01       		.byte	0x1
 9794 02ec 3F       		.uleb128 0x3f
 9795 02ed 19       		.uleb128 0x19
 9796 02ee 03       		.uleb128 0x3
 9797 02ef 0E       		.uleb128 0xe
 9798 02f0 3A       		.uleb128 0x3a
 9799 02f1 0B       		.uleb128 0xb
 9800 02f2 3B       		.uleb128 0x3b
 9801 02f3 05       		.uleb128 0x5
 9802 02f4 39       		.uleb128 0x39
 9803 02f5 0B       		.uleb128 0xb
 9804 02f6 27       		.uleb128 0x27
ARM GAS  /tmp/ccstZxWH.s 			page 173


 9805 02f7 19       		.uleb128 0x19
 9806 02f8 49       		.uleb128 0x49
 9807 02f9 13       		.uleb128 0x13
 9808 02fa 20       		.uleb128 0x20
 9809 02fb 0B       		.uleb128 0xb
 9810 02fc 01       		.uleb128 0x1
 9811 02fd 13       		.uleb128 0x13
 9812 02fe 00       		.byte	0
 9813 02ff 00       		.byte	0
 9814 0300 35       		.uleb128 0x35
 9815 0301 0B       		.uleb128 0xb
 9816 0302 01       		.byte	0x1
 9817 0303 00       		.byte	0
 9818 0304 00       		.byte	0
 9819 0305 36       		.uleb128 0x36
 9820 0306 34       		.uleb128 0x34
 9821 0307 00       		.byte	0
 9822 0308 03       		.uleb128 0x3
 9823 0309 08       		.uleb128 0x8
 9824 030a 3A       		.uleb128 0x3a
 9825 030b 0B       		.uleb128 0xb
 9826 030c 3B       		.uleb128 0x3b
 9827 030d 05       		.uleb128 0x5
 9828 030e 39       		.uleb128 0x39
 9829 030f 0B       		.uleb128 0xb
 9830 0310 49       		.uleb128 0x49
 9831 0311 13       		.uleb128 0x13
 9832 0312 00       		.byte	0
 9833 0313 00       		.byte	0
 9834 0314 37       		.uleb128 0x37
 9835 0315 05       		.uleb128 0x5
 9836 0316 00       		.byte	0
 9837 0317 31       		.uleb128 0x31
 9838 0318 13       		.uleb128 0x13
 9839 0319 1C       		.uleb128 0x1c
 9840 031a 0B       		.uleb128 0xb
 9841 031b 00       		.byte	0
 9842 031c 00       		.byte	0
 9843 031d 38       		.uleb128 0x38
 9844 031e 898201   		.uleb128 0x4109
 9845 0321 01       		.byte	0x1
 9846 0322 11       		.uleb128 0x11
 9847 0323 01       		.uleb128 0x1
 9848 0324 9542     		.uleb128 0x2115
 9849 0326 19       		.uleb128 0x19
 9850 0327 31       		.uleb128 0x31
 9851 0328 13       		.uleb128 0x13
 9852 0329 00       		.byte	0
 9853 032a 00       		.byte	0
 9854 032b 39       		.uleb128 0x39
 9855 032c 05       		.uleb128 0x5
 9856 032d 00       		.byte	0
 9857 032e 03       		.uleb128 0x3
 9858 032f 0E       		.uleb128 0xe
 9859 0330 3A       		.uleb128 0x3a
 9860 0331 0B       		.uleb128 0xb
 9861 0332 3B       		.uleb128 0x3b
ARM GAS  /tmp/ccstZxWH.s 			page 174


 9862 0333 05       		.uleb128 0x5
 9863 0334 39       		.uleb128 0x39
 9864 0335 0B       		.uleb128 0xb
 9865 0336 49       		.uleb128 0x49
 9866 0337 13       		.uleb128 0x13
 9867 0338 02       		.uleb128 0x2
 9868 0339 18       		.uleb128 0x18
 9869 033a 00       		.byte	0
 9870 033b 00       		.byte	0
 9871 033c 3A       		.uleb128 0x3a
 9872 033d 05       		.uleb128 0x5
 9873 033e 00       		.byte	0
 9874 033f 31       		.uleb128 0x31
 9875 0340 13       		.uleb128 0x13
 9876 0341 1C       		.uleb128 0x1c
 9877 0342 0D       		.uleb128 0xd
 9878 0343 00       		.byte	0
 9879 0344 00       		.byte	0
 9880 0345 3B       		.uleb128 0x3b
 9881 0346 1D       		.uleb128 0x1d
 9882 0347 01       		.byte	0x1
 9883 0348 31       		.uleb128 0x31
 9884 0349 13       		.uleb128 0x13
 9885 034a 52       		.uleb128 0x52
 9886 034b 01       		.uleb128 0x1
 9887 034c B842     		.uleb128 0x2138
 9888 034e 0B       		.uleb128 0xb
 9889 034f 55       		.uleb128 0x55
 9890 0350 17       		.uleb128 0x17
 9891 0351 58       		.uleb128 0x58
 9892 0352 0B       		.uleb128 0xb
 9893 0353 59       		.uleb128 0x59
 9894 0354 0B       		.uleb128 0xb
 9895 0355 57       		.uleb128 0x57
 9896 0356 0B       		.uleb128 0xb
 9897 0357 00       		.byte	0
 9898 0358 00       		.byte	0
 9899 0359 3C       		.uleb128 0x3c
 9900 035a 1D       		.uleb128 0x1d
 9901 035b 01       		.byte	0x1
 9902 035c 31       		.uleb128 0x31
 9903 035d 13       		.uleb128 0x13
 9904 035e 52       		.uleb128 0x52
 9905 035f 01       		.uleb128 0x1
 9906 0360 B842     		.uleb128 0x2138
 9907 0362 0B       		.uleb128 0xb
 9908 0363 11       		.uleb128 0x11
 9909 0364 01       		.uleb128 0x1
 9910 0365 12       		.uleb128 0x12
 9911 0366 06       		.uleb128 0x6
 9912 0367 58       		.uleb128 0x58
 9913 0368 0B       		.uleb128 0xb
 9914 0369 59       		.uleb128 0x59
 9915 036a 0B       		.uleb128 0xb
 9916 036b 57       		.uleb128 0x57
 9917 036c 0B       		.uleb128 0xb
 9918 036d 00       		.byte	0
ARM GAS  /tmp/ccstZxWH.s 			page 175


 9919 036e 00       		.byte	0
 9920 036f 3D       		.uleb128 0x3d
 9921 0370 1D       		.uleb128 0x1d
 9922 0371 01       		.byte	0x1
 9923 0372 31       		.uleb128 0x31
 9924 0373 13       		.uleb128 0x13
 9925 0374 55       		.uleb128 0x55
 9926 0375 17       		.uleb128 0x17
 9927 0376 58       		.uleb128 0x58
 9928 0377 0B       		.uleb128 0xb
 9929 0378 59       		.uleb128 0x59
 9930 0379 05       		.uleb128 0x5
 9931 037a 57       		.uleb128 0x57
 9932 037b 0B       		.uleb128 0xb
 9933 037c 00       		.byte	0
 9934 037d 00       		.byte	0
 9935 037e 3E       		.uleb128 0x3e
 9936 037f 2E       		.uleb128 0x2e
 9937 0380 01       		.byte	0x1
 9938 0381 3F       		.uleb128 0x3f
 9939 0382 19       		.uleb128 0x19
 9940 0383 03       		.uleb128 0x3
 9941 0384 0E       		.uleb128 0xe
 9942 0385 3A       		.uleb128 0x3a
 9943 0386 0B       		.uleb128 0xb
 9944 0387 3B       		.uleb128 0x3b
 9945 0388 0B       		.uleb128 0xb
 9946 0389 39       		.uleb128 0x39
 9947 038a 0B       		.uleb128 0xb
 9948 038b 27       		.uleb128 0x27
 9949 038c 19       		.uleb128 0x19
 9950 038d 11       		.uleb128 0x11
 9951 038e 01       		.uleb128 0x1
 9952 038f 12       		.uleb128 0x12
 9953 0390 06       		.uleb128 0x6
 9954 0391 40       		.uleb128 0x40
 9955 0392 18       		.uleb128 0x18
 9956 0393 9742     		.uleb128 0x2117
 9957 0395 19       		.uleb128 0x19
 9958 0396 01       		.uleb128 0x1
 9959 0397 13       		.uleb128 0x13
 9960 0398 00       		.byte	0
 9961 0399 00       		.byte	0
 9962 039a 3F       		.uleb128 0x3f
 9963 039b 05       		.uleb128 0x5
 9964 039c 00       		.byte	0
 9965 039d 03       		.uleb128 0x3
 9966 039e 0E       		.uleb128 0xe
 9967 039f 3A       		.uleb128 0x3a
 9968 03a0 0B       		.uleb128 0xb
 9969 03a1 3B       		.uleb128 0x3b
 9970 03a2 0B       		.uleb128 0xb
 9971 03a3 39       		.uleb128 0x39
 9972 03a4 0B       		.uleb128 0xb
 9973 03a5 49       		.uleb128 0x49
 9974 03a6 13       		.uleb128 0x13
 9975 03a7 02       		.uleb128 0x2
ARM GAS  /tmp/ccstZxWH.s 			page 176


 9976 03a8 17       		.uleb128 0x17
 9977 03a9 B742     		.uleb128 0x2137
 9978 03ab 17       		.uleb128 0x17
 9979 03ac 00       		.byte	0
 9980 03ad 00       		.byte	0
 9981 03ae 40       		.uleb128 0x40
 9982 03af 2E       		.uleb128 0x2e
 9983 03b0 01       		.byte	0x1
 9984 03b1 3F       		.uleb128 0x3f
 9985 03b2 19       		.uleb128 0x19
 9986 03b3 03       		.uleb128 0x3
 9987 03b4 0E       		.uleb128 0xe
 9988 03b5 3A       		.uleb128 0x3a
 9989 03b6 0B       		.uleb128 0xb
 9990 03b7 3B       		.uleb128 0x3b
 9991 03b8 0B       		.uleb128 0xb
 9992 03b9 39       		.uleb128 0x39
 9993 03ba 0B       		.uleb128 0xb
 9994 03bb 27       		.uleb128 0x27
 9995 03bc 19       		.uleb128 0x19
 9996 03bd 49       		.uleb128 0x49
 9997 03be 13       		.uleb128 0x13
 9998 03bf 20       		.uleb128 0x20
 9999 03c0 0B       		.uleb128 0xb
 10000 03c1 01       		.uleb128 0x1
 10001 03c2 13       		.uleb128 0x13
 10002 03c3 00       		.byte	0
 10003 03c4 00       		.byte	0
 10004 03c5 41       		.uleb128 0x41
 10005 03c6 05       		.uleb128 0x5
 10006 03c7 00       		.byte	0
 10007 03c8 03       		.uleb128 0x3
 10008 03c9 0E       		.uleb128 0xe
 10009 03ca 3A       		.uleb128 0x3a
 10010 03cb 0B       		.uleb128 0xb
 10011 03cc 3B       		.uleb128 0x3b
 10012 03cd 0B       		.uleb128 0xb
 10013 03ce 39       		.uleb128 0x39
 10014 03cf 0B       		.uleb128 0xb
 10015 03d0 49       		.uleb128 0x49
 10016 03d1 13       		.uleb128 0x13
 10017 03d2 00       		.byte	0
 10018 03d3 00       		.byte	0
 10019 03d4 42       		.uleb128 0x42
 10020 03d5 34       		.uleb128 0x34
 10021 03d6 00       		.byte	0
 10022 03d7 03       		.uleb128 0x3
 10023 03d8 08       		.uleb128 0x8
 10024 03d9 3A       		.uleb128 0x3a
 10025 03da 0B       		.uleb128 0xb
 10026 03db 3B       		.uleb128 0x3b
 10027 03dc 0B       		.uleb128 0xb
 10028 03dd 39       		.uleb128 0x39
 10029 03de 0B       		.uleb128 0xb
 10030 03df 49       		.uleb128 0x49
 10031 03e0 13       		.uleb128 0x13
 10032 03e1 00       		.byte	0
ARM GAS  /tmp/ccstZxWH.s 			page 177


 10033 03e2 00       		.byte	0
 10034 03e3 43       		.uleb128 0x43
 10035 03e4 2E       		.uleb128 0x2e
 10036 03e5 01       		.byte	0x1
 10037 03e6 3F       		.uleb128 0x3f
 10038 03e7 19       		.uleb128 0x19
 10039 03e8 03       		.uleb128 0x3
 10040 03e9 0E       		.uleb128 0xe
 10041 03ea 3A       		.uleb128 0x3a
 10042 03eb 0B       		.uleb128 0xb
 10043 03ec 3B       		.uleb128 0x3b
 10044 03ed 0B       		.uleb128 0xb
 10045 03ee 39       		.uleb128 0x39
 10046 03ef 0B       		.uleb128 0xb
 10047 03f0 27       		.uleb128 0x27
 10048 03f1 19       		.uleb128 0x19
 10049 03f2 49       		.uleb128 0x49
 10050 03f3 13       		.uleb128 0x13
 10051 03f4 11       		.uleb128 0x11
 10052 03f5 01       		.uleb128 0x1
 10053 03f6 12       		.uleb128 0x12
 10054 03f7 06       		.uleb128 0x6
 10055 03f8 40       		.uleb128 0x40
 10056 03f9 18       		.uleb128 0x18
 10057 03fa 9742     		.uleb128 0x2117
 10058 03fc 19       		.uleb128 0x19
 10059 03fd 01       		.uleb128 0x1
 10060 03fe 13       		.uleb128 0x13
 10061 03ff 00       		.byte	0
 10062 0400 00       		.byte	0
 10063 0401 44       		.uleb128 0x44
 10064 0402 34       		.uleb128 0x34
 10065 0403 00       		.byte	0
 10066 0404 03       		.uleb128 0x3
 10067 0405 08       		.uleb128 0x8
 10068 0406 3A       		.uleb128 0x3a
 10069 0407 0B       		.uleb128 0xb
 10070 0408 3B       		.uleb128 0x3b
 10071 0409 0B       		.uleb128 0xb
 10072 040a 39       		.uleb128 0x39
 10073 040b 0B       		.uleb128 0xb
 10074 040c 49       		.uleb128 0x49
 10075 040d 13       		.uleb128 0x13
 10076 040e 02       		.uleb128 0x2
 10077 040f 17       		.uleb128 0x17
 10078 0410 B742     		.uleb128 0x2137
 10079 0412 17       		.uleb128 0x17
 10080 0413 00       		.byte	0
 10081 0414 00       		.byte	0
 10082 0415 45       		.uleb128 0x45
 10083 0416 1D       		.uleb128 0x1d
 10084 0417 01       		.byte	0x1
 10085 0418 31       		.uleb128 0x31
 10086 0419 13       		.uleb128 0x13
 10087 041a 52       		.uleb128 0x52
 10088 041b 01       		.uleb128 0x1
 10089 041c B842     		.uleb128 0x2138
ARM GAS  /tmp/ccstZxWH.s 			page 178


 10090 041e 0B       		.uleb128 0xb
 10091 041f 55       		.uleb128 0x55
 10092 0420 17       		.uleb128 0x17
 10093 0421 58       		.uleb128 0x58
 10094 0422 0B       		.uleb128 0xb
 10095 0423 59       		.uleb128 0x59
 10096 0424 0B       		.uleb128 0xb
 10097 0425 57       		.uleb128 0x57
 10098 0426 0B       		.uleb128 0xb
 10099 0427 01       		.uleb128 0x1
 10100 0428 13       		.uleb128 0x13
 10101 0429 00       		.byte	0
 10102 042a 00       		.byte	0
 10103 042b 46       		.uleb128 0x46
 10104 042c 05       		.uleb128 0x5
 10105 042d 00       		.byte	0
 10106 042e 03       		.uleb128 0x3
 10107 042f 0E       		.uleb128 0xe
 10108 0430 3A       		.uleb128 0x3a
 10109 0431 0B       		.uleb128 0xb
 10110 0432 3B       		.uleb128 0x3b
 10111 0433 0B       		.uleb128 0xb
 10112 0434 39       		.uleb128 0x39
 10113 0435 0B       		.uleb128 0xb
 10114 0436 49       		.uleb128 0x49
 10115 0437 13       		.uleb128 0x13
 10116 0438 02       		.uleb128 0x2
 10117 0439 18       		.uleb128 0x18
 10118 043a 00       		.byte	0
 10119 043b 00       		.byte	0
 10120 043c 47       		.uleb128 0x47
 10121 043d 05       		.uleb128 0x5
 10122 043e 00       		.byte	0
 10123 043f 03       		.uleb128 0x3
 10124 0440 08       		.uleb128 0x8
 10125 0441 3A       		.uleb128 0x3a
 10126 0442 0B       		.uleb128 0xb
 10127 0443 3B       		.uleb128 0x3b
 10128 0444 0B       		.uleb128 0xb
 10129 0445 39       		.uleb128 0x39
 10130 0446 0B       		.uleb128 0xb
 10131 0447 49       		.uleb128 0x49
 10132 0448 13       		.uleb128 0x13
 10133 0449 02       		.uleb128 0x2
 10134 044a 17       		.uleb128 0x17
 10135 044b B742     		.uleb128 0x2137
 10136 044d 17       		.uleb128 0x17
 10137 044e 00       		.byte	0
 10138 044f 00       		.byte	0
 10139 0450 48       		.uleb128 0x48
 10140 0451 2E       		.uleb128 0x2e
 10141 0452 01       		.byte	0x1
 10142 0453 03       		.uleb128 0x3
 10143 0454 0E       		.uleb128 0xe
 10144 0455 3A       		.uleb128 0x3a
 10145 0456 0B       		.uleb128 0xb
 10146 0457 3B       		.uleb128 0x3b
ARM GAS  /tmp/ccstZxWH.s 			page 179


 10147 0458 05       		.uleb128 0x5
 10148 0459 39       		.uleb128 0x39
 10149 045a 0B       		.uleb128 0xb
 10150 045b 27       		.uleb128 0x27
 10151 045c 19       		.uleb128 0x19
 10152 045d 20       		.uleb128 0x20
 10153 045e 0B       		.uleb128 0xb
 10154 045f 01       		.uleb128 0x1
 10155 0460 13       		.uleb128 0x13
 10156 0461 00       		.byte	0
 10157 0462 00       		.byte	0
 10158 0463 49       		.uleb128 0x49
 10159 0464 05       		.uleb128 0x5
 10160 0465 00       		.byte	0
 10161 0466 03       		.uleb128 0x3
 10162 0467 08       		.uleb128 0x8
 10163 0468 3A       		.uleb128 0x3a
 10164 0469 0B       		.uleb128 0xb
 10165 046a 3B       		.uleb128 0x3b
 10166 046b 05       		.uleb128 0x5
 10167 046c 39       		.uleb128 0x39
 10168 046d 0B       		.uleb128 0xb
 10169 046e 49       		.uleb128 0x49
 10170 046f 13       		.uleb128 0x13
 10171 0470 00       		.byte	0
 10172 0471 00       		.byte	0
 10173 0472 4A       		.uleb128 0x4a
 10174 0473 2E       		.uleb128 0x2e
 10175 0474 01       		.byte	0x1
 10176 0475 03       		.uleb128 0x3
 10177 0476 0E       		.uleb128 0xe
 10178 0477 3A       		.uleb128 0x3a
 10179 0478 0B       		.uleb128 0xb
 10180 0479 3B       		.uleb128 0x3b
 10181 047a 05       		.uleb128 0x5
 10182 047b 39       		.uleb128 0x39
 10183 047c 0B       		.uleb128 0xb
 10184 047d 27       		.uleb128 0x27
 10185 047e 19       		.uleb128 0x19
 10186 047f 49       		.uleb128 0x49
 10187 0480 13       		.uleb128 0x13
 10188 0481 20       		.uleb128 0x20
 10189 0482 0B       		.uleb128 0xb
 10190 0483 01       		.uleb128 0x1
 10191 0484 13       		.uleb128 0x13
 10192 0485 00       		.byte	0
 10193 0486 00       		.byte	0
 10194 0487 4B       		.uleb128 0x4b
 10195 0488 2E       		.uleb128 0x2e
 10196 0489 00       		.byte	0
 10197 048a 03       		.uleb128 0x3
 10198 048b 0E       		.uleb128 0xe
 10199 048c 3A       		.uleb128 0x3a
 10200 048d 0B       		.uleb128 0xb
 10201 048e 3B       		.uleb128 0x3b
 10202 048f 05       		.uleb128 0x5
 10203 0490 39       		.uleb128 0x39
ARM GAS  /tmp/ccstZxWH.s 			page 180


 10204 0491 0B       		.uleb128 0xb
 10205 0492 27       		.uleb128 0x27
 10206 0493 19       		.uleb128 0x19
 10207 0494 49       		.uleb128 0x49
 10208 0495 13       		.uleb128 0x13
 10209 0496 20       		.uleb128 0x20
 10210 0497 0B       		.uleb128 0xb
 10211 0498 00       		.byte	0
 10212 0499 00       		.byte	0
 10213 049a 4C       		.uleb128 0x4c
 10214 049b 2E       		.uleb128 0x2e
 10215 049c 00       		.byte	0
 10216 049d 03       		.uleb128 0x3
 10217 049e 0E       		.uleb128 0xe
 10218 049f 3A       		.uleb128 0x3a
 10219 04a0 0B       		.uleb128 0xb
 10220 04a1 3B       		.uleb128 0x3b
 10221 04a2 05       		.uleb128 0x5
 10222 04a3 39       		.uleb128 0x39
 10223 04a4 0B       		.uleb128 0xb
 10224 04a5 27       		.uleb128 0x27
 10225 04a6 19       		.uleb128 0x19
 10226 04a7 20       		.uleb128 0x20
 10227 04a8 0B       		.uleb128 0xb
 10228 04a9 00       		.byte	0
 10229 04aa 00       		.byte	0
 10230 04ab 4D       		.uleb128 0x4d
 10231 04ac 2E       		.uleb128 0x2e
 10232 04ad 00       		.byte	0
 10233 04ae 03       		.uleb128 0x3
 10234 04af 0E       		.uleb128 0xe
 10235 04b0 3A       		.uleb128 0x3a
 10236 04b1 0B       		.uleb128 0xb
 10237 04b2 3B       		.uleb128 0x3b
 10238 04b3 0B       		.uleb128 0xb
 10239 04b4 39       		.uleb128 0x39
 10240 04b5 0B       		.uleb128 0xb
 10241 04b6 27       		.uleb128 0x27
 10242 04b7 19       		.uleb128 0x19
 10243 04b8 49       		.uleb128 0x49
 10244 04b9 13       		.uleb128 0x13
 10245 04ba 20       		.uleb128 0x20
 10246 04bb 0B       		.uleb128 0xb
 10247 04bc 00       		.byte	0
 10248 04bd 00       		.byte	0
 10249 04be 4E       		.uleb128 0x4e
 10250 04bf 2E       		.uleb128 0x2e
 10251 04c0 01       		.byte	0x1
 10252 04c1 31       		.uleb128 0x31
 10253 04c2 13       		.uleb128 0x13
 10254 04c3 11       		.uleb128 0x11
 10255 04c4 01       		.uleb128 0x1
 10256 04c5 12       		.uleb128 0x12
 10257 04c6 06       		.uleb128 0x6
 10258 04c7 40       		.uleb128 0x40
 10259 04c8 18       		.uleb128 0x18
 10260 04c9 9742     		.uleb128 0x2117
ARM GAS  /tmp/ccstZxWH.s 			page 181


 10261 04cb 19       		.uleb128 0x19
 10262 04cc 01       		.uleb128 0x1
 10263 04cd 13       		.uleb128 0x13
 10264 04ce 00       		.byte	0
 10265 04cf 00       		.byte	0
 10266 04d0 4F       		.uleb128 0x4f
 10267 04d1 898201   		.uleb128 0x4109
 10268 04d4 01       		.byte	0x1
 10269 04d5 11       		.uleb128 0x11
 10270 04d6 01       		.uleb128 0x1
 10271 04d7 9542     		.uleb128 0x2115
 10272 04d9 19       		.uleb128 0x19
 10273 04da 00       		.byte	0
 10274 04db 00       		.byte	0
 10275 04dc 50       		.uleb128 0x50
 10276 04dd 2E       		.uleb128 0x2e
 10277 04de 00       		.byte	0
 10278 04df 3F       		.uleb128 0x3f
 10279 04e0 19       		.uleb128 0x19
 10280 04e1 3C       		.uleb128 0x3c
 10281 04e2 19       		.uleb128 0x19
 10282 04e3 6E       		.uleb128 0x6e
 10283 04e4 0E       		.uleb128 0xe
 10284 04e5 03       		.uleb128 0x3
 10285 04e6 0E       		.uleb128 0xe
 10286 04e7 3A       		.uleb128 0x3a
 10287 04e8 0B       		.uleb128 0xb
 10288 04e9 3B       		.uleb128 0x3b
 10289 04ea 05       		.uleb128 0x5
 10290 04eb 39       		.uleb128 0x39
 10291 04ec 0B       		.uleb128 0xb
 10292 04ed 00       		.byte	0
 10293 04ee 00       		.byte	0
 10294 04ef 51       		.uleb128 0x51
 10295 04f0 2E       		.uleb128 0x2e
 10296 04f1 00       		.byte	0
 10297 04f2 3F       		.uleb128 0x3f
 10298 04f3 19       		.uleb128 0x19
 10299 04f4 3C       		.uleb128 0x3c
 10300 04f5 19       		.uleb128 0x19
 10301 04f6 6E       		.uleb128 0x6e
 10302 04f7 0E       		.uleb128 0xe
 10303 04f8 03       		.uleb128 0x3
 10304 04f9 0E       		.uleb128 0xe
 10305 04fa 3A       		.uleb128 0x3a
 10306 04fb 0B       		.uleb128 0xb
 10307 04fc 3B       		.uleb128 0x3b
 10308 04fd 0B       		.uleb128 0xb
 10309 04fe 00       		.byte	0
 10310 04ff 00       		.byte	0
 10311 0500 00       		.byte	0
 10312              		.section	.debug_loc,"",%progbits
 10313              	.Ldebug_loc0:
 10314              	.LVUS151:
 10315 0000 00       		.uleb128 0
 10316 0001 00       		.uleb128 .LVU1453
 10317 0002 00       		.uleb128 .LVU1453
ARM GAS  /tmp/ccstZxWH.s 			page 182


 10318 0003 00       		.uleb128 0
 10319              	.LLST151:
 10320 0004 00000000 		.4byte	.LVL230
 10321 0008 43000000 		.4byte	.LVL241-1
 10322 000c 0100     		.2byte	0x1
 10323 000e 50       		.byte	0x50
 10324 000f 43000000 		.4byte	.LVL241-1
 10325 0013 4C000000 		.4byte	.LFE298
 10326 0017 0400     		.2byte	0x4
 10327 0019 F3       		.byte	0xf3
 10328 001a 01       		.uleb128 0x1
 10329 001b 50       		.byte	0x50
 10330 001c 9F       		.byte	0x9f
 10331 001d 00000000 		.4byte	0
 10332 0021 00000000 		.4byte	0
 10333              	.LVUS153:
 10334 0025 00       		.uleb128 .LVU1402
 10335 0026 00       		.uleb128 .LVU1404
 10336 0027 00       		.uleb128 .LVU1404
 10337 0028 00       		.uleb128 .LVU1405
 10338 0029 00       		.uleb128 .LVU1422
 10339 002a 00       		.uleb128 .LVU1436
 10340 002b 00       		.uleb128 .LVU1436
 10341 002c 00       		.uleb128 .LVU1438
 10342 002d 00       		.uleb128 .LVU1438
 10343 002e 00       		.uleb128 .LVU1441
 10344 002f 00       		.uleb128 .LVU1441
 10345 0030 00       		.uleb128 .LVU1444
 10346              	.LLST153:
 10347 0031 10000000 		.4byte	.LVL232
 10348 0035 12000000 		.4byte	.LVL233
 10349 0039 0600     		.2byte	0x6
 10350 003b 73       		.byte	0x73
 10351 003c 00       		.sleb128 0
 10352 003d 72       		.byte	0x72
 10353 003e 00       		.sleb128 0
 10354 003f 1C       		.byte	0x1c
 10355 0040 9F       		.byte	0x9f
 10356 0041 12000000 		.4byte	.LVL233
 10357 0045 14000000 		.4byte	.LVL234
 10358 0049 0100     		.2byte	0x1
 10359 004b 53       		.byte	0x53
 10360 004c 1C000000 		.4byte	.LVL236
 10361 0050 24000000 		.4byte	.LVL237
 10362 0054 0100     		.2byte	0x1
 10363 0056 53       		.byte	0x53
 10364 0057 24000000 		.4byte	.LVL237
 10365 005b 28000000 		.4byte	.LVL238
 10366 005f 0200     		.2byte	0x2
 10367 0061 72       		.byte	0x72
 10368 0062 00       		.sleb128 0
 10369 0063 28000000 		.4byte	.LVL238
 10370 0067 2E000000 		.4byte	.LVL239
 10371 006b 0300     		.2byte	0x3
 10372 006d 70       		.byte	0x70
 10373 006e 10       		.sleb128 16
 10374 006f 06       		.byte	0x6
ARM GAS  /tmp/ccstZxWH.s 			page 183


 10375 0070 2E000000 		.4byte	.LVL239
 10376 0074 34000000 		.4byte	.LVL240
 10377 0078 0A00     		.2byte	0xa
 10378 007a 70       		.byte	0x70
 10379 007b 28       		.sleb128 40
 10380 007c 06       		.byte	0x6
 10381 007d 70       		.byte	0x70
 10382 007e 10       		.sleb128 16
 10383 007f 06       		.byte	0x6
 10384 0080 1C       		.byte	0x1c
 10385 0081 34       		.byte	0x34
 10386 0082 1C       		.byte	0x1c
 10387 0083 9F       		.byte	0x9f
 10388 0084 00000000 		.4byte	0
 10389 0088 00000000 		.4byte	0
 10390              	.LVUS154:
 10391 008c 01       		.uleb128 .LVU1423
 10392 008d 00       		.uleb128 .LVU1436
 10393 008e 00       		.uleb128 .LVU1436
 10394 008f 00       		.uleb128 .LVU1438
 10395 0090 00       		.uleb128 .LVU1438
 10396 0091 00       		.uleb128 .LVU1441
 10397 0092 00       		.uleb128 .LVU1441
 10398 0093 00       		.uleb128 .LVU1444
 10399              	.LLST154:
 10400 0094 1C000000 		.4byte	.LVL236
 10401 0098 24000000 		.4byte	.LVL237
 10402 009c 0100     		.2byte	0x1
 10403 009e 53       		.byte	0x53
 10404 009f 24000000 		.4byte	.LVL237
 10405 00a3 28000000 		.4byte	.LVL238
 10406 00a7 0200     		.2byte	0x2
 10407 00a9 72       		.byte	0x72
 10408 00aa 00       		.sleb128 0
 10409 00ab 28000000 		.4byte	.LVL238
 10410 00af 2E000000 		.4byte	.LVL239
 10411 00b3 0300     		.2byte	0x3
 10412 00b5 70       		.byte	0x70
 10413 00b6 10       		.sleb128 16
 10414 00b7 06       		.byte	0x6
 10415 00b8 2E000000 		.4byte	.LVL239
 10416 00bc 34000000 		.4byte	.LVL240
 10417 00c0 0A00     		.2byte	0xa
 10418 00c2 70       		.byte	0x70
 10419 00c3 28       		.sleb128 40
 10420 00c4 06       		.byte	0x6
 10421 00c5 70       		.byte	0x70
 10422 00c6 10       		.sleb128 16
 10423 00c7 06       		.byte	0x6
 10424 00c8 1C       		.byte	0x1c
 10425 00c9 34       		.byte	0x34
 10426 00ca 1C       		.byte	0x1c
 10427 00cb 9F       		.byte	0x9f
 10428 00cc 00000000 		.4byte	0
 10429 00d0 00000000 		.4byte	0
 10430              	.LVUS155:
 10431 00d4 01       		.uleb128 .LVU1423
ARM GAS  /tmp/ccstZxWH.s 			page 184


 10432 00d5 00       		.uleb128 .LVU1453
 10433 00d6 00       		.uleb128 .LVU1453
 10434 00d7 00       		.uleb128 .LVU1453
 10435              	.LLST155:
 10436 00d8 1C000000 		.4byte	.LVL236
 10437 00dc 43000000 		.4byte	.LVL241-1
 10438 00e0 0100     		.2byte	0x1
 10439 00e2 50       		.byte	0x50
 10440 00e3 43000000 		.4byte	.LVL241-1
 10441 00e7 44000000 		.4byte	.LVL241
 10442 00eb 0400     		.2byte	0x4
 10443 00ed F3       		.byte	0xf3
 10444 00ee 01       		.uleb128 0x1
 10445 00ef 50       		.byte	0x50
 10446 00f0 9F       		.byte	0x9f
 10447 00f1 00000000 		.4byte	0
 10448 00f5 00000000 		.4byte	0
 10449              	.LVUS152:
 10450 00f9 08       		.uleb128 .LVU1389
 10451 00fa 00       		.uleb128 .LVU1393
 10452              	.LLST152:
 10453 00fb 00000000 		.4byte	.LVL230
 10454 00ff 08000000 		.4byte	.LVL231
 10455 0103 0300     		.2byte	0x3
 10456 0105 08       		.byte	0x8
 10457 0106 20       		.byte	0x20
 10458 0107 9F       		.byte	0x9f
 10459 0108 00000000 		.4byte	0
 10460 010c 00000000 		.4byte	0
 10461              	.LVUS156:
 10462 0110 0D       		.uleb128 .LVU1418
 10463 0111 00       		.uleb128 .LVU1420
 10464 0112 0D       		.uleb128 .LVU1466
 10465 0113 00       		.uleb128 .LVU1468
 10466              	.LLST156:
 10467 0114 14000000 		.4byte	.LVL234
 10468 0118 1A000000 		.4byte	.LVL235
 10469 011c 0200     		.2byte	0x2
 10470 011e 30       		.byte	0x30
 10471 011f 9F       		.byte	0x9f
 10472 0120 44000000 		.4byte	.LVL241
 10473 0124 4A000000 		.4byte	.LVL242
 10474 0128 0200     		.2byte	0x2
 10475 012a 30       		.byte	0x30
 10476 012b 9F       		.byte	0x9f
 10477 012c 00000000 		.4byte	0
 10478 0130 00000000 		.4byte	0
 10479              	.LVUS149:
 10480 0134 00       		.uleb128 0
 10481 0135 00       		.uleb128 .LVU1351
 10482 0136 00       		.uleb128 .LVU1351
 10483 0137 00       		.uleb128 .LVU1352
 10484 0138 00       		.uleb128 .LVU1352
 10485 0139 00       		.uleb128 .LVU1380
 10486 013a 00       		.uleb128 .LVU1380
 10487 013b 00       		.uleb128 0
 10488              	.LLST149:
ARM GAS  /tmp/ccstZxWH.s 			page 185


 10489 013c 00000000 		.4byte	.LVL220
 10490 0140 0A000000 		.4byte	.LVL221
 10491 0144 0100     		.2byte	0x1
 10492 0146 50       		.byte	0x50
 10493 0147 0A000000 		.4byte	.LVL221
 10494 014b 0C000000 		.4byte	.LVL222
 10495 014f 0400     		.2byte	0x4
 10496 0151 F3       		.byte	0xf3
 10497 0152 01       		.uleb128 0x1
 10498 0153 50       		.byte	0x50
 10499 0154 9F       		.byte	0x9f
 10500 0155 0C000000 		.4byte	.LVL222
 10501 0159 40000000 		.4byte	.LVL229
 10502 015d 0100     		.2byte	0x1
 10503 015f 50       		.byte	0x50
 10504 0160 40000000 		.4byte	.LVL229
 10505 0164 42000000 		.4byte	.LFE297
 10506 0168 0400     		.2byte	0x4
 10507 016a F3       		.byte	0xf3
 10508 016b 01       		.uleb128 0x1
 10509 016c 50       		.byte	0x50
 10510 016d 9F       		.byte	0x9f
 10511 016e 00000000 		.4byte	0
 10512 0172 00000000 		.4byte	0
 10513              	.LVUS150:
 10514 0176 00       		.uleb128 .LVU1357
 10515 0177 00       		.uleb128 .LVU1359
 10516 0178 00       		.uleb128 .LVU1359
 10517 0179 00       		.uleb128 .LVU1365
 10518 017a 00       		.uleb128 .LVU1365
 10519 017b 00       		.uleb128 .LVU1367
 10520 017c 00       		.uleb128 .LVU1367
 10521 017d 00       		.uleb128 .LVU1370
 10522 017e 00       		.uleb128 .LVU1370
 10523 017f 00       		.uleb128 .LVU1373
 10524              	.LLST150:
 10525 0180 1A000000 		.4byte	.LVL223
 10526 0184 1C000000 		.4byte	.LVL224
 10527 0188 0600     		.2byte	0x6
 10528 018a 73       		.byte	0x73
 10529 018b 00       		.sleb128 0
 10530 018c 72       		.byte	0x72
 10531 018d 00       		.sleb128 0
 10532 018e 1C       		.byte	0x1c
 10533 018f 9F       		.byte	0x9f
 10534 0190 1C000000 		.4byte	.LVL224
 10535 0194 26000000 		.4byte	.LVL225
 10536 0198 0100     		.2byte	0x1
 10537 019a 53       		.byte	0x53
 10538 019b 26000000 		.4byte	.LVL225
 10539 019f 2A000000 		.4byte	.LVL226
 10540 01a3 0200     		.2byte	0x2
 10541 01a5 72       		.byte	0x72
 10542 01a6 00       		.sleb128 0
 10543 01a7 2A000000 		.4byte	.LVL226
 10544 01ab 30000000 		.4byte	.LVL227
 10545 01af 0300     		.2byte	0x3
ARM GAS  /tmp/ccstZxWH.s 			page 186


 10546 01b1 70       		.byte	0x70
 10547 01b2 10       		.sleb128 16
 10548 01b3 06       		.byte	0x6
 10549 01b4 30000000 		.4byte	.LVL227
 10550 01b8 36000000 		.4byte	.LVL228
 10551 01bc 0A00     		.2byte	0xa
 10552 01be 70       		.byte	0x70
 10553 01bf 28       		.sleb128 40
 10554 01c0 06       		.byte	0x6
 10555 01c1 70       		.byte	0x70
 10556 01c2 10       		.sleb128 16
 10557 01c3 06       		.byte	0x6
 10558 01c4 1C       		.byte	0x1c
 10559 01c5 34       		.byte	0x34
 10560 01c6 1C       		.byte	0x1c
 10561 01c7 9F       		.byte	0x9f
 10562 01c8 00000000 		.4byte	0
 10563 01cc 00000000 		.4byte	0
 10564              	.LVUS126:
 10565 01d0 00       		.uleb128 0
 10566 01d1 00       		.uleb128 .LVU1137
 10567 01d2 00       		.uleb128 .LVU1137
 10568 01d3 00       		.uleb128 .LVU1222
 10569 01d4 00       		.uleb128 .LVU1222
 10570 01d5 00       		.uleb128 .LVU1224
 10571 01d6 00       		.uleb128 .LVU1224
 10572 01d7 00       		.uleb128 .LVU1235
 10573 01d8 00       		.uleb128 .LVU1235
 10574 01d9 00       		.uleb128 .LVU1241
 10575 01da 00       		.uleb128 .LVU1241
 10576 01db 00       		.uleb128 .LVU1293
 10577 01dc 00       		.uleb128 .LVU1293
 10578 01dd 00       		.uleb128 .LVU1296
 10579 01de 00       		.uleb128 .LVU1296
 10580 01df 00       		.uleb128 .LVU1307
 10581 01e0 00       		.uleb128 .LVU1307
 10582 01e1 00       		.uleb128 .LVU1308
 10583 01e2 00       		.uleb128 .LVU1308
 10584 01e3 00       		.uleb128 0
 10585              	.LLST126:
 10586 01e4 00000000 		.4byte	.LVL178
 10587 01e8 1A000000 		.4byte	.LVL181
 10588 01ec 0100     		.2byte	0x1
 10589 01ee 50       		.byte	0x50
 10590 01ef 1A000000 		.4byte	.LVL181
 10591 01f3 A2000000 		.4byte	.LVL196
 10592 01f7 0100     		.2byte	0x1
 10593 01f9 54       		.byte	0x54
 10594 01fa A2000000 		.4byte	.LVL196
 10595 01fe AB000000 		.4byte	.LVL197-1
 10596 0202 0100     		.2byte	0x1
 10597 0204 50       		.byte	0x50
 10598 0205 AB000000 		.4byte	.LVL197-1
 10599 0209 BA000000 		.4byte	.LVL199
 10600 020d 0100     		.2byte	0x1
 10601 020f 54       		.byte	0x54
 10602 0210 BA000000 		.4byte	.LVL199
ARM GAS  /tmp/ccstZxWH.s 			page 187


 10603 0214 BC000000 		.4byte	.LVL200
 10604 0218 0100     		.2byte	0x1
 10605 021a 50       		.byte	0x50
 10606 021b BC000000 		.4byte	.LVL200
 10607 021f 0C010000 		.4byte	.LVL212
 10608 0223 0100     		.2byte	0x1
 10609 0225 54       		.byte	0x54
 10610 0226 0C010000 		.4byte	.LVL212
 10611 022a 13010000 		.4byte	.LVL213-1
 10612 022e 0100     		.2byte	0x1
 10613 0230 50       		.byte	0x50
 10614 0231 13010000 		.4byte	.LVL213-1
 10615 0235 22010000 		.4byte	.LVL215
 10616 0239 0100     		.2byte	0x1
 10617 023b 54       		.byte	0x54
 10618 023c 22010000 		.4byte	.LVL215
 10619 0240 24010000 		.4byte	.LVL216
 10620 0244 0100     		.2byte	0x1
 10621 0246 50       		.byte	0x50
 10622 0247 24010000 		.4byte	.LVL216
 10623 024b 3E010000 		.4byte	.LFE296
 10624 024f 0100     		.2byte	0x1
 10625 0251 54       		.byte	0x54
 10626 0252 00000000 		.4byte	0
 10627 0256 00000000 		.4byte	0
 10628              	.LVUS127:
 10629 025a 00       		.uleb128 0
 10630 025b 00       		.uleb128 .LVU1147
 10631 025c 00       		.uleb128 .LVU1147
 10632 025d 00       		.uleb128 .LVU1156
 10633 025e 00       		.uleb128 .LVU1156
 10634 025f 00       		.uleb128 .LVU1157
 10635 0260 00       		.uleb128 .LVU1157
 10636 0261 00       		.uleb128 .LVU1164
 10637 0262 00       		.uleb128 .LVU1168
 10638 0263 00       		.uleb128 .LVU1170
 10639 0264 00       		.uleb128 .LVU1170
 10640 0265 00       		.uleb128 .LVU1247
 10641 0266 00       		.uleb128 .LVU1247
 10642 0267 00       		.uleb128 .LVU1249
 10643 0268 00       		.uleb128 .LVU1249
 10644 0269 00       		.uleb128 0
 10645              	.LLST127:
 10646 026a 00000000 		.4byte	.LVL178
 10647 026e 2A000000 		.4byte	.LVL183
 10648 0272 0100     		.2byte	0x1
 10649 0274 51       		.byte	0x51
 10650 0275 2A000000 		.4byte	.LVL183
 10651 0279 3E000000 		.4byte	.LVL186
 10652 027d 0100     		.2byte	0x1
 10653 027f 5B       		.byte	0x5b
 10654 0280 3E000000 		.4byte	.LVL186
 10655 0284 42000000 		.4byte	.LVL187
 10656 0288 0100     		.2byte	0x1
 10657 028a 51       		.byte	0x51
 10658 028b 42000000 		.4byte	.LVL187
 10659 028f 6E000000 		.4byte	.LVL188
ARM GAS  /tmp/ccstZxWH.s 			page 188


 10660 0293 0300     		.2byte	0x3
 10661 0295 7B       		.byte	0x7b
 10662 0296 40       		.sleb128 -64
 10663 0297 9F       		.byte	0x9f
 10664 0298 74000000 		.4byte	.LVL189
 10665 029c 76000000 		.4byte	.LVL190
 10666 02a0 0100     		.2byte	0x1
 10667 02a2 51       		.byte	0x51
 10668 02a3 76000000 		.4byte	.LVL190
 10669 02a7 C8000000 		.4byte	.LVL202
 10670 02ab 0100     		.2byte	0x1
 10671 02ad 5B       		.byte	0x5b
 10672 02ae C8000000 		.4byte	.LVL202
 10673 02b2 CD000000 		.4byte	.LVL203-1
 10674 02b6 0100     		.2byte	0x1
 10675 02b8 51       		.byte	0x51
 10676 02b9 CD000000 		.4byte	.LVL203-1
 10677 02bd 3E010000 		.4byte	.LFE296
 10678 02c1 0100     		.2byte	0x1
 10679 02c3 5B       		.byte	0x5b
 10680 02c4 00000000 		.4byte	0
 10681 02c8 00000000 		.4byte	0
 10682              	.LVUS128:
 10683 02cc 00       		.uleb128 0
 10684 02cd 00       		.uleb128 .LVU1147
 10685 02ce 00       		.uleb128 .LVU1147
 10686 02cf 00       		.uleb128 0
 10687              	.LLST128:
 10688 02d0 00000000 		.4byte	.LVL178
 10689 02d4 2A000000 		.4byte	.LVL183
 10690 02d8 0100     		.2byte	0x1
 10691 02da 52       		.byte	0x52
 10692 02db 2A000000 		.4byte	.LVL183
 10693 02df 3E010000 		.4byte	.LFE296
 10694 02e3 0100     		.2byte	0x1
 10695 02e5 56       		.byte	0x56
 10696 02e6 00000000 		.4byte	0
 10697 02ea 00000000 		.4byte	0
 10698              	.LVUS129:
 10699 02ee 00       		.uleb128 0
 10700 02ef 00       		.uleb128 .LVU1122
 10701 02f0 00       		.uleb128 .LVU1122
 10702 02f1 00       		.uleb128 .LVU1293
 10703 02f2 00       		.uleb128 .LVU1293
 10704 02f3 00       		.uleb128 .LVU1296
 10705 02f4 00       		.uleb128 .LVU1296
 10706 02f5 00       		.uleb128 .LVU1307
 10707 02f6 00       		.uleb128 .LVU1307
 10708 02f7 00       		.uleb128 .LVU1308
 10709 02f8 00       		.uleb128 .LVU1308
 10710 02f9 00       		.uleb128 0
 10711              	.LLST129:
 10712 02fa 00000000 		.4byte	.LVL178
 10713 02fe 10000000 		.4byte	.LVL179
 10714 0302 0100     		.2byte	0x1
 10715 0304 53       		.byte	0x53
 10716 0305 10000000 		.4byte	.LVL179
ARM GAS  /tmp/ccstZxWH.s 			page 189


 10717 0309 0C010000 		.4byte	.LVL212
 10718 030d 0100     		.2byte	0x1
 10719 030f 57       		.byte	0x57
 10720 0310 0C010000 		.4byte	.LVL212
 10721 0314 13010000 		.4byte	.LVL213-1
 10722 0318 0100     		.2byte	0x1
 10723 031a 51       		.byte	0x51
 10724 031b 13010000 		.4byte	.LVL213-1
 10725 031f 22010000 		.4byte	.LVL215
 10726 0323 0100     		.2byte	0x1
 10727 0325 57       		.byte	0x57
 10728 0326 22010000 		.4byte	.LVL215
 10729 032a 24010000 		.4byte	.LVL216
 10730 032e 0100     		.2byte	0x1
 10731 0330 51       		.byte	0x51
 10732 0331 24010000 		.4byte	.LVL216
 10733 0335 3E010000 		.4byte	.LFE296
 10734 0339 0100     		.2byte	0x1
 10735 033b 57       		.byte	0x57
 10736 033c 00000000 		.4byte	0
 10737 0340 00000000 		.4byte	0
 10738              	.LVUS130:
 10739 0344 02       		.uleb128 .LVU1106
 10740 0345 00       		.uleb128 .LVU1141
 10741 0346 00       		.uleb128 .LVU1141
 10742 0347 00       		.uleb128 0
 10743              	.LLST130:
 10744 0348 00000000 		.4byte	.LVL178
 10745 034c 22000000 		.4byte	.LVL182
 10746 0350 0200     		.2byte	0x2
 10747 0352 30       		.byte	0x30
 10748 0353 9F       		.byte	0x9f
 10749 0354 22000000 		.4byte	.LVL182
 10750 0358 3E010000 		.4byte	.LFE296
 10751 035c 0100     		.2byte	0x1
 10752 035e 55       		.byte	0x55
 10753 035f 00000000 		.4byte	0
 10754 0363 00000000 		.4byte	0
 10755              	.LVUS131:
 10756 0367 00       		.uleb128 .LVU1141
 10757 0368 00       		.uleb128 .LVU1147
 10758              	.LLST131:
 10759 0369 22000000 		.4byte	.LVL182
 10760 036d 2A000000 		.4byte	.LVL183
 10761 0371 0100     		.2byte	0x1
 10762 0373 53       		.byte	0x53
 10763 0374 00000000 		.4byte	0
 10764 0378 00000000 		.4byte	0
 10765              	.LVUS133:
 10766 037c 00       		.uleb128 .LVU1151
 10767 037d 00       		.uleb128 .LVU1153
 10768 037e 00       		.uleb128 .LVU1153
 10769 037f 00       		.uleb128 .LVU1157
 10770 0380 00       		.uleb128 .LVU1157
 10771 0381 00       		.uleb128 .LVU1204
 10772 0382 00       		.uleb128 .LVU1247
 10773 0383 00       		.uleb128 .LVU1249
ARM GAS  /tmp/ccstZxWH.s 			page 190


 10774 0384 00       		.uleb128 .LVU1249
 10775 0385 00       		.uleb128 .LVU1293
 10776              	.LLST133:
 10777 0386 30000000 		.4byte	.LVL184
 10778 038a 3A000000 		.4byte	.LVL185
 10779 038e 0100     		.2byte	0x1
 10780 0390 52       		.byte	0x52
 10781 0391 3A000000 		.4byte	.LVL185
 10782 0395 42000000 		.4byte	.LVL187
 10783 0399 0100     		.2byte	0x1
 10784 039b 53       		.byte	0x53
 10785 039c 42000000 		.4byte	.LVL187
 10786 03a0 8A000000 		.4byte	.LVL194
 10787 03a4 0100     		.2byte	0x1
 10788 03a6 5A       		.byte	0x5a
 10789 03a7 C8000000 		.4byte	.LVL202
 10790 03ab CD000000 		.4byte	.LVL203-1
 10791 03af 0100     		.2byte	0x1
 10792 03b1 53       		.byte	0x53
 10793 03b2 CD000000 		.4byte	.LVL203-1
 10794 03b6 0C010000 		.4byte	.LVL212
 10795 03ba 0100     		.2byte	0x1
 10796 03bc 5A       		.byte	0x5a
 10797 03bd 00000000 		.4byte	0
 10798 03c1 00000000 		.4byte	0
 10799              	.LVUS134:
 10800 03c5 01       		.uleb128 .LVU1245
 10801 03c6 00       		.uleb128 .LVU1247
 10802              	.LLST134:
 10803 03c7 C6000000 		.4byte	.LVL201
 10804 03cb C8000000 		.4byte	.LVL202
 10805 03cf 0200     		.2byte	0x2
 10806 03d1 30       		.byte	0x30
 10807 03d2 9F       		.byte	0x9f
 10808 03d3 00000000 		.4byte	0
 10809 03d7 00000000 		.4byte	0
 10810              	.LVUS135:
 10811 03db 00       		.uleb128 .LVU1220
 10812 03dc 00       		.uleb128 .LVU1222
 10813 03dd 00       		.uleb128 .LVU1222
 10814 03de 00       		.uleb128 .LVU1224
 10815 03df 00       		.uleb128 .LVU1224
 10816 03e0 00       		.uleb128 .LVU1235
 10817 03e1 00       		.uleb128 .LVU1328
 10818 03e2 00       		.uleb128 0
 10819              	.LLST135:
 10820 03e3 9C000000 		.4byte	.LVL195
 10821 03e7 A2000000 		.4byte	.LVL196
 10822 03eb 0100     		.2byte	0x1
 10823 03ed 5A       		.byte	0x5a
 10824 03ee A2000000 		.4byte	.LVL196
 10825 03f2 AB000000 		.4byte	.LVL197-1
 10826 03f6 0100     		.2byte	0x1
 10827 03f8 51       		.byte	0x51
 10828 03f9 AB000000 		.4byte	.LVL197-1
 10829 03fd BA000000 		.4byte	.LVL199
 10830 0401 0100     		.2byte	0x1
ARM GAS  /tmp/ccstZxWH.s 			page 191


 10831 0403 5A       		.byte	0x5a
 10832 0404 32010000 		.4byte	.LVL218
 10833 0408 3E010000 		.4byte	.LFE296
 10834 040c 0100     		.2byte	0x1
 10835 040e 5A       		.byte	0x5a
 10836 040f 00000000 		.4byte	0
 10837 0413 00000000 		.4byte	0
 10838              	.LVUS136:
 10839 0417 00       		.uleb128 .LVU1224
 10840 0418 00       		.uleb128 .LVU1227
 10841              	.LLST136:
 10842 0419 AC000000 		.4byte	.LVL197
 10843 041d B0000000 		.4byte	.LVL198
 10844 0421 0100     		.2byte	0x1
 10845 0423 50       		.byte	0x50
 10846 0424 00000000 		.4byte	0
 10847 0428 00000000 		.4byte	0
 10848              	.LVUS137:
 10849 042c 00       		.uleb128 .LVU1222
 10850 042d 00       		.uleb128 .LVU1224
 10851 042e 00       		.uleb128 .LVU1224
 10852 042f 00       		.uleb128 .LVU1224
 10853 0430 02       		.uleb128 .LVU1229
 10854 0431 00       		.uleb128 .LVU1235
 10855              	.LLST137:
 10856 0432 A2000000 		.4byte	.LVL196
 10857 0436 AB000000 		.4byte	.LVL197-1
 10858 043a 0100     		.2byte	0x1
 10859 043c 51       		.byte	0x51
 10860 043d AB000000 		.4byte	.LVL197-1
 10861 0441 AC000000 		.4byte	.LVL197
 10862 0445 0100     		.2byte	0x1
 10863 0447 5A       		.byte	0x5a
 10864 0448 B0000000 		.4byte	.LVL198
 10865 044c BA000000 		.4byte	.LVL199
 10866 0450 0100     		.2byte	0x1
 10867 0452 5A       		.byte	0x5a
 10868 0453 00000000 		.4byte	0
 10869 0457 00000000 		.4byte	0
 10870              	.LVUS138:
 10871 045b 00       		.uleb128 .LVU1222
 10872 045c 00       		.uleb128 .LVU1224
 10873 045d 00       		.uleb128 .LVU1224
 10874 045e 00       		.uleb128 .LVU1224
 10875 045f 02       		.uleb128 .LVU1229
 10876 0460 00       		.uleb128 .LVU1235
 10877              	.LLST138:
 10878 0461 A2000000 		.4byte	.LVL196
 10879 0465 AB000000 		.4byte	.LVL197-1
 10880 0469 0100     		.2byte	0x1
 10881 046b 50       		.byte	0x50
 10882 046c AB000000 		.4byte	.LVL197-1
 10883 0470 AC000000 		.4byte	.LVL197
 10884 0474 0100     		.2byte	0x1
 10885 0476 54       		.byte	0x54
 10886 0477 B0000000 		.4byte	.LVL198
 10887 047b BA000000 		.4byte	.LVL199
ARM GAS  /tmp/ccstZxWH.s 			page 192


 10888 047f 0100     		.2byte	0x1
 10889 0481 54       		.byte	0x54
 10890 0482 00000000 		.4byte	0
 10891 0486 00000000 		.4byte	0
 10892              	.LVUS139:
 10893 048a 00       		.uleb128 .LVU1235
 10894 048b 00       		.uleb128 .LVU1241
 10895 048c 00       		.uleb128 .LVU1241
 10896 048d 01       		.uleb128 .LVU1245
 10897              	.LLST139:
 10898 048e BA000000 		.4byte	.LVL199
 10899 0492 BC000000 		.4byte	.LVL200
 10900 0496 0100     		.2byte	0x1
 10901 0498 50       		.byte	0x50
 10902 0499 BC000000 		.4byte	.LVL200
 10903 049d C6000000 		.4byte	.LVL201
 10904 04a1 0100     		.2byte	0x1
 10905 04a3 54       		.byte	0x54
 10906 04a4 00000000 		.4byte	0
 10907 04a8 00000000 		.4byte	0
 10908              	.LVUS140:
 10909 04ac 0C       		.uleb128 .LVU1340
 10910 04ad 00       		.uleb128 .LVU1342
 10911              	.LLST140:
 10912 04ae 32010000 		.4byte	.LVL218
 10913 04b2 36010000 		.4byte	.LVL219
 10914 04b6 0200     		.2byte	0x2
 10915 04b8 30       		.byte	0x30
 10916 04b9 9F       		.byte	0x9f
 10917 04ba 00000000 		.4byte	0
 10918 04be 00000000 		.4byte	0
 10919              	.LVUS141:
 10920 04c2 00       		.uleb128 .LVU1296
 10921 04c3 00       		.uleb128 .LVU1299
 10922              	.LLST141:
 10923 04c4 14010000 		.4byte	.LVL213
 10924 04c8 18010000 		.4byte	.LVL214
 10925 04cc 0100     		.2byte	0x1
 10926 04ce 50       		.byte	0x50
 10927 04cf 00000000 		.4byte	0
 10928 04d3 00000000 		.4byte	0
 10929              	.LVUS142:
 10930 04d7 00       		.uleb128 .LVU1293
 10931 04d8 00       		.uleb128 .LVU1296
 10932 04d9 00       		.uleb128 .LVU1296
 10933 04da 00       		.uleb128 .LVU1296
 10934 04db 02       		.uleb128 .LVU1301
 10935 04dc 00       		.uleb128 .LVU1307
 10936 04dd 00       		.uleb128 .LVU1307
 10937 04de 00       		.uleb128 .LVU1308
 10938              	.LLST142:
 10939 04df 0C010000 		.4byte	.LVL212
 10940 04e3 13010000 		.4byte	.LVL213-1
 10941 04e7 0100     		.2byte	0x1
 10942 04e9 51       		.byte	0x51
 10943 04ea 13010000 		.4byte	.LVL213-1
 10944 04ee 14010000 		.4byte	.LVL213
ARM GAS  /tmp/ccstZxWH.s 			page 193


 10945 04f2 0100     		.2byte	0x1
 10946 04f4 57       		.byte	0x57
 10947 04f5 18010000 		.4byte	.LVL214
 10948 04f9 22010000 		.4byte	.LVL215
 10949 04fd 0100     		.2byte	0x1
 10950 04ff 57       		.byte	0x57
 10951 0500 22010000 		.4byte	.LVL215
 10952 0504 24010000 		.4byte	.LVL216
 10953 0508 0100     		.2byte	0x1
 10954 050a 51       		.byte	0x51
 10955 050b 00000000 		.4byte	0
 10956 050f 00000000 		.4byte	0
 10957              	.LVUS143:
 10958 0513 00       		.uleb128 .LVU1293
 10959 0514 00       		.uleb128 .LVU1296
 10960 0515 00       		.uleb128 .LVU1296
 10961 0516 00       		.uleb128 .LVU1296
 10962 0517 02       		.uleb128 .LVU1301
 10963 0518 00       		.uleb128 .LVU1307
 10964 0519 00       		.uleb128 .LVU1307
 10965 051a 00       		.uleb128 .LVU1308
 10966              	.LLST143:
 10967 051b 0C010000 		.4byte	.LVL212
 10968 051f 13010000 		.4byte	.LVL213-1
 10969 0523 0100     		.2byte	0x1
 10970 0525 50       		.byte	0x50
 10971 0526 13010000 		.4byte	.LVL213-1
 10972 052a 14010000 		.4byte	.LVL213
 10973 052e 0100     		.2byte	0x1
 10974 0530 54       		.byte	0x54
 10975 0531 18010000 		.4byte	.LVL214
 10976 0535 22010000 		.4byte	.LVL215
 10977 0539 0100     		.2byte	0x1
 10978 053b 54       		.byte	0x54
 10979 053c 22010000 		.4byte	.LVL215
 10980 0540 24010000 		.4byte	.LVL216
 10981 0544 0100     		.2byte	0x1
 10982 0546 50       		.byte	0x50
 10983 0547 00000000 		.4byte	0
 10984 054b 00000000 		.4byte	0
 10985              	.LVUS144:
 10986 054f 0E       		.uleb128 .LVU1322
 10987 0550 00       		.uleb128 .LVU1324
 10988              	.LLST144:
 10989 0551 24010000 		.4byte	.LVL216
 10990 0555 2A010000 		.4byte	.LVL217
 10991 0559 0200     		.2byte	0x2
 10992 055b 30       		.byte	0x30
 10993 055c 9F       		.byte	0x9f
 10994 055d 00000000 		.4byte	0
 10995 0561 00000000 		.4byte	0
 10996              	.LVUS145:
 10997 0565 01       		.uleb128 .LVU1262
 10998 0566 00       		.uleb128 .LVU1274
 10999 0567 00       		.uleb128 .LVU1274
 11000 0568 00       		.uleb128 .LVU1278
 11001 0569 00       		.uleb128 .LVU1278
ARM GAS  /tmp/ccstZxWH.s 			page 194


 11002 056a 00       		.uleb128 .LVU1280
 11003 056b 00       		.uleb128 .LVU1280
 11004 056c 00       		.uleb128 .LVU1282
 11005              	.LLST145:
 11006 056d DE000000 		.4byte	.LVL206
 11007 0571 E4000000 		.4byte	.LVL207
 11008 0575 0600     		.2byte	0x6
 11009 0577 74       		.byte	0x74
 11010 0578 1C       		.sleb128 28
 11011 0579 06       		.byte	0x6
 11012 057a 34       		.byte	0x34
 11013 057b 1C       		.byte	0x1c
 11014 057c 9F       		.byte	0x9f
 11015 057d E4000000 		.4byte	.LVL207
 11016 0581 EA000000 		.4byte	.LVL208
 11017 0585 0100     		.2byte	0x1
 11018 0587 52       		.byte	0x52
 11019 0588 EA000000 		.4byte	.LVL208
 11020 058c F0000000 		.4byte	.LVL209
 11021 0590 0200     		.2byte	0x2
 11022 0592 73       		.byte	0x73
 11023 0593 00       		.sleb128 0
 11024 0594 F0000000 		.4byte	.LVL209
 11025 0598 F4000000 		.4byte	.LVL210
 11026 059c 0300     		.2byte	0x3
 11027 059e 74       		.byte	0x74
 11028 059f 10       		.sleb128 16
 11029 05a0 06       		.byte	0x6
 11030 05a1 00000000 		.4byte	0
 11031 05a5 00000000 		.4byte	0
 11032              	.LVUS146:
 11033 05a9 01       		.uleb128 .LVU1262
 11034 05aa 00       		.uleb128 .LVU1293
 11035              	.LLST146:
 11036 05ab DE000000 		.4byte	.LVL206
 11037 05af 0C010000 		.4byte	.LVL212
 11038 05b3 0100     		.2byte	0x1
 11039 05b5 54       		.byte	0x54
 11040 05b6 00000000 		.4byte	0
 11041 05ba 00000000 		.4byte	0
 11042              	.LVUS147:
 11043 05be 0C       		.uleb128 .LVU1182
 11044 05bf 00       		.uleb128 .LVU1184
 11045              	.LLST147:
 11046 05c0 76000000 		.4byte	.LVL190
 11047 05c4 7A000000 		.4byte	.LVL191
 11048 05c8 0200     		.2byte	0x2
 11049 05ca 30       		.byte	0x30
 11050 05cb 9F       		.byte	0x9f
 11051 05cc 00000000 		.4byte	0
 11052 05d0 00000000 		.4byte	0
 11053              	.LVUS148:
 11054 05d4 07       		.uleb128 .LVU1194
 11055 05d5 00       		.uleb128 .LVU1196
 11056              	.LLST148:
 11057 05d6 7E000000 		.4byte	.LVL192
 11058 05da 84000000 		.4byte	.LVL193
ARM GAS  /tmp/ccstZxWH.s 			page 195


 11059 05de 0300     		.2byte	0x3
 11060 05e0 08       		.byte	0x8
 11061 05e1 20       		.byte	0x20
 11062 05e2 9F       		.byte	0x9f
 11063 05e3 00000000 		.4byte	0
 11064 05e7 00000000 		.4byte	0
 11065              	.LVUS132:
 11066 05eb 0D       		.uleb128 .LVU1117
 11067 05ec 00       		.uleb128 .LVU1123
 11068              	.LLST132:
 11069 05ed 00000000 		.4byte	.LVL178
 11070 05f1 14000000 		.4byte	.LVL180
 11071 05f5 0300     		.2byte	0x3
 11072 05f7 08       		.byte	0x8
 11073 05f8 20       		.byte	0x20
 11074 05f9 9F       		.byte	0x9f
 11075 05fa 00000000 		.4byte	0
 11076 05fe 00000000 		.4byte	0
 11077              	.LVUS112:
 11078 0602 00       		.uleb128 0
 11079 0603 00       		.uleb128 .LVU1006
 11080 0604 00       		.uleb128 .LVU1006
 11081 0605 00       		.uleb128 .LVU1023
 11082 0606 00       		.uleb128 .LVU1023
 11083 0607 00       		.uleb128 .LVU1039
 11084 0608 00       		.uleb128 .LVU1039
 11085 0609 00       		.uleb128 .LVU1055
 11086 060a 00       		.uleb128 .LVU1055
 11087 060b 00       		.uleb128 .LVU1058
 11088 060c 00       		.uleb128 .LVU1058
 11089 060d 00       		.uleb128 .LVU1070
 11090 060e 00       		.uleb128 .LVU1070
 11091 060f 00       		.uleb128 .LVU1084
 11092 0610 00       		.uleb128 .LVU1084
 11093 0611 00       		.uleb128 0
 11094              	.LLST112:
 11095 0612 00000000 		.4byte	.LVL156
 11096 0616 1E000000 		.4byte	.LVL160
 11097 061a 0100     		.2byte	0x1
 11098 061c 50       		.byte	0x50
 11099 061d 1E000000 		.4byte	.LVL160
 11100 0621 26000000 		.4byte	.LVL162
 11101 0625 0100     		.2byte	0x1
 11102 0627 54       		.byte	0x54
 11103 0628 26000000 		.4byte	.LVL162
 11104 062c 32000000 		.4byte	.LVL164
 11105 0630 0100     		.2byte	0x1
 11106 0632 50       		.byte	0x50
 11107 0633 32000000 		.4byte	.LVL164
 11108 0637 54000000 		.4byte	.LVL168
 11109 063b 0100     		.2byte	0x1
 11110 063d 54       		.byte	0x54
 11111 063e 54000000 		.4byte	.LVL168
 11112 0642 5F000000 		.4byte	.LVL170-1
 11113 0646 0100     		.2byte	0x1
 11114 0648 50       		.byte	0x50
 11115 0649 5F000000 		.4byte	.LVL170-1
ARM GAS  /tmp/ccstZxWH.s 			page 196


 11116 064d 6E000000 		.4byte	.LVL172
 11117 0651 0100     		.2byte	0x1
 11118 0653 54       		.byte	0x54
 11119 0654 6E000000 		.4byte	.LVL172
 11120 0658 80000000 		.4byte	.LVL176
 11121 065c 0100     		.2byte	0x1
 11122 065e 50       		.byte	0x50
 11123 065f 80000000 		.4byte	.LVL176
 11124 0663 88000000 		.4byte	.LFE295
 11125 0667 0100     		.2byte	0x1
 11126 0669 54       		.byte	0x54
 11127 066a 00000000 		.4byte	0
 11128 066e 00000000 		.4byte	0
 11129              	.LVUS113:
 11130 0672 00       		.uleb128 0
 11131 0673 00       		.uleb128 .LVU997
 11132 0674 00       		.uleb128 .LVU997
 11133 0675 00       		.uleb128 .LVU1055
 11134 0676 00       		.uleb128 .LVU1055
 11135 0677 00       		.uleb128 .LVU1056
 11136 0678 00       		.uleb128 .LVU1056
 11137 0679 00       		.uleb128 0
 11138              	.LLST113:
 11139 067a 00000000 		.4byte	.LVL156
 11140 067e 10000000 		.4byte	.LVL159
 11141 0682 0100     		.2byte	0x1
 11142 0684 51       		.byte	0x51
 11143 0685 10000000 		.4byte	.LVL159
 11144 0689 54000000 		.4byte	.LVL168
 11145 068d 0400     		.2byte	0x4
 11146 068f F3       		.byte	0xf3
 11147 0690 01       		.uleb128 0x1
 11148 0691 51       		.byte	0x51
 11149 0692 9F       		.byte	0x9f
 11150 0693 54000000 		.4byte	.LVL168
 11151 0697 58000000 		.4byte	.LVL169
 11152 069b 0100     		.2byte	0x1
 11153 069d 51       		.byte	0x51
 11154 069e 58000000 		.4byte	.LVL169
 11155 06a2 88000000 		.4byte	.LFE295
 11156 06a6 0400     		.2byte	0x4
 11157 06a8 F3       		.byte	0xf3
 11158 06a9 01       		.uleb128 0x1
 11159 06aa 51       		.byte	0x51
 11160 06ab 9F       		.byte	0x9f
 11161 06ac 00000000 		.4byte	0
 11162 06b0 00000000 		.4byte	0
 11163              	.LVUS114:
 11164 06b4 00       		.uleb128 0
 11165 06b5 00       		.uleb128 .LVU997
 11166 06b6 00       		.uleb128 .LVU997
 11167 06b7 00       		.uleb128 .LVU1055
 11168 06b8 00       		.uleb128 .LVU1055
 11169 06b9 00       		.uleb128 .LVU1056
 11170 06ba 00       		.uleb128 .LVU1056
 11171 06bb 00       		.uleb128 .LVU1058
 11172 06bc 00       		.uleb128 .LVU1058
ARM GAS  /tmp/ccstZxWH.s 			page 197


 11173 06bd 00       		.uleb128 .LVU1070
 11174 06be 00       		.uleb128 .LVU1070
 11175 06bf 00       		.uleb128 .LVU1077
 11176 06c0 00       		.uleb128 .LVU1077
 11177 06c1 00       		.uleb128 .LVU1083
 11178 06c2 00       		.uleb128 .LVU1083
 11179 06c3 00       		.uleb128 .LVU1084
 11180 06c4 00       		.uleb128 .LVU1084
 11181 06c5 00       		.uleb128 0
 11182              	.LLST114:
 11183 06c6 00000000 		.4byte	.LVL156
 11184 06ca 10000000 		.4byte	.LVL159
 11185 06ce 0100     		.2byte	0x1
 11186 06d0 52       		.byte	0x52
 11187 06d1 10000000 		.4byte	.LVL159
 11188 06d5 54000000 		.4byte	.LVL168
 11189 06d9 0400     		.2byte	0x4
 11190 06db F3       		.byte	0xf3
 11191 06dc 01       		.uleb128 0x1
 11192 06dd 52       		.byte	0x52
 11193 06de 9F       		.byte	0x9f
 11194 06df 54000000 		.4byte	.LVL168
 11195 06e3 58000000 		.4byte	.LVL169
 11196 06e7 0100     		.2byte	0x1
 11197 06e9 52       		.byte	0x52
 11198 06ea 58000000 		.4byte	.LVL169
 11199 06ee 5F000000 		.4byte	.LVL170-1
 11200 06f2 0100     		.2byte	0x1
 11201 06f4 51       		.byte	0x51
 11202 06f5 5F000000 		.4byte	.LVL170-1
 11203 06f9 6E000000 		.4byte	.LVL172
 11204 06fd 0100     		.2byte	0x1
 11205 06ff 55       		.byte	0x55
 11206 0700 6E000000 		.4byte	.LVL172
 11207 0704 72000000 		.4byte	.LVL173
 11208 0708 0100     		.2byte	0x1
 11209 070a 51       		.byte	0x51
 11210 070b 72000000 		.4byte	.LVL173
 11211 070f 7C000000 		.4byte	.LVL175
 11212 0713 0100     		.2byte	0x1
 11213 0715 55       		.byte	0x55
 11214 0716 7C000000 		.4byte	.LVL175
 11215 071a 80000000 		.4byte	.LVL176
 11216 071e 0100     		.2byte	0x1
 11217 0720 51       		.byte	0x51
 11218 0721 80000000 		.4byte	.LVL176
 11219 0725 88000000 		.4byte	.LFE295
 11220 0729 0100     		.2byte	0x1
 11221 072b 55       		.byte	0x55
 11222 072c 00000000 		.4byte	0
 11223 0730 00000000 		.4byte	0
 11224              	.LVUS115:
 11225 0734 01       		.uleb128 .LVU1081
 11226 0735 00       		.uleb128 .LVU1083
 11227 0736 00       		.uleb128 .LVU1084
 11228 0737 00       		.uleb128 0
 11229              	.LLST115:
ARM GAS  /tmp/ccstZxWH.s 			page 198


 11230 0738 7A000000 		.4byte	.LVL174
 11231 073c 7C000000 		.4byte	.LVL175
 11232 0740 0200     		.2byte	0x2
 11233 0742 30       		.byte	0x30
 11234 0743 9F       		.byte	0x9f
 11235 0744 80000000 		.4byte	.LVL176
 11236 0748 88000000 		.4byte	.LFE295
 11237 074c 0100     		.2byte	0x1
 11238 074e 50       		.byte	0x50
 11239 074f 00000000 		.4byte	0
 11240 0753 00000000 		.4byte	0
 11241              	.LVUS116:
 11242 0757 08       		.uleb128 .LVU989
 11243 0758 00       		.uleb128 .LVU991
 11244              	.LLST116:
 11245 0759 08000000 		.4byte	.LVL157
 11246 075d 0C000000 		.4byte	.LVL158
 11247 0761 0300     		.2byte	0x3
 11248 0763 08       		.byte	0x8
 11249 0764 20       		.byte	0x20
 11250 0765 9F       		.byte	0x9f
 11251 0766 00000000 		.4byte	0
 11252 076a 00000000 		.4byte	0
 11253              	.LVUS117:
 11254 076e 0C       		.uleb128 .LVU1018
 11255 076f 00       		.uleb128 .LVU1020
 11256              	.LLST117:
 11257 0770 1E000000 		.4byte	.LVL160
 11258 0774 24000000 		.4byte	.LVL161
 11259 0778 0200     		.2byte	0x2
 11260 077a 30       		.byte	0x30
 11261 077b 9F       		.byte	0x9f
 11262 077c 00000000 		.4byte	0
 11263 0780 00000000 		.4byte	0
 11264              	.LVUS118:
 11265 0784 01       		.uleb128 .LVU1024
 11266 0785 00       		.uleb128 .LVU1036
 11267 0786 00       		.uleb128 .LVU1036
 11268 0787 00       		.uleb128 .LVU1042
 11269 0788 00       		.uleb128 .LVU1042
 11270 0789 00       		.uleb128 .LVU1043
 11271              	.LLST118:
 11272 078a 26000000 		.4byte	.LVL162
 11273 078e 2C000000 		.4byte	.LVL163
 11274 0792 0600     		.2byte	0x6
 11275 0794 70       		.byte	0x70
 11276 0795 1C       		.sleb128 28
 11277 0796 06       		.byte	0x6
 11278 0797 34       		.byte	0x34
 11279 0798 1C       		.byte	0x1c
 11280 0799 9F       		.byte	0x9f
 11281 079a 2C000000 		.4byte	.LVL163
 11282 079e 38000000 		.4byte	.LVL165
 11283 07a2 0100     		.2byte	0x1
 11284 07a4 52       		.byte	0x52
 11285 07a5 38000000 		.4byte	.LVL165
 11286 07a9 3A000000 		.4byte	.LVL166
ARM GAS  /tmp/ccstZxWH.s 			page 199


 11287 07ad 0300     		.2byte	0x3
 11288 07af 74       		.byte	0x74
 11289 07b0 10       		.sleb128 16
 11290 07b1 06       		.byte	0x6
 11291 07b2 00000000 		.4byte	0
 11292 07b6 00000000 		.4byte	0
 11293              	.LVUS119:
 11294 07ba 01       		.uleb128 .LVU1024
 11295 07bb 00       		.uleb128 .LVU1039
 11296 07bc 00       		.uleb128 .LVU1039
 11297 07bd 00       		.uleb128 .LVU1055
 11298              	.LLST119:
 11299 07be 26000000 		.4byte	.LVL162
 11300 07c2 32000000 		.4byte	.LVL164
 11301 07c6 0100     		.2byte	0x1
 11302 07c8 50       		.byte	0x50
 11303 07c9 32000000 		.4byte	.LVL164
 11304 07cd 54000000 		.4byte	.LVL168
 11305 07d1 0100     		.2byte	0x1
 11306 07d3 54       		.byte	0x54
 11307 07d4 00000000 		.4byte	0
 11308 07d8 00000000 		.4byte	0
 11309              	.LVUS120:
 11310 07dc 00       		.uleb128 .LVU1058
 11311 07dd 00       		.uleb128 .LVU1062
 11312              	.LLST120:
 11313 07de 60000000 		.4byte	.LVL170
 11314 07e2 64000000 		.4byte	.LVL171
 11315 07e6 0100     		.2byte	0x1
 11316 07e8 50       		.byte	0x50
 11317 07e9 00000000 		.4byte	0
 11318 07ed 00000000 		.4byte	0
 11319              	.LVUS121:
 11320 07f1 00       		.uleb128 .LVU1056
 11321 07f2 00       		.uleb128 .LVU1058
 11322 07f3 00       		.uleb128 .LVU1058
 11323 07f4 00       		.uleb128 .LVU1058
 11324 07f5 02       		.uleb128 .LVU1064
 11325 07f6 00       		.uleb128 .LVU1070
 11326 07f7 00       		.uleb128 .LVU1070
 11327 07f8 00       		.uleb128 .LVU1077
 11328 07f9 00       		.uleb128 .LVU1077
 11329 07fa 00       		.uleb128 .LVU1083
 11330 07fb 00       		.uleb128 .LVU1083
 11331 07fc 00       		.uleb128 .LVU1084
 11332              	.LLST121:
 11333 07fd 58000000 		.4byte	.LVL169
 11334 0801 5F000000 		.4byte	.LVL170-1
 11335 0805 0100     		.2byte	0x1
 11336 0807 51       		.byte	0x51
 11337 0808 5F000000 		.4byte	.LVL170-1
 11338 080c 60000000 		.4byte	.LVL170
 11339 0810 0100     		.2byte	0x1
 11340 0812 55       		.byte	0x55
 11341 0813 64000000 		.4byte	.LVL171
 11342 0817 6E000000 		.4byte	.LVL172
 11343 081b 0100     		.2byte	0x1
ARM GAS  /tmp/ccstZxWH.s 			page 200


 11344 081d 55       		.byte	0x55
 11345 081e 6E000000 		.4byte	.LVL172
 11346 0822 72000000 		.4byte	.LVL173
 11347 0826 0100     		.2byte	0x1
 11348 0828 51       		.byte	0x51
 11349 0829 72000000 		.4byte	.LVL173
 11350 082d 7C000000 		.4byte	.LVL175
 11351 0831 0100     		.2byte	0x1
 11352 0833 55       		.byte	0x55
 11353 0834 7C000000 		.4byte	.LVL175
 11354 0838 80000000 		.4byte	.LVL176
 11355 083c 0100     		.2byte	0x1
 11356 083e 51       		.byte	0x51
 11357 083f 00000000 		.4byte	0
 11358 0843 00000000 		.4byte	0
 11359              	.LVUS122:
 11360 0847 00       		.uleb128 .LVU1056
 11361 0848 00       		.uleb128 .LVU1058
 11362 0849 00       		.uleb128 .LVU1058
 11363 084a 00       		.uleb128 .LVU1058
 11364 084b 02       		.uleb128 .LVU1064
 11365 084c 00       		.uleb128 .LVU1070
 11366 084d 00       		.uleb128 .LVU1070
 11367 084e 00       		.uleb128 .LVU1084
 11368              	.LLST122:
 11369 084f 58000000 		.4byte	.LVL169
 11370 0853 5F000000 		.4byte	.LVL170-1
 11371 0857 0100     		.2byte	0x1
 11372 0859 50       		.byte	0x50
 11373 085a 5F000000 		.4byte	.LVL170-1
 11374 085e 60000000 		.4byte	.LVL170
 11375 0862 0100     		.2byte	0x1
 11376 0864 54       		.byte	0x54
 11377 0865 64000000 		.4byte	.LVL171
 11378 0869 6E000000 		.4byte	.LVL172
 11379 086d 0100     		.2byte	0x1
 11380 086f 54       		.byte	0x54
 11381 0870 6E000000 		.4byte	.LVL172
 11382 0874 80000000 		.4byte	.LVL176
 11383 0878 0100     		.2byte	0x1
 11384 087a 50       		.byte	0x50
 11385 087b 00000000 		.4byte	0
 11386 087f 00000000 		.4byte	0
 11387              	.LVUS123:
 11388 0883 01       		.uleb128 .LVU1071
 11389 0884 00       		.uleb128 .LVU1077
 11390 0885 00       		.uleb128 .LVU1077
 11391 0886 01       		.uleb128 .LVU1081
 11392              	.LLST123:
 11393 0887 6E000000 		.4byte	.LVL172
 11394 088b 72000000 		.4byte	.LVL173
 11395 088f 0100     		.2byte	0x1
 11396 0891 51       		.byte	0x51
 11397 0892 72000000 		.4byte	.LVL173
 11398 0896 7A000000 		.4byte	.LVL174
 11399 089a 0100     		.2byte	0x1
 11400 089c 55       		.byte	0x55
ARM GAS  /tmp/ccstZxWH.s 			page 201


 11401 089d 00000000 		.4byte	0
 11402 08a1 00000000 		.4byte	0
 11403              	.LVUS124:
 11404 08a5 00       		.uleb128 .LVU1070
 11405 08a6 01       		.uleb128 .LVU1081
 11406              	.LLST124:
 11407 08a7 6E000000 		.4byte	.LVL172
 11408 08ab 7A000000 		.4byte	.LVL174
 11409 08af 0100     		.2byte	0x1
 11410 08b1 50       		.byte	0x50
 11411 08b2 00000000 		.4byte	0
 11412 08b6 00000000 		.4byte	0
 11413              	.LVUS125:
 11414 08ba 0E       		.uleb128 .LVU1098
 11415 08bb 00       		.uleb128 .LVU1100
 11416              	.LLST125:
 11417 08bc 80000000 		.4byte	.LVL176
 11418 08c0 86000000 		.4byte	.LVL177
 11419 08c4 0200     		.2byte	0x2
 11420 08c6 30       		.byte	0x30
 11421 08c7 9F       		.byte	0x9f
 11422 08c8 00000000 		.4byte	0
 11423 08cc 00000000 		.4byte	0
 11424              	.LVUS104:
 11425 08d0 00       		.uleb128 0
 11426 08d1 00       		.uleb128 .LVU926
 11427 08d2 00       		.uleb128 .LVU926
 11428 08d3 00       		.uleb128 0
 11429              	.LLST104:
 11430 08d4 00000000 		.4byte	.LVL144
 11431 08d8 2B000000 		.4byte	.LVL149-1
 11432 08dc 0100     		.2byte	0x1
 11433 08de 50       		.byte	0x50
 11434 08df 2B000000 		.4byte	.LVL149-1
 11435 08e3 34000000 		.4byte	.LFE293
 11436 08e7 0400     		.2byte	0x4
 11437 08e9 F3       		.byte	0xf3
 11438 08ea 01       		.uleb128 0x1
 11439 08eb 50       		.byte	0x50
 11440 08ec 9F       		.byte	0x9f
 11441 08ed 00000000 		.4byte	0
 11442 08f1 00000000 		.4byte	0
 11443              	.LVUS105:
 11444 08f5 00       		.uleb128 0
 11445 08f6 00       		.uleb128 .LVU910
 11446 08f7 00       		.uleb128 .LVU910
 11447 08f8 00       		.uleb128 .LVU912
 11448 08f9 00       		.uleb128 .LVU912
 11449 08fa 00       		.uleb128 .LVU914
 11450 08fb 00       		.uleb128 .LVU914
 11451 08fc 00       		.uleb128 0
 11452              	.LLST105:
 11453 08fd 00000000 		.4byte	.LVL144
 11454 0901 10000000 		.4byte	.LVL146
 11455 0905 0100     		.2byte	0x1
 11456 0907 51       		.byte	0x51
 11457 0908 10000000 		.4byte	.LVL146
ARM GAS  /tmp/ccstZxWH.s 			page 202


 11458 090c 14000000 		.4byte	.LVL147
 11459 0910 0200     		.2byte	0x2
 11460 0912 73       		.byte	0x73
 11461 0913 00       		.sleb128 0
 11462 0914 14000000 		.4byte	.LVL147
 11463 0918 18000000 		.4byte	.LVL148
 11464 091c 0300     		.2byte	0x3
 11465 091e 70       		.byte	0x70
 11466 091f 10       		.sleb128 16
 11467 0920 06       		.byte	0x6
 11468 0921 18000000 		.4byte	.LVL148
 11469 0925 34000000 		.4byte	.LFE293
 11470 0929 0400     		.2byte	0x4
 11471 092b F3       		.byte	0xf3
 11472 092c 01       		.uleb128 0x1
 11473 092d 51       		.byte	0x51
 11474 092e 9F       		.byte	0x9f
 11475 092f 00000000 		.4byte	0
 11476 0933 00000000 		.4byte	0
 11477              	.LVUS106:
 11478 0937 08       		.uleb128 .LVU888
 11479 0938 00       		.uleb128 .LVU892
 11480              	.LLST106:
 11481 0939 00000000 		.4byte	.LVL144
 11482 093d 08000000 		.4byte	.LVL145
 11483 0941 0300     		.2byte	0x3
 11484 0943 08       		.byte	0x8
 11485 0944 20       		.byte	0x20
 11486 0945 9F       		.byte	0x9f
 11487 0946 00000000 		.4byte	0
 11488 094a 00000000 		.4byte	0
 11489              	.LVUS107:
 11490 094e 04       		.uleb128 .LVU896
 11491 094f 00       		.uleb128 .LVU910
 11492 0950 00       		.uleb128 .LVU910
 11493 0951 00       		.uleb128 .LVU912
 11494 0952 00       		.uleb128 .LVU912
 11495 0953 00       		.uleb128 .LVU914
 11496 0954 00       		.uleb128 .LVU914
 11497 0955 00       		.uleb128 .LVU926
 11498              	.LLST107:
 11499 0956 08000000 		.4byte	.LVL145
 11500 095a 10000000 		.4byte	.LVL146
 11501 095e 0100     		.2byte	0x1
 11502 0960 51       		.byte	0x51
 11503 0961 10000000 		.4byte	.LVL146
 11504 0965 14000000 		.4byte	.LVL147
 11505 0969 0200     		.2byte	0x2
 11506 096b 73       		.byte	0x73
 11507 096c 00       		.sleb128 0
 11508 096d 14000000 		.4byte	.LVL147
 11509 0971 18000000 		.4byte	.LVL148
 11510 0975 0300     		.2byte	0x3
 11511 0977 70       		.byte	0x70
 11512 0978 10       		.sleb128 16
 11513 0979 06       		.byte	0x6
 11514 097a 18000000 		.4byte	.LVL148
ARM GAS  /tmp/ccstZxWH.s 			page 203


 11515 097e 2C000000 		.4byte	.LVL149
 11516 0982 0400     		.2byte	0x4
 11517 0984 F3       		.byte	0xf3
 11518 0985 01       		.uleb128 0x1
 11519 0986 51       		.byte	0x51
 11520 0987 9F       		.byte	0x9f
 11521 0988 00000000 		.4byte	0
 11522 098c 00000000 		.4byte	0
 11523              	.LVUS108:
 11524 0990 04       		.uleb128 .LVU896
 11525 0991 00       		.uleb128 .LVU926
 11526 0992 00       		.uleb128 .LVU926
 11527 0993 00       		.uleb128 .LVU926
 11528              	.LLST108:
 11529 0994 08000000 		.4byte	.LVL145
 11530 0998 2B000000 		.4byte	.LVL149-1
 11531 099c 0100     		.2byte	0x1
 11532 099e 50       		.byte	0x50
 11533 099f 2B000000 		.4byte	.LVL149-1
 11534 09a3 2C000000 		.4byte	.LVL149
 11535 09a7 0400     		.2byte	0x4
 11536 09a9 F3       		.byte	0xf3
 11537 09aa 01       		.uleb128 0x1
 11538 09ab 50       		.byte	0x50
 11539 09ac 9F       		.byte	0x9f
 11540 09ad 00000000 		.4byte	0
 11541 09b1 00000000 		.4byte	0
 11542              	.LVUS109:
 11543 09b5 0D       		.uleb128 .LVU939
 11544 09b6 00       		.uleb128 .LVU941
 11545              	.LLST109:
 11546 09b7 2C000000 		.4byte	.LVL149
 11547 09bb 32000000 		.4byte	.LVL150
 11548 09bf 0200     		.2byte	0x2
 11549 09c1 30       		.byte	0x30
 11550 09c2 9F       		.byte	0x9f
 11551 09c3 00000000 		.4byte	0
 11552 09c7 00000000 		.4byte	0
 11553              	.LVUS85:
 11554 09cb 00       		.uleb128 0
 11555 09cc 00       		.uleb128 .LVU779
 11556 09cd 00       		.uleb128 .LVU779
 11557 09ce 00       		.uleb128 .LVU791
 11558 09cf 00       		.uleb128 .LVU791
 11559 09d0 00       		.uleb128 .LVU803
 11560 09d1 00       		.uleb128 .LVU803
 11561 09d2 00       		.uleb128 .LVU821
 11562 09d3 00       		.uleb128 .LVU821
 11563 09d4 00       		.uleb128 .LVU822
 11564 09d5 00       		.uleb128 .LVU822
 11565 09d6 00       		.uleb128 0
 11566              	.LLST85:
 11567 09d7 00000000 		.4byte	.LVL120
 11568 09db 15000000 		.4byte	.LVL124-1
 11569 09df 0100     		.2byte	0x1
 11570 09e1 50       		.byte	0x50
 11571 09e2 15000000 		.4byte	.LVL124-1
ARM GAS  /tmp/ccstZxWH.s 			page 204


 11572 09e6 24000000 		.4byte	.LVL126
 11573 09ea 0100     		.2byte	0x1
 11574 09ec 54       		.byte	0x54
 11575 09ed 24000000 		.4byte	.LVL126
 11576 09f1 32000000 		.4byte	.LVL129
 11577 09f5 0100     		.2byte	0x1
 11578 09f7 50       		.byte	0x50
 11579 09f8 32000000 		.4byte	.LVL129
 11580 09fc 3A000000 		.4byte	.LVL131
 11581 0a00 0100     		.2byte	0x1
 11582 0a02 54       		.byte	0x54
 11583 0a03 3A000000 		.4byte	.LVL131
 11584 0a07 3E000000 		.4byte	.LVL132
 11585 0a0b 0100     		.2byte	0x1
 11586 0a0d 50       		.byte	0x50
 11587 0a0e 3E000000 		.4byte	.LVL132
 11588 0a12 46000000 		.4byte	.LFE291
 11589 0a16 0100     		.2byte	0x1
 11590 0a18 54       		.byte	0x54
 11591 0a19 00000000 		.4byte	0
 11592 0a1d 00000000 		.4byte	0
 11593              	.LVUS86:
 11594 0a21 00       		.uleb128 0
 11595 0a22 00       		.uleb128 .LVU779
 11596 0a23 00       		.uleb128 .LVU779
 11597 0a24 00       		.uleb128 .LVU791
 11598 0a25 00       		.uleb128 .LVU791
 11599 0a26 00       		.uleb128 .LVU798
 11600 0a27 00       		.uleb128 .LVU798
 11601 0a28 00       		.uleb128 .LVU821
 11602 0a29 00       		.uleb128 .LVU821
 11603 0a2a 00       		.uleb128 0
 11604              	.LLST86:
 11605 0a2b 00000000 		.4byte	.LVL120
 11606 0a2f 15000000 		.4byte	.LVL124-1
 11607 0a33 0100     		.2byte	0x1
 11608 0a35 51       		.byte	0x51
 11609 0a36 15000000 		.4byte	.LVL124-1
 11610 0a3a 24000000 		.4byte	.LVL126
 11611 0a3e 0100     		.2byte	0x1
 11612 0a40 55       		.byte	0x55
 11613 0a41 24000000 		.4byte	.LVL126
 11614 0a45 28000000 		.4byte	.LVL127
 11615 0a49 0100     		.2byte	0x1
 11616 0a4b 51       		.byte	0x51
 11617 0a4c 28000000 		.4byte	.LVL127
 11618 0a50 3A000000 		.4byte	.LVL131
 11619 0a54 0100     		.2byte	0x1
 11620 0a56 55       		.byte	0x55
 11621 0a57 3A000000 		.4byte	.LVL131
 11622 0a5b 46000000 		.4byte	.LFE291
 11623 0a5f 0100     		.2byte	0x1
 11624 0a61 51       		.byte	0x51
 11625 0a62 00000000 		.4byte	0
 11626 0a66 00000000 		.4byte	0
 11627              	.LVUS87:
 11628 0a6a 00       		.uleb128 .LVU803
ARM GAS  /tmp/ccstZxWH.s 			page 205


 11629 0a6b 00       		.uleb128 .LVU821
 11630 0a6c 00       		.uleb128 .LVU822
 11631 0a6d 00       		.uleb128 0
 11632              	.LLST87:
 11633 0a6e 32000000 		.4byte	.LVL129
 11634 0a72 3A000000 		.4byte	.LVL131
 11635 0a76 0100     		.2byte	0x1
 11636 0a78 50       		.byte	0x50
 11637 0a79 3E000000 		.4byte	.LVL132
 11638 0a7d 46000000 		.4byte	.LFE291
 11639 0a81 0100     		.2byte	0x1
 11640 0a83 50       		.byte	0x50
 11641 0a84 00000000 		.4byte	0
 11642 0a88 00000000 		.4byte	0
 11643              	.LVUS88:
 11644 0a8c 08       		.uleb128 .LVU765
 11645 0a8d 00       		.uleb128 .LVU769
 11646              	.LLST88:
 11647 0a8e 04000000 		.4byte	.LVL121
 11648 0a92 0C000000 		.4byte	.LVL122
 11649 0a96 0300     		.2byte	0x3
 11650 0a98 08       		.byte	0x8
 11651 0a99 20       		.byte	0x20
 11652 0a9a 9F       		.byte	0x9f
 11653 0a9b 00000000 		.4byte	0
 11654 0a9f 00000000 		.4byte	0
 11655              	.LVUS89:
 11656 0aa3 04       		.uleb128 .LVU773
 11657 0aa4 00       		.uleb128 .LVU779
 11658 0aa5 00       		.uleb128 .LVU779
 11659 0aa6 00       		.uleb128 .LVU791
 11660 0aa7 00       		.uleb128 .LVU791
 11661 0aa8 00       		.uleb128 .LVU798
 11662 0aa9 00       		.uleb128 .LVU798
 11663 0aaa 00       		.uleb128 .LVU803
 11664 0aab 00       		.uleb128 .LVU821
 11665 0aac 00       		.uleb128 .LVU822
 11666              	.LLST89:
 11667 0aad 0C000000 		.4byte	.LVL122
 11668 0ab1 15000000 		.4byte	.LVL124-1
 11669 0ab5 0100     		.2byte	0x1
 11670 0ab7 51       		.byte	0x51
 11671 0ab8 15000000 		.4byte	.LVL124-1
 11672 0abc 24000000 		.4byte	.LVL126
 11673 0ac0 0100     		.2byte	0x1
 11674 0ac2 55       		.byte	0x55
 11675 0ac3 24000000 		.4byte	.LVL126
 11676 0ac7 28000000 		.4byte	.LVL127
 11677 0acb 0100     		.2byte	0x1
 11678 0acd 51       		.byte	0x51
 11679 0ace 28000000 		.4byte	.LVL127
 11680 0ad2 32000000 		.4byte	.LVL129
 11681 0ad6 0100     		.2byte	0x1
 11682 0ad8 55       		.byte	0x55
 11683 0ad9 3A000000 		.4byte	.LVL131
 11684 0add 3E000000 		.4byte	.LVL132
 11685 0ae1 0100     		.2byte	0x1
ARM GAS  /tmp/ccstZxWH.s 			page 206


 11686 0ae3 51       		.byte	0x51
 11687 0ae4 00000000 		.4byte	0
 11688 0ae8 00000000 		.4byte	0
 11689              	.LVUS90:
 11690 0aec 04       		.uleb128 .LVU773
 11691 0aed 00       		.uleb128 .LVU779
 11692 0aee 00       		.uleb128 .LVU779
 11693 0aef 00       		.uleb128 .LVU791
 11694 0af0 00       		.uleb128 .LVU791
 11695 0af1 00       		.uleb128 .LVU803
 11696 0af2 00       		.uleb128 .LVU821
 11697 0af3 00       		.uleb128 .LVU822
 11698              	.LLST90:
 11699 0af4 0C000000 		.4byte	.LVL122
 11700 0af8 15000000 		.4byte	.LVL124-1
 11701 0afc 0100     		.2byte	0x1
 11702 0afe 50       		.byte	0x50
 11703 0aff 15000000 		.4byte	.LVL124-1
 11704 0b03 24000000 		.4byte	.LVL126
 11705 0b07 0100     		.2byte	0x1
 11706 0b09 54       		.byte	0x54
 11707 0b0a 24000000 		.4byte	.LVL126
 11708 0b0e 32000000 		.4byte	.LVL129
 11709 0b12 0100     		.2byte	0x1
 11710 0b14 50       		.byte	0x50
 11711 0b15 3A000000 		.4byte	.LVL131
 11712 0b19 3E000000 		.4byte	.LVL132
 11713 0b1d 0100     		.2byte	0x1
 11714 0b1f 50       		.byte	0x50
 11715 0b20 00000000 		.4byte	0
 11716 0b24 00000000 		.4byte	0
 11717              	.LVUS91:
 11718 0b28 00       		.uleb128 .LVU779
 11719 0b29 00       		.uleb128 .LVU783
 11720              	.LLST91:
 11721 0b2a 16000000 		.4byte	.LVL124
 11722 0b2e 1A000000 		.4byte	.LVL125
 11723 0b32 0100     		.2byte	0x1
 11724 0b34 50       		.byte	0x50
 11725 0b35 00000000 		.4byte	0
 11726 0b39 00000000 		.4byte	0
 11727              	.LVUS92:
 11728 0b3d 00       		.uleb128 .LVU777
 11729 0b3e 00       		.uleb128 .LVU779
 11730 0b3f 00       		.uleb128 .LVU779
 11731 0b40 00       		.uleb128 .LVU779
 11732 0b41 02       		.uleb128 .LVU785
 11733 0b42 00       		.uleb128 .LVU791
 11734 0b43 00       		.uleb128 .LVU791
 11735 0b44 00       		.uleb128 .LVU798
 11736 0b45 00       		.uleb128 .LVU798
 11737 0b46 00       		.uleb128 .LVU803
 11738 0b47 00       		.uleb128 .LVU821
 11739 0b48 00       		.uleb128 0
 11740              	.LLST92:
 11741 0b49 0E000000 		.4byte	.LVL123
 11742 0b4d 15000000 		.4byte	.LVL124-1
ARM GAS  /tmp/ccstZxWH.s 			page 207


 11743 0b51 0100     		.2byte	0x1
 11744 0b53 51       		.byte	0x51
 11745 0b54 15000000 		.4byte	.LVL124-1
 11746 0b58 16000000 		.4byte	.LVL124
 11747 0b5c 0100     		.2byte	0x1
 11748 0b5e 55       		.byte	0x55
 11749 0b5f 1A000000 		.4byte	.LVL125
 11750 0b63 24000000 		.4byte	.LVL126
 11751 0b67 0100     		.2byte	0x1
 11752 0b69 55       		.byte	0x55
 11753 0b6a 24000000 		.4byte	.LVL126
 11754 0b6e 28000000 		.4byte	.LVL127
 11755 0b72 0100     		.2byte	0x1
 11756 0b74 51       		.byte	0x51
 11757 0b75 28000000 		.4byte	.LVL127
 11758 0b79 32000000 		.4byte	.LVL129
 11759 0b7d 0100     		.2byte	0x1
 11760 0b7f 55       		.byte	0x55
 11761 0b80 3A000000 		.4byte	.LVL131
 11762 0b84 46000000 		.4byte	.LFE291
 11763 0b88 0100     		.2byte	0x1
 11764 0b8a 51       		.byte	0x51
 11765 0b8b 00000000 		.4byte	0
 11766 0b8f 00000000 		.4byte	0
 11767              	.LVUS93:
 11768 0b93 00       		.uleb128 .LVU777
 11769 0b94 00       		.uleb128 .LVU779
 11770 0b95 00       		.uleb128 .LVU779
 11771 0b96 00       		.uleb128 .LVU779
 11772 0b97 02       		.uleb128 .LVU785
 11773 0b98 00       		.uleb128 .LVU791
 11774 0b99 00       		.uleb128 .LVU791
 11775 0b9a 00       		.uleb128 .LVU803
 11776 0b9b 00       		.uleb128 .LVU821
 11777 0b9c 00       		.uleb128 .LVU822
 11778 0b9d 00       		.uleb128 .LVU822
 11779 0b9e 00       		.uleb128 0
 11780              	.LLST93:
 11781 0b9f 0E000000 		.4byte	.LVL123
 11782 0ba3 15000000 		.4byte	.LVL124-1
 11783 0ba7 0100     		.2byte	0x1
 11784 0ba9 50       		.byte	0x50
 11785 0baa 15000000 		.4byte	.LVL124-1
 11786 0bae 16000000 		.4byte	.LVL124
 11787 0bb2 0100     		.2byte	0x1
 11788 0bb4 54       		.byte	0x54
 11789 0bb5 1A000000 		.4byte	.LVL125
 11790 0bb9 24000000 		.4byte	.LVL126
 11791 0bbd 0100     		.2byte	0x1
 11792 0bbf 54       		.byte	0x54
 11793 0bc0 24000000 		.4byte	.LVL126
 11794 0bc4 32000000 		.4byte	.LVL129
 11795 0bc8 0100     		.2byte	0x1
 11796 0bca 50       		.byte	0x50
 11797 0bcb 3A000000 		.4byte	.LVL131
 11798 0bcf 3E000000 		.4byte	.LVL132
 11799 0bd3 0100     		.2byte	0x1
ARM GAS  /tmp/ccstZxWH.s 			page 208


 11800 0bd5 50       		.byte	0x50
 11801 0bd6 3E000000 		.4byte	.LVL132
 11802 0bda 46000000 		.4byte	.LFE291
 11803 0bde 0100     		.2byte	0x1
 11804 0be0 54       		.byte	0x54
 11805 0be1 00000000 		.4byte	0
 11806 0be5 00000000 		.4byte	0
 11807              	.LVUS94:
 11808 0be9 01       		.uleb128 .LVU792
 11809 0bea 00       		.uleb128 .LVU798
 11810 0beb 00       		.uleb128 .LVU798
 11811 0bec 01       		.uleb128 .LVU802
 11812              	.LLST94:
 11813 0bed 24000000 		.4byte	.LVL126
 11814 0bf1 28000000 		.4byte	.LVL127
 11815 0bf5 0100     		.2byte	0x1
 11816 0bf7 51       		.byte	0x51
 11817 0bf8 28000000 		.4byte	.LVL127
 11818 0bfc 30000000 		.4byte	.LVL128
 11819 0c00 0100     		.2byte	0x1
 11820 0c02 55       		.byte	0x55
 11821 0c03 00000000 		.4byte	0
 11822 0c07 00000000 		.4byte	0
 11823              	.LVUS95:
 11824 0c0b 00       		.uleb128 .LVU791
 11825 0c0c 01       		.uleb128 .LVU802
 11826              	.LLST95:
 11827 0c0d 24000000 		.4byte	.LVL126
 11828 0c11 30000000 		.4byte	.LVL128
 11829 0c15 0100     		.2byte	0x1
 11830 0c17 50       		.byte	0x50
 11831 0c18 00000000 		.4byte	0
 11832 0c1c 00000000 		.4byte	0
 11833              	.LVUS96:
 11834 0c20 0D       		.uleb128 .LVU816
 11835 0c21 00       		.uleb128 .LVU818
 11836 0c22 0D       		.uleb128 .LVU835
 11837 0c23 00       		.uleb128 .LVU837
 11838              	.LLST96:
 11839 0c24 32000000 		.4byte	.LVL129
 11840 0c28 38000000 		.4byte	.LVL130
 11841 0c2c 0200     		.2byte	0x2
 11842 0c2e 30       		.byte	0x30
 11843 0c2f 9F       		.byte	0x9f
 11844 0c30 3E000000 		.4byte	.LVL132
 11845 0c34 44000000 		.4byte	.LVL133
 11846 0c38 0200     		.2byte	0x2
 11847 0c3a 30       		.byte	0x30
 11848 0c3b 9F       		.byte	0x9f
 11849 0c3c 00000000 		.4byte	0
 11850 0c40 00000000 		.4byte	0
 11851              	.LVUS83:
 11852 0c44 00       		.uleb128 0
 11853 0c45 00       		.uleb128 .LVU753
 11854 0c46 00       		.uleb128 .LVU753
 11855 0c47 00       		.uleb128 0
 11856              	.LLST83:
ARM GAS  /tmp/ccstZxWH.s 			page 209


 11857 0c48 00000000 		.4byte	.LVL117
 11858 0c4c 23000000 		.4byte	.LVL119-1
 11859 0c50 0100     		.2byte	0x1
 11860 0c52 50       		.byte	0x50
 11861 0c53 23000000 		.4byte	.LVL119-1
 11862 0c57 24000000 		.4byte	.LFE290
 11863 0c5b 0400     		.2byte	0x4
 11864 0c5d F3       		.byte	0xf3
 11865 0c5e 01       		.uleb128 0x1
 11866 0c5f 50       		.byte	0x50
 11867 0c60 9F       		.byte	0x9f
 11868 0c61 00000000 		.4byte	0
 11869 0c65 00000000 		.4byte	0
 11870              	.LVUS84:
 11871 0c69 01       		.uleb128 .LVU751
 11872 0c6a 00       		.uleb128 .LVU753
 11873 0c6b 00       		.uleb128 .LVU753
 11874 0c6c 00       		.uleb128 0
 11875              	.LLST84:
 11876 0c6d 1E000000 		.4byte	.LVL118
 11877 0c71 23000000 		.4byte	.LVL119-1
 11878 0c75 0100     		.2byte	0x1
 11879 0c77 50       		.byte	0x50
 11880 0c78 23000000 		.4byte	.LVL119-1
 11881 0c7c 24000000 		.4byte	.LFE290
 11882 0c80 0400     		.2byte	0x4
 11883 0c82 F3       		.byte	0xf3
 11884 0c83 01       		.uleb128 0x1
 11885 0c84 50       		.byte	0x50
 11886 0c85 9F       		.byte	0x9f
 11887 0c86 00000000 		.4byte	0
 11888 0c8a 00000000 		.4byte	0
 11889              	.LVUS82:
 11890 0c8e 00       		.uleb128 0
 11891 0c8f 00       		.uleb128 .LVU722
 11892 0c90 00       		.uleb128 .LVU722
 11893 0c91 00       		.uleb128 .LVU723
 11894 0c92 00       		.uleb128 .LVU723
 11895 0c93 00       		.uleb128 .LVU728
 11896 0c94 00       		.uleb128 .LVU728
 11897 0c95 00       		.uleb128 .LVU729
 11898 0c96 00       		.uleb128 .LVU729
 11899 0c97 00       		.uleb128 0
 11900              	.LLST82:
 11901 0c98 00000000 		.4byte	.LVL112
 11902 0c9c 06000000 		.4byte	.LVL113
 11903 0ca0 0100     		.2byte	0x1
 11904 0ca2 50       		.byte	0x50
 11905 0ca3 06000000 		.4byte	.LVL113
 11906 0ca7 0A000000 		.4byte	.LVL114
 11907 0cab 0100     		.2byte	0x1
 11908 0cad 53       		.byte	0x53
 11909 0cae 0A000000 		.4byte	.LVL114
 11910 0cb2 12000000 		.4byte	.LVL115
 11911 0cb6 0400     		.2byte	0x4
 11912 0cb8 F3       		.byte	0xf3
 11913 0cb9 01       		.uleb128 0x1
ARM GAS  /tmp/ccstZxWH.s 			page 210


 11914 0cba 50       		.byte	0x50
 11915 0cbb 9F       		.byte	0x9f
 11916 0cbc 12000000 		.4byte	.LVL115
 11917 0cc0 14000000 		.4byte	.LVL116
 11918 0cc4 0100     		.2byte	0x1
 11919 0cc6 53       		.byte	0x53
 11920 0cc7 14000000 		.4byte	.LVL116
 11921 0ccb 1C000000 		.4byte	.LFE289
 11922 0ccf 0400     		.2byte	0x4
 11923 0cd1 F3       		.byte	0xf3
 11924 0cd2 01       		.uleb128 0x1
 11925 0cd3 50       		.byte	0x50
 11926 0cd4 9F       		.byte	0x9f
 11927 0cd5 00000000 		.4byte	0
 11928 0cd9 00000000 		.4byte	0
 11929              	.LVUS81:
 11930 0cdd 00       		.uleb128 0
 11931 0cde 00       		.uleb128 .LVU716
 11932 0cdf 00       		.uleb128 .LVU716
 11933 0ce0 00       		.uleb128 0
 11934              	.LLST81:
 11935 0ce1 00000000 		.4byte	.LVL109
 11936 0ce5 19000000 		.4byte	.LVL111-1
 11937 0ce9 0100     		.2byte	0x1
 11938 0ceb 50       		.byte	0x50
 11939 0cec 19000000 		.4byte	.LVL111-1
 11940 0cf0 1A000000 		.4byte	.LFE288
 11941 0cf4 0400     		.2byte	0x4
 11942 0cf6 F3       		.byte	0xf3
 11943 0cf7 01       		.uleb128 0x1
 11944 0cf8 50       		.byte	0x50
 11945 0cf9 9F       		.byte	0x9f
 11946 0cfa 00000000 		.4byte	0
 11947 0cfe 00000000 		.4byte	0
 11948              	.LVUS72:
 11949 0d02 00       		.uleb128 0
 11950 0d03 00       		.uleb128 .LVU682
 11951 0d04 00       		.uleb128 .LVU682
 11952 0d05 00       		.uleb128 0
 11953              	.LLST72:
 11954 0d06 00000000 		.4byte	.LVL102
 11955 0d0a 0C000000 		.4byte	.LVL105
 11956 0d0e 0100     		.2byte	0x1
 11957 0d10 51       		.byte	0x51
 11958 0d11 0C000000 		.4byte	.LVL105
 11959 0d15 30000000 		.4byte	.LFE287
 11960 0d19 0200     		.2byte	0x2
 11961 0d1b 70       		.byte	0x70
 11962 0d1c 08       		.sleb128 8
 11963 0d1d 00000000 		.4byte	0
 11964 0d21 00000000 		.4byte	0
 11965              	.LVUS73:
 11966 0d25 00       		.uleb128 0
 11967 0d26 00       		.uleb128 .LVU688
 11968 0d27 00       		.uleb128 .LVU688
 11969 0d28 00       		.uleb128 0
 11970              	.LLST73:
ARM GAS  /tmp/ccstZxWH.s 			page 211


 11971 0d29 00000000 		.4byte	.LVL102
 11972 0d2d 20000000 		.4byte	.LVL106
 11973 0d31 0100     		.2byte	0x1
 11974 0d33 52       		.byte	0x52
 11975 0d34 20000000 		.4byte	.LVL106
 11976 0d38 30000000 		.4byte	.LFE287
 11977 0d3c 0200     		.2byte	0x2
 11978 0d3e 70       		.byte	0x70
 11979 0d3f 14       		.sleb128 20
 11980 0d40 00000000 		.4byte	0
 11981 0d44 00000000 		.4byte	0
 11982              	.LVUS74:
 11983 0d48 00       		.uleb128 0
 11984 0d49 00       		.uleb128 .LVU681
 11985 0d4a 00       		.uleb128 .LVU681
 11986 0d4b 00       		.uleb128 .LVU688
 11987 0d4c 00       		.uleb128 .LVU688
 11988 0d4d 00       		.uleb128 0
 11989              	.LLST74:
 11990 0d4e 00000000 		.4byte	.LVL102
 11991 0d52 08000000 		.4byte	.LVL104
 11992 0d56 0100     		.2byte	0x1
 11993 0d58 53       		.byte	0x53
 11994 0d59 08000000 		.4byte	.LVL104
 11995 0d5d 20000000 		.4byte	.LVL106
 11996 0d61 0300     		.2byte	0x3
 11997 0d63 73       		.byte	0x73
 11998 0d64 7C       		.sleb128 -4
 11999 0d65 9F       		.byte	0x9f
 12000 0d66 20000000 		.4byte	.LVL106
 12001 0d6a 30000000 		.4byte	.LFE287
 12002 0d6e 0600     		.2byte	0x6
 12003 0d70 70       		.byte	0x70
 12004 0d71 1C       		.sleb128 28
 12005 0d72 06       		.byte	0x6
 12006 0d73 34       		.byte	0x34
 12007 0d74 1C       		.byte	0x1c
 12008 0d75 9F       		.byte	0x9f
 12009 0d76 00000000 		.4byte	0
 12010 0d7a 00000000 		.4byte	0
 12011              	.LVUS75:
 12012 0d7e 00       		.uleb128 0
 12013 0d7f 00       		.uleb128 .LVU700
 12014 0d80 00       		.uleb128 .LVU700
 12015 0d81 00       		.uleb128 0
 12016              	.LLST75:
 12017 0d82 00000000 		.4byte	.LVL102
 12018 0d86 2C000000 		.4byte	.LVL108
 12019 0d8a 0200     		.2byte	0x2
 12020 0d8c 91       		.byte	0x91
 12021 0d8d 00       		.sleb128 0
 12022 0d8e 2C000000 		.4byte	.LVL108
 12023 0d92 30000000 		.4byte	.LFE287
 12024 0d96 0200     		.2byte	0x2
 12025 0d98 7D       		.byte	0x7d
 12026 0d99 00       		.sleb128 0
 12027 0d9a 00000000 		.4byte	0
ARM GAS  /tmp/ccstZxWH.s 			page 212


 12028 0d9e 00000000 		.4byte	0
 12029              	.LVUS76:
 12030 0da2 00       		.uleb128 0
 12031 0da3 00       		.uleb128 .LVU700
 12032 0da4 00       		.uleb128 .LVU700
 12033 0da5 00       		.uleb128 0
 12034              	.LLST76:
 12035 0da6 00000000 		.4byte	.LVL102
 12036 0daa 2C000000 		.4byte	.LVL108
 12037 0dae 0200     		.2byte	0x2
 12038 0db0 91       		.byte	0x91
 12039 0db1 04       		.sleb128 4
 12040 0db2 2C000000 		.4byte	.LVL108
 12041 0db6 30000000 		.4byte	.LFE287
 12042 0dba 0200     		.2byte	0x2
 12043 0dbc 7D       		.byte	0x7d
 12044 0dbd 04       		.sleb128 4
 12045 0dbe 00000000 		.4byte	0
 12046 0dc2 00000000 		.4byte	0
 12047              	.LVUS77:
 12048 0dc6 00       		.uleb128 0
 12049 0dc7 00       		.uleb128 .LVU700
 12050 0dc8 00       		.uleb128 .LVU700
 12051 0dc9 00       		.uleb128 0
 12052              	.LLST77:
 12053 0dca 00000000 		.4byte	.LVL102
 12054 0dce 2C000000 		.4byte	.LVL108
 12055 0dd2 0200     		.2byte	0x2
 12056 0dd4 91       		.byte	0x91
 12057 0dd5 08       		.sleb128 8
 12058 0dd6 2C000000 		.4byte	.LVL108
 12059 0dda 30000000 		.4byte	.LFE287
 12060 0dde 0200     		.2byte	0x2
 12061 0de0 7D       		.byte	0x7d
 12062 0de1 08       		.sleb128 8
 12063 0de2 00000000 		.4byte	0
 12064 0de6 00000000 		.4byte	0
 12065              	.LVUS78:
 12066 0dea 00       		.uleb128 .LVU673
 12067 0deb 00       		.uleb128 .LVU690
 12068              	.LLST78:
 12069 0dec 04000000 		.4byte	.LVL103
 12070 0df0 26000000 		.4byte	.LVL107
 12071 0df4 0100     		.2byte	0x1
 12072 0df6 50       		.byte	0x50
 12073 0df7 00000000 		.4byte	0
 12074 0dfb 00000000 		.4byte	0
 12075              	.LVUS79:
 12076 0dff 02       		.uleb128 .LVU675
 12077 0e00 00       		.uleb128 .LVU690
 12078              	.LLST79:
 12079 0e01 04000000 		.4byte	.LVL103
 12080 0e05 26000000 		.4byte	.LVL107
 12081 0e09 0100     		.2byte	0x1
 12082 0e0b 50       		.byte	0x50
 12083 0e0c 00000000 		.4byte	0
 12084 0e10 00000000 		.4byte	0
ARM GAS  /tmp/ccstZxWH.s 			page 213


 12085              	.LVUS80:
 12086 0e14 04       		.uleb128 .LVU677
 12087 0e15 00       		.uleb128 .LVU690
 12088              	.LLST80:
 12089 0e16 04000000 		.4byte	.LVL103
 12090 0e1a 26000000 		.4byte	.LVL107
 12091 0e1e 0100     		.2byte	0x1
 12092 0e20 50       		.byte	0x50
 12093 0e21 00000000 		.4byte	0
 12094 0e25 00000000 		.4byte	0
 12095              	.LVUS50:
 12096 0e29 00       		.uleb128 0
 12097 0e2a 00       		.uleb128 .LVU476
 12098 0e2b 00       		.uleb128 .LVU476
 12099 0e2c 00       		.uleb128 .LVU549
 12100 0e2d 00       		.uleb128 .LVU549
 12101 0e2e 00       		.uleb128 .LVU551
 12102 0e2f 00       		.uleb128 .LVU551
 12103 0e30 00       		.uleb128 .LVU562
 12104 0e31 00       		.uleb128 .LVU562
 12105 0e32 00       		.uleb128 .LVU575
 12106 0e33 00       		.uleb128 .LVU575
 12107 0e34 00       		.uleb128 .LVU613
 12108 0e35 00       		.uleb128 .LVU613
 12109 0e36 00       		.uleb128 .LVU616
 12110 0e37 00       		.uleb128 .LVU616
 12111 0e38 00       		.uleb128 .LVU627
 12112 0e39 00       		.uleb128 .LVU627
 12113 0e3a 00       		.uleb128 .LVU628
 12114 0e3b 00       		.uleb128 .LVU628
 12115 0e3c 00       		.uleb128 0
 12116              	.LLST50:
 12117 0e3d 00000000 		.4byte	.LVL67
 12118 0e41 2A000000 		.4byte	.LVL72
 12119 0e45 0100     		.2byte	0x1
 12120 0e47 50       		.byte	0x50
 12121 0e48 2A000000 		.4byte	.LVL72
 12122 0e4c A6000000 		.4byte	.LVL83
 12123 0e50 0100     		.2byte	0x1
 12124 0e52 54       		.byte	0x54
 12125 0e53 A6000000 		.4byte	.LVL83
 12126 0e57 AF000000 		.4byte	.LVL84-1
 12127 0e5b 0100     		.2byte	0x1
 12128 0e5d 50       		.byte	0x50
 12129 0e5e AF000000 		.4byte	.LVL84-1
 12130 0e62 BE000000 		.4byte	.LVL86
 12131 0e66 0100     		.2byte	0x1
 12132 0e68 54       		.byte	0x54
 12133 0e69 BE000000 		.4byte	.LVL86
 12134 0e6d CC000000 		.4byte	.LVL88
 12135 0e71 0100     		.2byte	0x1
 12136 0e73 50       		.byte	0x50
 12137 0e74 CC000000 		.4byte	.LVL88
 12138 0e78 0C010000 		.4byte	.LVL94
 12139 0e7c 0100     		.2byte	0x1
 12140 0e7e 54       		.byte	0x54
 12141 0e7f 0C010000 		.4byte	.LVL94
ARM GAS  /tmp/ccstZxWH.s 			page 214


 12142 0e83 13010000 		.4byte	.LVL95-1
 12143 0e87 0100     		.2byte	0x1
 12144 0e89 50       		.byte	0x50
 12145 0e8a 13010000 		.4byte	.LVL95-1
 12146 0e8e 22010000 		.4byte	.LVL97
 12147 0e92 0100     		.2byte	0x1
 12148 0e94 54       		.byte	0x54
 12149 0e95 22010000 		.4byte	.LVL97
 12150 0e99 24010000 		.4byte	.LVL98
 12151 0e9d 0100     		.2byte	0x1
 12152 0e9f 50       		.byte	0x50
 12153 0ea0 24010000 		.4byte	.LVL98
 12154 0ea4 3E010000 		.4byte	.LFE286
 12155 0ea8 0100     		.2byte	0x1
 12156 0eaa 54       		.byte	0x54
 12157 0eab 00000000 		.4byte	0
 12158 0eaf 00000000 		.4byte	0
 12159              	.LVUS51:
 12160 0eb3 00       		.uleb128 0
 12161 0eb4 00       		.uleb128 .LVU466
 12162 0eb5 00       		.uleb128 .LVU466
 12163 0eb6 00       		.uleb128 0
 12164              	.LLST51:
 12165 0eb7 00000000 		.4byte	.LVL67
 12166 0ebb 1A000000 		.4byte	.LVL70
 12167 0ebf 0100     		.2byte	0x1
 12168 0ec1 51       		.byte	0x51
 12169 0ec2 1A000000 		.4byte	.LVL70
 12170 0ec6 3E010000 		.4byte	.LFE286
 12171 0eca 0100     		.2byte	0x1
 12172 0ecc 56       		.byte	0x56
 12173 0ecd 00000000 		.4byte	0
 12174 0ed1 00000000 		.4byte	0
 12175              	.LVUS52:
 12176 0ed5 00       		.uleb128 0
 12177 0ed6 00       		.uleb128 .LVU476
 12178 0ed7 00       		.uleb128 .LVU476
 12179 0ed8 00       		.uleb128 0
 12180              	.LLST52:
 12181 0ed9 00000000 		.4byte	.LVL67
 12182 0edd 2A000000 		.4byte	.LVL72
 12183 0ee1 0100     		.2byte	0x1
 12184 0ee3 52       		.byte	0x52
 12185 0ee4 2A000000 		.4byte	.LVL72
 12186 0ee8 3E010000 		.4byte	.LFE286
 12187 0eec 0100     		.2byte	0x1
 12188 0eee 57       		.byte	0x57
 12189 0eef 00000000 		.4byte	0
 12190 0ef3 00000000 		.4byte	0
 12191              	.LVUS53:
 12192 0ef7 00       		.uleb128 0
 12193 0ef8 00       		.uleb128 .LVU451
 12194 0ef9 00       		.uleb128 .LVU451
 12195 0efa 00       		.uleb128 .LVU613
 12196 0efb 00       		.uleb128 .LVU613
 12197 0efc 00       		.uleb128 .LVU616
 12198 0efd 00       		.uleb128 .LVU616
ARM GAS  /tmp/ccstZxWH.s 			page 215


 12199 0efe 00       		.uleb128 .LVU627
 12200 0eff 00       		.uleb128 .LVU627
 12201 0f00 00       		.uleb128 .LVU628
 12202 0f01 00       		.uleb128 .LVU628
 12203 0f02 00       		.uleb128 0
 12204              	.LLST53:
 12205 0f03 00000000 		.4byte	.LVL67
 12206 0f07 10000000 		.4byte	.LVL68
 12207 0f0b 0100     		.2byte	0x1
 12208 0f0d 53       		.byte	0x53
 12209 0f0e 10000000 		.4byte	.LVL68
 12210 0f12 0C010000 		.4byte	.LVL94
 12211 0f16 0100     		.2byte	0x1
 12212 0f18 58       		.byte	0x58
 12213 0f19 0C010000 		.4byte	.LVL94
 12214 0f1d 13010000 		.4byte	.LVL95-1
 12215 0f21 0100     		.2byte	0x1
 12216 0f23 51       		.byte	0x51
 12217 0f24 13010000 		.4byte	.LVL95-1
 12218 0f28 22010000 		.4byte	.LVL97
 12219 0f2c 0100     		.2byte	0x1
 12220 0f2e 58       		.byte	0x58
 12221 0f2f 22010000 		.4byte	.LVL97
 12222 0f33 24010000 		.4byte	.LVL98
 12223 0f37 0100     		.2byte	0x1
 12224 0f39 51       		.byte	0x51
 12225 0f3a 24010000 		.4byte	.LVL98
 12226 0f3e 3E010000 		.4byte	.LFE286
 12227 0f42 0100     		.2byte	0x1
 12228 0f44 58       		.byte	0x58
 12229 0f45 00000000 		.4byte	0
 12230 0f49 00000000 		.4byte	0
 12231              	.LVUS54:
 12232 0f4d 02       		.uleb128 .LVU435
 12233 0f4e 00       		.uleb128 .LVU470
 12234 0f4f 00       		.uleb128 .LVU470
 12235 0f50 00       		.uleb128 0
 12236              	.LLST54:
 12237 0f51 00000000 		.4byte	.LVL67
 12238 0f55 22000000 		.4byte	.LVL71
 12239 0f59 0200     		.2byte	0x2
 12240 0f5b 30       		.byte	0x30
 12241 0f5c 9F       		.byte	0x9f
 12242 0f5d 22000000 		.4byte	.LVL71
 12243 0f61 3E010000 		.4byte	.LFE286
 12244 0f65 0100     		.2byte	0x1
 12245 0f67 55       		.byte	0x55
 12246 0f68 00000000 		.4byte	0
 12247 0f6c 00000000 		.4byte	0
 12248              	.LVUS55:
 12249 0f70 00       		.uleb128 .LVU470
 12250 0f71 00       		.uleb128 .LVU476
 12251              	.LLST55:
 12252 0f72 22000000 		.4byte	.LVL71
 12253 0f76 2A000000 		.4byte	.LVL72
 12254 0f7a 0100     		.2byte	0x1
 12255 0f7c 53       		.byte	0x53
ARM GAS  /tmp/ccstZxWH.s 			page 216


 12256 0f7d 00000000 		.4byte	0
 12257 0f81 00000000 		.4byte	0
 12258              	.LVUS57:
 12259 0f85 00       		.uleb128 .LVU480
 12260 0f86 00       		.uleb128 .LVU481
 12261 0f87 00       		.uleb128 .LVU481
 12262 0f88 00       		.uleb128 .LVU484
 12263 0f89 00       		.uleb128 .LVU575
 12264 0f8a 00       		.uleb128 .LVU589
 12265              	.LLST57:
 12266 0f8b 32000000 		.4byte	.LVL73
 12267 0f8f 38000000 		.4byte	.LVL74
 12268 0f93 0100     		.2byte	0x1
 12269 0f95 52       		.byte	0x52
 12270 0f96 38000000 		.4byte	.LVL74
 12271 0f9a 44000000 		.4byte	.LVL75
 12272 0f9e 0100     		.2byte	0x1
 12273 0fa0 5B       		.byte	0x5b
 12274 0fa1 CC000000 		.4byte	.LVL88
 12275 0fa5 E4000000 		.4byte	.LVL92
 12276 0fa9 0100     		.2byte	0x1
 12277 0fab 5B       		.byte	0x5b
 12278 0fac 00000000 		.4byte	0
 12279 0fb0 00000000 		.4byte	0
 12280              	.LVUS58:
 12281 0fb4 01       		.uleb128 .LVU573
 12282 0fb5 00       		.uleb128 .LVU575
 12283              	.LLST58:
 12284 0fb6 CA000000 		.4byte	.LVL87
 12285 0fba CC000000 		.4byte	.LVL88
 12286 0fbe 0200     		.2byte	0x2
 12287 0fc0 30       		.byte	0x30
 12288 0fc1 9F       		.byte	0x9f
 12289 0fc2 00000000 		.4byte	0
 12290 0fc6 00000000 		.4byte	0
 12291              	.LVUS59:
 12292 0fca 00       		.uleb128 .LVU547
 12293 0fcb 00       		.uleb128 .LVU549
 12294 0fcc 00       		.uleb128 .LVU549
 12295 0fcd 00       		.uleb128 .LVU551
 12296 0fce 00       		.uleb128 .LVU551
 12297 0fcf 00       		.uleb128 .LVU562
 12298 0fd0 00       		.uleb128 .LVU648
 12299 0fd1 00       		.uleb128 0
 12300              	.LLST59:
 12301 0fd2 A0000000 		.4byte	.LVL82
 12302 0fd6 A6000000 		.4byte	.LVL83
 12303 0fda 0100     		.2byte	0x1
 12304 0fdc 5B       		.byte	0x5b
 12305 0fdd A6000000 		.4byte	.LVL83
 12306 0fe1 AF000000 		.4byte	.LVL84-1
 12307 0fe5 0100     		.2byte	0x1
 12308 0fe7 51       		.byte	0x51
 12309 0fe8 AF000000 		.4byte	.LVL84-1
 12310 0fec BE000000 		.4byte	.LVL86
 12311 0ff0 0100     		.2byte	0x1
 12312 0ff2 5B       		.byte	0x5b
ARM GAS  /tmp/ccstZxWH.s 			page 217


 12313 0ff3 32010000 		.4byte	.LVL100
 12314 0ff7 3E010000 		.4byte	.LFE286
 12315 0ffb 0100     		.2byte	0x1
 12316 0ffd 5B       		.byte	0x5b
 12317 0ffe 00000000 		.4byte	0
 12318 1002 00000000 		.4byte	0
 12319              	.LVUS60:
 12320 1006 00       		.uleb128 .LVU551
 12321 1007 00       		.uleb128 .LVU554
 12322              	.LLST60:
 12323 1008 B0000000 		.4byte	.LVL84
 12324 100c B4000000 		.4byte	.LVL85
 12325 1010 0100     		.2byte	0x1
 12326 1012 50       		.byte	0x50
 12327 1013 00000000 		.4byte	0
 12328 1017 00000000 		.4byte	0
 12329              	.LVUS61:
 12330 101b 00       		.uleb128 .LVU549
 12331 101c 00       		.uleb128 .LVU551
 12332 101d 00       		.uleb128 .LVU551
 12333 101e 00       		.uleb128 .LVU551
 12334 101f 02       		.uleb128 .LVU556
 12335 1020 00       		.uleb128 .LVU562
 12336              	.LLST61:
 12337 1021 A6000000 		.4byte	.LVL83
 12338 1025 AF000000 		.4byte	.LVL84-1
 12339 1029 0100     		.2byte	0x1
 12340 102b 51       		.byte	0x51
 12341 102c AF000000 		.4byte	.LVL84-1
 12342 1030 B0000000 		.4byte	.LVL84
 12343 1034 0100     		.2byte	0x1
 12344 1036 5B       		.byte	0x5b
 12345 1037 B4000000 		.4byte	.LVL85
 12346 103b BE000000 		.4byte	.LVL86
 12347 103f 0100     		.2byte	0x1
 12348 1041 5B       		.byte	0x5b
 12349 1042 00000000 		.4byte	0
 12350 1046 00000000 		.4byte	0
 12351              	.LVUS62:
 12352 104a 00       		.uleb128 .LVU549
 12353 104b 00       		.uleb128 .LVU551
 12354 104c 00       		.uleb128 .LVU551
 12355 104d 00       		.uleb128 .LVU551
 12356 104e 02       		.uleb128 .LVU556
 12357 104f 00       		.uleb128 .LVU562
 12358              	.LLST62:
 12359 1050 A6000000 		.4byte	.LVL83
 12360 1054 AF000000 		.4byte	.LVL84-1
 12361 1058 0100     		.2byte	0x1
 12362 105a 50       		.byte	0x50
 12363 105b AF000000 		.4byte	.LVL84-1
 12364 105f B0000000 		.4byte	.LVL84
 12365 1063 0100     		.2byte	0x1
 12366 1065 54       		.byte	0x54
 12367 1066 B4000000 		.4byte	.LVL85
 12368 106a BE000000 		.4byte	.LVL86
 12369 106e 0100     		.2byte	0x1
ARM GAS  /tmp/ccstZxWH.s 			page 218


 12370 1070 54       		.byte	0x54
 12371 1071 00000000 		.4byte	0
 12372 1075 00000000 		.4byte	0
 12373              	.LVUS63:
 12374 1079 00       		.uleb128 .LVU562
 12375 107a 01       		.uleb128 .LVU573
 12376              	.LLST63:
 12377 107b BE000000 		.4byte	.LVL86
 12378 107f CA000000 		.4byte	.LVL87
 12379 1083 0100     		.2byte	0x1
 12380 1085 50       		.byte	0x50
 12381 1086 00000000 		.4byte	0
 12382 108a 00000000 		.4byte	0
 12383              	.LVUS64:
 12384 108e 0C       		.uleb128 .LVU660
 12385 108f 00       		.uleb128 .LVU662
 12386              	.LLST64:
 12387 1090 32010000 		.4byte	.LVL100
 12388 1094 36010000 		.4byte	.LVL101
 12389 1098 0200     		.2byte	0x2
 12390 109a 30       		.byte	0x30
 12391 109b 9F       		.byte	0x9f
 12392 109c 00000000 		.4byte	0
 12393 10a0 00000000 		.4byte	0
 12394              	.LVUS65:
 12395 10a4 00       		.uleb128 .LVU616
 12396 10a5 00       		.uleb128 .LVU619
 12397              	.LLST65:
 12398 10a6 14010000 		.4byte	.LVL95
 12399 10aa 18010000 		.4byte	.LVL96
 12400 10ae 0100     		.2byte	0x1
 12401 10b0 50       		.byte	0x50
 12402 10b1 00000000 		.4byte	0
 12403 10b5 00000000 		.4byte	0
 12404              	.LVUS66:
 12405 10b9 00       		.uleb128 .LVU613
 12406 10ba 00       		.uleb128 .LVU616
 12407 10bb 00       		.uleb128 .LVU616
 12408 10bc 00       		.uleb128 .LVU616
 12409 10bd 02       		.uleb128 .LVU621
 12410 10be 00       		.uleb128 .LVU627
 12411 10bf 00       		.uleb128 .LVU627
 12412 10c0 00       		.uleb128 .LVU628
 12413              	.LLST66:
 12414 10c1 0C010000 		.4byte	.LVL94
 12415 10c5 13010000 		.4byte	.LVL95-1
 12416 10c9 0100     		.2byte	0x1
 12417 10cb 51       		.byte	0x51
 12418 10cc 13010000 		.4byte	.LVL95-1
 12419 10d0 14010000 		.4byte	.LVL95
 12420 10d4 0100     		.2byte	0x1
 12421 10d6 58       		.byte	0x58
 12422 10d7 18010000 		.4byte	.LVL96
 12423 10db 22010000 		.4byte	.LVL97
 12424 10df 0100     		.2byte	0x1
 12425 10e1 58       		.byte	0x58
 12426 10e2 22010000 		.4byte	.LVL97
ARM GAS  /tmp/ccstZxWH.s 			page 219


 12427 10e6 24010000 		.4byte	.LVL98
 12428 10ea 0100     		.2byte	0x1
 12429 10ec 51       		.byte	0x51
 12430 10ed 00000000 		.4byte	0
 12431 10f1 00000000 		.4byte	0
 12432              	.LVUS67:
 12433 10f5 00       		.uleb128 .LVU613
 12434 10f6 00       		.uleb128 .LVU616
 12435 10f7 00       		.uleb128 .LVU616
 12436 10f8 00       		.uleb128 .LVU616
 12437 10f9 02       		.uleb128 .LVU621
 12438 10fa 00       		.uleb128 .LVU627
 12439 10fb 00       		.uleb128 .LVU627
 12440 10fc 00       		.uleb128 .LVU628
 12441              	.LLST67:
 12442 10fd 0C010000 		.4byte	.LVL94
 12443 1101 13010000 		.4byte	.LVL95-1
 12444 1105 0100     		.2byte	0x1
 12445 1107 50       		.byte	0x50
 12446 1108 13010000 		.4byte	.LVL95-1
 12447 110c 14010000 		.4byte	.LVL95
 12448 1110 0100     		.2byte	0x1
 12449 1112 54       		.byte	0x54
 12450 1113 18010000 		.4byte	.LVL96
 12451 1117 22010000 		.4byte	.LVL97
 12452 111b 0100     		.2byte	0x1
 12453 111d 54       		.byte	0x54
 12454 111e 22010000 		.4byte	.LVL97
 12455 1122 24010000 		.4byte	.LVL98
 12456 1126 0100     		.2byte	0x1
 12457 1128 50       		.byte	0x50
 12458 1129 00000000 		.4byte	0
 12459 112d 00000000 		.4byte	0
 12460              	.LVUS68:
 12461 1131 0E       		.uleb128 .LVU642
 12462 1132 00       		.uleb128 .LVU644
 12463              	.LLST68:
 12464 1133 24010000 		.4byte	.LVL98
 12465 1137 2A010000 		.4byte	.LVL99
 12466 113b 0200     		.2byte	0x2
 12467 113d 30       		.byte	0x30
 12468 113e 9F       		.byte	0x9f
 12469 113f 00000000 		.4byte	0
 12470 1143 00000000 		.4byte	0
 12471              	.LVUS69:
 12472 1147 01       		.uleb128 .LVU590
 12473 1148 00       		.uleb128 .LVU613
 12474              	.LLST69:
 12475 1149 E4000000 		.4byte	.LVL92
 12476 114d 0C010000 		.4byte	.LVL94
 12477 1151 0100     		.2byte	0x1
 12478 1153 54       		.byte	0x54
 12479 1154 00000000 		.4byte	0
 12480 1158 00000000 		.4byte	0
 12481              	.LVUS70:
 12482 115c 0C       		.uleb128 .LVU509
 12483 115d 00       		.uleb128 .LVU511
ARM GAS  /tmp/ccstZxWH.s 			page 220


 12484              	.LLST70:
 12485 115e 7A000000 		.4byte	.LVL78
 12486 1162 7E000000 		.4byte	.LVL79
 12487 1166 0200     		.2byte	0x2
 12488 1168 30       		.byte	0x30
 12489 1169 9F       		.byte	0x9f
 12490 116a 00000000 		.4byte	0
 12491 116e 00000000 		.4byte	0
 12492              	.LVUS71:
 12493 1172 07       		.uleb128 .LVU521
 12494 1173 00       		.uleb128 .LVU523
 12495              	.LLST71:
 12496 1174 82000000 		.4byte	.LVL80
 12497 1178 88000000 		.4byte	.LVL81
 12498 117c 0300     		.2byte	0x3
 12499 117e 08       		.byte	0x8
 12500 117f 20       		.byte	0x20
 12501 1180 9F       		.byte	0x9f
 12502 1181 00000000 		.4byte	0
 12503 1185 00000000 		.4byte	0
 12504              	.LVUS56:
 12505 1189 0D       		.uleb128 .LVU446
 12506 118a 00       		.uleb128 .LVU452
 12507              	.LLST56:
 12508 118b 00000000 		.4byte	.LVL67
 12509 118f 14000000 		.4byte	.LVL69
 12510 1193 0300     		.2byte	0x3
 12511 1195 08       		.byte	0x8
 12512 1196 20       		.byte	0x20
 12513 1197 9F       		.byte	0x9f
 12514 1198 00000000 		.4byte	0
 12515 119c 00000000 		.4byte	0
 12516              	.LVUS38:
 12517 11a0 00       		.uleb128 0
 12518 11a1 00       		.uleb128 .LVU327
 12519 11a2 00       		.uleb128 .LVU327
 12520 11a3 00       		.uleb128 .LVU345
 12521 11a4 00       		.uleb128 .LVU345
 12522 11a5 00       		.uleb128 .LVU370
 12523 11a6 00       		.uleb128 .LVU370
 12524 11a7 00       		.uleb128 .LVU405
 12525 11a8 00       		.uleb128 .LVU405
 12526 11a9 00       		.uleb128 .LVU408
 12527 11aa 00       		.uleb128 .LVU408
 12528 11ab 00       		.uleb128 .LVU419
 12529 11ac 00       		.uleb128 .LVU419
 12530 11ad 00       		.uleb128 0
 12531              	.LLST38:
 12532 11ae 00000000 		.4byte	.LVL49
 12533 11b2 1A000000 		.4byte	.LVL53
 12534 11b6 0100     		.2byte	0x1
 12535 11b8 50       		.byte	0x50
 12536 11b9 1A000000 		.4byte	.LVL53
 12537 11bd 24000000 		.4byte	.LVL55
 12538 11c1 0100     		.2byte	0x1
 12539 11c3 54       		.byte	0x54
 12540 11c4 24000000 		.4byte	.LVL55
ARM GAS  /tmp/ccstZxWH.s 			page 221


 12541 11c8 48000000 		.4byte	.LVL57
 12542 11cc 0100     		.2byte	0x1
 12543 11ce 50       		.byte	0x50
 12544 11cf 48000000 		.4byte	.LVL57
 12545 11d3 54000000 		.4byte	.LVL60
 12546 11d7 0100     		.2byte	0x1
 12547 11d9 54       		.byte	0x54
 12548 11da 54000000 		.4byte	.LVL60
 12549 11de 5F000000 		.4byte	.LVL62-1
 12550 11e2 0100     		.2byte	0x1
 12551 11e4 50       		.byte	0x50
 12552 11e5 5F000000 		.4byte	.LVL62-1
 12553 11e9 6E000000 		.4byte	.LVL64
 12554 11ed 0100     		.2byte	0x1
 12555 11ef 54       		.byte	0x54
 12556 11f0 6E000000 		.4byte	.LVL64
 12557 11f4 82000000 		.4byte	.LFE285
 12558 11f8 0100     		.2byte	0x1
 12559 11fa 50       		.byte	0x50
 12560 11fb 00000000 		.4byte	0
 12561 11ff 00000000 		.4byte	0
 12562              	.LVUS39:
 12563 1203 00       		.uleb128 0
 12564 1204 00       		.uleb128 .LVU327
 12565 1205 00       		.uleb128 .LVU327
 12566 1206 00       		.uleb128 .LVU345
 12567 1207 00       		.uleb128 .LVU345
 12568 1208 00       		.uleb128 .LVU353
 12569 1209 00       		.uleb128 .LVU353
 12570 120a 00       		.uleb128 .LVU405
 12571 120b 00       		.uleb128 .LVU405
 12572 120c 00       		.uleb128 .LVU408
 12573 120d 00       		.uleb128 .LVU408
 12574 120e 00       		.uleb128 .LVU419
 12575 120f 00       		.uleb128 .LVU419
 12576 1210 00       		.uleb128 0
 12577              	.LLST39:
 12578 1211 00000000 		.4byte	.LVL49
 12579 1215 1A000000 		.4byte	.LVL53
 12580 1219 0100     		.2byte	0x1
 12581 121b 51       		.byte	0x51
 12582 121c 1A000000 		.4byte	.LVL53
 12583 1220 24000000 		.4byte	.LVL55
 12584 1224 0400     		.2byte	0x4
 12585 1226 F3       		.byte	0xf3
 12586 1227 01       		.uleb128 0x1
 12587 1228 51       		.byte	0x51
 12588 1229 9F       		.byte	0x9f
 12589 122a 24000000 		.4byte	.LVL55
 12590 122e 28000000 		.4byte	.LVL56
 12591 1232 0100     		.2byte	0x1
 12592 1234 51       		.byte	0x51
 12593 1235 28000000 		.4byte	.LVL56
 12594 1239 54000000 		.4byte	.LVL60
 12595 123d 0400     		.2byte	0x4
 12596 123f F3       		.byte	0xf3
 12597 1240 01       		.uleb128 0x1
ARM GAS  /tmp/ccstZxWH.s 			page 222


 12598 1241 51       		.byte	0x51
 12599 1242 9F       		.byte	0x9f
 12600 1243 54000000 		.4byte	.LVL60
 12601 1247 5F000000 		.4byte	.LVL62-1
 12602 124b 0100     		.2byte	0x1
 12603 124d 51       		.byte	0x51
 12604 124e 5F000000 		.4byte	.LVL62-1
 12605 1252 6E000000 		.4byte	.LVL64
 12606 1256 0100     		.2byte	0x1
 12607 1258 55       		.byte	0x55
 12608 1259 6E000000 		.4byte	.LVL64
 12609 125d 82000000 		.4byte	.LFE285
 12610 1261 0100     		.2byte	0x1
 12611 1263 51       		.byte	0x51
 12612 1264 00000000 		.4byte	0
 12613 1268 00000000 		.4byte	0
 12614              	.LVUS40:
 12615 126c 00       		.uleb128 .LVU323
 12616 126d 00       		.uleb128 .LVU405
 12617 126e 01       		.uleb128 .LVU430
 12618 126f 00       		.uleb128 .LVU432
 12619              	.LLST40:
 12620 1270 14000000 		.4byte	.LVL52
 12621 1274 54000000 		.4byte	.LVL60
 12622 1278 0100     		.2byte	0x1
 12623 127a 56       		.byte	0x56
 12624 127b 7A000000 		.4byte	.LVL65
 12625 127f 7C000000 		.4byte	.LVL66
 12626 1283 0200     		.2byte	0x2
 12627 1285 30       		.byte	0x30
 12628 1286 9F       		.byte	0x9f
 12629 1287 00000000 		.4byte	0
 12630 128b 00000000 		.4byte	0
 12631              	.LVUS41:
 12632 128f 08       		.uleb128 .LVU312
 12633 1290 00       		.uleb128 .LVU314
 12634              	.LLST41:
 12635 1291 06000000 		.4byte	.LVL50
 12636 1295 0A000000 		.4byte	.LVL51
 12637 1299 0300     		.2byte	0x3
 12638 129b 08       		.byte	0x8
 12639 129c 20       		.byte	0x20
 12640 129d 9F       		.byte	0x9f
 12641 129e 00000000 		.4byte	0
 12642 12a2 00000000 		.4byte	0
 12643              	.LVUS42:
 12644 12a6 0D       		.uleb128 .LVU340
 12645 12a7 00       		.uleb128 .LVU342
 12646 12a8 1D       		.uleb128 .LVU400
 12647 12a9 00       		.uleb128 .LVU402
 12648              	.LLST42:
 12649 12aa 1A000000 		.4byte	.LVL53
 12650 12ae 20000000 		.4byte	.LVL54
 12651 12b2 0200     		.2byte	0x2
 12652 12b4 30       		.byte	0x30
 12653 12b5 9F       		.byte	0x9f
 12654 12b6 4A000000 		.4byte	.LVL58
ARM GAS  /tmp/ccstZxWH.s 			page 223


 12655 12ba 50000000 		.4byte	.LVL59
 12656 12be 0200     		.2byte	0x2
 12657 12c0 30       		.byte	0x30
 12658 12c1 9F       		.byte	0x9f
 12659 12c2 00000000 		.4byte	0
 12660 12c6 00000000 		.4byte	0
 12661              	.LVUS43:
 12662 12ca 01       		.uleb128 .LVU346
 12663 12cb 00       		.uleb128 .LVU371
 12664 12cc 00       		.uleb128 .LVU371
 12665 12cd 00       		.uleb128 .LVU371
 12666              	.LLST43:
 12667 12ce 24000000 		.4byte	.LVL55
 12668 12d2 49000000 		.4byte	.LVL58-1
 12669 12d6 0100     		.2byte	0x1
 12670 12d8 50       		.byte	0x50
 12671 12d9 49000000 		.4byte	.LVL58-1
 12672 12dd 4A000000 		.4byte	.LVL58
 12673 12e1 0100     		.2byte	0x1
 12674 12e3 54       		.byte	0x54
 12675 12e4 00000000 		.4byte	0
 12676 12e8 00000000 		.4byte	0
 12677              	.LVUS44:
 12678 12ec 0D       		.uleb128 .LVU384
 12679 12ed 00       		.uleb128 .LVU405
 12680              	.LLST44:
 12681 12ee 4A000000 		.4byte	.LVL58
 12682 12f2 54000000 		.4byte	.LVL60
 12683 12f6 0200     		.2byte	0x2
 12684 12f8 30       		.byte	0x30
 12685 12f9 9F       		.byte	0x9f
 12686 12fa 00000000 		.4byte	0
 12687 12fe 00000000 		.4byte	0
 12688              	.LVUS45:
 12689 1302 00       		.uleb128 .LVU408
 12690 1303 00       		.uleb128 .LVU411
 12691              	.LLST45:
 12692 1304 60000000 		.4byte	.LVL62
 12693 1308 64000000 		.4byte	.LVL63
 12694 130c 0100     		.2byte	0x1
 12695 130e 50       		.byte	0x50
 12696 130f 00000000 		.4byte	0
 12697 1313 00000000 		.4byte	0
 12698              	.LVUS46:
 12699 1317 00       		.uleb128 .LVU406
 12700 1318 00       		.uleb128 .LVU408
 12701 1319 00       		.uleb128 .LVU408
 12702 131a 00       		.uleb128 .LVU408
 12703 131b 02       		.uleb128 .LVU413
 12704 131c 00       		.uleb128 .LVU419
 12705 131d 00       		.uleb128 .LVU419
 12706 131e 00       		.uleb128 0
 12707              	.LLST46:
 12708 131f 58000000 		.4byte	.LVL61
 12709 1323 5F000000 		.4byte	.LVL62-1
 12710 1327 0100     		.2byte	0x1
 12711 1329 51       		.byte	0x51
ARM GAS  /tmp/ccstZxWH.s 			page 224


 12712 132a 5F000000 		.4byte	.LVL62-1
 12713 132e 60000000 		.4byte	.LVL62
 12714 1332 0100     		.2byte	0x1
 12715 1334 55       		.byte	0x55
 12716 1335 64000000 		.4byte	.LVL63
 12717 1339 6E000000 		.4byte	.LVL64
 12718 133d 0100     		.2byte	0x1
 12719 133f 55       		.byte	0x55
 12720 1340 6E000000 		.4byte	.LVL64
 12721 1344 82000000 		.4byte	.LFE285
 12722 1348 0100     		.2byte	0x1
 12723 134a 51       		.byte	0x51
 12724 134b 00000000 		.4byte	0
 12725 134f 00000000 		.4byte	0
 12726              	.LVUS47:
 12727 1353 00       		.uleb128 .LVU406
 12728 1354 00       		.uleb128 .LVU408
 12729 1355 00       		.uleb128 .LVU408
 12730 1356 00       		.uleb128 .LVU408
 12731 1357 02       		.uleb128 .LVU413
 12732 1358 00       		.uleb128 .LVU419
 12733 1359 00       		.uleb128 .LVU419
 12734 135a 00       		.uleb128 0
 12735              	.LLST47:
 12736 135b 58000000 		.4byte	.LVL61
 12737 135f 5F000000 		.4byte	.LVL62-1
 12738 1363 0100     		.2byte	0x1
 12739 1365 50       		.byte	0x50
 12740 1366 5F000000 		.4byte	.LVL62-1
 12741 136a 60000000 		.4byte	.LVL62
 12742 136e 0100     		.2byte	0x1
 12743 1370 54       		.byte	0x54
 12744 1371 64000000 		.4byte	.LVL63
 12745 1375 6E000000 		.4byte	.LVL64
 12746 1379 0100     		.2byte	0x1
 12747 137b 54       		.byte	0x54
 12748 137c 6E000000 		.4byte	.LVL64
 12749 1380 82000000 		.4byte	.LFE285
 12750 1384 0100     		.2byte	0x1
 12751 1386 50       		.byte	0x50
 12752 1387 00000000 		.4byte	0
 12753 138b 00000000 		.4byte	0
 12754              	.LVUS48:
 12755 138f 01       		.uleb128 .LVU420
 12756 1390 01       		.uleb128 .LVU430
 12757              	.LLST48:
 12758 1391 6E000000 		.4byte	.LVL64
 12759 1395 7A000000 		.4byte	.LVL65
 12760 1399 0100     		.2byte	0x1
 12761 139b 51       		.byte	0x51
 12762 139c 00000000 		.4byte	0
 12763 13a0 00000000 		.4byte	0
 12764              	.LVUS49:
 12765 13a4 00       		.uleb128 .LVU419
 12766 13a5 01       		.uleb128 .LVU430
 12767              	.LLST49:
 12768 13a6 6E000000 		.4byte	.LVL64
ARM GAS  /tmp/ccstZxWH.s 			page 225


 12769 13aa 7A000000 		.4byte	.LVL65
 12770 13ae 0100     		.2byte	0x1
 12771 13b0 50       		.byte	0x50
 12772 13b1 00000000 		.4byte	0
 12773 13b5 00000000 		.4byte	0
 12774              	.LVUS33:
 12775 13b9 00       		.uleb128 0
 12776 13ba 00       		.uleb128 .LVU258
 12777 13bb 00       		.uleb128 .LVU258
 12778 13bc 00       		.uleb128 0
 12779              	.LLST33:
 12780 13bd 00000000 		.4byte	.LVL43
 12781 13c1 2B000000 		.4byte	.LVL45-1
 12782 13c5 0100     		.2byte	0x1
 12783 13c7 50       		.byte	0x50
 12784 13c8 2B000000 		.4byte	.LVL45-1
 12785 13cc 34000000 		.4byte	.LFE283
 12786 13d0 0400     		.2byte	0x4
 12787 13d2 F3       		.byte	0xf3
 12788 13d3 01       		.uleb128 0x1
 12789 13d4 50       		.byte	0x50
 12790 13d5 9F       		.byte	0x9f
 12791 13d6 00000000 		.4byte	0
 12792 13da 00000000 		.4byte	0
 12793              	.LVUS34:
 12794 13de 08       		.uleb128 .LVU226
 12795 13df 00       		.uleb128 .LVU230
 12796              	.LLST34:
 12797 13e0 00000000 		.4byte	.LVL43
 12798 13e4 08000000 		.4byte	.LVL44
 12799 13e8 0300     		.2byte	0x3
 12800 13ea 08       		.byte	0x8
 12801 13eb 20       		.byte	0x20
 12802 13ec 9F       		.byte	0x9f
 12803 13ed 00000000 		.4byte	0
 12804 13f1 00000000 		.4byte	0
 12805              	.LVUS35:
 12806 13f5 04       		.uleb128 .LVU234
 12807 13f6 00       		.uleb128 .LVU258
 12808 13f7 00       		.uleb128 .LVU258
 12809 13f8 00       		.uleb128 .LVU258
 12810              	.LLST35:
 12811 13f9 08000000 		.4byte	.LVL44
 12812 13fd 2B000000 		.4byte	.LVL45-1
 12813 1401 0100     		.2byte	0x1
 12814 1403 50       		.byte	0x50
 12815 1404 2B000000 		.4byte	.LVL45-1
 12816 1408 2C000000 		.4byte	.LVL45
 12817 140c 0400     		.2byte	0x4
 12818 140e F3       		.byte	0xf3
 12819 140f 01       		.uleb128 0x1
 12820 1410 50       		.byte	0x50
 12821 1411 9F       		.byte	0x9f
 12822 1412 00000000 		.4byte	0
 12823 1416 00000000 		.4byte	0
 12824              	.LVUS36:
 12825 141a 0D       		.uleb128 .LVU271
ARM GAS  /tmp/ccstZxWH.s 			page 226


 12826 141b 00       		.uleb128 .LVU273
 12827              	.LLST36:
 12828 141c 2C000000 		.4byte	.LVL45
 12829 1420 32000000 		.4byte	.LVL46
 12830 1424 0200     		.2byte	0x2
 12831 1426 30       		.byte	0x30
 12832 1427 9F       		.byte	0x9f
 12833 1428 00000000 		.4byte	0
 12834 142c 00000000 		.4byte	0
 12835              	.LVUS14:
 12836 1430 00       		.uleb128 0
 12837 1431 00       		.uleb128 .LVU117
 12838 1432 00       		.uleb128 .LVU117
 12839 1433 00       		.uleb128 .LVU129
 12840 1434 00       		.uleb128 .LVU129
 12841 1435 00       		.uleb128 .LVU141
 12842 1436 00       		.uleb128 .LVU141
 12843 1437 00       		.uleb128 .LVU159
 12844 1438 00       		.uleb128 .LVU159
 12845 1439 00       		.uleb128 .LVU160
 12846 143a 00       		.uleb128 .LVU160
 12847 143b 00       		.uleb128 0
 12848              	.LLST14:
 12849 143c 00000000 		.4byte	.LVL21
 12850 1440 15000000 		.4byte	.LVL25-1
 12851 1444 0100     		.2byte	0x1
 12852 1446 50       		.byte	0x50
 12853 1447 15000000 		.4byte	.LVL25-1
 12854 144b 24000000 		.4byte	.LVL27
 12855 144f 0100     		.2byte	0x1
 12856 1451 54       		.byte	0x54
 12857 1452 24000000 		.4byte	.LVL27
 12858 1456 32000000 		.4byte	.LVL29
 12859 145a 0100     		.2byte	0x1
 12860 145c 50       		.byte	0x50
 12861 145d 32000000 		.4byte	.LVL29
 12862 1461 3A000000 		.4byte	.LVL31
 12863 1465 0100     		.2byte	0x1
 12864 1467 54       		.byte	0x54
 12865 1468 3A000000 		.4byte	.LVL31
 12866 146c 3E000000 		.4byte	.LVL32
 12867 1470 0100     		.2byte	0x1
 12868 1472 50       		.byte	0x50
 12869 1473 3E000000 		.4byte	.LVL32
 12870 1477 46000000 		.4byte	.LFE281
 12871 147b 0100     		.2byte	0x1
 12872 147d 54       		.byte	0x54
 12873 147e 00000000 		.4byte	0
 12874 1482 00000000 		.4byte	0
 12875              	.LVUS15:
 12876 1486 00       		.uleb128 0
 12877 1487 00       		.uleb128 .LVU117
 12878 1488 00       		.uleb128 .LVU117
 12879 1489 00       		.uleb128 .LVU129
 12880 148a 00       		.uleb128 .LVU129
 12881 148b 00       		.uleb128 .LVU141
 12882 148c 00       		.uleb128 .LVU141
ARM GAS  /tmp/ccstZxWH.s 			page 227


 12883 148d 00       		.uleb128 .LVU159
 12884 148e 00       		.uleb128 .LVU159
 12885 148f 00       		.uleb128 0
 12886              	.LLST15:
 12887 1490 00000000 		.4byte	.LVL21
 12888 1494 15000000 		.4byte	.LVL25-1
 12889 1498 0100     		.2byte	0x1
 12890 149a 51       		.byte	0x51
 12891 149b 15000000 		.4byte	.LVL25-1
 12892 149f 24000000 		.4byte	.LVL27
 12893 14a3 0100     		.2byte	0x1
 12894 14a5 55       		.byte	0x55
 12895 14a6 24000000 		.4byte	.LVL27
 12896 14aa 32000000 		.4byte	.LVL29
 12897 14ae 0100     		.2byte	0x1
 12898 14b0 51       		.byte	0x51
 12899 14b1 32000000 		.4byte	.LVL29
 12900 14b5 3A000000 		.4byte	.LVL31
 12901 14b9 0100     		.2byte	0x1
 12902 14bb 55       		.byte	0x55
 12903 14bc 3A000000 		.4byte	.LVL31
 12904 14c0 46000000 		.4byte	.LFE281
 12905 14c4 0100     		.2byte	0x1
 12906 14c6 51       		.byte	0x51
 12907 14c7 00000000 		.4byte	0
 12908 14cb 00000000 		.4byte	0
 12909              	.LVUS16:
 12910 14cf 00       		.uleb128 .LVU141
 12911 14d0 00       		.uleb128 .LVU159
 12912 14d1 00       		.uleb128 .LVU160
 12913 14d2 00       		.uleb128 0
 12914              	.LLST16:
 12915 14d3 32000000 		.4byte	.LVL29
 12916 14d7 3A000000 		.4byte	.LVL31
 12917 14db 0100     		.2byte	0x1
 12918 14dd 50       		.byte	0x50
 12919 14de 3E000000 		.4byte	.LVL32
 12920 14e2 46000000 		.4byte	.LFE281
 12921 14e6 0100     		.2byte	0x1
 12922 14e8 50       		.byte	0x50
 12923 14e9 00000000 		.4byte	0
 12924 14ed 00000000 		.4byte	0
 12925              	.LVUS17:
 12926 14f1 08       		.uleb128 .LVU103
 12927 14f2 00       		.uleb128 .LVU107
 12928              	.LLST17:
 12929 14f3 04000000 		.4byte	.LVL22
 12930 14f7 0C000000 		.4byte	.LVL23
 12931 14fb 0300     		.2byte	0x3
 12932 14fd 08       		.byte	0x8
 12933 14fe 20       		.byte	0x20
 12934 14ff 9F       		.byte	0x9f
 12935 1500 00000000 		.4byte	0
 12936 1504 00000000 		.4byte	0
 12937              	.LVUS18:
 12938 1508 04       		.uleb128 .LVU111
 12939 1509 00       		.uleb128 .LVU117
ARM GAS  /tmp/ccstZxWH.s 			page 228


 12940 150a 00       		.uleb128 .LVU117
 12941 150b 00       		.uleb128 .LVU129
 12942 150c 00       		.uleb128 .LVU129
 12943 150d 00       		.uleb128 .LVU141
 12944 150e 00       		.uleb128 .LVU159
 12945 150f 00       		.uleb128 .LVU160
 12946              	.LLST18:
 12947 1510 0C000000 		.4byte	.LVL23
 12948 1514 15000000 		.4byte	.LVL25-1
 12949 1518 0100     		.2byte	0x1
 12950 151a 51       		.byte	0x51
 12951 151b 15000000 		.4byte	.LVL25-1
 12952 151f 24000000 		.4byte	.LVL27
 12953 1523 0100     		.2byte	0x1
 12954 1525 55       		.byte	0x55
 12955 1526 24000000 		.4byte	.LVL27
 12956 152a 32000000 		.4byte	.LVL29
 12957 152e 0100     		.2byte	0x1
 12958 1530 51       		.byte	0x51
 12959 1531 3A000000 		.4byte	.LVL31
 12960 1535 3E000000 		.4byte	.LVL32
 12961 1539 0100     		.2byte	0x1
 12962 153b 51       		.byte	0x51
 12963 153c 00000000 		.4byte	0
 12964 1540 00000000 		.4byte	0
 12965              	.LVUS19:
 12966 1544 04       		.uleb128 .LVU111
 12967 1545 00       		.uleb128 .LVU117
 12968 1546 00       		.uleb128 .LVU117
 12969 1547 00       		.uleb128 .LVU129
 12970 1548 00       		.uleb128 .LVU129
 12971 1549 00       		.uleb128 .LVU141
 12972 154a 00       		.uleb128 .LVU159
 12973 154b 00       		.uleb128 .LVU160
 12974              	.LLST19:
 12975 154c 0C000000 		.4byte	.LVL23
 12976 1550 15000000 		.4byte	.LVL25-1
 12977 1554 0100     		.2byte	0x1
 12978 1556 50       		.byte	0x50
 12979 1557 15000000 		.4byte	.LVL25-1
 12980 155b 24000000 		.4byte	.LVL27
 12981 155f 0100     		.2byte	0x1
 12982 1561 54       		.byte	0x54
 12983 1562 24000000 		.4byte	.LVL27
 12984 1566 32000000 		.4byte	.LVL29
 12985 156a 0100     		.2byte	0x1
 12986 156c 50       		.byte	0x50
 12987 156d 3A000000 		.4byte	.LVL31
 12988 1571 3E000000 		.4byte	.LVL32
 12989 1575 0100     		.2byte	0x1
 12990 1577 50       		.byte	0x50
 12991 1578 00000000 		.4byte	0
 12992 157c 00000000 		.4byte	0
 12993              	.LVUS20:
 12994 1580 00       		.uleb128 .LVU117
 12995 1581 00       		.uleb128 .LVU121
 12996              	.LLST20:
ARM GAS  /tmp/ccstZxWH.s 			page 229


 12997 1582 16000000 		.4byte	.LVL25
 12998 1586 1A000000 		.4byte	.LVL26
 12999 158a 0100     		.2byte	0x1
 13000 158c 50       		.byte	0x50
 13001 158d 00000000 		.4byte	0
 13002 1591 00000000 		.4byte	0
 13003              	.LVUS21:
 13004 1595 00       		.uleb128 .LVU115
 13005 1596 00       		.uleb128 .LVU117
 13006 1597 00       		.uleb128 .LVU117
 13007 1598 00       		.uleb128 .LVU117
 13008 1599 02       		.uleb128 .LVU123
 13009 159a 00       		.uleb128 .LVU129
 13010 159b 00       		.uleb128 .LVU129
 13011 159c 00       		.uleb128 .LVU141
 13012 159d 00       		.uleb128 .LVU159
 13013 159e 00       		.uleb128 0
 13014              	.LLST21:
 13015 159f 0E000000 		.4byte	.LVL24
 13016 15a3 15000000 		.4byte	.LVL25-1
 13017 15a7 0100     		.2byte	0x1
 13018 15a9 51       		.byte	0x51
 13019 15aa 15000000 		.4byte	.LVL25-1
 13020 15ae 16000000 		.4byte	.LVL25
 13021 15b2 0100     		.2byte	0x1
 13022 15b4 55       		.byte	0x55
 13023 15b5 1A000000 		.4byte	.LVL26
 13024 15b9 24000000 		.4byte	.LVL27
 13025 15bd 0100     		.2byte	0x1
 13026 15bf 55       		.byte	0x55
 13027 15c0 24000000 		.4byte	.LVL27
 13028 15c4 32000000 		.4byte	.LVL29
 13029 15c8 0100     		.2byte	0x1
 13030 15ca 51       		.byte	0x51
 13031 15cb 3A000000 		.4byte	.LVL31
 13032 15cf 46000000 		.4byte	.LFE281
 13033 15d3 0100     		.2byte	0x1
 13034 15d5 51       		.byte	0x51
 13035 15d6 00000000 		.4byte	0
 13036 15da 00000000 		.4byte	0
 13037              	.LVUS22:
 13038 15de 00       		.uleb128 .LVU115
 13039 15df 00       		.uleb128 .LVU117
 13040 15e0 00       		.uleb128 .LVU117
 13041 15e1 00       		.uleb128 .LVU117
 13042 15e2 02       		.uleb128 .LVU123
 13043 15e3 00       		.uleb128 .LVU129
 13044 15e4 00       		.uleb128 .LVU129
 13045 15e5 00       		.uleb128 .LVU141
 13046 15e6 00       		.uleb128 .LVU159
 13047 15e7 00       		.uleb128 .LVU160
 13048 15e8 00       		.uleb128 .LVU160
 13049 15e9 00       		.uleb128 0
 13050              	.LLST22:
 13051 15ea 0E000000 		.4byte	.LVL24
 13052 15ee 15000000 		.4byte	.LVL25-1
 13053 15f2 0100     		.2byte	0x1
ARM GAS  /tmp/ccstZxWH.s 			page 230


 13054 15f4 50       		.byte	0x50
 13055 15f5 15000000 		.4byte	.LVL25-1
 13056 15f9 16000000 		.4byte	.LVL25
 13057 15fd 0100     		.2byte	0x1
 13058 15ff 54       		.byte	0x54
 13059 1600 1A000000 		.4byte	.LVL26
 13060 1604 24000000 		.4byte	.LVL27
 13061 1608 0100     		.2byte	0x1
 13062 160a 54       		.byte	0x54
 13063 160b 24000000 		.4byte	.LVL27
 13064 160f 32000000 		.4byte	.LVL29
 13065 1613 0100     		.2byte	0x1
 13066 1615 50       		.byte	0x50
 13067 1616 3A000000 		.4byte	.LVL31
 13068 161a 3E000000 		.4byte	.LVL32
 13069 161e 0100     		.2byte	0x1
 13070 1620 50       		.byte	0x50
 13071 1621 3E000000 		.4byte	.LVL32
 13072 1625 46000000 		.4byte	.LFE281
 13073 1629 0100     		.2byte	0x1
 13074 162b 54       		.byte	0x54
 13075 162c 00000000 		.4byte	0
 13076 1630 00000000 		.4byte	0
 13077              	.LVUS23:
 13078 1634 01       		.uleb128 .LVU130
 13079 1635 01       		.uleb128 .LVU140
 13080              	.LLST23:
 13081 1636 24000000 		.4byte	.LVL27
 13082 163a 30000000 		.4byte	.LVL28
 13083 163e 0100     		.2byte	0x1
 13084 1640 51       		.byte	0x51
 13085 1641 00000000 		.4byte	0
 13086 1645 00000000 		.4byte	0
 13087              	.LVUS24:
 13088 1649 00       		.uleb128 .LVU129
 13089 164a 01       		.uleb128 .LVU140
 13090              	.LLST24:
 13091 164b 24000000 		.4byte	.LVL27
 13092 164f 30000000 		.4byte	.LVL28
 13093 1653 0100     		.2byte	0x1
 13094 1655 50       		.byte	0x50
 13095 1656 00000000 		.4byte	0
 13096 165a 00000000 		.4byte	0
 13097              	.LVUS25:
 13098 165e 0D       		.uleb128 .LVU154
 13099 165f 00       		.uleb128 .LVU156
 13100 1660 0D       		.uleb128 .LVU173
 13101 1661 00       		.uleb128 .LVU175
 13102              	.LLST25:
 13103 1662 32000000 		.4byte	.LVL29
 13104 1666 38000000 		.4byte	.LVL30
 13105 166a 0200     		.2byte	0x2
 13106 166c 30       		.byte	0x30
 13107 166d 9F       		.byte	0x9f
 13108 166e 3E000000 		.4byte	.LVL32
 13109 1672 44000000 		.4byte	.LVL33
 13110 1676 0200     		.2byte	0x2
ARM GAS  /tmp/ccstZxWH.s 			page 231


 13111 1678 30       		.byte	0x30
 13112 1679 9F       		.byte	0x9f
 13113 167a 00000000 		.4byte	0
 13114 167e 00000000 		.4byte	0
 13115              	.LVUS11:
 13116 1682 00       		.uleb128 0
 13117 1683 00       		.uleb128 .LVU91
 13118 1684 00       		.uleb128 .LVU91
 13119 1685 00       		.uleb128 0
 13120              	.LLST11:
 13121 1686 00000000 		.4byte	.LVL15
 13122 168a 27000000 		.4byte	.LVL20-1
 13123 168e 0100     		.2byte	0x1
 13124 1690 50       		.byte	0x50
 13125 1691 27000000 		.4byte	.LVL20-1
 13126 1695 28000000 		.4byte	.LFE280
 13127 1699 0400     		.2byte	0x4
 13128 169b F3       		.byte	0xf3
 13129 169c 01       		.uleb128 0x1
 13130 169d 50       		.byte	0x50
 13131 169e 9F       		.byte	0x9f
 13132 169f 00000000 		.4byte	0
 13133 16a3 00000000 		.4byte	0
 13134              	.LVUS12:
 13135 16a7 00       		.uleb128 0
 13136 16a8 00       		.uleb128 .LVU76
 13137 16a9 00       		.uleb128 .LVU76
 13138 16aa 00       		.uleb128 .LVU78
 13139 16ab 00       		.uleb128 .LVU78
 13140 16ac 00       		.uleb128 .LVU80
 13141 16ad 00       		.uleb128 .LVU80
 13142 16ae 00       		.uleb128 0
 13143              	.LLST12:
 13144 16af 00000000 		.4byte	.LVL15
 13145 16b3 0A000000 		.4byte	.LVL16
 13146 16b7 0100     		.2byte	0x1
 13147 16b9 51       		.byte	0x51
 13148 16ba 0A000000 		.4byte	.LVL16
 13149 16be 0E000000 		.4byte	.LVL17
 13150 16c2 0200     		.2byte	0x2
 13151 16c4 73       		.byte	0x73
 13152 16c5 00       		.sleb128 0
 13153 16c6 0E000000 		.4byte	.LVL17
 13154 16ca 12000000 		.4byte	.LVL18
 13155 16ce 0300     		.2byte	0x3
 13156 16d0 70       		.byte	0x70
 13157 16d1 10       		.sleb128 16
 13158 16d2 06       		.byte	0x6
 13159 16d3 12000000 		.4byte	.LVL18
 13160 16d7 28000000 		.4byte	.LFE280
 13161 16db 0400     		.2byte	0x4
 13162 16dd F3       		.byte	0xf3
 13163 16de 01       		.uleb128 0x1
 13164 16df 51       		.byte	0x51
 13165 16e0 9F       		.byte	0x9f
 13166 16e1 00000000 		.4byte	0
 13167 16e5 00000000 		.4byte	0
ARM GAS  /tmp/ccstZxWH.s 			page 232


 13168              	.LVUS13:
 13169 16e9 01       		.uleb128 .LVU89
 13170 16ea 00       		.uleb128 .LVU91
 13171 16eb 00       		.uleb128 .LVU91
 13172 16ec 00       		.uleb128 0
 13173              	.LLST13:
 13174 16ed 22000000 		.4byte	.LVL19
 13175 16f1 27000000 		.4byte	.LVL20-1
 13176 16f5 0100     		.2byte	0x1
 13177 16f7 50       		.byte	0x50
 13178 16f8 27000000 		.4byte	.LVL20-1
 13179 16fc 28000000 		.4byte	.LFE280
 13180 1700 0400     		.2byte	0x4
 13181 1702 F3       		.byte	0xf3
 13182 1703 01       		.uleb128 0x1
 13183 1704 50       		.byte	0x50
 13184 1705 9F       		.byte	0x9f
 13185 1706 00000000 		.4byte	0
 13186 170a 00000000 		.4byte	0
 13187              	.LVUS10:
 13188 170e 00       		.uleb128 0
 13189 170f 00       		.uleb128 .LVU57
 13190 1710 00       		.uleb128 .LVU57
 13191 1711 00       		.uleb128 .LVU58
 13192 1712 00       		.uleb128 .LVU58
 13193 1713 00       		.uleb128 .LVU60
 13194 1714 00       		.uleb128 .LVU60
 13195 1715 00       		.uleb128 0
 13196              	.LLST10:
 13197 1716 00000000 		.4byte	.LVL11
 13198 171a 0A000000 		.4byte	.LVL12
 13199 171e 0100     		.2byte	0x1
 13200 1720 50       		.byte	0x50
 13201 1721 0A000000 		.4byte	.LVL12
 13202 1725 0C000000 		.4byte	.LVL13
 13203 1729 0400     		.2byte	0x4
 13204 172b F3       		.byte	0xf3
 13205 172c 01       		.uleb128 0x1
 13206 172d 50       		.byte	0x50
 13207 172e 9F       		.byte	0x9f
 13208 172f 0C000000 		.4byte	.LVL13
 13209 1733 14000000 		.4byte	.LVL14
 13210 1737 0100     		.2byte	0x1
 13211 1739 50       		.byte	0x50
 13212 173a 14000000 		.4byte	.LVL14
 13213 173e 16000000 		.4byte	.LFE279
 13214 1742 0400     		.2byte	0x4
 13215 1744 F3       		.byte	0xf3
 13216 1745 01       		.uleb128 0x1
 13217 1746 50       		.byte	0x50
 13218 1747 9F       		.byte	0x9f
 13219 1748 00000000 		.4byte	0
 13220 174c 00000000 		.4byte	0
 13221              	.LVUS9:
 13222 1750 00       		.uleb128 0
 13223 1751 00       		.uleb128 .LVU50
 13224 1752 00       		.uleb128 .LVU50
ARM GAS  /tmp/ccstZxWH.s 			page 233


 13225 1753 00       		.uleb128 0
 13226              	.LLST9:
 13227 1754 00000000 		.4byte	.LVL8
 13228 1758 15000000 		.4byte	.LVL10-1
 13229 175c 0100     		.2byte	0x1
 13230 175e 50       		.byte	0x50
 13231 175f 15000000 		.4byte	.LVL10-1
 13232 1763 16000000 		.4byte	.LFE278
 13233 1767 0400     		.2byte	0x4
 13234 1769 F3       		.byte	0xf3
 13235 176a 01       		.uleb128 0x1
 13236 176b 50       		.byte	0x50
 13237 176c 9F       		.byte	0x9f
 13238 176d 00000000 		.4byte	0
 13239 1771 00000000 		.4byte	0
 13240              	.LVUS0:
 13241 1775 00       		.uleb128 0
 13242 1776 00       		.uleb128 .LVU22
 13243 1777 00       		.uleb128 .LVU22
 13244 1778 00       		.uleb128 0
 13245              	.LLST0:
 13246 1779 00000000 		.4byte	.LVL0
 13247 177d 1E000000 		.4byte	.LVL5
 13248 1781 0100     		.2byte	0x1
 13249 1783 51       		.byte	0x51
 13250 1784 1E000000 		.4byte	.LVL5
 13251 1788 30000000 		.4byte	.LFE277
 13252 178c 0200     		.2byte	0x2
 13253 178e 70       		.byte	0x70
 13254 178f 08       		.sleb128 8
 13255 1790 00000000 		.4byte	0
 13256 1794 00000000 		.4byte	0
 13257              	.LVUS1:
 13258 1798 00       		.uleb128 0
 13259 1799 00       		.uleb128 .LVU21
 13260 179a 00       		.uleb128 .LVU21
 13261 179b 00       		.uleb128 0
 13262              	.LLST1:
 13263 179c 00000000 		.4byte	.LVL0
 13264 17a0 1C000000 		.4byte	.LVL4
 13265 17a4 0100     		.2byte	0x1
 13266 17a6 52       		.byte	0x52
 13267 17a7 1C000000 		.4byte	.LVL4
 13268 17ab 30000000 		.4byte	.LFE277
 13269 17af 0200     		.2byte	0x2
 13270 17b1 70       		.byte	0x70
 13271 17b2 24       		.sleb128 36
 13272 17b3 00000000 		.4byte	0
 13273 17b7 00000000 		.4byte	0
 13274              	.LVUS2:
 13275 17bb 00       		.uleb128 0
 13276 17bc 00       		.uleb128 .LVU15
 13277 17bd 00       		.uleb128 .LVU15
 13278 17be 00       		.uleb128 .LVU17
 13279 17bf 00       		.uleb128 .LVU17
 13280 17c0 00       		.uleb128 0
 13281              	.LLST2:
ARM GAS  /tmp/ccstZxWH.s 			page 234


 13282 17c1 00000000 		.4byte	.LVL0
 13283 17c5 08000000 		.4byte	.LVL2
 13284 17c9 0100     		.2byte	0x1
 13285 17cb 53       		.byte	0x53
 13286 17cc 08000000 		.4byte	.LVL2
 13287 17d0 0E000000 		.4byte	.LVL3
 13288 17d4 0300     		.2byte	0x3
 13289 17d6 73       		.byte	0x73
 13290 17d7 7C       		.sleb128 -4
 13291 17d8 9F       		.byte	0x9f
 13292 17d9 0E000000 		.4byte	.LVL3
 13293 17dd 30000000 		.4byte	.LFE277
 13294 17e1 0600     		.2byte	0x6
 13295 17e3 70       		.byte	0x70
 13296 17e4 1C       		.sleb128 28
 13297 17e5 06       		.byte	0x6
 13298 17e6 34       		.byte	0x34
 13299 17e7 1C       		.byte	0x1c
 13300 17e8 9F       		.byte	0x9f
 13301 17e9 00000000 		.4byte	0
 13302 17ed 00000000 		.4byte	0
 13303              	.LVUS3:
 13304 17f1 00       		.uleb128 0
 13305 17f2 00       		.uleb128 .LVU29
 13306 17f3 00       		.uleb128 .LVU29
 13307 17f4 00       		.uleb128 0
 13308              	.LLST3:
 13309 17f5 00000000 		.4byte	.LVL0
 13310 17f9 2C000000 		.4byte	.LVL7
 13311 17fd 0200     		.2byte	0x2
 13312 17ff 91       		.byte	0x91
 13313 1800 00       		.sleb128 0
 13314 1801 2C000000 		.4byte	.LVL7
 13315 1805 30000000 		.4byte	.LFE277
 13316 1809 0200     		.2byte	0x2
 13317 180b 7D       		.byte	0x7d
 13318 180c 00       		.sleb128 0
 13319 180d 00000000 		.4byte	0
 13320 1811 00000000 		.4byte	0
 13321              	.LVUS4:
 13322 1815 00       		.uleb128 0
 13323 1816 00       		.uleb128 .LVU29
 13324 1817 00       		.uleb128 .LVU29
 13325 1818 00       		.uleb128 0
 13326              	.LLST4:
 13327 1819 00000000 		.4byte	.LVL0
 13328 181d 2C000000 		.4byte	.LVL7
 13329 1821 0200     		.2byte	0x2
 13330 1823 91       		.byte	0x91
 13331 1824 04       		.sleb128 4
 13332 1825 2C000000 		.4byte	.LVL7
 13333 1829 30000000 		.4byte	.LFE277
 13334 182d 0200     		.2byte	0x2
 13335 182f 7D       		.byte	0x7d
 13336 1830 04       		.sleb128 4
 13337 1831 00000000 		.4byte	0
 13338 1835 00000000 		.4byte	0
ARM GAS  /tmp/ccstZxWH.s 			page 235


 13339              	.LVUS5:
 13340 1839 00       		.uleb128 0
 13341 183a 00       		.uleb128 .LVU29
 13342 183b 00       		.uleb128 .LVU29
 13343 183c 00       		.uleb128 0
 13344              	.LLST5:
 13345 183d 00000000 		.4byte	.LVL0
 13346 1841 2C000000 		.4byte	.LVL7
 13347 1845 0200     		.2byte	0x2
 13348 1847 91       		.byte	0x91
 13349 1848 08       		.sleb128 8
 13350 1849 2C000000 		.4byte	.LVL7
 13351 184d 30000000 		.4byte	.LFE277
 13352 1851 0200     		.2byte	0x2
 13353 1853 7D       		.byte	0x7d
 13354 1854 08       		.sleb128 8
 13355 1855 00000000 		.4byte	0
 13356 1859 00000000 		.4byte	0
 13357              	.LVUS6:
 13358 185d 00       		.uleb128 .LVU7
 13359 185e 00       		.uleb128 .LVU23
 13360              	.LLST6:
 13361 185f 04000000 		.4byte	.LVL1
 13362 1863 22000000 		.4byte	.LVL6
 13363 1867 0100     		.2byte	0x1
 13364 1869 50       		.byte	0x50
 13365 186a 00000000 		.4byte	0
 13366 186e 00000000 		.4byte	0
 13367              	.LVUS7:
 13368 1872 02       		.uleb128 .LVU9
 13369 1873 00       		.uleb128 .LVU23
 13370              	.LLST7:
 13371 1874 04000000 		.4byte	.LVL1
 13372 1878 22000000 		.4byte	.LVL6
 13373 187c 0100     		.2byte	0x1
 13374 187e 50       		.byte	0x50
 13375 187f 00000000 		.4byte	0
 13376 1883 00000000 		.4byte	0
 13377              	.LVUS8:
 13378 1887 04       		.uleb128 .LVU11
 13379 1888 00       		.uleb128 .LVU23
 13380              	.LLST8:
 13381 1889 04000000 		.4byte	.LVL1
 13382 188d 22000000 		.4byte	.LVL6
 13383 1891 0100     		.2byte	0x1
 13384 1893 50       		.byte	0x50
 13385 1894 00000000 		.4byte	0
 13386 1898 00000000 		.4byte	0
 13387              	.LVUS26:
 13388 189c 00       		.uleb128 0
 13389 189d 00       		.uleb128 .LVU188
 13390 189e 00       		.uleb128 .LVU188
 13391 189f 00       		.uleb128 .LVU200
 13392 18a0 00       		.uleb128 .LVU200
 13393 18a1 00       		.uleb128 .LVU212
 13394 18a2 00       		.uleb128 .LVU212
 13395 18a3 00       		.uleb128 .LVU214
ARM GAS  /tmp/ccstZxWH.s 			page 236


 13396 18a4 00       		.uleb128 .LVU214
 13397 18a5 00       		.uleb128 .LVU215
 13398 18a6 00       		.uleb128 .LVU215
 13399 18a7 00       		.uleb128 0
 13400              	.LLST26:
 13401 18a8 00000000 		.4byte	.LVL34
 13402 18ac 0F000000 		.4byte	.LVL36-1
 13403 18b0 0100     		.2byte	0x1
 13404 18b2 50       		.byte	0x50
 13405 18b3 0F000000 		.4byte	.LVL36-1
 13406 18b7 1E000000 		.4byte	.LVL38
 13407 18bb 0100     		.2byte	0x1
 13408 18bd 54       		.byte	0x54
 13409 18be 1E000000 		.4byte	.LVL38
 13410 18c2 2C000000 		.4byte	.LVL40
 13411 18c6 0100     		.2byte	0x1
 13412 18c8 50       		.byte	0x50
 13413 18c9 2C000000 		.4byte	.LVL40
 13414 18cd 2E000000 		.4byte	.LVL41
 13415 18d1 0100     		.2byte	0x1
 13416 18d3 54       		.byte	0x54
 13417 18d4 2E000000 		.4byte	.LVL41
 13418 18d8 32000000 		.4byte	.LVL42
 13419 18dc 0100     		.2byte	0x1
 13420 18de 50       		.byte	0x50
 13421 18df 32000000 		.4byte	.LVL42
 13422 18e3 34000000 		.4byte	.LFE282
 13423 18e7 0100     		.2byte	0x1
 13424 18e9 54       		.byte	0x54
 13425 18ea 00000000 		.4byte	0
 13426 18ee 00000000 		.4byte	0
 13427              	.LVUS27:
 13428 18f2 00       		.uleb128 0
 13429 18f3 00       		.uleb128 .LVU188
 13430 18f4 00       		.uleb128 .LVU188
 13431 18f5 00       		.uleb128 .LVU200
 13432 18f6 00       		.uleb128 .LVU200
 13433 18f7 00       		.uleb128 .LVU212
 13434 18f8 00       		.uleb128 .LVU212
 13435 18f9 00       		.uleb128 .LVU214
 13436 18fa 00       		.uleb128 .LVU214
 13437 18fb 00       		.uleb128 0
 13438              	.LLST27:
 13439 18fc 00000000 		.4byte	.LVL34
 13440 1900 0F000000 		.4byte	.LVL36-1
 13441 1904 0100     		.2byte	0x1
 13442 1906 51       		.byte	0x51
 13443 1907 0F000000 		.4byte	.LVL36-1
 13444 190b 1E000000 		.4byte	.LVL38
 13445 190f 0100     		.2byte	0x1
 13446 1911 55       		.byte	0x55
 13447 1912 1E000000 		.4byte	.LVL38
 13448 1916 2C000000 		.4byte	.LVL40
 13449 191a 0100     		.2byte	0x1
 13450 191c 51       		.byte	0x51
 13451 191d 2C000000 		.4byte	.LVL40
 13452 1921 2E000000 		.4byte	.LVL41
ARM GAS  /tmp/ccstZxWH.s 			page 237


 13453 1925 0100     		.2byte	0x1
 13454 1927 55       		.byte	0x55
 13455 1928 2E000000 		.4byte	.LVL41
 13456 192c 34000000 		.4byte	.LFE282
 13457 1930 0100     		.2byte	0x1
 13458 1932 51       		.byte	0x51
 13459 1933 00000000 		.4byte	0
 13460 1937 00000000 		.4byte	0
 13461              	.LVUS28:
 13462 193b 00       		.uleb128 .LVU188
 13463 193c 00       		.uleb128 .LVU192
 13464              	.LLST28:
 13465 193d 10000000 		.4byte	.LVL36
 13466 1941 14000000 		.4byte	.LVL37
 13467 1945 0100     		.2byte	0x1
 13468 1947 50       		.byte	0x50
 13469 1948 00000000 		.4byte	0
 13470 194c 00000000 		.4byte	0
 13471              	.LVUS29:
 13472 1950 00       		.uleb128 .LVU186
 13473 1951 00       		.uleb128 .LVU188
 13474 1952 00       		.uleb128 .LVU188
 13475 1953 00       		.uleb128 .LVU188
 13476 1954 02       		.uleb128 .LVU194
 13477 1955 00       		.uleb128 .LVU200
 13478 1956 00       		.uleb128 .LVU200
 13479 1957 00       		.uleb128 .LVU212
 13480 1958 00       		.uleb128 .LVU214
 13481 1959 00       		.uleb128 0
 13482              	.LLST29:
 13483 195a 08000000 		.4byte	.LVL35
 13484 195e 0F000000 		.4byte	.LVL36-1
 13485 1962 0100     		.2byte	0x1
 13486 1964 51       		.byte	0x51
 13487 1965 0F000000 		.4byte	.LVL36-1
 13488 1969 10000000 		.4byte	.LVL36
 13489 196d 0100     		.2byte	0x1
 13490 196f 55       		.byte	0x55
 13491 1970 14000000 		.4byte	.LVL37
 13492 1974 1E000000 		.4byte	.LVL38
 13493 1978 0100     		.2byte	0x1
 13494 197a 55       		.byte	0x55
 13495 197b 1E000000 		.4byte	.LVL38
 13496 197f 2C000000 		.4byte	.LVL40
 13497 1983 0100     		.2byte	0x1
 13498 1985 51       		.byte	0x51
 13499 1986 2E000000 		.4byte	.LVL41
 13500 198a 34000000 		.4byte	.LFE282
 13501 198e 0100     		.2byte	0x1
 13502 1990 51       		.byte	0x51
 13503 1991 00000000 		.4byte	0
 13504 1995 00000000 		.4byte	0
 13505              	.LVUS30:
 13506 1999 00       		.uleb128 .LVU186
 13507 199a 00       		.uleb128 .LVU188
 13508 199b 00       		.uleb128 .LVU188
 13509 199c 00       		.uleb128 .LVU188
ARM GAS  /tmp/ccstZxWH.s 			page 238


 13510 199d 02       		.uleb128 .LVU194
 13511 199e 00       		.uleb128 .LVU200
 13512 199f 00       		.uleb128 .LVU200
 13513 19a0 00       		.uleb128 .LVU212
 13514 19a1 00       		.uleb128 .LVU214
 13515 19a2 00       		.uleb128 .LVU215
 13516 19a3 00       		.uleb128 .LVU215
 13517 19a4 00       		.uleb128 0
 13518              	.LLST30:
 13519 19a5 08000000 		.4byte	.LVL35
 13520 19a9 0F000000 		.4byte	.LVL36-1
 13521 19ad 0100     		.2byte	0x1
 13522 19af 50       		.byte	0x50
 13523 19b0 0F000000 		.4byte	.LVL36-1
 13524 19b4 10000000 		.4byte	.LVL36
 13525 19b8 0100     		.2byte	0x1
 13526 19ba 54       		.byte	0x54
 13527 19bb 14000000 		.4byte	.LVL37
 13528 19bf 1E000000 		.4byte	.LVL38
 13529 19c3 0100     		.2byte	0x1
 13530 19c5 54       		.byte	0x54
 13531 19c6 1E000000 		.4byte	.LVL38
 13532 19ca 2C000000 		.4byte	.LVL40
 13533 19ce 0100     		.2byte	0x1
 13534 19d0 50       		.byte	0x50
 13535 19d1 2E000000 		.4byte	.LVL41
 13536 19d5 32000000 		.4byte	.LVL42
 13537 19d9 0100     		.2byte	0x1
 13538 19db 50       		.byte	0x50
 13539 19dc 32000000 		.4byte	.LVL42
 13540 19e0 34000000 		.4byte	.LFE282
 13541 19e4 0100     		.2byte	0x1
 13542 19e6 54       		.byte	0x54
 13543 19e7 00000000 		.4byte	0
 13544 19eb 00000000 		.4byte	0
 13545              	.LVUS31:
 13546 19ef 01       		.uleb128 .LVU201
 13547 19f0 01       		.uleb128 .LVU211
 13548              	.LLST31:
 13549 19f1 1E000000 		.4byte	.LVL38
 13550 19f5 2A000000 		.4byte	.LVL39
 13551 19f9 0100     		.2byte	0x1
 13552 19fb 51       		.byte	0x51
 13553 19fc 00000000 		.4byte	0
 13554 1a00 00000000 		.4byte	0
 13555              	.LVUS32:
 13556 1a04 00       		.uleb128 .LVU200
 13557 1a05 01       		.uleb128 .LVU211
 13558              	.LLST32:
 13559 1a06 1E000000 		.4byte	.LVL38
 13560 1a0a 2A000000 		.4byte	.LVL39
 13561 1a0e 0100     		.2byte	0x1
 13562 1a10 50       		.byte	0x50
 13563 1a11 00000000 		.4byte	0
 13564 1a15 00000000 		.4byte	0
 13565              	.LVUS37:
 13566 1a19 00       		.uleb128 0
ARM GAS  /tmp/ccstZxWH.s 			page 239


 13567 1a1a 00       		.uleb128 .LVU299
 13568 1a1b 00       		.uleb128 .LVU299
 13569 1a1c 00       		.uleb128 .LVU299
 13570 1a1d 00       		.uleb128 .LVU299
 13571 1a1e 00       		.uleb128 0
 13572              	.LLST37:
 13573 1a1f 00000000 		.4byte	.LVL47
 13574 1a23 23000000 		.4byte	.LVL48-1
 13575 1a27 0100     		.2byte	0x1
 13576 1a29 50       		.byte	0x50
 13577 1a2a 23000000 		.4byte	.LVL48-1
 13578 1a2e 24000000 		.4byte	.LVL48
 13579 1a32 0400     		.2byte	0x4
 13580 1a34 F3       		.byte	0xf3
 13581 1a35 01       		.uleb128 0x1
 13582 1a36 50       		.byte	0x50
 13583 1a37 9F       		.byte	0x9f
 13584 1a38 24000000 		.4byte	.LVL48
 13585 1a3c 26000000 		.4byte	.LFE284
 13586 1a40 0100     		.2byte	0x1
 13587 1a42 50       		.byte	0x50
 13588 1a43 00000000 		.4byte	0
 13589 1a47 00000000 		.4byte	0
 13590              	.LVUS97:
 13591 1a4b 00       		.uleb128 0
 13592 1a4c 00       		.uleb128 .LVU850
 13593 1a4d 00       		.uleb128 .LVU850
 13594 1a4e 00       		.uleb128 .LVU862
 13595 1a4f 00       		.uleb128 .LVU862
 13596 1a50 00       		.uleb128 .LVU874
 13597 1a51 00       		.uleb128 .LVU874
 13598 1a52 00       		.uleb128 .LVU876
 13599 1a53 00       		.uleb128 .LVU876
 13600 1a54 00       		.uleb128 .LVU877
 13601 1a55 00       		.uleb128 .LVU877
 13602 1a56 00       		.uleb128 0
 13603              	.LLST97:
 13604 1a57 00000000 		.4byte	.LVL134
 13605 1a5b 0F000000 		.4byte	.LVL136-1
 13606 1a5f 0100     		.2byte	0x1
 13607 1a61 50       		.byte	0x50
 13608 1a62 0F000000 		.4byte	.LVL136-1
 13609 1a66 1E000000 		.4byte	.LVL138
 13610 1a6a 0100     		.2byte	0x1
 13611 1a6c 54       		.byte	0x54
 13612 1a6d 1E000000 		.4byte	.LVL138
 13613 1a71 2C000000 		.4byte	.LVL141
 13614 1a75 0100     		.2byte	0x1
 13615 1a77 50       		.byte	0x50
 13616 1a78 2C000000 		.4byte	.LVL141
 13617 1a7c 2E000000 		.4byte	.LVL142
 13618 1a80 0100     		.2byte	0x1
 13619 1a82 54       		.byte	0x54
 13620 1a83 2E000000 		.4byte	.LVL142
 13621 1a87 32000000 		.4byte	.LVL143
 13622 1a8b 0100     		.2byte	0x1
 13623 1a8d 50       		.byte	0x50
ARM GAS  /tmp/ccstZxWH.s 			page 240


 13624 1a8e 32000000 		.4byte	.LVL143
 13625 1a92 34000000 		.4byte	.LFE292
 13626 1a96 0100     		.2byte	0x1
 13627 1a98 54       		.byte	0x54
 13628 1a99 00000000 		.4byte	0
 13629 1a9d 00000000 		.4byte	0
 13630              	.LVUS98:
 13631 1aa1 00       		.uleb128 0
 13632 1aa2 00       		.uleb128 .LVU850
 13633 1aa3 00       		.uleb128 .LVU850
 13634 1aa4 00       		.uleb128 .LVU862
 13635 1aa5 00       		.uleb128 .LVU862
 13636 1aa6 00       		.uleb128 .LVU869
 13637 1aa7 00       		.uleb128 .LVU869
 13638 1aa8 00       		.uleb128 .LVU876
 13639 1aa9 00       		.uleb128 .LVU876
 13640 1aaa 00       		.uleb128 0
 13641              	.LLST98:
 13642 1aab 00000000 		.4byte	.LVL134
 13643 1aaf 0F000000 		.4byte	.LVL136-1
 13644 1ab3 0100     		.2byte	0x1
 13645 1ab5 51       		.byte	0x51
 13646 1ab6 0F000000 		.4byte	.LVL136-1
 13647 1aba 1E000000 		.4byte	.LVL138
 13648 1abe 0100     		.2byte	0x1
 13649 1ac0 55       		.byte	0x55
 13650 1ac1 1E000000 		.4byte	.LVL138
 13651 1ac5 22000000 		.4byte	.LVL139
 13652 1ac9 0100     		.2byte	0x1
 13653 1acb 51       		.byte	0x51
 13654 1acc 22000000 		.4byte	.LVL139
 13655 1ad0 2E000000 		.4byte	.LVL142
 13656 1ad4 0100     		.2byte	0x1
 13657 1ad6 55       		.byte	0x55
 13658 1ad7 2E000000 		.4byte	.LVL142
 13659 1adb 34000000 		.4byte	.LFE292
 13660 1adf 0100     		.2byte	0x1
 13661 1ae1 51       		.byte	0x51
 13662 1ae2 00000000 		.4byte	0
 13663 1ae6 00000000 		.4byte	0
 13664              	.LVUS99:
 13665 1aea 00       		.uleb128 .LVU850
 13666 1aeb 00       		.uleb128 .LVU854
 13667              	.LLST99:
 13668 1aec 10000000 		.4byte	.LVL136
 13669 1af0 14000000 		.4byte	.LVL137
 13670 1af4 0100     		.2byte	0x1
 13671 1af6 50       		.byte	0x50
 13672 1af7 00000000 		.4byte	0
 13673 1afb 00000000 		.4byte	0
 13674              	.LVUS100:
 13675 1aff 00       		.uleb128 .LVU848
 13676 1b00 00       		.uleb128 .LVU850
 13677 1b01 00       		.uleb128 .LVU850
 13678 1b02 00       		.uleb128 .LVU850
 13679 1b03 02       		.uleb128 .LVU856
 13680 1b04 00       		.uleb128 .LVU862
ARM GAS  /tmp/ccstZxWH.s 			page 241


 13681 1b05 00       		.uleb128 .LVU862
 13682 1b06 00       		.uleb128 .LVU869
 13683 1b07 00       		.uleb128 .LVU869
 13684 1b08 00       		.uleb128 .LVU874
 13685 1b09 00       		.uleb128 .LVU876
 13686 1b0a 00       		.uleb128 0
 13687              	.LLST100:
 13688 1b0b 08000000 		.4byte	.LVL135
 13689 1b0f 0F000000 		.4byte	.LVL136-1
 13690 1b13 0100     		.2byte	0x1
 13691 1b15 51       		.byte	0x51
 13692 1b16 0F000000 		.4byte	.LVL136-1
 13693 1b1a 10000000 		.4byte	.LVL136
 13694 1b1e 0100     		.2byte	0x1
 13695 1b20 55       		.byte	0x55
 13696 1b21 14000000 		.4byte	.LVL137
 13697 1b25 1E000000 		.4byte	.LVL138
 13698 1b29 0100     		.2byte	0x1
 13699 1b2b 55       		.byte	0x55
 13700 1b2c 1E000000 		.4byte	.LVL138
 13701 1b30 22000000 		.4byte	.LVL139
 13702 1b34 0100     		.2byte	0x1
 13703 1b36 51       		.byte	0x51
 13704 1b37 22000000 		.4byte	.LVL139
 13705 1b3b 2C000000 		.4byte	.LVL141
 13706 1b3f 0100     		.2byte	0x1
 13707 1b41 55       		.byte	0x55
 13708 1b42 2E000000 		.4byte	.LVL142
 13709 1b46 34000000 		.4byte	.LFE292
 13710 1b4a 0100     		.2byte	0x1
 13711 1b4c 51       		.byte	0x51
 13712 1b4d 00000000 		.4byte	0
 13713 1b51 00000000 		.4byte	0
 13714              	.LVUS101:
 13715 1b55 00       		.uleb128 .LVU848
 13716 1b56 00       		.uleb128 .LVU850
 13717 1b57 00       		.uleb128 .LVU850
 13718 1b58 00       		.uleb128 .LVU850
 13719 1b59 02       		.uleb128 .LVU856
 13720 1b5a 00       		.uleb128 .LVU862
 13721 1b5b 00       		.uleb128 .LVU862
 13722 1b5c 00       		.uleb128 .LVU874
 13723 1b5d 00       		.uleb128 .LVU876
 13724 1b5e 00       		.uleb128 .LVU877
 13725 1b5f 00       		.uleb128 .LVU877
 13726 1b60 00       		.uleb128 0
 13727              	.LLST101:
 13728 1b61 08000000 		.4byte	.LVL135
 13729 1b65 0F000000 		.4byte	.LVL136-1
 13730 1b69 0100     		.2byte	0x1
 13731 1b6b 50       		.byte	0x50
 13732 1b6c 0F000000 		.4byte	.LVL136-1
 13733 1b70 10000000 		.4byte	.LVL136
 13734 1b74 0100     		.2byte	0x1
 13735 1b76 54       		.byte	0x54
 13736 1b77 14000000 		.4byte	.LVL137
 13737 1b7b 1E000000 		.4byte	.LVL138
ARM GAS  /tmp/ccstZxWH.s 			page 242


 13738 1b7f 0100     		.2byte	0x1
 13739 1b81 54       		.byte	0x54
 13740 1b82 1E000000 		.4byte	.LVL138
 13741 1b86 2C000000 		.4byte	.LVL141
 13742 1b8a 0100     		.2byte	0x1
 13743 1b8c 50       		.byte	0x50
 13744 1b8d 2E000000 		.4byte	.LVL142
 13745 1b91 32000000 		.4byte	.LVL143
 13746 1b95 0100     		.2byte	0x1
 13747 1b97 50       		.byte	0x50
 13748 1b98 32000000 		.4byte	.LVL143
 13749 1b9c 34000000 		.4byte	.LFE292
 13750 1ba0 0100     		.2byte	0x1
 13751 1ba2 54       		.byte	0x54
 13752 1ba3 00000000 		.4byte	0
 13753 1ba7 00000000 		.4byte	0
 13754              	.LVUS102:
 13755 1bab 01       		.uleb128 .LVU863
 13756 1bac 00       		.uleb128 .LVU869
 13757 1bad 00       		.uleb128 .LVU869
 13758 1bae 01       		.uleb128 .LVU873
 13759              	.LLST102:
 13760 1baf 1E000000 		.4byte	.LVL138
 13761 1bb3 22000000 		.4byte	.LVL139
 13762 1bb7 0100     		.2byte	0x1
 13763 1bb9 51       		.byte	0x51
 13764 1bba 22000000 		.4byte	.LVL139
 13765 1bbe 2A000000 		.4byte	.LVL140
 13766 1bc2 0100     		.2byte	0x1
 13767 1bc4 55       		.byte	0x55
 13768 1bc5 00000000 		.4byte	0
 13769 1bc9 00000000 		.4byte	0
 13770              	.LVUS103:
 13771 1bcd 00       		.uleb128 .LVU862
 13772 1bce 01       		.uleb128 .LVU873
 13773              	.LLST103:
 13774 1bcf 1E000000 		.4byte	.LVL138
 13775 1bd3 2A000000 		.4byte	.LVL140
 13776 1bd7 0100     		.2byte	0x1
 13777 1bd9 50       		.byte	0x50
 13778 1bda 00000000 		.4byte	0
 13779 1bde 00000000 		.4byte	0
 13780              	.LVUS110:
 13781 1be2 00       		.uleb128 0
 13782 1be3 00       		.uleb128 .LVU976
 13783 1be4 00       		.uleb128 .LVU976
 13784 1be5 00       		.uleb128 .LVU976
 13785 1be6 00       		.uleb128 .LVU976
 13786 1be7 00       		.uleb128 0
 13787              	.LLST110:
 13788 1be8 00000000 		.4byte	.LVL151
 13789 1bec 27000000 		.4byte	.LVL155-1
 13790 1bf0 0100     		.2byte	0x1
 13791 1bf2 50       		.byte	0x50
 13792 1bf3 27000000 		.4byte	.LVL155-1
 13793 1bf7 28000000 		.4byte	.LVL155
 13794 1bfb 0400     		.2byte	0x4
ARM GAS  /tmp/ccstZxWH.s 			page 243


 13795 1bfd F3       		.byte	0xf3
 13796 1bfe 01       		.uleb128 0x1
 13797 1bff 50       		.byte	0x50
 13798 1c00 9F       		.byte	0x9f
 13799 1c01 28000000 		.4byte	.LVL155
 13800 1c05 2C000000 		.4byte	.LFE294
 13801 1c09 0100     		.2byte	0x1
 13802 1c0b 50       		.byte	0x50
 13803 1c0c 00000000 		.4byte	0
 13804 1c10 00000000 		.4byte	0
 13805              	.LVUS111:
 13806 1c14 00       		.uleb128 0
 13807 1c15 00       		.uleb128 .LVU958
 13808 1c16 00       		.uleb128 .LVU958
 13809 1c17 00       		.uleb128 .LVU960
 13810 1c18 00       		.uleb128 .LVU960
 13811 1c19 00       		.uleb128 .LVU962
 13812 1c1a 00       		.uleb128 .LVU962
 13813 1c1b 00       		.uleb128 0
 13814              	.LLST111:
 13815 1c1c 00000000 		.4byte	.LVL151
 13816 1c20 0A000000 		.4byte	.LVL152
 13817 1c24 0100     		.2byte	0x1
 13818 1c26 51       		.byte	0x51
 13819 1c27 0A000000 		.4byte	.LVL152
 13820 1c2b 0E000000 		.4byte	.LVL153
 13821 1c2f 0200     		.2byte	0x2
 13822 1c31 73       		.byte	0x73
 13823 1c32 00       		.sleb128 0
 13824 1c33 0E000000 		.4byte	.LVL153
 13825 1c37 12000000 		.4byte	.LVL154
 13826 1c3b 0300     		.2byte	0x3
 13827 1c3d 70       		.byte	0x70
 13828 1c3e 10       		.sleb128 16
 13829 1c3f 06       		.byte	0x6
 13830 1c40 12000000 		.4byte	.LVL154
 13831 1c44 2C000000 		.4byte	.LFE294
 13832 1c48 0400     		.2byte	0x4
 13833 1c4a F3       		.byte	0xf3
 13834 1c4b 01       		.uleb128 0x1
 13835 1c4c 51       		.byte	0x51
 13836 1c4d 9F       		.byte	0x9f
 13837 1c4e 00000000 		.4byte	0
 13838 1c52 00000000 		.4byte	0
 13839              		.section	.debug_aranges,"",%progbits
 13840 0000 C4000000 		.4byte	0xc4
 13841 0004 0200     		.2byte	0x2
 13842 0006 00000000 		.4byte	.Ldebug_info0
 13843 000a 04       		.byte	0x4
 13844 000b 00       		.byte	0
 13845 000c 0000     		.2byte	0
 13846 000e 0000     		.2byte	0
 13847 0010 00000000 		.4byte	.LFB277
 13848 0014 30000000 		.4byte	.LFE277-.LFB277
 13849 0018 00000000 		.4byte	.LFB278
 13850 001c 16000000 		.4byte	.LFE278-.LFB278
 13851 0020 00000000 		.4byte	.LFB279
ARM GAS  /tmp/ccstZxWH.s 			page 244


 13852 0024 16000000 		.4byte	.LFE279-.LFB279
 13853 0028 00000000 		.4byte	.LFB280
 13854 002c 28000000 		.4byte	.LFE280-.LFB280
 13855 0030 00000000 		.4byte	.LFB281
 13856 0034 46000000 		.4byte	.LFE281-.LFB281
 13857 0038 00000000 		.4byte	.LFB282
 13858 003c 34000000 		.4byte	.LFE282-.LFB282
 13859 0040 00000000 		.4byte	.LFB283
 13860 0044 34000000 		.4byte	.LFE283-.LFB283
 13861 0048 00000000 		.4byte	.LFB284
 13862 004c 26000000 		.4byte	.LFE284-.LFB284
 13863 0050 00000000 		.4byte	.LFB285
 13864 0054 82000000 		.4byte	.LFE285-.LFB285
 13865 0058 00000000 		.4byte	.LFB286
 13866 005c 3E010000 		.4byte	.LFE286-.LFB286
 13867 0060 00000000 		.4byte	.LFB287
 13868 0064 30000000 		.4byte	.LFE287-.LFB287
 13869 0068 00000000 		.4byte	.LFB288
 13870 006c 1A000000 		.4byte	.LFE288-.LFB288
 13871 0070 00000000 		.4byte	.LFB289
 13872 0074 1C000000 		.4byte	.LFE289-.LFB289
 13873 0078 00000000 		.4byte	.LFB290
 13874 007c 24000000 		.4byte	.LFE290-.LFB290
 13875 0080 00000000 		.4byte	.LFB291
 13876 0084 46000000 		.4byte	.LFE291-.LFB291
 13877 0088 00000000 		.4byte	.LFB292
 13878 008c 34000000 		.4byte	.LFE292-.LFB292
 13879 0090 00000000 		.4byte	.LFB293
 13880 0094 34000000 		.4byte	.LFE293-.LFB293
 13881 0098 00000000 		.4byte	.LFB294
 13882 009c 2C000000 		.4byte	.LFE294-.LFB294
 13883 00a0 00000000 		.4byte	.LFB295
 13884 00a4 88000000 		.4byte	.LFE295-.LFB295
 13885 00a8 00000000 		.4byte	.LFB296
 13886 00ac 3E010000 		.4byte	.LFE296-.LFB296
 13887 00b0 00000000 		.4byte	.LFB297
 13888 00b4 42000000 		.4byte	.LFE297-.LFB297
 13889 00b8 00000000 		.4byte	.LFB298
 13890 00bc 4C000000 		.4byte	.LFE298-.LFB298
 13891 00c0 00000000 		.4byte	0
 13892 00c4 00000000 		.4byte	0
 13893              		.section	.debug_ranges,"",%progbits
 13894              	.Ldebug_ranges0:
 13895 0000 04000000 		.4byte	.LBB273
 13896 0004 04000000 		.4byte	.LBE273
 13897 0008 04000000 		.4byte	.LBB281
 13898 000c 04000000 		.4byte	.LBE281
 13899 0010 04000000 		.4byte	.LBB282
 13900 0014 04000000 		.4byte	.LBE282
 13901 0018 1E000000 		.4byte	.LBB283
 13902 001c 22000000 		.4byte	.LBE283
 13903 0020 00000000 		.4byte	0
 13904 0024 00000000 		.4byte	0
 13905 0028 04000000 		.4byte	.LBB309
 13906 002c 04000000 		.4byte	.LBE309
 13907 0030 04000000 		.4byte	.LBB321
 13908 0034 04000000 		.4byte	.LBE321
ARM GAS  /tmp/ccstZxWH.s 			page 245


 13909 0038 04000000 		.4byte	.LBB322
 13910 003c 04000000 		.4byte	.LBE322
 13911 0040 04000000 		.4byte	.LBB323
 13912 0044 04000000 		.4byte	.LBE323
 13913 0048 06000000 		.4byte	.LBB324
 13914 004c 0C000000 		.4byte	.LBE324
 13915 0050 00000000 		.4byte	0
 13916 0054 00000000 		.4byte	0
 13917 0058 0C000000 		.4byte	.LBB325
 13918 005c 32000000 		.4byte	.LBE325
 13919 0060 3A000000 		.4byte	.LBB358
 13920 0064 3E000000 		.4byte	.LBE358
 13921 0068 00000000 		.4byte	0
 13922 006c 00000000 		.4byte	0
 13923 0070 0E000000 		.4byte	.LBB327
 13924 0074 1A000000 		.4byte	.LBE327
 13925 0078 1C000000 		.4byte	.LBB334
 13926 007c 20000000 		.4byte	.LBE334
 13927 0080 3A000000 		.4byte	.LBB337
 13928 0084 3E000000 		.4byte	.LBE337
 13929 0088 00000000 		.4byte	0
 13930 008c 00000000 		.4byte	0
 13931 0090 12000000 		.4byte	.LBB328
 13932 0094 16000000 		.4byte	.LBE328
 13933 0098 1A000000 		.4byte	.LBB332
 13934 009c 1A000000 		.4byte	.LBE332
 13935 00a0 1C000000 		.4byte	.LBB333
 13936 00a4 20000000 		.4byte	.LBE333
 13937 00a8 00000000 		.4byte	0
 13938 00ac 00000000 		.4byte	0
 13939 00b0 32000000 		.4byte	.LBB339
 13940 00b4 32000000 		.4byte	.LBE339
 13941 00b8 32000000 		.4byte	.LBB356
 13942 00bc 32000000 		.4byte	.LBE356
 13943 00c0 32000000 		.4byte	.LBB357
 13944 00c4 38000000 		.4byte	.LBE357
 13945 00c8 3E000000 		.4byte	.LBB359
 13946 00cc 3E000000 		.4byte	.LBE359
 13947 00d0 3E000000 		.4byte	.LBB360
 13948 00d4 3E000000 		.4byte	.LBE360
 13949 00d8 3E000000 		.4byte	.LBB361
 13950 00dc 44000000 		.4byte	.LBE361
 13951 00e0 00000000 		.4byte	0
 13952 00e4 00000000 		.4byte	0
 13953 00e8 32000000 		.4byte	.LBB340
 13954 00ec 32000000 		.4byte	.LBE340
 13955 00f0 32000000 		.4byte	.LBB353
 13956 00f4 38000000 		.4byte	.LBE353
 13957 00f8 3E000000 		.4byte	.LBB354
 13958 00fc 3E000000 		.4byte	.LBE354
 13959 0100 3E000000 		.4byte	.LBB355
 13960 0104 44000000 		.4byte	.LBE355
 13961 0108 00000000 		.4byte	0
 13962 010c 00000000 		.4byte	0
 13963 0110 32000000 		.4byte	.LBB343
 13964 0114 38000000 		.4byte	.LBE343
 13965 0118 3E000000 		.4byte	.LBB346
ARM GAS  /tmp/ccstZxWH.s 			page 246


 13966 011c 44000000 		.4byte	.LBE346
 13967 0120 00000000 		.4byte	0
 13968 0124 00000000 		.4byte	0
 13969 0128 08000000 		.4byte	.LBB373
 13970 012c 14000000 		.4byte	.LBE373
 13971 0130 16000000 		.4byte	.LBB380
 13972 0134 1A000000 		.4byte	.LBE380
 13973 0138 2E000000 		.4byte	.LBB383
 13974 013c 32000000 		.4byte	.LBE383
 13975 0140 00000000 		.4byte	0
 13976 0144 00000000 		.4byte	0
 13977 0148 0C000000 		.4byte	.LBB374
 13978 014c 10000000 		.4byte	.LBE374
 13979 0150 14000000 		.4byte	.LBB378
 13980 0154 14000000 		.4byte	.LBE378
 13981 0158 16000000 		.4byte	.LBB379
 13982 015c 1A000000 		.4byte	.LBE379
 13983 0160 00000000 		.4byte	0
 13984 0164 00000000 		.4byte	0
 13985 0168 00000000 		.4byte	.LBB397
 13986 016c 00000000 		.4byte	.LBE397
 13987 0170 00000000 		.4byte	.LBB409
 13988 0174 00000000 		.4byte	.LBE409
 13989 0178 00000000 		.4byte	.LBB410
 13990 017c 00000000 		.4byte	.LBE410
 13991 0180 00000000 		.4byte	.LBB411
 13992 0184 00000000 		.4byte	.LBE411
 13993 0188 02000000 		.4byte	.LBB412
 13994 018c 08000000 		.4byte	.LBE412
 13995 0190 00000000 		.4byte	0
 13996 0194 00000000 		.4byte	0
 13997 0198 2C000000 		.4byte	.LBB415
 13998 019c 2C000000 		.4byte	.LBE415
 13999 01a0 2C000000 		.4byte	.LBB424
 14000 01a4 2C000000 		.4byte	.LBE424
 14001 01a8 2C000000 		.4byte	.LBB425
 14002 01ac 32000000 		.4byte	.LBE425
 14003 01b0 00000000 		.4byte	0
 14004 01b4 00000000 		.4byte	0
 14005 01b8 02000000 		.4byte	.LBB455
 14006 01bc 04000000 		.4byte	.LBE455
 14007 01c0 06000000 		.4byte	.LBB467
 14008 01c4 06000000 		.4byte	.LBE467
 14009 01c8 06000000 		.4byte	.LBB468
 14010 01cc 06000000 		.4byte	.LBE468
 14011 01d0 06000000 		.4byte	.LBB469
 14012 01d4 06000000 		.4byte	.LBE469
 14013 01d8 06000000 		.4byte	.LBB470
 14014 01dc 0A000000 		.4byte	.LBE470
 14015 01e0 00000000 		.4byte	0
 14016 01e4 00000000 		.4byte	0
 14017 01e8 02000000 		.4byte	.LBB456
 14018 01ec 04000000 		.4byte	.LBE456
 14019 01f0 06000000 		.4byte	.LBB464
 14020 01f4 06000000 		.4byte	.LBE464
 14021 01f8 06000000 		.4byte	.LBB465
 14022 01fc 06000000 		.4byte	.LBE465
ARM GAS  /tmp/ccstZxWH.s 			page 247


 14023 0200 06000000 		.4byte	.LBB466
 14024 0204 0A000000 		.4byte	.LBE466
 14025 0208 00000000 		.4byte	0
 14026 020c 00000000 		.4byte	0
 14027 0210 02000000 		.4byte	.LBB457
 14028 0214 04000000 		.4byte	.LBE457
 14029 0218 06000000 		.4byte	.LBB462
 14030 021c 06000000 		.4byte	.LBE462
 14031 0220 06000000 		.4byte	.LBB463
 14032 0224 0A000000 		.4byte	.LBE463
 14033 0228 00000000 		.4byte	0
 14034 022c 00000000 		.4byte	0
 14035 0230 02000000 		.4byte	.LBB458
 14036 0234 04000000 		.4byte	.LBE458
 14037 0238 06000000 		.4byte	.LBB461
 14038 023c 0A000000 		.4byte	.LBE461
 14039 0240 00000000 		.4byte	0
 14040 0244 00000000 		.4byte	0
 14041 0248 1A000000 		.4byte	.LBB471
 14042 024c 1A000000 		.4byte	.LBE471
 14043 0250 1A000000 		.4byte	.LBB488
 14044 0254 1A000000 		.4byte	.LBE488
 14045 0258 1A000000 		.4byte	.LBB489
 14046 025c 20000000 		.4byte	.LBE489
 14047 0260 4A000000 		.4byte	.LBB503
 14048 0264 4A000000 		.4byte	.LBE503
 14049 0268 4A000000 		.4byte	.LBB504
 14050 026c 4A000000 		.4byte	.LBE504
 14051 0270 4A000000 		.4byte	.LBB505
 14052 0274 50000000 		.4byte	.LBE505
 14053 0278 00000000 		.4byte	0
 14054 027c 00000000 		.4byte	0
 14055 0280 1A000000 		.4byte	.LBB472
 14056 0284 1A000000 		.4byte	.LBE472
 14057 0288 1A000000 		.4byte	.LBB485
 14058 028c 20000000 		.4byte	.LBE485
 14059 0290 4A000000 		.4byte	.LBB486
 14060 0294 4A000000 		.4byte	.LBE486
 14061 0298 4A000000 		.4byte	.LBB487
 14062 029c 50000000 		.4byte	.LBE487
 14063 02a0 00000000 		.4byte	0
 14064 02a4 00000000 		.4byte	0
 14065 02a8 1A000000 		.4byte	.LBB475
 14066 02ac 20000000 		.4byte	.LBE475
 14067 02b0 4A000000 		.4byte	.LBB478
 14068 02b4 50000000 		.4byte	.LBE478
 14069 02b8 00000000 		.4byte	0
 14070 02bc 00000000 		.4byte	0
 14071 02c0 4A000000 		.4byte	.LBB492
 14072 02c4 4A000000 		.4byte	.LBE492
 14073 02c8 4A000000 		.4byte	.LBB501
 14074 02cc 4A000000 		.4byte	.LBE501
 14075 02d0 4A000000 		.4byte	.LBB502
 14076 02d4 4A000000 		.4byte	.LBE502
 14077 02d8 00000000 		.4byte	0
 14078 02dc 00000000 		.4byte	0
 14079 02e0 58000000 		.4byte	.LBB506
ARM GAS  /tmp/ccstZxWH.s 			page 248


 14080 02e4 7A000000 		.4byte	.LBE506
 14081 02e8 7C000000 		.4byte	.LBB520
 14082 02ec 82000000 		.4byte	.LBE520
 14083 02f0 00000000 		.4byte	0
 14084 02f4 00000000 		.4byte	0
 14085 02f8 58000000 		.4byte	.LBB508
 14086 02fc 64000000 		.4byte	.LBE508
 14087 0300 66000000 		.4byte	.LBB515
 14088 0304 6A000000 		.4byte	.LBE515
 14089 0308 7C000000 		.4byte	.LBB518
 14090 030c 82000000 		.4byte	.LBE518
 14091 0310 00000000 		.4byte	0
 14092 0314 00000000 		.4byte	0
 14093 0318 5C000000 		.4byte	.LBB509
 14094 031c 60000000 		.4byte	.LBE509
 14095 0320 64000000 		.4byte	.LBB513
 14096 0324 64000000 		.4byte	.LBE513
 14097 0328 66000000 		.4byte	.LBB514
 14098 032c 6A000000 		.4byte	.LBE514
 14099 0330 00000000 		.4byte	0
 14100 0334 00000000 		.4byte	0
 14101 0338 00000000 		.4byte	.LBB585
 14102 033c 00000000 		.4byte	.LBE585
 14103 0340 00000000 		.4byte	.LBB597
 14104 0344 00000000 		.4byte	.LBE597
 14105 0348 00000000 		.4byte	.LBB598
 14106 034c 00000000 		.4byte	.LBE598
 14107 0350 00000000 		.4byte	.LBB599
 14108 0354 00000000 		.4byte	.LBE599
 14109 0358 0E000000 		.4byte	.LBB600
 14110 035c 14000000 		.4byte	.LBE600
 14111 0360 00000000 		.4byte	0
 14112 0364 00000000 		.4byte	0
 14113 0368 14000000 		.4byte	.LBB601
 14114 036c 14000000 		.4byte	.LBE601
 14115 0370 14000000 		.4byte	.LBB613
 14116 0374 14000000 		.4byte	.LBE613
 14117 0378 14000000 		.4byte	.LBB614
 14118 037c 14000000 		.4byte	.LBE614
 14119 0380 14000000 		.4byte	.LBB615
 14120 0384 18000000 		.4byte	.LBE615
 14121 0388 1A000000 		.4byte	.LBB723
 14122 038c 1C000000 		.4byte	.LBE723
 14123 0390 00000000 		.4byte	0
 14124 0394 00000000 		.4byte	0
 14125 0398 18000000 		.4byte	.LBB616
 14126 039c 1A000000 		.4byte	.LBE616
 14127 03a0 22000000 		.4byte	.LBB724
 14128 03a4 7A000000 		.4byte	.LBE724
 14129 03a8 7A000000 		.4byte	.LBB725
 14130 03ac 7A000000 		.4byte	.LBE725
 14131 03b0 7A000000 		.4byte	.LBB726
 14132 03b4 82000000 		.4byte	.LBE726
 14133 03b8 82000000 		.4byte	.LBB727
 14134 03bc 82000000 		.4byte	.LBE727
 14135 03c0 82000000 		.4byte	.LBB728
 14136 03c4 88000000 		.4byte	.LBE728
ARM GAS  /tmp/ccstZxWH.s 			page 249


 14137 03c8 88000000 		.4byte	.LBB729
 14138 03cc 94000000 		.4byte	.LBE729
 14139 03d0 94000000 		.4byte	.LBB730
 14140 03d4 94000000 		.4byte	.LBE730
 14141 03d8 94000000 		.4byte	.LBB731
 14142 03dc 94000000 		.4byte	.LBE731
 14143 03e0 94000000 		.4byte	.LBB732
 14144 03e4 24010000 		.4byte	.LBE732
 14145 03e8 24010000 		.4byte	.LBB733
 14146 03ec 24010000 		.4byte	.LBE733
 14147 03f0 24010000 		.4byte	.LBB734
 14148 03f4 2A010000 		.4byte	.LBE734
 14149 03f8 32010000 		.4byte	.LBB735
 14150 03fc 32010000 		.4byte	.LBE735
 14151 0400 32010000 		.4byte	.LBB736
 14152 0404 32010000 		.4byte	.LBE736
 14153 0408 32010000 		.4byte	.LBB737
 14154 040c 36010000 		.4byte	.LBE737
 14155 0410 00000000 		.4byte	0
 14156 0414 00000000 		.4byte	0
 14157 0418 22000000 		.4byte	.LBB617
 14158 041c 26000000 		.4byte	.LBE617
 14159 0420 8E000000 		.4byte	.LBB712
 14160 0424 94000000 		.4byte	.LBE712
 14161 0428 94000000 		.4byte	.LBB713
 14162 042c 94000000 		.4byte	.LBE713
 14163 0430 94000000 		.4byte	.LBB714
 14164 0434 94000000 		.4byte	.LBE714
 14165 0438 94000000 		.4byte	.LBB715
 14166 043c CC000000 		.4byte	.LBE715
 14167 0440 0C010000 		.4byte	.LBB717
 14168 0444 24010000 		.4byte	.LBE717
 14169 0448 24010000 		.4byte	.LBB718
 14170 044c 24010000 		.4byte	.LBE718
 14171 0450 24010000 		.4byte	.LBB719
 14172 0454 2A010000 		.4byte	.LBE719
 14173 0458 32010000 		.4byte	.LBB720
 14174 045c 32010000 		.4byte	.LBE720
 14175 0460 32010000 		.4byte	.LBB721
 14176 0464 32010000 		.4byte	.LBE721
 14177 0468 32010000 		.4byte	.LBB722
 14178 046c 36010000 		.4byte	.LBE722
 14179 0470 00000000 		.4byte	0
 14180 0474 00000000 		.4byte	0
 14181 0478 94000000 		.4byte	.LBB618
 14182 047c 94000000 		.4byte	.LBE618
 14183 0480 94000000 		.4byte	.LBB658
 14184 0484 94000000 		.4byte	.LBE658
 14185 0488 94000000 		.4byte	.LBB659
 14186 048c 94000000 		.4byte	.LBE659
 14187 0490 94000000 		.4byte	.LBB660
 14188 0494 CA000000 		.4byte	.LBE660
 14189 0498 32010000 		.4byte	.LBB682
 14190 049c 32010000 		.4byte	.LBE682
 14191 04a0 32010000 		.4byte	.LBB683
 14192 04a4 32010000 		.4byte	.LBE683
 14193 04a8 32010000 		.4byte	.LBB684
ARM GAS  /tmp/ccstZxWH.s 			page 250


 14194 04ac 36010000 		.4byte	.LBE684
 14195 04b0 00000000 		.4byte	0
 14196 04b4 00000000 		.4byte	0
 14197 04b8 94000000 		.4byte	.LBB619
 14198 04bc 94000000 		.4byte	.LBE619
 14199 04c0 94000000 		.4byte	.LBB631
 14200 04c4 94000000 		.4byte	.LBE631
 14201 04c8 94000000 		.4byte	.LBB632
 14202 04cc 94000000 		.4byte	.LBE632
 14203 04d0 94000000 		.4byte	.LBB633
 14204 04d4 98000000 		.4byte	.LBE633
 14205 04d8 9A000000 		.4byte	.LBB634
 14206 04dc 9C000000 		.4byte	.LBE634
 14207 04e0 00000000 		.4byte	0
 14208 04e4 00000000 		.4byte	0
 14209 04e8 A6000000 		.4byte	.LBB637
 14210 04ec B4000000 		.4byte	.LBE637
 14211 04f0 B6000000 		.4byte	.LBB644
 14212 04f4 BA000000 		.4byte	.LBE644
 14213 04f8 00000000 		.4byte	0
 14214 04fc 00000000 		.4byte	0
 14215 0500 AC000000 		.4byte	.LBB638
 14216 0504 B0000000 		.4byte	.LBE638
 14217 0508 B4000000 		.4byte	.LBB642
 14218 050c B4000000 		.4byte	.LBE642
 14219 0510 B6000000 		.4byte	.LBB643
 14220 0514 BA000000 		.4byte	.LBE643
 14221 0518 00000000 		.4byte	0
 14222 051c 00000000 		.4byte	0
 14223 0520 0C010000 		.4byte	.LBB663
 14224 0524 18010000 		.4byte	.LBE663
 14225 0528 1A010000 		.4byte	.LBB670
 14226 052c 1E010000 		.4byte	.LBE670
 14227 0530 00000000 		.4byte	0
 14228 0534 00000000 		.4byte	0
 14229 0538 10010000 		.4byte	.LBB664
 14230 053c 14010000 		.4byte	.LBE664
 14231 0540 18010000 		.4byte	.LBB668
 14232 0544 18010000 		.4byte	.LBE668
 14233 0548 1A010000 		.4byte	.LBB669
 14234 054c 1E010000 		.4byte	.LBE669
 14235 0550 00000000 		.4byte	0
 14236 0554 00000000 		.4byte	0
 14237 0558 24010000 		.4byte	.LBB671
 14238 055c 24010000 		.4byte	.LBE671
 14239 0560 24010000 		.4byte	.LBB680
 14240 0564 24010000 		.4byte	.LBE680
 14241 0568 24010000 		.4byte	.LBB681
 14242 056c 2A010000 		.4byte	.LBE681
 14243 0570 00000000 		.4byte	0
 14244 0574 00000000 		.4byte	0
 14245 0578 26000000 		.4byte	.LBB685
 14246 057c 28000000 		.4byte	.LBE685
 14247 0580 E4000000 		.4byte	.LBB716
 14248 0584 0C010000 		.4byte	.LBE716
 14249 0588 00000000 		.4byte	0
 14250 058c 00000000 		.4byte	0
ARM GAS  /tmp/ccstZxWH.s 			page 251


 14251 0590 7A000000 		.4byte	.LBB688
 14252 0594 7A000000 		.4byte	.LBE688
 14253 0598 7A000000 		.4byte	.LBB697
 14254 059c 7A000000 		.4byte	.LBE697
 14255 05a0 7A000000 		.4byte	.LBB698
 14256 05a4 7E000000 		.4byte	.LBE698
 14257 05a8 00000000 		.4byte	0
 14258 05ac 00000000 		.4byte	0
 14259 05b0 82000000 		.4byte	.LBB699
 14260 05b4 82000000 		.4byte	.LBE699
 14261 05b8 82000000 		.4byte	.LBB710
 14262 05bc 82000000 		.4byte	.LBE710
 14263 05c0 82000000 		.4byte	.LBB711
 14264 05c4 88000000 		.4byte	.LBE711
 14265 05c8 00000000 		.4byte	0
 14266 05cc 00000000 		.4byte	0
 14267 05d0 82000000 		.4byte	.LBB701
 14268 05d4 82000000 		.4byte	.LBE701
 14269 05d8 82000000 		.4byte	.LBB706
 14270 05dc 82000000 		.4byte	.LBE706
 14271 05e0 82000000 		.4byte	.LBB707
 14272 05e4 88000000 		.4byte	.LBE707
 14273 05e8 00000000 		.4byte	0
 14274 05ec 00000000 		.4byte	0
 14275 05f0 82000000 		.4byte	.LBB702
 14276 05f4 82000000 		.4byte	.LBE702
 14277 05f8 82000000 		.4byte	.LBB705
 14278 05fc 88000000 		.4byte	.LBE705
 14279 0600 00000000 		.4byte	0
 14280 0604 00000000 		.4byte	0
 14281 0608 04000000 		.4byte	.LBB738
 14282 060c 04000000 		.4byte	.LBE738
 14283 0610 04000000 		.4byte	.LBB746
 14284 0614 04000000 		.4byte	.LBE746
 14285 0618 04000000 		.4byte	.LBB747
 14286 061c 04000000 		.4byte	.LBE747
 14287 0620 22000000 		.4byte	.LBB748
 14288 0624 26000000 		.4byte	.LBE748
 14289 0628 00000000 		.4byte	0
 14290 062c 00000000 		.4byte	0
 14291 0630 04000000 		.4byte	.LBB774
 14292 0634 04000000 		.4byte	.LBE774
 14293 0638 04000000 		.4byte	.LBB786
 14294 063c 04000000 		.4byte	.LBE786
 14295 0640 04000000 		.4byte	.LBB787
 14296 0644 04000000 		.4byte	.LBE787
 14297 0648 04000000 		.4byte	.LBB788
 14298 064c 04000000 		.4byte	.LBE788
 14299 0650 06000000 		.4byte	.LBB789
 14300 0654 0C000000 		.4byte	.LBE789
 14301 0658 00000000 		.4byte	0
 14302 065c 00000000 		.4byte	0
 14303 0660 0C000000 		.4byte	.LBB790
 14304 0664 32000000 		.4byte	.LBE790
 14305 0668 3A000000 		.4byte	.LBB823
 14306 066c 3E000000 		.4byte	.LBE823
 14307 0670 00000000 		.4byte	0
ARM GAS  /tmp/ccstZxWH.s 			page 252


 14308 0674 00000000 		.4byte	0
 14309 0678 0E000000 		.4byte	.LBB792
 14310 067c 1A000000 		.4byte	.LBE792
 14311 0680 1C000000 		.4byte	.LBB799
 14312 0684 20000000 		.4byte	.LBE799
 14313 0688 3A000000 		.4byte	.LBB802
 14314 068c 3E000000 		.4byte	.LBE802
 14315 0690 00000000 		.4byte	0
 14316 0694 00000000 		.4byte	0
 14317 0698 12000000 		.4byte	.LBB793
 14318 069c 16000000 		.4byte	.LBE793
 14319 06a0 1A000000 		.4byte	.LBB797
 14320 06a4 1A000000 		.4byte	.LBE797
 14321 06a8 1C000000 		.4byte	.LBB798
 14322 06ac 20000000 		.4byte	.LBE798
 14323 06b0 00000000 		.4byte	0
 14324 06b4 00000000 		.4byte	0
 14325 06b8 32000000 		.4byte	.LBB804
 14326 06bc 32000000 		.4byte	.LBE804
 14327 06c0 32000000 		.4byte	.LBB821
 14328 06c4 32000000 		.4byte	.LBE821
 14329 06c8 32000000 		.4byte	.LBB822
 14330 06cc 38000000 		.4byte	.LBE822
 14331 06d0 3E000000 		.4byte	.LBB824
 14332 06d4 3E000000 		.4byte	.LBE824
 14333 06d8 3E000000 		.4byte	.LBB825
 14334 06dc 3E000000 		.4byte	.LBE825
 14335 06e0 3E000000 		.4byte	.LBB826
 14336 06e4 44000000 		.4byte	.LBE826
 14337 06e8 00000000 		.4byte	0
 14338 06ec 00000000 		.4byte	0
 14339 06f0 32000000 		.4byte	.LBB805
 14340 06f4 32000000 		.4byte	.LBE805
 14341 06f8 32000000 		.4byte	.LBB818
 14342 06fc 38000000 		.4byte	.LBE818
 14343 0700 3E000000 		.4byte	.LBB819
 14344 0704 3E000000 		.4byte	.LBE819
 14345 0708 3E000000 		.4byte	.LBB820
 14346 070c 44000000 		.4byte	.LBE820
 14347 0710 00000000 		.4byte	0
 14348 0714 00000000 		.4byte	0
 14349 0718 32000000 		.4byte	.LBB808
 14350 071c 38000000 		.4byte	.LBE808
 14351 0720 3E000000 		.4byte	.LBB811
 14352 0724 44000000 		.4byte	.LBE811
 14353 0728 00000000 		.4byte	0
 14354 072c 00000000 		.4byte	0
 14355 0730 08000000 		.4byte	.LBB838
 14356 0734 14000000 		.4byte	.LBE838
 14357 0738 16000000 		.4byte	.LBB845
 14358 073c 1A000000 		.4byte	.LBE845
 14359 0740 2E000000 		.4byte	.LBB848
 14360 0744 32000000 		.4byte	.LBE848
 14361 0748 00000000 		.4byte	0
 14362 074c 00000000 		.4byte	0
 14363 0750 0C000000 		.4byte	.LBB839
 14364 0754 10000000 		.4byte	.LBE839
ARM GAS  /tmp/ccstZxWH.s 			page 253


 14365 0758 14000000 		.4byte	.LBB843
 14366 075c 14000000 		.4byte	.LBE843
 14367 0760 16000000 		.4byte	.LBB844
 14368 0764 1A000000 		.4byte	.LBE844
 14369 0768 00000000 		.4byte	0
 14370 076c 00000000 		.4byte	0
 14371 0770 00000000 		.4byte	.LBB862
 14372 0774 00000000 		.4byte	.LBE862
 14373 0778 00000000 		.4byte	.LBB874
 14374 077c 00000000 		.4byte	.LBE874
 14375 0780 00000000 		.4byte	.LBB875
 14376 0784 00000000 		.4byte	.LBE875
 14377 0788 00000000 		.4byte	.LBB876
 14378 078c 00000000 		.4byte	.LBE876
 14379 0790 02000000 		.4byte	.LBB877
 14380 0794 08000000 		.4byte	.LBE877
 14381 0798 00000000 		.4byte	0
 14382 079c 00000000 		.4byte	0
 14383 07a0 2C000000 		.4byte	.LBB880
 14384 07a4 2C000000 		.4byte	.LBE880
 14385 07a8 2C000000 		.4byte	.LBB889
 14386 07ac 2C000000 		.4byte	.LBE889
 14387 07b0 2C000000 		.4byte	.LBB890
 14388 07b4 32000000 		.4byte	.LBE890
 14389 07b8 00000000 		.4byte	0
 14390 07bc 00000000 		.4byte	0
 14391 07c0 02000000 		.4byte	.LBB920
 14392 07c4 04000000 		.4byte	.LBE920
 14393 07c8 08000000 		.4byte	.LBB932
 14394 07cc 08000000 		.4byte	.LBE932
 14395 07d0 08000000 		.4byte	.LBB933
 14396 07d4 08000000 		.4byte	.LBE933
 14397 07d8 08000000 		.4byte	.LBB934
 14398 07dc 08000000 		.4byte	.LBE934
 14399 07e0 08000000 		.4byte	.LBB935
 14400 07e4 0C000000 		.4byte	.LBE935
 14401 07e8 00000000 		.4byte	0
 14402 07ec 00000000 		.4byte	0
 14403 07f0 02000000 		.4byte	.LBB921
 14404 07f4 04000000 		.4byte	.LBE921
 14405 07f8 08000000 		.4byte	.LBB929
 14406 07fc 08000000 		.4byte	.LBE929
 14407 0800 08000000 		.4byte	.LBB930
 14408 0804 08000000 		.4byte	.LBE930
 14409 0808 08000000 		.4byte	.LBB931
 14410 080c 0C000000 		.4byte	.LBE931
 14411 0810 00000000 		.4byte	0
 14412 0814 00000000 		.4byte	0
 14413 0818 02000000 		.4byte	.LBB922
 14414 081c 04000000 		.4byte	.LBE922
 14415 0820 08000000 		.4byte	.LBB927
 14416 0824 08000000 		.4byte	.LBE927
 14417 0828 08000000 		.4byte	.LBB928
 14418 082c 0C000000 		.4byte	.LBE928
 14419 0830 00000000 		.4byte	0
 14420 0834 00000000 		.4byte	0
 14421 0838 02000000 		.4byte	.LBB923
ARM GAS  /tmp/ccstZxWH.s 			page 254


 14422 083c 04000000 		.4byte	.LBE923
 14423 0840 08000000 		.4byte	.LBB926
 14424 0844 0C000000 		.4byte	.LBE926
 14425 0848 00000000 		.4byte	0
 14426 084c 00000000 		.4byte	0
 14427 0850 1E000000 		.4byte	.LBB936
 14428 0854 1E000000 		.4byte	.LBE936
 14429 0858 1E000000 		.4byte	.LBB945
 14430 085c 1E000000 		.4byte	.LBE945
 14431 0860 1E000000 		.4byte	.LBB946
 14432 0864 24000000 		.4byte	.LBE946
 14433 0868 00000000 		.4byte	0
 14434 086c 00000000 		.4byte	0
 14435 0870 26000000 		.4byte	.LBB947
 14436 0874 26000000 		.4byte	.LBE947
 14437 0878 28000000 		.4byte	.LBB951
 14438 087c 2A000000 		.4byte	.LBE951
 14439 0880 2C000000 		.4byte	.LBB952
 14440 0884 56000000 		.4byte	.LBE952
 14441 0888 00000000 		.4byte	0
 14442 088c 00000000 		.4byte	0
 14443 0890 58000000 		.4byte	.LBB953
 14444 0894 7A000000 		.4byte	.LBE953
 14445 0898 7C000000 		.4byte	.LBB967
 14446 089c 80000000 		.4byte	.LBE967
 14447 08a0 00000000 		.4byte	0
 14448 08a4 00000000 		.4byte	0
 14449 08a8 58000000 		.4byte	.LBB955
 14450 08ac 64000000 		.4byte	.LBE955
 14451 08b0 66000000 		.4byte	.LBB962
 14452 08b4 6A000000 		.4byte	.LBE962
 14453 08b8 7C000000 		.4byte	.LBB965
 14454 08bc 80000000 		.4byte	.LBE965
 14455 08c0 00000000 		.4byte	0
 14456 08c4 00000000 		.4byte	0
 14457 08c8 5C000000 		.4byte	.LBB956
 14458 08cc 60000000 		.4byte	.LBE956
 14459 08d0 64000000 		.4byte	.LBB960
 14460 08d4 64000000 		.4byte	.LBE960
 14461 08d8 66000000 		.4byte	.LBB961
 14462 08dc 6A000000 		.4byte	.LBE961
 14463 08e0 00000000 		.4byte	0
 14464 08e4 00000000 		.4byte	0
 14465 08e8 80000000 		.4byte	.LBB968
 14466 08ec 80000000 		.4byte	.LBE968
 14467 08f0 80000000 		.4byte	.LBB977
 14468 08f4 80000000 		.4byte	.LBE977
 14469 08f8 80000000 		.4byte	.LBB978
 14470 08fc 86000000 		.4byte	.LBE978
 14471 0900 00000000 		.4byte	0
 14472 0904 00000000 		.4byte	0
 14473 0908 00000000 		.4byte	.LBB1043
 14474 090c 00000000 		.4byte	.LBE1043
 14475 0910 00000000 		.4byte	.LBB1055
 14476 0914 00000000 		.4byte	.LBE1055
 14477 0918 00000000 		.4byte	.LBB1056
 14478 091c 00000000 		.4byte	.LBE1056
ARM GAS  /tmp/ccstZxWH.s 			page 255


 14479 0920 00000000 		.4byte	.LBB1057
 14480 0924 00000000 		.4byte	.LBE1057
 14481 0928 0E000000 		.4byte	.LBB1058
 14482 092c 14000000 		.4byte	.LBE1058
 14483 0930 00000000 		.4byte	0
 14484 0934 00000000 		.4byte	0
 14485 0938 14000000 		.4byte	.LBB1059
 14486 093c 14000000 		.4byte	.LBE1059
 14487 0940 14000000 		.4byte	.LBB1071
 14488 0944 14000000 		.4byte	.LBE1071
 14489 0948 14000000 		.4byte	.LBB1072
 14490 094c 14000000 		.4byte	.LBE1072
 14491 0950 14000000 		.4byte	.LBB1073
 14492 0954 18000000 		.4byte	.LBE1073
 14493 0958 1A000000 		.4byte	.LBB1185
 14494 095c 1C000000 		.4byte	.LBE1185
 14495 0960 00000000 		.4byte	0
 14496 0964 00000000 		.4byte	0
 14497 0968 18000000 		.4byte	.LBB1074
 14498 096c 1A000000 		.4byte	.LBE1074
 14499 0970 22000000 		.4byte	.LBB1186
 14500 0974 76000000 		.4byte	.LBE1186
 14501 0978 76000000 		.4byte	.LBB1187
 14502 097c 76000000 		.4byte	.LBE1187
 14503 0980 76000000 		.4byte	.LBB1188
 14504 0984 7E000000 		.4byte	.LBE1188
 14505 0988 7E000000 		.4byte	.LBB1189
 14506 098c 7E000000 		.4byte	.LBE1189
 14507 0990 7E000000 		.4byte	.LBB1190
 14508 0994 84000000 		.4byte	.LBE1190
 14509 0998 84000000 		.4byte	.LBB1191
 14510 099c 90000000 		.4byte	.LBE1191
 14511 09a0 90000000 		.4byte	.LBB1192
 14512 09a4 90000000 		.4byte	.LBE1192
 14513 09a8 90000000 		.4byte	.LBB1193
 14514 09ac 90000000 		.4byte	.LBE1193
 14515 09b0 90000000 		.4byte	.LBB1194
 14516 09b4 24010000 		.4byte	.LBE1194
 14517 09b8 24010000 		.4byte	.LBB1195
 14518 09bc 24010000 		.4byte	.LBE1195
 14519 09c0 24010000 		.4byte	.LBB1196
 14520 09c4 2A010000 		.4byte	.LBE1196
 14521 09c8 32010000 		.4byte	.LBB1197
 14522 09cc 32010000 		.4byte	.LBE1197
 14523 09d0 32010000 		.4byte	.LBB1198
 14524 09d4 32010000 		.4byte	.LBE1198
 14525 09d8 32010000 		.4byte	.LBB1199
 14526 09dc 36010000 		.4byte	.LBE1199
 14527 09e0 00000000 		.4byte	0
 14528 09e4 00000000 		.4byte	0
 14529 09e8 22000000 		.4byte	.LBB1075
 14530 09ec 26000000 		.4byte	.LBE1075
 14531 09f0 8A000000 		.4byte	.LBB1172
 14532 09f4 90000000 		.4byte	.LBE1172
 14533 09f8 90000000 		.4byte	.LBB1173
 14534 09fc 90000000 		.4byte	.LBE1173
 14535 0a00 90000000 		.4byte	.LBB1174
ARM GAS  /tmp/ccstZxWH.s 			page 256


 14536 0a04 90000000 		.4byte	.LBE1174
 14537 0a08 90000000 		.4byte	.LBB1175
 14538 0a0c C8000000 		.4byte	.LBE1175
 14539 0a10 0C010000 		.4byte	.LBB1179
 14540 0a14 24010000 		.4byte	.LBE1179
 14541 0a18 24010000 		.4byte	.LBB1180
 14542 0a1c 24010000 		.4byte	.LBE1180
 14543 0a20 24010000 		.4byte	.LBB1181
 14544 0a24 2A010000 		.4byte	.LBE1181
 14545 0a28 32010000 		.4byte	.LBB1182
 14546 0a2c 32010000 		.4byte	.LBE1182
 14547 0a30 32010000 		.4byte	.LBB1183
 14548 0a34 32010000 		.4byte	.LBE1183
 14549 0a38 32010000 		.4byte	.LBB1184
 14550 0a3c 36010000 		.4byte	.LBE1184
 14551 0a40 00000000 		.4byte	0
 14552 0a44 00000000 		.4byte	0
 14553 0a48 90000000 		.4byte	.LBB1076
 14554 0a4c 90000000 		.4byte	.LBE1076
 14555 0a50 90000000 		.4byte	.LBB1116
 14556 0a54 90000000 		.4byte	.LBE1116
 14557 0a58 90000000 		.4byte	.LBB1117
 14558 0a5c 90000000 		.4byte	.LBE1117
 14559 0a60 90000000 		.4byte	.LBB1118
 14560 0a64 C6000000 		.4byte	.LBE1118
 14561 0a68 32010000 		.4byte	.LBB1140
 14562 0a6c 32010000 		.4byte	.LBE1140
 14563 0a70 32010000 		.4byte	.LBB1141
 14564 0a74 32010000 		.4byte	.LBE1141
 14565 0a78 32010000 		.4byte	.LBB1142
 14566 0a7c 36010000 		.4byte	.LBE1142
 14567 0a80 00000000 		.4byte	0
 14568 0a84 00000000 		.4byte	0
 14569 0a88 90000000 		.4byte	.LBB1077
 14570 0a8c 90000000 		.4byte	.LBE1077
 14571 0a90 90000000 		.4byte	.LBB1089
 14572 0a94 90000000 		.4byte	.LBE1089
 14573 0a98 90000000 		.4byte	.LBB1090
 14574 0a9c 90000000 		.4byte	.LBE1090
 14575 0aa0 90000000 		.4byte	.LBB1091
 14576 0aa4 94000000 		.4byte	.LBE1091
 14577 0aa8 96000000 		.4byte	.LBB1092
 14578 0aac 98000000 		.4byte	.LBE1092
 14579 0ab0 00000000 		.4byte	0
 14580 0ab4 00000000 		.4byte	0
 14581 0ab8 A2000000 		.4byte	.LBB1095
 14582 0abc B0000000 		.4byte	.LBE1095
 14583 0ac0 B2000000 		.4byte	.LBB1102
 14584 0ac4 B6000000 		.4byte	.LBE1102
 14585 0ac8 00000000 		.4byte	0
 14586 0acc 00000000 		.4byte	0
 14587 0ad0 A8000000 		.4byte	.LBB1096
 14588 0ad4 AC000000 		.4byte	.LBE1096
 14589 0ad8 B0000000 		.4byte	.LBB1100
 14590 0adc B0000000 		.4byte	.LBE1100
 14591 0ae0 B2000000 		.4byte	.LBB1101
 14592 0ae4 B6000000 		.4byte	.LBE1101
ARM GAS  /tmp/ccstZxWH.s 			page 257


 14593 0ae8 00000000 		.4byte	0
 14594 0aec 00000000 		.4byte	0
 14595 0af0 0C010000 		.4byte	.LBB1121
 14596 0af4 18010000 		.4byte	.LBE1121
 14597 0af8 1A010000 		.4byte	.LBB1128
 14598 0afc 1E010000 		.4byte	.LBE1128
 14599 0b00 00000000 		.4byte	0
 14600 0b04 00000000 		.4byte	0
 14601 0b08 10010000 		.4byte	.LBB1122
 14602 0b0c 14010000 		.4byte	.LBE1122
 14603 0b10 18010000 		.4byte	.LBB1126
 14604 0b14 18010000 		.4byte	.LBE1126
 14605 0b18 1A010000 		.4byte	.LBB1127
 14606 0b1c 1E010000 		.4byte	.LBE1127
 14607 0b20 00000000 		.4byte	0
 14608 0b24 00000000 		.4byte	0
 14609 0b28 24010000 		.4byte	.LBB1129
 14610 0b2c 24010000 		.4byte	.LBE1129
 14611 0b30 24010000 		.4byte	.LBB1138
 14612 0b34 24010000 		.4byte	.LBE1138
 14613 0b38 24010000 		.4byte	.LBB1139
 14614 0b3c 2A010000 		.4byte	.LBE1139
 14615 0b40 00000000 		.4byte	0
 14616 0b44 00000000 		.4byte	0
 14617 0b48 26000000 		.4byte	.LBB1143
 14618 0b4c 28000000 		.4byte	.LBE1143
 14619 0b50 DE000000 		.4byte	.LBB1176
 14620 0b54 DE000000 		.4byte	.LBE1176
 14621 0b58 E0000000 		.4byte	.LBB1177
 14622 0b5c E2000000 		.4byte	.LBE1177
 14623 0b60 E4000000 		.4byte	.LBB1178
 14624 0b64 0C010000 		.4byte	.LBE1178
 14625 0b68 00000000 		.4byte	0
 14626 0b6c 00000000 		.4byte	0
 14627 0b70 76000000 		.4byte	.LBB1148
 14628 0b74 76000000 		.4byte	.LBE1148
 14629 0b78 76000000 		.4byte	.LBB1157
 14630 0b7c 76000000 		.4byte	.LBE1157
 14631 0b80 76000000 		.4byte	.LBB1158
 14632 0b84 7A000000 		.4byte	.LBE1158
 14633 0b88 00000000 		.4byte	0
 14634 0b8c 00000000 		.4byte	0
 14635 0b90 7E000000 		.4byte	.LBB1159
 14636 0b94 7E000000 		.4byte	.LBE1159
 14637 0b98 7E000000 		.4byte	.LBB1170
 14638 0b9c 7E000000 		.4byte	.LBE1170
 14639 0ba0 7E000000 		.4byte	.LBB1171
 14640 0ba4 84000000 		.4byte	.LBE1171
 14641 0ba8 00000000 		.4byte	0
 14642 0bac 00000000 		.4byte	0
 14643 0bb0 7E000000 		.4byte	.LBB1161
 14644 0bb4 7E000000 		.4byte	.LBE1161
 14645 0bb8 7E000000 		.4byte	.LBB1166
 14646 0bbc 7E000000 		.4byte	.LBE1166
 14647 0bc0 7E000000 		.4byte	.LBB1167
 14648 0bc4 84000000 		.4byte	.LBE1167
 14649 0bc8 00000000 		.4byte	0
ARM GAS  /tmp/ccstZxWH.s 			page 258


 14650 0bcc 00000000 		.4byte	0
 14651 0bd0 7E000000 		.4byte	.LBB1162
 14652 0bd4 7E000000 		.4byte	.LBE1162
 14653 0bd8 7E000000 		.4byte	.LBB1165
 14654 0bdc 84000000 		.4byte	.LBE1165
 14655 0be0 00000000 		.4byte	0
 14656 0be4 00000000 		.4byte	0
 14657 0be8 00000000 		.4byte	.LBB1215
 14658 0bec 00000000 		.4byte	.LBE1215
 14659 0bf0 00000000 		.4byte	.LBB1227
 14660 0bf4 00000000 		.4byte	.LBE1227
 14661 0bf8 00000000 		.4byte	.LBB1228
 14662 0bfc 00000000 		.4byte	.LBE1228
 14663 0c00 00000000 		.4byte	.LBB1229
 14664 0c04 00000000 		.4byte	.LBE1229
 14665 0c08 02000000 		.4byte	.LBB1230
 14666 0c0c 08000000 		.4byte	.LBE1230
 14667 0c10 00000000 		.4byte	0
 14668 0c14 00000000 		.4byte	0
 14669 0c18 0C000000 		.4byte	.LBB1231
 14670 0c1c 14000000 		.4byte	.LBE1231
 14671 0c20 1C000000 		.4byte	.LBB1253
 14672 0c24 44000000 		.4byte	.LBE1253
 14673 0c28 00000000 		.4byte	0
 14674 0c2c 00000000 		.4byte	0
 14675 0c30 14000000 		.4byte	.LBB1234
 14676 0c34 14000000 		.4byte	.LBE1234
 14677 0c38 14000000 		.4byte	.LBB1251
 14678 0c3c 14000000 		.4byte	.LBE1251
 14679 0c40 14000000 		.4byte	.LBB1252
 14680 0c44 1A000000 		.4byte	.LBE1252
 14681 0c48 44000000 		.4byte	.LBB1254
 14682 0c4c 44000000 		.4byte	.LBE1254
 14683 0c50 44000000 		.4byte	.LBB1255
 14684 0c54 44000000 		.4byte	.LBE1255
 14685 0c58 44000000 		.4byte	.LBB1256
 14686 0c5c 4A000000 		.4byte	.LBE1256
 14687 0c60 00000000 		.4byte	0
 14688 0c64 00000000 		.4byte	0
 14689 0c68 14000000 		.4byte	.LBB1235
 14690 0c6c 14000000 		.4byte	.LBE1235
 14691 0c70 14000000 		.4byte	.LBB1248
 14692 0c74 1A000000 		.4byte	.LBE1248
 14693 0c78 44000000 		.4byte	.LBB1249
 14694 0c7c 44000000 		.4byte	.LBE1249
 14695 0c80 44000000 		.4byte	.LBB1250
 14696 0c84 4A000000 		.4byte	.LBE1250
 14697 0c88 00000000 		.4byte	0
 14698 0c8c 00000000 		.4byte	0
 14699 0c90 14000000 		.4byte	.LBB1238
 14700 0c94 1A000000 		.4byte	.LBE1238
 14701 0c98 44000000 		.4byte	.LBB1241
 14702 0c9c 4A000000 		.4byte	.LBE1241
 14703 0ca0 00000000 		.4byte	0
 14704 0ca4 00000000 		.4byte	0
 14705 0ca8 00000000 		.4byte	.LFB277
 14706 0cac 30000000 		.4byte	.LFE277
ARM GAS  /tmp/ccstZxWH.s 			page 259


 14707 0cb0 00000000 		.4byte	.LFB278
 14708 0cb4 16000000 		.4byte	.LFE278
 14709 0cb8 00000000 		.4byte	.LFB279
 14710 0cbc 16000000 		.4byte	.LFE279
 14711 0cc0 00000000 		.4byte	.LFB280
 14712 0cc4 28000000 		.4byte	.LFE280
 14713 0cc8 00000000 		.4byte	.LFB281
 14714 0ccc 46000000 		.4byte	.LFE281
 14715 0cd0 00000000 		.4byte	.LFB282
 14716 0cd4 34000000 		.4byte	.LFE282
 14717 0cd8 00000000 		.4byte	.LFB283
 14718 0cdc 34000000 		.4byte	.LFE283
 14719 0ce0 00000000 		.4byte	.LFB284
 14720 0ce4 26000000 		.4byte	.LFE284
 14721 0ce8 00000000 		.4byte	.LFB285
 14722 0cec 82000000 		.4byte	.LFE285
 14723 0cf0 00000000 		.4byte	.LFB286
 14724 0cf4 3E010000 		.4byte	.LFE286
 14725 0cf8 00000000 		.4byte	.LFB287
 14726 0cfc 30000000 		.4byte	.LFE287
 14727 0d00 00000000 		.4byte	.LFB288
 14728 0d04 1A000000 		.4byte	.LFE288
 14729 0d08 00000000 		.4byte	.LFB289
 14730 0d0c 1C000000 		.4byte	.LFE289
 14731 0d10 00000000 		.4byte	.LFB290
 14732 0d14 24000000 		.4byte	.LFE290
 14733 0d18 00000000 		.4byte	.LFB291
 14734 0d1c 46000000 		.4byte	.LFE291
 14735 0d20 00000000 		.4byte	.LFB292
 14736 0d24 34000000 		.4byte	.LFE292
 14737 0d28 00000000 		.4byte	.LFB293
 14738 0d2c 34000000 		.4byte	.LFE293
 14739 0d30 00000000 		.4byte	.LFB294
 14740 0d34 2C000000 		.4byte	.LFE294
 14741 0d38 00000000 		.4byte	.LFB295
 14742 0d3c 88000000 		.4byte	.LFE295
 14743 0d40 00000000 		.4byte	.LFB296
 14744 0d44 3E010000 		.4byte	.LFE296
 14745 0d48 00000000 		.4byte	.LFB297
 14746 0d4c 42000000 		.4byte	.LFE297
 14747 0d50 00000000 		.4byte	.LFB298
 14748 0d54 4C000000 		.4byte	.LFE298
 14749 0d58 00000000 		.4byte	0
 14750 0d5c 00000000 		.4byte	0
 14751              		.section	.debug_line,"",%progbits
 14752              	.Ldebug_line0:
 14753 0000 FA190000 		.section	.debug_str,"MS",%progbits,1
 14753      03004202 
 14753      00000201 
 14753      FB0E0D00 
 14753      01010101 
 14754              	.LASF117:
 14755 0000 69627147 		.ascii	"ibqGetEmptyBufferI\000"
 14755      6574456D 
 14755      70747942 
 14755      75666665 
 14755      724900
ARM GAS  /tmp/ccstZxWH.s 			page 260


 14756              	.LASF106:
 14757 0013 6F6E6679 		.ascii	"onfy\000"
 14757      00
 14758              	.LASF11:
 14759 0018 73697A65 		.ascii	"size_t\000"
 14759      5F7400
 14760              	.LASF44:
 14761 001f 6E657874 		.ascii	"next\000"
 14761      00
 14762              	.LASF62:
 14763 0024 7264796D 		.ascii	"rdymsg\000"
 14763      736700
 14764              	.LASF15:
 14765 002b 75696E74 		.ascii	"uint64_t\000"
 14765      36345F74 
 14765      00
 14766              	.LASF141:
 14767 0034 63685468 		.ascii	"chThdDequeueAllI\000"
 14767      64446571 
 14767      75657565 
 14767      416C6C49 
 14767      00
 14768              	.LASF140:
 14769 0045 63685468 		.ascii	"chThdDequeueNextI\000"
 14769      64446571 
 14769      75657565 
 14769      4E657874 
 14769      4900
 14770              	.LASF47:
 14771 0057 70726576 		.ascii	"prev\000"
 14771      00
 14772              	.LASF51:
 14773 005c 706F7274 		.ascii	"port_intctx\000"
 14773      5F696E74 
 14773      63747800 
 14774              	.LASF46:
 14775 0068 63685F74 		.ascii	"ch_threads_queue\000"
 14775      68726561 
 14775      64735F71 
 14775      75657565 
 14775      00
 14776              	.LASF132:
 14777 0079 71756575 		.ascii	"queue_init\000"
 14777      655F696E 
 14777      697400
 14778              	.LASF136:
 14779 0084 706F7274 		.ascii	"port_lock\000"
 14779      5F6C6F63 
 14779      6B00
 14780              	.LASF9:
 14781 008e 6C6F6E67 		.ascii	"long long unsigned int\000"
 14781      206C6F6E 
 14781      6720756E 
 14781      7369676E 
 14781      65642069 
 14782              	.LASF63:
 14783 00a5 65786974 		.ascii	"exitcode\000"
ARM GAS  /tmp/ccstZxWH.s 			page 261


 14783      636F6465 
 14783      00
 14784              	.LASF111:
 14785 00ae 69627152 		.ascii	"ibqReleaseEmptyBufferS\000"
 14785      656C6561 
 14785      7365456D 
 14785      70747942 
 14785      75666665 
 14786              	.LASF66:
 14787 00c5 73656E74 		.ascii	"sentmsg\000"
 14787      6D736700 
 14788              	.LASF143:
 14789 00cd 2E2E2F2E 		.ascii	"../../../os/hal/src/hal_buffers.c\000"
 14789      2E2F2E2E 
 14789      2F6F732F 
 14789      68616C2F 
 14789      7372632F 
 14790              	.LASF119:
 14791 00ef 6962714F 		.ascii	"ibqObjectInit\000"
 14791      626A6563 
 14791      74496E69 
 14791      7400
 14792              	.LASF57:
 14793 00fd 42445452 		.ascii	"BDTR\000"
 14793      00
 14794              	.LASF79:
 14795 0102 62777270 		.ascii	"bwrptr\000"
 14795      747200
 14796              	.LASF102:
 14797 0109 6F627147 		.ascii	"obqGetFullBufferI\000"
 14797      65744675 
 14797      6C6C4275 
 14797      66666572 
 14797      4900
 14798              	.LASF54:
 14799 011b 43434D52 		.ascii	"CCMR1\000"
 14799      3100
 14800              	.LASF55:
 14801 0121 43434D52 		.ascii	"CCMR2\000"
 14801      3200
 14802              	.LASF59:
 14803 0127 43434D52 		.ascii	"CCMR3\000"
 14803      3300
 14804              	.LASF3:
 14805 012d 7369676E 		.ascii	"signed char\000"
 14805      65642063 
 14805      68617200 
 14806              	.LASF104:
 14807 0139 6F62714F 		.ascii	"obqObjectInit\000"
 14807      626A6563 
 14807      74496E69 
 14807      7400
 14808              	.LASF122:
 14809 0147 6F73616C 		.ascii	"osalThreadDequeueNextI\000"
 14809      54687265 
 14809      61644465 
 14809      71756575 
ARM GAS  /tmp/ccstZxWH.s 			page 262


 14809      654E6578 
 14810              	.LASF76:
 14811 015e 696F5F62 		.ascii	"io_buffers_queue\000"
 14811      75666665 
 14811      72735F71 
 14811      75657565 
 14811      00
 14812              	.LASF109:
 14813 016f 69627147 		.ascii	"ibqGetTimeout\000"
 14813      65745469 
 14813      6D656F75 
 14813      7400
 14814              	.LASF107:
 14815 017d 69627152 		.ascii	"ibqReadTimeout\000"
 14815      65616454 
 14815      696D656F 
 14815      757400
 14816              	.LASF135:
 14817 018c 706F7274 		.ascii	"port_unlock\000"
 14817      5F756E6C 
 14817      6F636B00 
 14818              	.LASF35:
 14819 0198 6D736771 		.ascii	"msgqueue\000"
 14819      75657565 
 14819      00
 14820              	.LASF96:
 14821 01a1 6F627150 		.ascii	"obqPutTimeout\000"
 14821      75745469 
 14821      6D656F75 
 14821      7400
 14822              	.LASF31:
 14823 01af 73746174 		.ascii	"state\000"
 14823      6500
 14824              	.LASF7:
 14825 01b5 6C6F6E67 		.ascii	"long int\000"
 14825      20696E74 
 14825      00
 14826              	.LASF17:
 14827 01be 74737461 		.ascii	"tstate_t\000"
 14827      74655F74 
 14827      00
 14828              	.LASF146:
 14829 01c7 6D656D63 		.ascii	"memcpy\000"
 14829      707900
 14830              	.LASF56:
 14831 01ce 43434552 		.ascii	"CCER\000"
 14831      00
 14832              	.LASF1:
 14833 01d3 6C6F6E67 		.ascii	"long long int\000"
 14833      206C6F6E 
 14833      6720696E 
 14833      7400
 14834              	.LASF25:
 14835 01e1 71756575 		.ascii	"queue\000"
 14835      6500
 14836              	.LASF114:
 14837 01e7 69627147 		.ascii	"ibqGetFullBufferTimeoutS\000"
ARM GAS  /tmp/ccstZxWH.s 			page 263


 14837      65744675 
 14837      6C6C4275 
 14837      66666572 
 14837      54696D65 
 14838              	.LASF48:
 14839 0200 72656761 		.ascii	"regarm_t\000"
 14839      726D5F74 
 14839      00
 14840              	.LASF85:
 14841 0209 6C696E6B 		.ascii	"link\000"
 14841      00
 14842              	.LASF87:
 14843 020e 696E7075 		.ascii	"input_buffers_queue_t\000"
 14843      745F6275 
 14843      66666572 
 14843      735F7175 
 14843      6575655F 
 14844              	.LASF80:
 14845 0224 62726470 		.ascii	"brdptr\000"
 14845      747200
 14846              	.LASF34:
 14847 022b 77616974 		.ascii	"waiting\000"
 14847      696E6700 
 14848              	.LASF126:
 14849 0233 6F73616C 		.ascii	"osalSysLock\000"
 14849      5379734C 
 14849      6F636B00 
 14850              	.LASF75:
 14851 023f 696F5F62 		.ascii	"io_buffers_queue_t\000"
 14851      75666665 
 14851      72735F71 
 14851      75657565 
 14851      5F7400
 14852              	.LASF73:
 14853 0252 6D757465 		.ascii	"mutex_t\000"
 14853      785F7400 
 14854              	.LASF138:
 14855 025a 76616C75 		.ascii	"value\000"
 14855      6500
 14856              	.LASF50:
 14857 0260 706F7274 		.ascii	"port_context\000"
 14857      5F636F6E 
 14857      74657874 
 14857      00
 14858              	.LASF98:
 14859 026d 6F627146 		.ascii	"obqFlush\000"
 14859      6C757368 
 14859      00
 14860              	.LASF22:
 14861 0276 636E745F 		.ascii	"cnt_t\000"
 14861      7400
 14862              	.LASF129:
 14863 027c 63685654 		.ascii	"chVTGetSystemTimeX\000"
 14863      47657453 
 14863      79737465 
 14863      6D54696D 
 14863      655800
ARM GAS  /tmp/ccstZxWH.s 			page 264


 14864              	.LASF0:
 14865 028f 756E7369 		.ascii	"unsigned int\000"
 14865      676E6564 
 14865      20696E74 
 14865      00
 14866              	.LASF67:
 14867 029c 77747365 		.ascii	"wtsemp\000"
 14867      6D7000
 14868              	.LASF65:
 14869 02a3 77747472 		.ascii	"wttrp\000"
 14869      7000
 14870              	.LASF93:
 14871 02a9 74696D65 		.ascii	"timeout\000"
 14871      6F757400 
 14872              	.LASF83:
 14873 02b1 62756666 		.ascii	"buffers\000"
 14873      65727300 
 14874              	.LASF29:
 14875 02b9 6E616D65 		.ascii	"name\000"
 14875      00
 14876              	.LASF39:
 14877 02be 6D706F6F 		.ascii	"mpool\000"
 14877      6C00
 14878              	.LASF90:
 14879 02c4 73697A65 		.ascii	"size\000"
 14879      00
 14880              	.LASF52:
 14881 02c9 534D4352 		.ascii	"SMCR\000"
 14881      00
 14882              	.LASF42:
 14883 02ce 63685F74 		.ascii	"ch_thread\000"
 14883      68726561 
 14883      6400
 14884              	.LASF110:
 14885 02d8 6F627150 		.ascii	"obqPostFullBufferS\000"
 14885      6F737446 
 14885      756C6C42 
 14885      75666665 
 14885      725300
 14886              	.LASF36:
 14887 02eb 6570656E 		.ascii	"epending\000"
 14887      64696E67 
 14887      00
 14888              	.LASF61:
 14889 02f4 73746D33 		.ascii	"stm32_tim_t\000"
 14889      325F7469 
 14889      6D5F7400 
 14890              	.LASF147:
 14891 0300 5F5F6275 		.ascii	"__builtin_memcpy\000"
 14891      696C7469 
 14891      6E5F6D65 
 14891      6D637079 
 14891      00
 14892              	.LASF145:
 14893 0311 6F73616C 		.ascii	"osalThreadEnqueueTimeoutS\000"
 14893      54687265 
 14893      6164456E 
ARM GAS  /tmp/ccstZxWH.s 			page 265


 14893      71756575 
 14893      6554696D 
 14894              	.LASF144:
 14895 032b 2F686F6D 		.ascii	"/home/tfateba/nlab/ip/trunk/demos/STM32/RT-STM32F40"
 14895      652F7466 
 14895      61746562 
 14895      612F6E6C 
 14895      61622F69 
 14896 035e 372D4449 		.ascii	"7-DISCOVERY-G++\000"
 14896      53434F56 
 14896      4552592D 
 14896      472B2B00 
 14897              	.LASF21:
 14898 036e 6576656E 		.ascii	"eventmask_t\000"
 14898      746D6173 
 14898      6B5F7400 
 14899              	.LASF49:
 14900 037a 73746B61 		.ascii	"stkalign_t\000"
 14900      6C69676E 
 14900      5F7400
 14901              	.LASF27:
 14902 0385 6E657765 		.ascii	"newer\000"
 14902      7200
 14903              	.LASF127:
 14904 038b 63685468 		.ascii	"chThdQueueObjectInit\000"
 14904      64517565 
 14904      75654F62 
 14904      6A656374 
 14904      496E6974 
 14905              	.LASF38:
 14906 03a0 7265616C 		.ascii	"realprio\000"
 14906      7072696F 
 14906      00
 14907              	.LASF40:
 14908 03a9 74687265 		.ascii	"thread_reference_t\000"
 14908      61645F72 
 14908      65666572 
 14908      656E6365 
 14908      5F7400
 14909              	.LASF2:
 14910 03bc 6C6F6E67 		.ascii	"long double\000"
 14910      20646F75 
 14910      626C6500 
 14911              	.LASF137:
 14912 03c8 5F5F7365 		.ascii	"__set_BASEPRI\000"
 14912      745F4241 
 14912      53455052 
 14912      4900
 14913              	.LASF142:
 14914 03d6 474E5520 		.ascii	"GNU C17 10.3.1 20210621 (release) -mcpu=cortex-m4 -"
 14914      43313720 
 14914      31302E33 
 14914      2E312032 
 14914      30323130 
 14915 0409 6D6E6F2D 		.ascii	"mno-thumb-interwork -mthumb -mfloat-abi=soft -march"
 14915      7468756D 
 14915      622D696E 
ARM GAS  /tmp/ccstZxWH.s 			page 266


 14915      74657277 
 14915      6F726B20 
 14916 043c 3D61726D 		.ascii	"=armv7e-m -ggdb -O2 -fomit-frame-pointer -falign-fu"
 14916      7637652D 
 14916      6D202D67 
 14916      67646220 
 14916      2D4F3220 
 14917 046f 6E637469 		.ascii	"nctions=16 -ffunction-sections -fdata-sections -fno"
 14917      6F6E733D 
 14917      3136202D 
 14917      6666756E 
 14917      6374696F 
 14918 04a2 2D636F6D 		.ascii	"-common\000"
 14918      6D6F6E00 
 14919              	.LASF116:
 14920 04aa 69627150 		.ascii	"ibqPostFullBufferI\000"
 14920      6F737446 
 14920      756C6C42 
 14920      75666665 
 14920      724900
 14921              	.LASF77:
 14922 04bd 73757370 		.ascii	"suspended\000"
 14922      656E6465 
 14922      6400
 14923              	.LASF81:
 14924 04c7 62746F70 		.ascii	"btop\000"
 14924      00
 14925              	.LASF103:
 14926 04cc 6F627152 		.ascii	"obqResetI\000"
 14926      65736574 
 14926      4900
 14927              	.LASF123:
 14928 04d6 74696D65 		.ascii	"time\000"
 14928      00
 14929              	.LASF26:
 14930 04db 7072696F 		.ascii	"prio\000"
 14930      00
 14931              	.LASF108:
 14932 04e0 69627170 		.ascii	"ibqp\000"
 14932      00
 14933              	.LASF78:
 14934 04e5 62636F75 		.ascii	"bcounter\000"
 14934      6E746572 
 14934      00
 14935              	.LASF18:
 14936 04ee 74726566 		.ascii	"trefs_t\000"
 14936      735F7400 
 14937              	.LASF33:
 14938 04f6 72656673 		.ascii	"refs\000"
 14938      00
 14939              	.LASF19:
 14940 04fb 74707269 		.ascii	"tprio_t\000"
 14940      6F5F7400 
 14941              	.LASF88:
 14942 0503 6F757470 		.ascii	"output_buffers_queue_t\000"
 14942      75745F62 
 14942      75666665 
ARM GAS  /tmp/ccstZxWH.s 			page 267


 14942      72735F71 
 14942      75657565 
 14943              	.LASF74:
 14944 051a 5F426F6F 		.ascii	"_Bool\000"
 14944      6C00
 14945              	.LASF12:
 14946 0520 696E7433 		.ascii	"int32_t\000"
 14946      325F7400 
 14947              	.LASF4:
 14948 0528 756E7369 		.ascii	"unsigned char\000"
 14948      676E6564 
 14948      20636861 
 14948      7200
 14949              	.LASF82:
 14950 0536 6273697A 		.ascii	"bsize\000"
 14950      6500
 14951              	.LASF118:
 14952 053c 69627152 		.ascii	"ibqResetI\000"
 14952      65736574 
 14952      4900
 14953              	.LASF115:
 14954 0546 69627147 		.ascii	"ibqGetFullBufferTimeout\000"
 14954      65744675 
 14954      6C6C4275 
 14954      66666572 
 14954      54696D65 
 14955              	.LASF5:
 14956 055e 73686F72 		.ascii	"short int\000"
 14956      7420696E 
 14956      7400
 14957              	.LASF69:
 14958 0568 65776D61 		.ascii	"ewmask\000"
 14958      736B00
 14959              	.LASF120:
 14960 056f 696E6679 		.ascii	"infy\000"
 14960      00
 14961              	.LASF97:
 14962 0574 5F5F6675 		.ascii	"__func__\000"
 14962      6E635F5F 
 14962      00
 14963              	.LASF131:
 14964 057d 63685379 		.ascii	"chSysLock\000"
 14964      734C6F63 
 14964      6B00
 14965              	.LASF92:
 14966 0587 6F627157 		.ascii	"obqWriteTimeout\000"
 14966      72697465 
 14966      54696D65 
 14966      6F757400 
 14967              	.LASF125:
 14968 0597 6F73616C 		.ascii	"osalSysUnlock\000"
 14968      53797355 
 14968      6E6C6F63 
 14968      6B00
 14969              	.LASF70:
 14970 05a5 63685F73 		.ascii	"ch_semaphore\000"
 14970      656D6170 
ARM GAS  /tmp/ccstZxWH.s 			page 268


 14970      686F7265 
 14970      00
 14971              	.LASF134:
 14972 05b2 73745F6C 		.ascii	"st_lld_get_counter\000"
 14972      6C645F67 
 14972      65745F63 
 14972      6F756E74 
 14972      657200
 14973              	.LASF91:
 14974 05c5 6F627154 		.ascii	"obqTryFlushI\000"
 14974      7279466C 
 14974      75736849 
 14974      00
 14975              	.LASF14:
 14976 05d2 75696E74 		.ascii	"uint32_t\000"
 14976      33325F74 
 14976      00
 14977              	.LASF68:
 14978 05db 77746D74 		.ascii	"wtmtxp\000"
 14978      787000
 14979              	.LASF43:
 14980 05e2 63685F74 		.ascii	"ch_threads_list\000"
 14980      68726561 
 14980      64735F6C 
 14980      69737400 
 14981              	.LASF72:
 14982 05f2 6F776E65 		.ascii	"owner\000"
 14982      7200
 14983              	.LASF8:
 14984 05f8 6C6F6E67 		.ascii	"long unsigned int\000"
 14984      20756E73 
 14984      69676E65 
 14984      6420696E 
 14984      7400
 14985              	.LASF30:
 14986 060a 77616261 		.ascii	"wabase\000"
 14986      736500
 14987              	.LASF84:
 14988 0611 6E6F7469 		.ascii	"notify\000"
 14988      667900
 14989              	.LASF10:
 14990 0618 63686172 		.ascii	"char\000"
 14990      00
 14991              	.LASF28:
 14992 061d 6F6C6465 		.ascii	"older\000"
 14992      7200
 14993              	.LASF99:
 14994 0623 6F627150 		.ascii	"obqPostFullBuffer\000"
 14994      6F737446 
 14994      756C6C42 
 14994      75666665 
 14994      7200
 14995              	.LASF58:
 14996 0635 444D4152 		.ascii	"DMAR\000"
 14996      00
 14997              	.LASF24:
 14998 063a 74687265 		.ascii	"thread_t\000"
ARM GAS  /tmp/ccstZxWH.s 			page 269


 14998      61645F74 
 14998      00
 14999              	.LASF23:
 15000 0643 73797374 		.ascii	"systime_t\000"
 15000      696D655F 
 15000      7400
 15001              	.LASF60:
 15002 064d 43435852 		.ascii	"CCXR\000"
 15002      00
 15003              	.LASF6:
 15004 0652 73686F72 		.ascii	"short unsigned int\000"
 15004      7420756E 
 15004      7369676E 
 15004      65642069 
 15004      6E7400
 15005              	.LASF124:
 15006 0665 6F73616C 		.ascii	"osalThreadQueueObjectInit\000"
 15006      54687265 
 15006      61645175 
 15006      6575654F 
 15006      626A6563 
 15007              	.LASF133:
 15008 067f 706F7274 		.ascii	"port_timer_get_time\000"
 15008      5F74696D 
 15008      65725F67 
 15008      65745F74 
 15008      696D6500 
 15009              	.LASF20:
 15010 0693 6D73675F 		.ascii	"msg_t\000"
 15010      7400
 15011              	.LASF86:
 15012 0699 62716E6F 		.ascii	"bqnotify_t\000"
 15012      74696679 
 15012      5F7400
 15013              	.LASF45:
 15014 06a4 74687265 		.ascii	"threads_queue_t\000"
 15014      6164735F 
 15014      71756575 
 15014      655F7400 
 15015              	.LASF71:
 15016 06b4 63685F6D 		.ascii	"ch_mutex\000"
 15016      75746578 
 15016      00
 15017              	.LASF101:
 15018 06bd 6F627152 		.ascii	"obqReleaseEmptyBufferI\000"
 15018      656C6561 
 15018      7365456D 
 15018      70747942 
 15018      75666665 
 15019              	.LASF89:
 15020 06d4 6F627170 		.ascii	"obqp\000"
 15020      00
 15021              	.LASF13:
 15022 06d9 75696E74 		.ascii	"uint8_t\000"
 15022      385F7400 
 15023              	.LASF32:
 15024 06e1 666C6167 		.ascii	"flags\000"
ARM GAS  /tmp/ccstZxWH.s 			page 270


 15024      7300
 15025              	.LASF100:
 15026 06e7 6F627147 		.ascii	"obqGetEmptyBufferTimeout\000"
 15026      6574456D 
 15026      70747942 
 15026      75666665 
 15026      7254696D 
 15027              	.LASF64:
 15028 0700 77746F62 		.ascii	"wtobjp\000"
 15028      6A7000
 15029              	.LASF105:
 15030 0707 73697A65 		.ascii	"sizep\000"
 15030      7000
 15031              	.LASF112:
 15032 070d 69627152 		.ascii	"ibqReleaseEmptyBuffer\000"
 15032      656C6561 
 15032      7365456D 
 15032      70747942 
 15032      75666665 
 15033              	.LASF53:
 15034 0723 44494552 		.ascii	"DIER\000"
 15034      00
 15035              	.LASF121:
 15036 0728 6F73616C 		.ascii	"osalThreadDequeueAllI\000"
 15036      54687265 
 15036      61644465 
 15036      71756575 
 15036      65416C6C 
 15037              	.LASF41:
 15038 073e 74687265 		.ascii	"threads_list_t\000"
 15038      6164735F 
 15038      6C697374 
 15038      5F7400
 15039              	.LASF128:
 15040 074d 6F73616C 		.ascii	"osalOsGetSystemTimeX\000"
 15040      4F734765 
 15040      74537973 
 15040      74656D54 
 15040      696D6558 
 15041              	.LASF16:
 15042 0762 746D6F64 		.ascii	"tmode_t\000"
 15042      655F7400 
 15043              	.LASF130:
 15044 076a 63685379 		.ascii	"chSysUnlock\000"
 15044      73556E6C 
 15044      6F636B00 
 15045              	.LASF94:
 15046 0776 64656164 		.ascii	"deadline\000"
 15046      6C696E65 
 15046      00
 15047              	.LASF37:
 15048 077f 6D74786C 		.ascii	"mtxlist\000"
 15048      69737400 
 15049              	.LASF113:
 15050 0787 6F627147 		.ascii	"obqGetEmptyBufferTimeoutS\000"
 15050      6574456D 
 15050      70747942 
ARM GAS  /tmp/ccstZxWH.s 			page 271


 15050      75666665 
 15050      7254696D 
 15051              	.LASF139:
 15052 07a1 63685468 		.ascii	"chThdEnqueueTimeoutS\000"
 15052      64456E71 
 15052      75657565 
 15052      54696D65 
 15052      6F757453 
 15053              	.LASF95:
 15054 07b6 6E657874 		.ascii	"next_timeout\000"
 15054      5F74696D 
 15054      656F7574 
 15054      00
 15055              		.ident	"GCC: (15:10.3-2021.07-4) 10.3.1 20210621 (release)"
ARM GAS  /tmp/ccstZxWH.s 			page 272


DEFINED SYMBOLS
                            *ABS*:0000000000000000 hal_buffers.c
     /tmp/ccstZxWH.s:16     .text.ibqObjectInit:0000000000000000 $t
     /tmp/ccstZxWH.s:25     .text.ibqObjectInit:0000000000000000 ibqObjectInit
     /tmp/ccstZxWH.s:130    .text.ibqResetI:0000000000000000 $t
     /tmp/ccstZxWH.s:138    .text.ibqResetI:0000000000000000 ibqResetI
     /tmp/ccstZxWH.s:177    .text.ibqGetEmptyBufferI:0000000000000000 $t
     /tmp/ccstZxWH.s:185    .text.ibqGetEmptyBufferI:0000000000000000 ibqGetEmptyBufferI
     /tmp/ccstZxWH.s:221    .text.ibqPostFullBufferI:0000000000000000 $t
     /tmp/ccstZxWH.s:229    .text.ibqPostFullBufferI:0000000000000000 ibqPostFullBufferI
     /tmp/ccstZxWH.s:303    .text.ibqGetFullBufferTimeout:0000000000000000 $t
     /tmp/ccstZxWH.s:311    .text.ibqGetFullBufferTimeout:0000000000000000 ibqGetFullBufferTimeout
     /tmp/ccstZxWH.s:593    .text.ibqGetFullBufferTimeoutS:0000000000000000 $t
     /tmp/ccstZxWH.s:601    .text.ibqGetFullBufferTimeoutS:0000000000000000 ibqGetFullBufferTimeoutS
     /tmp/ccstZxWH.s:714    .text.ibqReleaseEmptyBuffer:0000000000000000 $t
     /tmp/ccstZxWH.s:722    .text.ibqReleaseEmptyBuffer:0000000000000000 ibqReleaseEmptyBuffer
     /tmp/ccstZxWH.s:895    .text.ibqReleaseEmptyBufferS:0000000000000000 $t
     /tmp/ccstZxWH.s:903    .text.ibqReleaseEmptyBufferS:0000000000000000 ibqReleaseEmptyBufferS
     /tmp/ccstZxWH.s:958    .text.ibqGetTimeout:0000000000000000 $t
     /tmp/ccstZxWH.s:966    .text.ibqGetTimeout:0000000000000000 ibqGetTimeout
     /tmp/ccstZxWH.s:1358   .text.ibqReadTimeout:0000000000000000 $t
     /tmp/ccstZxWH.s:1366   .text.ibqReadTimeout:0000000000000000 ibqReadTimeout
     /tmp/ccstZxWH.s:2172   .text.obqObjectInit:0000000000000000 $t
     /tmp/ccstZxWH.s:2180   .text.obqObjectInit:0000000000000000 obqObjectInit
     /tmp/ccstZxWH.s:2280   .text.obqResetI:0000000000000000 $t
     /tmp/ccstZxWH.s:2288   .text.obqResetI:0000000000000000 obqResetI
     /tmp/ccstZxWH.s:2327   .text.obqGetFullBufferI:0000000000000000 $t
     /tmp/ccstZxWH.s:2335   .text.obqGetFullBufferI:0000000000000000 obqGetFullBufferI
     /tmp/ccstZxWH.s:2378   .text.obqReleaseEmptyBufferI:0000000000000000 $t
     /tmp/ccstZxWH.s:2386   .text.obqReleaseEmptyBufferI:0000000000000000 obqReleaseEmptyBufferI
     /tmp/ccstZxWH.s:2441   .text.obqGetEmptyBufferTimeout:0000000000000000 $t
     /tmp/ccstZxWH.s:2449   .text.obqGetEmptyBufferTimeout:0000000000000000 obqGetEmptyBufferTimeout
     /tmp/ccstZxWH.s:2729   .text.obqGetEmptyBufferTimeoutS:0000000000000000 $t
     /tmp/ccstZxWH.s:2737   .text.obqGetEmptyBufferTimeoutS:0000000000000000 obqGetEmptyBufferTimeoutS
     /tmp/ccstZxWH.s:2851   .text.obqPostFullBuffer:0000000000000000 $t
     /tmp/ccstZxWH.s:2859   .text.obqPostFullBuffer:0000000000000000 obqPostFullBuffer
     /tmp/ccstZxWH.s:3043   .text.obqPostFullBufferS:0000000000000000 $t
     /tmp/ccstZxWH.s:3051   .text.obqPostFullBufferS:0000000000000000 obqPostFullBufferS
     /tmp/ccstZxWH.s:3131   .text.obqPutTimeout:0000000000000000 $t
     /tmp/ccstZxWH.s:3139   .text.obqPutTimeout:0000000000000000 obqPutTimeout
     /tmp/ccstZxWH.s:3518   .text.obqWriteTimeout:0000000000000000 $t
     /tmp/ccstZxWH.s:3526   .text.obqWriteTimeout:0000000000000000 obqWriteTimeout
     /tmp/ccstZxWH.s:4356   .text.obqTryFlushI:0000000000000000 $t
     /tmp/ccstZxWH.s:4364   .text.obqTryFlushI:0000000000000000 obqTryFlushI
     /tmp/ccstZxWH.s:4454   .text.obqFlush:0000000000000000 $t
     /tmp/ccstZxWH.s:4462   .text.obqFlush:0000000000000000 obqFlush

UNDEFINED SYMBOLS
chThdDequeueAllI
chThdDequeueNextI
chThdEnqueueTimeoutS
memcpy
