ARM GAS  /tmp/cck5CGpq.s 			page 1


   1              		.cpu cortex-m4
   2              		.eabi_attribute 20, 1
   3              		.eabi_attribute 21, 1
   4              		.eabi_attribute 23, 3
   5              		.eabi_attribute 24, 1
   6              		.eabi_attribute 25, 1
   7              		.eabi_attribute 26, 1
   8              		.eabi_attribute 30, 2
   9              		.eabi_attribute 34, 1
  10              		.eabi_attribute 18, 4
  11              		.file	"nvic.c"
  12              		.text
  13              	.Ltext0:
  14              		.cfi_sections	.debug_frame
  15              		.section	.text.nvicEnableVector,"ax",%progbits
  16              		.align	1
  17              		.p2align 4,,15
  18              		.global	nvicEnableVector
  19              		.arch armv7e-m
  20              		.syntax unified
  21              		.thumb
  22              		.thumb_func
  23              		.fpu softvfp
  24              		.type	nvicEnableVector, %function
  25              	nvicEnableVector:
  26              	.LVL0:
  27              	.LFB277:
  28              		.file 1 "../../../os/hal/ports/common/ARMCMx/nvic.c"
  29              		.loc 1 57 50 view -0
  30              		.cfi_startproc
  31              		@ args = 0, pretend = 0, frame = 0
  32              		@ frame_needed = 0, uses_anonymous_args = 0
  33              		@ link register save eliminated.
  34              		.loc 1 63 3 view .LVU1
  35              		.loc 1 65 16 is_stmt 0 view .LVU2
  36 0000 4309     		lsrs	r3, r0, #5
  37 0002 9B00     		lsls	r3, r3, #2
  38              		.loc 1 63 15 view .LVU3
  39 0004 00F1604C 		add	ip, r0, #-536870912
  40 0008 03F16043 		add	r3, r3, #-536870912
  41 000c 03F56143 		add	r3, r3, #57600
  42              		.loc 1 63 17 view .LVU4
  43 0010 0901     		lsls	r1, r1, #4
  44              	.LVL1:
  45              		.loc 1 63 15 view .LVU5
  46 0012 0CF5614C 		add	ip, ip, #57600
  47              		.loc 1 65 34 view .LVU6
  48 0016 00F01F00 		and	r0, r0, #31
  49              	.LVL2:
  50              		.loc 1 65 28 view .LVU7
  51 001a 0122     		movs	r2, #1
  52 001c 02FA00F0 		lsl	r0, r2, r0
  53              		.loc 1 63 17 view .LVU8
  54 0020 C9B2     		uxtb	r1, r1
  55              		.loc 1 63 15 view .LVU9
  56 0022 8CF80013 		strb	r1, [ip, #768]
  57              		.loc 1 65 3 is_stmt 1 view .LVU10
ARM GAS  /tmp/cck5CGpq.s 			page 2


  58              		.loc 1 65 23 is_stmt 0 view .LVU11
  59 0026 C3F88001 		str	r0, [r3, #384]
  60              		.loc 1 66 3 is_stmt 1 view .LVU12
  61              		.loc 1 66 23 is_stmt 0 view .LVU13
  62 002a 1860     		str	r0, [r3]
  63              		.loc 1 67 1 view .LVU14
  64 002c 7047     		bx	lr
  65              		.cfi_endproc
  66              	.LFE277:
  67              		.size	nvicEnableVector, .-nvicEnableVector
  68 002e 00BF     		.section	.text.nvicDisableVector,"ax",%progbits
  69              		.align	1
  70              		.p2align 4,,15
  71              		.global	nvicDisableVector
  72              		.syntax unified
  73              		.thumb
  74              		.thumb_func
  75              		.fpu softvfp
  76              		.type	nvicDisableVector, %function
  77              	nvicDisableVector:
  78              	.LVL3:
  79              	.LFB278:
  80              		.loc 1 74 36 is_stmt 1 view -0
  81              		.cfi_startproc
  82              		@ args = 0, pretend = 0, frame = 0
  83              		@ frame_needed = 0, uses_anonymous_args = 0
  84              		@ link register save eliminated.
  85              		.loc 1 76 3 view .LVU16
  86              		.loc 1 76 23 is_stmt 0 view .LVU17
  87 0000 0749     		ldr	r1, .L4
  88              		.loc 1 76 16 view .LVU18
  89 0002 4309     		lsrs	r3, r0, #5
  90              		.loc 1 76 34 view .LVU19
  91 0004 00F01F0C 		and	ip, r0, #31
  92              		.loc 1 76 28 view .LVU20
  93 0008 0122     		movs	r2, #1
  94              		.loc 1 76 23 view .LVU21
  95 000a 2033     		adds	r3, r3, #32
  96              		.loc 1 80 15 view .LVU22
  97 000c 0844     		add	r0, r0, r1
  98              	.LVL4:
  99              		.loc 1 76 28 view .LVU23
 100 000e 02FA0CF2 		lsl	r2, r2, ip
 101              		.loc 1 80 15 view .LVU24
 102 0012 4FF0000C 		mov	ip, #0
 103              		.loc 1 76 23 view .LVU25
 104 0016 41F82320 		str	r2, [r1, r3, lsl #2]
 105              		.loc 1 80 3 is_stmt 1 view .LVU26
 106              		.loc 1 80 15 is_stmt 0 view .LVU27
 107 001a 80F800C3 		strb	ip, [r0, #768]
 108              		.loc 1 82 1 view .LVU28
 109 001e 7047     		bx	lr
 110              	.L5:
 111              		.align	2
 112              	.L4:
 113 0020 00E100E0 		.word	-536813312
 114              		.cfi_endproc
ARM GAS  /tmp/cck5CGpq.s 			page 3


 115              	.LFE278:
 116              		.size	nvicDisableVector, .-nvicDisableVector
 117              		.section	.text.nvicSetSystemHandlerPriority,"ax",%progbits
 118              		.align	1
 119              		.p2align 4,,15
 120              		.global	nvicSetSystemHandlerPriority
 121              		.syntax unified
 122              		.thumb
 123              		.thumb_func
 124              		.fpu softvfp
 125              		.type	nvicSetSystemHandlerPriority, %function
 126              	nvicSetSystemHandlerPriority:
 127              	.LVL5:
 128              	.LFB279:
 129              		.loc 1 90 68 is_stmt 1 view -0
 130              		.cfi_startproc
 131              		@ args = 0, pretend = 0, frame = 0
 132              		@ frame_needed = 0, uses_anonymous_args = 0
 133              		@ link register save eliminated.
 134              		.loc 1 92 3 view .LVU30
 135              		.loc 1 92 3 view .LVU31
 136              		.loc 1 92 3 view .LVU32
 137              		.loc 1 100 3 view .LVU33
 138              		.loc 1 100 21 is_stmt 0 view .LVU34
 139 0000 00F16040 		add	r0, r0, #-536870912
 140              	.LVL6:
 141              		.loc 1 100 23 view .LVU35
 142 0004 0901     		lsls	r1, r1, #4
 143              	.LVL7:
 144              		.loc 1 100 21 view .LVU36
 145 0006 00F56D40 		add	r0, r0, #60672
 146              	.LVL8:
 147              		.loc 1 100 23 view .LVU37
 148 000a C9B2     		uxtb	r1, r1
 149              		.loc 1 100 21 view .LVU38
 150 000c 0176     		strb	r1, [r0, #24]
 151              		.loc 1 102 1 view .LVU39
 152 000e 7047     		bx	lr
 153              		.cfi_endproc
 154              	.LFE279:
 155              		.size	nvicSetSystemHandlerPriority, .-nvicSetSystemHandlerPriority
 156              		.section	.text.nvicClearPending,"ax",%progbits
 157              		.align	1
 158              		.p2align 4,,15
 159              		.global	nvicClearPending
 160              		.syntax unified
 161              		.thumb
 162              		.thumb_func
 163              		.fpu softvfp
 164              		.type	nvicClearPending, %function
 165              	nvicClearPending:
 166              	.LVL9:
 167              	.LFB280:
 168              		.loc 1 109 35 is_stmt 1 view -0
 169              		.cfi_startproc
 170              		@ args = 0, pretend = 0, frame = 0
 171              		@ frame_needed = 0, uses_anonymous_args = 0
ARM GAS  /tmp/cck5CGpq.s 			page 4


 172              		@ link register save eliminated.
 173              		.loc 1 111 3 view .LVU41
 174              		.loc 1 111 16 is_stmt 0 view .LVU42
 175 0000 4309     		lsrs	r3, r0, #5
 176              		.loc 1 111 22 view .LVU43
 177 0002 0549     		ldr	r1, .L8
 178              		.loc 1 111 32 view .LVU44
 179 0004 00F01F00 		and	r0, r0, #31
 180              	.LVL10:
 181              		.loc 1 111 26 view .LVU45
 182 0008 0122     		movs	r2, #1
 183              		.loc 1 111 22 view .LVU46
 184 000a 6033     		adds	r3, r3, #96
 185              		.loc 1 111 26 view .LVU47
 186 000c 02FA00F0 		lsl	r0, r2, r0
 187              		.loc 1 111 22 view .LVU48
 188 0010 41F82300 		str	r0, [r1, r3, lsl #2]
 189              		.loc 1 112 1 view .LVU49
 190 0014 7047     		bx	lr
 191              	.L9:
 192 0016 00BF     		.align	2
 193              	.L8:
 194 0018 00E100E0 		.word	-536813312
 195              		.cfi_endproc
 196              	.LFE280:
 197              		.size	nvicClearPending, .-nvicClearPending
 198              		.text
 199              	.Letext0:
 200              		.file 2 "/usr/lib/gcc/arm-none-eabi/10.3.1/include/stdint.h"
 201              		.file 3 "../../../os/common/ext/CMSIS/include/core_cm4.h"
 202              		.section	.debug_info,"",%progbits
 203              	.Ldebug_info0:
 204 0000 74040000 		.4byte	0x474
 205 0004 0400     		.2byte	0x4
 206 0006 00000000 		.4byte	.Ldebug_abbrev0
 207 000a 04       		.byte	0x4
 208 000b 01       		.uleb128 0x1
 209 000c 3E010000 		.4byte	.LASF47
 210 0010 0C       		.byte	0xc
 211 0011 5D000000 		.4byte	.LASF48
 212 0015 E5000000 		.4byte	.LASF49
 213 0019 00000000 		.4byte	.Ldebug_ranges0+0
 214 001d 00000000 		.4byte	0
 215 0021 00000000 		.4byte	.Ldebug_line0
 216 0025 02       		.uleb128 0x2
 217 0026 04       		.byte	0x4
 218 0027 05       		.byte	0x5
 219 0028 696E7400 		.ascii	"int\000"
 220 002c 03       		.uleb128 0x3
 221 002d 04       		.byte	0x4
 222 002e 07       		.byte	0x7
 223 002f 2F020000 		.4byte	.LASF0
 224 0033 03       		.uleb128 0x3
 225 0034 08       		.byte	0x8
 226 0035 05       		.byte	0x5
 227 0036 81020000 		.4byte	.LASF1
 228 003a 03       		.uleb128 0x3
ARM GAS  /tmp/cck5CGpq.s 			page 5


 229 003b 08       		.byte	0x8
 230 003c 04       		.byte	0x4
 231 003d C3020000 		.4byte	.LASF2
 232 0041 03       		.uleb128 0x3
 233 0042 01       		.byte	0x1
 234 0043 06       		.byte	0x6
 235 0044 CF020000 		.4byte	.LASF3
 236 0048 03       		.uleb128 0x3
 237 0049 02       		.byte	0x2
 238 004a 05       		.byte	0x5
 239 004b 12020000 		.4byte	.LASF4
 240 004f 03       		.uleb128 0x3
 241 0050 04       		.byte	0x4
 242 0051 05       		.byte	0x5
 243 0052 BA020000 		.4byte	.LASF5
 244 0056 04       		.uleb128 0x4
 245 0057 79020000 		.4byte	.LASF8
 246 005b 02       		.byte	0x2
 247 005c 2E       		.byte	0x2e
 248 005d 18       		.byte	0x18
 249 005e 67000000 		.4byte	0x67
 250 0062 05       		.uleb128 0x5
 251 0063 56000000 		.4byte	0x56
 252 0067 03       		.uleb128 0x3
 253 0068 01       		.byte	0x1
 254 0069 08       		.byte	0x8
 255 006a 9F000000 		.4byte	.LASF6
 256 006e 03       		.uleb128 0x3
 257 006f 02       		.byte	0x2
 258 0070 07       		.byte	0x7
 259 0071 BC000000 		.4byte	.LASF7
 260 0075 04       		.uleb128 0x4
 261 0076 B1020000 		.4byte	.LASF9
 262 007a 02       		.byte	0x2
 263 007b 34       		.byte	0x34
 264 007c 19       		.byte	0x19
 265 007d 8B000000 		.4byte	0x8b
 266 0081 05       		.uleb128 0x5
 267 0082 75000000 		.4byte	0x75
 268 0086 06       		.uleb128 0x6
 269 0087 81000000 		.4byte	0x81
 270 008b 03       		.uleb128 0x3
 271 008c 04       		.byte	0x4
 272 008d 07       		.byte	0x7
 273 008e 56020000 		.4byte	.LASF10
 274 0092 03       		.uleb128 0x3
 275 0093 08       		.byte	0x8
 276 0094 07       		.byte	0x7
 277 0095 88000000 		.4byte	.LASF11
 278 0099 07       		.uleb128 0x7
 279 009a 040E     		.2byte	0xe04
 280 009c 03       		.byte	0x3
 281 009d C301     		.2byte	0x1c3
 282 009f 09       		.byte	0x9
 283 00a0 63010000 		.4byte	0x163
 284 00a4 08       		.uleb128 0x8
 285 00a5 9B020000 		.4byte	.LASF12
ARM GAS  /tmp/cck5CGpq.s 			page 6


 286 00a9 03       		.byte	0x3
 287 00aa C501     		.2byte	0x1c5
 288 00ac 12       		.byte	0x12
 289 00ad 73010000 		.4byte	0x173
 290 00b1 00       		.byte	0
 291 00b2 08       		.uleb128 0x8
 292 00b3 2C000000 		.4byte	.LASF13
 293 00b7 03       		.byte	0x3
 294 00b8 C601     		.2byte	0x1c6
 295 00ba 12       		.byte	0x12
 296 00bb 78010000 		.4byte	0x178
 297 00bf 20       		.byte	0x20
 298 00c0 08       		.uleb128 0x8
 299 00c1 1C020000 		.4byte	.LASF14
 300 00c5 03       		.byte	0x3
 301 00c6 C701     		.2byte	0x1c7
 302 00c8 12       		.byte	0x12
 303 00c9 73010000 		.4byte	0x173
 304 00cd 80       		.byte	0x80
 305 00ce 08       		.uleb128 0x8
 306 00cf 68020000 		.4byte	.LASF15
 307 00d3 03       		.byte	0x3
 308 00d4 C801     		.2byte	0x1c8
 309 00d6 12       		.byte	0x12
 310 00d7 78010000 		.4byte	0x178
 311 00db A0       		.byte	0xa0
 312 00dc 09       		.uleb128 0x9
 313 00dd 3C020000 		.4byte	.LASF16
 314 00e1 03       		.byte	0x3
 315 00e2 C901     		.2byte	0x1c9
 316 00e4 12       		.byte	0x12
 317 00e5 73010000 		.4byte	0x173
 318 00e9 0001     		.2byte	0x100
 319 00eb 09       		.uleb128 0x9
 320 00ec 02030000 		.4byte	.LASF17
 321 00f0 03       		.byte	0x3
 322 00f1 CA01     		.2byte	0x1ca
 323 00f3 12       		.byte	0x12
 324 00f4 78010000 		.4byte	0x178
 325 00f8 2001     		.2byte	0x120
 326 00fa 09       		.uleb128 0x9
 327 00fb 05000000 		.4byte	.LASF18
 328 00ff 03       		.byte	0x3
 329 0100 CB01     		.2byte	0x1cb
 330 0102 12       		.byte	0x12
 331 0103 73010000 		.4byte	0x173
 332 0107 8001     		.2byte	0x180
 333 0109 09       		.uleb128 0x9
 334 010a 36000000 		.4byte	.LASF19
 335 010e 03       		.byte	0x3
 336 010f CC01     		.2byte	0x1cc
 337 0111 12       		.byte	0x12
 338 0112 78010000 		.4byte	0x178
 339 0116 A001     		.2byte	0x1a0
 340 0118 09       		.uleb128 0x9
 341 0119 F8020000 		.4byte	.LASF20
 342 011d 03       		.byte	0x3
ARM GAS  /tmp/cck5CGpq.s 			page 7


 343 011e CD01     		.2byte	0x1cd
 344 0120 12       		.byte	0x12
 345 0121 73010000 		.4byte	0x173
 346 0125 0002     		.2byte	0x200
 347 0127 09       		.uleb128 0x9
 348 0128 40000000 		.4byte	.LASF21
 349 012c 03       		.byte	0x3
 350 012d CE01     		.2byte	0x1ce
 351 012f 12       		.byte	0x12
 352 0130 88010000 		.4byte	0x188
 353 0134 2002     		.2byte	0x220
 354 0136 0A       		.uleb128 0xa
 355 0137 495000   		.ascii	"IP\000"
 356 013a 03       		.byte	0x3
 357 013b CF01     		.2byte	0x1cf
 358 013d 12       		.byte	0x12
 359 013e A8010000 		.4byte	0x1a8
 360 0142 0003     		.2byte	0x300
 361 0144 09       		.uleb128 0x9
 362 0145 4A000000 		.4byte	.LASF22
 363 0149 03       		.byte	0x3
 364 014a D001     		.2byte	0x1d0
 365 014c 12       		.byte	0x12
 366 014d AD010000 		.4byte	0x1ad
 367 0151 F003     		.2byte	0x3f0
 368 0153 09       		.uleb128 0x9
 369 0154 B7000000 		.4byte	.LASF23
 370 0158 03       		.byte	0x3
 371 0159 D101     		.2byte	0x1d1
 372 015b 12       		.byte	0x12
 373 015c 81000000 		.4byte	0x81
 374 0160 000E     		.2byte	0xe00
 375 0162 00       		.byte	0
 376 0163 0B       		.uleb128 0xb
 377 0164 81000000 		.4byte	0x81
 378 0168 73010000 		.4byte	0x173
 379 016c 0C       		.uleb128 0xc
 380 016d 2C000000 		.4byte	0x2c
 381 0171 07       		.byte	0x7
 382 0172 00       		.byte	0
 383 0173 05       		.uleb128 0x5
 384 0174 63010000 		.4byte	0x163
 385 0178 0B       		.uleb128 0xb
 386 0179 75000000 		.4byte	0x75
 387 017d 88010000 		.4byte	0x188
 388 0181 0C       		.uleb128 0xc
 389 0182 2C000000 		.4byte	0x2c
 390 0186 17       		.byte	0x17
 391 0187 00       		.byte	0
 392 0188 0B       		.uleb128 0xb
 393 0189 75000000 		.4byte	0x75
 394 018d 98010000 		.4byte	0x198
 395 0191 0C       		.uleb128 0xc
 396 0192 2C000000 		.4byte	0x2c
 397 0196 37       		.byte	0x37
 398 0197 00       		.byte	0
 399 0198 0B       		.uleb128 0xb
ARM GAS  /tmp/cck5CGpq.s 			page 8


 400 0199 62000000 		.4byte	0x62
 401 019d A8010000 		.4byte	0x1a8
 402 01a1 0C       		.uleb128 0xc
 403 01a2 2C000000 		.4byte	0x2c
 404 01a6 EF       		.byte	0xef
 405 01a7 00       		.byte	0
 406 01a8 05       		.uleb128 0x5
 407 01a9 98010000 		.4byte	0x198
 408 01ad 0B       		.uleb128 0xb
 409 01ae 75000000 		.4byte	0x75
 410 01b2 BE010000 		.4byte	0x1be
 411 01b6 0D       		.uleb128 0xd
 412 01b7 2C000000 		.4byte	0x2c
 413 01bb 8302     		.2byte	0x283
 414 01bd 00       		.byte	0
 415 01be 0E       		.uleb128 0xe
 416 01bf AD000000 		.4byte	.LASF24
 417 01c3 03       		.byte	0x3
 418 01c4 D201     		.2byte	0x1d2
 419 01c6 04       		.byte	0x4
 420 01c7 99000000 		.4byte	0x99
 421 01cb 0F       		.uleb128 0xf
 422 01cc 8C       		.byte	0x8c
 423 01cd 03       		.byte	0x3
 424 01ce E501     		.2byte	0x1e5
 425 01d0 09       		.byte	0x9
 426 01d1 FC020000 		.4byte	0x2fc
 427 01d5 08       		.uleb128 0x8
 428 01d6 8F020000 		.4byte	.LASF25
 429 01da 03       		.byte	0x3
 430 01db E701     		.2byte	0x1e7
 431 01dd 12       		.byte	0x12
 432 01de 86000000 		.4byte	0x86
 433 01e2 00       		.byte	0
 434 01e3 08       		.uleb128 0x8
 435 01e4 4B020000 		.4byte	.LASF26
 436 01e8 03       		.byte	0x3
 437 01e9 E801     		.2byte	0x1e8
 438 01eb 12       		.byte	0x12
 439 01ec 81000000 		.4byte	0x81
 440 01f0 04       		.byte	0x4
 441 01f1 08       		.uleb128 0x8
 442 01f2 27000000 		.4byte	.LASF27
 443 01f6 03       		.byte	0x3
 444 01f7 E901     		.2byte	0x1e9
 445 01f9 12       		.byte	0x12
 446 01fa 81000000 		.4byte	0x81
 447 01fe 08       		.byte	0x8
 448 01ff 08       		.uleb128 0x8
 449 0200 50020000 		.4byte	.LASF28
 450 0204 03       		.byte	0x3
 451 0205 EA01     		.2byte	0x1ea
 452 0207 12       		.byte	0x12
 453 0208 81000000 		.4byte	0x81
 454 020c 0C       		.byte	0xc
 455 020d 10       		.uleb128 0x10
 456 020e 53435200 		.ascii	"SCR\000"
ARM GAS  /tmp/cck5CGpq.s 			page 9


 457 0212 03       		.byte	0x3
 458 0213 EB01     		.2byte	0x1eb
 459 0215 12       		.byte	0x12
 460 0216 81000000 		.4byte	0x81
 461 021a 10       		.byte	0x10
 462 021b 10       		.uleb128 0x10
 463 021c 43435200 		.ascii	"CCR\000"
 464 0220 03       		.byte	0x3
 465 0221 EC01     		.2byte	0x1ec
 466 0223 12       		.byte	0x12
 467 0224 81000000 		.4byte	0x81
 468 0228 14       		.byte	0x14
 469 0229 10       		.uleb128 0x10
 470 022a 53485000 		.ascii	"SHP\000"
 471 022e 03       		.byte	0x3
 472 022f ED01     		.2byte	0x1ed
 473 0231 12       		.byte	0x12
 474 0232 0C030000 		.4byte	0x30c
 475 0236 18       		.byte	0x18
 476 0237 08       		.uleb128 0x8
 477 0238 AB020000 		.4byte	.LASF29
 478 023c 03       		.byte	0x3
 479 023d EE01     		.2byte	0x1ee
 480 023f 12       		.byte	0x12
 481 0240 81000000 		.4byte	0x81
 482 0244 24       		.byte	0x24
 483 0245 08       		.uleb128 0x8
 484 0246 CF000000 		.4byte	.LASF30
 485 024a 03       		.byte	0x3
 486 024b EF01     		.2byte	0x1ef
 487 024d 12       		.byte	0x12
 488 024e 81000000 		.4byte	0x81
 489 0252 28       		.byte	0x28
 490 0253 08       		.uleb128 0x8
 491 0254 28010000 		.4byte	.LASF31
 492 0258 03       		.byte	0x3
 493 0259 F001     		.2byte	0x1f0
 494 025b 12       		.byte	0x12
 495 025c 81000000 		.4byte	0x81
 496 0260 2C       		.byte	0x2c
 497 0261 08       		.uleb128 0x8
 498 0262 41020000 		.4byte	.LASF32
 499 0266 03       		.byte	0x3
 500 0267 F101     		.2byte	0x1f1
 501 0269 12       		.byte	0x12
 502 026a 81000000 		.4byte	0x81
 503 026e 30       		.byte	0x30
 504 026f 08       		.uleb128 0x8
 505 0270 A5020000 		.4byte	.LASF33
 506 0274 03       		.byte	0x3
 507 0275 F201     		.2byte	0x1f2
 508 0277 12       		.byte	0x12
 509 0278 81000000 		.4byte	0x81
 510 027c 34       		.byte	0x34
 511 027d 08       		.uleb128 0x8
 512 027e FD020000 		.4byte	.LASF34
 513 0282 03       		.byte	0x3
ARM GAS  /tmp/cck5CGpq.s 			page 10


 514 0283 F301     		.2byte	0x1f3
 515 0285 12       		.byte	0x12
 516 0286 81000000 		.4byte	0x81
 517 028a 38       		.byte	0x38
 518 028b 08       		.uleb128 0x8
 519 028c A0020000 		.4byte	.LASF35
 520 0290 03       		.byte	0x3
 521 0291 F401     		.2byte	0x1f4
 522 0293 12       		.byte	0x12
 523 0294 81000000 		.4byte	0x81
 524 0298 3C       		.byte	0x3c
 525 0299 10       		.uleb128 0x10
 526 029a 50465200 		.ascii	"PFR\000"
 527 029e 03       		.byte	0x3
 528 029f F501     		.2byte	0x1f5
 529 02a1 12       		.byte	0x12
 530 02a2 26030000 		.4byte	0x326
 531 02a6 40       		.byte	0x40
 532 02a7 10       		.uleb128 0x10
 533 02a8 44465200 		.ascii	"DFR\000"
 534 02ac 03       		.byte	0x3
 535 02ad F601     		.2byte	0x1f6
 536 02af 12       		.byte	0x12
 537 02b0 86000000 		.4byte	0x86
 538 02b4 48       		.byte	0x48
 539 02b5 10       		.uleb128 0x10
 540 02b6 41445200 		.ascii	"ADR\000"
 541 02ba 03       		.byte	0x3
 542 02bb F701     		.2byte	0x1f7
 543 02bd 12       		.byte	0x12
 544 02be 86000000 		.4byte	0x86
 545 02c2 4C       		.byte	0x4c
 546 02c3 08       		.uleb128 0x8
 547 02c4 0A000000 		.4byte	.LASF36
 548 02c8 03       		.byte	0x3
 549 02c9 F801     		.2byte	0x1f8
 550 02cb 12       		.byte	0x12
 551 02cc 40030000 		.4byte	0x340
 552 02d0 50       		.byte	0x50
 553 02d1 08       		.uleb128 0x8
 554 02d2 21020000 		.4byte	.LASF37
 555 02d6 03       		.byte	0x3
 556 02d7 F901     		.2byte	0x1f9
 557 02d9 12       		.byte	0x12
 558 02da 5A030000 		.4byte	0x35a
 559 02de 60       		.byte	0x60
 560 02df 08       		.uleb128 0x8
 561 02e0 2C000000 		.4byte	.LASF13
 562 02e4 03       		.byte	0x3
 563 02e5 FA01     		.2byte	0x1fa
 564 02e7 12       		.byte	0x12
 565 02e8 5F030000 		.4byte	0x35f
 566 02ec 74       		.byte	0x74
 567 02ed 08       		.uleb128 0x8
 568 02ee 95020000 		.4byte	.LASF38
 569 02f2 03       		.byte	0x3
 570 02f3 FB01     		.2byte	0x1fb
ARM GAS  /tmp/cck5CGpq.s 			page 11


 571 02f5 12       		.byte	0x12
 572 02f6 81000000 		.4byte	0x81
 573 02fa 88       		.byte	0x88
 574 02fb 00       		.byte	0
 575 02fc 0B       		.uleb128 0xb
 576 02fd 62000000 		.4byte	0x62
 577 0301 0C030000 		.4byte	0x30c
 578 0305 0C       		.uleb128 0xc
 579 0306 2C000000 		.4byte	0x2c
 580 030a 0B       		.byte	0xb
 581 030b 00       		.byte	0
 582 030c 05       		.uleb128 0x5
 583 030d FC020000 		.4byte	0x2fc
 584 0311 0B       		.uleb128 0xb
 585 0312 86000000 		.4byte	0x86
 586 0316 21030000 		.4byte	0x321
 587 031a 0C       		.uleb128 0xc
 588 031b 2C000000 		.4byte	0x2c
 589 031f 01       		.byte	0x1
 590 0320 00       		.byte	0
 591 0321 06       		.uleb128 0x6
 592 0322 11030000 		.4byte	0x311
 593 0326 05       		.uleb128 0x5
 594 0327 21030000 		.4byte	0x321
 595 032b 0B       		.uleb128 0xb
 596 032c 86000000 		.4byte	0x86
 597 0330 3B030000 		.4byte	0x33b
 598 0334 0C       		.uleb128 0xc
 599 0335 2C000000 		.4byte	0x2c
 600 0339 03       		.byte	0x3
 601 033a 00       		.byte	0
 602 033b 06       		.uleb128 0x6
 603 033c 2B030000 		.4byte	0x32b
 604 0340 05       		.uleb128 0x5
 605 0341 3B030000 		.4byte	0x33b
 606 0345 0B       		.uleb128 0xb
 607 0346 86000000 		.4byte	0x86
 608 034a 55030000 		.4byte	0x355
 609 034e 0C       		.uleb128 0xc
 610 034f 2C000000 		.4byte	0x2c
 611 0353 04       		.byte	0x4
 612 0354 00       		.byte	0
 613 0355 06       		.uleb128 0x6
 614 0356 45030000 		.4byte	0x345
 615 035a 05       		.uleb128 0x5
 616 035b 55030000 		.4byte	0x355
 617 035f 0B       		.uleb128 0xb
 618 0360 75000000 		.4byte	0x75
 619 0364 6F030000 		.4byte	0x36f
 620 0368 0C       		.uleb128 0xc
 621 0369 2C000000 		.4byte	0x2c
 622 036d 04       		.byte	0x4
 623 036e 00       		.byte	0
 624 036f 0E       		.uleb128 0xe
 625 0370 26020000 		.4byte	.LASF39
 626 0374 03       		.byte	0x3
 627 0375 FC01     		.2byte	0x1fc
ARM GAS  /tmp/cck5CGpq.s 			page 12


 628 0377 03       		.byte	0x3
 629 0378 CB010000 		.4byte	0x1cb
 630 037c 03       		.uleb128 0x3
 631 037d 01       		.byte	0x1
 632 037e 08       		.byte	0x8
 633 037f 46020000 		.4byte	.LASF40
 634 0383 06       		.uleb128 0x6
 635 0384 7C030000 		.4byte	0x37c
 636 0388 03       		.uleb128 0x3
 637 0389 01       		.byte	0x1
 638 038a 02       		.byte	0x2
 639 038b 0F000000 		.4byte	.LASF41
 640 038f 11       		.uleb128 0x11
 641 0390 2D010000 		.4byte	.LASF42
 642 0394 01       		.byte	0x1
 643 0395 6D       		.byte	0x6d
 644 0396 06       		.byte	0x6
 645 0397 00000000 		.4byte	.LFB280
 646 039b 1C000000 		.4byte	.LFE280-.LFB280
 647 039f 01       		.uleb128 0x1
 648 03a0 9C       		.byte	0x9c
 649 03a1 B8030000 		.4byte	0x3b8
 650 03a5 12       		.uleb128 0x12
 651 03a6 6E00     		.ascii	"n\000"
 652 03a8 01       		.byte	0x1
 653 03a9 6D       		.byte	0x6d
 654 03aa 20       		.byte	0x20
 655 03ab 75000000 		.4byte	0x75
 656 03af 04000000 		.4byte	.LLST5
 657 03b3 00000000 		.4byte	.LVUS5
 658 03b7 00       		.byte	0
 659 03b8 11       		.uleb128 0x11
 660 03b9 DB020000 		.4byte	.LASF43
 661 03bd 01       		.byte	0x1
 662 03be 5A       		.byte	0x5a
 663 03bf 06       		.byte	0x6
 664 03c0 00000000 		.4byte	.LFB279
 665 03c4 10000000 		.4byte	.LFE279-.LFB279
 666 03c8 01       		.uleb128 0x1
 667 03c9 9C       		.byte	0x9c
 668 03ca 00040000 		.4byte	0x400
 669 03ce 13       		.uleb128 0x13
 670 03cf 71020000 		.4byte	.LASF44
 671 03d3 01       		.byte	0x1
 672 03d4 5A       		.byte	0x5a
 673 03d5 2C       		.byte	0x2c
 674 03d6 75000000 		.4byte	0x75
 675 03da 2B000000 		.4byte	.LLST3
 676 03de 25000000 		.4byte	.LVUS3
 677 03e2 13       		.uleb128 0x13
 678 03e3 00000000 		.4byte	.LASF45
 679 03e7 01       		.byte	0x1
 680 03e8 5A       		.byte	0x5a
 681 03e9 3E       		.byte	0x3e
 682 03ea 75000000 		.4byte	0x75
 683 03ee 64000000 		.4byte	.LLST4
 684 03f2 60000000 		.4byte	.LVUS4
ARM GAS  /tmp/cck5CGpq.s 			page 13


 685 03f6 14       		.uleb128 0x14
 686 03f7 54000000 		.4byte	.LASF50
 687 03fb 10040000 		.4byte	0x410
 688 03ff 00       		.byte	0
 689 0400 0B       		.uleb128 0xb
 690 0401 83030000 		.4byte	0x383
 691 0405 10040000 		.4byte	0x410
 692 0409 0C       		.uleb128 0xc
 693 040a 2C000000 		.4byte	0x2c
 694 040e 1C       		.byte	0x1c
 695 040f 00       		.byte	0
 696 0410 06       		.uleb128 0x6
 697 0411 00040000 		.4byte	0x400
 698 0415 11       		.uleb128 0x11
 699 0416 15000000 		.4byte	.LASF46
 700 041a 01       		.byte	0x1
 701 041b 4A       		.byte	0x4a
 702 041c 06       		.byte	0x6
 703 041d 00000000 		.4byte	.LFB278
 704 0421 24000000 		.4byte	.LFE278-.LFB278
 705 0425 01       		.uleb128 0x1
 706 0426 9C       		.byte	0x9c
 707 0427 3E040000 		.4byte	0x43e
 708 042b 12       		.uleb128 0x12
 709 042c 6E00     		.ascii	"n\000"
 710 042e 01       		.byte	0x1
 711 042f 4A       		.byte	0x4a
 712 0430 21       		.byte	0x21
 713 0431 75000000 		.4byte	0x75
 714 0435 89000000 		.4byte	.LLST2
 715 0439 85000000 		.4byte	.LVUS2
 716 043d 00       		.byte	0
 717 043e 15       		.uleb128 0x15
 718 043f D4000000 		.4byte	.LASF51
 719 0443 01       		.byte	0x1
 720 0444 39       		.byte	0x39
 721 0445 06       		.byte	0x6
 722 0446 00000000 		.4byte	.LFB277
 723 044a 2E000000 		.4byte	.LFE277-.LFB277
 724 044e 01       		.uleb128 0x1
 725 044f 9C       		.byte	0x9c
 726 0450 12       		.uleb128 0x12
 727 0451 6E00     		.ascii	"n\000"
 728 0453 01       		.byte	0x1
 729 0454 39       		.byte	0x39
 730 0455 20       		.byte	0x20
 731 0456 75000000 		.4byte	0x75
 732 045a B1000000 		.4byte	.LLST0
 733 045e AD000000 		.4byte	.LVUS0
 734 0462 13       		.uleb128 0x13
 735 0463 00000000 		.4byte	.LASF45
 736 0467 01       		.byte	0x1
 737 0468 39       		.byte	0x39
 738 0469 2C       		.byte	0x2c
 739 046a 75000000 		.4byte	0x75
 740 046e D9000000 		.4byte	.LLST1
 741 0472 D5000000 		.4byte	.LVUS1
ARM GAS  /tmp/cck5CGpq.s 			page 14


 742 0476 00       		.byte	0
 743 0477 00       		.byte	0
 744              		.section	.debug_abbrev,"",%progbits
 745              	.Ldebug_abbrev0:
 746 0000 01       		.uleb128 0x1
 747 0001 11       		.uleb128 0x11
 748 0002 01       		.byte	0x1
 749 0003 25       		.uleb128 0x25
 750 0004 0E       		.uleb128 0xe
 751 0005 13       		.uleb128 0x13
 752 0006 0B       		.uleb128 0xb
 753 0007 03       		.uleb128 0x3
 754 0008 0E       		.uleb128 0xe
 755 0009 1B       		.uleb128 0x1b
 756 000a 0E       		.uleb128 0xe
 757 000b 55       		.uleb128 0x55
 758 000c 17       		.uleb128 0x17
 759 000d 11       		.uleb128 0x11
 760 000e 01       		.uleb128 0x1
 761 000f 10       		.uleb128 0x10
 762 0010 17       		.uleb128 0x17
 763 0011 00       		.byte	0
 764 0012 00       		.byte	0
 765 0013 02       		.uleb128 0x2
 766 0014 24       		.uleb128 0x24
 767 0015 00       		.byte	0
 768 0016 0B       		.uleb128 0xb
 769 0017 0B       		.uleb128 0xb
 770 0018 3E       		.uleb128 0x3e
 771 0019 0B       		.uleb128 0xb
 772 001a 03       		.uleb128 0x3
 773 001b 08       		.uleb128 0x8
 774 001c 00       		.byte	0
 775 001d 00       		.byte	0
 776 001e 03       		.uleb128 0x3
 777 001f 24       		.uleb128 0x24
 778 0020 00       		.byte	0
 779 0021 0B       		.uleb128 0xb
 780 0022 0B       		.uleb128 0xb
 781 0023 3E       		.uleb128 0x3e
 782 0024 0B       		.uleb128 0xb
 783 0025 03       		.uleb128 0x3
 784 0026 0E       		.uleb128 0xe
 785 0027 00       		.byte	0
 786 0028 00       		.byte	0
 787 0029 04       		.uleb128 0x4
 788 002a 16       		.uleb128 0x16
 789 002b 00       		.byte	0
 790 002c 03       		.uleb128 0x3
 791 002d 0E       		.uleb128 0xe
 792 002e 3A       		.uleb128 0x3a
 793 002f 0B       		.uleb128 0xb
 794 0030 3B       		.uleb128 0x3b
 795 0031 0B       		.uleb128 0xb
 796 0032 39       		.uleb128 0x39
 797 0033 0B       		.uleb128 0xb
 798 0034 49       		.uleb128 0x49
ARM GAS  /tmp/cck5CGpq.s 			page 15


 799 0035 13       		.uleb128 0x13
 800 0036 00       		.byte	0
 801 0037 00       		.byte	0
 802 0038 05       		.uleb128 0x5
 803 0039 35       		.uleb128 0x35
 804 003a 00       		.byte	0
 805 003b 49       		.uleb128 0x49
 806 003c 13       		.uleb128 0x13
 807 003d 00       		.byte	0
 808 003e 00       		.byte	0
 809 003f 06       		.uleb128 0x6
 810 0040 26       		.uleb128 0x26
 811 0041 00       		.byte	0
 812 0042 49       		.uleb128 0x49
 813 0043 13       		.uleb128 0x13
 814 0044 00       		.byte	0
 815 0045 00       		.byte	0
 816 0046 07       		.uleb128 0x7
 817 0047 13       		.uleb128 0x13
 818 0048 01       		.byte	0x1
 819 0049 0B       		.uleb128 0xb
 820 004a 05       		.uleb128 0x5
 821 004b 3A       		.uleb128 0x3a
 822 004c 0B       		.uleb128 0xb
 823 004d 3B       		.uleb128 0x3b
 824 004e 05       		.uleb128 0x5
 825 004f 39       		.uleb128 0x39
 826 0050 0B       		.uleb128 0xb
 827 0051 01       		.uleb128 0x1
 828 0052 13       		.uleb128 0x13
 829 0053 00       		.byte	0
 830 0054 00       		.byte	0
 831 0055 08       		.uleb128 0x8
 832 0056 0D       		.uleb128 0xd
 833 0057 00       		.byte	0
 834 0058 03       		.uleb128 0x3
 835 0059 0E       		.uleb128 0xe
 836 005a 3A       		.uleb128 0x3a
 837 005b 0B       		.uleb128 0xb
 838 005c 3B       		.uleb128 0x3b
 839 005d 05       		.uleb128 0x5
 840 005e 39       		.uleb128 0x39
 841 005f 0B       		.uleb128 0xb
 842 0060 49       		.uleb128 0x49
 843 0061 13       		.uleb128 0x13
 844 0062 38       		.uleb128 0x38
 845 0063 0B       		.uleb128 0xb
 846 0064 00       		.byte	0
 847 0065 00       		.byte	0
 848 0066 09       		.uleb128 0x9
 849 0067 0D       		.uleb128 0xd
 850 0068 00       		.byte	0
 851 0069 03       		.uleb128 0x3
 852 006a 0E       		.uleb128 0xe
 853 006b 3A       		.uleb128 0x3a
 854 006c 0B       		.uleb128 0xb
 855 006d 3B       		.uleb128 0x3b
ARM GAS  /tmp/cck5CGpq.s 			page 16


 856 006e 05       		.uleb128 0x5
 857 006f 39       		.uleb128 0x39
 858 0070 0B       		.uleb128 0xb
 859 0071 49       		.uleb128 0x49
 860 0072 13       		.uleb128 0x13
 861 0073 38       		.uleb128 0x38
 862 0074 05       		.uleb128 0x5
 863 0075 00       		.byte	0
 864 0076 00       		.byte	0
 865 0077 0A       		.uleb128 0xa
 866 0078 0D       		.uleb128 0xd
 867 0079 00       		.byte	0
 868 007a 03       		.uleb128 0x3
 869 007b 08       		.uleb128 0x8
 870 007c 3A       		.uleb128 0x3a
 871 007d 0B       		.uleb128 0xb
 872 007e 3B       		.uleb128 0x3b
 873 007f 05       		.uleb128 0x5
 874 0080 39       		.uleb128 0x39
 875 0081 0B       		.uleb128 0xb
 876 0082 49       		.uleb128 0x49
 877 0083 13       		.uleb128 0x13
 878 0084 38       		.uleb128 0x38
 879 0085 05       		.uleb128 0x5
 880 0086 00       		.byte	0
 881 0087 00       		.byte	0
 882 0088 0B       		.uleb128 0xb
 883 0089 01       		.uleb128 0x1
 884 008a 01       		.byte	0x1
 885 008b 49       		.uleb128 0x49
 886 008c 13       		.uleb128 0x13
 887 008d 01       		.uleb128 0x1
 888 008e 13       		.uleb128 0x13
 889 008f 00       		.byte	0
 890 0090 00       		.byte	0
 891 0091 0C       		.uleb128 0xc
 892 0092 21       		.uleb128 0x21
 893 0093 00       		.byte	0
 894 0094 49       		.uleb128 0x49
 895 0095 13       		.uleb128 0x13
 896 0096 2F       		.uleb128 0x2f
 897 0097 0B       		.uleb128 0xb
 898 0098 00       		.byte	0
 899 0099 00       		.byte	0
 900 009a 0D       		.uleb128 0xd
 901 009b 21       		.uleb128 0x21
 902 009c 00       		.byte	0
 903 009d 49       		.uleb128 0x49
 904 009e 13       		.uleb128 0x13
 905 009f 2F       		.uleb128 0x2f
 906 00a0 05       		.uleb128 0x5
 907 00a1 00       		.byte	0
 908 00a2 00       		.byte	0
 909 00a3 0E       		.uleb128 0xe
 910 00a4 16       		.uleb128 0x16
 911 00a5 00       		.byte	0
 912 00a6 03       		.uleb128 0x3
ARM GAS  /tmp/cck5CGpq.s 			page 17


 913 00a7 0E       		.uleb128 0xe
 914 00a8 3A       		.uleb128 0x3a
 915 00a9 0B       		.uleb128 0xb
 916 00aa 3B       		.uleb128 0x3b
 917 00ab 05       		.uleb128 0x5
 918 00ac 39       		.uleb128 0x39
 919 00ad 0B       		.uleb128 0xb
 920 00ae 49       		.uleb128 0x49
 921 00af 13       		.uleb128 0x13
 922 00b0 00       		.byte	0
 923 00b1 00       		.byte	0
 924 00b2 0F       		.uleb128 0xf
 925 00b3 13       		.uleb128 0x13
 926 00b4 01       		.byte	0x1
 927 00b5 0B       		.uleb128 0xb
 928 00b6 0B       		.uleb128 0xb
 929 00b7 3A       		.uleb128 0x3a
 930 00b8 0B       		.uleb128 0xb
 931 00b9 3B       		.uleb128 0x3b
 932 00ba 05       		.uleb128 0x5
 933 00bb 39       		.uleb128 0x39
 934 00bc 0B       		.uleb128 0xb
 935 00bd 01       		.uleb128 0x1
 936 00be 13       		.uleb128 0x13
 937 00bf 00       		.byte	0
 938 00c0 00       		.byte	0
 939 00c1 10       		.uleb128 0x10
 940 00c2 0D       		.uleb128 0xd
 941 00c3 00       		.byte	0
 942 00c4 03       		.uleb128 0x3
 943 00c5 08       		.uleb128 0x8
 944 00c6 3A       		.uleb128 0x3a
 945 00c7 0B       		.uleb128 0xb
 946 00c8 3B       		.uleb128 0x3b
 947 00c9 05       		.uleb128 0x5
 948 00ca 39       		.uleb128 0x39
 949 00cb 0B       		.uleb128 0xb
 950 00cc 49       		.uleb128 0x49
 951 00cd 13       		.uleb128 0x13
 952 00ce 38       		.uleb128 0x38
 953 00cf 0B       		.uleb128 0xb
 954 00d0 00       		.byte	0
 955 00d1 00       		.byte	0
 956 00d2 11       		.uleb128 0x11
 957 00d3 2E       		.uleb128 0x2e
 958 00d4 01       		.byte	0x1
 959 00d5 3F       		.uleb128 0x3f
 960 00d6 19       		.uleb128 0x19
 961 00d7 03       		.uleb128 0x3
 962 00d8 0E       		.uleb128 0xe
 963 00d9 3A       		.uleb128 0x3a
 964 00da 0B       		.uleb128 0xb
 965 00db 3B       		.uleb128 0x3b
 966 00dc 0B       		.uleb128 0xb
 967 00dd 39       		.uleb128 0x39
 968 00de 0B       		.uleb128 0xb
 969 00df 27       		.uleb128 0x27
ARM GAS  /tmp/cck5CGpq.s 			page 18


 970 00e0 19       		.uleb128 0x19
 971 00e1 11       		.uleb128 0x11
 972 00e2 01       		.uleb128 0x1
 973 00e3 12       		.uleb128 0x12
 974 00e4 06       		.uleb128 0x6
 975 00e5 40       		.uleb128 0x40
 976 00e6 18       		.uleb128 0x18
 977 00e7 9742     		.uleb128 0x2117
 978 00e9 19       		.uleb128 0x19
 979 00ea 01       		.uleb128 0x1
 980 00eb 13       		.uleb128 0x13
 981 00ec 00       		.byte	0
 982 00ed 00       		.byte	0
 983 00ee 12       		.uleb128 0x12
 984 00ef 05       		.uleb128 0x5
 985 00f0 00       		.byte	0
 986 00f1 03       		.uleb128 0x3
 987 00f2 08       		.uleb128 0x8
 988 00f3 3A       		.uleb128 0x3a
 989 00f4 0B       		.uleb128 0xb
 990 00f5 3B       		.uleb128 0x3b
 991 00f6 0B       		.uleb128 0xb
 992 00f7 39       		.uleb128 0x39
 993 00f8 0B       		.uleb128 0xb
 994 00f9 49       		.uleb128 0x49
 995 00fa 13       		.uleb128 0x13
 996 00fb 02       		.uleb128 0x2
 997 00fc 17       		.uleb128 0x17
 998 00fd B742     		.uleb128 0x2137
 999 00ff 17       		.uleb128 0x17
 1000 0100 00       		.byte	0
 1001 0101 00       		.byte	0
 1002 0102 13       		.uleb128 0x13
 1003 0103 05       		.uleb128 0x5
 1004 0104 00       		.byte	0
 1005 0105 03       		.uleb128 0x3
 1006 0106 0E       		.uleb128 0xe
 1007 0107 3A       		.uleb128 0x3a
 1008 0108 0B       		.uleb128 0xb
 1009 0109 3B       		.uleb128 0x3b
 1010 010a 0B       		.uleb128 0xb
 1011 010b 39       		.uleb128 0x39
 1012 010c 0B       		.uleb128 0xb
 1013 010d 49       		.uleb128 0x49
 1014 010e 13       		.uleb128 0x13
 1015 010f 02       		.uleb128 0x2
 1016 0110 17       		.uleb128 0x17
 1017 0111 B742     		.uleb128 0x2137
 1018 0113 17       		.uleb128 0x17
 1019 0114 00       		.byte	0
 1020 0115 00       		.byte	0
 1021 0116 14       		.uleb128 0x14
 1022 0117 34       		.uleb128 0x34
 1023 0118 00       		.byte	0
 1024 0119 03       		.uleb128 0x3
 1025 011a 0E       		.uleb128 0xe
 1026 011b 49       		.uleb128 0x49
ARM GAS  /tmp/cck5CGpq.s 			page 19


 1027 011c 13       		.uleb128 0x13
 1028 011d 34       		.uleb128 0x34
 1029 011e 19       		.uleb128 0x19
 1030 011f 00       		.byte	0
 1031 0120 00       		.byte	0
 1032 0121 15       		.uleb128 0x15
 1033 0122 2E       		.uleb128 0x2e
 1034 0123 01       		.byte	0x1
 1035 0124 3F       		.uleb128 0x3f
 1036 0125 19       		.uleb128 0x19
 1037 0126 03       		.uleb128 0x3
 1038 0127 0E       		.uleb128 0xe
 1039 0128 3A       		.uleb128 0x3a
 1040 0129 0B       		.uleb128 0xb
 1041 012a 3B       		.uleb128 0x3b
 1042 012b 0B       		.uleb128 0xb
 1043 012c 39       		.uleb128 0x39
 1044 012d 0B       		.uleb128 0xb
 1045 012e 27       		.uleb128 0x27
 1046 012f 19       		.uleb128 0x19
 1047 0130 11       		.uleb128 0x11
 1048 0131 01       		.uleb128 0x1
 1049 0132 12       		.uleb128 0x12
 1050 0133 06       		.uleb128 0x6
 1051 0134 40       		.uleb128 0x40
 1052 0135 18       		.uleb128 0x18
 1053 0136 9742     		.uleb128 0x2117
 1054 0138 19       		.uleb128 0x19
 1055 0139 00       		.byte	0
 1056 013a 00       		.byte	0
 1057 013b 00       		.byte	0
 1058              		.section	.debug_loc,"",%progbits
 1059              	.Ldebug_loc0:
 1060              	.LVUS5:
 1061 0000 00       		.uleb128 0
 1062 0001 00       		.uleb128 .LVU45
 1063 0002 00       		.uleb128 .LVU45
 1064 0003 00       		.uleb128 0
 1065              	.LLST5:
 1066 0004 00000000 		.4byte	.LVL9
 1067 0008 08000000 		.4byte	.LVL10
 1068 000c 0100     		.2byte	0x1
 1069 000e 50       		.byte	0x50
 1070 000f 08000000 		.4byte	.LVL10
 1071 0013 1C000000 		.4byte	.LFE280
 1072 0017 0400     		.2byte	0x4
 1073 0019 F3       		.byte	0xf3
 1074 001a 01       		.uleb128 0x1
 1075 001b 50       		.byte	0x50
 1076 001c 9F       		.byte	0x9f
 1077 001d 00000000 		.4byte	0
 1078 0021 00000000 		.4byte	0
 1079              	.LVUS3:
 1080 0025 00       		.uleb128 0
 1081 0026 00       		.uleb128 .LVU35
 1082 0027 00       		.uleb128 .LVU35
 1083 0028 00       		.uleb128 .LVU37
ARM GAS  /tmp/cck5CGpq.s 			page 20


 1084 0029 00       		.uleb128 .LVU37
 1085 002a 00       		.uleb128 0
 1086              	.LLST3:
 1087 002b 00000000 		.4byte	.LVL5
 1088 002f 04000000 		.4byte	.LVL6
 1089 0033 0100     		.2byte	0x1
 1090 0035 50       		.byte	0x50
 1091 0036 04000000 		.4byte	.LVL6
 1092 003a 0A000000 		.4byte	.LVL8
 1093 003e 0700     		.2byte	0x7
 1094 0040 70       		.byte	0x70
 1095 0041 80808080 		.sleb128 536870912
 1095      02
 1096 0046 9F       		.byte	0x9f
 1097 0047 0A000000 		.4byte	.LVL8
 1098 004b 10000000 		.4byte	.LFE279
 1099 004f 0700     		.2byte	0x7
 1100 0051 70       		.byte	0x70
 1101 0052 80A6FCFF 		.sleb128 536810240
 1101      01
 1102 0057 9F       		.byte	0x9f
 1103 0058 00000000 		.4byte	0
 1104 005c 00000000 		.4byte	0
 1105              	.LVUS4:
 1106 0060 00       		.uleb128 0
 1107 0061 00       		.uleb128 .LVU36
 1108 0062 00       		.uleb128 .LVU36
 1109 0063 00       		.uleb128 0
 1110              	.LLST4:
 1111 0064 00000000 		.4byte	.LVL5
 1112 0068 06000000 		.4byte	.LVL7
 1113 006c 0100     		.2byte	0x1
 1114 006e 51       		.byte	0x51
 1115 006f 06000000 		.4byte	.LVL7
 1116 0073 10000000 		.4byte	.LFE279
 1117 0077 0400     		.2byte	0x4
 1118 0079 F3       		.byte	0xf3
 1119 007a 01       		.uleb128 0x1
 1120 007b 51       		.byte	0x51
 1121 007c 9F       		.byte	0x9f
 1122 007d 00000000 		.4byte	0
 1123 0081 00000000 		.4byte	0
 1124              	.LVUS2:
 1125 0085 00       		.uleb128 0
 1126 0086 00       		.uleb128 .LVU23
 1127 0087 00       		.uleb128 .LVU23
 1128 0088 00       		.uleb128 0
 1129              	.LLST2:
 1130 0089 00000000 		.4byte	.LVL3
 1131 008d 0E000000 		.4byte	.LVL4
 1132 0091 0100     		.2byte	0x1
 1133 0093 50       		.byte	0x50
 1134 0094 0E000000 		.4byte	.LVL4
 1135 0098 24000000 		.4byte	.LFE278
 1136 009c 0700     		.2byte	0x7
 1137 009e 70       		.byte	0x70
 1138 009f 80BEFCFF 		.sleb128 536813312
ARM GAS  /tmp/cck5CGpq.s 			page 21


 1138      01
 1139 00a4 9F       		.byte	0x9f
 1140 00a5 00000000 		.4byte	0
 1141 00a9 00000000 		.4byte	0
 1142              	.LVUS0:
 1143 00ad 00       		.uleb128 0
 1144 00ae 00       		.uleb128 .LVU7
 1145 00af 00       		.uleb128 .LVU7
 1146 00b0 00       		.uleb128 0
 1147              	.LLST0:
 1148 00b1 00000000 		.4byte	.LVL0
 1149 00b5 1A000000 		.4byte	.LVL2
 1150 00b9 0100     		.2byte	0x1
 1151 00bb 50       		.byte	0x50
 1152 00bc 1A000000 		.4byte	.LVL2
 1153 00c0 2E000000 		.4byte	.LFE277
 1154 00c4 0700     		.2byte	0x7
 1155 00c6 7C       		.byte	0x7c
 1156 00c7 80BEFCFF 		.sleb128 536813312
 1156      01
 1157 00cc 9F       		.byte	0x9f
 1158 00cd 00000000 		.4byte	0
 1159 00d1 00000000 		.4byte	0
 1160              	.LVUS1:
 1161 00d5 00       		.uleb128 0
 1162 00d6 00       		.uleb128 .LVU5
 1163 00d7 00       		.uleb128 .LVU5
 1164 00d8 00       		.uleb128 0
 1165              	.LLST1:
 1166 00d9 00000000 		.4byte	.LVL0
 1167 00dd 12000000 		.4byte	.LVL1
 1168 00e1 0100     		.2byte	0x1
 1169 00e3 51       		.byte	0x51
 1170 00e4 12000000 		.4byte	.LVL1
 1171 00e8 2E000000 		.4byte	.LFE277
 1172 00ec 0400     		.2byte	0x4
 1173 00ee F3       		.byte	0xf3
 1174 00ef 01       		.uleb128 0x1
 1175 00f0 51       		.byte	0x51
 1176 00f1 9F       		.byte	0x9f
 1177 00f2 00000000 		.4byte	0
 1178 00f6 00000000 		.4byte	0
 1179              		.section	.debug_aranges,"",%progbits
 1180 0000 34000000 		.4byte	0x34
 1181 0004 0200     		.2byte	0x2
 1182 0006 00000000 		.4byte	.Ldebug_info0
 1183 000a 04       		.byte	0x4
 1184 000b 00       		.byte	0
 1185 000c 0000     		.2byte	0
 1186 000e 0000     		.2byte	0
 1187 0010 00000000 		.4byte	.LFB277
 1188 0014 2E000000 		.4byte	.LFE277-.LFB277
 1189 0018 00000000 		.4byte	.LFB278
 1190 001c 24000000 		.4byte	.LFE278-.LFB278
 1191 0020 00000000 		.4byte	.LFB279
 1192 0024 10000000 		.4byte	.LFE279-.LFB279
 1193 0028 00000000 		.4byte	.LFB280
ARM GAS  /tmp/cck5CGpq.s 			page 22


 1194 002c 1C000000 		.4byte	.LFE280-.LFB280
 1195 0030 00000000 		.4byte	0
 1196 0034 00000000 		.4byte	0
 1197              		.section	.debug_ranges,"",%progbits
 1198              	.Ldebug_ranges0:
 1199 0000 00000000 		.4byte	.LFB277
 1200 0004 2E000000 		.4byte	.LFE277
 1201 0008 00000000 		.4byte	.LFB278
 1202 000c 24000000 		.4byte	.LFE278
 1203 0010 00000000 		.4byte	.LFB279
 1204 0014 10000000 		.4byte	.LFE279
 1205 0018 00000000 		.4byte	.LFB280
 1206 001c 1C000000 		.4byte	.LFE280
 1207 0020 00000000 		.4byte	0
 1208 0024 00000000 		.4byte	0
 1209              		.section	.debug_line,"",%progbits
 1210              	.Ldebug_line0:
 1211 0000 85010000 		.section	.debug_str,"MS",%progbits,1
 1211      0300AA00 
 1211      00000201 
 1211      FB0E0D00 
 1211      01010101 
 1212              	.LASF45:
 1213 0000 7072696F 		.ascii	"prio\000"
 1213      00
 1214              	.LASF18:
 1215 0005 49435052 		.ascii	"ICPR\000"
 1215      00
 1216              	.LASF36:
 1217 000a 4D4D4652 		.ascii	"MMFR\000"
 1217      00
 1218              	.LASF41:
 1219 000f 5F426F6F 		.ascii	"_Bool\000"
 1219      6C00
 1220              	.LASF46:
 1221 0015 6E766963 		.ascii	"nvicDisableVector\000"
 1221      44697361 
 1221      626C6556 
 1221      6563746F 
 1221      7200
 1222              	.LASF27:
 1223 0027 56544F52 		.ascii	"VTOR\000"
 1223      00
 1224              	.LASF13:
 1225 002c 52455345 		.ascii	"RESERVED0\000"
 1225      52564544 
 1225      3000
 1226              	.LASF19:
 1227 0036 52455345 		.ascii	"RESERVED3\000"
 1227      52564544 
 1227      3300
 1228              	.LASF21:
 1229 0040 52455345 		.ascii	"RESERVED4\000"
 1229      52564544 
 1229      3400
 1230              	.LASF22:
 1231 004a 52455345 		.ascii	"RESERVED5\000"
ARM GAS  /tmp/cck5CGpq.s 			page 23


 1231      52564544 
 1231      3500
 1232              	.LASF50:
 1233 0054 5F5F6675 		.ascii	"__func__\000"
 1233      6E635F5F 
 1233      00
 1234              	.LASF48:
 1235 005d 2E2E2F2E 		.ascii	"../../../os/hal/ports/common/ARMCMx/nvic.c\000"
 1235      2E2F2E2E 
 1235      2F6F732F 
 1235      68616C2F 
 1235      706F7274 
 1236              	.LASF11:
 1237 0088 6C6F6E67 		.ascii	"long long unsigned int\000"
 1237      206C6F6E 
 1237      6720756E 
 1237      7369676E 
 1237      65642069 
 1238              	.LASF6:
 1239 009f 756E7369 		.ascii	"unsigned char\000"
 1239      676E6564 
 1239      20636861 
 1239      7200
 1240              	.LASF24:
 1241 00ad 4E564943 		.ascii	"NVIC_Type\000"
 1241      5F547970 
 1241      6500
 1242              	.LASF23:
 1243 00b7 53544952 		.ascii	"STIR\000"
 1243      00
 1244              	.LASF7:
 1245 00bc 73686F72 		.ascii	"short unsigned int\000"
 1245      7420756E 
 1245      7369676E 
 1245      65642069 
 1245      6E7400
 1246              	.LASF30:
 1247 00cf 43465352 		.ascii	"CFSR\000"
 1247      00
 1248              	.LASF51:
 1249 00d4 6E766963 		.ascii	"nvicEnableVector\000"
 1249      456E6162 
 1249      6C655665 
 1249      63746F72 
 1249      00
 1250              	.LASF49:
 1251 00e5 2F686F6D 		.ascii	"/home/tfateba/nlab/ip/trunk/demos/STM32/RT-STM32F40"
 1251      652F7466 
 1251      61746562 
 1251      612F6E6C 
 1251      61622F69 
 1252 0118 372D4449 		.ascii	"7-DISCOVERY-G++\000"
 1252      53434F56 
 1252      4552592D 
 1252      472B2B00 
 1253              	.LASF31:
 1254 0128 48465352 		.ascii	"HFSR\000"
ARM GAS  /tmp/cck5CGpq.s 			page 24


 1254      00
 1255              	.LASF42:
 1256 012d 6E766963 		.ascii	"nvicClearPending\000"
 1256      436C6561 
 1256      7250656E 
 1256      64696E67 
 1256      00
 1257              	.LASF47:
 1258 013e 474E5520 		.ascii	"GNU C17 10.3.1 20210621 (release) -mcpu=cortex-m4 -"
 1258      43313720 
 1258      31302E33 
 1258      2E312032 
 1258      30323130 
 1259 0171 6D6E6F2D 		.ascii	"mno-thumb-interwork -mthumb -mfloat-abi=soft -march"
 1259      7468756D 
 1259      622D696E 
 1259      74657277 
 1259      6F726B20 
 1260 01a4 3D61726D 		.ascii	"=armv7e-m -ggdb -O2 -fomit-frame-pointer -falign-fu"
 1260      7637652D 
 1260      6D202D67 
 1260      67646220 
 1260      2D4F3220 
 1261 01d7 6E637469 		.ascii	"nctions=16 -ffunction-sections -fdata-sections -fno"
 1261      6F6E733D 
 1261      3136202D 
 1261      6666756E 
 1261      6374696F 
 1262 020a 2D636F6D 		.ascii	"-common\000"
 1262      6D6F6E00 
 1263              	.LASF4:
 1264 0212 73686F72 		.ascii	"short int\000"
 1264      7420696E 
 1264      7400
 1265              	.LASF14:
 1266 021c 49434552 		.ascii	"ICER\000"
 1266      00
 1267              	.LASF37:
 1268 0221 49534152 		.ascii	"ISAR\000"
 1268      00
 1269              	.LASF39:
 1270 0226 5343425F 		.ascii	"SCB_Type\000"
 1270      54797065 
 1270      00
 1271              	.LASF0:
 1272 022f 756E7369 		.ascii	"unsigned int\000"
 1272      676E6564 
 1272      20696E74 
 1272      00
 1273              	.LASF16:
 1274 023c 49535052 		.ascii	"ISPR\000"
 1274      00
 1275              	.LASF32:
 1276 0241 44465352 		.ascii	"DFSR\000"
 1276      00
 1277              	.LASF40:
 1278 0246 63686172 		.ascii	"char\000"
ARM GAS  /tmp/cck5CGpq.s 			page 25


 1278      00
 1279              	.LASF26:
 1280 024b 49435352 		.ascii	"ICSR\000"
 1280      00
 1281              	.LASF28:
 1282 0250 41495243 		.ascii	"AIRCR\000"
 1282      5200
 1283              	.LASF10:
 1284 0256 6C6F6E67 		.ascii	"long unsigned int\000"
 1284      20756E73 
 1284      69676E65 
 1284      6420696E 
 1284      7400
 1285              	.LASF15:
 1286 0268 52534552 		.ascii	"RSERVED1\000"
 1286      56454431 
 1286      00
 1287              	.LASF44:
 1288 0271 68616E64 		.ascii	"handler\000"
 1288      6C657200 
 1289              	.LASF8:
 1290 0279 75696E74 		.ascii	"uint8_t\000"
 1290      385F7400 
 1291              	.LASF1:
 1292 0281 6C6F6E67 		.ascii	"long long int\000"
 1292      206C6F6E 
 1292      6720696E 
 1292      7400
 1293              	.LASF25:
 1294 028f 43505549 		.ascii	"CPUID\000"
 1294      4400
 1295              	.LASF38:
 1296 0295 43504143 		.ascii	"CPACR\000"
 1296      5200
 1297              	.LASF12:
 1298 029b 49534552 		.ascii	"ISER\000"
 1298      00
 1299              	.LASF35:
 1300 02a0 41465352 		.ascii	"AFSR\000"
 1300      00
 1301              	.LASF33:
 1302 02a5 4D4D4641 		.ascii	"MMFAR\000"
 1302      5200
 1303              	.LASF29:
 1304 02ab 53484353 		.ascii	"SHCSR\000"
 1304      5200
 1305              	.LASF9:
 1306 02b1 75696E74 		.ascii	"uint32_t\000"
 1306      33325F74 
 1306      00
 1307              	.LASF5:
 1308 02ba 6C6F6E67 		.ascii	"long int\000"
 1308      20696E74 
 1308      00
 1309              	.LASF2:
 1310 02c3 6C6F6E67 		.ascii	"long double\000"
 1310      20646F75 
ARM GAS  /tmp/cck5CGpq.s 			page 26


 1310      626C6500 
 1311              	.LASF3:
 1312 02cf 7369676E 		.ascii	"signed char\000"
 1312      65642063 
 1312      68617200 
 1313              	.LASF43:
 1314 02db 6E766963 		.ascii	"nvicSetSystemHandlerPriority\000"
 1314      53657453 
 1314      79737465 
 1314      6D48616E 
 1314      646C6572 
 1315              	.LASF20:
 1316 02f8 49414252 		.ascii	"IABR\000"
 1316      00
 1317              	.LASF34:
 1318 02fd 42464152 		.ascii	"BFAR\000"
 1318      00
 1319              	.LASF17:
 1320 0302 52455345 		.ascii	"RESERVED2\000"
 1320      52564544 
 1320      3200
 1321              		.ident	"GCC: (15:10.3-2021.07-4) 10.3.1 20210621 (release)"
ARM GAS  /tmp/cck5CGpq.s 			page 27


DEFINED SYMBOLS
                            *ABS*:0000000000000000 nvic.c
     /tmp/cck5CGpq.s:16     .text.nvicEnableVector:0000000000000000 $t
     /tmp/cck5CGpq.s:25     .text.nvicEnableVector:0000000000000000 nvicEnableVector
     /tmp/cck5CGpq.s:69     .text.nvicDisableVector:0000000000000000 $t
     /tmp/cck5CGpq.s:77     .text.nvicDisableVector:0000000000000000 nvicDisableVector
     /tmp/cck5CGpq.s:113    .text.nvicDisableVector:0000000000000020 $d
     /tmp/cck5CGpq.s:118    .text.nvicSetSystemHandlerPriority:0000000000000000 $t
     /tmp/cck5CGpq.s:126    .text.nvicSetSystemHandlerPriority:0000000000000000 nvicSetSystemHandlerPriority
     /tmp/cck5CGpq.s:157    .text.nvicClearPending:0000000000000000 $t
     /tmp/cck5CGpq.s:165    .text.nvicClearPending:0000000000000000 nvicClearPending
     /tmp/cck5CGpq.s:194    .text.nvicClearPending:0000000000000018 $d

NO UNDEFINED SYMBOLS
