ARM GAS  /tmp/cck5CGpq.s 			page 1


   1              		.cpu cortex-m4
   2              		.eabi_attribute 20, 1
   3              		.eabi_attribute 21, 1
   4              		.eabi_attribute 23, 3
   5              		.eabi_attribute 24, 1
   6              		.eabi_attribute 25, 1
   7              		.eabi_attribute 26, 1
   8              		.eabi_attribute 30, 2
   9              		.eabi_attribute 34, 1
  10              		.eabi_attribute 18, 4
  11              		.file	"nvic.c"
  12              		.text
  13              	.Ltext0:
  14              		.cfi_sections	.debug_frame
  15              		.section	.text.nvicEnableVector,"ax",%progbits
  16              		.align	1
  17              		.p2align 4,,15
  18              		.global	nvicEnableVector
  19              		.arch armv7e-m
  20              		.syntax unified
  21              		.thumb
  22              		.thumb_func
  23              		.fpu softvfp
  24              		.type	nvicEnableVector, %function
  25              	nvicEnableVector:
  26              	.LVL0:
  27              	.LFB277:
  28              		.file 1 "../../../os/hal/ports/common/ARMCMx/nvic.c"
  29              		.loc 1 57 50 view -0
  30              		.cfi_startproc
  31              		@ args = 0, pretend = 0, frame = 0
  32              		@ frame_needed = 0, uses_anonymous_args = 0
  33              		@ link register save eliminated.
  34              		.loc 1 63 3 view .LVU1
  35              		.loc 1 65 16 is_stmt 0 view .LVU2
  36 0000 4309     		lsrs	r3, r0, #5
  37 0002 9B00     		lsls	r3, r3, #2
  38              		.loc 1 63 15 view .LVU3
  39 0004 00F1604C 		add	ip, r0, #-536870912
  40 0008 03F16043 		add	r3, r3, #-536870912
  41 000c 03F56143 		add	r3, r3, #57600
  42              		.loc 1 63 17 view .LVU4
  43 0010 0901     		lsls	r1, r1, #4
  44              	.LVL1:
  45              		.loc 1 63 15 view .LVU5
  46 0012 0CF5614C 		add	ip, ip, #57600
  47              		.loc 1 65 34 view .LVU6
  48 0016 00F01F00 		and	r0, r0, #31
  49              	.LVL2:
  50              		.loc 1 65 28 view .LVU7
  51 001a 0122     		movs	r2, #1
  52 001c 02FA00F0 		lsl	r0, r2, r0
  53              		.loc 1 63 17 view .LVU8
  54 0020 C9B2     		uxtb	r1, r1
  55              		.loc 1 63 15 view .LVU9
  56 0022 8CF80013 		strb	r1, [ip, #768]
  57              		.loc 1 65 3 is_stmt 1 view .LVU10
ARM GAS  /tmp/cck5CGpq.s 			page 2


  58              		.loc 1 65 23 is_stmt 0 view .LVU11
  59 0026 C3F88001 		str	r0, [r3, #384]
  60              		.loc 1 66 3 is_stmt 1 view .LVU12
  61              		.loc 1 66 23 is_stmt 0 view .LVU13
  62 002a 1860     		str	r0, [r3]
  63              		.loc 1 67 1 view .LVU14
  64 002c 7047     		bx	lr
  65              		.cfi_endproc
  66              	.LFE277:
  67              		.size	nvicEnableVector, .-nvicEnableVector
  68 002e 00BF     		.section	.text.nvicDisableVector,"ax",%progbits
  69              		.align	1
  70              		.p2align 4,,15
  71              		.global	nvicDisableVector
  72              		.syntax unified
  73              		.thumb
  74              		.thumb_func
  75              		.fpu softvfp
  76              		.type	nvicDisableVector, %function
  77              	nvicDisableVector:
  78              	.LVL3:
  79              	.LFB278:
  80              		.loc 1 74 36 is_stmt 1 view -0
  81              		.cfi_startproc
  82              		@ args = 0, pretend = 0, frame = 0
  83              		@ frame_needed = 0, uses_anonymous_args = 0
  84              		@ link register save eliminated.
  85              		.loc 1 76 3 view .LVU16
  86              		.loc 1 76 23 is_stmt 0 view .LVU17
  87 0000 0749     		ldr	r1, .L4
  88              		.loc 1 76 16 view .LVU18
  89 0002 4309     		lsrs	r3, r0, #5
  90              		.loc 1 76 34 view .LVU19
  91 0004 00F01F0C 		and	ip, r0, #31
  92              		.loc 1 76 28 view .LVU20
  93 0008 0122     		movs	r2, #1
  94              		.loc 1 76 23 view .LVU21
  95 000a 2033     		adds	r3, r3, #32
  96              		.loc 1 80 15 view .LVU22
  97 000c 0844     		add	r0, r0, r1
  98              	.LVL4:
  99              		.loc 1 76 28 view .LVU23
 100 000e 02FA0CF2 		lsl	r2, r2, ip
 101              		.loc 1 80 15 view .LVU24
 102 0012 4FF0000C 		mov	ip, #0
 103              		.loc 1 76 23 view .LVU25
 104 0016 41F82320 		str	r2, [r1, r3, lsl #2]
 105              		.loc 1 80 3 is_stmt 1 view .LVU26
 106              		.loc 1 80 15 is_stmt 0 view .LVU27
 107 001a 80F800C3 		strb	ip, [r0, #768]
 108              		.loc 1 82 1 view .LVU28
 109 001e 7047     		bx	lr
 110              	.L5:
 111              		.align	2
 112              	.L4:
 113 0020 00E100E0 		.word	-536813312
 114              		.cfi_endproc
ARM GAS  /tmp/cck5CGpq.s 			page 3


 115              	.LFE278:
 116              		.size	nvicDisableVector, .-nvicDisableVector
 117              		.section	.text.nvicSetSystemHandlerPriority,"ax",%progbits
 118              		.align	1
 119              		.p2align 4,,15
 120              		.global	nvicSetSystemHandlerPriority
 121              		.syntax unified
 122              		.thumb
 123              		.thumb_func
 124              		.fpu softvfp
 125              		.type	nvicSetSystemHandlerPriority, %function
 126              	nvicSetSystemHandlerPriority:
 127              	.LVL5:
 128              	.LFB279:
 129              		.loc 1 90 68 is_stmt 1 view -0
 130              		.cfi_startproc
 131              		@ args = 0, pretend = 0, frame = 0
 132              		@ frame_needed = 0, uses_anonymous_args = 0
 133              		@ link register save eliminated.
 134              		.loc 1 92 3 view .LVU30
 135              		.loc 1 92 3 view .LVU31
 136              		.loc 1 92 3 view .LVU32
 137              		.loc 1 100 3 view .LVU33
 138              		.loc 1 100 21 is_stmt 0 view .LVU34
 139 0000 00F16040 		add	r0, r0, #-536870912
 140              	.LVL6:
 141              		.loc 1 100 23 view .LVU35
 142 0004 0901     		lsls	r1, r1, #4
 143              	.LVL7:
 144              		.loc 1 100 21 view .LVU36
 145 0006 00F56D40 		add	r0, r0, #60672
 146              	.LVL8:
 147              		.loc 1 100 23 view .LVU37
 148 000a C9B2     		uxtb	r1, r1
 149              		.loc 1 100 21 view .LVU38
 150 000c 0176     		strb	r1, [r0, #24]
 151              		.loc 1 102 1 view .LVU39
 152 000e 7047     		bx	lr
 153              		.cfi_endproc
 154              	.LFE279:
 155              		.size	nvicSetSystemHandlerPriority, .-nvicSetSystemHandlerPriority
 156              		.section	.text.nvicClearPending,"ax",%progbits
 157              		.align	1
 158              		.p2align 4,,15
 159              		.global	nvicClearPending
 160              		.syntax unified
 161              		.thumb
 162              		.thumb_func
 163              		.fpu softvfp
 164              		.type	nvicClearPending, %function
 165              	nvicClearPending:
 166              	.LVL9:
 167              	.LFB280:
 168              		.loc 1 109 35 is_stmt 1 view -0
 169              		.cfi_startproc
 170              		@ args = 0, pretend = 0, frame = 0
 171              		@ frame_needed = 0, uses_anonymous_args = 0
ARM GAS  /tmp/cck5CGpq.s 			page 4


 172              		@ link register save eliminated.
 173              		.loc 1 111 3 view .LVU41
 174              		.loc 1 111 16 is_stmt 0 view .LVU42
 175 0000 4309     		lsrs	r3, r0, #5
 176              		.loc 1 111 22 view .LVU43
 177 0002 0549     		ldr	r1, .L8
 178              		.loc 1 111 32 view .LVU44
 179 0004 00F01F00 		and	r0, r0, #31
 180              	.LVL10:
 181              		.loc 1 111 26 view .LVU45
 182 0008 0122     		movs	r2, #1
 183              		.loc 1 111 22 view .LVU46
 184 000a 6033     		adds	r3, r3, #96
 185              		.loc 1 111 26 view .LVU47
 186 000c 02FA00F0 		lsl	r0, r2, r0
 187              		.loc 1 111 22 view .LVU48
 188 0010 41F82300 		str	r0, [r1, r3, lsl #2]
 189              		.loc 1 112 1 view .LVU49
 190 0014 7047     		bx	lr
 191              	.L9:
 192 0016 00BF     		.align	2
 193              	.L8:
 194 0018 00E100E0 		.word	-536813312
 195              		.cfi_endproc
 196              	.LFE280:
 197              		.size	nvicClearPending, .-nvicClearPending
 198              		.text
 199              	.Letext0:
 200              		.file 2 "/usr/lib/gcc/arm-none-eabi/10.3.1/include/stdint.h"
 201              		.file 3 "../../../os/common/ext/CMSIS/include/core_cm4.h"