ARM GAS  /tmp/ccbqudvp.s 			page 1


   1              		.cpu cortex-m4
   2              		.eabi_attribute 20, 1
   3              		.eabi_attribute 21, 1
   4              		.eabi_attribute 23, 3
   5              		.eabi_attribute 24, 1
   6              		.eabi_attribute 25, 1
   7              		.eabi_attribute 26, 1
   8              		.eabi_attribute 30, 2
   9              		.eabi_attribute 34, 1
  10              		.eabi_attribute 18, 4
  11              		.file	"stm32_dma.c"
  12              		.text
  13              	.Ltext0:
  14              		.cfi_sections	.debug_frame
  15              		.section	.text.Vector6C,"ax",%progbits
  16              		.align	1
  17              		.p2align 4,,15
  18              		.global	Vector6C
  19              		.arch armv7e-m
  20              		.syntax unified
  21              		.thumb
  22              		.thumb_func
  23              		.fpu softvfp
  24              		.type	Vector6C, %function
  25              	Vector6C:
  26              	.LFB277:
  27              		.file 1 "../../../os/hal/ports/STM32/LLD/DMAv2/stm32_dma.c"
  28              		.loc 1 117 42 view -0
  29              		.cfi_startproc
  30              		@ args = 0, pretend = 0, frame = 0
  31              		@ frame_needed = 0, uses_anonymous_args = 0
  32              		.loc 1 118 3 view .LVU1
  33              		.loc 1 120 3 view .LVU2
  34              		.loc 1 120 3 view .LVU3
  35              		.loc 1 120 3 view .LVU4
  36              		.loc 1 120 3 view .LVU5
  37              		.loc 1 120 3 view .LVU6
  38              		.loc 1 120 22 view .LVU7
  39              		.loc 1 122 3 view .LVU8
  40              		.loc 1 117 42 is_stmt 0 view .LVU9
  41 0000 08B5     		push	{r3, lr}
  42              		.cfi_def_cfa_offset 8
  43              		.cfi_offset 3, -8
  44              		.cfi_offset 14, -4
  45              		.loc 1 122 23 view .LVU10
  46 0002 074B     		ldr	r3, .L8
  47              		.loc 1 124 23 view .LVU11
  48 0004 074A     		ldr	r2, .L8+4
  49              		.loc 1 122 23 view .LVU12
  50 0006 1968     		ldr	r1, [r3]
  51              		.loc 1 122 9 view .LVU13
  52 0008 01F03D01 		and	r1, r1, #61
  53              	.LVL0:
  54              		.loc 1 123 3 is_stmt 1 view .LVU14
  55              		.loc 1 123 15 is_stmt 0 view .LVU15
  56 000c 9960     		str	r1, [r3, #8]
  57              		.loc 1 124 3 is_stmt 1 view .LVU16
ARM GAS  /tmp/ccbqudvp.s 			page 2


  58              		.loc 1 124 23 is_stmt 0 view .LVU17
  59 000e 1368     		ldr	r3, [r2]
  60              		.loc 1 124 6 view .LVU18
  61 0010 0BB1     		cbz	r3, .L2
  62              		.loc 1 125 5 is_stmt 1 view .LVU19
  63 0012 5068     		ldr	r0, [r2, #4]
  64 0014 9847     		blx	r3
  65              	.LVL1:
  66              	.L2:
  67              		.loc 1 127 3 view .LVU20
  68              		.loc 1 127 3 view .LVU21
  69              		.loc 1 127 3 view .LVU22
  70              		.loc 1 127 3 view .LVU23
  71              		.loc 1 127 3 view .LVU24
  72              		.loc 1 128 1 is_stmt 0 view .LVU25
  73 0016 BDE80840 		pop	{r3, lr}
  74              		.cfi_restore 14
  75              		.cfi_restore 3
  76              		.cfi_def_cfa_offset 0
  77              		.loc 1 127 3 view .LVU26
  78 001a FFF7FEBF 		b	_port_irq_epilogue
  79              	.LVL2:
  80              	.L9:
  81 001e 00BF     		.align	2
  82              	.L8:
  83 0020 00600240 		.word	1073897472
  84 0024 00000000 		.word	.LANCHOR0
  85              		.cfi_endproc
  86              	.LFE277:
  87              		.size	Vector6C, .-Vector6C
  88              		.section	.text.Vector70,"ax",%progbits
  89              		.align	1
  90              		.p2align 4,,15
  91              		.global	Vector70
  92              		.syntax unified
  93              		.thumb
  94              		.thumb_func
  95              		.fpu softvfp
  96              		.type	Vector70, %function
  97              	Vector70:
  98              	.LFB278:
  99              		.loc 1 135 42 is_stmt 1 view -0
 100              		.cfi_startproc
 101              		@ args = 0, pretend = 0, frame = 0
 102              		@ frame_needed = 0, uses_anonymous_args = 0
 103              		.loc 1 136 3 view .LVU28
 104              		.loc 1 138 3 view .LVU29
 105              		.loc 1 138 3 view .LVU30
 106              		.loc 1 138 3 view .LVU31
 107              		.loc 1 138 3 view .LVU32
 108              		.loc 1 138 3 view .LVU33
 109              		.loc 1 138 22 view .LVU34
 110              		.loc 1 140 3 view .LVU35
 111              		.loc 1 140 16 is_stmt 0 view .LVU36
 112 0000 084B     		ldr	r3, .L16
 113              		.loc 1 142 23 view .LVU37
 114 0002 0948     		ldr	r0, .L16+4
ARM GAS  /tmp/ccbqudvp.s 			page 3


 115              		.loc 1 140 16 view .LVU38
 116 0004 1968     		ldr	r1, [r3]
 117              		.loc 1 142 23 view .LVU39
 118 0006 8268     		ldr	r2, [r0, #8]
 119              		.loc 1 140 23 view .LVU40
 120 0008 8909     		lsrs	r1, r1, #6
 121              		.loc 1 140 9 view .LVU41
 122 000a 01F03D01 		and	r1, r1, #61
 123              	.LVL3:
 124              		.loc 1 141 3 is_stmt 1 view .LVU42
 125              		.loc 1 135 42 is_stmt 0 view .LVU43
 126 000e 10B5     		push	{r4, lr}
 127              		.cfi_def_cfa_offset 8
 128              		.cfi_offset 4, -8
 129              		.cfi_offset 14, -4
 130              		.loc 1 141 23 view .LVU44
 131 0010 8C01     		lsls	r4, r1, #6
 132              		.loc 1 141 15 view .LVU45
 133 0012 9C60     		str	r4, [r3, #8]
 134              		.loc 1 142 3 is_stmt 1 view .LVU46
 135              		.loc 1 142 6 is_stmt 0 view .LVU47
 136 0014 0AB1     		cbz	r2, .L11
 137              		.loc 1 143 5 is_stmt 1 view .LVU48
 138 0016 C068     		ldr	r0, [r0, #12]
 139 0018 9047     		blx	r2
 140              	.LVL4:
 141              	.L11:
 142              		.loc 1 145 3 view .LVU49
 143              		.loc 1 145 3 view .LVU50
 144              		.loc 1 145 3 view .LVU51
 145              		.loc 1 145 3 view .LVU52
 146              		.loc 1 145 3 view .LVU53
 147              		.loc 1 146 1 is_stmt 0 view .LVU54
 148 001a BDE81040 		pop	{r4, lr}
 149              		.cfi_restore 14
 150              		.cfi_restore 4
 151              		.cfi_def_cfa_offset 0
 152              		.loc 1 145 3 view .LVU55
 153 001e FFF7FEBF 		b	_port_irq_epilogue
 154              	.LVL5:
 155              	.L17:
 156 0022 00BF     		.align	2
 157              	.L16:
 158 0024 00600240 		.word	1073897472
 159 0028 00000000 		.word	.LANCHOR0
 160              		.cfi_endproc
 161              	.LFE278:
 162              		.size	Vector70, .-Vector70
 163              		.section	.text.Vector74,"ax",%progbits
 164              		.align	1
 165              		.p2align 4,,15
 166              		.global	Vector74
 167              		.syntax unified
 168              		.thumb
 169              		.thumb_func
 170              		.fpu softvfp
 171              		.type	Vector74, %function
ARM GAS  /tmp/ccbqudvp.s 			page 4


 172              	Vector74:
 173              	.LFB279:
 174              		.loc 1 153 42 is_stmt 1 view -0
 175              		.cfi_startproc
 176              		@ args = 0, pretend = 0, frame = 0
 177              		@ frame_needed = 0, uses_anonymous_args = 0
 178              		.loc 1 154 3 view .LVU57
 179              		.loc 1 156 3 view .LVU58
 180              		.loc 1 156 3 view .LVU59
 181              		.loc 1 156 3 view .LVU60
 182              		.loc 1 156 3 view .LVU61
 183              		.loc 1 156 3 view .LVU62
 184              		.loc 1 156 22 view .LVU63
 185              		.loc 1 158 3 view .LVU64
 186              		.loc 1 158 16 is_stmt 0 view .LVU65
 187 0000 084B     		ldr	r3, .L24
 188              		.loc 1 160 23 view .LVU66
 189 0002 0948     		ldr	r0, .L24+4
 190              		.loc 1 158 16 view .LVU67
 191 0004 1968     		ldr	r1, [r3]
 192              		.loc 1 160 23 view .LVU68
 193 0006 0269     		ldr	r2, [r0, #16]
 194              		.loc 1 158 23 view .LVU69
 195 0008 090C     		lsrs	r1, r1, #16
 196              		.loc 1 158 9 view .LVU70
 197 000a 01F03D01 		and	r1, r1, #61
 198              	.LVL6:
 199              		.loc 1 159 3 is_stmt 1 view .LVU71
 200              		.loc 1 153 42 is_stmt 0 view .LVU72
 201 000e 10B5     		push	{r4, lr}
 202              		.cfi_def_cfa_offset 8
 203              		.cfi_offset 4, -8
 204              		.cfi_offset 14, -4
 205              		.loc 1 159 23 view .LVU73
 206 0010 0C04     		lsls	r4, r1, #16
 207              		.loc 1 159 15 view .LVU74
 208 0012 9C60     		str	r4, [r3, #8]
 209              		.loc 1 160 3 is_stmt 1 view .LVU75
 210              		.loc 1 160 6 is_stmt 0 view .LVU76
 211 0014 0AB1     		cbz	r2, .L19
 212              		.loc 1 161 5 is_stmt 1 view .LVU77
 213 0016 4069     		ldr	r0, [r0, #20]
 214 0018 9047     		blx	r2
 215              	.LVL7:
 216              	.L19:
 217              		.loc 1 163 3 view .LVU78
 218              		.loc 1 163 3 view .LVU79
 219              		.loc 1 163 3 view .LVU80
 220              		.loc 1 163 3 view .LVU81
 221              		.loc 1 163 3 view .LVU82
 222              		.loc 1 164 1 is_stmt 0 view .LVU83
 223 001a BDE81040 		pop	{r4, lr}
 224              		.cfi_restore 14
 225              		.cfi_restore 4
 226              		.cfi_def_cfa_offset 0
 227              		.loc 1 163 3 view .LVU84
 228 001e FFF7FEBF 		b	_port_irq_epilogue
ARM GAS  /tmp/ccbqudvp.s 			page 5


 229              	.LVL8:
 230              	.L25:
 231 0022 00BF     		.align	2
 232              	.L24:
 233 0024 00600240 		.word	1073897472
 234 0028 00000000 		.word	.LANCHOR0
 235              		.cfi_endproc
 236              	.LFE279:
 237              		.size	Vector74, .-Vector74
 238              		.section	.text.Vector78,"ax",%progbits
 239              		.align	1
 240              		.p2align 4,,15
 241              		.global	Vector78
 242              		.syntax unified
 243              		.thumb
 244              		.thumb_func
 245              		.fpu softvfp
 246              		.type	Vector78, %function
 247              	Vector78:
 248              	.LFB280:
 249              		.loc 1 171 42 is_stmt 1 view -0
 250              		.cfi_startproc
 251              		@ args = 0, pretend = 0, frame = 0
 252              		@ frame_needed = 0, uses_anonymous_args = 0
 253              		.loc 1 172 3 view .LVU86
 254              		.loc 1 174 3 view .LVU87
 255              		.loc 1 174 3 view .LVU88
 256              		.loc 1 174 3 view .LVU89
 257              		.loc 1 174 3 view .LVU90
 258              		.loc 1 174 3 view .LVU91
 259              		.loc 1 174 22 view .LVU92
 260              		.loc 1 176 3 view .LVU93
 261              		.loc 1 176 16 is_stmt 0 view .LVU94
 262 0000 084B     		ldr	r3, .L32
 263              		.loc 1 178 23 view .LVU95
 264 0002 0948     		ldr	r0, .L32+4
 265              		.loc 1 176 16 view .LVU96
 266 0004 1968     		ldr	r1, [r3]
 267              		.loc 1 178 23 view .LVU97
 268 0006 8269     		ldr	r2, [r0, #24]
 269              		.loc 1 176 23 view .LVU98
 270 0008 890D     		lsrs	r1, r1, #22
 271              		.loc 1 176 9 view .LVU99
 272 000a 01F03D01 		and	r1, r1, #61
 273              	.LVL9:
 274              		.loc 1 177 3 is_stmt 1 view .LVU100
 275              		.loc 1 171 42 is_stmt 0 view .LVU101
 276 000e 10B5     		push	{r4, lr}
 277              		.cfi_def_cfa_offset 8
 278              		.cfi_offset 4, -8
 279              		.cfi_offset 14, -4
 280              		.loc 1 177 23 view .LVU102
 281 0010 8C05     		lsls	r4, r1, #22
 282              		.loc 1 177 15 view .LVU103
 283 0012 9C60     		str	r4, [r3, #8]
 284              		.loc 1 178 3 is_stmt 1 view .LVU104
 285              		.loc 1 178 6 is_stmt 0 view .LVU105
ARM GAS  /tmp/ccbqudvp.s 			page 6


 286 0014 0AB1     		cbz	r2, .L27
 287              		.loc 1 179 5 is_stmt 1 view .LVU106
 288 0016 C069     		ldr	r0, [r0, #28]
 289 0018 9047     		blx	r2
 290              	.LVL10:
 291              	.L27:
 292              		.loc 1 181 3 view .LVU107
 293              		.loc 1 181 3 view .LVU108
 294              		.loc 1 181 3 view .LVU109
 295              		.loc 1 181 3 view .LVU110
 296              		.loc 1 181 3 view .LVU111
 297              		.loc 1 182 1 is_stmt 0 view .LVU112
 298 001a BDE81040 		pop	{r4, lr}
 299              		.cfi_restore 14
 300              		.cfi_restore 4
 301              		.cfi_def_cfa_offset 0
 302              		.loc 1 181 3 view .LVU113
 303 001e FFF7FEBF 		b	_port_irq_epilogue
 304              	.LVL11:
 305              	.L33:
 306 0022 00BF     		.align	2
 307              	.L32:
 308 0024 00600240 		.word	1073897472
 309 0028 00000000 		.word	.LANCHOR0
 310              		.cfi_endproc
 311              	.LFE280:
 312              		.size	Vector78, .-Vector78
 313              		.section	.text.Vector7C,"ax",%progbits
 314              		.align	1
 315              		.p2align 4,,15
 316              		.global	Vector7C
 317              		.syntax unified
 318              		.thumb
 319              		.thumb_func
 320              		.fpu softvfp
 321              		.type	Vector7C, %function
 322              	Vector7C:
 323              	.LFB281:
 324              		.loc 1 189 42 is_stmt 1 view -0
 325              		.cfi_startproc
 326              		@ args = 0, pretend = 0, frame = 0
 327              		@ frame_needed = 0, uses_anonymous_args = 0
 328              		.loc 1 190 3 view .LVU115
 329              		.loc 1 192 3 view .LVU116
 330              		.loc 1 192 3 view .LVU117
 331              		.loc 1 192 3 view .LVU118
 332              		.loc 1 192 3 view .LVU119
 333              		.loc 1 192 3 view .LVU120
 334              		.loc 1 192 22 view .LVU121
 335              		.loc 1 194 3 view .LVU122
 336              		.loc 1 189 42 is_stmt 0 view .LVU123
 337 0000 08B5     		push	{r3, lr}
 338              		.cfi_def_cfa_offset 8
 339              		.cfi_offset 3, -8
 340              		.cfi_offset 14, -4
 341              		.loc 1 194 23 view .LVU124
 342 0002 074B     		ldr	r3, .L40
ARM GAS  /tmp/ccbqudvp.s 			page 7


 343              		.loc 1 196 23 view .LVU125
 344 0004 0748     		ldr	r0, .L40+4
 345              		.loc 1 194 23 view .LVU126
 346 0006 5968     		ldr	r1, [r3, #4]
 347              		.loc 1 196 23 view .LVU127
 348 0008 026A     		ldr	r2, [r0, #32]
 349              		.loc 1 194 9 view .LVU128
 350 000a 01F03D01 		and	r1, r1, #61
 351              	.LVL12:
 352              		.loc 1 195 3 is_stmt 1 view .LVU129
 353              		.loc 1 195 15 is_stmt 0 view .LVU130
 354 000e D960     		str	r1, [r3, #12]
 355              		.loc 1 196 3 is_stmt 1 view .LVU131
 356              		.loc 1 196 6 is_stmt 0 view .LVU132
 357 0010 0AB1     		cbz	r2, .L35
 358              		.loc 1 197 5 is_stmt 1 view .LVU133
 359 0012 406A     		ldr	r0, [r0, #36]
 360 0014 9047     		blx	r2
 361              	.LVL13:
 362              	.L35:
 363              		.loc 1 199 3 view .LVU134
 364              		.loc 1 199 3 view .LVU135
 365              		.loc 1 199 3 view .LVU136
 366              		.loc 1 199 3 view .LVU137
 367              		.loc 1 199 3 view .LVU138
 368              		.loc 1 200 1 is_stmt 0 view .LVU139
 369 0016 BDE80840 		pop	{r3, lr}
 370              		.cfi_restore 14
 371              		.cfi_restore 3
 372              		.cfi_def_cfa_offset 0
 373              		.loc 1 199 3 view .LVU140
 374 001a FFF7FEBF 		b	_port_irq_epilogue
 375              	.LVL14:
 376              	.L41:
 377 001e 00BF     		.align	2
 378              	.L40:
 379 0020 00600240 		.word	1073897472
 380 0024 00000000 		.word	.LANCHOR0
 381              		.cfi_endproc
 382              	.LFE281:
 383              		.size	Vector7C, .-Vector7C
 384              		.section	.text.Vector80,"ax",%progbits
 385              		.align	1
 386              		.p2align 4,,15
 387              		.global	Vector80
 388              		.syntax unified
 389              		.thumb
 390              		.thumb_func
 391              		.fpu softvfp
 392              		.type	Vector80, %function
 393              	Vector80:
 394              	.LFB282:
 395              		.loc 1 207 42 is_stmt 1 view -0
 396              		.cfi_startproc
 397              		@ args = 0, pretend = 0, frame = 0
 398              		@ frame_needed = 0, uses_anonymous_args = 0
 399              		.loc 1 208 3 view .LVU142
ARM GAS  /tmp/ccbqudvp.s 			page 8


 400              		.loc 1 210 3 view .LVU143
 401              		.loc 1 210 3 view .LVU144
 402              		.loc 1 210 3 view .LVU145
 403              		.loc 1 210 3 view .LVU146
 404              		.loc 1 210 3 view .LVU147
 405              		.loc 1 210 22 view .LVU148
 406              		.loc 1 212 3 view .LVU149
 407              		.loc 1 212 16 is_stmt 0 view .LVU150
 408 0000 084B     		ldr	r3, .L48
 409              		.loc 1 214 23 view .LVU151
 410 0002 0948     		ldr	r0, .L48+4
 411              		.loc 1 212 16 view .LVU152
 412 0004 5968     		ldr	r1, [r3, #4]
 413              		.loc 1 214 23 view .LVU153
 414 0006 826A     		ldr	r2, [r0, #40]
 415              		.loc 1 212 23 view .LVU154
 416 0008 8909     		lsrs	r1, r1, #6
 417              		.loc 1 212 9 view .LVU155
 418 000a 01F03D01 		and	r1, r1, #61
 419              	.LVL15:
 420              		.loc 1 213 3 is_stmt 1 view .LVU156
 421              		.loc 1 207 42 is_stmt 0 view .LVU157
 422 000e 10B5     		push	{r4, lr}
 423              		.cfi_def_cfa_offset 8
 424              		.cfi_offset 4, -8
 425              		.cfi_offset 14, -4
 426              		.loc 1 213 23 view .LVU158
 427 0010 8C01     		lsls	r4, r1, #6
 428              		.loc 1 213 15 view .LVU159
 429 0012 DC60     		str	r4, [r3, #12]
 430              		.loc 1 214 3 is_stmt 1 view .LVU160
 431              		.loc 1 214 6 is_stmt 0 view .LVU161
 432 0014 0AB1     		cbz	r2, .L43
 433              		.loc 1 215 5 is_stmt 1 view .LVU162
 434 0016 C06A     		ldr	r0, [r0, #44]
 435 0018 9047     		blx	r2
 436              	.LVL16:
 437              	.L43:
 438              		.loc 1 217 3 view .LVU163
 439              		.loc 1 217 3 view .LVU164
 440              		.loc 1 217 3 view .LVU165
 441              		.loc 1 217 3 view .LVU166
 442              		.loc 1 217 3 view .LVU167
 443              		.loc 1 218 1 is_stmt 0 view .LVU168
 444 001a BDE81040 		pop	{r4, lr}
 445              		.cfi_restore 14
 446              		.cfi_restore 4
 447              		.cfi_def_cfa_offset 0
 448              		.loc 1 217 3 view .LVU169
 449 001e FFF7FEBF 		b	_port_irq_epilogue
 450              	.LVL17:
 451              	.L49:
 452 0022 00BF     		.align	2
 453              	.L48:
 454 0024 00600240 		.word	1073897472
 455 0028 00000000 		.word	.LANCHOR0
 456              		.cfi_endproc
ARM GAS  /tmp/ccbqudvp.s 			page 9


 457              	.LFE282:
 458              		.size	Vector80, .-Vector80
 459              		.section	.text.Vector84,"ax",%progbits
 460              		.align	1
 461              		.p2align 4,,15
 462              		.global	Vector84
 463              		.syntax unified
 464              		.thumb
 465              		.thumb_func
 466              		.fpu softvfp
 467              		.type	Vector84, %function
 468              	Vector84:
 469              	.LFB283:
 470              		.loc 1 225 42 is_stmt 1 view -0
 471              		.cfi_startproc
 472              		@ args = 0, pretend = 0, frame = 0
 473              		@ frame_needed = 0, uses_anonymous_args = 0
 474              		.loc 1 226 3 view .LVU171
 475              		.loc 1 228 3 view .LVU172
 476              		.loc 1 228 3 view .LVU173
 477              		.loc 1 228 3 view .LVU174
 478              		.loc 1 228 3 view .LVU175
 479              		.loc 1 228 3 view .LVU176
 480              		.loc 1 228 22 view .LVU177
 481              		.loc 1 230 3 view .LVU178
 482              		.loc 1 230 16 is_stmt 0 view .LVU179
 483 0000 084B     		ldr	r3, .L56
 484              		.loc 1 232 23 view .LVU180
 485 0002 0948     		ldr	r0, .L56+4
 486              		.loc 1 230 16 view .LVU181
 487 0004 5968     		ldr	r1, [r3, #4]
 488              		.loc 1 232 23 view .LVU182
 489 0006 026B     		ldr	r2, [r0, #48]
 490              		.loc 1 230 23 view .LVU183
 491 0008 090C     		lsrs	r1, r1, #16
 492              		.loc 1 230 9 view .LVU184
 493 000a 01F03D01 		and	r1, r1, #61
 494              	.LVL18:
 495              		.loc 1 231 3 is_stmt 1 view .LVU185
 496              		.loc 1 225 42 is_stmt 0 view .LVU186
 497 000e 10B5     		push	{r4, lr}
 498              		.cfi_def_cfa_offset 8
 499              		.cfi_offset 4, -8
 500              		.cfi_offset 14, -4
 501              		.loc 1 231 23 view .LVU187
 502 0010 0C04     		lsls	r4, r1, #16
 503              		.loc 1 231 15 view .LVU188
 504 0012 DC60     		str	r4, [r3, #12]
 505              		.loc 1 232 3 is_stmt 1 view .LVU189
 506              		.loc 1 232 6 is_stmt 0 view .LVU190
 507 0014 0AB1     		cbz	r2, .L51
 508              		.loc 1 233 5 is_stmt 1 view .LVU191
 509 0016 406B     		ldr	r0, [r0, #52]
 510 0018 9047     		blx	r2
 511              	.LVL19:
 512              	.L51:
 513              		.loc 1 235 3 view .LVU192
ARM GAS  /tmp/ccbqudvp.s 			page 10


 514              		.loc 1 235 3 view .LVU193
 515              		.loc 1 235 3 view .LVU194
 516              		.loc 1 235 3 view .LVU195
 517              		.loc 1 235 3 view .LVU196
 518              		.loc 1 236 1 is_stmt 0 view .LVU197
 519 001a BDE81040 		pop	{r4, lr}
 520              		.cfi_restore 14
 521              		.cfi_restore 4
 522              		.cfi_def_cfa_offset 0
 523              		.loc 1 235 3 view .LVU198
 524 001e FFF7FEBF 		b	_port_irq_epilogue
 525              	.LVL20:
 526              	.L57:
 527 0022 00BF     		.align	2
 528              	.L56:
 529 0024 00600240 		.word	1073897472
 530 0028 00000000 		.word	.LANCHOR0
 531              		.cfi_endproc
 532              	.LFE283:
 533              		.size	Vector84, .-Vector84
 534              		.section	.text.VectorFC,"ax",%progbits
 535              		.align	1
 536              		.p2align 4,,15
 537              		.global	VectorFC
 538              		.syntax unified
 539              		.thumb
 540              		.thumb_func
 541              		.fpu softvfp
 542              		.type	VectorFC, %function
 543              	VectorFC:
 544              	.LFB284:
 545              		.loc 1 243 42 is_stmt 1 view -0
 546              		.cfi_startproc
 547              		@ args = 0, pretend = 0, frame = 0
 548              		@ frame_needed = 0, uses_anonymous_args = 0
 549              		.loc 1 244 3 view .LVU200
 550              		.loc 1 246 3 view .LVU201
 551              		.loc 1 246 3 view .LVU202
 552              		.loc 1 246 3 view .LVU203
 553              		.loc 1 246 3 view .LVU204
 554              		.loc 1 246 3 view .LVU205
 555              		.loc 1 246 22 view .LVU206
 556              		.loc 1 248 3 view .LVU207
 557              		.loc 1 248 16 is_stmt 0 view .LVU208
 558 0000 084B     		ldr	r3, .L64
 559              		.loc 1 250 23 view .LVU209
 560 0002 0948     		ldr	r0, .L64+4
 561              		.loc 1 248 16 view .LVU210
 562 0004 5968     		ldr	r1, [r3, #4]
 563              		.loc 1 250 23 view .LVU211
 564 0006 826B     		ldr	r2, [r0, #56]
 565              		.loc 1 248 23 view .LVU212
 566 0008 890D     		lsrs	r1, r1, #22
 567              		.loc 1 248 9 view .LVU213
 568 000a 01F03D01 		and	r1, r1, #61
 569              	.LVL21:
 570              		.loc 1 249 3 is_stmt 1 view .LVU214
ARM GAS  /tmp/ccbqudvp.s 			page 11


 571              		.loc 1 243 42 is_stmt 0 view .LVU215
 572 000e 10B5     		push	{r4, lr}
 573              		.cfi_def_cfa_offset 8
 574              		.cfi_offset 4, -8
 575              		.cfi_offset 14, -4
 576              		.loc 1 249 23 view .LVU216
 577 0010 8C05     		lsls	r4, r1, #22
 578              		.loc 1 249 15 view .LVU217
 579 0012 DC60     		str	r4, [r3, #12]
 580              		.loc 1 250 3 is_stmt 1 view .LVU218
 581              		.loc 1 250 6 is_stmt 0 view .LVU219
 582 0014 0AB1     		cbz	r2, .L59
 583              		.loc 1 251 5 is_stmt 1 view .LVU220
 584 0016 C06B     		ldr	r0, [r0, #60]
 585 0018 9047     		blx	r2
 586              	.LVL22:
 587              	.L59:
 588              		.loc 1 253 3 view .LVU221
 589              		.loc 1 253 3 view .LVU222
 590              		.loc 1 253 3 view .LVU223
 591              		.loc 1 253 3 view .LVU224
 592              		.loc 1 253 3 view .LVU225
 593              		.loc 1 254 1 is_stmt 0 view .LVU226
 594 001a BDE81040 		pop	{r4, lr}
 595              		.cfi_restore 14
 596              		.cfi_restore 4
 597              		.cfi_def_cfa_offset 0
 598              		.loc 1 253 3 view .LVU227
 599 001e FFF7FEBF 		b	_port_irq_epilogue
 600              	.LVL23:
 601              	.L65:
 602 0022 00BF     		.align	2
 603              	.L64:
 604 0024 00600240 		.word	1073897472
 605 0028 00000000 		.word	.LANCHOR0
 606              		.cfi_endproc
 607              	.LFE284:
 608              		.size	VectorFC, .-VectorFC
 609              		.section	.text.Vector120,"ax",%progbits
 610              		.align	1
 611              		.p2align 4,,15
 612              		.global	Vector120
 613              		.syntax unified
 614              		.thumb
 615              		.thumb_func
 616              		.fpu softvfp
 617              		.type	Vector120, %function
 618              	Vector120:
 619              	.LFB285:
 620              		.loc 1 261 42 is_stmt 1 view -0
 621              		.cfi_startproc
 622              		@ args = 0, pretend = 0, frame = 0
 623              		@ frame_needed = 0, uses_anonymous_args = 0
 624              		.loc 1 262 3 view .LVU229
 625              		.loc 1 264 3 view .LVU230
 626              		.loc 1 264 3 view .LVU231
 627              		.loc 1 264 3 view .LVU232
ARM GAS  /tmp/ccbqudvp.s 			page 12


 628              		.loc 1 264 3 view .LVU233
 629              		.loc 1 264 3 view .LVU234
 630              		.loc 1 264 22 view .LVU235
 631              		.loc 1 266 3 view .LVU236
 632              		.loc 1 261 42 is_stmt 0 view .LVU237
 633 0000 08B5     		push	{r3, lr}
 634              		.cfi_def_cfa_offset 8
 635              		.cfi_offset 3, -8
 636              		.cfi_offset 14, -4
 637              		.loc 1 266 23 view .LVU238
 638 0002 074B     		ldr	r3, .L72
 639              		.loc 1 268 23 view .LVU239
 640 0004 0748     		ldr	r0, .L72+4
 641              		.loc 1 266 23 view .LVU240
 642 0006 1968     		ldr	r1, [r3]
 643              		.loc 1 268 23 view .LVU241
 644 0008 026C     		ldr	r2, [r0, #64]
 645              		.loc 1 266 9 view .LVU242
 646 000a 01F03D01 		and	r1, r1, #61
 647              	.LVL24:
 648              		.loc 1 267 3 is_stmt 1 view .LVU243
 649              		.loc 1 267 15 is_stmt 0 view .LVU244
 650 000e 9960     		str	r1, [r3, #8]
 651              		.loc 1 268 3 is_stmt 1 view .LVU245
 652              		.loc 1 268 6 is_stmt 0 view .LVU246
 653 0010 0AB1     		cbz	r2, .L67
 654              		.loc 1 269 5 is_stmt 1 view .LVU247
 655 0012 406C     		ldr	r0, [r0, #68]
 656 0014 9047     		blx	r2
 657              	.LVL25:
 658              	.L67:
 659              		.loc 1 271 3 view .LVU248
 660              		.loc 1 271 3 view .LVU249
 661              		.loc 1 271 3 view .LVU250
 662              		.loc 1 271 3 view .LVU251
 663              		.loc 1 271 3 view .LVU252
 664              		.loc 1 272 1 is_stmt 0 view .LVU253
 665 0016 BDE80840 		pop	{r3, lr}
 666              		.cfi_restore 14
 667              		.cfi_restore 3
 668              		.cfi_def_cfa_offset 0
 669              		.loc 1 271 3 view .LVU254
 670 001a FFF7FEBF 		b	_port_irq_epilogue
 671              	.LVL26:
 672              	.L73:
 673 001e 00BF     		.align	2
 674              	.L72:
 675 0020 00640240 		.word	1073898496
 676 0024 00000000 		.word	.LANCHOR0
 677              		.cfi_endproc
 678              	.LFE285:
 679              		.size	Vector120, .-Vector120
 680              		.section	.text.Vector124,"ax",%progbits
 681              		.align	1
 682              		.p2align 4,,15
 683              		.global	Vector124
 684              		.syntax unified
ARM GAS  /tmp/ccbqudvp.s 			page 13


 685              		.thumb
 686              		.thumb_func
 687              		.fpu softvfp
 688              		.type	Vector124, %function
 689              	Vector124:
 690              	.LFB286:
 691              		.loc 1 279 42 is_stmt 1 view -0
 692              		.cfi_startproc
 693              		@ args = 0, pretend = 0, frame = 0
 694              		@ frame_needed = 0, uses_anonymous_args = 0
 695              		.loc 1 280 3 view .LVU256
 696              		.loc 1 282 3 view .LVU257
 697              		.loc 1 282 3 view .LVU258
 698              		.loc 1 282 3 view .LVU259
 699              		.loc 1 282 3 view .LVU260
 700              		.loc 1 282 3 view .LVU261
 701              		.loc 1 282 22 view .LVU262
 702              		.loc 1 284 3 view .LVU263
 703              		.loc 1 284 16 is_stmt 0 view .LVU264
 704 0000 084B     		ldr	r3, .L80
 705              		.loc 1 286 23 view .LVU265
 706 0002 0948     		ldr	r0, .L80+4
 707              		.loc 1 284 16 view .LVU266
 708 0004 1968     		ldr	r1, [r3]
 709              		.loc 1 286 23 view .LVU267
 710 0006 826C     		ldr	r2, [r0, #72]
 711              		.loc 1 284 23 view .LVU268
 712 0008 8909     		lsrs	r1, r1, #6
 713              		.loc 1 284 9 view .LVU269
 714 000a 01F03D01 		and	r1, r1, #61
 715              	.LVL27:
 716              		.loc 1 285 3 is_stmt 1 view .LVU270
 717              		.loc 1 279 42 is_stmt 0 view .LVU271
 718 000e 10B5     		push	{r4, lr}
 719              		.cfi_def_cfa_offset 8
 720              		.cfi_offset 4, -8
 721              		.cfi_offset 14, -4
 722              		.loc 1 285 23 view .LVU272
 723 0010 8C01     		lsls	r4, r1, #6
 724              		.loc 1 285 15 view .LVU273
 725 0012 9C60     		str	r4, [r3, #8]
 726              		.loc 1 286 3 is_stmt 1 view .LVU274
 727              		.loc 1 286 6 is_stmt 0 view .LVU275
 728 0014 0AB1     		cbz	r2, .L75
 729              		.loc 1 287 5 is_stmt 1 view .LVU276
 730 0016 C06C     		ldr	r0, [r0, #76]
 731 0018 9047     		blx	r2
 732              	.LVL28:
 733              	.L75:
 734              		.loc 1 289 3 view .LVU277
 735              		.loc 1 289 3 view .LVU278
 736              		.loc 1 289 3 view .LVU279
 737              		.loc 1 289 3 view .LVU280
 738              		.loc 1 289 3 view .LVU281
 739              		.loc 1 290 1 is_stmt 0 view .LVU282
 740 001a BDE81040 		pop	{r4, lr}
 741              		.cfi_restore 14
ARM GAS  /tmp/ccbqudvp.s 			page 14


 742              		.cfi_restore 4
 743              		.cfi_def_cfa_offset 0
 744              		.loc 1 289 3 view .LVU283
 745 001e FFF7FEBF 		b	_port_irq_epilogue
 746              	.LVL29:
 747              	.L81:
 748 0022 00BF     		.align	2
 749              	.L80:
 750 0024 00640240 		.word	1073898496
 751 0028 00000000 		.word	.LANCHOR0
 752              		.cfi_endproc
 753              	.LFE286:
 754              		.size	Vector124, .-Vector124
 755              		.section	.text.Vector128,"ax",%progbits
 756              		.align	1
 757              		.p2align 4,,15
 758              		.global	Vector128
 759              		.syntax unified
 760              		.thumb
 761              		.thumb_func
 762              		.fpu softvfp
 763              		.type	Vector128, %function
 764              	Vector128:
 765              	.LFB287:
 766              		.loc 1 297 42 is_stmt 1 view -0
 767              		.cfi_startproc
 768              		@ args = 0, pretend = 0, frame = 0
 769              		@ frame_needed = 0, uses_anonymous_args = 0
 770              		.loc 1 298 3 view .LVU285
 771              		.loc 1 300 3 view .LVU286
 772              		.loc 1 300 3 view .LVU287
 773              		.loc 1 300 3 view .LVU288
 774              		.loc 1 300 3 view .LVU289
 775              		.loc 1 300 3 view .LVU290
 776              		.loc 1 300 22 view .LVU291
 777              		.loc 1 302 3 view .LVU292
 778              		.loc 1 302 16 is_stmt 0 view .LVU293
 779 0000 084B     		ldr	r3, .L88
 780              		.loc 1 304 24 view .LVU294
 781 0002 0948     		ldr	r0, .L88+4
 782              		.loc 1 302 16 view .LVU295
 783 0004 1968     		ldr	r1, [r3]
 784              		.loc 1 304 24 view .LVU296
 785 0006 026D     		ldr	r2, [r0, #80]
 786              		.loc 1 302 23 view .LVU297
 787 0008 090C     		lsrs	r1, r1, #16
 788              		.loc 1 302 9 view .LVU298
 789 000a 01F03D01 		and	r1, r1, #61
 790              	.LVL30:
 791              		.loc 1 303 3 is_stmt 1 view .LVU299
 792              		.loc 1 297 42 is_stmt 0 view .LVU300
 793 000e 10B5     		push	{r4, lr}
 794              		.cfi_def_cfa_offset 8
 795              		.cfi_offset 4, -8
 796              		.cfi_offset 14, -4
 797              		.loc 1 303 23 view .LVU301
 798 0010 0C04     		lsls	r4, r1, #16
ARM GAS  /tmp/ccbqudvp.s 			page 15


 799              		.loc 1 303 15 view .LVU302
 800 0012 9C60     		str	r4, [r3, #8]
 801              		.loc 1 304 3 is_stmt 1 view .LVU303
 802              		.loc 1 304 6 is_stmt 0 view .LVU304
 803 0014 0AB1     		cbz	r2, .L83
 804              		.loc 1 305 5 is_stmt 1 view .LVU305
 805 0016 406D     		ldr	r0, [r0, #84]
 806 0018 9047     		blx	r2
 807              	.LVL31:
 808              	.L83:
 809              		.loc 1 307 3 view .LVU306
 810              		.loc 1 307 3 view .LVU307
 811              		.loc 1 307 3 view .LVU308
 812              		.loc 1 307 3 view .LVU309
 813              		.loc 1 307 3 view .LVU310
 814              		.loc 1 308 1 is_stmt 0 view .LVU311
 815 001a BDE81040 		pop	{r4, lr}
 816              		.cfi_restore 14
 817              		.cfi_restore 4
 818              		.cfi_def_cfa_offset 0
 819              		.loc 1 307 3 view .LVU312
 820 001e FFF7FEBF 		b	_port_irq_epilogue
 821              	.LVL32:
 822              	.L89:
 823 0022 00BF     		.align	2
 824              	.L88:
 825 0024 00640240 		.word	1073898496
 826 0028 00000000 		.word	.LANCHOR0
 827              		.cfi_endproc
 828              	.LFE287:
 829              		.size	Vector128, .-Vector128
 830              		.section	.text.Vector12C,"ax",%progbits
 831              		.align	1
 832              		.p2align 4,,15
 833              		.global	Vector12C
 834              		.syntax unified
 835              		.thumb
 836              		.thumb_func
 837              		.fpu softvfp
 838              		.type	Vector12C, %function
 839              	Vector12C:
 840              	.LFB288:
 841              		.loc 1 315 42 is_stmt 1 view -0
 842              		.cfi_startproc
 843              		@ args = 0, pretend = 0, frame = 0
 844              		@ frame_needed = 0, uses_anonymous_args = 0
 845              		.loc 1 316 3 view .LVU314
 846              		.loc 1 318 3 view .LVU315
 847              		.loc 1 318 3 view .LVU316
 848              		.loc 1 318 3 view .LVU317
 849              		.loc 1 318 3 view .LVU318
 850              		.loc 1 318 3 view .LVU319
 851              		.loc 1 318 22 view .LVU320
 852              		.loc 1 320 3 view .LVU321
 853              		.loc 1 320 16 is_stmt 0 view .LVU322
 854 0000 084B     		ldr	r3, .L96
 855              		.loc 1 322 24 view .LVU323
ARM GAS  /tmp/ccbqudvp.s 			page 16


 856 0002 0948     		ldr	r0, .L96+4
 857              		.loc 1 320 16 view .LVU324
 858 0004 1968     		ldr	r1, [r3]
 859              		.loc 1 322 24 view .LVU325
 860 0006 826D     		ldr	r2, [r0, #88]
 861              		.loc 1 320 23 view .LVU326
 862 0008 890D     		lsrs	r1, r1, #22
 863              		.loc 1 320 9 view .LVU327
 864 000a 01F03D01 		and	r1, r1, #61
 865              	.LVL33:
 866              		.loc 1 321 3 is_stmt 1 view .LVU328
 867              		.loc 1 315 42 is_stmt 0 view .LVU329
 868 000e 10B5     		push	{r4, lr}
 869              		.cfi_def_cfa_offset 8
 870              		.cfi_offset 4, -8
 871              		.cfi_offset 14, -4
 872              		.loc 1 321 23 view .LVU330
 873 0010 8C05     		lsls	r4, r1, #22
 874              		.loc 1 321 15 view .LVU331
 875 0012 9C60     		str	r4, [r3, #8]
 876              		.loc 1 322 3 is_stmt 1 view .LVU332
 877              		.loc 1 322 6 is_stmt 0 view .LVU333
 878 0014 0AB1     		cbz	r2, .L91
 879              		.loc 1 323 5 is_stmt 1 view .LVU334
 880 0016 C06D     		ldr	r0, [r0, #92]
 881 0018 9047     		blx	r2
 882              	.LVL34:
 883              	.L91:
 884              		.loc 1 325 3 view .LVU335
 885              		.loc 1 325 3 view .LVU336
 886              		.loc 1 325 3 view .LVU337
 887              		.loc 1 325 3 view .LVU338
 888              		.loc 1 325 3 view .LVU339
 889              		.loc 1 326 1 is_stmt 0 view .LVU340
 890 001a BDE81040 		pop	{r4, lr}
 891              		.cfi_restore 14
 892              		.cfi_restore 4
 893              		.cfi_def_cfa_offset 0
 894              		.loc 1 325 3 view .LVU341
 895 001e FFF7FEBF 		b	_port_irq_epilogue
 896              	.LVL35:
 897              	.L97:
 898 0022 00BF     		.align	2
 899              	.L96:
 900 0024 00640240 		.word	1073898496
 901 0028 00000000 		.word	.LANCHOR0
 902              		.cfi_endproc
 903              	.LFE288:
 904              		.size	Vector12C, .-Vector12C
 905              		.section	.text.Vector130,"ax",%progbits
 906              		.align	1
 907              		.p2align 4,,15
 908              		.global	Vector130
 909              		.syntax unified
 910              		.thumb
 911              		.thumb_func
 912              		.fpu softvfp
ARM GAS  /tmp/ccbqudvp.s 			page 17


 913              		.type	Vector130, %function
 914              	Vector130:
 915              	.LFB289:
 916              		.loc 1 333 42 is_stmt 1 view -0
 917              		.cfi_startproc
 918              		@ args = 0, pretend = 0, frame = 0
 919              		@ frame_needed = 0, uses_anonymous_args = 0
 920              		.loc 1 334 3 view .LVU343
 921              		.loc 1 336 3 view .LVU344
 922              		.loc 1 336 3 view .LVU345
 923              		.loc 1 336 3 view .LVU346
 924              		.loc 1 336 3 view .LVU347
 925              		.loc 1 336 3 view .LVU348
 926              		.loc 1 336 22 view .LVU349
 927              		.loc 1 338 3 view .LVU350
 928              		.loc 1 333 42 is_stmt 0 view .LVU351
 929 0000 08B5     		push	{r3, lr}
 930              		.cfi_def_cfa_offset 8
 931              		.cfi_offset 3, -8
 932              		.cfi_offset 14, -4
 933              		.loc 1 338 23 view .LVU352
 934 0002 074B     		ldr	r3, .L104
 935              		.loc 1 340 24 view .LVU353
 936 0004 0748     		ldr	r0, .L104+4
 937              		.loc 1 338 23 view .LVU354
 938 0006 5968     		ldr	r1, [r3, #4]
 939              		.loc 1 340 24 view .LVU355
 940 0008 026E     		ldr	r2, [r0, #96]
 941              		.loc 1 338 9 view .LVU356
 942 000a 01F03D01 		and	r1, r1, #61
 943              	.LVL36:
 944              		.loc 1 339 3 is_stmt 1 view .LVU357
 945              		.loc 1 339 15 is_stmt 0 view .LVU358
 946 000e D960     		str	r1, [r3, #12]
 947              		.loc 1 340 3 is_stmt 1 view .LVU359
 948              		.loc 1 340 6 is_stmt 0 view .LVU360
 949 0010 0AB1     		cbz	r2, .L99
 950              		.loc 1 341 5 is_stmt 1 view .LVU361
 951 0012 406E     		ldr	r0, [r0, #100]
 952 0014 9047     		blx	r2
 953              	.LVL37:
 954              	.L99:
 955              		.loc 1 343 3 view .LVU362
 956              		.loc 1 343 3 view .LVU363
 957              		.loc 1 343 3 view .LVU364
 958              		.loc 1 343 3 view .LVU365
 959              		.loc 1 343 3 view .LVU366
 960              		.loc 1 344 1 is_stmt 0 view .LVU367
 961 0016 BDE80840 		pop	{r3, lr}
 962              		.cfi_restore 14
 963              		.cfi_restore 3
 964              		.cfi_def_cfa_offset 0
 965              		.loc 1 343 3 view .LVU368
 966 001a FFF7FEBF 		b	_port_irq_epilogue
 967              	.LVL38:
 968              	.L105:
 969 001e 00BF     		.align	2
ARM GAS  /tmp/ccbqudvp.s 			page 18


 970              	.L104:
 971 0020 00640240 		.word	1073898496
 972 0024 00000000 		.word	.LANCHOR0
 973              		.cfi_endproc
 974              	.LFE289:
 975              		.size	Vector130, .-Vector130
 976              		.section	.text.Vector150,"ax",%progbits
 977              		.align	1
 978              		.p2align 4,,15
 979              		.global	Vector150
 980              		.syntax unified
 981              		.thumb
 982              		.thumb_func
 983              		.fpu softvfp
 984              		.type	Vector150, %function
 985              	Vector150:
 986              	.LFB290:
 987              		.loc 1 351 42 is_stmt 1 view -0
 988              		.cfi_startproc
 989              		@ args = 0, pretend = 0, frame = 0
 990              		@ frame_needed = 0, uses_anonymous_args = 0
 991              		.loc 1 352 3 view .LVU370
 992              		.loc 1 354 3 view .LVU371
 993              		.loc 1 354 3 view .LVU372
 994              		.loc 1 354 3 view .LVU373
 995              		.loc 1 354 3 view .LVU374
 996              		.loc 1 354 3 view .LVU375
 997              		.loc 1 354 22 view .LVU376
 998              		.loc 1 356 3 view .LVU377
 999              		.loc 1 356 16 is_stmt 0 view .LVU378
 1000 0000 084B     		ldr	r3, .L112
 1001              		.loc 1 358 24 view .LVU379
 1002 0002 0948     		ldr	r0, .L112+4
 1003              		.loc 1 356 16 view .LVU380
 1004 0004 5968     		ldr	r1, [r3, #4]
 1005              		.loc 1 358 24 view .LVU381
 1006 0006 826E     		ldr	r2, [r0, #104]
 1007              		.loc 1 356 23 view .LVU382
 1008 0008 8909     		lsrs	r1, r1, #6
 1009              		.loc 1 356 9 view .LVU383
 1010 000a 01F03D01 		and	r1, r1, #61
 1011              	.LVL39:
 1012              		.loc 1 357 3 is_stmt 1 view .LVU384
 1013              		.loc 1 351 42 is_stmt 0 view .LVU385
 1014 000e 10B5     		push	{r4, lr}
 1015              		.cfi_def_cfa_offset 8
 1016              		.cfi_offset 4, -8
 1017              		.cfi_offset 14, -4
 1018              		.loc 1 357 23 view .LVU386
 1019 0010 8C01     		lsls	r4, r1, #6
 1020              		.loc 1 357 15 view .LVU387
 1021 0012 DC60     		str	r4, [r3, #12]
 1022              		.loc 1 358 3 is_stmt 1 view .LVU388
 1023              		.loc 1 358 6 is_stmt 0 view .LVU389
 1024 0014 0AB1     		cbz	r2, .L107
 1025              		.loc 1 359 5 is_stmt 1 view .LVU390
 1026 0016 C06E     		ldr	r0, [r0, #108]
ARM GAS  /tmp/ccbqudvp.s 			page 19


 1027 0018 9047     		blx	r2
 1028              	.LVL40:
 1029              	.L107:
 1030              		.loc 1 361 3 view .LVU391
 1031              		.loc 1 361 3 view .LVU392
 1032              		.loc 1 361 3 view .LVU393
 1033              		.loc 1 361 3 view .LVU394
 1034              		.loc 1 361 3 view .LVU395
 1035              		.loc 1 362 1 is_stmt 0 view .LVU396
 1036 001a BDE81040 		pop	{r4, lr}
 1037              		.cfi_restore 14
 1038              		.cfi_restore 4
 1039              		.cfi_def_cfa_offset 0
 1040              		.loc 1 361 3 view .LVU397
 1041 001e FFF7FEBF 		b	_port_irq_epilogue
 1042              	.LVL41:
 1043              	.L113:
 1044 0022 00BF     		.align	2
 1045              	.L112:
 1046 0024 00640240 		.word	1073898496
 1047 0028 00000000 		.word	.LANCHOR0
 1048              		.cfi_endproc
 1049              	.LFE290:
 1050              		.size	Vector150, .-Vector150
 1051              		.section	.text.Vector154,"ax",%progbits
 1052              		.align	1
 1053              		.p2align 4,,15
 1054              		.global	Vector154
 1055              		.syntax unified
 1056              		.thumb
 1057              		.thumb_func
 1058              		.fpu softvfp
 1059              		.type	Vector154, %function
 1060              	Vector154:
 1061              	.LFB291:
 1062              		.loc 1 369 42 is_stmt 1 view -0
 1063              		.cfi_startproc
 1064              		@ args = 0, pretend = 0, frame = 0
 1065              		@ frame_needed = 0, uses_anonymous_args = 0
 1066              		.loc 1 370 3 view .LVU399
 1067              		.loc 1 372 3 view .LVU400
 1068              		.loc 1 372 3 view .LVU401
 1069              		.loc 1 372 3 view .LVU402
 1070              		.loc 1 372 3 view .LVU403
 1071              		.loc 1 372 3 view .LVU404
 1072              		.loc 1 372 22 view .LVU405
 1073              		.loc 1 374 3 view .LVU406
 1074              		.loc 1 374 16 is_stmt 0 view .LVU407
 1075 0000 084B     		ldr	r3, .L120
 1076              		.loc 1 376 24 view .LVU408
 1077 0002 0948     		ldr	r0, .L120+4
 1078              		.loc 1 374 16 view .LVU409
 1079 0004 5968     		ldr	r1, [r3, #4]
 1080              		.loc 1 376 24 view .LVU410
 1081 0006 026F     		ldr	r2, [r0, #112]
 1082              		.loc 1 374 23 view .LVU411
 1083 0008 090C     		lsrs	r1, r1, #16
ARM GAS  /tmp/ccbqudvp.s 			page 20


 1084              		.loc 1 374 9 view .LVU412
 1085 000a 01F03D01 		and	r1, r1, #61
 1086              	.LVL42:
 1087              		.loc 1 375 3 is_stmt 1 view .LVU413
 1088              		.loc 1 369 42 is_stmt 0 view .LVU414
 1089 000e 10B5     		push	{r4, lr}
 1090              		.cfi_def_cfa_offset 8
 1091              		.cfi_offset 4, -8
 1092              		.cfi_offset 14, -4
 1093              		.loc 1 375 23 view .LVU415
 1094 0010 0C04     		lsls	r4, r1, #16
 1095              		.loc 1 375 15 view .LVU416
 1096 0012 DC60     		str	r4, [r3, #12]
 1097              		.loc 1 376 3 is_stmt 1 view .LVU417
 1098              		.loc 1 376 6 is_stmt 0 view .LVU418
 1099 0014 0AB1     		cbz	r2, .L115
 1100              		.loc 1 377 5 is_stmt 1 view .LVU419
 1101 0016 406F     		ldr	r0, [r0, #116]
 1102 0018 9047     		blx	r2
 1103              	.LVL43:
 1104              	.L115:
 1105              		.loc 1 379 3 view .LVU420
 1106              		.loc 1 379 3 view .LVU421
 1107              		.loc 1 379 3 view .LVU422
 1108              		.loc 1 379 3 view .LVU423
 1109              		.loc 1 379 3 view .LVU424
 1110              		.loc 1 380 1 is_stmt 0 view .LVU425
 1111 001a BDE81040 		pop	{r4, lr}
 1112              		.cfi_restore 14
 1113              		.cfi_restore 4
 1114              		.cfi_def_cfa_offset 0
 1115              		.loc 1 379 3 view .LVU426
 1116 001e FFF7FEBF 		b	_port_irq_epilogue
 1117              	.LVL44:
 1118              	.L121:
 1119 0022 00BF     		.align	2
 1120              	.L120:
 1121 0024 00640240 		.word	1073898496
 1122 0028 00000000 		.word	.LANCHOR0
 1123              		.cfi_endproc
 1124              	.LFE291:
 1125              		.size	Vector154, .-Vector154
 1126              		.section	.text.Vector158,"ax",%progbits
 1127              		.align	1
 1128              		.p2align 4,,15
 1129              		.global	Vector158
 1130              		.syntax unified
 1131              		.thumb
 1132              		.thumb_func
 1133              		.fpu softvfp
 1134              		.type	Vector158, %function
 1135              	Vector158:
 1136              	.LFB292:
 1137              		.loc 1 387 42 is_stmt 1 view -0
 1138              		.cfi_startproc
 1139              		@ args = 0, pretend = 0, frame = 0
 1140              		@ frame_needed = 0, uses_anonymous_args = 0
ARM GAS  /tmp/ccbqudvp.s 			page 21


 1141              		.loc 1 388 3 view .LVU428
 1142              		.loc 1 390 3 view .LVU429
 1143              		.loc 1 390 3 view .LVU430
 1144              		.loc 1 390 3 view .LVU431
 1145              		.loc 1 390 3 view .LVU432
 1146              		.loc 1 390 3 view .LVU433
 1147              		.loc 1 390 22 view .LVU434
 1148              		.loc 1 392 3 view .LVU435
 1149              		.loc 1 392 16 is_stmt 0 view .LVU436
 1150 0000 084B     		ldr	r3, .L128
 1151              		.loc 1 394 24 view .LVU437
 1152 0002 0948     		ldr	r0, .L128+4
 1153              		.loc 1 392 16 view .LVU438
 1154 0004 5968     		ldr	r1, [r3, #4]
 1155              		.loc 1 394 24 view .LVU439
 1156 0006 826F     		ldr	r2, [r0, #120]
 1157              		.loc 1 392 23 view .LVU440
 1158 0008 890D     		lsrs	r1, r1, #22
 1159              		.loc 1 392 9 view .LVU441
 1160 000a 01F03D01 		and	r1, r1, #61
 1161              	.LVL45:
 1162              		.loc 1 393 3 is_stmt 1 view .LVU442
 1163              		.loc 1 387 42 is_stmt 0 view .LVU443
 1164 000e 10B5     		push	{r4, lr}
 1165              		.cfi_def_cfa_offset 8
 1166              		.cfi_offset 4, -8
 1167              		.cfi_offset 14, -4
 1168              		.loc 1 393 23 view .LVU444
 1169 0010 8C05     		lsls	r4, r1, #22
 1170              		.loc 1 393 15 view .LVU445
 1171 0012 DC60     		str	r4, [r3, #12]
 1172              		.loc 1 394 3 is_stmt 1 view .LVU446
 1173              		.loc 1 394 6 is_stmt 0 view .LVU447
 1174 0014 0AB1     		cbz	r2, .L123
 1175              		.loc 1 395 5 is_stmt 1 view .LVU448
 1176 0016 C06F     		ldr	r0, [r0, #124]
 1177 0018 9047     		blx	r2
 1178              	.LVL46:
 1179              	.L123:
 1180              		.loc 1 397 3 view .LVU449
 1181              		.loc 1 397 3 view .LVU450
 1182              		.loc 1 397 3 view .LVU451
 1183              		.loc 1 397 3 view .LVU452
 1184              		.loc 1 397 3 view .LVU453
 1185              		.loc 1 398 1 is_stmt 0 view .LVU454
 1186 001a BDE81040 		pop	{r4, lr}
 1187              		.cfi_restore 14
 1188              		.cfi_restore 4
 1189              		.cfi_def_cfa_offset 0
 1190              		.loc 1 397 3 view .LVU455
 1191 001e FFF7FEBF 		b	_port_irq_epilogue
 1192              	.LVL47:
 1193              	.L129:
 1194 0022 00BF     		.align	2
 1195              	.L128:
 1196 0024 00640240 		.word	1073898496
 1197 0028 00000000 		.word	.LANCHOR0
ARM GAS  /tmp/ccbqudvp.s 			page 22


 1198              		.cfi_endproc
 1199              	.LFE292:
 1200              		.size	Vector158, .-Vector158
 1201              		.section	.text.dmaInit,"ax",%progbits
 1202              		.align	1
 1203              		.p2align 4,,15
 1204              		.global	dmaInit
 1205              		.syntax unified
 1206              		.thumb
 1207              		.thumb_func
 1208              		.fpu softvfp
 1209              		.type	dmaInit, %function
 1210              	dmaInit:
 1211              	.LFB293:
 1212              		.loc 1 409 20 is_stmt 1 view -0
 1213              		.cfi_startproc
 1214              		@ args = 0, pretend = 0, frame = 0
 1215              		@ frame_needed = 0, uses_anonymous_args = 0
 1216              		@ link register save eliminated.
 1217              		.loc 1 410 3 view .LVU457
 1218              		.loc 1 412 3 view .LVU458
 1219              		.loc 1 409 20 is_stmt 0 view .LVU459
 1220 0000 10B4     		push	{r4}
 1221              		.cfi_def_cfa_offset 4
 1222              		.cfi_offset 4, -4
 1223              		.loc 1 412 20 view .LVU460
 1224 0002 0E4C     		ldr	r4, .L136
 1225 0004 0E4A     		ldr	r2, .L136+4
 1226 0006 0F48     		ldr	r0, .L136+8
 1227 0008 0021     		movs	r1, #0
 1228 000a 2160     		str	r1, [r4]
 1229              		.loc 1 413 3 is_stmt 1 view .LVU461
 1230              	.LVL48:
 1231              		.loc 1 413 16 view .LVU462
 1232              		.loc 1 413 10 is_stmt 0 view .LVU463
 1233 000c 0B46     		mov	r3, r1
 1234 000e 0E4C     		ldr	r4, .L136+12
 1235 0010 01E0     		b	.L132
 1236              	.LVL49:
 1237              	.L135:
 1238              		.loc 1 414 26 view .LVU464
 1239 0012 52F80C0C 		ldr	r0, [r2, #-12]
 1240              	.LVL50:
 1241              	.L132:
 1242              		.loc 1 414 5 is_stmt 1 discriminator 3 view .LVU465
 1243              		.loc 1 414 38 is_stmt 0 discriminator 3 view .LVU466
 1244 0016 0160     		str	r1, [r0]
 1245              		.loc 1 415 5 is_stmt 1 discriminator 3 view .LVU467
 1246              		.loc 1 415 31 is_stmt 0 discriminator 3 view .LVU468
 1247 0018 44F83310 		str	r1, [r4, r3, lsl #3]
 1248              		.loc 1 413 39 is_stmt 1 discriminator 3 view .LVU469
 1249              		.loc 1 413 40 is_stmt 0 discriminator 3 view .LVU470
 1250 001c 0133     		adds	r3, r3, #1
 1251              	.LVL51:
 1252              		.loc 1 413 16 is_stmt 1 discriminator 3 view .LVU471
 1253              		.loc 1 413 3 is_stmt 0 discriminator 3 view .LVU472
 1254 001e 102B     		cmp	r3, #16
ARM GAS  /tmp/ccbqudvp.s 			page 23


 1255 0020 02F10C02 		add	r2, r2, #12
 1256 0024 F5D1     		bne	.L135
 1257              		.loc 1 417 3 is_stmt 1 view .LVU473
 1258              		.loc 1 417 15 is_stmt 0 view .LVU474
 1259 0026 0949     		ldr	r1, .L136+16
 1260              		.loc 1 419 15 view .LVU475
 1261 0028 094A     		ldr	r2, .L136+20
 1262              		.loc 1 421 1 view .LVU476
 1263 002a 10BC     		pop	{r4}
 1264              		.cfi_restore 4
 1265              		.cfi_def_cfa_offset 0
 1266              		.loc 1 417 15 view .LVU477
 1267 002c 4FF0FF33 		mov	r3, #-1
 1268              	.LVL52:
 1269              		.loc 1 417 15 view .LVU478
 1270 0030 8B60     		str	r3, [r1, #8]
 1271              		.loc 1 418 3 is_stmt 1 view .LVU479
 1272              		.loc 1 418 15 is_stmt 0 view .LVU480
 1273 0032 CB60     		str	r3, [r1, #12]
 1274              		.loc 1 419 3 is_stmt 1 view .LVU481
 1275              		.loc 1 419 15 is_stmt 0 view .LVU482
 1276 0034 9360     		str	r3, [r2, #8]
 1277              		.loc 1 420 3 is_stmt 1 view .LVU483
 1278              		.loc 1 420 15 is_stmt 0 view .LVU484
 1279 0036 D360     		str	r3, [r2, #12]
 1280              		.loc 1 421 1 view .LVU485
 1281 0038 7047     		bx	lr
 1282              	.L137:
 1283 003a 00BF     		.align	2
 1284              	.L136:
 1285 003c 00000000 		.word	.LANCHOR1
 1286 0040 0C000000 		.word	.LANCHOR2+12
 1287 0044 10600240 		.word	1073897488
 1288 0048 00000000 		.word	.LANCHOR0
 1289 004c 00600240 		.word	1073897472
 1290 0050 00640240 		.word	1073898496
 1291              		.cfi_endproc
 1292              	.LFE293:
 1293              		.size	dmaInit, .-dmaInit
 1294              		.section	.text.dmaStreamAllocate,"ax",%progbits
 1295              		.align	1
 1296              		.p2align 4,,15
 1297              		.global	dmaStreamAllocate
 1298              		.syntax unified
 1299              		.thumb
 1300              		.thumb_func
 1301              		.fpu softvfp
 1302              		.type	dmaStreamAllocate, %function
 1303              	dmaStreamAllocate:
 1304              	.LVL53:
 1305              	.LFB294:
 1306              		.loc 1 450 37 is_stmt 1 view -0
 1307              		.cfi_startproc
 1308              		@ args = 0, pretend = 0, frame = 0
 1309              		@ frame_needed = 0, uses_anonymous_args = 0
 1310              		.loc 1 452 3 view .LVU487
 1311              		.loc 1 452 3 view .LVU488
ARM GAS  /tmp/ccbqudvp.s 			page 24


 1312              		.loc 1 452 3 view .LVU489
 1313              		.loc 1 455 3 view .LVU490
 1314              		.loc 1 450 37 is_stmt 0 view .LVU491
 1315 0000 F8B5     		push	{r3, r4, r5, r6, r7, lr}
 1316              		.cfi_def_cfa_offset 24
 1317              		.cfi_offset 3, -24
 1318              		.cfi_offset 4, -20
 1319              		.cfi_offset 5, -16
 1320              		.cfi_offset 6, -12
 1321              		.cfi_offset 7, -8
 1322              		.cfi_offset 14, -4
 1323              		.loc 1 455 25 view .LVU492
 1324 0002 1E4E     		ldr	r6, .L154
 1325              		.loc 1 455 40 view .LVU493
 1326 0004 90F809C0 		ldrb	ip, [r0, #9]	@ zero_extendqisi2
 1327              		.loc 1 455 25 view .LVU494
 1328 0008 3768     		ldr	r7, [r6]
 1329              		.loc 1 455 31 view .LVU495
 1330 000a 0124     		movs	r4, #1
 1331 000c 04FA0CF5 		lsl	r5, r4, ip
 1332              		.loc 1 455 6 view .LVU496
 1333 0010 3D42     		tst	r5, r7
 1334 0012 30D1     		bne	.L143
 1335              		.loc 1 459 3 is_stmt 1 view .LVU497
 1336              		.loc 1 459 46 is_stmt 0 view .LVU498
 1337 0014 1A4C     		ldr	r4, .L154+4
 1338 0016 44F83C20 		str	r2, [r4, ip, lsl #3]
 1339              		.loc 1 460 3 is_stmt 1 view .LVU499
 1340              		.loc 1 460 46 is_stmt 0 view .LVU500
 1341 001a 04EBCC04 		add	r4, r4, ip, lsl #3
 1342              		.loc 1 461 20 view .LVU501
 1343 001e 3D43     		orrs	r5, r5, r7
 1344              		.loc 1 460 46 view .LVU502
 1345 0020 6360     		str	r3, [r4, #4]
 1346              		.loc 1 461 3 is_stmt 1 view .LVU503
 1347              		.loc 1 464 3 view .LVU504
 1348              		.loc 1 464 25 is_stmt 0 view .LVU505
 1349 0022 EBB2     		uxtb	r3, r5
 1350              	.LVL54:
 1351              		.loc 1 461 20 view .LVU506
 1352 0024 3560     		str	r5, [r6]
 1353              		.loc 1 464 6 view .LVU507
 1354 0026 23B1     		cbz	r3, .L140
 1355              		.loc 1 465 5 is_stmt 1 view .LVU508
 1356 0028 164C     		ldr	r4, .L154+8
 1357              	.LVL55:
 1358              		.loc 1 465 5 is_stmt 0 view .LVU509
 1359 002a 236B     		ldr	r3, [r4, #48]
 1360 002c 43F40013 		orr	r3, r3, #2097152
 1361 0030 2363     		str	r3, [r4, #48]
 1362              		.loc 1 465 5 is_stmt 1 view .LVU510
 1363              	.L140:
 1364              		.loc 1 465 25 discriminator 3 view .LVU511
 1365              		.loc 1 467 3 discriminator 3 view .LVU512
 1366              		.loc 1 467 6 is_stmt 0 discriminator 3 view .LVU513
 1367 0032 15F47F4F 		tst	r5, #65280
 1368 0036 16D1     		bne	.L153
ARM GAS  /tmp/ccbqudvp.s 			page 25


 1369              	.L141:
 1370              		.loc 1 468 25 is_stmt 1 discriminator 3 view .LVU514
 1371              		.loc 1 472 3 discriminator 3 view .LVU515
 1372 0038 0568     		ldr	r5, [r0]
 1373 003a 2B68     		ldr	r3, [r5]
 1374 003c 23F01F03 		bic	r3, r3, #31
 1375 0040 2B60     		str	r3, [r5]
 1376              		.loc 1 472 3 discriminator 3 view .LVU516
 1377              	.L142:
 1378              		.loc 1 472 3 discriminator 2 view .LVU517
 1379              		.loc 1 472 3 discriminator 2 view .LVU518
 1380 0042 2C68     		ldr	r4, [r5]
 1381 0044 14F00104 		ands	r4, r4, #1
 1382 0048 FBD1     		bne	.L142
 1383              		.loc 1 472 3 discriminator 3 view .LVU519
 1384 004a 077A     		ldrb	r7, [r0, #8]	@ zero_extendqisi2
 1385 004c 4668     		ldr	r6, [r0, #4]
 1386 004e 3D23     		movs	r3, #61
 1387 0050 BB40     		lsls	r3, r3, r7
 1388 0052 3360     		str	r3, [r6]
 1389              		.loc 1 472 3 discriminator 3 view .LVU520
 1390              		.loc 1 472 27 discriminator 3 view .LVU521
 1391              		.loc 1 473 3 discriminator 3 view .LVU522
 1392              		.loc 1 474 23 is_stmt 0 discriminator 3 view .LVU523
 1393 0054 2123     		movs	r3, #33
 1394              		.loc 1 473 22 discriminator 3 view .LVU524
 1395 0056 2C60     		str	r4, [r5]
 1396              		.loc 1 474 3 is_stmt 1 discriminator 3 view .LVU525
 1397              		.loc 1 474 23 is_stmt 0 discriminator 3 view .LVU526
 1398 0058 6B61     		str	r3, [r5, #20]
 1399              		.loc 1 477 3 is_stmt 1 discriminator 3 view .LVU527
 1400              		.loc 1 477 6 is_stmt 0 discriminator 3 view .LVU528
 1401 005a 52B1     		cbz	r2, .L144
 1402              		.loc 1 478 5 is_stmt 1 view .LVU529
 1403 005c 807A     		ldrb	r0, [r0, #10]	@ zero_extendqisi2
 1404              	.LVL56:
 1405              		.loc 1 478 5 is_stmt 0 view .LVU530
 1406 005e FFF7FEFF 		bl	nvicEnableVector
 1407              	.LVL57:
 1408              		.loc 1 481 10 view .LVU531
 1409 0062 2046     		mov	r0, r4
 1410              		.loc 1 482 1 view .LVU532
 1411 0064 F8BD     		pop	{r3, r4, r5, r6, r7, pc}
 1412              	.LVL58:
 1413              	.L153:
 1414              		.loc 1 468 5 is_stmt 1 view .LVU533
 1415 0066 074C     		ldr	r4, .L154+8
 1416 0068 236B     		ldr	r3, [r4, #48]
 1417 006a 43F48003 		orr	r3, r3, #4194304
 1418 006e 2363     		str	r3, [r4, #48]
 1419              		.loc 1 468 5 view .LVU534
 1420 0070 E2E7     		b	.L141
 1421              	.L144:
 1422              		.loc 1 481 10 is_stmt 0 view .LVU535
 1423 0072 1046     		mov	r0, r2
 1424              	.LVL59:
 1425              		.loc 1 482 1 view .LVU536
ARM GAS  /tmp/ccbqudvp.s 			page 26


 1426 0074 F8BD     		pop	{r3, r4, r5, r6, r7, pc}
 1427              	.LVL60:
 1428              	.L143:
 1429              		.loc 1 456 12 view .LVU537
 1430 0076 2046     		mov	r0, r4
 1431              	.LVL61:
 1432              		.loc 1 482 1 view .LVU538
 1433 0078 F8BD     		pop	{r3, r4, r5, r6, r7, pc}
 1434              	.LVL62:
 1435              	.L155:
 1436              		.loc 1 482 1 view .LVU539
 1437 007a 00BF     		.align	2
 1438              	.L154:
 1439 007c 00000000 		.word	.LANCHOR1
 1440 0080 00000000 		.word	.LANCHOR0
 1441 0084 00380240 		.word	1073887232
 1442              		.cfi_endproc
 1443              	.LFE294:
 1444              		.size	dmaStreamAllocate, .-dmaStreamAllocate
 1445              		.section	.text.dmaStreamRelease,"ax",%progbits
 1446              		.align	1
 1447              		.p2align 4,,15
 1448              		.global	dmaStreamRelease
 1449              		.syntax unified
 1450              		.thumb
 1451              		.thumb_func
 1452              		.fpu softvfp
 1453              		.type	dmaStreamRelease, %function
 1454              	dmaStreamRelease:
 1455              	.LVL63:
 1456              	.LFB295:
 1457              		.loc 1 497 57 is_stmt 1 view -0
 1458              		.cfi_startproc
 1459              		@ args = 0, pretend = 0, frame = 0
 1460              		@ frame_needed = 0, uses_anonymous_args = 0
 1461              		.loc 1 499 3 view .LVU541
 1462              		.loc 1 499 3 view .LVU542
 1463              		.loc 1 499 3 view .LVU543
 1464              		.loc 1 502 3 view .LVU544
 1465              		.loc 1 502 3 view .LVU545
 1466              		.loc 1 502 3 view .LVU546
 1467              		.loc 1 506 3 view .LVU547
 1468              		.loc 1 497 57 is_stmt 0 view .LVU548
 1469 0000 10B5     		push	{r4, lr}
 1470              		.cfi_def_cfa_offset 8
 1471              		.cfi_offset 4, -8
 1472              		.cfi_offset 14, -4
 1473              		.loc 1 497 57 view .LVU549
 1474 0002 0446     		mov	r4, r0
 1475              		.loc 1 506 3 view .LVU550
 1476 0004 807A     		ldrb	r0, [r0, #10]	@ zero_extendqisi2
 1477              	.LVL64:
 1478              		.loc 1 506 3 view .LVU551
 1479 0006 FFF7FEFF 		bl	nvicDisableVector
 1480              	.LVL65:
 1481              		.loc 1 509 3 is_stmt 1 view .LVU552
 1482              		.loc 1 509 20 is_stmt 0 view .LVU553
ARM GAS  /tmp/ccbqudvp.s 			page 27


 1483 000a 0C49     		ldr	r1, .L160
 1484              		.loc 1 509 37 view .LVU554
 1485 000c 607A     		ldrb	r0, [r4, #9]	@ zero_extendqisi2
 1486              		.loc 1 509 20 view .LVU555
 1487 000e 0B68     		ldr	r3, [r1]
 1488              		.loc 1 509 28 view .LVU556
 1489 0010 0122     		movs	r2, #1
 1490 0012 8240     		lsls	r2, r2, r0
 1491              		.loc 1 509 20 view .LVU557
 1492 0014 23EA0203 		bic	r3, r3, r2
 1493              		.loc 1 512 25 view .LVU558
 1494 0018 DAB2     		uxtb	r2, r3
 1495              		.loc 1 509 20 view .LVU559
 1496 001a 0B60     		str	r3, [r1]
 1497              		.loc 1 512 3 is_stmt 1 view .LVU560
 1498              		.loc 1 512 6 is_stmt 0 view .LVU561
 1499 001c 22B9     		cbnz	r2, .L157
 1500              		.loc 1 513 5 is_stmt 1 view .LVU562
 1501 001e 0849     		ldr	r1, .L160+4
 1502 0020 0A6B     		ldr	r2, [r1, #48]
 1503 0022 22F40012 		bic	r2, r2, #2097152
 1504 0026 0A63     		str	r2, [r1, #48]
 1505              		.loc 1 513 5 view .LVU563
 1506              	.L157:
 1507              		.loc 1 513 26 discriminator 3 view .LVU564
 1508              		.loc 1 515 3 discriminator 3 view .LVU565
 1509              		.loc 1 515 6 is_stmt 0 discriminator 3 view .LVU566
 1510 0028 13F47F4F 		tst	r3, #65280
 1511 002c 04D1     		bne	.L156
 1512              		.loc 1 516 5 is_stmt 1 view .LVU567
 1513 002e 044A     		ldr	r2, .L160+4
 1514 0030 136B     		ldr	r3, [r2, #48]
 1515 0032 23F48003 		bic	r3, r3, #4194304
 1516 0036 1363     		str	r3, [r2, #48]
 1517              		.loc 1 516 5 view .LVU568
 1518              		.loc 1 516 26 view .LVU569
 1519              	.L156:
 1520              		.loc 1 518 1 is_stmt 0 view .LVU570
 1521 0038 10BD     		pop	{r4, pc}
 1522              	.LVL66:
 1523              	.L161:
 1524              		.loc 1 518 1 view .LVU571
 1525 003a 00BF     		.align	2
 1526              	.L160:
 1527 003c 00000000 		.word	.LANCHOR1
 1528 0040 00380240 		.word	1073887232
 1529              		.cfi_endproc
 1530              	.LFE295:
 1531              		.size	dmaStreamRelease, .-dmaStreamRelease
 1532              		.global	_stm32_dma_streams
 1533              		.section	.bss.dma_isr_redir,"aw",%nobits
 1534              		.align	2
 1535              		.set	.LANCHOR0,. + 0
 1536              		.type	dma_isr_redir, %object
 1537              		.size	dma_isr_redir, 128
 1538              	dma_isr_redir:
 1539 0000 00000000 		.space	128
ARM GAS  /tmp/ccbqudvp.s 			page 28


 1539      00000000 
 1539      00000000 
 1539      00000000 
 1539      00000000 
 1540              		.section	.bss.dma_streams_mask,"aw",%nobits
 1541              		.align	2
 1542              		.set	.LANCHOR1,. + 0
 1543              		.type	dma_streams_mask, %object
 1544              		.size	dma_streams_mask, 4
 1545              	dma_streams_mask:
 1546 0000 00000000 		.space	4
 1547              		.section	.rodata._stm32_dma_streams,"a"
 1548              		.align	2
 1549              		.set	.LANCHOR2,. + 0
 1550              		.type	_stm32_dma_streams, %object
 1551              		.size	_stm32_dma_streams, 192
 1552              	_stm32_dma_streams:
 1553 0000 10600240 		.word	1073897488
 1554 0004 08600240 		.word	1073897480
 1555 0008 00       		.byte	0
 1556 0009 00       		.byte	0
 1557 000a 0B       		.byte	11
 1558 000b 00       		.space	1
 1559 000c 28600240 		.word	1073897512
 1560 0010 08600240 		.word	1073897480
 1561 0014 06       		.byte	6
 1562 0015 01       		.byte	1
 1563 0016 0C       		.byte	12
 1564 0017 00       		.space	1
 1565 0018 40600240 		.word	1073897536
 1566 001c 08600240 		.word	1073897480
 1567 0020 10       		.byte	16
 1568 0021 02       		.byte	2
 1569 0022 0D       		.byte	13
 1570 0023 00       		.space	1
 1571 0024 58600240 		.word	1073897560
 1572 0028 08600240 		.word	1073897480
 1573 002c 16       		.byte	22
 1574 002d 03       		.byte	3
 1575 002e 0E       		.byte	14
 1576 002f 00       		.space	1
 1577 0030 70600240 		.word	1073897584
 1578 0034 0C600240 		.word	1073897484
 1579 0038 00       		.byte	0
 1580 0039 04       		.byte	4
 1581 003a 0F       		.byte	15
 1582 003b 00       		.space	1
 1583 003c 88600240 		.word	1073897608
 1584 0040 0C600240 		.word	1073897484
 1585 0044 06       		.byte	6
 1586 0045 05       		.byte	5
 1587 0046 10       		.byte	16
 1588 0047 00       		.space	1
 1589 0048 A0600240 		.word	1073897632
 1590 004c 0C600240 		.word	1073897484
 1591 0050 10       		.byte	16
 1592 0051 06       		.byte	6
ARM GAS  /tmp/ccbqudvp.s 			page 29


 1593 0052 11       		.byte	17
 1594 0053 00       		.space	1
 1595 0054 B8600240 		.word	1073897656
 1596 0058 0C600240 		.word	1073897484
 1597 005c 16       		.byte	22
 1598 005d 07       		.byte	7
 1599 005e 2F       		.byte	47
 1600 005f 00       		.space	1
 1601 0060 10640240 		.word	1073898512
 1602 0064 08640240 		.word	1073898504
 1603 0068 00       		.byte	0
 1604 0069 08       		.byte	8
 1605 006a 38       		.byte	56
 1606 006b 00       		.space	1
 1607 006c 28640240 		.word	1073898536
 1608 0070 08640240 		.word	1073898504
 1609 0074 06       		.byte	6
 1610 0075 09       		.byte	9
 1611 0076 39       		.byte	57
 1612 0077 00       		.space	1
 1613 0078 40640240 		.word	1073898560
 1614 007c 08640240 		.word	1073898504
 1615 0080 10       		.byte	16
 1616 0081 0A       		.byte	10
 1617 0082 3A       		.byte	58
 1618 0083 00       		.space	1
 1619 0084 58640240 		.word	1073898584
 1620 0088 08640240 		.word	1073898504
 1621 008c 16       		.byte	22
 1622 008d 0B       		.byte	11
 1623 008e 3B       		.byte	59
 1624 008f 00       		.space	1
 1625 0090 70640240 		.word	1073898608
 1626 0094 0C640240 		.word	1073898508
 1627 0098 00       		.byte	0
 1628 0099 0C       		.byte	12
 1629 009a 3C       		.byte	60
 1630 009b 00       		.space	1
 1631 009c 88640240 		.word	1073898632
 1632 00a0 0C640240 		.word	1073898508
 1633 00a4 06       		.byte	6
 1634 00a5 0D       		.byte	13
 1635 00a6 44       		.byte	68
 1636 00a7 00       		.space	1
 1637 00a8 A0640240 		.word	1073898656
 1638 00ac 0C640240 		.word	1073898508
 1639 00b0 10       		.byte	16
 1640 00b1 0E       		.byte	14
 1641 00b2 45       		.byte	69
 1642 00b3 00       		.space	1
 1643 00b4 B8640240 		.word	1073898680
 1644 00b8 0C640240 		.word	1073898508
 1645 00bc 16       		.byte	22
 1646 00bd 0F       		.byte	15
 1647 00be 46       		.byte	70
 1648 00bf 00       		.space	1
 1649              		.text
ARM GAS  /tmp/ccbqudvp.s 			page 30


 1650              	.Letext0:
 1651              		.file 2 "/usr/lib/gcc/arm-none-eabi/10.3.1/include/stdint.h"
 1652              		.file 3 "../../../os/common/ext/CMSIS/ST/STM32F4xx/stm32f407xx.h"
 1653              		.file 4 "../../../os/hal/ports/STM32/LLD/DMAv2/stm32_dma.h"
 1654              		.file 5 "../../../os/hal/ports/common/ARMCMx/nvic.h"
 1655              		.file 6 "../../../os/common/ports/ARMCMx/chcore_v7m.h"