ARM GAS  /tmp/ccbqudvp.s 			page 1


   1              		.cpu cortex-m4
   2              		.eabi_attribute 20, 1
   3              		.eabi_attribute 21, 1
   4              		.eabi_attribute 23, 3
   5              		.eabi_attribute 24, 1
   6              		.eabi_attribute 25, 1
   7              		.eabi_attribute 26, 1
   8              		.eabi_attribute 30, 2
   9              		.eabi_attribute 34, 1
  10              		.eabi_attribute 18, 4
  11              		.file	"stm32_dma.c"
  12              		.text
  13              	.Ltext0:
  14              		.cfi_sections	.debug_frame
  15              		.section	.text.Vector6C,"ax",%progbits
  16              		.align	1
  17              		.p2align 4,,15
  18              		.global	Vector6C
  19              		.arch armv7e-m
  20              		.syntax unified
  21              		.thumb
  22              		.thumb_func
  23              		.fpu softvfp
  24              		.type	Vector6C, %function
  25              	Vector6C:
  26              	.LFB277:
  27              		.file 1 "../../../os/hal/ports/STM32/LLD/DMAv2/stm32_dma.c"
  28              		.loc 1 117 42 view -0
  29              		.cfi_startproc
  30              		@ args = 0, pretend = 0, frame = 0
  31              		@ frame_needed = 0, uses_anonymous_args = 0
  32              		.loc 1 118 3 view .LVU1
  33              		.loc 1 120 3 view .LVU2
  34              		.loc 1 120 3 view .LVU3
  35              		.loc 1 120 3 view .LVU4
  36              		.loc 1 120 3 view .LVU5
  37              		.loc 1 120 3 view .LVU6
  38              		.loc 1 120 22 view .LVU7
  39              		.loc 1 122 3 view .LVU8
  40              		.loc 1 117 42 is_stmt 0 view .LVU9
  41 0000 08B5     		push	{r3, lr}
  42              		.cfi_def_cfa_offset 8
  43              		.cfi_offset 3, -8
  44              		.cfi_offset 14, -4
  45              		.loc 1 122 23 view .LVU10
  46 0002 074B     		ldr	r3, .L8
  47              		.loc 1 124 23 view .LVU11
  48 0004 074A     		ldr	r2, .L8+4
  49              		.loc 1 122 23 view .LVU12
  50 0006 1968     		ldr	r1, [r3]
  51              		.loc 1 122 9 view .LVU13
  52 0008 01F03D01 		and	r1, r1, #61
  53              	.LVL0:
  54              		.loc 1 123 3 is_stmt 1 view .LVU14
  55              		.loc 1 123 15 is_stmt 0 view .LVU15
  56 000c 9960     		str	r1, [r3, #8]
  57              		.loc 1 124 3 is_stmt 1 view .LVU16
ARM GAS  /tmp/ccbqudvp.s 			page 2


  58              		.loc 1 124 23 is_stmt 0 view .LVU17
  59 000e 1368     		ldr	r3, [r2]
  60              		.loc 1 124 6 view .LVU18
  61 0010 0BB1     		cbz	r3, .L2
  62              		.loc 1 125 5 is_stmt 1 view .LVU19
  63 0012 5068     		ldr	r0, [r2, #4]
  64 0014 9847     		blx	r3
  65              	.LVL1:
  66              	.L2:
  67              		.loc 1 127 3 view .LVU20
  68              		.loc 1 127 3 view .LVU21
  69              		.loc 1 127 3 view .LVU22
  70              		.loc 1 127 3 view .LVU23
  71              		.loc 1 127 3 view .LVU24
  72              		.loc 1 128 1 is_stmt 0 view .LVU25
  73 0016 BDE80840 		pop	{r3, lr}
  74              		.cfi_restore 14
  75              		.cfi_restore 3
  76              		.cfi_def_cfa_offset 0
  77              		.loc 1 127 3 view .LVU26
  78 001a FFF7FEBF 		b	_port_irq_epilogue
  79              	.LVL2:
  80              	.L9:
  81 001e 00BF     		.align	2
  82              	.L8:
  83 0020 00600240 		.word	1073897472
  84 0024 00000000 		.word	.LANCHOR0
  85              		.cfi_endproc
  86              	.LFE277:
  87              		.size	Vector6C, .-Vector6C
  88              		.section	.text.Vector70,"ax",%progbits
  89              		.align	1
  90              		.p2align 4,,15
  91              		.global	Vector70
  92              		.syntax unified
  93              		.thumb
  94              		.thumb_func
  95              		.fpu softvfp
  96              		.type	Vector70, %function
  97              	Vector70:
  98              	.LFB278:
  99              		.loc 1 135 42 is_stmt 1 view -0
 100              		.cfi_startproc
 101              		@ args = 0, pretend = 0, frame = 0
 102              		@ frame_needed = 0, uses_anonymous_args = 0
 103              		.loc 1 136 3 view .LVU28
 104              		.loc 1 138 3 view .LVU29
 105              		.loc 1 138 3 view .LVU30
 106              		.loc 1 138 3 view .LVU31
 107              		.loc 1 138 3 view .LVU32
 108              		.loc 1 138 3 view .LVU33
 109              		.loc 1 138 22 view .LVU34
 110              		.loc 1 140 3 view .LVU35
 111              		.loc 1 140 16 is_stmt 0 view .LVU36
 112 0000 084B     		ldr	r3, .L16
 113              		.loc 1 142 23 view .LVU37
 114 0002 0948     		ldr	r0, .L16+4
ARM GAS  /tmp/ccbqudvp.s 			page 3


 115              		.loc 1 140 16 view .LVU38
 116 0004 1968     		ldr	r1, [r3]
 117              		.loc 1 142 23 view .LVU39
 118 0006 8268     		ldr	r2, [r0, #8]
 119              		.loc 1 140 23 view .LVU40
 120 0008 8909     		lsrs	r1, r1, #6
 121              		.loc 1 140 9 view .LVU41
 122 000a 01F03D01 		and	r1, r1, #61
 123              	.LVL3:
 124              		.loc 1 141 3 is_stmt 1 view .LVU42
 125              		.loc 1 135 42 is_stmt 0 view .LVU43
 126 000e 10B5     		push	{r4, lr}
 127              		.cfi_def_cfa_offset 8
 128              		.cfi_offset 4, -8
 129              		.cfi_offset 14, -4
 130              		.loc 1 141 23 view .LVU44
 131 0010 8C01     		lsls	r4, r1, #6
 132              		.loc 1 141 15 view .LVU45
 133 0012 9C60     		str	r4, [r3, #8]
 134              		.loc 1 142 3 is_stmt 1 view .LVU46
 135              		.loc 1 142 6 is_stmt 0 view .LVU47
 136 0014 0AB1     		cbz	r2, .L11
 137              		.loc 1 143 5 is_stmt 1 view .LVU48
 138 0016 C068     		ldr	r0, [r0, #12]
 139 0018 9047     		blx	r2
 140              	.LVL4:
 141              	.L11:
 142              		.loc 1 145 3 view .LVU49
 143              		.loc 1 145 3 view .LVU50
 144              		.loc 1 145 3 view .LVU51
 145              		.loc 1 145 3 view .LVU52
 146              		.loc 1 145 3 view .LVU53
 147              		.loc 1 146 1 is_stmt 0 view .LVU54
 148 001a BDE81040 		pop	{r4, lr}
 149              		.cfi_restore 14
 150              		.cfi_restore 4
 151              		.cfi_def_cfa_offset 0
 152              		.loc 1 145 3 view .LVU55
 153 001e FFF7FEBF 		b	_port_irq_epilogue
 154              	.LVL5:
 155              	.L17:
 156 0022 00BF     		.align	2
 157              	.L16:
 158 0024 00600240 		.word	1073897472
 159 0028 00000000 		.word	.LANCHOR0
 160              		.cfi_endproc
 161              	.LFE278:
 162              		.size	Vector70, .-Vector70
 163              		.section	.text.Vector74,"ax",%progbits
 164              		.align	1
 165              		.p2align 4,,15
 166              		.global	Vector74
 167              		.syntax unified
 168              		.thumb
 169              		.thumb_func
 170              		.fpu softvfp
 171              		.type	Vector74, %function
ARM GAS  /tmp/ccbqudvp.s 			page 4


 172              	Vector74:
 173              	.LFB279:
 174              		.loc 1 153 42 is_stmt 1 view -0
 175              		.cfi_startproc
 176              		@ args = 0, pretend = 0, frame = 0
 177              		@ frame_needed = 0, uses_anonymous_args = 0
 178              		.loc 1 154 3 view .LVU57
 179              		.loc 1 156 3 view .LVU58
 180              		.loc 1 156 3 view .LVU59
 181              		.loc 1 156 3 view .LVU60
 182              		.loc 1 156 3 view .LVU61
 183              		.loc 1 156 3 view .LVU62
 184              		.loc 1 156 22 view .LVU63
 185              		.loc 1 158 3 view .LVU64
 186              		.loc 1 158 16 is_stmt 0 view .LVU65
 187 0000 084B     		ldr	r3, .L24
 188              		.loc 1 160 23 view .LVU66
 189 0002 0948     		ldr	r0, .L24+4
 190              		.loc 1 158 16 view .LVU67
 191 0004 1968     		ldr	r1, [r3]
 192              		.loc 1 160 23 view .LVU68
 193 0006 0269     		ldr	r2, [r0, #16]
 194              		.loc 1 158 23 view .LVU69
 195 0008 090C     		lsrs	r1, r1, #16
 196              		.loc 1 158 9 view .LVU70
 197 000a 01F03D01 		and	r1, r1, #61
 198              	.LVL6:
 199              		.loc 1 159 3 is_stmt 1 view .LVU71
 200              		.loc 1 153 42 is_stmt 0 view .LVU72
 201 000e 10B5     		push	{r4, lr}
 202              		.cfi_def_cfa_offset 8
 203              		.cfi_offset 4, -8
 204              		.cfi_offset 14, -4
 205              		.loc 1 159 23 view .LVU73
 206 0010 0C04     		lsls	r4, r1, #16
 207              		.loc 1 159 15 view .LVU74
 208 0012 9C60     		str	r4, [r3, #8]
 209              		.loc 1 160 3 is_stmt 1 view .LVU75
 210              		.loc 1 160 6 is_stmt 0 view .LVU76
 211 0014 0AB1     		cbz	r2, .L19
 212              		.loc 1 161 5 is_stmt 1 view .LVU77
 213 0016 4069     		ldr	r0, [r0, #20]
 214 0018 9047     		blx	r2
 215              	.LVL7:
 216              	.L19:
 217              		.loc 1 163 3 view .LVU78
 218              		.loc 1 163 3 view .LVU79
 219              		.loc 1 163 3 view .LVU80
 220              		.loc 1 163 3 view .LVU81
 221              		.loc 1 163 3 view .LVU82
 222              		.loc 1 164 1 is_stmt 0 view .LVU83
 223 001a BDE81040 		pop	{r4, lr}
 224              		.cfi_restore 14
 225              		.cfi_restore 4
 226              		.cfi_def_cfa_offset 0
 227              		.loc 1 163 3 view .LVU84
 228 001e FFF7FEBF 		b	_port_irq_epilogue
ARM GAS  /tmp/ccbqudvp.s 			page 5


 229              	.LVL8:
 230              	.L25:
 231 0022 00BF     		.align	2
 232              	.L24:
 233 0024 00600240 		.word	1073897472
 234 0028 00000000 		.word	.LANCHOR0
 235              		.cfi_endproc
 236              	.LFE279:
 237              		.size	Vector74, .-Vector74
 238              		.section	.text.Vector78,"ax",%progbits
 239              		.align	1
 240              		.p2align 4,,15
 241              		.global	Vector78
 242              		.syntax unified
 243              		.thumb
 244              		.thumb_func
 245              		.fpu softvfp
 246              		.type	Vector78, %function
 247              	Vector78:
 248              	.LFB280:
 249              		.loc 1 171 42 is_stmt 1 view -0
 250              		.cfi_startproc
 251              		@ args = 0, pretend = 0, frame = 0
 252              		@ frame_needed = 0, uses_anonymous_args = 0
 253              		.loc 1 172 3 view .LVU86
 254              		.loc 1 174 3 view .LVU87
 255              		.loc 1 174 3 view .LVU88
 256              		.loc 1 174 3 view .LVU89
 257              		.loc 1 174 3 view .LVU90
 258              		.loc 1 174 3 view .LVU91
 259              		.loc 1 174 22 view .LVU92
 260              		.loc 1 176 3 view .LVU93
 261              		.loc 1 176 16 is_stmt 0 view .LVU94
 262 0000 084B     		ldr	r3, .L32
 263              		.loc 1 178 23 view .LVU95
 264 0002 0948     		ldr	r0, .L32+4
 265              		.loc 1 176 16 view .LVU96
 266 0004 1968     		ldr	r1, [r3]
 267              		.loc 1 178 23 view .LVU97
 268 0006 8269     		ldr	r2, [r0, #24]
 269              		.loc 1 176 23 view .LVU98
 270 0008 890D     		lsrs	r1, r1, #22
 271              		.loc 1 176 9 view .LVU99
 272 000a 01F03D01 		and	r1, r1, #61
 273              	.LVL9:
 274              		.loc 1 177 3 is_stmt 1 view .LVU100
 275              		.loc 1 171 42 is_stmt 0 view .LVU101
 276 000e 10B5     		push	{r4, lr}
 277              		.cfi_def_cfa_offset 8
 278              		.cfi_offset 4, -8
 279              		.cfi_offset 14, -4
 280              		.loc 1 177 23 view .LVU102
 281 0010 8C05     		lsls	r4, r1, #22
 282              		.loc 1 177 15 view .LVU103
 283 0012 9C60     		str	r4, [r3, #8]
 284              		.loc 1 178 3 is_stmt 1 view .LVU104
 285              		.loc 1 178 6 is_stmt 0 view .LVU105
ARM GAS  /tmp/ccbqudvp.s 			page 6


 286 0014 0AB1     		cbz	r2, .L27
 287              		.loc 1 179 5 is_stmt 1 view .LVU106
 288 0016 C069     		ldr	r0, [r0, #28]
 289 0018 9047     		blx	r2
 290              	.LVL10:
 291              	.L27:
 292              		.loc 1 181 3 view .LVU107
 293              		.loc 1 181 3 view .LVU108
 294              		.loc 1 181 3 view .LVU109
 295              		.loc 1 181 3 view .LVU110
 296              		.loc 1 181 3 view .LVU111
 297              		.loc 1 182 1 is_stmt 0 view .LVU112
 298 001a BDE81040 		pop	{r4, lr}
 299              		.cfi_restore 14
 300              		.cfi_restore 4
 301              		.cfi_def_cfa_offset 0
 302              		.loc 1 181 3 view .LVU113
 303 001e FFF7FEBF 		b	_port_irq_epilogue
 304              	.LVL11:
 305              	.L33:
 306 0022 00BF     		.align	2
 307              	.L32:
 308 0024 00600240 		.word	1073897472
 309 0028 00000000 		.word	.LANCHOR0
 310              		.cfi_endproc
 311              	.LFE280:
 312              		.size	Vector78, .-Vector78
 313              		.section	.text.Vector7C,"ax",%progbits
 314              		.align	1
 315              		.p2align 4,,15
 316              		.global	Vector7C
 317              		.syntax unified
 318              		.thumb
 319              		.thumb_func
 320              		.fpu softvfp
 321              		.type	Vector7C, %function
 322              	Vector7C:
 323              	.LFB281:
 324              		.loc 1 189 42 is_stmt 1 view -0
 325              		.cfi_startproc
 326              		@ args = 0, pretend = 0, frame = 0
 327              		@ frame_needed = 0, uses_anonymous_args = 0
 328              		.loc 1 190 3 view .LVU115
 329              		.loc 1 192 3 view .LVU116
 330              		.loc 1 192 3 view .LVU117
 331              		.loc 1 192 3 view .LVU118
 332              		.loc 1 192 3 view .LVU119
 333              		.loc 1 192 3 view .LVU120
 334              		.loc 1 192 22 view .LVU121
 335              		.loc 1 194 3 view .LVU122
 336              		.loc 1 189 42 is_stmt 0 view .LVU123
 337 0000 08B5     		push	{r3, lr}
 338              		.cfi_def_cfa_offset 8
 339              		.cfi_offset 3, -8
 340              		.cfi_offset 14, -4
 341              		.loc 1 194 23 view .LVU124
 342 0002 074B     		ldr	r3, .L40
ARM GAS  /tmp/ccbqudvp.s 			page 7


 343              		.loc 1 196 23 view .LVU125
 344 0004 0748     		ldr	r0, .L40+4
 345              		.loc 1 194 23 view .LVU126
 346 0006 5968     		ldr	r1, [r3, #4]
 347              		.loc 1 196 23 view .LVU127
 348 0008 026A     		ldr	r2, [r0, #32]
 349              		.loc 1 194 9 view .LVU128
 350 000a 01F03D01 		and	r1, r1, #61
 351              	.LVL12:
 352              		.loc 1 195 3 is_stmt 1 view .LVU129
 353              		.loc 1 195 15 is_stmt 0 view .LVU130
 354 000e D960     		str	r1, [r3, #12]
 355              		.loc 1 196 3 is_stmt 1 view .LVU131
 356              		.loc 1 196 6 is_stmt 0 view .LVU132
 357 0010 0AB1     		cbz	r2, .L35
 358              		.loc 1 197 5 is_stmt 1 view .LVU133
 359 0012 406A     		ldr	r0, [r0, #36]
 360 0014 9047     		blx	r2
 361              	.LVL13:
 362              	.L35:
 363              		.loc 1 199 3 view .LVU134
 364              		.loc 1 199 3 view .LVU135
 365              		.loc 1 199 3 view .LVU136
 366              		.loc 1 199 3 view .LVU137
 367              		.loc 1 199 3 view .LVU138
 368              		.loc 1 200 1 is_stmt 0 view .LVU139
 369 0016 BDE80840 		pop	{r3, lr}
 370              		.cfi_restore 14
 371              		.cfi_restore 3
 372              		.cfi_def_cfa_offset 0
 373              		.loc 1 199 3 view .LVU140
 374 001a FFF7FEBF 		b	_port_irq_epilogue
 375              	.LVL14:
 376              	.L41:
 377 001e 00BF     		.align	2
 378              	.L40:
 379 0020 00600240 		.word	1073897472
 380 0024 00000000 		.word	.LANCHOR0
 381              		.cfi_endproc
 382              	.LFE281:
 383              		.size	Vector7C, .-Vector7C
 384              		.section	.text.Vector80,"ax",%progbits
 385              		.align	1
 386              		.p2align 4,,15
 387              		.global	Vector80
 388              		.syntax unified
 389              		.thumb
 390              		.thumb_func
 391              		.fpu softvfp
 392              		.type	Vector80, %function
 393              	Vector80:
 394              	.LFB282:
 395              		.loc 1 207 42 is_stmt 1 view -0
 396              		.cfi_startproc
 397              		@ args = 0, pretend = 0, frame = 0
 398              		@ frame_needed = 0, uses_anonymous_args = 0
 399              		.loc 1 208 3 view .LVU142
ARM GAS  /tmp/ccbqudvp.s 			page 8


 400              		.loc 1 210 3 view .LVU143
 401              		.loc 1 210 3 view .LVU144
 402              		.loc 1 210 3 view .LVU145
 403              		.loc 1 210 3 view .LVU146
 404              		.loc 1 210 3 view .LVU147
 405              		.loc 1 210 22 view .LVU148
 406              		.loc 1 212 3 view .LVU149
 407              		.loc 1 212 16 is_stmt 0 view .LVU150
 408 0000 084B     		ldr	r3, .L48
 409              		.loc 1 214 23 view .LVU151
 410 0002 0948     		ldr	r0, .L48+4
 411              		.loc 1 212 16 view .LVU152
 412 0004 5968     		ldr	r1, [r3, #4]
 413              		.loc 1 214 23 view .LVU153
 414 0006 826A     		ldr	r2, [r0, #40]
 415              		.loc 1 212 23 view .LVU154
 416 0008 8909     		lsrs	r1, r1, #6
 417              		.loc 1 212 9 view .LVU155
 418 000a 01F03D01 		and	r1, r1, #61
 419              	.LVL15:
 420              		.loc 1 213 3 is_stmt 1 view .LVU156
 421              		.loc 1 207 42 is_stmt 0 view .LVU157
 422 000e 10B5     		push	{r4, lr}
 423              		.cfi_def_cfa_offset 8
 424              		.cfi_offset 4, -8
 425              		.cfi_offset 14, -4
 426              		.loc 1 213 23 view .LVU158
 427 0010 8C01     		lsls	r4, r1, #6
 428              		.loc 1 213 15 view .LVU159
 429 0012 DC60     		str	r4, [r3, #12]
 430              		.loc 1 214 3 is_stmt 1 view .LVU160
 431              		.loc 1 214 6 is_stmt 0 view .LVU161
 432 0014 0AB1     		cbz	r2, .L43
 433              		.loc 1 215 5 is_stmt 1 view .LVU162
 434 0016 C06A     		ldr	r0, [r0, #44]
 435 0018 9047     		blx	r2
 436              	.LVL16:
 437              	.L43:
 438              		.loc 1 217 3 view .LVU163
 439              		.loc 1 217 3 view .LVU164
 440              		.loc 1 217 3 view .LVU165
 441              		.loc 1 217 3 view .LVU166
 442              		.loc 1 217 3 view .LVU167
 443              		.loc 1 218 1 is_stmt 0 view .LVU168
 444 001a BDE81040 		pop	{r4, lr}
 445              		.cfi_restore 14
 446              		.cfi_restore 4
 447              		.cfi_def_cfa_offset 0
 448              		.loc 1 217 3 view .LVU169
 449 001e FFF7FEBF 		b	_port_irq_epilogue
 450              	.LVL17:
 451              	.L49:
 452 0022 00BF     		.align	2
 453              	.L48:
 454 0024 00600240 		.word	1073897472
 455 0028 00000000 		.word	.LANCHOR0
 456              		.cfi_endproc
ARM GAS  /tmp/ccbqudvp.s 			page 9


 457              	.LFE282:
 458              		.size	Vector80, .-Vector80
 459              		.section	.text.Vector84,"ax",%progbits
 460              		.align	1
 461              		.p2align 4,,15
 462              		.global	Vector84
 463              		.syntax unified
 464              		.thumb
 465              		.thumb_func
 466              		.fpu softvfp
 467              		.type	Vector84, %function
 468              	Vector84:
 469              	.LFB283:
 470              		.loc 1 225 42 is_stmt 1 view -0
 471              		.cfi_startproc
 472              		@ args = 0, pretend = 0, frame = 0
 473              		@ frame_needed = 0, uses_anonymous_args = 0
 474              		.loc 1 226 3 view .LVU171
 475              		.loc 1 228 3 view .LVU172
 476              		.loc 1 228 3 view .LVU173
 477              		.loc 1 228 3 view .LVU174
 478              		.loc 1 228 3 view .LVU175
 479              		.loc 1 228 3 view .LVU176
 480              		.loc 1 228 22 view .LVU177
 481              		.loc 1 230 3 view .LVU178
 482              		.loc 1 230 16 is_stmt 0 view .LVU179
 483 0000 084B     		ldr	r3, .L56
 484              		.loc 1 232 23 view .LVU180
 485 0002 0948     		ldr	r0, .L56+4
 486              		.loc 1 230 16 view .LVU181
 487 0004 5968     		ldr	r1, [r3, #4]
 488              		.loc 1 232 23 view .LVU182
 489 0006 026B     		ldr	r2, [r0, #48]
 490              		.loc 1 230 23 view .LVU183
 491 0008 090C     		lsrs	r1, r1, #16
 492              		.loc 1 230 9 view .LVU184
 493 000a 01F03D01 		and	r1, r1, #61
 494              	.LVL18:
 495              		.loc 1 231 3 is_stmt 1 view .LVU185
 496              		.loc 1 225 42 is_stmt 0 view .LVU186
 497 000e 10B5     		push	{r4, lr}
 498              		.cfi_def_cfa_offset 8
 499              		.cfi_offset 4, -8
 500              		.cfi_offset 14, -4
 501              		.loc 1 231 23 view .LVU187
 502 0010 0C04     		lsls	r4, r1, #16
 503              		.loc 1 231 15 view .LVU188
 504 0012 DC60     		str	r4, [r3, #12]
 505              		.loc 1 232 3 is_stmt 1 view .LVU189
 506              		.loc 1 232 6 is_stmt 0 view .LVU190
 507 0014 0AB1     		cbz	r2, .L51
 508              		.loc 1 233 5 is_stmt 1 view .LVU191
 509 0016 406B     		ldr	r0, [r0, #52]
 510 0018 9047     		blx	r2
 511              	.LVL19:
 512              	.L51:
 513              		.loc 1 235 3 view .LVU192
ARM GAS  /tmp/ccbqudvp.s 			page 10


 514              		.loc 1 235 3 view .LVU193
 515              		.loc 1 235 3 view .LVU194
 516              		.loc 1 235 3 view .LVU195
 517              		.loc 1 235 3 view .LVU196
 518              		.loc 1 236 1 is_stmt 0 view .LVU197
 519 001a BDE81040 		pop	{r4, lr}
 520              		.cfi_restore 14
 521              		.cfi_restore 4
 522              		.cfi_def_cfa_offset 0
 523              		.loc 1 235 3 view .LVU198
 524 001e FFF7FEBF 		b	_port_irq_epilogue
 525              	.LVL20:
 526              	.L57:
 527 0022 00BF     		.align	2
 528              	.L56:
 529 0024 00600240 		.word	1073897472
 530 0028 00000000 		.word	.LANCHOR0
 531              		.cfi_endproc
 532              	.LFE283:
 533              		.size	Vector84, .-Vector84
 534              		.section	.text.VectorFC,"ax",%progbits
 535              		.align	1
 536              		.p2align 4,,15
 537              		.global	VectorFC
 538              		.syntax unified
 539              		.thumb
 540              		.thumb_func
 541              		.fpu softvfp
 542              		.type	VectorFC, %function
 543              	VectorFC:
 544              	.LFB284:
 545              		.loc 1 243 42 is_stmt 1 view -0
 546              		.cfi_startproc
 547              		@ args = 0, pretend = 0, frame = 0
 548              		@ frame_needed = 0, uses_anonymous_args = 0
 549              		.loc 1 244 3 view .LVU200
 550              		.loc 1 246 3 view .LVU201
 551              		.loc 1 246 3 view .LVU202
 552              		.loc 1 246 3 view .LVU203
 553              		.loc 1 246 3 view .LVU204
 554              		.loc 1 246 3 view .LVU205
 555              		.loc 1 246 22 view .LVU206
 556              		.loc 1 248 3 view .LVU207
 557              		.loc 1 248 16 is_stmt 0 view .LVU208
 558 0000 084B     		ldr	r3, .L64
 559              		.loc 1 250 23 view .LVU209
 560 0002 0948     		ldr	r0, .L64+4
 561              		.loc 1 248 16 view .LVU210
 562 0004 5968     		ldr	r1, [r3, #4]
 563              		.loc 1 250 23 view .LVU211
 564 0006 826B     		ldr	r2, [r0, #56]
 565              		.loc 1 248 23 view .LVU212
 566 0008 890D     		lsrs	r1, r1, #22
 567              		.loc 1 248 9 view .LVU213
 568 000a 01F03D01 		and	r1, r1, #61
 569              	.LVL21:
 570              		.loc 1 249 3 is_stmt 1 view .LVU214
ARM GAS  /tmp/ccbqudvp.s 			page 11


 571              		.loc 1 243 42 is_stmt 0 view .LVU215
 572 000e 10B5     		push	{r4, lr}
 573              		.cfi_def_cfa_offset 8
 574              		.cfi_offset 4, -8
 575              		.cfi_offset 14, -4
 576              		.loc 1 249 23 view .LVU216
 577 0010 8C05     		lsls	r4, r1, #22
 578              		.loc 1 249 15 view .LVU217
 579 0012 DC60     		str	r4, [r3, #12]
 580              		.loc 1 250 3 is_stmt 1 view .LVU218
 581              		.loc 1 250 6 is_stmt 0 view .LVU219
 582 0014 0AB1     		cbz	r2, .L59
 583              		.loc 1 251 5 is_stmt 1 view .LVU220
 584 0016 C06B     		ldr	r0, [r0, #60]
 585 0018 9047     		blx	r2
 586              	.LVL22:
 587              	.L59:
 588              		.loc 1 253 3 view .LVU221
 589              		.loc 1 253 3 view .LVU222
 590              		.loc 1 253 3 view .LVU223
 591              		.loc 1 253 3 view .LVU224
 592              		.loc 1 253 3 view .LVU225
 593              		.loc 1 254 1 is_stmt 0 view .LVU226
 594 001a BDE81040 		pop	{r4, lr}
 595              		.cfi_restore 14
 596              		.cfi_restore 4
 597              		.cfi_def_cfa_offset 0
 598              		.loc 1 253 3 view .LVU227
 599 001e FFF7FEBF 		b	_port_irq_epilogue
 600              	.LVL23:
 601              	.L65:
 602 0022 00BF     		.align	2
 603              	.L64:
 604 0024 00600240 		.word	1073897472
 605 0028 00000000 		.word	.LANCHOR0
 606              		.cfi_endproc
 607              	.LFE284:
 608              		.size	VectorFC, .-VectorFC
 609              		.section	.text.Vector120,"ax",%progbits
 610              		.align	1
 611              		.p2align 4,,15
 612              		.global	Vector120
 613              		.syntax unified
 614              		.thumb
 615              		.thumb_func
 616              		.fpu softvfp
 617              		.type	Vector120, %function
 618              	Vector120:
 619              	.LFB285:
 620              		.loc 1 261 42 is_stmt 1 view -0
 621              		.cfi_startproc
 622              		@ args = 0, pretend = 0, frame = 0
 623              		@ frame_needed = 0, uses_anonymous_args = 0
 624              		.loc 1 262 3 view .LVU229
 625              		.loc 1 264 3 view .LVU230
 626              		.loc 1 264 3 view .LVU231
 627              		.loc 1 264 3 view .LVU232
ARM GAS  /tmp/ccbqudvp.s 			page 12


 628              		.loc 1 264 3 view .LVU233
 629              		.loc 1 264 3 view .LVU234
 630              		.loc 1 264 22 view .LVU235
 631              		.loc 1 266 3 view .LVU236
 632              		.loc 1 261 42 is_stmt 0 view .LVU237
 633 0000 08B5     		push	{r3, lr}
 634              		.cfi_def_cfa_offset 8
 635              		.cfi_offset 3, -8
 636              		.cfi_offset 14, -4
 637              		.loc 1 266 23 view .LVU238
 638 0002 074B     		ldr	r3, .L72
 639              		.loc 1 268 23 view .LVU239
 640 0004 0748     		ldr	r0, .L72+4
 641              		.loc 1 266 23 view .LVU240
 642 0006 1968     		ldr	r1, [r3]
 643              		.loc 1 268 23 view .LVU241
 644 0008 026C     		ldr	r2, [r0, #64]
 645              		.loc 1 266 9 view .LVU242
 646 000a 01F03D01 		and	r1, r1, #61
 647              	.LVL24:
 648              		.loc 1 267 3 is_stmt 1 view .LVU243
 649              		.loc 1 267 15 is_stmt 0 view .LVU244
 650 000e 9960     		str	r1, [r3, #8]
 651              		.loc 1 268 3 is_stmt 1 view .LVU245
 652              		.loc 1 268 6 is_stmt 0 view .LVU246
 653 0010 0AB1     		cbz	r2, .L67
 654              		.loc 1 269 5 is_stmt 1 view .LVU247
 655 0012 406C     		ldr	r0, [r0, #68]
 656 0014 9047     		blx	r2
 657              	.LVL25:
 658              	.L67:
 659              		.loc 1 271 3 view .LVU248
 660              		.loc 1 271 3 view .LVU249
 661              		.loc 1 271 3 view .LVU250
 662              		.loc 1 271 3 view .LVU251
 663              		.loc 1 271 3 view .LVU252
 664              		.loc 1 272 1 is_stmt 0 view .LVU253
 665 0016 BDE80840 		pop	{r3, lr}
 666              		.cfi_restore 14
 667              		.cfi_restore 3
 668              		.cfi_def_cfa_offset 0
 669              		.loc 1 271 3 view .LVU254
 670 001a FFF7FEBF 		b	_port_irq_epilogue
 671              	.LVL26:
 672              	.L73:
 673 001e 00BF     		.align	2
 674              	.L72:
 675 0020 00640240 		.word	1073898496
 676 0024 00000000 		.word	.LANCHOR0
 677              		.cfi_endproc
 678              	.LFE285:
 679              		.size	Vector120, .-Vector120
 680              		.section	.text.Vector124,"ax",%progbits
 681              		.align	1
 682              		.p2align 4,,15
 683              		.global	Vector124
 684              		.syntax unified
ARM GAS  /tmp/ccbqudvp.s 			page 13


 685              		.thumb
 686              		.thumb_func
 687              		.fpu softvfp
 688              		.type	Vector124, %function
 689              	Vector124:
 690              	.LFB286:
 691              		.loc 1 279 42 is_stmt 1 view -0
 692              		.cfi_startproc
 693              		@ args = 0, pretend = 0, frame = 0
 694              		@ frame_needed = 0, uses_anonymous_args = 0
 695              		.loc 1 280 3 view .LVU256
 696              		.loc 1 282 3 view .LVU257
 697              		.loc 1 282 3 view .LVU258
 698              		.loc 1 282 3 view .LVU259
 699              		.loc 1 282 3 view .LVU260
 700              		.loc 1 282 3 view .LVU261
 701              		.loc 1 282 22 view .LVU262
 702              		.loc 1 284 3 view .LVU263
 703              		.loc 1 284 16 is_stmt 0 view .LVU264
 704 0000 084B     		ldr	r3, .L80
 705              		.loc 1 286 23 view .LVU265
 706 0002 0948     		ldr	r0, .L80+4
 707              		.loc 1 284 16 view .LVU266
 708 0004 1968     		ldr	r1, [r3]
 709              		.loc 1 286 23 view .LVU267
 710 0006 826C     		ldr	r2, [r0, #72]
 711              		.loc 1 284 23 view .LVU268
 712 0008 8909     		lsrs	r1, r1, #6
 713              		.loc 1 284 9 view .LVU269
 714 000a 01F03D01 		and	r1, r1, #61
 715              	.LVL27:
 716              		.loc 1 285 3 is_stmt 1 view .LVU270
 717              		.loc 1 279 42 is_stmt 0 view .LVU271
 718 000e 10B5     		push	{r4, lr}
 719              		.cfi_def_cfa_offset 8
 720              		.cfi_offset 4, -8
 721              		.cfi_offset 14, -4
 722              		.loc 1 285 23 view .LVU272
 723 0010 8C01     		lsls	r4, r1, #6
 724              		.loc 1 285 15 view .LVU273
 725 0012 9C60     		str	r4, [r3, #8]
 726              		.loc 1 286 3 is_stmt 1 view .LVU274
 727              		.loc 1 286 6 is_stmt 0 view .LVU275
 728 0014 0AB1     		cbz	r2, .L75
 729              		.loc 1 287 5 is_stmt 1 view .LVU276
 730 0016 C06C     		ldr	r0, [r0, #76]
 731 0018 9047     		blx	r2
 732              	.LVL28:
 733              	.L75:
 734              		.loc 1 289 3 view .LVU277
 735              		.loc 1 289 3 view .LVU278
 736              		.loc 1 289 3 view .LVU279
 737              		.loc 1 289 3 view .LVU280
 738              		.loc 1 289 3 view .LVU281
 739              		.loc 1 290 1 is_stmt 0 view .LVU282
 740 001a BDE81040 		pop	{r4, lr}
 741              		.cfi_restore 14
ARM GAS  /tmp/ccbqudvp.s 			page 14


 742              		.cfi_restore 4
 743              		.cfi_def_cfa_offset 0
 744              		.loc 1 289 3 view .LVU283
 745 001e FFF7FEBF 		b	_port_irq_epilogue
 746              	.LVL29:
 747              	.L81:
 748 0022 00BF     		.align	2
 749              	.L80:
 750 0024 00640240 		.word	1073898496
 751 0028 00000000 		.word	.LANCHOR0
 752              		.cfi_endproc
 753              	.LFE286:
 754              		.size	Vector124, .-Vector124
 755              		.section	.text.Vector128,"ax",%progbits
 756              		.align	1
 757              		.p2align 4,,15
 758              		.global	Vector128
 759              		.syntax unified
 760              		.thumb
 761              		.thumb_func
 762              		.fpu softvfp
 763              		.type	Vector128, %function
 764              	Vector128:
 765              	.LFB287:
 766              		.loc 1 297 42 is_stmt 1 view -0
 767              		.cfi_startproc
 768              		@ args = 0, pretend = 0, frame = 0
 769              		@ frame_needed = 0, uses_anonymous_args = 0
 770              		.loc 1 298 3 view .LVU285
 771              		.loc 1 300 3 view .LVU286
 772              		.loc 1 300 3 view .LVU287
 773              		.loc 1 300 3 view .LVU288
 774              		.loc 1 300 3 view .LVU289
 775              		.loc 1 300 3 view .LVU290
 776              		.loc 1 300 22 view .LVU291
 777              		.loc 1 302 3 view .LVU292
 778              		.loc 1 302 16 is_stmt 0 view .LVU293
 779 0000 084B     		ldr	r3, .L88
 780              		.loc 1 304 24 view .LVU294
 781 0002 0948     		ldr	r0, .L88+4
 782              		.loc 1 302 16 view .LVU295
 783 0004 1968     		ldr	r1, [r3]
 784              		.loc 1 304 24 view .LVU296
 785 0006 026D     		ldr	r2, [r0, #80]
 786              		.loc 1 302 23 view .LVU297
 787 0008 090C     		lsrs	r1, r1, #16
 788              		.loc 1 302 9 view .LVU298
 789 000a 01F03D01 		and	r1, r1, #61
 790              	.LVL30:
 791              		.loc 1 303 3 is_stmt 1 view .LVU299
 792              		.loc 1 297 42 is_stmt 0 view .LVU300
 793 000e 10B5     		push	{r4, lr}
 794              		.cfi_def_cfa_offset 8
 795              		.cfi_offset 4, -8
 796              		.cfi_offset 14, -4
 797              		.loc 1 303 23 view .LVU301
 798 0010 0C04     		lsls	r4, r1, #16
ARM GAS  /tmp/ccbqudvp.s 			page 15


 799              		.loc 1 303 15 view .LVU302
 800 0012 9C60     		str	r4, [r3, #8]
 801              		.loc 1 304 3 is_stmt 1 view .LVU303
 802              		.loc 1 304 6 is_stmt 0 view .LVU304
 803 0014 0AB1     		cbz	r2, .L83
 804              		.loc 1 305 5 is_stmt 1 view .LVU305
 805 0016 406D     		ldr	r0, [r0, #84]
 806 0018 9047     		blx	r2
 807              	.LVL31:
 808              	.L83:
 809              		.loc 1 307 3 view .LVU306
 810              		.loc 1 307 3 view .LVU307
 811              		.loc 1 307 3 view .LVU308
 812              		.loc 1 307 3 view .LVU309
 813              		.loc 1 307 3 view .LVU310
 814              		.loc 1 308 1 is_stmt 0 view .LVU311
 815 001a BDE81040 		pop	{r4, lr}
 816              		.cfi_restore 14
 817              		.cfi_restore 4
 818              		.cfi_def_cfa_offset 0
 819              		.loc 1 307 3 view .LVU312
 820 001e FFF7FEBF 		b	_port_irq_epilogue
 821              	.LVL32:
 822              	.L89:
 823 0022 00BF     		.align	2
 824              	.L88:
 825 0024 00640240 		.word	1073898496
 826 0028 00000000 		.word	.LANCHOR0
 827              		.cfi_endproc
 828              	.LFE287:
 829              		.size	Vector128, .-Vector128
 830              		.section	.text.Vector12C,"ax",%progbits
 831              		.align	1
 832              		.p2align 4,,15
 833              		.global	Vector12C
 834              		.syntax unified
 835              		.thumb
 836              		.thumb_func
 837              		.fpu softvfp
 838              		.type	Vector12C, %function
 839              	Vector12C:
 840              	.LFB288:
 841              		.loc 1 315 42 is_stmt 1 view -0
 842              		.cfi_startproc
 843              		@ args = 0, pretend = 0, frame = 0
 844              		@ frame_needed = 0, uses_anonymous_args = 0
 845              		.loc 1 316 3 view .LVU314
 846              		.loc 1 318 3 view .LVU315
 847              		.loc 1 318 3 view .LVU316
 848              		.loc 1 318 3 view .LVU317
 849              		.loc 1 318 3 view .LVU318
 850              		.loc 1 318 3 view .LVU319
 851              		.loc 1 318 22 view .LVU320
 852              		.loc 1 320 3 view .LVU321
 853              		.loc 1 320 16 is_stmt 0 view .LVU322
 854 0000 084B     		ldr	r3, .L96
 855              		.loc 1 322 24 view .LVU323
ARM GAS  /tmp/ccbqudvp.s 			page 16


 856 0002 0948     		ldr	r0, .L96+4
 857              		.loc 1 320 16 view .LVU324
 858 0004 1968     		ldr	r1, [r3]
 859              		.loc 1 322 24 view .LVU325
 860 0006 826D     		ldr	r2, [r0, #88]
 861              		.loc 1 320 23 view .LVU326
 862 0008 890D     		lsrs	r1, r1, #22
 863              		.loc 1 320 9 view .LVU327
 864 000a 01F03D01 		and	r1, r1, #61
 865              	.LVL33:
 866              		.loc 1 321 3 is_stmt 1 view .LVU328
 867              		.loc 1 315 42 is_stmt 0 view .LVU329
 868 000e 10B5     		push	{r4, lr}
 869              		.cfi_def_cfa_offset 8
 870              		.cfi_offset 4, -8
 871              		.cfi_offset 14, -4
 872              		.loc 1 321 23 view .LVU330
 873 0010 8C05     		lsls	r4, r1, #22
 874              		.loc 1 321 15 view .LVU331
 875 0012 9C60     		str	r4, [r3, #8]
 876              		.loc 1 322 3 is_stmt 1 view .LVU332
 877              		.loc 1 322 6 is_stmt 0 view .LVU333
 878 0014 0AB1     		cbz	r2, .L91
 879              		.loc 1 323 5 is_stmt 1 view .LVU334
 880 0016 C06D     		ldr	r0, [r0, #92]
 881 0018 9047     		blx	r2
 882              	.LVL34:
 883              	.L91:
 884              		.loc 1 325 3 view .LVU335
 885              		.loc 1 325 3 view .LVU336
 886              		.loc 1 325 3 view .LVU337
 887              		.loc 1 325 3 view .LVU338
 888              		.loc 1 325 3 view .LVU339
 889              		.loc 1 326 1 is_stmt 0 view .LVU340
 890 001a BDE81040 		pop	{r4, lr}
 891              		.cfi_restore 14
 892              		.cfi_restore 4
 893              		.cfi_def_cfa_offset 0
 894              		.loc 1 325 3 view .LVU341
 895 001e FFF7FEBF 		b	_port_irq_epilogue
 896              	.LVL35:
 897              	.L97:
 898 0022 00BF     		.align	2
 899              	.L96:
 900 0024 00640240 		.word	1073898496
 901 0028 00000000 		.word	.LANCHOR0
 902              		.cfi_endproc
 903              	.LFE288:
 904              		.size	Vector12C, .-Vector12C
 905              		.section	.text.Vector130,"ax",%progbits
 906              		.align	1
 907              		.p2align 4,,15
 908              		.global	Vector130
 909              		.syntax unified
 910              		.thumb
 911              		.thumb_func
 912              		.fpu softvfp
ARM GAS  /tmp/ccbqudvp.s 			page 17


 913              		.type	Vector130, %function
 914              	Vector130:
 915              	.LFB289:
 916              		.loc 1 333 42 is_stmt 1 view -0
 917              		.cfi_startproc
 918              		@ args = 0, pretend = 0, frame = 0
 919              		@ frame_needed = 0, uses_anonymous_args = 0
 920              		.loc 1 334 3 view .LVU343
 921              		.loc 1 336 3 view .LVU344
 922              		.loc 1 336 3 view .LVU345
 923              		.loc 1 336 3 view .LVU346
 924              		.loc 1 336 3 view .LVU347
 925              		.loc 1 336 3 view .LVU348
 926              		.loc 1 336 22 view .LVU349
 927              		.loc 1 338 3 view .LVU350
 928              		.loc 1 333 42 is_stmt 0 view .LVU351
 929 0000 08B5     		push	{r3, lr}
 930              		.cfi_def_cfa_offset 8
 931              		.cfi_offset 3, -8
 932              		.cfi_offset 14, -4
 933              		.loc 1 338 23 view .LVU352
 934 0002 074B     		ldr	r3, .L104
 935              		.loc 1 340 24 view .LVU353
 936 0004 0748     		ldr	r0, .L104+4
 937              		.loc 1 338 23 view .LVU354
 938 0006 5968     		ldr	r1, [r3, #4]
 939              		.loc 1 340 24 view .LVU355
 940 0008 026E     		ldr	r2, [r0, #96]
 941              		.loc 1 338 9 view .LVU356
 942 000a 01F03D01 		and	r1, r1, #61
 943              	.LVL36:
 944              		.loc 1 339 3 is_stmt 1 view .LVU357
 945              		.loc 1 339 15 is_stmt 0 view .LVU358
 946 000e D960     		str	r1, [r3, #12]
 947              		.loc 1 340 3 is_stmt 1 view .LVU359
 948              		.loc 1 340 6 is_stmt 0 view .LVU360
 949 0010 0AB1     		cbz	r2, .L99
 950              		.loc 1 341 5 is_stmt 1 view .LVU361
 951 0012 406E     		ldr	r0, [r0, #100]
 952 0014 9047     		blx	r2
 953              	.LVL37:
 954              	.L99:
 955              		.loc 1 343 3 view .LVU362
 956              		.loc 1 343 3 view .LVU363
 957              		.loc 1 343 3 view .LVU364
 958              		.loc 1 343 3 view .LVU365
 959              		.loc 1 343 3 view .LVU366
 960              		.loc 1 344 1 is_stmt 0 view .LVU367
 961 0016 BDE80840 		pop	{r3, lr}
 962              		.cfi_restore 14
 963              		.cfi_restore 3
 964              		.cfi_def_cfa_offset 0
 965              		.loc 1 343 3 view .LVU368
 966 001a FFF7FEBF 		b	_port_irq_epilogue
 967              	.LVL38:
 968              	.L105:
 969 001e 00BF     		.align	2
ARM GAS  /tmp/ccbqudvp.s 			page 18


 970              	.L104:
 971 0020 00640240 		.word	1073898496
 972 0024 00000000 		.word	.LANCHOR0
 973              		.cfi_endproc
 974              	.LFE289:
 975              		.size	Vector130, .-Vector130
 976              		.section	.text.Vector150,"ax",%progbits
 977              		.align	1
 978              		.p2align 4,,15
 979              		.global	Vector150
 980              		.syntax unified
 981              		.thumb
 982              		.thumb_func
 983              		.fpu softvfp
 984              		.type	Vector150, %function
 985              	Vector150:
 986              	.LFB290:
 987              		.loc 1 351 42 is_stmt 1 view -0
 988              		.cfi_startproc
 989              		@ args = 0, pretend = 0, frame = 0
 990              		@ frame_needed = 0, uses_anonymous_args = 0
 991              		.loc 1 352 3 view .LVU370
 992              		.loc 1 354 3 view .LVU371
 993              		.loc 1 354 3 view .LVU372
 994              		.loc 1 354 3 view .LVU373
 995              		.loc 1 354 3 view .LVU374
 996              		.loc 1 354 3 view .LVU375
 997              		.loc 1 354 22 view .LVU376
 998              		.loc 1 356 3 view .LVU377
 999              		.loc 1 356 16 is_stmt 0 view .LVU378
 1000 0000 084B     		ldr	r3, .L112
 1001              		.loc 1 358 24 view .LVU379
 1002 0002 0948     		ldr	r0, .L112+4
 1003              		.loc 1 356 16 view .LVU380
 1004 0004 5968     		ldr	r1, [r3, #4]
 1005              		.loc 1 358 24 view .LVU381
 1006 0006 826E     		ldr	r2, [r0, #104]
 1007              		.loc 1 356 23 view .LVU382
 1008 0008 8909     		lsrs	r1, r1, #6
 1009              		.loc 1 356 9 view .LVU383
 1010 000a 01F03D01 		and	r1, r1, #61
 1011              	.LVL39:
 1012              		.loc 1 357 3 is_stmt 1 view .LVU384
 1013              		.loc 1 351 42 is_stmt 0 view .LVU385
 1014 000e 10B5     		push	{r4, lr}
 1015              		.cfi_def_cfa_offset 8
 1016              		.cfi_offset 4, -8
 1017              		.cfi_offset 14, -4
 1018              		.loc 1 357 23 view .LVU386
 1019 0010 8C01     		lsls	r4, r1, #6
 1020              		.loc 1 357 15 view .LVU387
 1021 0012 DC60     		str	r4, [r3, #12]
 1022              		.loc 1 358 3 is_stmt 1 view .LVU388
 1023              		.loc 1 358 6 is_stmt 0 view .LVU389
 1024 0014 0AB1     		cbz	r2, .L107
 1025              		.loc 1 359 5 is_stmt 1 view .LVU390
 1026 0016 C06E     		ldr	r0, [r0, #108]
ARM GAS  /tmp/ccbqudvp.s 			page 19


 1027 0018 9047     		blx	r2
 1028              	.LVL40:
 1029              	.L107:
 1030              		.loc 1 361 3 view .LVU391
 1031              		.loc 1 361 3 view .LVU392
 1032              		.loc 1 361 3 view .LVU393
 1033              		.loc 1 361 3 view .LVU394
 1034              		.loc 1 361 3 view .LVU395
 1035              		.loc 1 362 1 is_stmt 0 view .LVU396
 1036 001a BDE81040 		pop	{r4, lr}
 1037              		.cfi_restore 14
 1038              		.cfi_restore 4
 1039              		.cfi_def_cfa_offset 0
 1040              		.loc 1 361 3 view .LVU397
 1041 001e FFF7FEBF 		b	_port_irq_epilogue
 1042              	.LVL41:
 1043              	.L113:
 1044 0022 00BF     		.align	2
 1045              	.L112:
 1046 0024 00640240 		.word	1073898496
 1047 0028 00000000 		.word	.LANCHOR0
 1048              		.cfi_endproc
 1049              	.LFE290:
 1050              		.size	Vector150, .-Vector150
 1051              		.section	.text.Vector154,"ax",%progbits
 1052              		.align	1
 1053              		.p2align 4,,15
 1054              		.global	Vector154
 1055              		.syntax unified
 1056              		.thumb
 1057              		.thumb_func
 1058              		.fpu softvfp
 1059              		.type	Vector154, %function
 1060              	Vector154:
 1061              	.LFB291:
 1062              		.loc 1 369 42 is_stmt 1 view -0
 1063              		.cfi_startproc
 1064              		@ args = 0, pretend = 0, frame = 0
 1065              		@ frame_needed = 0, uses_anonymous_args = 0
 1066              		.loc 1 370 3 view .LVU399
 1067              		.loc 1 372 3 view .LVU400
 1068              		.loc 1 372 3 view .LVU401
 1069              		.loc 1 372 3 view .LVU402
 1070              		.loc 1 372 3 view .LVU403
 1071              		.loc 1 372 3 view .LVU404
 1072              		.loc 1 372 22 view .LVU405
 1073              		.loc 1 374 3 view .LVU406
 1074              		.loc 1 374 16 is_stmt 0 view .LVU407
 1075 0000 084B     		ldr	r3, .L120
 1076              		.loc 1 376 24 view .LVU408
 1077 0002 0948     		ldr	r0, .L120+4
 1078              		.loc 1 374 16 view .LVU409
 1079 0004 5968     		ldr	r1, [r3, #4]
 1080              		.loc 1 376 24 view .LVU410
 1081 0006 026F     		ldr	r2, [r0, #112]
 1082              		.loc 1 374 23 view .LVU411
 1083 0008 090C     		lsrs	r1, r1, #16
ARM GAS  /tmp/ccbqudvp.s 			page 20


 1084              		.loc 1 374 9 view .LVU412
 1085 000a 01F03D01 		and	r1, r1, #61
 1086              	.LVL42:
 1087              		.loc 1 375 3 is_stmt 1 view .LVU413
 1088              		.loc 1 369 42 is_stmt 0 view .LVU414
 1089 000e 10B5     		push	{r4, lr}
 1090              		.cfi_def_cfa_offset 8
 1091              		.cfi_offset 4, -8
 1092              		.cfi_offset 14, -4
 1093              		.loc 1 375 23 view .LVU415
 1094 0010 0C04     		lsls	r4, r1, #16
 1095              		.loc 1 375 15 view .LVU416
 1096 0012 DC60     		str	r4, [r3, #12]
 1097              		.loc 1 376 3 is_stmt 1 view .LVU417
 1098              		.loc 1 376 6 is_stmt 0 view .LVU418
 1099 0014 0AB1     		cbz	r2, .L115
 1100              		.loc 1 377 5 is_stmt 1 view .LVU419
 1101 0016 406F     		ldr	r0, [r0, #116]
 1102 0018 9047     		blx	r2
 1103              	.LVL43:
 1104              	.L115:
 1105              		.loc 1 379 3 view .LVU420
 1106              		.loc 1 379 3 view .LVU421
 1107              		.loc 1 379 3 view .LVU422
 1108              		.loc 1 379 3 view .LVU423
 1109              		.loc 1 379 3 view .LVU424
 1110              		.loc 1 380 1 is_stmt 0 view .LVU425
 1111 001a BDE81040 		pop	{r4, lr}
 1112              		.cfi_restore 14
 1113              		.cfi_restore 4
 1114              		.cfi_def_cfa_offset 0
 1115              		.loc 1 379 3 view .LVU426
 1116 001e FFF7FEBF 		b	_port_irq_epilogue
 1117              	.LVL44:
 1118              	.L121:
 1119 0022 00BF     		.align	2
 1120              	.L120:
 1121 0024 00640240 		.word	1073898496
 1122 0028 00000000 		.word	.LANCHOR0
 1123              		.cfi_endproc
 1124              	.LFE291:
 1125              		.size	Vector154, .-Vector154
 1126              		.section	.text.Vector158,"ax",%progbits
 1127              		.align	1
 1128              		.p2align 4,,15
 1129              		.global	Vector158
 1130              		.syntax unified
 1131              		.thumb
 1132              		.thumb_func
 1133              		.fpu softvfp
 1134              		.type	Vector158, %function
 1135              	Vector158:
 1136              	.LFB292:
 1137              		.loc 1 387 42 is_stmt 1 view -0
 1138              		.cfi_startproc
 1139              		@ args = 0, pretend = 0, frame = 0
 1140              		@ frame_needed = 0, uses_anonymous_args = 0
ARM GAS  /tmp/ccbqudvp.s 			page 21


 1141              		.loc 1 388 3 view .LVU428
 1142              		.loc 1 390 3 view .LVU429
 1143              		.loc 1 390 3 view .LVU430
 1144              		.loc 1 390 3 view .LVU431
 1145              		.loc 1 390 3 view .LVU432
 1146              		.loc 1 390 3 view .LVU433
 1147              		.loc 1 390 22 view .LVU434
 1148              		.loc 1 392 3 view .LVU435
 1149              		.loc 1 392 16 is_stmt 0 view .LVU436
 1150 0000 084B     		ldr	r3, .L128
 1151              		.loc 1 394 24 view .LVU437
 1152 0002 0948     		ldr	r0, .L128+4
 1153              		.loc 1 392 16 view .LVU438
 1154 0004 5968     		ldr	r1, [r3, #4]
 1155              		.loc 1 394 24 view .LVU439
 1156 0006 826F     		ldr	r2, [r0, #120]
 1157              		.loc 1 392 23 view .LVU440
 1158 0008 890D     		lsrs	r1, r1, #22
 1159              		.loc 1 392 9 view .LVU441
 1160 000a 01F03D01 		and	r1, r1, #61
 1161              	.LVL45:
 1162              		.loc 1 393 3 is_stmt 1 view .LVU442
 1163              		.loc 1 387 42 is_stmt 0 view .LVU443
 1164 000e 10B5     		push	{r4, lr}
 1165              		.cfi_def_cfa_offset 8
 1166              		.cfi_offset 4, -8
 1167              		.cfi_offset 14, -4
 1168              		.loc 1 393 23 view .LVU444
 1169 0010 8C05     		lsls	r4, r1, #22
 1170              		.loc 1 393 15 view .LVU445
 1171 0012 DC60     		str	r4, [r3, #12]
 1172              		.loc 1 394 3 is_stmt 1 view .LVU446
 1173              		.loc 1 394 6 is_stmt 0 view .LVU447
 1174 0014 0AB1     		cbz	r2, .L123
 1175              		.loc 1 395 5 is_stmt 1 view .LVU448
 1176 0016 C06F     		ldr	r0, [r0, #124]
 1177 0018 9047     		blx	r2
 1178              	.LVL46:
 1179              	.L123:
 1180              		.loc 1 397 3 view .LVU449
 1181              		.loc 1 397 3 view .LVU450
 1182              		.loc 1 397 3 view .LVU451
 1183              		.loc 1 397 3 view .LVU452
 1184              		.loc 1 397 3 view .LVU453
 1185              		.loc 1 398 1 is_stmt 0 view .LVU454
 1186 001a BDE81040 		pop	{r4, lr}
 1187              		.cfi_restore 14
 1188              		.cfi_restore 4
 1189              		.cfi_def_cfa_offset 0
 1190              		.loc 1 397 3 view .LVU455
 1191 001e FFF7FEBF 		b	_port_irq_epilogue
 1192              	.LVL47:
 1193              	.L129:
 1194 0022 00BF     		.align	2
 1195              	.L128:
 1196 0024 00640240 		.word	1073898496
 1197 0028 00000000 		.word	.LANCHOR0
ARM GAS  /tmp/ccbqudvp.s 			page 22


 1198              		.cfi_endproc
 1199              	.LFE292:
 1200              		.size	Vector158, .-Vector158
 1201              		.section	.text.dmaInit,"ax",%progbits
 1202              		.align	1
 1203              		.p2align 4,,15
 1204              		.global	dmaInit
 1205              		.syntax unified
 1206              		.thumb
 1207              		.thumb_func
 1208              		.fpu softvfp
 1209              		.type	dmaInit, %function
 1210              	dmaInit:
 1211              	.LFB293:
 1212              		.loc 1 409 20 is_stmt 1 view -0
 1213              		.cfi_startproc
 1214              		@ args = 0, pretend = 0, frame = 0
 1215              		@ frame_needed = 0, uses_anonymous_args = 0
 1216              		@ link register save eliminated.
 1217              		.loc 1 410 3 view .LVU457
 1218              		.loc 1 412 3 view .LVU458
 1219              		.loc 1 409 20 is_stmt 0 view .LVU459
 1220 0000 10B4     		push	{r4}
 1221              		.cfi_def_cfa_offset 4
 1222              		.cfi_offset 4, -4
 1223              		.loc 1 412 20 view .LVU460
 1224 0002 0E4C     		ldr	r4, .L136
 1225 0004 0E4A     		ldr	r2, .L136+4
 1226 0006 0F48     		ldr	r0, .L136+8
 1227 0008 0021     		movs	r1, #0
 1228 000a 2160     		str	r1, [r4]
 1229              		.loc 1 413 3 is_stmt 1 view .LVU461
 1230              	.LVL48:
 1231              		.loc 1 413 16 view .LVU462
 1232              		.loc 1 413 10 is_stmt 0 view .LVU463
 1233 000c 0B46     		mov	r3, r1
 1234 000e 0E4C     		ldr	r4, .L136+12
 1235 0010 01E0     		b	.L132
 1236              	.LVL49:
 1237              	.L135:
 1238              		.loc 1 414 26 view .LVU464
 1239 0012 52F80C0C 		ldr	r0, [r2, #-12]
 1240              	.LVL50:
 1241              	.L132:
 1242              		.loc 1 414 5 is_stmt 1 discriminator 3 view .LVU465
 1243              		.loc 1 414 38 is_stmt 0 discriminator 3 view .LVU466
 1244 0016 0160     		str	r1, [r0]
 1245              		.loc 1 415 5 is_stmt 1 discriminator 3 view .LVU467
 1246              		.loc 1 415 31 is_stmt 0 discriminator 3 view .LVU468
 1247 0018 44F83310 		str	r1, [r4, r3, lsl #3]
 1248              		.loc 1 413 39 is_stmt 1 discriminator 3 view .LVU469
 1249              		.loc 1 413 40 is_stmt 0 discriminator 3 view .LVU470
 1250 001c 0133     		adds	r3, r3, #1
 1251              	.LVL51:
 1252              		.loc 1 413 16 is_stmt 1 discriminator 3 view .LVU471
 1253              		.loc 1 413 3 is_stmt 0 discriminator 3 view .LVU472
 1254 001e 102B     		cmp	r3, #16
ARM GAS  /tmp/ccbqudvp.s 			page 23


 1255 0020 02F10C02 		add	r2, r2, #12
 1256 0024 F5D1     		bne	.L135
 1257              		.loc 1 417 3 is_stmt 1 view .LVU473
 1258              		.loc 1 417 15 is_stmt 0 view .LVU474
 1259 0026 0949     		ldr	r1, .L136+16
 1260              		.loc 1 419 15 view .LVU475
 1261 0028 094A     		ldr	r2, .L136+20
 1262              		.loc 1 421 1 view .LVU476
 1263 002a 10BC     		pop	{r4}
 1264              		.cfi_restore 4
 1265              		.cfi_def_cfa_offset 0
 1266              		.loc 1 417 15 view .LVU477
 1267 002c 4FF0FF33 		mov	r3, #-1
 1268              	.LVL52:
 1269              		.loc 1 417 15 view .LVU478
 1270 0030 8B60     		str	r3, [r1, #8]
 1271              		.loc 1 418 3 is_stmt 1 view .LVU479
 1272              		.loc 1 418 15 is_stmt 0 view .LVU480
 1273 0032 CB60     		str	r3, [r1, #12]
 1274              		.loc 1 419 3 is_stmt 1 view .LVU481
 1275              		.loc 1 419 15 is_stmt 0 view .LVU482
 1276 0034 9360     		str	r3, [r2, #8]
 1277              		.loc 1 420 3 is_stmt 1 view .LVU483
 1278              		.loc 1 420 15 is_stmt 0 view .LVU484
 1279 0036 D360     		str	r3, [r2, #12]
 1280              		.loc 1 421 1 view .LVU485
 1281 0038 7047     		bx	lr
 1282              	.L137:
 1283 003a 00BF     		.align	2
 1284              	.L136:
 1285 003c 00000000 		.word	.LANCHOR1
 1286 0040 0C000000 		.word	.LANCHOR2+12
 1287 0044 10600240 		.word	1073897488
 1288 0048 00000000 		.word	.LANCHOR0
 1289 004c 00600240 		.word	1073897472
 1290 0050 00640240 		.word	1073898496
 1291              		.cfi_endproc
 1292              	.LFE293:
 1293              		.size	dmaInit, .-dmaInit
 1294              		.section	.text.dmaStreamAllocate,"ax",%progbits
 1295              		.align	1
 1296              		.p2align 4,,15
 1297              		.global	dmaStreamAllocate
 1298              		.syntax unified
 1299              		.thumb
 1300              		.thumb_func
 1301              		.fpu softvfp
 1302              		.type	dmaStreamAllocate, %function
 1303              	dmaStreamAllocate:
 1304              	.LVL53:
 1305              	.LFB294:
 1306              		.loc 1 450 37 is_stmt 1 view -0
 1307              		.cfi_startproc
 1308              		@ args = 0, pretend = 0, frame = 0
 1309              		@ frame_needed = 0, uses_anonymous_args = 0
 1310              		.loc 1 452 3 view .LVU487
 1311              		.loc 1 452 3 view .LVU488
ARM GAS  /tmp/ccbqudvp.s 			page 24


 1312              		.loc 1 452 3 view .LVU489
 1313              		.loc 1 455 3 view .LVU490
 1314              		.loc 1 450 37 is_stmt 0 view .LVU491
 1315 0000 F8B5     		push	{r3, r4, r5, r6, r7, lr}
 1316              		.cfi_def_cfa_offset 24
 1317              		.cfi_offset 3, -24
 1318              		.cfi_offset 4, -20
 1319              		.cfi_offset 5, -16
 1320              		.cfi_offset 6, -12
 1321              		.cfi_offset 7, -8
 1322              		.cfi_offset 14, -4
 1323              		.loc 1 455 25 view .LVU492
 1324 0002 1E4E     		ldr	r6, .L154
 1325              		.loc 1 455 40 view .LVU493
 1326 0004 90F809C0 		ldrb	ip, [r0, #9]	@ zero_extendqisi2
 1327              		.loc 1 455 25 view .LVU494
 1328 0008 3768     		ldr	r7, [r6]
 1329              		.loc 1 455 31 view .LVU495
 1330 000a 0124     		movs	r4, #1
 1331 000c 04FA0CF5 		lsl	r5, r4, ip
 1332              		.loc 1 455 6 view .LVU496
 1333 0010 3D42     		tst	r5, r7
 1334 0012 30D1     		bne	.L143
 1335              		.loc 1 459 3 is_stmt 1 view .LVU497
 1336              		.loc 1 459 46 is_stmt 0 view .LVU498
 1337 0014 1A4C     		ldr	r4, .L154+4
 1338 0016 44F83C20 		str	r2, [r4, ip, lsl #3]
 1339              		.loc 1 460 3 is_stmt 1 view .LVU499
 1340              		.loc 1 460 46 is_stmt 0 view .LVU500
 1341 001a 04EBCC04 		add	r4, r4, ip, lsl #3
 1342              		.loc 1 461 20 view .LVU501
 1343 001e 3D43     		orrs	r5, r5, r7
 1344              		.loc 1 460 46 view .LVU502
 1345 0020 6360     		str	r3, [r4, #4]
 1346              		.loc 1 461 3 is_stmt 1 view .LVU503
 1347              		.loc 1 464 3 view .LVU504
 1348              		.loc 1 464 25 is_stmt 0 view .LVU505
 1349 0022 EBB2     		uxtb	r3, r5
 1350              	.LVL54:
 1351              		.loc 1 461 20 view .LVU506
 1352 0024 3560     		str	r5, [r6]
 1353              		.loc 1 464 6 view .LVU507
 1354 0026 23B1     		cbz	r3, .L140
 1355              		.loc 1 465 5 is_stmt 1 view .LVU508
 1356 0028 164C     		ldr	r4, .L154+8
 1357              	.LVL55:
 1358              		.loc 1 465 5 is_stmt 0 view .LVU509
 1359 002a 236B     		ldr	r3, [r4, #48]
 1360 002c 43F40013 		orr	r3, r3, #2097152
 1361 0030 2363     		str	r3, [r4, #48]
 1362              		.loc 1 465 5 is_stmt 1 view .LVU510
 1363              	.L140:
 1364              		.loc 1 465 25 discriminator 3 view .LVU511
 1365              		.loc 1 467 3 discriminator 3 view .LVU512
 1366              		.loc 1 467 6 is_stmt 0 discriminator 3 view .LVU513
 1367 0032 15F47F4F 		tst	r5, #65280
 1368 0036 16D1     		bne	.L153
ARM GAS  /tmp/ccbqudvp.s 			page 25


 1369              	.L141:
 1370              		.loc 1 468 25 is_stmt 1 discriminator 3 view .LVU514
 1371              		.loc 1 472 3 discriminator 3 view .LVU515
 1372 0038 0568     		ldr	r5, [r0]
 1373 003a 2B68     		ldr	r3, [r5]
 1374 003c 23F01F03 		bic	r3, r3, #31
 1375 0040 2B60     		str	r3, [r5]
 1376              		.loc 1 472 3 discriminator 3 view .LVU516
 1377              	.L142:
 1378              		.loc 1 472 3 discriminator 2 view .LVU517
 1379              		.loc 1 472 3 discriminator 2 view .LVU518
 1380 0042 2C68     		ldr	r4, [r5]
 1381 0044 14F00104 		ands	r4, r4, #1
 1382 0048 FBD1     		bne	.L142
 1383              		.loc 1 472 3 discriminator 3 view .LVU519
 1384 004a 077A     		ldrb	r7, [r0, #8]	@ zero_extendqisi2
 1385 004c 4668     		ldr	r6, [r0, #4]
 1386 004e 3D23     		movs	r3, #61
 1387 0050 BB40     		lsls	r3, r3, r7
 1388 0052 3360     		str	r3, [r6]
 1389              		.loc 1 472 3 discriminator 3 view .LVU520
 1390              		.loc 1 472 27 discriminator 3 view .LVU521
 1391              		.loc 1 473 3 discriminator 3 view .LVU522
 1392              		.loc 1 474 23 is_stmt 0 discriminator 3 view .LVU523
 1393 0054 2123     		movs	r3, #33
 1394              		.loc 1 473 22 discriminator 3 view .LVU524
 1395 0056 2C60     		str	r4, [r5]
 1396              		.loc 1 474 3 is_stmt 1 discriminator 3 view .LVU525
 1397              		.loc 1 474 23 is_stmt 0 discriminator 3 view .LVU526
 1398 0058 6B61     		str	r3, [r5, #20]
 1399              		.loc 1 477 3 is_stmt 1 discriminator 3 view .LVU527
 1400              		.loc 1 477 6 is_stmt 0 discriminator 3 view .LVU528
 1401 005a 52B1     		cbz	r2, .L144
 1402              		.loc 1 478 5 is_stmt 1 view .LVU529
 1403 005c 807A     		ldrb	r0, [r0, #10]	@ zero_extendqisi2
 1404              	.LVL56:
 1405              		.loc 1 478 5 is_stmt 0 view .LVU530
 1406 005e FFF7FEFF 		bl	nvicEnableVector
 1407              	.LVL57:
 1408              		.loc 1 481 10 view .LVU531
 1409 0062 2046     		mov	r0, r4
 1410              		.loc 1 482 1 view .LVU532
 1411 0064 F8BD     		pop	{r3, r4, r5, r6, r7, pc}
 1412              	.LVL58:
 1413              	.L153:
 1414              		.loc 1 468 5 is_stmt 1 view .LVU533
 1415 0066 074C     		ldr	r4, .L154+8
 1416 0068 236B     		ldr	r3, [r4, #48]
 1417 006a 43F48003 		orr	r3, r3, #4194304
 1418 006e 2363     		str	r3, [r4, #48]
 1419              		.loc 1 468 5 view .LVU534
 1420 0070 E2E7     		b	.L141
 1421              	.L144:
 1422              		.loc 1 481 10 is_stmt 0 view .LVU535
 1423 0072 1046     		mov	r0, r2
 1424              	.LVL59:
 1425              		.loc 1 482 1 view .LVU536
ARM GAS  /tmp/ccbqudvp.s 			page 26


 1426 0074 F8BD     		pop	{r3, r4, r5, r6, r7, pc}
 1427              	.LVL60:
 1428              	.L143:
 1429              		.loc 1 456 12 view .LVU537
 1430 0076 2046     		mov	r0, r4
 1431              	.LVL61:
 1432              		.loc 1 482 1 view .LVU538
 1433 0078 F8BD     		pop	{r3, r4, r5, r6, r7, pc}
 1434              	.LVL62:
 1435              	.L155:
 1436              		.loc 1 482 1 view .LVU539
 1437 007a 00BF     		.align	2
 1438              	.L154:
 1439 007c 00000000 		.word	.LANCHOR1
 1440 0080 00000000 		.word	.LANCHOR0
 1441 0084 00380240 		.word	1073887232
 1442              		.cfi_endproc
 1443              	.LFE294:
 1444              		.size	dmaStreamAllocate, .-dmaStreamAllocate
 1445              		.section	.text.dmaStreamRelease,"ax",%progbits
 1446              		.align	1
 1447              		.p2align 4,,15
 1448              		.global	dmaStreamRelease
 1449              		.syntax unified
 1450              		.thumb
 1451              		.thumb_func
 1452              		.fpu softvfp
 1453              		.type	dmaStreamRelease, %function
 1454              	dmaStreamRelease:
 1455              	.LVL63:
 1456              	.LFB295:
 1457              		.loc 1 497 57 is_stmt 1 view -0
 1458              		.cfi_startproc
 1459              		@ args = 0, pretend = 0, frame = 0
 1460              		@ frame_needed = 0, uses_anonymous_args = 0
 1461              		.loc 1 499 3 view .LVU541
 1462              		.loc 1 499 3 view .LVU542
 1463              		.loc 1 499 3 view .LVU543
 1464              		.loc 1 502 3 view .LVU544
 1465              		.loc 1 502 3 view .LVU545
 1466              		.loc 1 502 3 view .LVU546
 1467              		.loc 1 506 3 view .LVU547
 1468              		.loc 1 497 57 is_stmt 0 view .LVU548
 1469 0000 10B5     		push	{r4, lr}
 1470              		.cfi_def_cfa_offset 8
 1471              		.cfi_offset 4, -8
 1472              		.cfi_offset 14, -4
 1473              		.loc 1 497 57 view .LVU549
 1474 0002 0446     		mov	r4, r0
 1475              		.loc 1 506 3 view .LVU550
 1476 0004 807A     		ldrb	r0, [r0, #10]	@ zero_extendqisi2
 1477              	.LVL64:
 1478              		.loc 1 506 3 view .LVU551
 1479 0006 FFF7FEFF 		bl	nvicDisableVector
 1480              	.LVL65:
 1481              		.loc 1 509 3 is_stmt 1 view .LVU552
 1482              		.loc 1 509 20 is_stmt 0 view .LVU553
ARM GAS  /tmp/ccbqudvp.s 			page 27


 1483 000a 0C49     		ldr	r1, .L160
 1484              		.loc 1 509 37 view .LVU554
 1485 000c 607A     		ldrb	r0, [r4, #9]	@ zero_extendqisi2
 1486              		.loc 1 509 20 view .LVU555
 1487 000e 0B68     		ldr	r3, [r1]
 1488              		.loc 1 509 28 view .LVU556
 1489 0010 0122     		movs	r2, #1
 1490 0012 8240     		lsls	r2, r2, r0
 1491              		.loc 1 509 20 view .LVU557
 1492 0014 23EA0203 		bic	r3, r3, r2
 1493              		.loc 1 512 25 view .LVU558
 1494 0018 DAB2     		uxtb	r2, r3
 1495              		.loc 1 509 20 view .LVU559
 1496 001a 0B60     		str	r3, [r1]
 1497              		.loc 1 512 3 is_stmt 1 view .LVU560
 1498              		.loc 1 512 6 is_stmt 0 view .LVU561
 1499 001c 22B9     		cbnz	r2, .L157
 1500              		.loc 1 513 5 is_stmt 1 view .LVU562
 1501 001e 0849     		ldr	r1, .L160+4
 1502 0020 0A6B     		ldr	r2, [r1, #48]
 1503 0022 22F40012 		bic	r2, r2, #2097152
 1504 0026 0A63     		str	r2, [r1, #48]
 1505              		.loc 1 513 5 view .LVU563
 1506              	.L157:
 1507              		.loc 1 513 26 discriminator 3 view .LVU564
 1508              		.loc 1 515 3 discriminator 3 view .LVU565
 1509              		.loc 1 515 6 is_stmt 0 discriminator 3 view .LVU566
 1510 0028 13F47F4F 		tst	r3, #65280
 1511 002c 04D1     		bne	.L156
 1512              		.loc 1 516 5 is_stmt 1 view .LVU567
 1513 002e 044A     		ldr	r2, .L160+4
 1514 0030 136B     		ldr	r3, [r2, #48]
 1515 0032 23F48003 		bic	r3, r3, #4194304
 1516 0036 1363     		str	r3, [r2, #48]
 1517              		.loc 1 516 5 view .LVU568
 1518              		.loc 1 516 26 view .LVU569
 1519              	.L156:
 1520              		.loc 1 518 1 is_stmt 0 view .LVU570
 1521 0038 10BD     		pop	{r4, pc}
 1522              	.LVL66:
 1523              	.L161:
 1524              		.loc 1 518 1 view .LVU571
 1525 003a 00BF     		.align	2
 1526              	.L160:
 1527 003c 00000000 		.word	.LANCHOR1
 1528 0040 00380240 		.word	1073887232
 1529              		.cfi_endproc
 1530              	.LFE295:
 1531              		.size	dmaStreamRelease, .-dmaStreamRelease
 1532              		.global	_stm32_dma_streams
 1533              		.section	.bss.dma_isr_redir,"aw",%nobits
 1534              		.align	2
 1535              		.set	.LANCHOR0,. + 0
 1536              		.type	dma_isr_redir, %object
 1537              		.size	dma_isr_redir, 128
 1538              	dma_isr_redir:
 1539 0000 00000000 		.space	128
ARM GAS  /tmp/ccbqudvp.s 			page 28


 1539      00000000 
 1539      00000000 
 1539      00000000 
 1539      00000000 
 1540              		.section	.bss.dma_streams_mask,"aw",%nobits
 1541              		.align	2
 1542              		.set	.LANCHOR1,. + 0
 1543              		.type	dma_streams_mask, %object
 1544              		.size	dma_streams_mask, 4
 1545              	dma_streams_mask:
 1546 0000 00000000 		.space	4
 1547              		.section	.rodata._stm32_dma_streams,"a"
 1548              		.align	2
 1549              		.set	.LANCHOR2,. + 0
 1550              		.type	_stm32_dma_streams, %object
 1551              		.size	_stm32_dma_streams, 192
 1552              	_stm32_dma_streams:
 1553 0000 10600240 		.word	1073897488
 1554 0004 08600240 		.word	1073897480
 1555 0008 00       		.byte	0
 1556 0009 00       		.byte	0
 1557 000a 0B       		.byte	11
 1558 000b 00       		.space	1
 1559 000c 28600240 		.word	1073897512
 1560 0010 08600240 		.word	1073897480
 1561 0014 06       		.byte	6
 1562 0015 01       		.byte	1
 1563 0016 0C       		.byte	12
 1564 0017 00       		.space	1
 1565 0018 40600240 		.word	1073897536
 1566 001c 08600240 		.word	1073897480
 1567 0020 10       		.byte	16
 1568 0021 02       		.byte	2
 1569 0022 0D       		.byte	13
 1570 0023 00       		.space	1
 1571 0024 58600240 		.word	1073897560
 1572 0028 08600240 		.word	1073897480
 1573 002c 16       		.byte	22
 1574 002d 03       		.byte	3
 1575 002e 0E       		.byte	14
 1576 002f 00       		.space	1
 1577 0030 70600240 		.word	1073897584
 1578 0034 0C600240 		.word	1073897484
 1579 0038 00       		.byte	0
 1580 0039 04       		.byte	4
 1581 003a 0F       		.byte	15
 1582 003b 00       		.space	1
 1583 003c 88600240 		.word	1073897608
 1584 0040 0C600240 		.word	1073897484
 1585 0044 06       		.byte	6
 1586 0045 05       		.byte	5
 1587 0046 10       		.byte	16
 1588 0047 00       		.space	1
 1589 0048 A0600240 		.word	1073897632
 1590 004c 0C600240 		.word	1073897484
 1591 0050 10       		.byte	16
 1592 0051 06       		.byte	6
ARM GAS  /tmp/ccbqudvp.s 			page 29


 1593 0052 11       		.byte	17
 1594 0053 00       		.space	1
 1595 0054 B8600240 		.word	1073897656
 1596 0058 0C600240 		.word	1073897484
 1597 005c 16       		.byte	22
 1598 005d 07       		.byte	7
 1599 005e 2F       		.byte	47
 1600 005f 00       		.space	1
 1601 0060 10640240 		.word	1073898512
 1602 0064 08640240 		.word	1073898504
 1603 0068 00       		.byte	0
 1604 0069 08       		.byte	8
 1605 006a 38       		.byte	56
 1606 006b 00       		.space	1
 1607 006c 28640240 		.word	1073898536
 1608 0070 08640240 		.word	1073898504
 1609 0074 06       		.byte	6
 1610 0075 09       		.byte	9
 1611 0076 39       		.byte	57
 1612 0077 00       		.space	1
 1613 0078 40640240 		.word	1073898560
 1614 007c 08640240 		.word	1073898504
 1615 0080 10       		.byte	16
 1616 0081 0A       		.byte	10
 1617 0082 3A       		.byte	58
 1618 0083 00       		.space	1
 1619 0084 58640240 		.word	1073898584
 1620 0088 08640240 		.word	1073898504
 1621 008c 16       		.byte	22
 1622 008d 0B       		.byte	11
 1623 008e 3B       		.byte	59
 1624 008f 00       		.space	1
 1625 0090 70640240 		.word	1073898608
 1626 0094 0C640240 		.word	1073898508
 1627 0098 00       		.byte	0
 1628 0099 0C       		.byte	12
 1629 009a 3C       		.byte	60
 1630 009b 00       		.space	1
 1631 009c 88640240 		.word	1073898632
 1632 00a0 0C640240 		.word	1073898508
 1633 00a4 06       		.byte	6
 1634 00a5 0D       		.byte	13
 1635 00a6 44       		.byte	68
 1636 00a7 00       		.space	1
 1637 00a8 A0640240 		.word	1073898656
 1638 00ac 0C640240 		.word	1073898508
 1639 00b0 10       		.byte	16
 1640 00b1 0E       		.byte	14
 1641 00b2 45       		.byte	69
 1642 00b3 00       		.space	1
 1643 00b4 B8640240 		.word	1073898680
 1644 00b8 0C640240 		.word	1073898508
 1645 00bc 16       		.byte	22
 1646 00bd 0F       		.byte	15
 1647 00be 46       		.byte	70
 1648 00bf 00       		.space	1
 1649              		.text
ARM GAS  /tmp/ccbqudvp.s 			page 30


 1650              	.Letext0:
 1651              		.file 2 "/usr/lib/gcc/arm-none-eabi/10.3.1/include/stdint.h"
 1652              		.file 3 "../../../os/common/ext/CMSIS/ST/STM32F4xx/stm32f407xx.h"
 1653              		.file 4 "../../../os/hal/ports/STM32/LLD/DMAv2/stm32_dma.h"
 1654              		.file 5 "../../../os/hal/ports/common/ARMCMx/nvic.h"
 1655              		.file 6 "../../../os/common/ports/ARMCMx/chcore_v7m.h"
 1656              		.section	.debug_info,"",%progbits
 1657              	.Ldebug_info0:
 1658 0000 DE080000 		.4byte	0x8de
 1659 0004 0400     		.2byte	0x4
 1660 0006 00000000 		.4byte	.Ldebug_abbrev0
 1661 000a 04       		.byte	0x4
 1662 000b 01       		.uleb128 0x1
 1663 000c 54000000 		.4byte	.LASF91
 1664 0010 0C       		.byte	0xc
 1665 0011 D5020000 		.4byte	.LASF92
 1666 0015 10020000 		.4byte	.LASF93
 1667 0019 00000000 		.4byte	.Ldebug_ranges0+0
 1668 001d 00000000 		.4byte	0
 1669 0021 00000000 		.4byte	.Ldebug_line0
 1670 0025 02       		.uleb128 0x2
 1671 0026 04       		.byte	0x4
 1672 0027 05       		.byte	0x5
 1673 0028 696E7400 		.ascii	"int\000"
 1674 002c 03       		.uleb128 0x3
 1675 002d 04       		.byte	0x4
 1676 002e 07       		.byte	0x7
 1677 002f D7040000 		.4byte	.LASF0
 1678 0033 03       		.uleb128 0x3
 1679 0034 08       		.byte	0x8
 1680 0035 05       		.byte	0x5
 1681 0036 E2010000 		.4byte	.LASF1
 1682 003a 03       		.uleb128 0x3
 1683 003b 08       		.byte	0x8
 1684 003c 04       		.byte	0x4
 1685 003d C0010000 		.4byte	.LASF2
 1686 0041 03       		.uleb128 0x3
 1687 0042 01       		.byte	0x1
 1688 0043 06       		.byte	0x6
 1689 0044 07030000 		.4byte	.LASF3
 1690 0048 03       		.uleb128 0x3
 1691 0049 02       		.byte	0x2
 1692 004a 05       		.byte	0x5
 1693 004b 28010000 		.4byte	.LASF4
 1694 004f 03       		.uleb128 0x3
 1695 0050 04       		.byte	0x4
 1696 0051 05       		.byte	0x5
 1697 0052 F5010000 		.4byte	.LASF5
 1698 0056 04       		.uleb128 0x4
 1699 0057 A0010000 		.4byte	.LASF8
 1700 005b 02       		.byte	0x2
 1701 005c 2E       		.byte	0x2e
 1702 005d 18       		.byte	0x18
 1703 005e 62000000 		.4byte	0x62
 1704 0062 03       		.uleb128 0x3
 1705 0063 01       		.byte	0x1
 1706 0064 08       		.byte	0x8
ARM GAS  /tmp/ccbqudvp.s 			page 31


 1707 0065 7D020000 		.4byte	.LASF6
 1708 0069 03       		.uleb128 0x3
 1709 006a 02       		.byte	0x2
 1710 006b 07       		.byte	0x7
 1711 006c 7E030000 		.4byte	.LASF7
 1712 0070 04       		.uleb128 0x4
 1713 0071 30030000 		.4byte	.LASF9
 1714 0075 02       		.byte	0x2
 1715 0076 34       		.byte	0x34
 1716 0077 19       		.byte	0x19
 1717 0078 81000000 		.4byte	0x81
 1718 007c 05       		.uleb128 0x5
 1719 007d 70000000 		.4byte	0x70
 1720 0081 03       		.uleb128 0x3
 1721 0082 04       		.byte	0x4
 1722 0083 07       		.byte	0x7
 1723 0084 55030000 		.4byte	.LASF10
 1724 0088 03       		.uleb128 0x3
 1725 0089 08       		.byte	0x8
 1726 008a 07       		.byte	0x7
 1727 008b 19030000 		.4byte	.LASF11
 1728 008f 06       		.uleb128 0x6
 1729 0090 04       		.byte	0x4
 1730 0091 07       		.uleb128 0x7
 1731 0092 70000000 		.4byte	0x70
 1732 0096 A1000000 		.4byte	0xa1
 1733 009a 08       		.uleb128 0x8
 1734 009b 2C000000 		.4byte	0x2c
 1735 009f 01       		.byte	0x1
 1736 00a0 00       		.byte	0
 1737 00a1 09       		.uleb128 0x9
 1738 00a2 18       		.byte	0x18
 1739 00a3 03       		.byte	0x3
 1740 00a4 6A01     		.2byte	0x16a
 1741 00a6 09       		.byte	0x9
 1742 00a7 FF000000 		.4byte	0xff
 1743 00ab 0A       		.uleb128 0xa
 1744 00ac 435200   		.ascii	"CR\000"
 1745 00af 03       		.byte	0x3
 1746 00b0 6C01     		.2byte	0x16c
 1747 00b2 11       		.byte	0x11
 1748 00b3 7C000000 		.4byte	0x7c
 1749 00b7 00       		.byte	0
 1750 00b8 0B       		.uleb128 0xb
 1751 00b9 66040000 		.4byte	.LASF12
 1752 00bd 03       		.byte	0x3
 1753 00be 6D01     		.2byte	0x16d
 1754 00c0 11       		.byte	0x11
 1755 00c1 7C000000 		.4byte	0x7c
 1756 00c5 04       		.byte	0x4
 1757 00c6 0A       		.uleb128 0xa
 1758 00c7 50415200 		.ascii	"PAR\000"
 1759 00cb 03       		.byte	0x3
 1760 00cc 6E01     		.2byte	0x16e
 1761 00ce 11       		.byte	0x11
 1762 00cf 7C000000 		.4byte	0x7c
 1763 00d3 08       		.byte	0x8
ARM GAS  /tmp/ccbqudvp.s 			page 32


 1764 00d4 0B       		.uleb128 0xb
 1765 00d5 FA030000 		.4byte	.LASF13
 1766 00d9 03       		.byte	0x3
 1767 00da 6F01     		.2byte	0x16f
 1768 00dc 11       		.byte	0x11
 1769 00dd 7C000000 		.4byte	0x7c
 1770 00e1 0C       		.byte	0xc
 1771 00e2 0B       		.uleb128 0xb
 1772 00e3 9B030000 		.4byte	.LASF14
 1773 00e7 03       		.byte	0x3
 1774 00e8 7001     		.2byte	0x170
 1775 00ea 11       		.byte	0x11
 1776 00eb 7C000000 		.4byte	0x7c
 1777 00ef 10       		.byte	0x10
 1778 00f0 0A       		.uleb128 0xa
 1779 00f1 46435200 		.ascii	"FCR\000"
 1780 00f5 03       		.byte	0x3
 1781 00f6 7101     		.2byte	0x171
 1782 00f8 11       		.byte	0x11
 1783 00f9 7C000000 		.4byte	0x7c
 1784 00fd 14       		.byte	0x14
 1785 00fe 00       		.byte	0
 1786 00ff 0C       		.uleb128 0xc
 1787 0100 41000000 		.4byte	.LASF15
 1788 0104 03       		.byte	0x3
 1789 0105 7201     		.2byte	0x172
 1790 0107 03       		.byte	0x3
 1791 0108 A1000000 		.4byte	0xa1
 1792 010c 09       		.uleb128 0x9
 1793 010d 10       		.byte	0x10
 1794 010e 03       		.byte	0x3
 1795 010f 7401     		.2byte	0x174
 1796 0111 09       		.byte	0x9
 1797 0112 4F010000 		.4byte	0x14f
 1798 0116 0B       		.uleb128 0xb
 1799 0117 AF030000 		.4byte	.LASF16
 1800 011b 03       		.byte	0x3
 1801 011c 7601     		.2byte	0x176
 1802 011e 11       		.byte	0x11
 1803 011f 7C000000 		.4byte	0x7c
 1804 0123 00       		.byte	0
 1805 0124 0B       		.uleb128 0xb
 1806 0125 F0010000 		.4byte	.LASF17
 1807 0129 03       		.byte	0x3
 1808 012a 7701     		.2byte	0x177
 1809 012c 11       		.byte	0x11
 1810 012d 7C000000 		.4byte	0x7c
 1811 0131 04       		.byte	0x4
 1812 0132 0B       		.uleb128 0xb
 1813 0133 11040000 		.4byte	.LASF18
 1814 0137 03       		.byte	0x3
 1815 0138 7801     		.2byte	0x178
 1816 013a 11       		.byte	0x11
 1817 013b 7C000000 		.4byte	0x7c
 1818 013f 08       		.byte	0x8
 1819 0140 0B       		.uleb128 0xb
 1820 0141 98040000 		.4byte	.LASF19
ARM GAS  /tmp/ccbqudvp.s 			page 33


 1821 0145 03       		.byte	0x3
 1822 0146 7901     		.2byte	0x179
 1823 0148 11       		.byte	0x11
 1824 0149 7C000000 		.4byte	0x7c
 1825 014d 0C       		.byte	0xc
 1826 014e 00       		.byte	0
 1827 014f 0C       		.uleb128 0xc
 1828 0150 63010000 		.4byte	.LASF20
 1829 0154 03       		.byte	0x3
 1830 0155 7A01     		.2byte	0x17a
 1831 0157 03       		.byte	0x3
 1832 0158 0C010000 		.4byte	0x10c
 1833 015c 09       		.uleb128 0x9
 1834 015d 88       		.byte	0x88
 1835 015e 03       		.byte	0x3
 1836 015f 6502     		.2byte	0x265
 1837 0161 09       		.byte	0x9
 1838 0162 0A030000 		.4byte	0x30a
 1839 0166 0A       		.uleb128 0xa
 1840 0167 435200   		.ascii	"CR\000"
 1841 016a 03       		.byte	0x3
 1842 016b 6702     		.2byte	0x267
 1843 016d 11       		.byte	0x11
 1844 016e 7C000000 		.4byte	0x7c
 1845 0172 00       		.byte	0
 1846 0173 0B       		.uleb128 0xb
 1847 0174 76030000 		.4byte	.LASF21
 1848 0178 03       		.byte	0x3
 1849 0179 6802     		.2byte	0x268
 1850 017b 11       		.byte	0x11
 1851 017c 7C000000 		.4byte	0x7c
 1852 0180 04       		.byte	0x4
 1853 0181 0B       		.uleb128 0xb
 1854 0182 88010000 		.4byte	.LASF22
 1855 0186 03       		.byte	0x3
 1856 0187 6902     		.2byte	0x269
 1857 0189 11       		.byte	0x11
 1858 018a 7C000000 		.4byte	0x7c
 1859 018e 08       		.byte	0x8
 1860 018f 0A       		.uleb128 0xa
 1861 0190 43495200 		.ascii	"CIR\000"
 1862 0194 03       		.byte	0x3
 1863 0195 6A02     		.2byte	0x26a
 1864 0197 11       		.byte	0x11
 1865 0198 7C000000 		.4byte	0x7c
 1866 019c 0C       		.byte	0xc
 1867 019d 0B       		.uleb128 0xb
 1868 019e 67030000 		.4byte	.LASF23
 1869 01a2 03       		.byte	0x3
 1870 01a3 6B02     		.2byte	0x26b
 1871 01a5 11       		.byte	0x11
 1872 01a6 7C000000 		.4byte	0x7c
 1873 01aa 10       		.byte	0x10
 1874 01ab 0B       		.uleb128 0xb
 1875 01ac 4C030000 		.4byte	.LASF24
 1876 01b0 03       		.byte	0x3
 1877 01b1 6C02     		.2byte	0x26c
ARM GAS  /tmp/ccbqudvp.s 			page 34


 1878 01b3 11       		.byte	0x11
 1879 01b4 7C000000 		.4byte	0x7c
 1880 01b8 14       		.byte	0x14
 1881 01b9 0B       		.uleb128 0xb
 1882 01ba AC040000 		.4byte	.LASF25
 1883 01be 03       		.byte	0x3
 1884 01bf 6D02     		.2byte	0x26d
 1885 01c1 11       		.byte	0x11
 1886 01c2 7C000000 		.4byte	0x7c
 1887 01c6 18       		.byte	0x18
 1888 01c7 0B       		.uleb128 0xb
 1889 01c8 17040000 		.4byte	.LASF26
 1890 01cc 03       		.byte	0x3
 1891 01cd 6E02     		.2byte	0x26e
 1892 01cf 11       		.byte	0x11
 1893 01d0 70000000 		.4byte	0x70
 1894 01d4 1C       		.byte	0x1c
 1895 01d5 0B       		.uleb128 0xb
 1896 01d6 16000000 		.4byte	.LASF27
 1897 01da 03       		.byte	0x3
 1898 01db 6F02     		.2byte	0x26f
 1899 01dd 11       		.byte	0x11
 1900 01de 7C000000 		.4byte	0x7c
 1901 01e2 20       		.byte	0x20
 1902 01e3 0B       		.uleb128 0xb
 1903 01e4 6A020000 		.4byte	.LASF28
 1904 01e8 03       		.byte	0x3
 1905 01e9 7002     		.2byte	0x270
 1906 01eb 11       		.byte	0x11
 1907 01ec 7C000000 		.4byte	0x7c
 1908 01f0 24       		.byte	0x24
 1909 01f1 0B       		.uleb128 0xb
 1910 01f2 21040000 		.4byte	.LASF29
 1911 01f6 03       		.byte	0x3
 1912 01f7 7102     		.2byte	0x271
 1913 01f9 11       		.byte	0x11
 1914 01fa 91000000 		.4byte	0x91
 1915 01fe 28       		.byte	0x28
 1916 01ff 0B       		.uleb128 0xb
 1917 0200 6B040000 		.4byte	.LASF30
 1918 0204 03       		.byte	0x3
 1919 0205 7202     		.2byte	0x272
 1920 0207 11       		.byte	0x11
 1921 0208 7C000000 		.4byte	0x7c
 1922 020c 30       		.byte	0x30
 1923 020d 0B       		.uleb128 0xb
 1924 020e 30000000 		.4byte	.LASF31
 1925 0212 03       		.byte	0x3
 1926 0213 7302     		.2byte	0x273
 1927 0215 11       		.byte	0x11
 1928 0216 7C000000 		.4byte	0x7c
 1929 021a 34       		.byte	0x34
 1930 021b 0B       		.uleb128 0xb
 1931 021c CC010000 		.4byte	.LASF32
 1932 0220 03       		.byte	0x3
 1933 0221 7402     		.2byte	0x274
 1934 0223 11       		.byte	0x11
ARM GAS  /tmp/ccbqudvp.s 			page 35


 1935 0224 7C000000 		.4byte	0x7c
 1936 0228 38       		.byte	0x38
 1937 0229 0B       		.uleb128 0xb
 1938 022a 2B040000 		.4byte	.LASF33
 1939 022e 03       		.byte	0x3
 1940 022f 7502     		.2byte	0x275
 1941 0231 11       		.byte	0x11
 1942 0232 70000000 		.4byte	0x70
 1943 0236 3C       		.byte	0x3c
 1944 0237 0B       		.uleb128 0xb
 1945 0238 A8010000 		.4byte	.LASF34
 1946 023c 03       		.byte	0x3
 1947 023d 7602     		.2byte	0x276
 1948 023f 11       		.byte	0x11
 1949 0240 7C000000 		.4byte	0x7c
 1950 0244 40       		.byte	0x40
 1951 0245 0B       		.uleb128 0xb
 1952 0246 CD020000 		.4byte	.LASF35
 1953 024a 03       		.byte	0x3
 1954 024b 7702     		.2byte	0x277
 1955 024d 11       		.byte	0x11
 1956 024e 7C000000 		.4byte	0x7c
 1957 0252 44       		.byte	0x44
 1958 0253 0B       		.uleb128 0xb
 1959 0254 35040000 		.4byte	.LASF36
 1960 0258 03       		.byte	0x3
 1961 0259 7802     		.2byte	0x278
 1962 025b 11       		.byte	0x11
 1963 025c 91000000 		.4byte	0x91
 1964 0260 48       		.byte	0x48
 1965 0261 0B       		.uleb128 0xb
 1966 0262 00000000 		.4byte	.LASF37
 1967 0266 03       		.byte	0x3
 1968 0267 7902     		.2byte	0x279
 1969 0269 11       		.byte	0x11
 1970 026a 7C000000 		.4byte	0x7c
 1971 026e 50       		.byte	0x50
 1972 026f 0B       		.uleb128 0xb
 1973 0270 FF030000 		.4byte	.LASF38
 1974 0274 03       		.byte	0x3
 1975 0275 7A02     		.2byte	0x27a
 1976 0277 11       		.byte	0x11
 1977 0278 7C000000 		.4byte	0x7c
 1978 027c 54       		.byte	0x54
 1979 027d 0B       		.uleb128 0xb
 1980 027e 7E010000 		.4byte	.LASF39
 1981 0282 03       		.byte	0x3
 1982 0283 7B02     		.2byte	0x27b
 1983 0285 11       		.byte	0x11
 1984 0286 7C000000 		.4byte	0x7c
 1985 028a 58       		.byte	0x58
 1986 028b 0B       		.uleb128 0xb
 1987 028c 3F040000 		.4byte	.LASF40
 1988 0290 03       		.byte	0x3
 1989 0291 7C02     		.2byte	0x27c
 1990 0293 11       		.byte	0x11
 1991 0294 70000000 		.4byte	0x70
ARM GAS  /tmp/ccbqudvp.s 			page 36


 1992 0298 5C       		.byte	0x5c
 1993 0299 0B       		.uleb128 0xb
 1994 029a 91030000 		.4byte	.LASF41
 1995 029e 03       		.byte	0x3
 1996 029f 7D02     		.2byte	0x27d
 1997 02a1 11       		.byte	0x11
 1998 02a2 7C000000 		.4byte	0x7c
 1999 02a6 60       		.byte	0x60
 2000 02a7 0B       		.uleb128 0xb
 2001 02a8 E9040000 		.4byte	.LASF42
 2002 02ac 03       		.byte	0x3
 2003 02ad 7E02     		.2byte	0x27e
 2004 02af 11       		.byte	0x11
 2005 02b0 7C000000 		.4byte	0x7c
 2006 02b4 64       		.byte	0x64
 2007 02b5 0B       		.uleb128 0xb
 2008 02b6 49040000 		.4byte	.LASF43
 2009 02ba 03       		.byte	0x3
 2010 02bb 7F02     		.2byte	0x27f
 2011 02bd 11       		.byte	0x11
 2012 02be 91000000 		.4byte	0x91
 2013 02c2 68       		.byte	0x68
 2014 02c3 0B       		.uleb128 0xb
 2015 02c4 4A010000 		.4byte	.LASF44
 2016 02c8 03       		.byte	0x3
 2017 02c9 8002     		.2byte	0x280
 2018 02cb 11       		.byte	0x11
 2019 02cc 7C000000 		.4byte	0x7c
 2020 02d0 70       		.byte	0x70
 2021 02d1 0A       		.uleb128 0xa
 2022 02d2 43535200 		.ascii	"CSR\000"
 2023 02d6 03       		.byte	0x3
 2024 02d7 8102     		.2byte	0x281
 2025 02d9 11       		.byte	0x11
 2026 02da 7C000000 		.4byte	0x7c
 2027 02de 74       		.byte	0x74
 2028 02df 0B       		.uleb128 0xb
 2029 02e0 53040000 		.4byte	.LASF45
 2030 02e4 03       		.byte	0x3
 2031 02e5 8202     		.2byte	0x282
 2032 02e7 11       		.byte	0x11
 2033 02e8 91000000 		.4byte	0x91
 2034 02ec 78       		.byte	0x78
 2035 02ed 0B       		.uleb128 0xb
 2036 02ee 6F010000 		.4byte	.LASF46
 2037 02f2 03       		.byte	0x3
 2038 02f3 8302     		.2byte	0x283
 2039 02f5 11       		.byte	0x11
 2040 02f6 7C000000 		.4byte	0x7c
 2041 02fa 80       		.byte	0x80
 2042 02fb 0B       		.uleb128 0xb
 2043 02fc 4F010000 		.4byte	.LASF47
 2044 0300 03       		.byte	0x3
 2045 0301 8402     		.2byte	0x284
 2046 0303 11       		.byte	0x11
 2047 0304 7C000000 		.4byte	0x7c
 2048 0308 84       		.byte	0x84
ARM GAS  /tmp/ccbqudvp.s 			page 37


 2049 0309 00       		.byte	0
 2050 030a 0C       		.uleb128 0xc
 2051 030b 0A000000 		.4byte	.LASF48
 2052 030f 03       		.byte	0x3
 2053 0310 8502     		.2byte	0x285
 2054 0312 03       		.byte	0x3
 2055 0313 5C010000 		.4byte	0x15c
 2056 0317 03       		.uleb128 0x3
 2057 0318 01       		.byte	0x1
 2058 0319 08       		.byte	0x8
 2059 031a AA030000 		.4byte	.LASF49
 2060 031e 0D       		.uleb128 0xd
 2061 031f 17030000 		.4byte	0x317
 2062 0323 03       		.uleb128 0x3
 2063 0324 01       		.byte	0x1
 2064 0325 02       		.byte	0x2
 2065 0326 E0030000 		.4byte	.LASF50
 2066 032a 09       		.uleb128 0x9
 2067 032b 0C       		.byte	0xc
 2068 032c 04       		.byte	0x4
 2069 032d 6D01     		.2byte	0x16d
 2070 032f 09       		.byte	0x9
 2071 0330 7B030000 		.4byte	0x37b
 2072 0334 0B       		.uleb128 0xb
 2073 0335 63020000 		.4byte	.LASF51
 2074 0339 04       		.byte	0x4
 2075 033a 6E01     		.2byte	0x16e
 2076 033c 1A       		.byte	0x1a
 2077 033d 7B030000 		.4byte	0x37b
 2078 0341 00       		.byte	0
 2079 0342 0B       		.uleb128 0xb
 2080 0343 E4040000 		.4byte	.LASF52
 2081 0347 04       		.byte	0x4
 2082 0348 6F01     		.2byte	0x16f
 2083 034a 1A       		.byte	0x1a
 2084 034b 81030000 		.4byte	0x381
 2085 034f 04       		.byte	0x4
 2086 0350 0B       		.uleb128 0xb
 2087 0351 C6040000 		.4byte	.LASF53
 2088 0355 04       		.byte	0x4
 2089 0356 7001     		.2byte	0x170
 2090 0358 19       		.byte	0x19
 2091 0359 56000000 		.4byte	0x56
 2092 035d 08       		.byte	0x8
 2093 035e 0B       		.uleb128 0xb
 2094 035f 39030000 		.4byte	.LASF54
 2095 0363 04       		.byte	0x4
 2096 0364 7201     		.2byte	0x172
 2097 0366 19       		.byte	0x19
 2098 0367 56000000 		.4byte	0x56
 2099 036b 09       		.byte	0x9
 2100 036c 0B       		.uleb128 0xb
 2101 036d B0010000 		.4byte	.LASF55
 2102 0371 04       		.byte	0x4
 2103 0372 7301     		.2byte	0x173
 2104 0374 19       		.byte	0x19
 2105 0375 56000000 		.4byte	0x56
ARM GAS  /tmp/ccbqudvp.s 			page 38


 2106 0379 0A       		.byte	0xa
 2107 037a 00       		.byte	0
 2108 037b 0E       		.uleb128 0xe
 2109 037c 04       		.byte	0x4
 2110 037d FF000000 		.4byte	0xff
 2111 0381 0E       		.uleb128 0xe
 2112 0382 04       		.byte	0x4
 2113 0383 7C000000 		.4byte	0x7c
 2114 0387 0C       		.uleb128 0xc
 2115 0388 8D010000 		.4byte	.LASF56
 2116 038c 04       		.byte	0x4
 2117 038d 7401     		.2byte	0x174
 2118 038f 03       		.byte	0x3
 2119 0390 2A030000 		.4byte	0x32a
 2120 0394 0D       		.uleb128 0xd
 2121 0395 87030000 		.4byte	0x387
 2122 0399 0C       		.uleb128 0xc
 2123 039a D1030000 		.4byte	.LASF57
 2124 039e 04       		.byte	0x4
 2125 039f 7D01     		.2byte	0x17d
 2126 03a1 10       		.byte	0x10
 2127 03a2 A6030000 		.4byte	0x3a6
 2128 03a6 0E       		.uleb128 0xe
 2129 03a7 04       		.byte	0x4
 2130 03a8 AC030000 		.4byte	0x3ac
 2131 03ac 0F       		.uleb128 0xf
 2132 03ad BC030000 		.4byte	0x3bc
 2133 03b1 10       		.uleb128 0x10
 2134 03b2 8F000000 		.4byte	0x8f
 2135 03b6 10       		.uleb128 0x10
 2136 03b7 70000000 		.4byte	0x70
 2137 03bb 00       		.byte	0
 2138 03bc 07       		.uleb128 0x7
 2139 03bd 94030000 		.4byte	0x394
 2140 03c1 CC030000 		.4byte	0x3cc
 2141 03c5 08       		.uleb128 0x8
 2142 03c6 2C000000 		.4byte	0x2c
 2143 03ca 0F       		.byte	0xf
 2144 03cb 00       		.byte	0
 2145 03cc 0D       		.uleb128 0xd
 2146 03cd BC030000 		.4byte	0x3bc
 2147 03d1 11       		.uleb128 0x11
 2148 03d2 73040000 		.4byte	.LASF70
 2149 03d6 04       		.byte	0x4
 2150 03d7 9202     		.2byte	0x292
 2151 03d9 21       		.byte	0x21
 2152 03da CC030000 		.4byte	0x3cc
 2153 03de 0E       		.uleb128 0xe
 2154 03df 04       		.byte	0x4
 2155 03e0 94030000 		.4byte	0x394
 2156 03e4 12       		.uleb128 0x12
 2157 03e5 D1030000 		.4byte	0x3d1
 2158 03e9 01       		.byte	0x1
 2159 03ea 3F       		.byte	0x3f
 2160 03eb 1A       		.byte	0x1a
 2161 03ec 05       		.uleb128 0x5
 2162 03ed 03       		.byte	0x3
ARM GAS  /tmp/ccbqudvp.s 			page 39


 2163 03ee 00000000 		.4byte	_stm32_dma_streams
 2164 03f2 13       		.uleb128 0x13
 2165 03f3 08       		.byte	0x8
 2166 03f4 01       		.byte	0x1
 2167 03f5 59       		.byte	0x59
 2168 03f6 09       		.byte	0x9
 2169 03f7 16040000 		.4byte	0x416
 2170 03fb 14       		.uleb128 0x14
 2171 03fc BA020000 		.4byte	.LASF58
 2172 0400 01       		.byte	0x1
 2173 0401 5A       		.byte	0x5a
 2174 0402 19       		.byte	0x19
 2175 0403 99030000 		.4byte	0x399
 2176 0407 00       		.byte	0
 2177 0408 14       		.uleb128 0x14
 2178 0409 F0030000 		.4byte	.LASF59
 2179 040d 01       		.byte	0x1
 2180 040e 5B       		.byte	0x5b
 2181 040f 1A       		.byte	0x1a
 2182 0410 8F000000 		.4byte	0x8f
 2183 0414 04       		.byte	0x4
 2184 0415 00       		.byte	0
 2185 0416 04       		.uleb128 0x4
 2186 0417 53020000 		.4byte	.LASF60
 2187 041b 01       		.byte	0x1
 2188 041c 5C       		.byte	0x5c
 2189 041d 03       		.byte	0x3
 2190 041e F2030000 		.4byte	0x3f2
 2191 0422 15       		.uleb128 0x15
 2192 0423 B5040000 		.4byte	.LASF61
 2193 0427 01       		.byte	0x1
 2194 0428 61       		.byte	0x61
 2195 0429 11       		.byte	0x11
 2196 042a 70000000 		.4byte	0x70
 2197 042e 05       		.uleb128 0x5
 2198 042f 03       		.byte	0x3
 2199 0430 00000000 		.4byte	dma_streams_mask
 2200 0434 07       		.uleb128 0x7
 2201 0435 16040000 		.4byte	0x416
 2202 0439 44040000 		.4byte	0x444
 2203 043d 08       		.uleb128 0x8
 2204 043e 2C000000 		.4byte	0x2c
 2205 0442 0F       		.byte	0xf
 2206 0443 00       		.byte	0
 2207 0444 15       		.uleb128 0x15
 2208 0445 9E040000 		.4byte	.LASF62
 2209 0449 01       		.byte	0x1
 2210 044a 66       		.byte	0x66
 2211 044b 18       		.byte	0x18
 2212 044c 34040000 		.4byte	0x434
 2213 0450 05       		.uleb128 0x5
 2214 0451 03       		.byte	0x3
 2215 0452 00000000 		.4byte	dma_isr_redir
 2216 0456 16       		.uleb128 0x16
 2217 0457 39010000 		.4byte	.LASF68
 2218 045b 01       		.byte	0x1
 2219 045c F101     		.2byte	0x1f1
ARM GAS  /tmp/ccbqudvp.s 			page 40


 2220 045e 06       		.byte	0x6
 2221 045f 00000000 		.4byte	.LFB295
 2222 0463 44000000 		.4byte	.LFE295-.LFB295
 2223 0467 01       		.uleb128 0x1
 2224 0468 9C       		.byte	0x9c
 2225 0469 95040000 		.4byte	0x495
 2226 046d 17       		.uleb128 0x17
 2227 046e 32010000 		.4byte	.LASF63
 2228 0472 01       		.byte	0x1
 2229 0473 F101     		.2byte	0x1f1
 2230 0475 31       		.byte	0x31
 2231 0476 DE030000 		.4byte	0x3de
 2232 047a 06000000 		.4byte	.LLST21
 2233 047e 00000000 		.4byte	.LVUS21
 2234 0482 18       		.uleb128 0x18
 2235 0483 B1020000 		.4byte	.LASF67
 2236 0487 A5040000 		.4byte	0x4a5
 2237 048b 19       		.uleb128 0x19
 2238 048c 0A000000 		.4byte	.LVL65
 2239 0490 BC080000 		.4byte	0x8bc
 2240 0494 00       		.byte	0
 2241 0495 07       		.uleb128 0x7
 2242 0496 1E030000 		.4byte	0x31e
 2243 049a A5040000 		.4byte	0x4a5
 2244 049e 08       		.uleb128 0x8
 2245 049f 2C000000 		.4byte	0x2c
 2246 04a3 10       		.byte	0x10
 2247 04a4 00       		.byte	0
 2248 04a5 0D       		.uleb128 0xd
 2249 04a6 95040000 		.4byte	0x495
 2250 04aa 1A       		.uleb128 0x1a
 2251 04ab 86040000 		.4byte	.LASF94
 2252 04af 01       		.byte	0x1
 2253 04b0 BF01     		.2byte	0x1bf
 2254 04b2 06       		.byte	0x6
 2255 04b3 23030000 		.4byte	0x323
 2256 04b7 00000000 		.4byte	.LFB294
 2257 04bb 88000000 		.4byte	.LFE294-.LFB294
 2258 04bf 01       		.uleb128 0x1
 2259 04c0 9C       		.byte	0x9c
 2260 04c1 2C050000 		.4byte	0x52c
 2261 04c5 17       		.uleb128 0x17
 2262 04c6 32010000 		.4byte	.LASF63
 2263 04ca 01       		.byte	0x1
 2264 04cb BF01     		.2byte	0x1bf
 2265 04cd 32       		.byte	0x32
 2266 04ce DE030000 		.4byte	0x3de
 2267 04d2 3E000000 		.4byte	.LLST17
 2268 04d6 32000000 		.4byte	.LVUS17
 2269 04da 17       		.uleb128 0x17
 2270 04db 38000000 		.4byte	.LASF64
 2271 04df 01       		.byte	0x1
 2272 04e0 C001     		.2byte	0x1c0
 2273 04e2 21       		.byte	0x21
 2274 04e3 70000000 		.4byte	0x70
 2275 04e7 97000000 		.4byte	.LLST18
 2276 04eb 91000000 		.4byte	.LVUS18
ARM GAS  /tmp/ccbqudvp.s 			page 41


 2277 04ef 17       		.uleb128 0x17
 2278 04f0 D4010000 		.4byte	.LASF65
 2279 04f4 01       		.byte	0x1
 2280 04f5 C101     		.2byte	0x1c1
 2281 04f7 27       		.byte	0x27
 2282 04f8 99030000 		.4byte	0x399
 2283 04fc C9000000 		.4byte	.LLST19
 2284 0500 C3000000 		.4byte	.LVUS19
 2285 0504 17       		.uleb128 0x17
 2286 0505 70030000 		.4byte	.LASF66
 2287 0509 01       		.byte	0x1
 2288 050a C201     		.2byte	0x1c2
 2289 050c 1E       		.byte	0x1e
 2290 050d 8F000000 		.4byte	0x8f
 2291 0511 03010000 		.4byte	.LLST20
 2292 0515 F5000000 		.4byte	.LVUS20
 2293 0519 18       		.uleb128 0x18
 2294 051a B1020000 		.4byte	.LASF67
 2295 051e 3C050000 		.4byte	0x53c
 2296 0522 19       		.uleb128 0x19
 2297 0523 62000000 		.4byte	.LVL57
 2298 0527 C8080000 		.4byte	0x8c8
 2299 052b 00       		.byte	0
 2300 052c 07       		.uleb128 0x7
 2301 052d 1E030000 		.4byte	0x31e
 2302 0531 3C050000 		.4byte	0x53c
 2303 0535 08       		.uleb128 0x8
 2304 0536 2C000000 		.4byte	0x2c
 2305 053a 11       		.byte	0x11
 2306 053b 00       		.byte	0
 2307 053c 0D       		.uleb128 0xd
 2308 053d 2C050000 		.4byte	0x52c
 2309 0541 16       		.uleb128 0x16
 2310 0542 09040000 		.4byte	.LASF69
 2311 0546 01       		.byte	0x1
 2312 0547 9901     		.2byte	0x199
 2313 0549 06       		.byte	0x6
 2314 054a 00000000 		.4byte	.LFB293
 2315 054e 54000000 		.4byte	.LFE293-.LFB293
 2316 0552 01       		.uleb128 0x1
 2317 0553 9C       		.byte	0x9c
 2318 0554 6C050000 		.4byte	0x56c
 2319 0558 1B       		.uleb128 0x1b
 2320 0559 6900     		.ascii	"i\000"
 2321 055b 01       		.byte	0x1
 2322 055c 9A01     		.2byte	0x19a
 2323 055e 0C       		.byte	0xc
 2324 055f 2C000000 		.4byte	0x2c
 2325 0563 75010000 		.4byte	.LLST16
 2326 0567 71010000 		.4byte	.LVUS16
 2327 056b 00       		.byte	0
 2328 056c 1C       		.uleb128 0x1c
 2329 056d C3020000 		.4byte	.LASF71
 2330 0571 01       		.byte	0x1
 2331 0572 8301     		.2byte	0x183
 2332 0574 01       		.byte	0x1
 2333 0575 00000000 		.4byte	.LFB292
ARM GAS  /tmp/ccbqudvp.s 			page 42


 2334 0579 2C000000 		.4byte	.LFE292-.LFB292
 2335 057d 01       		.uleb128 0x1
 2336 057e 9C       		.byte	0x9c
 2337 057f A2050000 		.4byte	0x5a2
 2338 0583 1D       		.uleb128 0x1d
 2339 0584 13030000 		.4byte	.LASF72
 2340 0588 01       		.byte	0x1
 2341 0589 8401     		.2byte	0x184
 2342 058b 0C       		.byte	0xc
 2343 058c 70000000 		.4byte	0x70
 2344 0590 96010000 		.4byte	.LLST15
 2345 0594 94010000 		.4byte	.LVUS15
 2346 0598 1E       		.uleb128 0x1e
 2347 0599 22000000 		.4byte	.LVL47
 2348 059d D4080000 		.4byte	0x8d4
 2349 05a1 00       		.byte	0
 2350 05a2 1C       		.uleb128 0x1c
 2351 05a3 94020000 		.4byte	.LASF73
 2352 05a7 01       		.byte	0x1
 2353 05a8 7101     		.2byte	0x171
 2354 05aa 01       		.byte	0x1
 2355 05ab 00000000 		.4byte	.LFB291
 2356 05af 2C000000 		.4byte	.LFE291-.LFB291
 2357 05b3 01       		.uleb128 0x1
 2358 05b4 9C       		.byte	0x9c
 2359 05b5 D8050000 		.4byte	0x5d8
 2360 05b9 1D       		.uleb128 0x1d
 2361 05ba 13030000 		.4byte	.LASF72
 2362 05be 01       		.byte	0x1
 2363 05bf 7201     		.2byte	0x172
 2364 05c1 0C       		.byte	0xc
 2365 05c2 70000000 		.4byte	0x70
 2366 05c6 AB010000 		.4byte	.LLST14
 2367 05ca A9010000 		.4byte	.LVUS14
 2368 05ce 1E       		.uleb128 0x1e
 2369 05cf 22000000 		.4byte	.LVL44
 2370 05d3 D4080000 		.4byte	0x8d4
 2371 05d7 00       		.byte	0
 2372 05d8 1C       		.uleb128 0x1c
 2373 05d9 73020000 		.4byte	.LASF74
 2374 05dd 01       		.byte	0x1
 2375 05de 5F01     		.2byte	0x15f
 2376 05e0 01       		.byte	0x1
 2377 05e1 00000000 		.4byte	.LFB290
 2378 05e5 2C000000 		.4byte	.LFE290-.LFB290
 2379 05e9 01       		.uleb128 0x1
 2380 05ea 9C       		.byte	0x9c
 2381 05eb 0E060000 		.4byte	0x60e
 2382 05ef 1D       		.uleb128 0x1d
 2383 05f0 13030000 		.4byte	.LASF72
 2384 05f4 01       		.byte	0x1
 2385 05f5 6001     		.2byte	0x160
 2386 05f7 0C       		.byte	0xc
 2387 05f8 70000000 		.4byte	0x70
 2388 05fc C0010000 		.4byte	.LLST13
 2389 0600 BE010000 		.4byte	.LVUS13
 2390 0604 1E       		.uleb128 0x1e
ARM GAS  /tmp/ccbqudvp.s 			page 43


 2391 0605 22000000 		.4byte	.LVL41
 2392 0609 D4080000 		.4byte	0x8d4
 2393 060d 00       		.byte	0
 2394 060e 1C       		.uleb128 0x1c
 2395 060f CD040000 		.4byte	.LASF75
 2396 0613 01       		.byte	0x1
 2397 0614 4D01     		.2byte	0x14d
 2398 0616 01       		.byte	0x1
 2399 0617 00000000 		.4byte	.LFB289
 2400 061b 28000000 		.4byte	.LFE289-.LFB289
 2401 061f 01       		.uleb128 0x1
 2402 0620 9C       		.byte	0x9c
 2403 0621 44060000 		.4byte	0x644
 2404 0625 1D       		.uleb128 0x1d
 2405 0626 13030000 		.4byte	.LASF72
 2406 062a 01       		.byte	0x1
 2407 062b 4E01     		.2byte	0x14e
 2408 062d 0C       		.byte	0xc
 2409 062e 70000000 		.4byte	0x70
 2410 0632 D5010000 		.4byte	.LLST12
 2411 0636 D3010000 		.4byte	.LVUS12
 2412 063a 1E       		.uleb128 0x1e
 2413 063b 1E000000 		.4byte	.LVL38
 2414 063f D4080000 		.4byte	0x8d4
 2415 0643 00       		.byte	0
 2416 0644 1C       		.uleb128 0x1c
 2417 0645 A0030000 		.4byte	.LASF76
 2418 0649 01       		.byte	0x1
 2419 064a 3B01     		.2byte	0x13b
 2420 064c 01       		.byte	0x1
 2421 064d 00000000 		.4byte	.LFB288
 2422 0651 2C000000 		.4byte	.LFE288-.LFB288
 2423 0655 01       		.uleb128 0x1
 2424 0656 9C       		.byte	0x9c
 2425 0657 7A060000 		.4byte	0x67a
 2426 065b 1D       		.uleb128 0x1d
 2427 065c 13030000 		.4byte	.LASF72
 2428 0660 01       		.byte	0x1
 2429 0661 3C01     		.2byte	0x13c
 2430 0663 0C       		.byte	0xc
 2431 0664 70000000 		.4byte	0x70
 2432 0668 EA010000 		.4byte	.LLST11
 2433 066c E8010000 		.4byte	.LVUS11
 2434 0670 1E       		.uleb128 0x1e
 2435 0671 22000000 		.4byte	.LVL35
 2436 0675 D4080000 		.4byte	0x8d4
 2437 0679 00       		.byte	0
 2438 067a 1C       		.uleb128 0x1c
 2439 067b E6030000 		.4byte	.LASF77
 2440 067f 01       		.byte	0x1
 2441 0680 2901     		.2byte	0x129
 2442 0682 01       		.byte	0x1
 2443 0683 00000000 		.4byte	.LFB287
 2444 0687 2C000000 		.4byte	.LFE287-.LFB287
 2445 068b 01       		.uleb128 0x1
 2446 068c 9C       		.byte	0x9c
 2447 068d B0060000 		.4byte	0x6b0
ARM GAS  /tmp/ccbqudvp.s 			page 44


 2448 0691 1D       		.uleb128 0x1d
 2449 0692 13030000 		.4byte	.LASF72
 2450 0696 01       		.byte	0x1
 2451 0697 2A01     		.2byte	0x12a
 2452 0699 0C       		.byte	0xc
 2453 069a 70000000 		.4byte	0x70
 2454 069e FF010000 		.4byte	.LLST10
 2455 06a2 FD010000 		.4byte	.LVUS10
 2456 06a6 1E       		.uleb128 0x1e
 2457 06a7 22000000 		.4byte	.LVL32
 2458 06ab D4080000 		.4byte	0x8d4
 2459 06af 00       		.byte	0
 2460 06b0 1C       		.uleb128 0x1c
 2461 06b1 C7030000 		.4byte	.LASF78
 2462 06b5 01       		.byte	0x1
 2463 06b6 1701     		.2byte	0x117
 2464 06b8 01       		.byte	0x1
 2465 06b9 00000000 		.4byte	.LFB286
 2466 06bd 2C000000 		.4byte	.LFE286-.LFB286
 2467 06c1 01       		.uleb128 0x1
 2468 06c2 9C       		.byte	0x9c
 2469 06c3 E6060000 		.4byte	0x6e6
 2470 06c7 1D       		.uleb128 0x1d
 2471 06c8 13030000 		.4byte	.LASF72
 2472 06cc 01       		.byte	0x1
 2473 06cd 1801     		.2byte	0x118
 2474 06cf 0C       		.byte	0xc
 2475 06d0 70000000 		.4byte	0x70
 2476 06d4 14020000 		.4byte	.LLST9
 2477 06d8 12020000 		.4byte	.LVUS9
 2478 06dc 1E       		.uleb128 0x1e
 2479 06dd 22000000 		.4byte	.LVL29
 2480 06e1 D4080000 		.4byte	0x8d4
 2481 06e5 00       		.byte	0
 2482 06e6 1C       		.uleb128 0x1c
 2483 06e7 B4030000 		.4byte	.LASF79
 2484 06eb 01       		.byte	0x1
 2485 06ec 0501     		.2byte	0x105
 2486 06ee 01       		.byte	0x1
 2487 06ef 00000000 		.4byte	.LFB285
 2488 06f3 28000000 		.4byte	.LFE285-.LFB285
 2489 06f7 01       		.uleb128 0x1
 2490 06f8 9C       		.byte	0x9c
 2491 06f9 1C070000 		.4byte	0x71c
 2492 06fd 1D       		.uleb128 0x1d
 2493 06fe 13030000 		.4byte	.LASF72
 2494 0702 01       		.byte	0x1
 2495 0703 0601     		.2byte	0x106
 2496 0705 0C       		.byte	0xc
 2497 0706 70000000 		.4byte	0x70
 2498 070a 29020000 		.4byte	.LLST8
 2499 070e 27020000 		.4byte	.LVUS8
 2500 0712 1E       		.uleb128 0x1e
 2501 0713 1E000000 		.4byte	.LVL26
 2502 0717 D4080000 		.4byte	0x8d4
 2503 071b 00       		.byte	0
 2504 071c 1F       		.uleb128 0x1f
ARM GAS  /tmp/ccbqudvp.s 			page 45


 2505 071d D9010000 		.4byte	.LASF80
 2506 0721 01       		.byte	0x1
 2507 0722 F3       		.byte	0xf3
 2508 0723 01       		.byte	0x1
 2509 0724 00000000 		.4byte	.LFB284
 2510 0728 2C000000 		.4byte	.LFE284-.LFB284
 2511 072c 01       		.uleb128 0x1
 2512 072d 9C       		.byte	0x9c
 2513 072e 50070000 		.4byte	0x750
 2514 0732 20       		.uleb128 0x20
 2515 0733 13030000 		.4byte	.LASF72
 2516 0737 01       		.byte	0x1
 2517 0738 F4       		.byte	0xf4
 2518 0739 0C       		.byte	0xc
 2519 073a 70000000 		.4byte	0x70
 2520 073e 3E020000 		.4byte	.LLST7
 2521 0742 3C020000 		.4byte	.LVUS7
 2522 0746 1E       		.uleb128 0x1e
 2523 0747 22000000 		.4byte	.LVL23
 2524 074b D4080000 		.4byte	0x8d4
 2525 074f 00       		.byte	0
 2526 0750 1F       		.uleb128 0x1f
 2527 0751 5D040000 		.4byte	.LASF81
 2528 0755 01       		.byte	0x1
 2529 0756 E1       		.byte	0xe1
 2530 0757 01       		.byte	0x1
 2531 0758 00000000 		.4byte	.LFB283
 2532 075c 2C000000 		.4byte	.LFE283-.LFB283
 2533 0760 01       		.uleb128 0x1
 2534 0761 9C       		.byte	0x9c
 2535 0762 84070000 		.4byte	0x784
 2536 0766 20       		.uleb128 0x20
 2537 0767 13030000 		.4byte	.LASF72
 2538 076b 01       		.byte	0x1
 2539 076c E2       		.byte	0xe2
 2540 076d 0C       		.byte	0xc
 2541 076e 70000000 		.4byte	0x70
 2542 0772 53020000 		.4byte	.LLST6
 2543 0776 51020000 		.4byte	.LVUS6
 2544 077a 1E       		.uleb128 0x1e
 2545 077b 22000000 		.4byte	.LVL20
 2546 077f D4080000 		.4byte	0x8d4
 2547 0783 00       		.byte	0
 2548 0784 1F       		.uleb128 0x1f
 2549 0785 BE030000 		.4byte	.LASF82
 2550 0789 01       		.byte	0x1
 2551 078a CF       		.byte	0xcf
 2552 078b 01       		.byte	0x1
 2553 078c 00000000 		.4byte	.LFB282
 2554 0790 2C000000 		.4byte	.LFE282-.LFB282
 2555 0794 01       		.uleb128 0x1
 2556 0795 9C       		.byte	0x9c
 2557 0796 B8070000 		.4byte	0x7b8
 2558 079a 20       		.uleb128 0x20
 2559 079b 13030000 		.4byte	.LASF72
 2560 079f 01       		.byte	0x1
 2561 07a0 D0       		.byte	0xd0
ARM GAS  /tmp/ccbqudvp.s 			page 46


 2562 07a1 0C       		.byte	0xc
 2563 07a2 70000000 		.4byte	0x70
 2564 07a6 68020000 		.4byte	.LLST5
 2565 07aa 66020000 		.4byte	.LVUS5
 2566 07ae 1E       		.uleb128 0x1e
 2567 07af 22000000 		.4byte	.LVL17
 2568 07b3 D4080000 		.4byte	0x8d4
 2569 07b7 00       		.byte	0
 2570 07b8 1F       		.uleb128 0x1f
 2571 07b9 43030000 		.4byte	.LASF83
 2572 07bd 01       		.byte	0x1
 2573 07be BD       		.byte	0xbd
 2574 07bf 01       		.byte	0x1
 2575 07c0 00000000 		.4byte	.LFB281
 2576 07c4 28000000 		.4byte	.LFE281-.LFB281
 2577 07c8 01       		.uleb128 0x1
 2578 07c9 9C       		.byte	0x9c
 2579 07ca EC070000 		.4byte	0x7ec
 2580 07ce 20       		.uleb128 0x20
 2581 07cf 13030000 		.4byte	.LASF72
 2582 07d3 01       		.byte	0x1
 2583 07d4 BE       		.byte	0xbe
 2584 07d5 0C       		.byte	0xc
 2585 07d6 70000000 		.4byte	0x70
 2586 07da 7D020000 		.4byte	.LLST4
 2587 07de 7B020000 		.4byte	.LVUS4
 2588 07e2 1E       		.uleb128 0x1e
 2589 07e3 1E000000 		.4byte	.LVL14
 2590 07e7 D4080000 		.4byte	0x8d4
 2591 07eb 00       		.byte	0
 2592 07ec 1F       		.uleb128 0x1f
 2593 07ed 75010000 		.4byte	.LASF84
 2594 07f1 01       		.byte	0x1
 2595 07f2 AB       		.byte	0xab
 2596 07f3 01       		.byte	0x1
 2597 07f4 00000000 		.4byte	.LFB280
 2598 07f8 2C000000 		.4byte	.LFE280-.LFB280
 2599 07fc 01       		.uleb128 0x1
 2600 07fd 9C       		.byte	0x9c
 2601 07fe 20080000 		.4byte	0x820
 2602 0802 20       		.uleb128 0x20
 2603 0803 13030000 		.4byte	.LASF72
 2604 0807 01       		.byte	0x1
 2605 0808 AC       		.byte	0xac
 2606 0809 0C       		.byte	0xc
 2607 080a 70000000 		.4byte	0x70
 2608 080e 92020000 		.4byte	.LLST3
 2609 0812 90020000 		.4byte	.LVUS3
 2610 0816 1E       		.uleb128 0x1e
 2611 0817 22000000 		.4byte	.LVL11
 2612 081b D4080000 		.4byte	0x8d4
 2613 081f 00       		.byte	0
 2614 0820 1F       		.uleb128 0x1f
 2615 0821 5A010000 		.4byte	.LASF85
 2616 0825 01       		.byte	0x1
 2617 0826 99       		.byte	0x99
 2618 0827 01       		.byte	0x1
ARM GAS  /tmp/ccbqudvp.s 			page 47


 2619 0828 00000000 		.4byte	.LFB279
 2620 082c 2C000000 		.4byte	.LFE279-.LFB279
 2621 0830 01       		.uleb128 0x1
 2622 0831 9C       		.byte	0x9c
 2623 0832 54080000 		.4byte	0x854
 2624 0836 20       		.uleb128 0x20
 2625 0837 13030000 		.4byte	.LASF72
 2626 083b 01       		.byte	0x1
 2627 083c 9A       		.byte	0x9a
 2628 083d 0C       		.byte	0xc
 2629 083e 70000000 		.4byte	0x70
 2630 0842 A7020000 		.4byte	.LLST2
 2631 0846 A5020000 		.4byte	.LVUS2
 2632 084a 1E       		.uleb128 0x1e
 2633 084b 22000000 		.4byte	.LVL8
 2634 084f D4080000 		.4byte	0x8d4
 2635 0853 00       		.byte	0
 2636 0854 1F       		.uleb128 0x1f
 2637 0855 8B020000 		.4byte	.LASF86
 2638 0859 01       		.byte	0x1
 2639 085a 87       		.byte	0x87
 2640 085b 01       		.byte	0x1
 2641 085c 00000000 		.4byte	.LFB278
 2642 0860 2C000000 		.4byte	.LFE278-.LFB278
 2643 0864 01       		.uleb128 0x1
 2644 0865 9C       		.byte	0x9c
 2645 0866 88080000 		.4byte	0x888
 2646 086a 20       		.uleb128 0x20
 2647 086b 13030000 		.4byte	.LASF72
 2648 086f 01       		.byte	0x1
 2649 0870 88       		.byte	0x88
 2650 0871 0C       		.byte	0xc
 2651 0872 70000000 		.4byte	0x70
 2652 0876 BC020000 		.4byte	.LLST1
 2653 087a BA020000 		.4byte	.LVUS1
 2654 087e 1E       		.uleb128 0x1e
 2655 087f 22000000 		.4byte	.LVL5
 2656 0883 D4080000 		.4byte	0x8d4
 2657 0887 00       		.byte	0
 2658 0888 1F       		.uleb128 0x1f
 2659 0889 B7010000 		.4byte	.LASF87
 2660 088d 01       		.byte	0x1
 2661 088e 75       		.byte	0x75
 2662 088f 01       		.byte	0x1
 2663 0890 00000000 		.4byte	.LFB277
 2664 0894 28000000 		.4byte	.LFE277-.LFB277
 2665 0898 01       		.uleb128 0x1
 2666 0899 9C       		.byte	0x9c
 2667 089a BC080000 		.4byte	0x8bc
 2668 089e 20       		.uleb128 0x20
 2669 089f 13030000 		.4byte	.LASF72
 2670 08a3 01       		.byte	0x1
 2671 08a4 76       		.byte	0x76
 2672 08a5 0C       		.byte	0xc
 2673 08a6 70000000 		.4byte	0x70
 2674 08aa D1020000 		.4byte	.LLST0
 2675 08ae CF020000 		.4byte	.LVUS0
ARM GAS  /tmp/ccbqudvp.s 			page 48


 2676 08b2 1E       		.uleb128 0x1e
 2677 08b3 1E000000 		.4byte	.LVL2
 2678 08b7 D4080000 		.4byte	0x8d4
 2679 08bb 00       		.byte	0
 2680 08bc 21       		.uleb128 0x21
 2681 08bd FE010000 		.4byte	.LASF88
 2682 08c1 FE010000 		.4byte	.LASF88
 2683 08c5 05       		.byte	0x5
 2684 08c6 4F       		.byte	0x4f
 2685 08c7 08       		.byte	0x8
 2686 08c8 21       		.uleb128 0x21
 2687 08c9 1F000000 		.4byte	.LASF89
 2688 08cd 1F000000 		.4byte	.LASF89
 2689 08d1 05       		.byte	0x5
 2690 08d2 4E       		.byte	0x4e
 2691 08d3 08       		.byte	0x8
 2692 08d4 22       		.uleb128 0x22
 2693 08d5 9E020000 		.4byte	.LASF90
 2694 08d9 9E020000 		.4byte	.LASF90
 2695 08dd 06       		.byte	0x6
 2696 08de EA01     		.2byte	0x1ea
 2697 08e0 08       		.byte	0x8
 2698 08e1 00       		.byte	0
 2699              		.section	.debug_abbrev,"",%progbits
 2700              	.Ldebug_abbrev0:
 2701 0000 01       		.uleb128 0x1
 2702 0001 11       		.uleb128 0x11
 2703 0002 01       		.byte	0x1
 2704 0003 25       		.uleb128 0x25
 2705 0004 0E       		.uleb128 0xe
 2706 0005 13       		.uleb128 0x13
 2707 0006 0B       		.uleb128 0xb
 2708 0007 03       		.uleb128 0x3
 2709 0008 0E       		.uleb128 0xe
 2710 0009 1B       		.uleb128 0x1b
 2711 000a 0E       		.uleb128 0xe
 2712 000b 55       		.uleb128 0x55
 2713 000c 17       		.uleb128 0x17
 2714 000d 11       		.uleb128 0x11
 2715 000e 01       		.uleb128 0x1
 2716 000f 10       		.uleb128 0x10
 2717 0010 17       		.uleb128 0x17
 2718 0011 00       		.byte	0
 2719 0012 00       		.byte	0
 2720 0013 02       		.uleb128 0x2
 2721 0014 24       		.uleb128 0x24
 2722 0015 00       		.byte	0
 2723 0016 0B       		.uleb128 0xb
 2724 0017 0B       		.uleb128 0xb
 2725 0018 3E       		.uleb128 0x3e
 2726 0019 0B       		.uleb128 0xb
 2727 001a 03       		.uleb128 0x3
 2728 001b 08       		.uleb128 0x8
 2729 001c 00       		.byte	0
 2730 001d 00       		.byte	0
 2731 001e 03       		.uleb128 0x3
 2732 001f 24       		.uleb128 0x24
ARM GAS  /tmp/ccbqudvp.s 			page 49


 2733 0020 00       		.byte	0
 2734 0021 0B       		.uleb128 0xb
 2735 0022 0B       		.uleb128 0xb
 2736 0023 3E       		.uleb128 0x3e
 2737 0024 0B       		.uleb128 0xb
 2738 0025 03       		.uleb128 0x3
 2739 0026 0E       		.uleb128 0xe
 2740 0027 00       		.byte	0
 2741 0028 00       		.byte	0
 2742 0029 04       		.uleb128 0x4
 2743 002a 16       		.uleb128 0x16
 2744 002b 00       		.byte	0
 2745 002c 03       		.uleb128 0x3
 2746 002d 0E       		.uleb128 0xe
 2747 002e 3A       		.uleb128 0x3a
 2748 002f 0B       		.uleb128 0xb
 2749 0030 3B       		.uleb128 0x3b
 2750 0031 0B       		.uleb128 0xb
 2751 0032 39       		.uleb128 0x39
 2752 0033 0B       		.uleb128 0xb
 2753 0034 49       		.uleb128 0x49
 2754 0035 13       		.uleb128 0x13
 2755 0036 00       		.byte	0
 2756 0037 00       		.byte	0
 2757 0038 05       		.uleb128 0x5
 2758 0039 35       		.uleb128 0x35
 2759 003a 00       		.byte	0
 2760 003b 49       		.uleb128 0x49
 2761 003c 13       		.uleb128 0x13
 2762 003d 00       		.byte	0
 2763 003e 00       		.byte	0
 2764 003f 06       		.uleb128 0x6
 2765 0040 0F       		.uleb128 0xf
 2766 0041 00       		.byte	0
 2767 0042 0B       		.uleb128 0xb
 2768 0043 0B       		.uleb128 0xb
 2769 0044 00       		.byte	0
 2770 0045 00       		.byte	0
 2771 0046 07       		.uleb128 0x7
 2772 0047 01       		.uleb128 0x1
 2773 0048 01       		.byte	0x1
 2774 0049 49       		.uleb128 0x49
 2775 004a 13       		.uleb128 0x13
 2776 004b 01       		.uleb128 0x1
 2777 004c 13       		.uleb128 0x13
 2778 004d 00       		.byte	0
 2779 004e 00       		.byte	0
 2780 004f 08       		.uleb128 0x8
 2781 0050 21       		.uleb128 0x21
 2782 0051 00       		.byte	0
 2783 0052 49       		.uleb128 0x49
 2784 0053 13       		.uleb128 0x13
 2785 0054 2F       		.uleb128 0x2f
 2786 0055 0B       		.uleb128 0xb
 2787 0056 00       		.byte	0
 2788 0057 00       		.byte	0
 2789 0058 09       		.uleb128 0x9
ARM GAS  /tmp/ccbqudvp.s 			page 50


 2790 0059 13       		.uleb128 0x13
 2791 005a 01       		.byte	0x1
 2792 005b 0B       		.uleb128 0xb
 2793 005c 0B       		.uleb128 0xb
 2794 005d 3A       		.uleb128 0x3a
 2795 005e 0B       		.uleb128 0xb
 2796 005f 3B       		.uleb128 0x3b
 2797 0060 05       		.uleb128 0x5
 2798 0061 39       		.uleb128 0x39
 2799 0062 0B       		.uleb128 0xb
 2800 0063 01       		.uleb128 0x1
 2801 0064 13       		.uleb128 0x13
 2802 0065 00       		.byte	0
 2803 0066 00       		.byte	0
 2804 0067 0A       		.uleb128 0xa
 2805 0068 0D       		.uleb128 0xd
 2806 0069 00       		.byte	0
 2807 006a 03       		.uleb128 0x3
 2808 006b 08       		.uleb128 0x8
 2809 006c 3A       		.uleb128 0x3a
 2810 006d 0B       		.uleb128 0xb
 2811 006e 3B       		.uleb128 0x3b
 2812 006f 05       		.uleb128 0x5
 2813 0070 39       		.uleb128 0x39
 2814 0071 0B       		.uleb128 0xb
 2815 0072 49       		.uleb128 0x49
 2816 0073 13       		.uleb128 0x13
 2817 0074 38       		.uleb128 0x38
 2818 0075 0B       		.uleb128 0xb
 2819 0076 00       		.byte	0
 2820 0077 00       		.byte	0
 2821 0078 0B       		.uleb128 0xb
 2822 0079 0D       		.uleb128 0xd
 2823 007a 00       		.byte	0
 2824 007b 03       		.uleb128 0x3
 2825 007c 0E       		.uleb128 0xe
 2826 007d 3A       		.uleb128 0x3a
 2827 007e 0B       		.uleb128 0xb
 2828 007f 3B       		.uleb128 0x3b
 2829 0080 05       		.uleb128 0x5
 2830 0081 39       		.uleb128 0x39
 2831 0082 0B       		.uleb128 0xb
 2832 0083 49       		.uleb128 0x49
 2833 0084 13       		.uleb128 0x13
 2834 0085 38       		.uleb128 0x38
 2835 0086 0B       		.uleb128 0xb
 2836 0087 00       		.byte	0
 2837 0088 00       		.byte	0
 2838 0089 0C       		.uleb128 0xc
 2839 008a 16       		.uleb128 0x16
 2840 008b 00       		.byte	0
 2841 008c 03       		.uleb128 0x3
 2842 008d 0E       		.uleb128 0xe
 2843 008e 3A       		.uleb128 0x3a
 2844 008f 0B       		.uleb128 0xb
 2845 0090 3B       		.uleb128 0x3b
 2846 0091 05       		.uleb128 0x5
ARM GAS  /tmp/ccbqudvp.s 			page 51


 2847 0092 39       		.uleb128 0x39
 2848 0093 0B       		.uleb128 0xb
 2849 0094 49       		.uleb128 0x49
 2850 0095 13       		.uleb128 0x13
 2851 0096 00       		.byte	0
 2852 0097 00       		.byte	0
 2853 0098 0D       		.uleb128 0xd
 2854 0099 26       		.uleb128 0x26
 2855 009a 00       		.byte	0
 2856 009b 49       		.uleb128 0x49
 2857 009c 13       		.uleb128 0x13
 2858 009d 00       		.byte	0
 2859 009e 00       		.byte	0
 2860 009f 0E       		.uleb128 0xe
 2861 00a0 0F       		.uleb128 0xf
 2862 00a1 00       		.byte	0
 2863 00a2 0B       		.uleb128 0xb
 2864 00a3 0B       		.uleb128 0xb
 2865 00a4 49       		.uleb128 0x49
 2866 00a5 13       		.uleb128 0x13
 2867 00a6 00       		.byte	0
 2868 00a7 00       		.byte	0
 2869 00a8 0F       		.uleb128 0xf
 2870 00a9 15       		.uleb128 0x15
 2871 00aa 01       		.byte	0x1
 2872 00ab 27       		.uleb128 0x27
 2873 00ac 19       		.uleb128 0x19
 2874 00ad 01       		.uleb128 0x1
 2875 00ae 13       		.uleb128 0x13
 2876 00af 00       		.byte	0
 2877 00b0 00       		.byte	0
 2878 00b1 10       		.uleb128 0x10
 2879 00b2 05       		.uleb128 0x5
 2880 00b3 00       		.byte	0
 2881 00b4 49       		.uleb128 0x49
 2882 00b5 13       		.uleb128 0x13
 2883 00b6 00       		.byte	0
 2884 00b7 00       		.byte	0
 2885 00b8 11       		.uleb128 0x11
 2886 00b9 34       		.uleb128 0x34
 2887 00ba 00       		.byte	0
 2888 00bb 03       		.uleb128 0x3
 2889 00bc 0E       		.uleb128 0xe
 2890 00bd 3A       		.uleb128 0x3a
 2891 00be 0B       		.uleb128 0xb
 2892 00bf 3B       		.uleb128 0x3b
 2893 00c0 05       		.uleb128 0x5
 2894 00c1 39       		.uleb128 0x39
 2895 00c2 0B       		.uleb128 0xb
 2896 00c3 49       		.uleb128 0x49
 2897 00c4 13       		.uleb128 0x13
 2898 00c5 3F       		.uleb128 0x3f
 2899 00c6 19       		.uleb128 0x19
 2900 00c7 3C       		.uleb128 0x3c
 2901 00c8 19       		.uleb128 0x19
 2902 00c9 00       		.byte	0
 2903 00ca 00       		.byte	0
ARM GAS  /tmp/ccbqudvp.s 			page 52


 2904 00cb 12       		.uleb128 0x12
 2905 00cc 34       		.uleb128 0x34
 2906 00cd 00       		.byte	0
 2907 00ce 47       		.uleb128 0x47
 2908 00cf 13       		.uleb128 0x13
 2909 00d0 3A       		.uleb128 0x3a
 2910 00d1 0B       		.uleb128 0xb
 2911 00d2 3B       		.uleb128 0x3b
 2912 00d3 0B       		.uleb128 0xb
 2913 00d4 39       		.uleb128 0x39
 2914 00d5 0B       		.uleb128 0xb
 2915 00d6 02       		.uleb128 0x2
 2916 00d7 18       		.uleb128 0x18
 2917 00d8 00       		.byte	0
 2918 00d9 00       		.byte	0
 2919 00da 13       		.uleb128 0x13
 2920 00db 13       		.uleb128 0x13
 2921 00dc 01       		.byte	0x1
 2922 00dd 0B       		.uleb128 0xb
 2923 00de 0B       		.uleb128 0xb
 2924 00df 3A       		.uleb128 0x3a
 2925 00e0 0B       		.uleb128 0xb
 2926 00e1 3B       		.uleb128 0x3b
 2927 00e2 0B       		.uleb128 0xb
 2928 00e3 39       		.uleb128 0x39
 2929 00e4 0B       		.uleb128 0xb
 2930 00e5 01       		.uleb128 0x1
 2931 00e6 13       		.uleb128 0x13
 2932 00e7 00       		.byte	0
 2933 00e8 00       		.byte	0
 2934 00e9 14       		.uleb128 0x14
 2935 00ea 0D       		.uleb128 0xd
 2936 00eb 00       		.byte	0
 2937 00ec 03       		.uleb128 0x3
 2938 00ed 0E       		.uleb128 0xe
 2939 00ee 3A       		.uleb128 0x3a
 2940 00ef 0B       		.uleb128 0xb
 2941 00f0 3B       		.uleb128 0x3b
 2942 00f1 0B       		.uleb128 0xb
 2943 00f2 39       		.uleb128 0x39
 2944 00f3 0B       		.uleb128 0xb
 2945 00f4 49       		.uleb128 0x49
 2946 00f5 13       		.uleb128 0x13
 2947 00f6 38       		.uleb128 0x38
 2948 00f7 0B       		.uleb128 0xb
 2949 00f8 00       		.byte	0
 2950 00f9 00       		.byte	0
 2951 00fa 15       		.uleb128 0x15
 2952 00fb 34       		.uleb128 0x34
 2953 00fc 00       		.byte	0
 2954 00fd 03       		.uleb128 0x3
 2955 00fe 0E       		.uleb128 0xe
 2956 00ff 3A       		.uleb128 0x3a
 2957 0100 0B       		.uleb128 0xb
 2958 0101 3B       		.uleb128 0x3b
 2959 0102 0B       		.uleb128 0xb
 2960 0103 39       		.uleb128 0x39
ARM GAS  /tmp/ccbqudvp.s 			page 53


 2961 0104 0B       		.uleb128 0xb
 2962 0105 49       		.uleb128 0x49
 2963 0106 13       		.uleb128 0x13
 2964 0107 02       		.uleb128 0x2
 2965 0108 18       		.uleb128 0x18
 2966 0109 00       		.byte	0
 2967 010a 00       		.byte	0
 2968 010b 16       		.uleb128 0x16
 2969 010c 2E       		.uleb128 0x2e
 2970 010d 01       		.byte	0x1
 2971 010e 3F       		.uleb128 0x3f
 2972 010f 19       		.uleb128 0x19
 2973 0110 03       		.uleb128 0x3
 2974 0111 0E       		.uleb128 0xe
 2975 0112 3A       		.uleb128 0x3a
 2976 0113 0B       		.uleb128 0xb
 2977 0114 3B       		.uleb128 0x3b
 2978 0115 05       		.uleb128 0x5
 2979 0116 39       		.uleb128 0x39
 2980 0117 0B       		.uleb128 0xb
 2981 0118 27       		.uleb128 0x27
 2982 0119 19       		.uleb128 0x19
 2983 011a 11       		.uleb128 0x11
 2984 011b 01       		.uleb128 0x1
 2985 011c 12       		.uleb128 0x12
 2986 011d 06       		.uleb128 0x6
 2987 011e 40       		.uleb128 0x40
 2988 011f 18       		.uleb128 0x18
 2989 0120 9742     		.uleb128 0x2117
 2990 0122 19       		.uleb128 0x19
 2991 0123 01       		.uleb128 0x1
 2992 0124 13       		.uleb128 0x13
 2993 0125 00       		.byte	0
 2994 0126 00       		.byte	0
 2995 0127 17       		.uleb128 0x17
 2996 0128 05       		.uleb128 0x5
 2997 0129 00       		.byte	0
 2998 012a 03       		.uleb128 0x3
 2999 012b 0E       		.uleb128 0xe
 3000 012c 3A       		.uleb128 0x3a
 3001 012d 0B       		.uleb128 0xb
 3002 012e 3B       		.uleb128 0x3b
 3003 012f 05       		.uleb128 0x5
 3004 0130 39       		.uleb128 0x39
 3005 0131 0B       		.uleb128 0xb
 3006 0132 49       		.uleb128 0x49
 3007 0133 13       		.uleb128 0x13
 3008 0134 02       		.uleb128 0x2
 3009 0135 17       		.uleb128 0x17
 3010 0136 B742     		.uleb128 0x2137
 3011 0138 17       		.uleb128 0x17
 3012 0139 00       		.byte	0
 3013 013a 00       		.byte	0
 3014 013b 18       		.uleb128 0x18
 3015 013c 34       		.uleb128 0x34
 3016 013d 00       		.byte	0
 3017 013e 03       		.uleb128 0x3
ARM GAS  /tmp/ccbqudvp.s 			page 54


 3018 013f 0E       		.uleb128 0xe
 3019 0140 49       		.uleb128 0x49
 3020 0141 13       		.uleb128 0x13
 3021 0142 34       		.uleb128 0x34
 3022 0143 19       		.uleb128 0x19
 3023 0144 00       		.byte	0
 3024 0145 00       		.byte	0
 3025 0146 19       		.uleb128 0x19
 3026 0147 898201   		.uleb128 0x4109
 3027 014a 00       		.byte	0
 3028 014b 11       		.uleb128 0x11
 3029 014c 01       		.uleb128 0x1
 3030 014d 31       		.uleb128 0x31
 3031 014e 13       		.uleb128 0x13
 3032 014f 00       		.byte	0
 3033 0150 00       		.byte	0
 3034 0151 1A       		.uleb128 0x1a
 3035 0152 2E       		.uleb128 0x2e
 3036 0153 01       		.byte	0x1
 3037 0154 3F       		.uleb128 0x3f
 3038 0155 19       		.uleb128 0x19
 3039 0156 03       		.uleb128 0x3
 3040 0157 0E       		.uleb128 0xe
 3041 0158 3A       		.uleb128 0x3a
 3042 0159 0B       		.uleb128 0xb
 3043 015a 3B       		.uleb128 0x3b
 3044 015b 05       		.uleb128 0x5
 3045 015c 39       		.uleb128 0x39
 3046 015d 0B       		.uleb128 0xb
 3047 015e 27       		.uleb128 0x27
 3048 015f 19       		.uleb128 0x19
 3049 0160 49       		.uleb128 0x49
 3050 0161 13       		.uleb128 0x13
 3051 0162 11       		.uleb128 0x11
 3052 0163 01       		.uleb128 0x1
 3053 0164 12       		.uleb128 0x12
 3054 0165 06       		.uleb128 0x6
 3055 0166 40       		.uleb128 0x40
 3056 0167 18       		.uleb128 0x18
 3057 0168 9742     		.uleb128 0x2117
 3058 016a 19       		.uleb128 0x19
 3059 016b 01       		.uleb128 0x1
 3060 016c 13       		.uleb128 0x13
 3061 016d 00       		.byte	0
 3062 016e 00       		.byte	0
 3063 016f 1B       		.uleb128 0x1b
 3064 0170 34       		.uleb128 0x34
 3065 0171 00       		.byte	0
 3066 0172 03       		.uleb128 0x3
 3067 0173 08       		.uleb128 0x8
 3068 0174 3A       		.uleb128 0x3a
 3069 0175 0B       		.uleb128 0xb
 3070 0176 3B       		.uleb128 0x3b
 3071 0177 05       		.uleb128 0x5
 3072 0178 39       		.uleb128 0x39
 3073 0179 0B       		.uleb128 0xb
 3074 017a 49       		.uleb128 0x49
ARM GAS  /tmp/ccbqudvp.s 			page 55


 3075 017b 13       		.uleb128 0x13
 3076 017c 02       		.uleb128 0x2
 3077 017d 17       		.uleb128 0x17
 3078 017e B742     		.uleb128 0x2137
 3079 0180 17       		.uleb128 0x17
 3080 0181 00       		.byte	0
 3081 0182 00       		.byte	0
 3082 0183 1C       		.uleb128 0x1c
 3083 0184 2E       		.uleb128 0x2e
 3084 0185 01       		.byte	0x1
 3085 0186 3F       		.uleb128 0x3f
 3086 0187 19       		.uleb128 0x19
 3087 0188 03       		.uleb128 0x3
 3088 0189 0E       		.uleb128 0xe
 3089 018a 3A       		.uleb128 0x3a
 3090 018b 0B       		.uleb128 0xb
 3091 018c 3B       		.uleb128 0x3b
 3092 018d 05       		.uleb128 0x5
 3093 018e 39       		.uleb128 0x39
 3094 018f 0B       		.uleb128 0xb
 3095 0190 27       		.uleb128 0x27
 3096 0191 19       		.uleb128 0x19
 3097 0192 11       		.uleb128 0x11
 3098 0193 01       		.uleb128 0x1
 3099 0194 12       		.uleb128 0x12
 3100 0195 06       		.uleb128 0x6
 3101 0196 40       		.uleb128 0x40
 3102 0197 18       		.uleb128 0x18
 3103 0198 9642     		.uleb128 0x2116
 3104 019a 19       		.uleb128 0x19
 3105 019b 01       		.uleb128 0x1
 3106 019c 13       		.uleb128 0x13
 3107 019d 00       		.byte	0
 3108 019e 00       		.byte	0
 3109 019f 1D       		.uleb128 0x1d
 3110 01a0 34       		.uleb128 0x34
 3111 01a1 00       		.byte	0
 3112 01a2 03       		.uleb128 0x3
 3113 01a3 0E       		.uleb128 0xe
 3114 01a4 3A       		.uleb128 0x3a
 3115 01a5 0B       		.uleb128 0xb
 3116 01a6 3B       		.uleb128 0x3b
 3117 01a7 05       		.uleb128 0x5
 3118 01a8 39       		.uleb128 0x39
 3119 01a9 0B       		.uleb128 0xb
 3120 01aa 49       		.uleb128 0x49
 3121 01ab 13       		.uleb128 0x13
 3122 01ac 02       		.uleb128 0x2
 3123 01ad 17       		.uleb128 0x17
 3124 01ae B742     		.uleb128 0x2137
 3125 01b0 17       		.uleb128 0x17
 3126 01b1 00       		.byte	0
 3127 01b2 00       		.byte	0
 3128 01b3 1E       		.uleb128 0x1e
 3129 01b4 898201   		.uleb128 0x4109
 3130 01b7 00       		.byte	0
 3131 01b8 11       		.uleb128 0x11
ARM GAS  /tmp/ccbqudvp.s 			page 56


 3132 01b9 01       		.uleb128 0x1
 3133 01ba 9542     		.uleb128 0x2115
 3134 01bc 19       		.uleb128 0x19
 3135 01bd 31       		.uleb128 0x31
 3136 01be 13       		.uleb128 0x13
 3137 01bf 00       		.byte	0
 3138 01c0 00       		.byte	0
 3139 01c1 1F       		.uleb128 0x1f
 3140 01c2 2E       		.uleb128 0x2e
 3141 01c3 01       		.byte	0x1
 3142 01c4 3F       		.uleb128 0x3f
 3143 01c5 19       		.uleb128 0x19
 3144 01c6 03       		.uleb128 0x3
 3145 01c7 0E       		.uleb128 0xe
 3146 01c8 3A       		.uleb128 0x3a
 3147 01c9 0B       		.uleb128 0xb
 3148 01ca 3B       		.uleb128 0x3b
 3149 01cb 0B       		.uleb128 0xb
 3150 01cc 39       		.uleb128 0x39
 3151 01cd 0B       		.uleb128 0xb
 3152 01ce 27       		.uleb128 0x27
 3153 01cf 19       		.uleb128 0x19
 3154 01d0 11       		.uleb128 0x11
 3155 01d1 01       		.uleb128 0x1
 3156 01d2 12       		.uleb128 0x12
 3157 01d3 06       		.uleb128 0x6
 3158 01d4 40       		.uleb128 0x40
 3159 01d5 18       		.uleb128 0x18
 3160 01d6 9642     		.uleb128 0x2116
 3161 01d8 19       		.uleb128 0x19
 3162 01d9 01       		.uleb128 0x1
 3163 01da 13       		.uleb128 0x13
 3164 01db 00       		.byte	0
 3165 01dc 00       		.byte	0
 3166 01dd 20       		.uleb128 0x20
 3167 01de 34       		.uleb128 0x34
 3168 01df 00       		.byte	0
 3169 01e0 03       		.uleb128 0x3
 3170 01e1 0E       		.uleb128 0xe
 3171 01e2 3A       		.uleb128 0x3a
 3172 01e3 0B       		.uleb128 0xb
 3173 01e4 3B       		.uleb128 0x3b
 3174 01e5 0B       		.uleb128 0xb
 3175 01e6 39       		.uleb128 0x39
 3176 01e7 0B       		.uleb128 0xb
 3177 01e8 49       		.uleb128 0x49
 3178 01e9 13       		.uleb128 0x13
 3179 01ea 02       		.uleb128 0x2
 3180 01eb 17       		.uleb128 0x17
 3181 01ec B742     		.uleb128 0x2137
 3182 01ee 17       		.uleb128 0x17
 3183 01ef 00       		.byte	0
 3184 01f0 00       		.byte	0
 3185 01f1 21       		.uleb128 0x21
 3186 01f2 2E       		.uleb128 0x2e
 3187 01f3 00       		.byte	0
 3188 01f4 3F       		.uleb128 0x3f
ARM GAS  /tmp/ccbqudvp.s 			page 57


 3189 01f5 19       		.uleb128 0x19
 3190 01f6 3C       		.uleb128 0x3c
 3191 01f7 19       		.uleb128 0x19
 3192 01f8 6E       		.uleb128 0x6e
 3193 01f9 0E       		.uleb128 0xe
 3194 01fa 03       		.uleb128 0x3
 3195 01fb 0E       		.uleb128 0xe
 3196 01fc 3A       		.uleb128 0x3a
 3197 01fd 0B       		.uleb128 0xb
 3198 01fe 3B       		.uleb128 0x3b
 3199 01ff 0B       		.uleb128 0xb
 3200 0200 39       		.uleb128 0x39
 3201 0201 0B       		.uleb128 0xb
 3202 0202 00       		.byte	0
 3203 0203 00       		.byte	0
 3204 0204 22       		.uleb128 0x22
 3205 0205 2E       		.uleb128 0x2e
 3206 0206 00       		.byte	0
 3207 0207 3F       		.uleb128 0x3f
 3208 0208 19       		.uleb128 0x19
 3209 0209 3C       		.uleb128 0x3c
 3210 020a 19       		.uleb128 0x19
 3211 020b 6E       		.uleb128 0x6e
 3212 020c 0E       		.uleb128 0xe
 3213 020d 03       		.uleb128 0x3
 3214 020e 0E       		.uleb128 0xe
 3215 020f 3A       		.uleb128 0x3a
 3216 0210 0B       		.uleb128 0xb
 3217 0211 3B       		.uleb128 0x3b
 3218 0212 05       		.uleb128 0x5
 3219 0213 39       		.uleb128 0x39
 3220 0214 0B       		.uleb128 0xb
 3221 0215 00       		.byte	0
 3222 0216 00       		.byte	0
 3223 0217 00       		.byte	0
 3224              		.section	.debug_loc,"",%progbits
 3225              	.Ldebug_loc0:
 3226              	.LVUS21:
 3227 0000 00       		.uleb128 0
 3228 0001 00       		.uleb128 .LVU551
 3229 0002 00       		.uleb128 .LVU551
 3230 0003 00       		.uleb128 .LVU571
 3231 0004 00       		.uleb128 .LVU571
 3232 0005 00       		.uleb128 0
 3233              	.LLST21:
 3234 0006 00000000 		.4byte	.LVL63
 3235 000a 06000000 		.4byte	.LVL64
 3236 000e 0100     		.2byte	0x1
 3237 0010 50       		.byte	0x50
 3238 0011 06000000 		.4byte	.LVL64
 3239 0015 3A000000 		.4byte	.LVL66
 3240 0019 0100     		.2byte	0x1
 3241 001b 54       		.byte	0x54
 3242 001c 3A000000 		.4byte	.LVL66
 3243 0020 44000000 		.4byte	.LFE295
 3244 0024 0400     		.2byte	0x4
 3245 0026 F3       		.byte	0xf3
ARM GAS  /tmp/ccbqudvp.s 			page 58


 3246 0027 01       		.uleb128 0x1
 3247 0028 50       		.byte	0x50
 3248 0029 9F       		.byte	0x9f
 3249 002a 00000000 		.4byte	0
 3250 002e 00000000 		.4byte	0
 3251              	.LVUS17:
 3252 0032 00       		.uleb128 0
 3253 0033 00       		.uleb128 .LVU530
 3254 0034 00       		.uleb128 .LVU530
 3255 0035 00       		.uleb128 .LVU533
 3256 0036 00       		.uleb128 .LVU533
 3257 0037 00       		.uleb128 .LVU536
 3258 0038 00       		.uleb128 .LVU536
 3259 0039 00       		.uleb128 .LVU537
 3260 003a 00       		.uleb128 .LVU537
 3261 003b 00       		.uleb128 .LVU538
 3262 003c 00       		.uleb128 .LVU538
 3263 003d 00       		.uleb128 0
 3264              	.LLST17:
 3265 003e 00000000 		.4byte	.LVL53
 3266 0042 5E000000 		.4byte	.LVL56
 3267 0046 0100     		.2byte	0x1
 3268 0048 50       		.byte	0x50
 3269 0049 5E000000 		.4byte	.LVL56
 3270 004d 66000000 		.4byte	.LVL58
 3271 0051 0400     		.2byte	0x4
 3272 0053 F3       		.byte	0xf3
 3273 0054 01       		.uleb128 0x1
 3274 0055 50       		.byte	0x50
 3275 0056 9F       		.byte	0x9f
 3276 0057 66000000 		.4byte	.LVL58
 3277 005b 74000000 		.4byte	.LVL59
 3278 005f 0100     		.2byte	0x1
 3279 0061 50       		.byte	0x50
 3280 0062 74000000 		.4byte	.LVL59
 3281 0066 76000000 		.4byte	.LVL60
 3282 006a 0400     		.2byte	0x4
 3283 006c F3       		.byte	0xf3
 3284 006d 01       		.uleb128 0x1
 3285 006e 50       		.byte	0x50
 3286 006f 9F       		.byte	0x9f
 3287 0070 76000000 		.4byte	.LVL60
 3288 0074 78000000 		.4byte	.LVL61
 3289 0078 0100     		.2byte	0x1
 3290 007a 50       		.byte	0x50
 3291 007b 78000000 		.4byte	.LVL61
 3292 007f 88000000 		.4byte	.LFE294
 3293 0083 0400     		.2byte	0x4
 3294 0085 F3       		.byte	0xf3
 3295 0086 01       		.uleb128 0x1
 3296 0087 50       		.byte	0x50
 3297 0088 9F       		.byte	0x9f
 3298 0089 00000000 		.4byte	0
 3299 008d 00000000 		.4byte	0
 3300              	.LVUS18:
 3301 0091 00       		.uleb128 0
 3302 0092 00       		.uleb128 .LVU531
ARM GAS  /tmp/ccbqudvp.s 			page 59


 3303 0093 00       		.uleb128 .LVU531
 3304 0094 00       		.uleb128 .LVU533
 3305 0095 00       		.uleb128 .LVU533
 3306 0096 00       		.uleb128 0
 3307              	.LLST18:
 3308 0097 00000000 		.4byte	.LVL53
 3309 009b 61000000 		.4byte	.LVL57-1
 3310 009f 0100     		.2byte	0x1
 3311 00a1 51       		.byte	0x51
 3312 00a2 61000000 		.4byte	.LVL57-1
 3313 00a6 66000000 		.4byte	.LVL58
 3314 00aa 0400     		.2byte	0x4
 3315 00ac F3       		.byte	0xf3
 3316 00ad 01       		.uleb128 0x1
 3317 00ae 51       		.byte	0x51
 3318 00af 9F       		.byte	0x9f
 3319 00b0 66000000 		.4byte	.LVL58
 3320 00b4 88000000 		.4byte	.LFE294
 3321 00b8 0100     		.2byte	0x1
 3322 00ba 51       		.byte	0x51
 3323 00bb 00000000 		.4byte	0
 3324 00bf 00000000 		.4byte	0
 3325              	.LVUS19:
 3326 00c3 00       		.uleb128 0
 3327 00c4 00       		.uleb128 .LVU531
 3328 00c5 00       		.uleb128 .LVU531
 3329 00c6 00       		.uleb128 .LVU533
 3330 00c7 00       		.uleb128 .LVU533
 3331 00c8 00       		.uleb128 0
 3332              	.LLST19:
 3333 00c9 00000000 		.4byte	.LVL53
 3334 00cd 61000000 		.4byte	.LVL57-1
 3335 00d1 0100     		.2byte	0x1
 3336 00d3 52       		.byte	0x52
 3337 00d4 61000000 		.4byte	.LVL57-1
 3338 00d8 66000000 		.4byte	.LVL58
 3339 00dc 0400     		.2byte	0x4
 3340 00de F3       		.byte	0xf3
 3341 00df 01       		.uleb128 0x1
 3342 00e0 52       		.byte	0x52
 3343 00e1 9F       		.byte	0x9f
 3344 00e2 66000000 		.4byte	.LVL58
 3345 00e6 88000000 		.4byte	.LFE294
 3346 00ea 0100     		.2byte	0x1
 3347 00ec 52       		.byte	0x52
 3348 00ed 00000000 		.4byte	0
 3349 00f1 00000000 		.4byte	0
 3350              	.LVUS20:
 3351 00f5 00       		.uleb128 0
 3352 00f6 00       		.uleb128 .LVU506
 3353 00f7 00       		.uleb128 .LVU506
 3354 00f8 00       		.uleb128 .LVU509
 3355 00f9 00       		.uleb128 .LVU509
 3356 00fa 00       		.uleb128 .LVU531
 3357 00fb 00       		.uleb128 .LVU531
 3358 00fc 00       		.uleb128 .LVU533
 3359 00fd 00       		.uleb128 .LVU533
ARM GAS  /tmp/ccbqudvp.s 			page 60


 3360 00fe 00       		.uleb128 .LVU537
 3361 00ff 00       		.uleb128 .LVU537
 3362 0100 00       		.uleb128 .LVU539
 3363 0101 00       		.uleb128 .LVU539
 3364 0102 00       		.uleb128 0
 3365              	.LLST20:
 3366 0103 00000000 		.4byte	.LVL53
 3367 0107 24000000 		.4byte	.LVL54
 3368 010b 0100     		.2byte	0x1
 3369 010d 53       		.byte	0x53
 3370 010e 24000000 		.4byte	.LVL54
 3371 0112 2A000000 		.4byte	.LVL55
 3372 0116 0200     		.2byte	0x2
 3373 0118 74       		.byte	0x74
 3374 0119 04       		.sleb128 4
 3375 011a 2A000000 		.4byte	.LVL55
 3376 011e 61000000 		.4byte	.LVL57-1
 3377 0122 0A00     		.2byte	0xa
 3378 0124 7C       		.byte	0x7c
 3379 0125 00       		.sleb128 0
 3380 0126 33       		.byte	0x33
 3381 0127 24       		.byte	0x24
 3382 0128 03       		.byte	0x3
 3383 0129 04000000 		.4byte	.LANCHOR0+4
 3384 012d 22       		.byte	0x22
 3385 012e 61000000 		.4byte	.LVL57-1
 3386 0132 66000000 		.4byte	.LVL58
 3387 0136 0400     		.2byte	0x4
 3388 0138 F3       		.byte	0xf3
 3389 0139 01       		.uleb128 0x1
 3390 013a 53       		.byte	0x53
 3391 013b 9F       		.byte	0x9f
 3392 013c 66000000 		.4byte	.LVL58
 3393 0140 76000000 		.4byte	.LVL60
 3394 0144 0A00     		.2byte	0xa
 3395 0146 7C       		.byte	0x7c
 3396 0147 00       		.sleb128 0
 3397 0148 33       		.byte	0x33
 3398 0149 24       		.byte	0x24
 3399 014a 03       		.byte	0x3
 3400 014b 04000000 		.4byte	.LANCHOR0+4
 3401 014f 22       		.byte	0x22
 3402 0150 76000000 		.4byte	.LVL60
 3403 0154 7A000000 		.4byte	.LVL62
 3404 0158 0100     		.2byte	0x1
 3405 015a 53       		.byte	0x53
 3406 015b 7A000000 		.4byte	.LVL62
 3407 015f 88000000 		.4byte	.LFE294
 3408 0163 0400     		.2byte	0x4
 3409 0165 F3       		.byte	0xf3
 3410 0166 01       		.uleb128 0x1
 3411 0167 53       		.byte	0x53
 3412 0168 9F       		.byte	0x9f
 3413 0169 00000000 		.4byte	0
 3414 016d 00000000 		.4byte	0
 3415              	.LVUS16:
 3416 0171 01       		.uleb128 .LVU462
ARM GAS  /tmp/ccbqudvp.s 			page 61


 3417 0172 00       		.uleb128 .LVU464
 3418 0173 00       		.uleb128 .LVU464
 3419 0174 00       		.uleb128 .LVU478
 3420              	.LLST16:
 3421 0175 0C000000 		.4byte	.LVL48
 3422 0179 12000000 		.4byte	.LVL49
 3423 017d 0200     		.2byte	0x2
 3424 017f 30       		.byte	0x30
 3425 0180 9F       		.byte	0x9f
 3426 0181 12000000 		.4byte	.LVL49
 3427 0185 30000000 		.4byte	.LVL52
 3428 0189 0100     		.2byte	0x1
 3429 018b 53       		.byte	0x53
 3430 018c 00000000 		.4byte	0
 3431 0190 00000000 		.4byte	0
 3432              	.LVUS15:
 3433 0194 00       		.uleb128 .LVU442
 3434 0195 00       		.uleb128 .LVU449
 3435              	.LLST15:
 3436 0196 0E000000 		.4byte	.LVL45
 3437 019a 19000000 		.4byte	.LVL46-1
 3438 019e 0100     		.2byte	0x1
 3439 01a0 51       		.byte	0x51
 3440 01a1 00000000 		.4byte	0
 3441 01a5 00000000 		.4byte	0
 3442              	.LVUS14:
 3443 01a9 00       		.uleb128 .LVU413
 3444 01aa 00       		.uleb128 .LVU420
 3445              	.LLST14:
 3446 01ab 0E000000 		.4byte	.LVL42
 3447 01af 19000000 		.4byte	.LVL43-1
 3448 01b3 0100     		.2byte	0x1
 3449 01b5 51       		.byte	0x51
 3450 01b6 00000000 		.4byte	0
 3451 01ba 00000000 		.4byte	0
 3452              	.LVUS13:
 3453 01be 00       		.uleb128 .LVU384
 3454 01bf 00       		.uleb128 .LVU391
 3455              	.LLST13:
 3456 01c0 0E000000 		.4byte	.LVL39
 3457 01c4 19000000 		.4byte	.LVL40-1
 3458 01c8 0100     		.2byte	0x1
 3459 01ca 51       		.byte	0x51
 3460 01cb 00000000 		.4byte	0
 3461 01cf 00000000 		.4byte	0
 3462              	.LVUS12:
 3463 01d3 00       		.uleb128 .LVU357
 3464 01d4 00       		.uleb128 .LVU362
 3465              	.LLST12:
 3466 01d5 0E000000 		.4byte	.LVL36
 3467 01d9 15000000 		.4byte	.LVL37-1
 3468 01dd 0100     		.2byte	0x1
 3469 01df 51       		.byte	0x51
 3470 01e0 00000000 		.4byte	0
 3471 01e4 00000000 		.4byte	0
 3472              	.LVUS11:
 3473 01e8 00       		.uleb128 .LVU328
ARM GAS  /tmp/ccbqudvp.s 			page 62


 3474 01e9 00       		.uleb128 .LVU335
 3475              	.LLST11:
 3476 01ea 0E000000 		.4byte	.LVL33
 3477 01ee 19000000 		.4byte	.LVL34-1
 3478 01f2 0100     		.2byte	0x1
 3479 01f4 51       		.byte	0x51
 3480 01f5 00000000 		.4byte	0
 3481 01f9 00000000 		.4byte	0
 3482              	.LVUS10:
 3483 01fd 00       		.uleb128 .LVU299
 3484 01fe 00       		.uleb128 .LVU306
 3485              	.LLST10:
 3486 01ff 0E000000 		.4byte	.LVL30
 3487 0203 19000000 		.4byte	.LVL31-1
 3488 0207 0100     		.2byte	0x1
 3489 0209 51       		.byte	0x51
 3490 020a 00000000 		.4byte	0
 3491 020e 00000000 		.4byte	0
 3492              	.LVUS9:
 3493 0212 00       		.uleb128 .LVU270
 3494 0213 00       		.uleb128 .LVU277
 3495              	.LLST9:
 3496 0214 0E000000 		.4byte	.LVL27
 3497 0218 19000000 		.4byte	.LVL28-1
 3498 021c 0100     		.2byte	0x1
 3499 021e 51       		.byte	0x51
 3500 021f 00000000 		.4byte	0
 3501 0223 00000000 		.4byte	0
 3502              	.LVUS8:
 3503 0227 00       		.uleb128 .LVU243
 3504 0228 00       		.uleb128 .LVU248
 3505              	.LLST8:
 3506 0229 0E000000 		.4byte	.LVL24
 3507 022d 15000000 		.4byte	.LVL25-1
 3508 0231 0100     		.2byte	0x1
 3509 0233 51       		.byte	0x51
 3510 0234 00000000 		.4byte	0
 3511 0238 00000000 		.4byte	0
 3512              	.LVUS7:
 3513 023c 00       		.uleb128 .LVU214
 3514 023d 00       		.uleb128 .LVU221
 3515              	.LLST7:
 3516 023e 0E000000 		.4byte	.LVL21
 3517 0242 19000000 		.4byte	.LVL22-1
 3518 0246 0100     		.2byte	0x1
 3519 0248 51       		.byte	0x51
 3520 0249 00000000 		.4byte	0
 3521 024d 00000000 		.4byte	0
 3522              	.LVUS6:
 3523 0251 00       		.uleb128 .LVU185
 3524 0252 00       		.uleb128 .LVU192
 3525              	.LLST6:
 3526 0253 0E000000 		.4byte	.LVL18
 3527 0257 19000000 		.4byte	.LVL19-1
 3528 025b 0100     		.2byte	0x1
 3529 025d 51       		.byte	0x51
 3530 025e 00000000 		.4byte	0
ARM GAS  /tmp/ccbqudvp.s 			page 63


 3531 0262 00000000 		.4byte	0
 3532              	.LVUS5:
 3533 0266 00       		.uleb128 .LVU156
 3534 0267 00       		.uleb128 .LVU163
 3535              	.LLST5:
 3536 0268 0E000000 		.4byte	.LVL15
 3537 026c 19000000 		.4byte	.LVL16-1
 3538 0270 0100     		.2byte	0x1
 3539 0272 51       		.byte	0x51
 3540 0273 00000000 		.4byte	0
 3541 0277 00000000 		.4byte	0
 3542              	.LVUS4:
 3543 027b 00       		.uleb128 .LVU129
 3544 027c 00       		.uleb128 .LVU134
 3545              	.LLST4:
 3546 027d 0E000000 		.4byte	.LVL12
 3547 0281 15000000 		.4byte	.LVL13-1
 3548 0285 0100     		.2byte	0x1
 3549 0287 51       		.byte	0x51
 3550 0288 00000000 		.4byte	0
 3551 028c 00000000 		.4byte	0
 3552              	.LVUS3:
 3553 0290 00       		.uleb128 .LVU100
 3554 0291 00       		.uleb128 .LVU107
 3555              	.LLST3:
 3556 0292 0E000000 		.4byte	.LVL9
 3557 0296 19000000 		.4byte	.LVL10-1
 3558 029a 0100     		.2byte	0x1
 3559 029c 51       		.byte	0x51
 3560 029d 00000000 		.4byte	0
 3561 02a1 00000000 		.4byte	0
 3562              	.LVUS2:
 3563 02a5 00       		.uleb128 .LVU71
 3564 02a6 00       		.uleb128 .LVU78
 3565              	.LLST2:
 3566 02a7 0E000000 		.4byte	.LVL6
 3567 02ab 19000000 		.4byte	.LVL7-1
 3568 02af 0100     		.2byte	0x1
 3569 02b1 51       		.byte	0x51
 3570 02b2 00000000 		.4byte	0
 3571 02b6 00000000 		.4byte	0
 3572              	.LVUS1:
 3573 02ba 00       		.uleb128 .LVU42
 3574 02bb 00       		.uleb128 .LVU49
 3575              	.LLST1:
 3576 02bc 0E000000 		.4byte	.LVL3
 3577 02c0 19000000 		.4byte	.LVL4-1
 3578 02c4 0100     		.2byte	0x1
 3579 02c6 51       		.byte	0x51
 3580 02c7 00000000 		.4byte	0
 3581 02cb 00000000 		.4byte	0
 3582              	.LVUS0:
 3583 02cf 00       		.uleb128 .LVU14
 3584 02d0 00       		.uleb128 .LVU20
 3585              	.LLST0:
 3586 02d1 0C000000 		.4byte	.LVL0
 3587 02d5 15000000 		.4byte	.LVL1-1
ARM GAS  /tmp/ccbqudvp.s 			page 64


 3588 02d9 0100     		.2byte	0x1
 3589 02db 51       		.byte	0x51
 3590 02dc 00000000 		.4byte	0
 3591 02e0 00000000 		.4byte	0
 3592              		.section	.debug_aranges,"",%progbits
 3593 0000 AC000000 		.4byte	0xac
 3594 0004 0200     		.2byte	0x2
 3595 0006 00000000 		.4byte	.Ldebug_info0
 3596 000a 04       		.byte	0x4
 3597 000b 00       		.byte	0
 3598 000c 0000     		.2byte	0
 3599 000e 0000     		.2byte	0
 3600 0010 00000000 		.4byte	.LFB277
 3601 0014 28000000 		.4byte	.LFE277-.LFB277
 3602 0018 00000000 		.4byte	.LFB278
 3603 001c 2C000000 		.4byte	.LFE278-.LFB278
 3604 0020 00000000 		.4byte	.LFB279
 3605 0024 2C000000 		.4byte	.LFE279-.LFB279
 3606 0028 00000000 		.4byte	.LFB280
 3607 002c 2C000000 		.4byte	.LFE280-.LFB280
 3608 0030 00000000 		.4byte	.LFB281
 3609 0034 28000000 		.4byte	.LFE281-.LFB281
 3610 0038 00000000 		.4byte	.LFB282
 3611 003c 2C000000 		.4byte	.LFE282-.LFB282
 3612 0040 00000000 		.4byte	.LFB283
 3613 0044 2C000000 		.4byte	.LFE283-.LFB283
 3614 0048 00000000 		.4byte	.LFB284
 3615 004c 2C000000 		.4byte	.LFE284-.LFB284
 3616 0050 00000000 		.4byte	.LFB285
 3617 0054 28000000 		.4byte	.LFE285-.LFB285
 3618 0058 00000000 		.4byte	.LFB286
 3619 005c 2C000000 		.4byte	.LFE286-.LFB286
 3620 0060 00000000 		.4byte	.LFB287
 3621 0064 2C000000 		.4byte	.LFE287-.LFB287
 3622 0068 00000000 		.4byte	.LFB288
 3623 006c 2C000000 		.4byte	.LFE288-.LFB288
 3624 0070 00000000 		.4byte	.LFB289
 3625 0074 28000000 		.4byte	.LFE289-.LFB289
 3626 0078 00000000 		.4byte	.LFB290
 3627 007c 2C000000 		.4byte	.LFE290-.LFB290
 3628 0080 00000000 		.4byte	.LFB291
 3629 0084 2C000000 		.4byte	.LFE291-.LFB291
 3630 0088 00000000 		.4byte	.LFB292
 3631 008c 2C000000 		.4byte	.LFE292-.LFB292
 3632 0090 00000000 		.4byte	.LFB293
 3633 0094 54000000 		.4byte	.LFE293-.LFB293
 3634 0098 00000000 		.4byte	.LFB294
 3635 009c 88000000 		.4byte	.LFE294-.LFB294
 3636 00a0 00000000 		.4byte	.LFB295
 3637 00a4 44000000 		.4byte	.LFE295-.LFB295
 3638 00a8 00000000 		.4byte	0
 3639 00ac 00000000 		.4byte	0
 3640              		.section	.debug_ranges,"",%progbits
 3641              	.Ldebug_ranges0:
 3642 0000 00000000 		.4byte	.LFB277
 3643 0004 28000000 		.4byte	.LFE277
 3644 0008 00000000 		.4byte	.LFB278
ARM GAS  /tmp/ccbqudvp.s 			page 65


 3645 000c 2C000000 		.4byte	.LFE278
 3646 0010 00000000 		.4byte	.LFB279
 3647 0014 2C000000 		.4byte	.LFE279
 3648 0018 00000000 		.4byte	.LFB280
 3649 001c 2C000000 		.4byte	.LFE280
 3650 0020 00000000 		.4byte	.LFB281
 3651 0024 28000000 		.4byte	.LFE281
 3652 0028 00000000 		.4byte	.LFB282
 3653 002c 2C000000 		.4byte	.LFE282
 3654 0030 00000000 		.4byte	.LFB283
 3655 0034 2C000000 		.4byte	.LFE283
 3656 0038 00000000 		.4byte	.LFB284
 3657 003c 2C000000 		.4byte	.LFE284
 3658 0040 00000000 		.4byte	.LFB285
 3659 0044 28000000 		.4byte	.LFE285
 3660 0048 00000000 		.4byte	.LFB286
 3661 004c 2C000000 		.4byte	.LFE286
 3662 0050 00000000 		.4byte	.LFB287
 3663 0054 2C000000 		.4byte	.LFE287
 3664 0058 00000000 		.4byte	.LFB288
 3665 005c 2C000000 		.4byte	.LFE288
 3666 0060 00000000 		.4byte	.LFB289
 3667 0064 28000000 		.4byte	.LFE289
 3668 0068 00000000 		.4byte	.LFB290
 3669 006c 2C000000 		.4byte	.LFE290
 3670 0070 00000000 		.4byte	.LFB291
 3671 0074 2C000000 		.4byte	.LFE291
 3672 0078 00000000 		.4byte	.LFB292
 3673 007c 2C000000 		.4byte	.LFE292
 3674 0080 00000000 		.4byte	.LFB293
 3675 0084 54000000 		.4byte	.LFE293
 3676 0088 00000000 		.4byte	.LFB294
 3677 008c 88000000 		.4byte	.LFE294
 3678 0090 00000000 		.4byte	.LFB295
 3679 0094 44000000 		.4byte	.LFE295
 3680 0098 00000000 		.4byte	0
 3681 009c 00000000 		.4byte	0
 3682              		.section	.debug_line,"",%progbits
 3683              	.Ldebug_line0:
 3684 0000 BA080000 		.section	.debug_str,"MS",%progbits,1
 3684      03002601 
 3684      00000201 
 3684      FB0E0D00 
 3684      01010101 
 3685              	.LASF37:
 3686 0000 41484231 		.ascii	"AHB1LPENR\000"
 3686      4C50454E 
 3686      5200
 3687              	.LASF48:
 3688 000a 5243435F 		.ascii	"RCC_TypeDef\000"
 3688      54797065 
 3688      44656600 
 3689              	.LASF27:
 3690 0016 41504231 		.ascii	"APB1RSTR\000"
 3690      52535452 
 3690      00
 3691              	.LASF89:
ARM GAS  /tmp/ccbqudvp.s 			page 66


 3692 001f 6E766963 		.ascii	"nvicEnableVector\000"
 3692      456E6162 
 3692      6C655665 
 3692      63746F72 
 3692      00
 3693              	.LASF31:
 3694 0030 41484232 		.ascii	"AHB2ENR\000"
 3694      454E5200 
 3695              	.LASF64:
 3696 0038 7072696F 		.ascii	"priority\000"
 3696      72697479 
 3696      00
 3697              	.LASF15:
 3698 0041 444D415F 		.ascii	"DMA_Stream_TypeDef\000"
 3698      53747265 
 3698      616D5F54 
 3698      79706544 
 3698      656600
 3699              	.LASF91:
 3700 0054 474E5520 		.ascii	"GNU C17 10.3.1 20210621 (release) -mcpu=cortex-m4 -"
 3700      43313720 
 3700      31302E33 
 3700      2E312032 
 3700      30323130 
 3701 0087 6D6E6F2D 		.ascii	"mno-thumb-interwork -mthumb -mfloat-abi=soft -march"
 3701      7468756D 
 3701      622D696E 
 3701      74657277 
 3701      6F726B20 
 3702 00ba 3D61726D 		.ascii	"=armv7e-m -ggdb -O2 -fomit-frame-pointer -falign-fu"
 3702      7637652D 
 3702      6D202D67 
 3702      67646220 
 3702      2D4F3220 
 3703 00ed 6E637469 		.ascii	"nctions=16 -ffunction-sections -fdata-sections -fno"
 3703      6F6E733D 
 3703      3136202D 
 3703      6666756E 
 3703      6374696F 
 3704 0120 2D636F6D 		.ascii	"-common\000"
 3704      6D6F6E00 
 3705              	.LASF4:
 3706 0128 73686F72 		.ascii	"short int\000"
 3706      7420696E 
 3706      7400
 3707              	.LASF63:
 3708 0132 646D6173 		.ascii	"dmastp\000"
 3708      747000
 3709              	.LASF68:
 3710 0139 646D6153 		.ascii	"dmaStreamRelease\000"
 3710      74726561 
 3710      6D52656C 
 3710      65617365 
 3710      00
 3711              	.LASF44:
 3712 014a 42444352 		.ascii	"BDCR\000"
 3712      00
ARM GAS  /tmp/ccbqudvp.s 			page 67


 3713              	.LASF47:
 3714 014f 504C4C49 		.ascii	"PLLI2SCFGR\000"
 3714      32534346 
 3714      475200
 3715              	.LASF85:
 3716 015a 56656374 		.ascii	"Vector74\000"
 3716      6F723734 
 3716      00
 3717              	.LASF20:
 3718 0163 444D415F 		.ascii	"DMA_TypeDef\000"
 3718      54797065 
 3718      44656600 
 3719              	.LASF46:
 3720 016f 53534347 		.ascii	"SSCGR\000"
 3720      5200
 3721              	.LASF84:
 3722 0175 56656374 		.ascii	"Vector78\000"
 3722      6F723738 
 3722      00
 3723              	.LASF39:
 3724 017e 41484233 		.ascii	"AHB3LPENR\000"
 3724      4C50454E 
 3724      5200
 3725              	.LASF22:
 3726 0188 43464752 		.ascii	"CFGR\000"
 3726      00
 3727              	.LASF56:
 3728 018d 73746D33 		.ascii	"stm32_dma_stream_t\000"
 3728      325F646D 
 3728      615F7374 
 3728      7265616D 
 3728      5F7400
 3729              	.LASF8:
 3730 01a0 75696E74 		.ascii	"uint8_t\000"
 3730      385F7400 
 3731              	.LASF34:
 3732 01a8 41504231 		.ascii	"APB1ENR\000"
 3732      454E5200 
 3733              	.LASF55:
 3734 01b0 76656374 		.ascii	"vector\000"
 3734      6F7200
 3735              	.LASF87:
 3736 01b7 56656374 		.ascii	"Vector6C\000"
 3736      6F723643 
 3736      00
 3737              	.LASF2:
 3738 01c0 6C6F6E67 		.ascii	"long double\000"
 3738      20646F75 
 3738      626C6500 
 3739              	.LASF32:
 3740 01cc 41484233 		.ascii	"AHB3ENR\000"
 3740      454E5200 
 3741              	.LASF65:
 3742 01d4 66756E63 		.ascii	"func\000"
 3742      00
 3743              	.LASF80:
 3744 01d9 56656374 		.ascii	"VectorFC\000"
ARM GAS  /tmp/ccbqudvp.s 			page 68


 3744      6F724643 
 3744      00
 3745              	.LASF1:
 3746 01e2 6C6F6E67 		.ascii	"long long int\000"
 3746      206C6F6E 
 3746      6720696E 
 3746      7400
 3747              	.LASF17:
 3748 01f0 48495352 		.ascii	"HISR\000"
 3748      00
 3749              	.LASF5:
 3750 01f5 6C6F6E67 		.ascii	"long int\000"
 3750      20696E74 
 3750      00
 3751              	.LASF88:
 3752 01fe 6E766963 		.ascii	"nvicDisableVector\000"
 3752      44697361 
 3752      626C6556 
 3752      6563746F 
 3752      7200
 3753              	.LASF93:
 3754 0210 2F686F6D 		.ascii	"/home/tfateba/nlab/ip/trunk/demos/STM32/RT-STM32F40"
 3754      652F7466 
 3754      61746562 
 3754      612F6E6C 
 3754      61622F69 
 3755 0243 372D4449 		.ascii	"7-DISCOVERY-G++\000"
 3755      53434F56 
 3755      4552592D 
 3755      472B2B00 
 3756              	.LASF60:
 3757 0253 646D615F 		.ascii	"dma_isr_redir_t\000"
 3757      6973725F 
 3757      72656469 
 3757      725F7400 
 3758              	.LASF51:
 3759 0263 73747265 		.ascii	"stream\000"
 3759      616D00
 3760              	.LASF28:
 3761 026a 41504232 		.ascii	"APB2RSTR\000"
 3761      52535452 
 3761      00
 3762              	.LASF74:
 3763 0273 56656374 		.ascii	"Vector150\000"
 3763      6F723135 
 3763      3000
 3764              	.LASF6:
 3765 027d 756E7369 		.ascii	"unsigned char\000"
 3765      676E6564 
 3765      20636861 
 3765      7200
 3766              	.LASF86:
 3767 028b 56656374 		.ascii	"Vector70\000"
 3767      6F723730 
 3767      00
 3768              	.LASF73:
 3769 0294 56656374 		.ascii	"Vector154\000"
ARM GAS  /tmp/ccbqudvp.s 			page 69


 3769      6F723135 
 3769      3400
 3770              	.LASF90:
 3771 029e 5F706F72 		.ascii	"_port_irq_epilogue\000"
 3771      745F6972 
 3771      715F6570 
 3771      696C6F67 
 3771      756500
 3772              	.LASF67:
 3773 02b1 5F5F6675 		.ascii	"__func__\000"
 3773      6E635F5F 
 3773      00
 3774              	.LASF58:
 3775 02ba 646D615F 		.ascii	"dma_func\000"
 3775      66756E63 
 3775      00
 3776              	.LASF71:
 3777 02c3 56656374 		.ascii	"Vector158\000"
 3777      6F723135 
 3777      3800
 3778              	.LASF35:
 3779 02cd 41504232 		.ascii	"APB2ENR\000"
 3779      454E5200 
 3780              	.LASF92:
 3781 02d5 2E2E2F2E 		.ascii	"../../../os/hal/ports/STM32/LLD/DMAv2/stm32_dma.c\000"
 3781      2E2F2E2E 
 3781      2F6F732F 
 3781      68616C2F 
 3781      706F7274 
 3782              	.LASF3:
 3783 0307 7369676E 		.ascii	"signed char\000"
 3783      65642063 
 3783      68617200 
 3784              	.LASF72:
 3785 0313 666C6167 		.ascii	"flags\000"
 3785      7300
 3786              	.LASF11:
 3787 0319 6C6F6E67 		.ascii	"long long unsigned int\000"
 3787      206C6F6E 
 3787      6720756E 
 3787      7369676E 
 3787      65642069 
 3788              	.LASF9:
 3789 0330 75696E74 		.ascii	"uint32_t\000"
 3789      33325F74 
 3789      00
 3790              	.LASF54:
 3791 0339 73656C66 		.ascii	"selfindex\000"
 3791      696E6465 
 3791      7800
 3792              	.LASF83:
 3793 0343 56656374 		.ascii	"Vector7C\000"
 3793      6F723743 
 3793      00
 3794              	.LASF24:
 3795 034c 41484232 		.ascii	"AHB2RSTR\000"
 3795      52535452 
ARM GAS  /tmp/ccbqudvp.s 			page 70


 3795      00
 3796              	.LASF10:
 3797 0355 6C6F6E67 		.ascii	"long unsigned int\000"
 3797      20756E73 
 3797      69676E65 
 3797      6420696E 
 3797      7400
 3798              	.LASF23:
 3799 0367 41484231 		.ascii	"AHB1RSTR\000"
 3799      52535452 
 3799      00
 3800              	.LASF66:
 3801 0370 70617261 		.ascii	"param\000"
 3801      6D00
 3802              	.LASF21:
 3803 0376 504C4C43 		.ascii	"PLLCFGR\000"
 3803      46475200 
 3804              	.LASF7:
 3805 037e 73686F72 		.ascii	"short unsigned int\000"
 3805      7420756E 
 3805      7369676E 
 3805      65642069 
 3805      6E7400
 3806              	.LASF41:
 3807 0391 41504231 		.ascii	"APB1LPENR\000"
 3807      4C50454E 
 3807      5200
 3808              	.LASF14:
 3809 039b 4D314152 		.ascii	"M1AR\000"
 3809      00
 3810              	.LASF76:
 3811 03a0 56656374 		.ascii	"Vector12C\000"
 3811      6F723132 
 3811      4300
 3812              	.LASF49:
 3813 03aa 63686172 		.ascii	"char\000"
 3813      00
 3814              	.LASF16:
 3815 03af 4C495352 		.ascii	"LISR\000"
 3815      00
 3816              	.LASF79:
 3817 03b4 56656374 		.ascii	"Vector120\000"
 3817      6F723132 
 3817      3000
 3818              	.LASF82:
 3819 03be 56656374 		.ascii	"Vector80\000"
 3819      6F723830 
 3819      00
 3820              	.LASF78:
 3821 03c7 56656374 		.ascii	"Vector124\000"
 3821      6F723132 
 3821      3400
 3822              	.LASF57:
 3823 03d1 73746D33 		.ascii	"stm32_dmaisr_t\000"
 3823      325F646D 
 3823      61697372 
 3823      5F7400
ARM GAS  /tmp/ccbqudvp.s 			page 71


 3824              	.LASF50:
 3825 03e0 5F426F6F 		.ascii	"_Bool\000"
 3825      6C00
 3826              	.LASF77:
 3827 03e6 56656374 		.ascii	"Vector128\000"
 3827      6F723132 
 3827      3800
 3828              	.LASF59:
 3829 03f0 646D615F 		.ascii	"dma_param\000"
 3829      70617261 
 3829      6D00
 3830              	.LASF13:
 3831 03fa 4D304152 		.ascii	"M0AR\000"
 3831      00
 3832              	.LASF38:
 3833 03ff 41484232 		.ascii	"AHB2LPENR\000"
 3833      4C50454E 
 3833      5200
 3834              	.LASF69:
 3835 0409 646D6149 		.ascii	"dmaInit\000"
 3835      6E697400 
 3836              	.LASF18:
 3837 0411 4C494643 		.ascii	"LIFCR\000"
 3837      5200
 3838              	.LASF26:
 3839 0417 52455345 		.ascii	"RESERVED0\000"
 3839      52564544 
 3839      3000
 3840              	.LASF29:
 3841 0421 52455345 		.ascii	"RESERVED1\000"
 3841      52564544 
 3841      3100
 3842              	.LASF33:
 3843 042b 52455345 		.ascii	"RESERVED2\000"
 3843      52564544 
 3843      3200
 3844              	.LASF36:
 3845 0435 52455345 		.ascii	"RESERVED3\000"
 3845      52564544 
 3845      3300
 3846              	.LASF40:
 3847 043f 52455345 		.ascii	"RESERVED4\000"
 3847      52564544 
 3847      3400
 3848              	.LASF43:
 3849 0449 52455345 		.ascii	"RESERVED5\000"
 3849      52564544 
 3849      3500
 3850              	.LASF45:
 3851 0453 52455345 		.ascii	"RESERVED6\000"
 3851      52564544 
 3851      3600
 3852              	.LASF81:
 3853 045d 56656374 		.ascii	"Vector84\000"
 3853      6F723834 
 3853      00
 3854              	.LASF12:
ARM GAS  /tmp/ccbqudvp.s 			page 72


 3855 0466 4E445452 		.ascii	"NDTR\000"
 3855      00
 3856              	.LASF30:
 3857 046b 41484231 		.ascii	"AHB1ENR\000"
 3857      454E5200 
 3858              	.LASF70:
 3859 0473 5F73746D 		.ascii	"_stm32_dma_streams\000"
 3859      33325F64 
 3859      6D615F73 
 3859      74726561 
 3859      6D7300
 3860              	.LASF94:
 3861 0486 646D6153 		.ascii	"dmaStreamAllocate\000"
 3861      74726561 
 3861      6D416C6C 
 3861      6F636174 
 3861      6500
 3862              	.LASF19:
 3863 0498 48494643 		.ascii	"HIFCR\000"
 3863      5200
 3864              	.LASF62:
 3865 049e 646D615F 		.ascii	"dma_isr_redir\000"
 3865      6973725F 
 3865      72656469 
 3865      7200
 3866              	.LASF25:
 3867 04ac 41484233 		.ascii	"AHB3RSTR\000"
 3867      52535452 
 3867      00
 3868              	.LASF61:
 3869 04b5 646D615F 		.ascii	"dma_streams_mask\000"
 3869      73747265 
 3869      616D735F 
 3869      6D61736B 
 3869      00
 3870              	.LASF53:
 3871 04c6 69736869 		.ascii	"ishift\000"
 3871      667400
 3872              	.LASF75:
 3873 04cd 56656374 		.ascii	"Vector130\000"
 3873      6F723133 
 3873      3000
 3874              	.LASF0:
 3875 04d7 756E7369 		.ascii	"unsigned int\000"
 3875      676E6564 
 3875      20696E74 
 3875      00
 3876              	.LASF52:
 3877 04e4 69666372 		.ascii	"ifcr\000"
 3877      00
 3878              	.LASF42:
 3879 04e9 41504232 		.ascii	"APB2LPENR\000"
 3879      4C50454E 
 3879      5200
 3880              		.ident	"GCC: (15:10.3-2021.07-4) 10.3.1 20210621 (release)"
ARM GAS  /tmp/ccbqudvp.s 			page 73


DEFINED SYMBOLS
                            *ABS*:0000000000000000 stm32_dma.c
     /tmp/ccbqudvp.s:16     .text.Vector6C:0000000000000000 $t
     /tmp/ccbqudvp.s:25     .text.Vector6C:0000000000000000 Vector6C
     /tmp/ccbqudvp.s:83     .text.Vector6C:0000000000000020 $d
     /tmp/ccbqudvp.s:89     .text.Vector70:0000000000000000 $t
     /tmp/ccbqudvp.s:97     .text.Vector70:0000000000000000 Vector70
     /tmp/ccbqudvp.s:158    .text.Vector70:0000000000000024 $d
     /tmp/ccbqudvp.s:164    .text.Vector74:0000000000000000 $t
     /tmp/ccbqudvp.s:172    .text.Vector74:0000000000000000 Vector74
     /tmp/ccbqudvp.s:233    .text.Vector74:0000000000000024 $d
     /tmp/ccbqudvp.s:239    .text.Vector78:0000000000000000 $t
     /tmp/ccbqudvp.s:247    .text.Vector78:0000000000000000 Vector78
     /tmp/ccbqudvp.s:308    .text.Vector78:0000000000000024 $d
     /tmp/ccbqudvp.s:314    .text.Vector7C:0000000000000000 $t
     /tmp/ccbqudvp.s:322    .text.Vector7C:0000000000000000 Vector7C
     /tmp/ccbqudvp.s:379    .text.Vector7C:0000000000000020 $d
     /tmp/ccbqudvp.s:385    .text.Vector80:0000000000000000 $t
     /tmp/ccbqudvp.s:393    .text.Vector80:0000000000000000 Vector80
     /tmp/ccbqudvp.s:454    .text.Vector80:0000000000000024 $d
     /tmp/ccbqudvp.s:460    .text.Vector84:0000000000000000 $t
     /tmp/ccbqudvp.s:468    .text.Vector84:0000000000000000 Vector84
     /tmp/ccbqudvp.s:529    .text.Vector84:0000000000000024 $d
     /tmp/ccbqudvp.s:535    .text.VectorFC:0000000000000000 $t
     /tmp/ccbqudvp.s:543    .text.VectorFC:0000000000000000 VectorFC
     /tmp/ccbqudvp.s:604    .text.VectorFC:0000000000000024 $d
     /tmp/ccbqudvp.s:610    .text.Vector120:0000000000000000 $t
     /tmp/ccbqudvp.s:618    .text.Vector120:0000000000000000 Vector120
     /tmp/ccbqudvp.s:675    .text.Vector120:0000000000000020 $d
     /tmp/ccbqudvp.s:681    .text.Vector124:0000000000000000 $t
     /tmp/ccbqudvp.s:689    .text.Vector124:0000000000000000 Vector124
     /tmp/ccbqudvp.s:750    .text.Vector124:0000000000000024 $d
     /tmp/ccbqudvp.s:756    .text.Vector128:0000000000000000 $t
     /tmp/ccbqudvp.s:764    .text.Vector128:0000000000000000 Vector128
     /tmp/ccbqudvp.s:825    .text.Vector128:0000000000000024 $d
     /tmp/ccbqudvp.s:831    .text.Vector12C:0000000000000000 $t
     /tmp/ccbqudvp.s:839    .text.Vector12C:0000000000000000 Vector12C
     /tmp/ccbqudvp.s:900    .text.Vector12C:0000000000000024 $d
     /tmp/ccbqudvp.s:906    .text.Vector130:0000000000000000 $t
     /tmp/ccbqudvp.s:914    .text.Vector130:0000000000000000 Vector130
     /tmp/ccbqudvp.s:971    .text.Vector130:0000000000000020 $d
     /tmp/ccbqudvp.s:977    .text.Vector150:0000000000000000 $t
     /tmp/ccbqudvp.s:985    .text.Vector150:0000000000000000 Vector150
     /tmp/ccbqudvp.s:1046   .text.Vector150:0000000000000024 $d
     /tmp/ccbqudvp.s:1052   .text.Vector154:0000000000000000 $t
     /tmp/ccbqudvp.s:1060   .text.Vector154:0000000000000000 Vector154
     /tmp/ccbqudvp.s:1121   .text.Vector154:0000000000000024 $d
     /tmp/ccbqudvp.s:1127   .text.Vector158:0000000000000000 $t
     /tmp/ccbqudvp.s:1135   .text.Vector158:0000000000000000 Vector158
     /tmp/ccbqudvp.s:1196   .text.Vector158:0000000000000024 $d
     /tmp/ccbqudvp.s:1202   .text.dmaInit:0000000000000000 $t
     /tmp/ccbqudvp.s:1210   .text.dmaInit:0000000000000000 dmaInit
     /tmp/ccbqudvp.s:1285   .text.dmaInit:000000000000003c $d
     /tmp/ccbqudvp.s:1295   .text.dmaStreamAllocate:0000000000000000 $t
     /tmp/ccbqudvp.s:1303   .text.dmaStreamAllocate:0000000000000000 dmaStreamAllocate
     /tmp/ccbqudvp.s:1439   .text.dmaStreamAllocate:000000000000007c $d
     /tmp/ccbqudvp.s:1446   .text.dmaStreamRelease:0000000000000000 $t
ARM GAS  /tmp/ccbqudvp.s 			page 74


     /tmp/ccbqudvp.s:1454   .text.dmaStreamRelease:0000000000000000 dmaStreamRelease
     /tmp/ccbqudvp.s:1527   .text.dmaStreamRelease:000000000000003c $d
     /tmp/ccbqudvp.s:1552   .rodata._stm32_dma_streams:0000000000000000 _stm32_dma_streams
     /tmp/ccbqudvp.s:1534   .bss.dma_isr_redir:0000000000000000 $d
     /tmp/ccbqudvp.s:1538   .bss.dma_isr_redir:0000000000000000 dma_isr_redir
     /tmp/ccbqudvp.s:1541   .bss.dma_streams_mask:0000000000000000 $d
     /tmp/ccbqudvp.s:1545   .bss.dma_streams_mask:0000000000000000 dma_streams_mask
     /tmp/ccbqudvp.s:1548   .rodata._stm32_dma_streams:0000000000000000 $d

UNDEFINED SYMBOLS
_port_irq_epilogue
nvicEnableVector
nvicDisableVector
