ARM GAS  /tmp/ccNrdHHJ.s 			page 1


   1              		.cpu cortex-m4
   2              		.eabi_attribute 20, 1
   3              		.eabi_attribute 21, 1
   4              		.eabi_attribute 23, 3
   5              		.eabi_attribute 24, 1
   6              		.eabi_attribute 25, 1
   7              		.eabi_attribute 26, 1
   8              		.eabi_attribute 30, 2
   9              		.eabi_attribute 34, 1
  10              		.eabi_attribute 18, 4
  11              		.file	"syscalls_cpp.cpp"
  12              		.text
  13              	.Ltext0:
  14              		.cfi_sections	.debug_frame
  15              		.section	.rodata._exit.str1.4,"aMS",%progbits,1
  16              		.align	2
  17              	.LC0:
  18 0000 556E7265 		.ascii	"Unrealized\000"
  18      616C697A 
  18      656400
  19              		.section	.text._exit,"ax",%progbits
  20              		.align	1
  21              		.p2align 4,,15
  22              		.global	_exit
  23              		.arch armv7e-m
  24              		.syntax unified
  25              		.thumb
  26              		.thumb_func
  27              		.fpu softvfp
  28              		.type	_exit, %function
  29              	_exit:
  30              		.fnstart
  31              	.LVL0:
  32              	.LFB278:
  33              		.file 1 "../../../os/various/cpp_wrappers/syscalls_cpp.cpp"
  34              		.loc 1 12 23 view -0
  35              		.cfi_startproc
  36              		@ args = 0, pretend = 0, frame = 0
  37              		@ frame_needed = 0, uses_anonymous_args = 0
  38              		.loc 1 13 4 view .LVU1
  39              		.loc 1 14 4 view .LVU2
  40              	.LBB6:
  41              	.LBI6:
  42              		.file 2 "../../../os/hal/osal/rt/osal.h"
  43              		.loc 2 460 20 view .LVU3
  44              	.LBB7:
  45              		.loc 2 462 3 view .LVU4
  46              	.LBE7:
  47              	.LBE6:
  48              		.loc 1 12 23 is_stmt 0 view .LVU5
  49 0000 08B5     		push	{r3, lr}
  50              		.save {r3, lr}
  51              		.cfi_def_cfa_offset 8
  52              		.cfi_offset 3, -8
  53              		.cfi_offset 14, -4
  54              	.LBB9:
  55              	.LBB8:
ARM GAS  /tmp/ccNrdHHJ.s 			page 2


  56              		.loc 2 462 12 view .LVU6
  57 0002 0248     		ldr	r0, .L5
  58              	.LVL1:
  59              		.loc 2 462 12 view .LVU7
  60 0004 FFF7FEFF 		bl	chSysHalt
  61              	.LVL2:
  62              	.L2:
  63              		.loc 2 462 12 view .LVU8
  64              	.LBE8:
  65              	.LBE9:
  66              		.loc 1 15 4 is_stmt 1 discriminator 1 view .LVU9
  67              		.loc 1 15 4 discriminator 1 view .LVU10
  68              		.loc 1 15 4 discriminator 1 view .LVU11
  69              		.loc 1 15 4 discriminator 1 view .LVU12
  70 0008 FEE7     		b	.L2
  71              	.L6:
  72 000a 00BF     		.align	2
  73              	.L5:
  74 000c 00000000 		.word	.LC0
  75              		.cfi_endproc
  76              	.LFE278:
  77              		.fnend
  78              		.size	_exit, .-_exit
  79              		.section	.text._getpid,"ax",%progbits
  80              		.align	1
  81              		.p2align 4,,15
  82              		.global	_getpid
  83              		.syntax unified
  84              		.thumb
  85              		.thumb_func
  86              		.fpu softvfp
  87              		.type	_getpid, %function
  88              	_getpid:
  89              		.fnstart
  90              	.LFB279:
  91              		.loc 1 18 20 view -0
  92              		.cfi_startproc
  93              		@ args = 0, pretend = 0, frame = 0
  94              		@ frame_needed = 0, uses_anonymous_args = 0
  95              		@ link register save eliminated.
  96              		.loc 1 19 4 view .LVU14
  97              		.loc 1 20 1 is_stmt 0 view .LVU15
  98 0000 0120     		movs	r0, #1
  99 0002 7047     		bx	lr
 100              		.cfi_endproc
 101              	.LFE279:
 102              		.cantunwind
 103              		.fnend
 104              		.size	_getpid, .-_getpid
 105              		.section	.text._kill,"ax",%progbits
 106              		.align	1
 107              		.p2align 4,,15
 108              		.global	_kill
 109              		.syntax unified
 110              		.thumb
 111              		.thumb_func
 112              		.fpu softvfp
ARM GAS  /tmp/ccNrdHHJ.s 			page 3


 113              		.type	_kill, %function
 114              	_kill:
 115              		.fnstart
 116              	.LVL3:
 117              	.LFB280:
 118              		.loc 1 24 29 is_stmt 1 view -0
 119              		.cfi_startproc
 120              		@ args = 0, pretend = 0, frame = 0
 121              		@ frame_needed = 0, uses_anonymous_args = 0
 122              		@ link register save eliminated.
 123              		.loc 1 25 3 view .LVU17
 124              		.loc 1 26 3 view .LVU18
 125              		.loc 1 27 3 view .LVU19
 126              		.loc 1 27 9 is_stmt 0 view .LVU20
 127 0000 024B     		ldr	r3, .L9
 128 0002 1622     		movs	r2, #22
 129 0004 1A60     		str	r2, [r3]
 130              		.loc 1 28 3 is_stmt 1 view .LVU21
 131              		.loc 1 29 1 is_stmt 0 view .LVU22
 132 0006 4FF0FF30 		mov	r0, #-1
 133              	.LVL4:
 134              		.loc 1 29 1 view .LVU23
 135 000a 7047     		bx	lr
 136              	.L10:
 137              		.align	2
 138              	.L9:
 139 000c 00000000 		.word	errno
 140              		.cfi_endproc
 141              	.LFE280:
 142              		.cantunwind
 143              		.fnend
 144              		.size	_kill, .-_kill
 145              		.section	.text._open_r,"ax",%progbits
 146              		.align	1
 147              		.p2align 4,,15
 148              		.global	_open_r
 149              		.syntax unified
 150              		.thumb
 151              		.thumb_func
 152              		.fpu softvfp
 153              		.type	_open_r, %function
 154              	_open_r:
 155              		.fnstart
 156              	.LFB281:
 157              		.loc 1 31 19 is_stmt 1 view -0
 158              		.cfi_startproc
 159              		@ args = 0, pretend = 0, frame = 0
 160              		@ frame_needed = 0, uses_anonymous_args = 0
 161              		@ link register save eliminated.
 162              		.loc 1 32 3 view .LVU25
 163              		.loc 1 33 1 is_stmt 0 view .LVU26
 164 0000 7047     		bx	lr
 165              		.cfi_endproc
 166              	.LFE281:
 167              		.cantunwind
 168              		.fnend
 169              		.size	_open_r, .-_open_r
ARM GAS  /tmp/ccNrdHHJ.s 			page 4


 170 0002 00BF     		.section	.rodata.__cxa_pure_virtual.str1.4,"aMS",%progbits,1
 171              		.align	2
 172              	.LC1:
 173 0000 50757265 		.ascii	"Pure virtual function call.\000"
 173      20766972 
 173      7475616C 
 173      2066756E 
 173      6374696F 
 174              		.section	.text.__cxa_pure_virtual,"ax",%progbits
 175              		.align	1
 176              		.p2align 4,,15
 177              		.global	__cxa_pure_virtual
 178              		.syntax unified
 179              		.thumb
 180              		.thumb_func
 181              		.fpu softvfp
 182              		.type	__cxa_pure_virtual, %function
 183              	__cxa_pure_virtual:
 184              		.fnstart
 185              	.LFB282:
 186              		.loc 1 35 27 is_stmt 1 view -0
 187              		.cfi_startproc
 188              		@ args = 0, pretend = 0, frame = 0
 189              		@ frame_needed = 0, uses_anonymous_args = 0
 190              		@ link register save eliminated.
 191              		.loc 1 36 3 view .LVU28
 192              	.LVL5:
 193              	.LBB10:
 194              	.LBI10:
 195              		.loc 2 460 20 view .LVU29
 196              	.LBB11:
 197              		.loc 2 462 3 view .LVU30
 198              		.loc 2 462 12 is_stmt 0 view .LVU31
 199 0000 0148     		ldr	r0, .L13
 200 0002 FFF7FEBF 		b	chSysHalt
 201              	.LVL6:
 202              	.L14:
 203 0006 00BF     		.align	2
 204              	.L13:
 205 0008 00000000 		.word	.LC1
 206              	.LBE11:
 207              	.LBE10:
 208              		.cfi_endproc
 209              	.LFE282:
 210              		.cantunwind
 211              		.fnend
 212              		.size	__cxa_pure_virtual, .-__cxa_pure_virtual
 213              		.global	__dso_handle
 214              		.section	.bss.__dso_handle,"aw",%nobits
 215              		.align	2
 216              		.type	__dso_handle, %object
 217              		.size	__dso_handle, 4
 218              	__dso_handle:
 219 0000 00000000 		.space	4
 220              		.text
 221              	.Letext0:
 222              		.file 3 "/usr/include/newlib/sys/_types.h"
ARM GAS  /tmp/ccNrdHHJ.s 			page 5


 223              		.file 4 "/usr/include/newlib/sys/types.h"
 224              		.file 5 "../../../os/common/ext/CMSIS/ST/STM32F4xx/stm32f4xx.h"
 225              		.file 6 "../../../os/various/cpp_wrappers/syscalls_cpp.hpp"
 226              		.file 7 "../../../os/rt/include/chsys.h"