ARM GAS  /tmp/cctfSDuQ.s 			page 1


   1              		.cpu cortex-m4
   2              		.eabi_attribute 20, 1
   3              		.eabi_attribute 21, 1
   4              		.eabi_attribute 23, 3
   5              		.eabi_attribute 24, 1
   6              		.eabi_attribute 25, 1
   7              		.eabi_attribute 26, 1
   8              		.eabi_attribute 30, 2
   9              		.eabi_attribute 34, 1
  10              		.eabi_attribute 18, 4
  11              		.file	"test_root.c"
  12              		.text
  13              	.Ltext0:
  14              		.cfi_sections	.debug_frame
  15              		.section	.text.test_terminate_threads,"ax",%progbits
  16              		.align	1
  17              		.p2align 4,,15
  18              		.global	test_terminate_threads
  19              		.arch armv7e-m
  20              		.syntax unified
  21              		.thumb
  22              		.thumb_func
  23              		.fpu softvfp
  24              		.type	test_terminate_threads, %function
  25              	test_terminate_threads:
  26              	.LFB277:
  27              		.file 1 "../../../test/rt/source/test/test_root.c"
  28              		.loc 1 115 35 view -0
  29              		.cfi_startproc
  30              		@ args = 0, pretend = 0, frame = 0
  31              		@ frame_needed = 0, uses_anonymous_args = 0
  32              		.loc 1 116 3 view .LVU1
  33              		.loc 1 118 3 view .LVU2
  34              	.LVL0:
  35              		.loc 1 118 15 view .LVU3
  36              		.loc 1 115 35 is_stmt 0 view .LVU4
  37 0000 38B5     		push	{r3, r4, r5, lr}
  38              		.cfi_def_cfa_offset 16
  39              		.cfi_offset 3, -16
  40              		.cfi_offset 4, -12
  41              		.cfi_offset 5, -8
  42              		.cfi_offset 14, -4
  43 0002 054C     		ldr	r4, .L10
  44 0004 04F11405 		add	r5, r4, #20
  45              	.LVL1:
  46              	.L3:
  47              		.loc 1 119 5 is_stmt 1 view .LVU5
  48              		.loc 1 120 7 view .LVU6
  49              		.loc 1 119 16 is_stmt 0 view .LVU7
  50 0008 54F8040B 		ldr	r0, [r4], #4
  51              		.loc 1 119 8 view .LVU8
  52 000c 08B1     		cbz	r0, .L2
  53              		.loc 1 120 7 view .LVU9
  54 000e FFF7FEFF 		bl	chThdTerminate
  55              	.LVL2:
  56              	.L2:
  57              		.loc 1 118 32 is_stmt 1 discriminator 2 view .LVU10
ARM GAS  /tmp/cctfSDuQ.s 			page 2


  58              		.loc 1 118 15 discriminator 2 view .LVU11
  59              		.loc 1 118 3 is_stmt 0 discriminator 2 view .LVU12
  60 0012 AC42     		cmp	r4, r5
  61 0014 F8D1     		bne	.L3
  62              		.loc 1 121 1 view .LVU13
  63 0016 38BD     		pop	{r3, r4, r5, pc}
  64              	.L11:
  65              		.align	2
  66              	.L10:
  67 0018 00000000 		.word	.LANCHOR0
  68              		.cfi_endproc
  69              	.LFE277:
  70              		.size	test_terminate_threads, .-test_terminate_threads
  71              		.section	.text.test_wait_threads,"ax",%progbits
  72              		.align	1
  73              		.p2align 4,,15
  74              		.global	test_wait_threads
  75              		.syntax unified
  76              		.thumb
  77              		.thumb_func
  78              		.fpu softvfp
  79              		.type	test_wait_threads, %function
  80              	test_wait_threads:
  81              	.LFB278:
  82              		.loc 1 126 30 is_stmt 1 view -0
  83              		.cfi_startproc
  84              		@ args = 0, pretend = 0, frame = 0
  85              		@ frame_needed = 0, uses_anonymous_args = 0
  86              		.loc 1 127 3 view .LVU15
  87              		.loc 1 129 3 view .LVU16
  88              	.LVL3:
  89              		.loc 1 129 15 view .LVU17
  90              		.loc 1 126 30 is_stmt 0 view .LVU18
  91 0000 70B5     		push	{r4, r5, r6, lr}
  92              		.cfi_def_cfa_offset 16
  93              		.cfi_offset 4, -16
  94              		.cfi_offset 5, -12
  95              		.cfi_offset 6, -8
  96              		.cfi_offset 14, -4
  97 0002 074C     		ldr	r4, .L20
  98              		.loc 1 132 18 view .LVU19
  99 0004 0026     		movs	r6, #0
 100 0006 04F11405 		add	r5, r4, #20
 101              	.LVL4:
 102              	.L14:
 103              		.loc 1 130 5 is_stmt 1 view .LVU20
 104              		.loc 1 131 7 view .LVU21
 105              		.loc 1 130 16 is_stmt 0 view .LVU22
 106 000a 54F8040B 		ldr	r0, [r4], #4
 107              		.loc 1 130 8 view .LVU23
 108 000e 18B1     		cbz	r0, .L13
 109              		.loc 1 131 7 view .LVU24
 110 0010 FFF7FEFF 		bl	chThdWait
 111              	.LVL5:
 112              		.loc 1 132 7 is_stmt 1 view .LVU25
 113              		.loc 1 132 18 is_stmt 0 view .LVU26
 114 0014 44F8046C 		str	r6, [r4, #-4]
ARM GAS  /tmp/cctfSDuQ.s 			page 3


 115              	.L13:
 116              		.loc 1 129 32 is_stmt 1 discriminator 2 view .LVU27
 117              		.loc 1 129 15 discriminator 2 view .LVU28
 118              		.loc 1 129 3 is_stmt 0 discriminator 2 view .LVU29
 119 0018 AC42     		cmp	r4, r5
 120 001a F6D1     		bne	.L14
 121              		.loc 1 134 1 view .LVU30
 122 001c 70BD     		pop	{r4, r5, r6, pc}
 123              	.L21:
 124 001e 00BF     		.align	2
 125              	.L20:
 126 0020 00000000 		.word	.LANCHOR0
 127              		.cfi_endproc
 128              	.LFE278:
 129              		.size	test_wait_threads, .-test_wait_threads
 130              		.section	.text.test_wait_tick,"ax",%progbits
 131              		.align	1
 132              		.p2align 4,,15
 133              		.global	test_wait_tick
 134              		.syntax unified
 135              		.thumb
 136              		.thumb_func
 137              		.fpu softvfp
 138              		.type	test_wait_tick, %function
 139              	test_wait_tick:
 140              	.LFB279:
 141              		.loc 1 139 32 is_stmt 1 view -0
 142              		.cfi_startproc
 143              		@ args = 0, pretend = 0, frame = 0
 144              		@ frame_needed = 0, uses_anonymous_args = 0
 145              		.loc 1 141 3 view .LVU32
 146              		.loc 1 139 32 is_stmt 0 view .LVU33
 147 0000 08B5     		push	{r3, lr}
 148              		.cfi_def_cfa_offset 8
 149              		.cfi_offset 3, -8
 150              		.cfi_offset 14, -4
 151              		.loc 1 141 3 view .LVU34
 152 0002 0120     		movs	r0, #1
 153 0004 FFF7FEFF 		bl	chThdSleep
 154              	.LVL6:
 155              		.loc 1 142 3 is_stmt 1 view .LVU35
 156              	.LBB50:
 157              	.LBI50:
 158              		.file 2 "../../../os/rt/include/chvt.h"
 159              		.loc 2 411 25 view .LVU36
 160              	.LBB51:
 161              		.loc 2 412 3 view .LVU37
 162              		.loc 2 414 3 view .LVU38
 163              	.LBB52:
 164              	.LBI52:
 165              		.file 3 "../../../os/rt/include/chsys.h"
 166              		.loc 3 374 20 view .LVU39
 167              	.LBE52:
 168              	.LBE51:
 169              	.LBE50:
 170              		.loc 3 376 3 view .LVU40
 171              	.LBB89:
ARM GAS  /tmp/cctfSDuQ.s 			page 4


 172              	.LBB83:
 173              	.LBB57:
 174              	.LBB53:
 175              	.LBI53:
 176              		.file 4 "../../../os/common/ports/ARMCMx/chcore_v7m.h"
 177              		.loc 4 594 20 view .LVU41
 178              	.LBE53:
 179              	.LBE57:
 180              	.LBE83:
 181              	.LBE89:
 182              		.loc 4 602 3 view .LVU42
 183              	.LBB90:
 184              	.LBB84:
 185              	.LBB58:
 186              	.LBB56:
 187              	.LBB54:
 188              	.LBI54:
 189              		.file 5 "../../../os/common/ext/CMSIS/include/cmsis_gcc.h"
 190              		.loc 5 262 57 view .LVU43
 191              	.LBB55:
 192              		.loc 5 264 3 view .LVU44
 193 0008 2023     		movs	r3, #32
 194              		.syntax unified
 195              	@ 264 "../../../os/common/ext/CMSIS/include/cmsis_gcc.h" 1
 196 000a 83F31188 		MSR basepri, r3
 197              	@ 0 "" 2
 198              	.LVL7:
 199              		.loc 5 264 3 is_stmt 0 view .LVU45
 200              		.thumb
 201              		.syntax unified
 202              	.LBE55:
 203              	.LBE54:
 204              	.LBE56:
 205              	.LBE58:
 206              	.LBE84:
 207              	.LBE90:
 208              		.loc 3 377 34 is_stmt 1 view .LVU46
 209              		.loc 3 378 20 view .LVU47
 210              	.LBB91:
 211              	.LBB85:
 212              		.loc 2 415 3 view .LVU48
 213              	.LBB59:
 214              	.LBI59:
 215              		.loc 2 392 25 view .LVU49
 216              	.LBE59:
 217              	.LBE85:
 218              	.LBE91:
 219              		.loc 2 397 3 view .LVU50
 220              	.LBB92:
 221              	.LBB86:
 222              	.LBB67:
 223              	.LBB60:
 224              	.LBI60:
 225              		.file 6 "../../../os/common/ports/ARMCMx/chcore_timer.h"
 226              		.loc 6 105 25 view .LVU51
 227              	.LBE60:
 228              	.LBE67:
ARM GAS  /tmp/cctfSDuQ.s 			page 5


 229              	.LBE86:
 230              	.LBE92:
 231              		.loc 6 107 3 view .LVU52
 232              	.LBB93:
 233              	.LBB87:
 234              	.LBB68:
 235              	.LBB65:
 236              	.LBB61:
 237              	.LBI61:
 238              		.file 7 "../../../os/hal/ports/STM32/LLD/TIMv1/hal_st_lld.h"
 239              		.loc 7 139 25 view .LVU53
 240              	.LBB62:
 241              		.loc 7 141 3 view .LVU54
 242              		.loc 7 141 10 is_stmt 0 view .LVU55
 243 000e 4FF08042 		mov	r2, #1073741824
 244              	.LBE62:
 245              	.LBE61:
 246              	.LBE65:
 247              	.LBE68:
 248              	.LBB69:
 249              	.LBB70:
 250              	.LBB71:
 251              	.LBB72:
 252              	.LBB73:
 253              		.loc 5 264 3 view .LVU56
 254 0012 0023     		movs	r3, #0
 255              	.LBE73:
 256              	.LBE72:
 257              	.LBE71:
 258              	.LBE70:
 259              	.LBE69:
 260              	.LBB80:
 261              	.LBB66:
 262              	.LBB64:
 263              	.LBB63:
 264              		.loc 7 141 10 view .LVU57
 265 0014 506A     		ldr	r0, [r2, #36]
 266              	.LVL8:
 267              		.loc 7 141 10 view .LVU58
 268              	.LBE63:
 269              	.LBE64:
 270              	.LBE66:
 271              	.LBE80:
 272              		.loc 2 416 3 is_stmt 1 view .LVU59
 273              	.LBB81:
 274              	.LBI69:
 275              		.loc 3 386 20 view .LVU60
 276              	.LBB78:
 277              		.loc 3 388 22 view .LVU61
 278              		.loc 3 389 33 view .LVU62
 279              		.loc 3 395 3 view .LVU63
 280              		.loc 3 395 3 view .LVU64
 281              		.loc 3 395 3 view .LVU65
 282              		.loc 3 399 3 view .LVU66
 283              	.LBB76:
 284              	.LBI71:
 285              		.loc 4 618 20 view .LVU67
ARM GAS  /tmp/cctfSDuQ.s 			page 6


 286              	.LBE76:
 287              	.LBE78:
 288              	.LBE81:
 289              	.LBE87:
 290              	.LBE93:
 291              		.loc 4 621 3 view .LVU68
 292              	.LBB94:
 293              	.LBB88:
 294              	.LBB82:
 295              	.LBB79:
 296              	.LBB77:
 297              	.LBB75:
 298              	.LBI72:
 299              		.loc 5 262 57 view .LVU69
 300              	.LBB74:
 301              		.loc 5 264 3 view .LVU70
 302              		.syntax unified
 303              	@ 264 "../../../os/common/ext/CMSIS/include/cmsis_gcc.h" 1
 304 0016 83F31188 		MSR basepri, r3
 305              	@ 0 "" 2
 306              	.LVL9:
 307              		.loc 5 264 3 is_stmt 0 view .LVU71
 308              		.thumb
 309              		.syntax unified
 310              	.LBE74:
 311              	.LBE75:
 312              	.LBE77:
 313              	.LBE79:
 314              	.LBE82:
 315              		.loc 2 418 3 is_stmt 1 view .LVU72
 316              	.LBE88:
 317              	.LBE94:
 318              		.loc 1 143 1 is_stmt 0 view .LVU73
 319 001a 08BD     		pop	{r3, pc}
 320              		.cfi_endproc
 321              	.LFE279:
 322              		.size	test_wait_tick, .-test_wait_tick
 323              		.global	wa
 324              		.global	threads
 325              		.global	test_buffer
 326              		.global	test_suite
 327              		.section	.bss.test_buffer,"aw",%nobits
 328              		.align	3
 329              		.type	test_buffer, %object
 330              		.size	test_buffer, 1640
 331              	test_buffer:
 332 0000 00000000 		.space	1640
 332      00000000 
 332      00000000 
 332      00000000 
 332      00000000 
 333              		.section	.bss.threads,"aw",%nobits
 334              		.align	2
 335              		.set	.LANCHOR0,. + 0
 336              		.type	threads, %object
 337              		.size	threads, 20
 338              	threads:
ARM GAS  /tmp/cctfSDuQ.s 			page 7


 339 0000 00000000 		.space	20
 339      00000000 
 339      00000000 
 339      00000000 
 339      00000000 
 340              		.section	.data.test_suite,"aw"
 341              		.align	2
 342              		.type	test_suite, %object
 343              		.size	test_suite, 52
 344              	test_suite:
 345 0000 00000000 		.word	test_sequence_001
 346 0004 00000000 		.word	test_sequence_002
 347 0008 00000000 		.word	test_sequence_003
 348 000c 00000000 		.word	test_sequence_004
 349 0010 00000000 		.word	test_sequence_005
 350 0014 00000000 		.word	test_sequence_006
 351 0018 00000000 		.word	test_sequence_007
 352 001c 00000000 		.word	test_sequence_008
 353 0020 00000000 		.word	test_sequence_009
 354 0024 00000000 		.word	test_sequence_010
 355 0028 00000000 		.word	test_sequence_011
 356 002c 00000000 		.word	test_sequence_012
 357 0030 00000000 		.word	0
 358              		.section	.rodata.wa,"a"
 359              		.align	2
 360              		.type	wa, %object
 361              		.size	wa, 20
 362              	wa:
 363 0000 00000000 		.word	test_buffer
 364 0004 48010000 		.word	test_buffer+328
 365 0008 90020000 		.word	test_buffer+656
 366 000c D8030000 		.word	test_buffer+984
 367 0010 20050000 		.word	test_buffer+1312
 368              		.text
 369              	.Letext0:
 370              		.file 8 "/usr/lib/gcc/arm-none-eabi/10.3.1/include/stddef.h"
 371              		.file 9 "/usr/lib/gcc/arm-none-eabi/10.3.1/include/stdint.h"
 372              		.file 10 "../../../os/common/ports/ARMCMx/compilers/GCC/chtypes.h"
 373              		.file 11 "../../../os/rt/include/chsystypes.h"
 374              		.file 12 "../../../os/rt/include/chschd.h"
 375              		.file 13 "../../../os/common/ports/ARMCMx/chcore.h"
 376              		.file 14 "../../../os/hal/ports/STM32/LLD/TIMv1/stm32_tim.h"
 377              		.file 15 "../../../os/rt/include/chsem.h"
 378              		.file 16 "../../../os/rt/include/chmtx.h"
 379              		.file 17 "../../../test/lib/ch_test.h"
 380              		.file 18 "../../../test/rt/source/test/test_sequence_001.h"
 381              		.file 19 "../../../test/rt/source/test/test_sequence_002.h"
 382              		.file 20 "../../../test/rt/source/test/test_sequence_003.h"
 383              		.file 21 "../../../test/rt/source/test/test_sequence_004.h"
 384              		.file 22 "../../../test/rt/source/test/test_sequence_005.h"
 385              		.file 23 "../../../test/rt/source/test/test_sequence_006.h"
 386              		.file 24 "../../../test/rt/source/test/test_sequence_007.h"
 387              		.file 25 "../../../test/rt/source/test/test_sequence_008.h"
 388              		.file 26 "../../../test/rt/source/test/test_sequence_009.h"
 389              		.file 27 "../../../test/rt/source/test/test_sequence_010.h"
 390              		.file 28 "../../../test/rt/source/test/test_sequence_011.h"
 391              		.file 29 "../../../test/rt/source/test/test_sequence_012.h"
ARM GAS  /tmp/cctfSDuQ.s 			page 8


 392              		.file 30 "../../../test/rt/source/test/test_root.h"
 393              		.file 31 "../../../os/rt/include/chthreads.h"