ARM GAS  /tmp/ccXsMVKs.s 			page 1


   1              		.cpu cortex-m4
   2              		.eabi_attribute 20, 1
   3              		.eabi_attribute 21, 1
   4              		.eabi_attribute 23, 3
   5              		.eabi_attribute 24, 1
   6              		.eabi_attribute 25, 1
   7              		.eabi_attribute 26, 1
   8              		.eabi_attribute 30, 2
   9              		.eabi_attribute 34, 1
  10              		.eabi_attribute 18, 4
  11              		.file	"test_sequence_010.c"
  12              		.text
  13              	.Ltext0:
  14              		.cfi_sections	.debug_frame
  15              		.section	.rodata.test_010_002_execute.str1.4,"aMS",%progbits,1
  16              		.align	2
  17              	.LC0:
  18 0000 616C6C6F 		.ascii	"allocation failed\000"
  18      63617469 
  18      6F6E2066 
  18      61696C65 
  18      6400
  19 0012 0000     		.align	2
  20              	.LC1:
  21 0014 616C6C6F 		.ascii	"allocation not failed\000"
  21      63617469 
  21      6F6E206E 
  21      6F742066 
  21      61696C65 
  22              		.section	.text.test_010_002_execute,"ax",%progbits
  23              		.align	1
  24              		.p2align 4,,15
  25              		.arch armv7e-m
  26              		.syntax unified
  27              		.thumb
  28              		.thumb_func
  29              		.fpu softvfp
  30              		.type	test_010_002_execute, %function
  31              	test_010_002_execute:
  32              	.LFB279:
  33              		.file 1 "../../../test/rt/source/test/test_sequence_010.c"
  34              		.loc 1 230 40 view -0
  35              		.cfi_startproc
  36              		@ args = 0, pretend = 0, frame = 8
  37              		@ frame_needed = 0, uses_anonymous_args = 0
  38              		.loc 1 231 3 view .LVU1
  39              		.loc 1 232 3 view .LVU2
  40              		.loc 1 236 3 view .LVU3
  41              		.loc 1 230 40 is_stmt 0 view .LVU4
  42 0000 70B5     		push	{r4, r5, r6, lr}
  43              		.cfi_def_cfa_offset 16
  44              		.cfi_offset 4, -16
  45              		.cfi_offset 5, -12
  46              		.cfi_offset 6, -8
  47              		.cfi_offset 14, -4
  48              		.loc 1 236 3 view .LVU5
  49 0002 164E     		ldr	r6, .L6
ARM GAS  /tmp/ccXsMVKs.s 			page 2


  50              		.loc 1 230 40 view .LVU6
  51 0004 82B0     		sub	sp, sp, #8
  52              		.cfi_def_cfa_offset 24
  53              		.loc 1 236 3 view .LVU7
  54 0006 0123     		movs	r3, #1
  55              		.loc 1 238 11 view .LVU8
  56 0008 01AA     		add	r2, sp, #4
  57 000a 6946     		mov	r1, sp
  58 000c 0020     		movs	r0, #0
  59              		.loc 1 236 3 view .LVU9
  60 000e 3360     		str	r3, [r6]
  61              		.loc 1 238 5 is_stmt 1 view .LVU10
  62              		.loc 1 238 11 is_stmt 0 view .LVU11
  63 0010 FFF7FEFF 		bl	chHeapStatus
  64              	.LVL0:
  65              		.loc 1 239 5 is_stmt 1 view .LVU12
  66              	.LBB37:
  67              	.LBI37:
  68              		.file 2 "../../../os/common/oslib/include/chheap.h"
  69              		.loc 2 155 21 view .LVU13
  70              	.LBB38:
  71              		.loc 2 157 3 view .LVU14
  72              		.loc 2 157 10 is_stmt 0 view .LVU15
  73 0014 1021     		movs	r1, #16
  74 0016 1248     		ldr	r0, .L6+4
  75 0018 0822     		movs	r2, #8
  76 001a FFF7FEFF 		bl	chHeapAllocAligned
  77              	.LVL1:
  78              		.loc 2 157 10 view .LVU16
  79 001e 0546     		mov	r5, r0
  80              	.LVL2:
  81              		.loc 2 157 10 view .LVU17
  82              	.LBE38:
  83              	.LBE37:
  84              		.loc 1 240 5 is_stmt 1 view .LVU18
  85 0020 0038     		subs	r0, r0, #0
  86              	.LVL3:
  87              		.loc 1 240 5 is_stmt 0 view .LVU19
  88 0022 18BF     		it	ne
  89 0024 0120     		movne	r0, #1
  90 0026 0F49     		ldr	r1, .L6+8
  91 0028 FFF7FEFF 		bl	_test_assert
  92              	.LVL4:
  93 002c 08B1     		cbz	r0, .L5
  94              		.loc 1 250 1 view .LVU20
  95 002e 02B0     		add	sp, sp, #8
  96              		.cfi_remember_state
  97              		.cfi_def_cfa_offset 16
  98              		@ sp needed
  99 0030 70BD     		pop	{r4, r5, r6, pc}
 100              	.LVL5:
 101              	.L5:
 102              		.cfi_restore_state
 103              		.loc 1 240 49 is_stmt 1 discriminator 2 view .LVU21
 104              		.loc 1 241 5 discriminator 2 view .LVU22
 105 0032 0446     		mov	r4, r0
 106 0034 2846     		mov	r0, r5
ARM GAS  /tmp/ccXsMVKs.s 			page 3


 107 0036 FFF7FEFF 		bl	chHeapFree
 108              	.LVL6:
 109              		.loc 1 245 3 discriminator 2 view .LVU23
 110 003a 0223     		movs	r3, #2
 111              	.LBB39:
 112              	.LBB40:
 113              		.loc 2 157 10 is_stmt 0 discriminator 2 view .LVU24
 114 003c 0822     		movs	r2, #8
 115 003e 6FF0FF01 		mvn	r1, #255
 116 0042 2046     		mov	r0, r4
 117              	.LBE40:
 118              	.LBE39:
 119              		.loc 1 245 3 discriminator 2 view .LVU25
 120 0044 3360     		str	r3, [r6]
 121              		.loc 1 247 5 is_stmt 1 discriminator 2 view .LVU26
 122              	.LVL7:
 123              	.LBB42:
 124              	.LBI39:
 125              		.loc 2 155 21 discriminator 2 view .LVU27
 126              	.LBB41:
 127              		.loc 2 157 3 discriminator 2 view .LVU28
 128              		.loc 2 157 10 is_stmt 0 discriminator 2 view .LVU29
 129 0046 FFF7FEFF 		bl	chHeapAllocAligned
 130              	.LVL8:
 131              		.loc 2 157 10 discriminator 2 view .LVU30
 132              	.LBE41:
 133              	.LBE42:
 134              		.loc 1 248 5 is_stmt 1 discriminator 2 view .LVU31
 135 004a B0FA80F0 		clz	r0, r0
 136              	.LVL9:
 137              		.loc 1 248 5 is_stmt 0 discriminator 2 view .LVU32
 138 004e 0649     		ldr	r1, .L6+12
 139 0050 4009     		lsrs	r0, r0, #5
 140 0052 FFF7FEFF 		bl	_test_assert
 141              	.LVL10:
 142              		.loc 1 248 5 is_stmt 1 discriminator 2 view .LVU33
 143              		.loc 1 250 1 is_stmt 0 discriminator 2 view .LVU34
 144 0056 02B0     		add	sp, sp, #8
 145              		.cfi_def_cfa_offset 16
 146              		@ sp needed
 147 0058 70BD     		pop	{r4, r5, r6, pc}
 148              	.L7:
 149 005a 00BF     		.align	2
 150              	.L6:
 151 005c 00000000 		.word	test_step
 152 0060 00000000 		.word	.LANCHOR0
 153 0064 00000000 		.word	.LC0
 154 0068 14000000 		.word	.LC1
 155              		.cfi_endproc
 156              	.LFE279:
 157              		.size	test_010_002_execute, .-test_010_002_execute
 158              		.section	.rodata.test_010_001_execute.str1.4,"aMS",%progbits,1
 159              		.align	2
 160              	.LC2:
 161 0000 68656170 		.ascii	"heap fragmented\000"
 161      20667261 
 161      676D656E 
ARM GAS  /tmp/ccXsMVKs.s 			page 4


 161      74656400 
 162              		.align	2
 163              	.LC3:
 164 0010 6D697373 		.ascii	"missing free block\000"
 164      696E6720 
 164      66726565 
 164      20626C6F 
 164      636B00
 165 0023 00       		.align	2
 166              	.LC4:
 167 0024 756E6578 		.ascii	"unexpected heap state\000"
 167      70656374 
 167      65642068 
 167      65617020 
 167      73746174 
 168 003a 0000     		.align	2
 169              	.LC5:
 170 003c 696E7661 		.ascii	"invalid state\000"
 170      6C696420 
 170      73746174 
 170      6500
 171 004a 0000     		.align	2
 172              	.LC6:
 173 004c 6E6F7420 		.ascii	"not empty\000"
 173      656D7074 
 173      7900
 174 0056 0000     		.align	2
 175              	.LC7:
 176 0058 73697A65 		.ascii	"size changed\000"
 176      20636861 
 176      6E676564 
 176      00
 177              		.section	.text.test_010_001_execute,"ax",%progbits
 178              		.align	1
 179              		.p2align 4,,15
 180              		.syntax unified
 181              		.thumb
 182              		.thumb_func
 183              		.fpu softvfp
 184              		.type	test_010_001_execute, %function
 185              	test_010_001_execute:
 186              	.LFB278:
 187              		.loc 1 94 40 is_stmt 1 view -0
 188              		.cfi_startproc
 189              		@ args = 0, pretend = 0, frame = 16
 190              		@ frame_needed = 0, uses_anonymous_args = 0
 191              		.loc 1 95 3 view .LVU36
 192              		.loc 1 96 3 view .LVU37
 193              		.loc 1 100 3 view .LVU38
 194              		.loc 1 94 40 is_stmt 0 view .LVU39
 195 0000 2DE9F041 		push	{r4, r5, r6, r7, r8, lr}
 196              		.cfi_def_cfa_offset 24
 197              		.cfi_offset 4, -24
 198              		.cfi_offset 5, -20
 199              		.cfi_offset 6, -16
 200              		.cfi_offset 7, -12
 201              		.cfi_offset 8, -8
ARM GAS  /tmp/ccXsMVKs.s 			page 5


 202              		.cfi_offset 14, -4
 203              		.loc 1 100 3 view .LVU40
 204 0004 C94C     		ldr	r4, .L18
 205              		.loc 1 102 5 view .LVU41
 206 0006 CA48     		ldr	r0, .L18+4
 207              		.loc 1 94 40 view .LVU42
 208 0008 84B0     		sub	sp, sp, #16
 209              		.cfi_def_cfa_offset 40
 210              		.loc 1 102 5 view .LVU43
 211 000a 01A9     		add	r1, sp, #4
 212              		.loc 1 100 3 view .LVU44
 213 000c 0123     		movs	r3, #1
 214              		.loc 1 102 5 view .LVU45
 215 000e 0022     		movs	r2, #0
 216              		.loc 1 100 3 view .LVU46
 217 0010 2360     		str	r3, [r4]
 218              		.loc 1 102 5 is_stmt 1 view .LVU47
 219 0012 FFF7FEFF 		bl	chHeapStatus
 220              	.LVL11:
 221 0016 A0F10100 		sub	r0, #1
 222 001a B0FA80F0 		clz	r0, r0
 223 001e C549     		ldr	r1, .L18+8
 224 0020 4009     		lsrs	r0, r0, #5
 225 0022 FFF7FEFF 		bl	_test_assert
 226              	.LVL12:
 227 0026 10B1     		cbz	r0, .L17
 228              	.L8:
 229              		.loc 1 207 1 is_stmt 0 view .LVU48
 230 0028 04B0     		add	sp, sp, #16
 231              		.cfi_remember_state
 232              		.cfi_def_cfa_offset 24
 233              		@ sp needed
 234 002a BDE8F081 		pop	{r4, r5, r6, r7, r8, pc}
 235              	.L17:
 236              		.cfi_restore_state
 237              		.loc 1 102 77 is_stmt 1 discriminator 2 view .LVU49
 238              		.loc 1 107 3 discriminator 2 view .LVU50
 239              	.LBB43:
 240              	.LBB44:
 241              		.loc 2 157 10 is_stmt 0 discriminator 2 view .LVU51
 242 002e 4FF44D61 		mov	r1, #3280
 243              	.LBE44:
 244              	.LBE43:
 245              		.loc 1 107 3 discriminator 2 view .LVU52
 246 0032 0223     		movs	r3, #2
 247              	.LBB47:
 248              	.LBB45:
 249              		.loc 2 157 10 discriminator 2 view .LVU53
 250 0034 BE48     		ldr	r0, .L18+4
 251              	.LBE45:
 252              	.LBE47:
 253              		.loc 1 107 3 discriminator 2 view .LVU54
 254 0036 2360     		str	r3, [r4]
 255              		.loc 1 109 5 is_stmt 1 discriminator 2 view .LVU55
 256              	.LVL13:
 257              	.LBB48:
 258              	.LBI43:
ARM GAS  /tmp/ccXsMVKs.s 			page 6


 259              		.loc 2 155 21 discriminator 2 view .LVU56
 260              	.LBB46:
 261              		.loc 2 157 3 discriminator 2 view .LVU57
 262              		.loc 2 157 10 is_stmt 0 discriminator 2 view .LVU58
 263 0038 0822     		movs	r2, #8
 264 003a FFF7FEFF 		bl	chHeapAllocAligned
 265              	.LVL14:
 266              		.loc 2 157 10 discriminator 2 view .LVU59
 267              	.LBE46:
 268              	.LBE48:
 269              		.loc 1 110 5 is_stmt 1 discriminator 2 view .LVU60
 270 003e B0FA80F0 		clz	r0, r0
 271              	.LVL15:
 272              		.loc 1 110 5 is_stmt 0 discriminator 2 view .LVU61
 273 0042 BD49     		ldr	r1, .L18+12
 274 0044 4009     		lsrs	r0, r0, #5
 275 0046 FFF7FEFF 		bl	_test_assert
 276              	.LVL16:
 277 004a 0028     		cmp	r0, #0
 278 004c ECD1     		bne	.L8
 279              		.loc 1 110 53 is_stmt 1 discriminator 2 view .LVU62
 280              		.loc 1 115 3 discriminator 2 view .LVU63
 281              	.LBB49:
 282              	.LBB50:
 283              		.loc 2 157 10 is_stmt 0 discriminator 2 view .LVU64
 284 004e 1021     		movs	r1, #16
 285              	.LBE50:
 286              	.LBE49:
 287              		.loc 1 115 3 discriminator 2 view .LVU65
 288 0050 0323     		movs	r3, #3
 289              	.LBB53:
 290              	.LBB51:
 291              		.loc 2 157 10 discriminator 2 view .LVU66
 292 0052 B748     		ldr	r0, .L18+4
 293              	.LBE51:
 294              	.LBE53:
 295              		.loc 1 115 3 discriminator 2 view .LVU67
 296 0054 2360     		str	r3, [r4]
 297              		.loc 1 117 5 is_stmt 1 discriminator 2 view .LVU68
 298              	.LVL17:
 299              	.LBB54:
 300              	.LBI49:
 301              		.loc 2 155 21 discriminator 2 view .LVU69
 302              	.LBB52:
 303              		.loc 2 157 3 discriminator 2 view .LVU70
 304              		.loc 2 157 10 is_stmt 0 discriminator 2 view .LVU71
 305 0056 0822     		movs	r2, #8
 306 0058 FFF7FEFF 		bl	chHeapAllocAligned
 307              	.LVL18:
 308              		.loc 2 157 10 discriminator 2 view .LVU72
 309 005c 0546     		mov	r5, r0
 310              	.LVL19:
 311              		.loc 2 157 10 discriminator 2 view .LVU73
 312              	.LBE52:
 313              	.LBE54:
 314              		.loc 1 118 5 is_stmt 1 discriminator 2 view .LVU74
 315 005e 0038     		subs	r0, r0, #0
ARM GAS  /tmp/ccXsMVKs.s 			page 7


 316              	.LVL20:
 317              		.loc 1 118 5 is_stmt 0 discriminator 2 view .LVU75
 318 0060 18BF     		it	ne
 319 0062 0120     		movne	r0, #1
 320 0064 B549     		ldr	r1, .L18+16
 321 0066 FFF7FEFF 		bl	_test_assert
 322              	.LVL21:
 323 006a 0028     		cmp	r0, #0
 324 006c DCD1     		bne	.L8
 325              		.loc 1 118 49 is_stmt 1 discriminator 2 view .LVU76
 326              		.loc 1 119 5 discriminator 2 view .LVU77
 327 006e 2846     		mov	r0, r5
 328 0070 FFF7FEFF 		bl	chHeapFree
 329              	.LVL22:
 330              		.loc 1 124 3 discriminator 2 view .LVU78
 331 0074 0423     		movs	r3, #4
 332              	.LBB55:
 333              		.loc 1 128 9 is_stmt 0 discriminator 2 view .LVU79
 334 0076 02A9     		add	r1, sp, #8
 335 0078 AD48     		ldr	r0, .L18+4
 336              	.LBE55:
 337              		.loc 1 124 3 discriminator 2 view .LVU80
 338 007a 2360     		str	r3, [r4]
 339              	.LBB56:
 340              		.loc 1 126 5 is_stmt 1 discriminator 2 view .LVU81
 341              		.loc 1 128 5 discriminator 2 view .LVU82
 342              		.loc 1 128 9 is_stmt 0 discriminator 2 view .LVU83
 343 007c 03AA     		add	r2, sp, #12
 344 007e FFF7FEFF 		bl	chHeapStatus
 345              	.LVL23:
 346 0082 0346     		mov	r3, r0
 347              		.loc 1 129 5 discriminator 2 view .LVU84
 348 0084 A0F10100 		sub	r0, #1
 349 0088 B0FA80F0 		clz	r0, r0
 350 008c AC49     		ldr	r1, .L18+20
 351              		.loc 1 128 7 discriminator 2 view .LVU85
 352 008e 0093     		str	r3, [sp]
 353              		.loc 1 129 5 is_stmt 1 discriminator 2 view .LVU86
 354 0090 4009     		lsrs	r0, r0, #5
 355 0092 FFF7FEFF 		bl	_test_assert
 356              	.LVL24:
 357 0096 0028     		cmp	r0, #0
 358 0098 C6D1     		bne	.L8
 359              		.loc 1 129 46 discriminator 2 view .LVU87
 360              		.loc 1 130 5 discriminator 2 view .LVU88
 361 009a 0298     		ldr	r0, [sp, #8]
 362 009c A949     		ldr	r1, .L18+24
 363 009e 0F28     		cmp	r0, #15
 364 00a0 94BF     		ite	ls
 365 00a2 0020     		movls	r0, #0
 366 00a4 0120     		movhi	r0, #1
 367 00a6 FFF7FEFF 		bl	_test_assert
 368              	.LVL25:
 369 00aa 0028     		cmp	r0, #0
 370 00ac BCD1     		bne	.L8
 371              		.loc 1 130 67 discriminator 2 view .LVU89
 372              		.loc 1 131 5 discriminator 2 view .LVU90
ARM GAS  /tmp/ccXsMVKs.s 			page 8


 373 00ae DDE90203 		ldrd	r0, r3, [sp, #8]
 374 00b2 C01A     		subs	r0, r0, r3
 375 00b4 B0FA80F0 		clz	r0, r0
 376 00b8 A249     		ldr	r1, .L18+24
 377 00ba 4009     		lsrs	r0, r0, #5
 378 00bc FFF7FEFF 		bl	_test_assert
 379              	.LVL26:
 380 00c0 0546     		mov	r5, r0
 381              	.LVL27:
 382              		.loc 1 131 5 is_stmt 0 discriminator 2 view .LVU91
 383 00c2 0028     		cmp	r0, #0
 384 00c4 B0D1     		bne	.L8
 385              		.loc 1 131 69 is_stmt 1 discriminator 2 view .LVU92
 386              	.LBE56:
 387              		.loc 1 135 3 discriminator 2 view .LVU93
 388 00c6 0523     		movs	r3, #5
 389              	.LBB57:
 390              	.LBB58:
 391              		.loc 2 157 10 is_stmt 0 discriminator 2 view .LVU94
 392 00c8 0822     		movs	r2, #8
 393 00ca 1021     		movs	r1, #16
 394 00cc 9848     		ldr	r0, .L18+4
 395              	.LBE58:
 396              	.LBE57:
 397              		.loc 1 135 3 discriminator 2 view .LVU95
 398 00ce 2360     		str	r3, [r4]
 399              		.loc 1 137 5 is_stmt 1 discriminator 2 view .LVU96
 400              	.LVL28:
 401              	.LBB61:
 402              	.LBI57:
 403              		.loc 2 155 21 discriminator 2 view .LVU97
 404              	.LBB59:
 405              		.loc 2 157 3 discriminator 2 view .LVU98
 406              		.loc 2 157 10 is_stmt 0 discriminator 2 view .LVU99
 407 00d0 FFF7FEFF 		bl	chHeapAllocAligned
 408              	.LVL29:
 409              	.LBE59:
 410              	.LBE61:
 411              	.LBB62:
 412              	.LBB63:
 413 00d4 0822     		movs	r2, #8
 414 00d6 1021     		movs	r1, #16
 415              	.LBE63:
 416              	.LBE62:
 417              	.LBB66:
 418              	.LBB60:
 419 00d8 8046     		mov	r8, r0
 420              	.LVL30:
 421              		.loc 2 157 10 discriminator 2 view .LVU100
 422              	.LBE60:
 423              	.LBE66:
 424              		.loc 1 138 5 is_stmt 1 discriminator 2 view .LVU101
 425              	.LBB67:
 426              	.LBI62:
 427              		.loc 2 155 21 discriminator 2 view .LVU102
 428              	.LBB64:
 429              		.loc 2 157 3 discriminator 2 view .LVU103
ARM GAS  /tmp/ccXsMVKs.s 			page 9


 430              		.loc 2 157 10 is_stmt 0 discriminator 2 view .LVU104
 431 00da 9548     		ldr	r0, .L18+4
 432              	.LVL31:
 433              		.loc 2 157 10 discriminator 2 view .LVU105
 434 00dc FFF7FEFF 		bl	chHeapAllocAligned
 435              	.LVL32:
 436              	.LBE64:
 437              	.LBE67:
 438              	.LBB68:
 439              	.LBB69:
 440 00e0 0822     		movs	r2, #8
 441 00e2 1021     		movs	r1, #16
 442              	.LBE69:
 443              	.LBE68:
 444              	.LBB71:
 445              	.LBB65:
 446 00e4 0746     		mov	r7, r0
 447              	.LVL33:
 448              		.loc 2 157 10 discriminator 2 view .LVU106
 449              	.LBE65:
 450              	.LBE71:
 451              		.loc 1 139 5 is_stmt 1 discriminator 2 view .LVU107
 452              	.LBB72:
 453              	.LBI68:
 454              		.loc 2 155 21 discriminator 2 view .LVU108
 455              	.LBB70:
 456              		.loc 2 157 3 discriminator 2 view .LVU109
 457              		.loc 2 157 10 is_stmt 0 discriminator 2 view .LVU110
 458 00e6 9248     		ldr	r0, .L18+4
 459              	.LVL34:
 460              		.loc 2 157 10 discriminator 2 view .LVU111
 461 00e8 FFF7FEFF 		bl	chHeapAllocAligned
 462              	.LVL35:
 463 00ec 0646     		mov	r6, r0
 464              	.LBE70:
 465              	.LBE72:
 466              		.loc 1 140 5 discriminator 2 view .LVU112
 467 00ee 4046     		mov	r0, r8
 468              	.LVL36:
 469              		.loc 1 140 5 is_stmt 1 discriminator 2 view .LVU113
 470 00f0 FFF7FEFF 		bl	chHeapFree
 471              	.LVL37:
 472              		.loc 1 141 5 discriminator 2 view .LVU114
 473 00f4 3846     		mov	r0, r7
 474 00f6 FFF7FEFF 		bl	chHeapFree
 475              	.LVL38:
 476              		.loc 1 142 5 discriminator 2 view .LVU115
 477 00fa 3046     		mov	r0, r6
 478 00fc FFF7FEFF 		bl	chHeapFree
 479              	.LVL39:
 480              		.loc 1 143 5 discriminator 2 view .LVU116
 481 0100 2A46     		mov	r2, r5
 482 0102 6946     		mov	r1, sp
 483 0104 8A48     		ldr	r0, .L18+4
 484 0106 FFF7FEFF 		bl	chHeapStatus
 485              	.LVL40:
 486 010a A0F10100 		sub	r0, #1
ARM GAS  /tmp/ccXsMVKs.s 			page 10


 487 010e B0FA80F0 		clz	r0, r0
 488 0112 8849     		ldr	r1, .L18+8
 489 0114 4009     		lsrs	r0, r0, #5
 490 0116 FFF7FEFF 		bl	_test_assert
 491              	.LVL41:
 492 011a 0546     		mov	r5, r0
 493 011c 0028     		cmp	r0, #0
 494 011e 83D1     		bne	.L8
 495              		.loc 1 143 76 view .LVU117
 496              		.loc 1 147 3 view .LVU118
 497 0120 0623     		movs	r3, #6
 498              	.LBB73:
 499              	.LBB74:
 500              		.loc 2 157 10 is_stmt 0 view .LVU119
 501 0122 0822     		movs	r2, #8
 502 0124 1021     		movs	r1, #16
 503 0126 8248     		ldr	r0, .L18+4
 504              	.LBE74:
 505              	.LBE73:
 506              		.loc 1 147 3 view .LVU120
 507 0128 2360     		str	r3, [r4]
 508              		.loc 1 149 5 is_stmt 1 view .LVU121
 509              	.LVL42:
 510              	.LBB77:
 511              	.LBI73:
 512              		.loc 2 155 21 view .LVU122
 513              	.LBB75:
 514              		.loc 2 157 3 view .LVU123
 515              		.loc 2 157 10 is_stmt 0 view .LVU124
 516 012a FFF7FEFF 		bl	chHeapAllocAligned
 517              	.LVL43:
 518              	.LBE75:
 519              	.LBE77:
 520              	.LBB78:
 521              	.LBB79:
 522 012e 0822     		movs	r2, #8
 523              	.LBE79:
 524              	.LBE78:
 525              	.LBB82:
 526              	.LBB76:
 527 0130 0646     		mov	r6, r0
 528              	.LVL44:
 529              		.loc 2 157 10 view .LVU125
 530              	.LBE76:
 531              	.LBE82:
 532              		.loc 1 150 5 is_stmt 1 view .LVU126
 533              	.LBB83:
 534              	.LBI78:
 535              		.loc 2 155 21 view .LVU127
 536              	.LBB80:
 537              		.loc 2 157 3 view .LVU128
 538              		.loc 2 157 10 is_stmt 0 view .LVU129
 539 0132 1021     		movs	r1, #16
 540 0134 7E48     		ldr	r0, .L18+4
 541              	.LVL45:
 542              		.loc 2 157 10 view .LVU130
 543 0136 FFF7FEFF 		bl	chHeapAllocAligned
ARM GAS  /tmp/ccXsMVKs.s 			page 11


 544              	.LVL46:
 545              	.LBE80:
 546              	.LBE83:
 547              	.LBB84:
 548              	.LBB85:
 549 013a 0822     		movs	r2, #8
 550 013c 1021     		movs	r1, #16
 551              	.LBE85:
 552              	.LBE84:
 553              	.LBB87:
 554              	.LBB81:
 555 013e 0746     		mov	r7, r0
 556              	.LVL47:
 557              		.loc 2 157 10 view .LVU131
 558              	.LBE81:
 559              	.LBE87:
 560              		.loc 1 151 5 is_stmt 1 view .LVU132
 561              	.LBB88:
 562              	.LBI84:
 563              		.loc 2 155 21 view .LVU133
 564              	.LBB86:
 565              		.loc 2 157 3 view .LVU134
 566              		.loc 2 157 10 is_stmt 0 view .LVU135
 567 0140 7B48     		ldr	r0, .L18+4
 568              	.LVL48:
 569              		.loc 2 157 10 view .LVU136
 570 0142 FFF7FEFF 		bl	chHeapAllocAligned
 571              	.LVL49:
 572              		.loc 2 157 10 view .LVU137
 573              	.LBE86:
 574              	.LBE88:
 575              		.loc 1 152 5 is_stmt 1 view .LVU138
 576 0146 FFF7FEFF 		bl	chHeapFree
 577              	.LVL50:
 578              		.loc 1 153 5 view .LVU139
 579 014a 3846     		mov	r0, r7
 580 014c FFF7FEFF 		bl	chHeapFree
 581              	.LVL51:
 582              		.loc 1 154 5 view .LVU140
 583 0150 3046     		mov	r0, r6
 584 0152 FFF7FEFF 		bl	chHeapFree
 585              	.LVL52:
 586              		.loc 1 155 5 view .LVU141
 587 0156 2A46     		mov	r2, r5
 588 0158 6946     		mov	r1, sp
 589 015a 7548     		ldr	r0, .L18+4
 590 015c FFF7FEFF 		bl	chHeapStatus
 591              	.LVL53:
 592 0160 A0F10100 		sub	r0, #1
 593 0164 B0FA80F0 		clz	r0, r0
 594 0168 7249     		ldr	r1, .L18+8
 595 016a 4009     		lsrs	r0, r0, #5
 596 016c FFF7FEFF 		bl	_test_assert
 597              	.LVL54:
 598 0170 0546     		mov	r5, r0
 599 0172 0028     		cmp	r0, #0
 600 0174 7FF458AF 		bne	.L8
ARM GAS  /tmp/ccXsMVKs.s 			page 12


 601              		.loc 1 155 76 discriminator 2 view .LVU142
 602              		.loc 1 160 3 discriminator 2 view .LVU143
 603 0178 0723     		movs	r3, #7
 604              	.LBB89:
 605              	.LBB90:
 606              		.loc 2 157 10 is_stmt 0 discriminator 2 view .LVU144
 607 017a 0822     		movs	r2, #8
 608 017c 1121     		movs	r1, #17
 609 017e 6C48     		ldr	r0, .L18+4
 610              	.LBE90:
 611              	.LBE89:
 612              		.loc 1 160 3 discriminator 2 view .LVU145
 613 0180 2360     		str	r3, [r4]
 614              		.loc 1 162 5 is_stmt 1 discriminator 2 view .LVU146
 615              	.LVL55:
 616              	.LBB93:
 617              	.LBI89:
 618              		.loc 2 155 21 discriminator 2 view .LVU147
 619              	.LBB91:
 620              		.loc 2 157 3 discriminator 2 view .LVU148
 621              		.loc 2 157 10 is_stmt 0 discriminator 2 view .LVU149
 622 0182 FFF7FEFF 		bl	chHeapAllocAligned
 623              	.LVL56:
 624              	.LBE91:
 625              	.LBE93:
 626              	.LBB94:
 627              	.LBB95:
 628 0186 0822     		movs	r2, #8
 629              	.LBE95:
 630              	.LBE94:
 631              	.LBB98:
 632              	.LBB92:
 633 0188 0646     		mov	r6, r0
 634              	.LVL57:
 635              		.loc 2 157 10 discriminator 2 view .LVU150
 636              	.LBE92:
 637              	.LBE98:
 638              		.loc 1 163 5 is_stmt 1 discriminator 2 view .LVU151
 639              	.LBB99:
 640              	.LBI94:
 641              		.loc 2 155 21 discriminator 2 view .LVU152
 642              	.LBB96:
 643              		.loc 2 157 3 discriminator 2 view .LVU153
 644              		.loc 2 157 10 is_stmt 0 discriminator 2 view .LVU154
 645 018a 1021     		movs	r1, #16
 646 018c 6848     		ldr	r0, .L18+4
 647              	.LVL58:
 648              		.loc 2 157 10 discriminator 2 view .LVU155
 649 018e FFF7FEFF 		bl	chHeapAllocAligned
 650              	.LVL59:
 651 0192 0346     		mov	r3, r0
 652              	.LBE96:
 653              	.LBE99:
 654              		.loc 1 164 5 discriminator 2 view .LVU156
 655 0194 3046     		mov	r0, r6
 656              	.LBB100:
 657              	.LBB97:
ARM GAS  /tmp/ccXsMVKs.s 			page 13


 658              		.loc 2 157 10 discriminator 2 view .LVU157
 659 0196 1E46     		mov	r6, r3
 660              	.LVL60:
 661              		.loc 2 157 10 discriminator 2 view .LVU158
 662              	.LBE97:
 663              	.LBE100:
 664              		.loc 1 164 5 is_stmt 1 discriminator 2 view .LVU159
 665 0198 FFF7FEFF 		bl	chHeapFree
 666              	.LVL61:
 667              		.loc 1 165 5 discriminator 2 view .LVU160
 668 019c 2A46     		mov	r2, r5
 669 019e 6946     		mov	r1, sp
 670 01a0 6348     		ldr	r0, .L18+4
 671 01a2 FFF7FEFF 		bl	chHeapStatus
 672              	.LVL62:
 673 01a6 A0F10200 		sub	r0, #2
 674 01aa B0FA80F0 		clz	r0, r0
 675 01ae 6649     		ldr	r1, .L18+28
 676 01b0 4009     		lsrs	r0, r0, #5
 677 01b2 FFF7FEFF 		bl	_test_assert
 678              	.LVL63:
 679 01b6 0546     		mov	r5, r0
 680 01b8 0028     		cmp	r0, #0
 681 01ba 7FF435AF 		bne	.L8
 682              		.loc 1 165 74 view .LVU161
 683              		.loc 1 166 5 view .LVU162
 684              	.LVL64:
 685              	.LBB101:
 686              	.LBI101:
 687              		.loc 2 155 21 view .LVU163
 688              	.LBB102:
 689              		.loc 2 157 3 view .LVU164
 690              		.loc 2 157 10 is_stmt 0 view .LVU165
 691 01be 0822     		movs	r2, #8
 692 01c0 1021     		movs	r1, #16
 693 01c2 5B48     		ldr	r0, .L18+4
 694 01c4 FFF7FEFF 		bl	chHeapAllocAligned
 695              	.LVL65:
 696              	.LBE102:
 697              	.LBE101:
 698              		.loc 1 169 5 view .LVU166
 699 01c8 2A46     		mov	r2, r5
 700              	.LBB104:
 701              	.LBB103:
 702              		.loc 2 157 10 view .LVU167
 703 01ca 0746     		mov	r7, r0
 704              	.LVL66:
 705              		.loc 2 157 10 view .LVU168
 706              	.LBE103:
 707              	.LBE104:
 708              		.loc 1 169 5 is_stmt 1 view .LVU169
 709 01cc 6946     		mov	r1, sp
 710 01ce 5848     		ldr	r0, .L18+4
 711              	.LVL67:
 712              		.loc 1 169 5 is_stmt 0 view .LVU170
 713 01d0 FFF7FEFF 		bl	chHeapStatus
 714              	.LVL68:
ARM GAS  /tmp/ccXsMVKs.s 			page 14


 715 01d4 0128     		cmp	r0, #1
 716 01d6 00F0A680 		beq	.L15
 717              		.loc 1 169 5 discriminator 2 view .LVU171
 718 01da 5548     		ldr	r0, .L18+4
 719 01dc 0022     		movs	r2, #0
 720 01de 6946     		mov	r1, sp
 721 01e0 FFF7FEFF 		bl	chHeapStatus
 722              	.LVL69:
 723 01e4 A0F10208 		sub	r8, r0, #2
 724 01e8 D8F10000 		rsbs	r0, r8, #0
 725 01ec 40EB0800 		adc	r0, r0, r8
 726              	.L14:
 727              		.loc 1 169 5 discriminator 6 view .LVU172
 728 01f0 5049     		ldr	r1, .L18+8
 729 01f2 FFF7FEFF 		bl	_test_assert
 730              	.LVL70:
 731 01f6 0546     		mov	r5, r0
 732 01f8 0028     		cmp	r0, #0
 733 01fa 7FF415AF 		bne	.L8
 734              		.loc 1 170 78 is_stmt 1 view .LVU173
 735              		.loc 1 171 5 view .LVU174
 736 01fe 3046     		mov	r0, r6
 737 0200 FFF7FEFF 		bl	chHeapFree
 738              	.LVL71:
 739              		.loc 1 172 5 view .LVU175
 740 0204 3846     		mov	r0, r7
 741 0206 FFF7FEFF 		bl	chHeapFree
 742              	.LVL72:
 743              		.loc 1 173 5 view .LVU176
 744 020a 2A46     		mov	r2, r5
 745 020c 6946     		mov	r1, sp
 746 020e 4848     		ldr	r0, .L18+4
 747 0210 FFF7FEFF 		bl	chHeapStatus
 748              	.LVL73:
 749 0214 00F1FF3E 		add	lr, r0, #-1
 750 0218 DEF10000 		rsbs	r0, lr, #0
 751 021c 4549     		ldr	r1, .L18+8
 752 021e 40EB0E00 		adc	r0, r0, lr
 753 0222 FFF7FEFF 		bl	_test_assert
 754              	.LVL74:
 755 0226 0646     		mov	r6, r0
 756              	.LVL75:
 757              		.loc 1 173 5 is_stmt 0 view .LVU177
 758 0228 0028     		cmp	r0, #0
 759 022a 7FF4FDAE 		bne	.L8
 760              		.loc 1 173 76 is_stmt 1 discriminator 2 view .LVU178
 761              		.loc 1 178 3 discriminator 2 view .LVU179
 762 022e 0825     		movs	r5, #8
 763              	.LBB105:
 764              	.LBB106:
 765              		.loc 2 157 10 is_stmt 0 discriminator 2 view .LVU180
 766 0230 2A46     		mov	r2, r5
 767 0232 1021     		movs	r1, #16
 768 0234 3E48     		ldr	r0, .L18+4
 769              	.LBE106:
 770              	.LBE105:
 771              		.loc 1 178 3 discriminator 2 view .LVU181
ARM GAS  /tmp/ccXsMVKs.s 			page 15


 772 0236 2560     		str	r5, [r4]
 773              		.loc 1 180 5 is_stmt 1 discriminator 2 view .LVU182
 774              	.LVL76:
 775              	.LBB109:
 776              	.LBI105:
 777              		.loc 2 155 21 discriminator 2 view .LVU183
 778              	.LBB107:
 779              		.loc 2 157 3 discriminator 2 view .LVU184
 780              		.loc 2 157 10 is_stmt 0 discriminator 2 view .LVU185
 781 0238 FFF7FEFF 		bl	chHeapAllocAligned
 782              	.LVL77:
 783              	.LBE107:
 784              	.LBE109:
 785              	.LBB110:
 786              	.LBB111:
 787 023c 2A46     		mov	r2, r5
 788 023e 1021     		movs	r1, #16
 789              	.LBE111:
 790              	.LBE110:
 791              	.LBB113:
 792              	.LBB108:
 793 0240 8046     		mov	r8, r0
 794              	.LVL78:
 795              		.loc 2 157 10 discriminator 2 view .LVU186
 796              	.LBE108:
 797              	.LBE113:
 798              		.loc 1 181 5 is_stmt 1 discriminator 2 view .LVU187
 799              	.LBB114:
 800              	.LBI110:
 801              		.loc 2 155 21 discriminator 2 view .LVU188
 802              	.LBB112:
 803              		.loc 2 157 3 discriminator 2 view .LVU189
 804              		.loc 2 157 10 is_stmt 0 discriminator 2 view .LVU190
 805 0242 3B48     		ldr	r0, .L18+4
 806              	.LVL79:
 807              		.loc 2 157 10 discriminator 2 view .LVU191
 808 0244 FFF7FEFF 		bl	chHeapAllocAligned
 809              	.LVL80:
 810 0248 0746     		mov	r7, r0
 811              	.LBE112:
 812              	.LBE114:
 813              		.loc 1 182 5 discriminator 2 view .LVU192
 814 024a 4046     		mov	r0, r8
 815              	.LVL81:
 816              		.loc 1 182 5 is_stmt 1 discriminator 2 view .LVU193
 817 024c FFF7FEFF 		bl	chHeapFree
 818              	.LVL82:
 819              		.loc 1 183 5 discriminator 2 view .LVU194
 820 0250 3246     		mov	r2, r6
 821 0252 6946     		mov	r1, sp
 822 0254 3648     		ldr	r0, .L18+4
 823 0256 FFF7FEFF 		bl	chHeapStatus
 824              	.LVL83:
 825 025a A0F1020C 		sub	ip, r0, #2
 826 025e DCF10000 		rsbs	r0, ip, #0
 827 0262 3949     		ldr	r1, .L18+28
 828 0264 40EB0C00 		adc	r0, r0, ip
ARM GAS  /tmp/ccXsMVKs.s 			page 16


 829 0268 FFF7FEFF 		bl	_test_assert
 830              	.LVL84:
 831 026c 0646     		mov	r6, r0
 832 026e 0028     		cmp	r0, #0
 833 0270 7FF4DAAE 		bne	.L8
 834              		.loc 1 183 75 view .LVU195
 835              		.loc 1 184 5 view .LVU196
 836              	.LVL85:
 837              	.LBB115:
 838              	.LBI115:
 839              		.loc 2 155 21 view .LVU197
 840              	.LBB116:
 841              		.loc 2 157 3 view .LVU198
 842              		.loc 2 157 10 is_stmt 0 view .LVU199
 843 0274 2A46     		mov	r2, r5
 844 0276 2021     		movs	r1, #32
 845 0278 2D48     		ldr	r0, .L18+4
 846 027a FFF7FEFF 		bl	chHeapAllocAligned
 847              	.LVL86:
 848              		.loc 2 157 10 view .LVU200
 849              	.LBE116:
 850              	.LBE115:
 851              		.loc 1 185 5 is_stmt 1 view .LVU201
 852 027e FFF7FEFF 		bl	chHeapFree
 853              	.LVL87:
 854              		.loc 1 186 5 view .LVU202
 855 0282 3846     		mov	r0, r7
 856 0284 FFF7FEFF 		bl	chHeapFree
 857              	.LVL88:
 858              		.loc 1 187 5 view .LVU203
 859 0288 3246     		mov	r2, r6
 860 028a 6946     		mov	r1, sp
 861 028c 2848     		ldr	r0, .L18+4
 862 028e FFF7FEFF 		bl	chHeapStatus
 863              	.LVL89:
 864 0292 461E     		subs	r6, r0, #1
 865 0294 7042     		rsbs	r0, r6, #0
 866 0296 2749     		ldr	r1, .L18+8
 867 0298 7041     		adcs	r0, r0, r6
 868 029a FFF7FEFF 		bl	_test_assert
 869              	.LVL90:
 870 029e 0246     		mov	r2, r0
 871 02a0 0028     		cmp	r0, #0
 872 02a2 7FF4C1AE 		bne	.L8
 873              		.loc 1 187 76 discriminator 2 view .LVU204
 874              		.loc 1 191 3 discriminator 2 view .LVU205
 875 02a6 0923     		movs	r3, #9
 876              		.loc 1 193 11 is_stmt 0 discriminator 2 view .LVU206
 877 02a8 6946     		mov	r1, sp
 878 02aa 2148     		ldr	r0, .L18+4
 879              		.loc 1 191 3 discriminator 2 view .LVU207
 880 02ac 2360     		str	r3, [r4]
 881              		.loc 1 193 5 is_stmt 1 discriminator 2 view .LVU208
 882              		.loc 1 193 11 is_stmt 0 discriminator 2 view .LVU209
 883 02ae FFF7FEFF 		bl	chHeapStatus
 884              	.LVL91:
 885              		.loc 1 194 5 is_stmt 1 discriminator 2 view .LVU210
ARM GAS  /tmp/ccXsMVKs.s 			page 17


 886              	.LBB117:
 887              	.LBI117:
 888              		.loc 2 155 21 discriminator 2 view .LVU211
 889              	.LBB118:
 890              		.loc 2 157 3 discriminator 2 view .LVU212
 891              		.loc 2 157 10 is_stmt 0 discriminator 2 view .LVU213
 892 02b2 2A46     		mov	r2, r5
 893 02b4 0099     		ldr	r1, [sp]
 894 02b6 1E48     		ldr	r0, .L18+4
 895 02b8 FFF7FEFF 		bl	chHeapAllocAligned
 896              	.LVL92:
 897              		.loc 2 157 10 discriminator 2 view .LVU214
 898 02bc 0646     		mov	r6, r0
 899              	.LVL93:
 900              		.loc 2 157 10 discriminator 2 view .LVU215
 901              	.LBE118:
 902              	.LBE117:
 903              		.loc 1 195 5 is_stmt 1 discriminator 2 view .LVU216
 904 02be 0038     		subs	r0, r0, #0
 905              	.LVL94:
 906              		.loc 1 195 5 is_stmt 0 discriminator 2 view .LVU217
 907 02c0 1E49     		ldr	r1, .L18+16
 908 02c2 18BF     		it	ne
 909 02c4 0120     		movne	r0, #1
 910 02c6 FFF7FEFF 		bl	_test_assert
 911              	.LVL95:
 912 02ca 0246     		mov	r2, r0
 913 02cc 0028     		cmp	r0, #0
 914 02ce 7FF4ABAE 		bne	.L8
 915              		.loc 1 195 49 is_stmt 1 discriminator 2 view .LVU218
 916              		.loc 1 196 5 discriminator 2 view .LVU219
 917 02d2 0146     		mov	r1, r0
 918 02d4 1648     		ldr	r0, .L18+4
 919 02d6 FFF7FEFF 		bl	chHeapStatus
 920              	.LVL96:
 921 02da B0FA80F0 		clz	r0, r0
 922 02de 1B49     		ldr	r1, .L18+32
 923 02e0 4009     		lsrs	r0, r0, #5
 924 02e2 FFF7FEFF 		bl	_test_assert
 925              	.LVL97:
 926 02e6 0546     		mov	r5, r0
 927 02e8 0028     		cmp	r0, #0
 928 02ea 7FF49DAE 		bne	.L8
 929              		.loc 1 196 72 discriminator 2 view .LVU220
 930              		.loc 1 197 5 discriminator 2 view .LVU221
 931 02ee 3046     		mov	r0, r6
 932 02f0 FFF7FEFF 		bl	chHeapFree
 933              	.LVL98:
 934              		.loc 1 202 3 discriminator 2 view .LVU222
 935              		.loc 1 204 5 is_stmt 0 discriminator 2 view .LVU223
 936 02f4 2A46     		mov	r2, r5
 937 02f6 6946     		mov	r1, sp
 938              		.loc 1 202 3 discriminator 2 view .LVU224
 939 02f8 0A23     		movs	r3, #10
 940              		.loc 1 204 5 discriminator 2 view .LVU225
 941 02fa 0D48     		ldr	r0, .L18+4
 942              		.loc 1 202 3 discriminator 2 view .LVU226
ARM GAS  /tmp/ccXsMVKs.s 			page 18


 943 02fc 2360     		str	r3, [r4]
 944              		.loc 1 204 5 is_stmt 1 discriminator 2 view .LVU227
 945 02fe FFF7FEFF 		bl	chHeapStatus
 946              	.LVL99:
 947 0302 421E     		subs	r2, r0, #1
 948 0304 5042     		rsbs	r0, r2, #0
 949 0306 5041     		adcs	r0, r0, r2
 950 0308 0A49     		ldr	r1, .L18+8
 951 030a FFF7FEFF 		bl	_test_assert
 952              	.LVL100:
 953 030e 0028     		cmp	r0, #0
 954 0310 7FF48AAE 		bne	.L8
 955              		.loc 1 204 76 discriminator 2 view .LVU228
 956              		.loc 1 205 5 discriminator 2 view .LVU229
 957 0314 DDE90003 		ldrd	r0, r3, [sp]
 958 0318 C31A     		subs	r3, r0, r3
 959 031a 5842     		rsbs	r0, r3, #0
 960 031c 0C49     		ldr	r1, .L18+36
 961 031e 5841     		adcs	r0, r0, r3
 962 0320 FFF7FEFF 		bl	_test_assert
 963              	.LVL101:
 964              		.loc 1 205 5 discriminator 2 view .LVU230
 965 0324 80E6     		b	.L8
 966              	.LVL102:
 967              	.L15:
 968              		.loc 1 169 5 is_stmt 0 view .LVU231
 969 0326 0120     		movs	r0, #1
 970 0328 62E7     		b	.L14
 971              	.L19:
 972 032a 00BF     		.align	2
 973              	.L18:
 974 032c 00000000 		.word	test_step
 975 0330 00000000 		.word	.LANCHOR0
 976 0334 00000000 		.word	.LC2
 977 0338 14000000 		.word	.LC1
 978 033c 00000000 		.word	.LC0
 979 0340 10000000 		.word	.LC3
 980 0344 24000000 		.word	.LC4
 981 0348 3C000000 		.word	.LC5
 982 034c 4C000000 		.word	.LC6
 983 0350 58000000 		.word	.LC7
 984              		.cfi_endproc
 985              	.LFE278:
 986              		.size	test_010_001_execute, .-test_010_001_execute
 987              		.section	.text.test_010_001_setup,"ax",%progbits
 988              		.align	1
 989              		.p2align 4,,15
 990              		.syntax unified
 991              		.thumb
 992              		.thumb_func
 993              		.fpu softvfp
 994              		.type	test_010_001_setup, %function
 995              	test_010_001_setup:
 996              	.LFB277:
 997              		.loc 1 90 38 is_stmt 1 view -0
 998              		.cfi_startproc
 999              		@ args = 0, pretend = 0, frame = 0
ARM GAS  /tmp/ccXsMVKs.s 			page 19


 1000              		@ frame_needed = 0, uses_anonymous_args = 0
 1001              		@ link register save eliminated.
 1002              		.loc 1 91 3 view .LVU233
 1003 0000 0249     		ldr	r1, .L21
 1004 0002 0348     		ldr	r0, .L21+4
 1005 0004 4FF4CD62 		mov	r2, #1640
 1006 0008 FFF7FEBF 		b	chHeapObjectInit
 1007              	.LVL103:
 1008              	.L22:
 1009              		.align	2
 1010              	.L21:
 1011 000c 00000000 		.word	test_buffer
 1012 0010 00000000 		.word	.LANCHOR0
 1013              		.cfi_endproc
 1014              	.LFE277:
 1015              		.size	test_010_001_setup, .-test_010_001_setup
 1016              		.global	test_sequence_010
 1017              		.section	.rodata.str1.4,"aMS",%progbits,1
 1018              		.align	2
 1019              	.LC8:
 1020 0000 44656661 		.ascii	"Default Heap\000"
 1020      756C7420 
 1020      48656170 
 1020      00
 1021 000d 000000   		.align	2
 1022              	.LC9:
 1023 0010 416C6C6F 		.ascii	"Allocation and fragmentation\000"
 1023      63617469 
 1023      6F6E2061 
 1023      6E642066 
 1023      7261676D 
 1024              		.global	test_heap
 1025              		.section	.bss.test_heap,"aw",%nobits
 1026              		.align	3
 1027              		.set	.LANCHOR0,. + 0
 1028              		.type	test_heap, %object
 1029              		.size	test_heap, 32
 1030              	test_heap:
 1031 0000 00000000 		.space	32
 1031      00000000 
 1031      00000000 
 1031      00000000 
 1031      00000000 
 1032              		.section	.rodata.test_010_001,"a"
 1033              		.align	2
 1034              		.type	test_010_001, %object
 1035              		.size	test_010_001, 16
 1036              	test_010_001:
 1037 0000 10000000 		.word	.LC9
 1038 0004 00000000 		.word	test_010_001_setup
 1039 0008 00000000 		.word	0
 1040 000c 00000000 		.word	test_010_001_execute
 1041              		.section	.rodata.test_010_002,"a"
 1042              		.align	2
 1043              		.type	test_010_002, %object
 1044              		.size	test_010_002, 16
 1045              	test_010_002:
ARM GAS  /tmp/ccXsMVKs.s 			page 20


 1046 0000 00000000 		.word	.LC8
 1047 0004 00000000 		.word	0
 1048 0008 00000000 		.word	0
 1049 000c 00000000 		.word	test_010_002_execute
 1050              		.section	.rodata.test_sequence_010,"a"
 1051              		.align	2
 1052              		.type	test_sequence_010, %object
 1053              		.size	test_sequence_010, 12
 1054              	test_sequence_010:
 1055 0000 00000000 		.word	test_010_001
 1056 0004 00000000 		.word	test_010_002
 1057 0008 00000000 		.word	0
 1058              		.text
 1059              	.Letext0:
 1060              		.file 3 "/usr/lib/gcc/arm-none-eabi/10.3.1/include/stddef.h"
 1061              		.file 4 "/usr/lib/gcc/arm-none-eabi/10.3.1/include/stdint.h"
 1062              		.file 5 "../../../os/common/ports/ARMCMx/compilers/GCC/chtypes.h"
 1063              		.file 6 "../../../os/rt/include/chsystypes.h"
 1064              		.file 7 "../../../os/rt/include/chschd.h"
 1065              		.file 8 "../../../os/common/ports/ARMCMx/chcore.h"
 1066              		.file 9 "../../../os/common/ports/ARMCMx/chcore_v7m.h"
 1067              		.file 10 "../../../os/rt/include/chsem.h"
 1068              		.file 11 "../../../os/rt/include/chmtx.h"
 1069              		.file 12 "../../../os/common/oslib/include/chmemcore.h"
 1070              		.file 13 "../../../test/lib/ch_test.h"
 1071              		.file 14 "../../../test/rt/source/test/test_sequence_010.h"
 1072              		.file 15 "../../../test/rt/source/test/test_root.h"