ARM GAS  /tmp/ccCget5K.s 			page 1


   1              		.cpu cortex-m4
   2              		.eabi_attribute 20, 1
   3              		.eabi_attribute 21, 1
   4              		.eabi_attribute 23, 3
   5              		.eabi_attribute 24, 1
   6              		.eabi_attribute 25, 1
   7              		.eabi_attribute 26, 1
   8              		.eabi_attribute 30, 2
   9              		.eabi_attribute 34, 1
  10              		.eabi_attribute 18, 4
  11              		.file	"test_sequence_008.c"
  12              		.text
  13              	.Ltext0:
  14              		.cfi_sections	.debug_frame
  15              		.section	.text.test_008_001_teardown,"ax",%progbits
  16              		.align	1
  17              		.p2align 4,,15
  18              		.arch armv7e-m
  19              		.syntax unified
  20              		.thumb
  21              		.thumb_func
  22              		.fpu softvfp
  23              		.type	test_008_001_teardown, %function
  24              	test_008_001_teardown:
  25              	.LFB278:
  26              		.file 1 "../../../test/rt/source/test/test_sequence_008.c"
  27              		.loc 1 91 41 view -0
  28              		.cfi_startproc
  29              		@ args = 0, pretend = 0, frame = 0
  30              		@ frame_needed = 0, uses_anonymous_args = 0
  31              		@ link register save eliminated.
  32              		.loc 1 92 3 view .LVU1
  33 0000 0148     		ldr	r0, .L3
  34 0002 FFF7FEBF 		b	chMBReset
  35              	.LVL0:
  36              	.L4:
  37 0006 00BF     		.align	2
  38              	.L3:
  39 0008 00000000 		.word	.LANCHOR0
  40              		.cfi_endproc
  41              	.LFE278:
  42              		.size	test_008_001_teardown, .-test_008_001_teardown
  43              		.section	.rodata.test_008_003_execute.str1.4,"aMS",%progbits,1
  44              		.align	2
  45              	.LC0:
  46 0000 77726F6E 		.ascii	"wrong wake-up message\000"
  46      67207761 
  46      6B652D75 
  46      70206D65 
  46      73736167 
  47              		.section	.text.test_008_003_execute,"ax",%progbits
  48              		.align	1
  49              		.p2align 4,,15
  50              		.syntax unified
  51              		.thumb
  52              		.thumb_func
  53              		.fpu softvfp
ARM GAS  /tmp/ccCget5K.s 			page 2


  54              		.type	test_008_003_execute, %function
  55              	test_008_003_execute:
  56              	.LFB285:
  57              		.loc 1 337 40 view -0
  58              		.cfi_startproc
  59              		@ args = 0, pretend = 0, frame = 8
  60              		@ frame_needed = 0, uses_anonymous_args = 0
  61              		.loc 1 338 3 view .LVU3
  62              		.loc 1 339 3 view .LVU4
  63              		.loc 1 342 3 view .LVU5
  64              		.loc 1 337 40 is_stmt 0 view .LVU6
  65 0000 F0B5     		push	{r4, r5, r6, r7, lr}
  66              		.cfi_def_cfa_offset 20
  67              		.cfi_offset 4, -20
  68              		.cfi_offset 5, -16
  69              		.cfi_offset 6, -12
  70              		.cfi_offset 7, -8
  71              		.cfi_offset 14, -4
  72              		.loc 1 342 3 view .LVU7
  73 0002 454F     		ldr	r7, .L13
  74 0004 454D     		ldr	r5, .L13+4
  75              		.loc 1 346 7 view .LVU8
  76 0006 464E     		ldr	r6, .L13+8
  77              		.loc 1 342 3 view .LVU9
  78 0008 0123     		movs	r3, #1
  79              		.loc 1 337 40 view .LVU10
  80 000a 83B0     		sub	sp, sp, #12
  81              		.cfi_def_cfa_offset 32
  82              		.loc 1 342 3 view .LVU11
  83 000c 3B60     		str	r3, [r7]
  84              		.loc 1 344 5 is_stmt 1 view .LVU12
  85              	.LVL1:
  86              		.loc 1 344 17 view .LVU13
  87              		.loc 1 342 3 is_stmt 0 view .LVU14
  88 000e 4224     		movs	r4, #66
  89              	.LVL2:
  90              	.L8:
  91              		.loc 1 345 7 is_stmt 1 view .LVU15
  92              		.loc 1 345 14 is_stmt 0 view .LVU16
  93 0010 2146     		mov	r1, r4
  94 0012 4FF0FF32 		mov	r2, #-1
  95 0016 2846     		mov	r0, r5
  96 0018 FFF7FEFF 		bl	chMBPost
  97              	.LVL3:
  98              		.loc 1 346 7 is_stmt 1 view .LVU17
  99 001c B0FA80F0 		clz	r0, r0
 100              	.LVL4:
 101              		.loc 1 346 7 is_stmt 0 view .LVU18
 102 0020 3146     		mov	r1, r6
 103 0022 4009     		lsrs	r0, r0, #5
 104              		.loc 1 344 5 view .LVU19
 105 0024 0134     		adds	r4, r4, #1
 106              	.LVL5:
 107              		.loc 1 346 7 view .LVU20
 108 0026 FFF7FEFF 		bl	_test_assert
 109              	.LVL6:
 110              		.loc 1 346 59 is_stmt 1 view .LVU21
ARM GAS  /tmp/ccCget5K.s 			page 3


 111              		.loc 1 344 30 view .LVU22
 112              		.loc 1 344 17 view .LVU23
 113              		.loc 1 346 7 is_stmt 0 view .LVU24
 114 002a 90B9     		cbnz	r0, .L5
 115              		.loc 1 344 5 discriminator 2 view .LVU25
 116 002c 462C     		cmp	r4, #70
 117 002e EFD1     		bne	.L8
 118              		.loc 1 352 3 is_stmt 1 view .LVU26
 119 0030 0223     		movs	r3, #2
 120              		.loc 1 354 12 is_stmt 0 view .LVU27
 121 0032 0122     		movs	r2, #1
 122 0034 5821     		movs	r1, #88
 123 0036 3948     		ldr	r0, .L13+4
 124              		.loc 1 352 3 view .LVU28
 125 0038 3B60     		str	r3, [r7]
 126              		.loc 1 354 5 is_stmt 1 view .LVU29
 127              		.loc 1 354 12 is_stmt 0 view .LVU30
 128 003a FFF7FEFF 		bl	chMBPost
 129              	.LVL7:
 130              		.loc 1 355 5 is_stmt 1 view .LVU31
 131 003e A0F1FF30 		sub	r0, r0, #-1
 132              	.LVL8:
 133              		.loc 1 355 5 is_stmt 0 view .LVU32
 134 0042 B0FA80F0 		clz	r0, r0
 135              	.LVL9:
 136              		.loc 1 355 5 view .LVU33
 137 0046 3649     		ldr	r1, .L13+8
 138 0048 4009     		lsrs	r0, r0, #5
 139 004a FFF7FEFF 		bl	_test_assert
 140              	.LVL10:
 141 004e 0446     		mov	r4, r0
 142 0050 08B1     		cbz	r0, .L12
 143              	.L5:
 144              		.loc 1 386 1 view .LVU34
 145 0052 03B0     		add	sp, sp, #12
 146              		.cfi_remember_state
 147              		.cfi_def_cfa_offset 20
 148              		@ sp needed
 149 0054 F0BD     		pop	{r4, r5, r6, r7, pc}
 150              	.L12:
 151              		.cfi_restore_state
 152              		.loc 1 355 62 is_stmt 1 view .LVU35
 153              		.loc 1 356 5 view .LVU36
 154              	.LBB1004:
 155              	.LBI1004:
 156              		.file 2 "../../../os/rt/include/chsys.h"
 157              		.loc 2 374 20 view .LVU37
 158              	.LBE1004:
 159              		.loc 2 376 3 view .LVU38
 160              	.LBB1009:
 161              	.LBB1005:
 162              	.LBI1005:
 163              		.file 3 "../../../os/common/ports/ARMCMx/chcore_v7m.h"
 164              		.loc 3 594 20 view .LVU39
 165              	.LBE1005:
 166              	.LBE1009:
 167              		.loc 3 602 3 view .LVU40
ARM GAS  /tmp/ccCget5K.s 			page 4


 168              	.LVL11:
 169              	.LBB1010:
 170              	.LBB1008:
 171              	.LBB1006:
 172              	.LBI1006:
 173              		.file 4 "../../../os/common/ext/CMSIS/include/cmsis_gcc.h"
 174              		.loc 4 262 57 view .LVU41
 175              	.LBB1007:
 176              		.loc 4 264 3 view .LVU42
 177 0056 2026     		movs	r6, #32
 178              		.syntax unified
 179              	@ 264 "../../../os/common/ext/CMSIS/include/cmsis_gcc.h" 1
 180 0058 86F31188 		MSR basepri, r6
 181              	@ 0 "" 2
 182              	.LVL12:
 183              		.loc 4 264 3 is_stmt 0 view .LVU43
 184              		.thumb
 185              		.syntax unified
 186              	.LBE1007:
 187              	.LBE1006:
 188              	.LBE1008:
 189              	.LBE1010:
 190              		.loc 2 377 34 is_stmt 1 view .LVU44
 191              		.loc 2 378 20 view .LVU45
 192              		.loc 1 357 5 view .LVU46
 193              		.loc 1 357 12 is_stmt 0 view .LVU47
 194 005c 5821     		movs	r1, #88
 195 005e 2F48     		ldr	r0, .L13+4
 196 0060 FFF7FEFF 		bl	chMBPostI
 197              	.LVL13:
 198              		.loc 1 358 5 is_stmt 1 view .LVU48
 199              	.LBB1011:
 200              	.LBI1011:
 201              		.loc 2 386 20 view .LVU49
 202              	.LBB1012:
 203              		.loc 2 388 22 view .LVU50
 204              		.loc 2 389 33 view .LVU51
 205              		.loc 2 395 3 view .LVU52
 206              		.loc 2 395 3 view .LVU53
 207              		.loc 2 395 3 view .LVU54
 208              		.loc 2 399 3 view .LVU55
 209              	.LBB1013:
 210              	.LBI1013:
 211              		.loc 3 618 20 view .LVU56
 212              	.LBE1013:
 213              	.LBE1012:
 214              	.LBE1011:
 215              		.loc 3 621 3 view .LVU57
 216              	.LBB1018:
 217              	.LBB1017:
 218              	.LBB1016:
 219              	.LBB1014:
 220              	.LBI1014:
 221              		.loc 4 262 57 view .LVU58
 222              	.LBB1015:
 223              		.loc 4 264 3 view .LVU59
 224              		.syntax unified
ARM GAS  /tmp/ccCget5K.s 			page 5


 225              	@ 264 "../../../os/common/ext/CMSIS/include/cmsis_gcc.h" 1
 226 0064 84F31188 		MSR basepri, r4
 227              	@ 0 "" 2
 228              	.LVL14:
 229              		.loc 4 264 3 is_stmt 0 view .LVU60
 230              		.thumb
 231              		.syntax unified
 232              	.LBE1015:
 233              	.LBE1014:
 234              	.LBE1016:
 235              	.LBE1017:
 236              	.LBE1018:
 237              		.loc 1 359 5 is_stmt 1 view .LVU61
 238 0068 A0F1FF30 		sub	r0, r0, #-1
 239              	.LVL15:
 240              		.loc 1 359 5 is_stmt 0 view .LVU62
 241 006c B0FA80F0 		clz	r0, r0
 242              	.LVL16:
 243              		.loc 1 359 5 view .LVU63
 244 0070 2B49     		ldr	r1, .L13+8
 245 0072 4009     		lsrs	r0, r0, #5
 246 0074 FFF7FEFF 		bl	_test_assert
 247              	.LVL17:
 248 0078 0028     		cmp	r0, #0
 249 007a EAD1     		bne	.L5
 250              		.loc 1 359 62 is_stmt 1 discriminator 2 view .LVU64
 251              		.loc 1 360 5 discriminator 2 view .LVU65
 252              		.loc 1 360 12 is_stmt 0 discriminator 2 view .LVU66
 253 007c 0122     		movs	r2, #1
 254 007e 5821     		movs	r1, #88
 255 0080 2648     		ldr	r0, .L13+4
 256 0082 FFF7FEFF 		bl	chMBPostAhead
 257              	.LVL18:
 258              		.loc 1 361 5 is_stmt 1 discriminator 2 view .LVU67
 259 0086 A0F1FF30 		sub	r0, r0, #-1
 260              	.LVL19:
 261              		.loc 1 361 5 is_stmt 0 discriminator 2 view .LVU68
 262 008a B0FA80F0 		clz	r0, r0
 263              	.LVL20:
 264              		.loc 1 361 5 discriminator 2 view .LVU69
 265 008e 2449     		ldr	r1, .L13+8
 266 0090 4009     		lsrs	r0, r0, #5
 267 0092 FFF7FEFF 		bl	_test_assert
 268              	.LVL21:
 269 0096 0446     		mov	r4, r0
 270 0098 0028     		cmp	r0, #0
 271 009a DAD1     		bne	.L5
 272              		.loc 1 361 62 is_stmt 1 view .LVU70
 273              		.loc 1 362 5 view .LVU71
 274              	.LBB1019:
 275              	.LBI1019:
 276              		.loc 2 374 20 view .LVU72
 277              	.LBE1019:
 278              		.loc 2 376 3 view .LVU73
 279              	.LBB1024:
 280              	.LBB1020:
 281              	.LBI1020:
ARM GAS  /tmp/ccCget5K.s 			page 6


 282              		.loc 3 594 20 view .LVU74
 283              	.LBE1020:
 284              	.LBE1024:
 285              		.loc 3 602 3 view .LVU75
 286              	.LVL22:
 287              	.LBB1025:
 288              	.LBB1023:
 289              	.LBB1021:
 290              	.LBI1021:
 291              		.loc 4 262 57 view .LVU76
 292              	.LBB1022:
 293              		.loc 4 264 3 view .LVU77
 294              		.syntax unified
 295              	@ 264 "../../../os/common/ext/CMSIS/include/cmsis_gcc.h" 1
 296 009c 86F31188 		MSR basepri, r6
 297              	@ 0 "" 2
 298              	.LVL23:
 299              		.loc 4 264 3 is_stmt 0 view .LVU78
 300              		.thumb
 301              		.syntax unified
 302              	.LBE1022:
 303              	.LBE1021:
 304              	.LBE1023:
 305              	.LBE1025:
 306              		.loc 2 377 34 is_stmt 1 view .LVU79
 307              		.loc 2 378 20 view .LVU80
 308              		.loc 1 363 5 view .LVU81
 309              		.loc 1 363 12 is_stmt 0 view .LVU82
 310 00a0 5821     		movs	r1, #88
 311 00a2 1E48     		ldr	r0, .L13+4
 312 00a4 FFF7FEFF 		bl	chMBPostAheadI
 313              	.LVL24:
 314              		.loc 1 364 5 is_stmt 1 view .LVU83
 315              	.LBB1026:
 316              	.LBI1026:
 317              		.loc 2 386 20 view .LVU84
 318              	.LBB1027:
 319              		.loc 2 388 22 view .LVU85
 320              		.loc 2 389 33 view .LVU86
 321              		.loc 2 395 3 view .LVU87
 322              		.loc 2 395 3 view .LVU88
 323              		.loc 2 395 3 view .LVU89
 324              		.loc 2 399 3 view .LVU90
 325              	.LBB1028:
 326              	.LBI1028:
 327              		.loc 3 618 20 view .LVU91
 328              	.LBE1028:
 329              	.LBE1027:
 330              	.LBE1026:
 331              		.loc 3 621 3 view .LVU92
 332              	.LBB1033:
 333              	.LBB1032:
 334              	.LBB1031:
 335              	.LBB1029:
 336              	.LBI1029:
 337              		.loc 4 262 57 view .LVU93
 338              	.LBB1030:
ARM GAS  /tmp/ccCget5K.s 			page 7


 339              		.loc 4 264 3 view .LVU94
 340              		.syntax unified
 341              	@ 264 "../../../os/common/ext/CMSIS/include/cmsis_gcc.h" 1
 342 00a8 84F31188 		MSR basepri, r4
 343              	@ 0 "" 2
 344              	.LVL25:
 345              		.loc 4 264 3 is_stmt 0 view .LVU95
 346              		.thumb
 347              		.syntax unified
 348              	.LBE1030:
 349              	.LBE1029:
 350              	.LBE1031:
 351              	.LBE1032:
 352              	.LBE1033:
 353              		.loc 1 365 5 is_stmt 1 view .LVU96
 354 00ac A0F1FF30 		sub	r0, r0, #-1
 355              	.LVL26:
 356              		.loc 1 365 5 is_stmt 0 view .LVU97
 357 00b0 B0FA80F0 		clz	r0, r0
 358              	.LVL27:
 359              		.loc 1 365 5 view .LVU98
 360 00b4 1A49     		ldr	r1, .L13+8
 361 00b6 4009     		lsrs	r0, r0, #5
 362 00b8 FFF7FEFF 		bl	_test_assert
 363              	.LVL28:
 364 00bc 0446     		mov	r4, r0
 365 00be 0028     		cmp	r0, #0
 366 00c0 C7D1     		bne	.L5
 367              		.loc 1 365 62 is_stmt 1 discriminator 2 view .LVU99
 368              		.loc 1 370 3 discriminator 2 view .LVU100
 369 00c2 0323     		movs	r3, #3
 370              		.loc 1 372 5 is_stmt 0 discriminator 2 view .LVU101
 371 00c4 1548     		ldr	r0, .L13+4
 372              		.loc 1 370 3 discriminator 2 view .LVU102
 373 00c6 3B60     		str	r3, [r7]
 374              		.loc 1 372 5 is_stmt 1 discriminator 2 view .LVU103
 375 00c8 FFF7FEFF 		bl	chMBReset
 376              	.LVL29:
 377              		.loc 1 373 5 discriminator 2 view .LVU104
 378              	.LBB1034:
 379              	.LBI1034:
 380              		.file 5 "../../../os/common/oslib/include/chmboxes.h"
 381              		.loc 5 201 20 discriminator 2 view .LVU105
 382              	.LBB1035:
 383              		.loc 5 203 3 discriminator 2 view .LVU106
 384              	.LBE1035:
 385              	.LBE1034:
 386              		.loc 1 377 3 is_stmt 0 discriminator 2 view .LVU107
 387 00cc 0423     		movs	r3, #4
 388              		.loc 1 379 12 discriminator 2 view .LVU108
 389 00ce 0DEB0301 		add	r1, sp, r3
 390 00d2 0122     		movs	r2, #1
 391 00d4 1148     		ldr	r0, .L13+4
 392              		.loc 1 377 3 discriminator 2 view .LVU109
 393 00d6 3B60     		str	r3, [r7]
 394              	.LBB1037:
 395              	.LBB1036:
ARM GAS  /tmp/ccCget5K.s 			page 8


 396              		.loc 5 203 14 discriminator 2 view .LVU110
 397 00d8 2C75     		strb	r4, [r5, #20]
 398              	.LVL30:
 399              		.loc 5 203 14 discriminator 2 view .LVU111
 400              	.LBE1036:
 401              	.LBE1037:
 402              		.loc 1 377 3 is_stmt 1 discriminator 2 view .LVU112
 403              		.loc 1 379 5 discriminator 2 view .LVU113
 404              		.loc 1 379 12 is_stmt 0 discriminator 2 view .LVU114
 405 00da FFF7FEFF 		bl	chMBFetch
 406              	.LVL31:
 407              		.loc 1 380 5 is_stmt 1 discriminator 2 view .LVU115
 408 00de A0F1FF30 		sub	r0, r0, #-1
 409              	.LVL32:
 410              		.loc 1 380 5 is_stmt 0 discriminator 2 view .LVU116
 411 00e2 B0FA80F0 		clz	r0, r0
 412              	.LVL33:
 413              		.loc 1 380 5 discriminator 2 view .LVU117
 414 00e6 0E49     		ldr	r1, .L13+8
 415 00e8 4009     		lsrs	r0, r0, #5
 416 00ea FFF7FEFF 		bl	_test_assert
 417              	.LVL34:
 418 00ee 0446     		mov	r4, r0
 419 00f0 0028     		cmp	r0, #0
 420 00f2 AED1     		bne	.L5
 421              		.loc 1 380 62 is_stmt 1 view .LVU118
 422              		.loc 1 381 5 view .LVU119
 423              	.LBB1038:
 424              	.LBI1038:
 425              		.loc 2 374 20 view .LVU120
 426              	.LBE1038:
 427              		.loc 2 376 3 view .LVU121
 428              	.LBB1043:
 429              	.LBB1039:
 430              	.LBI1039:
 431              		.loc 3 594 20 view .LVU122
 432              	.LBE1039:
 433              	.LBE1043:
 434              		.loc 3 602 3 view .LVU123
 435              	.LVL35:
 436              	.LBB1044:
 437              	.LBB1042:
 438              	.LBB1040:
 439              	.LBI1040:
 440              		.loc 4 262 57 view .LVU124
 441              	.LBB1041:
 442              		.loc 4 264 3 view .LVU125
 443              		.syntax unified
 444              	@ 264 "../../../os/common/ext/CMSIS/include/cmsis_gcc.h" 1
 445 00f4 86F31188 		MSR basepri, r6
 446              	@ 0 "" 2
 447              	.LVL36:
 448              		.loc 4 264 3 is_stmt 0 view .LVU126
 449              		.thumb
 450              		.syntax unified
 451              	.LBE1041:
 452              	.LBE1040:
ARM GAS  /tmp/ccCget5K.s 			page 9


 453              	.LBE1042:
 454              	.LBE1044:
 455              		.loc 2 377 34 is_stmt 1 view .LVU127
 456              		.loc 2 378 20 view .LVU128
 457              		.loc 1 382 5 view .LVU129
 458              		.loc 1 382 12 is_stmt 0 view .LVU130
 459 00f8 0848     		ldr	r0, .L13+4
 460 00fa 01A9     		add	r1, sp, #4
 461 00fc FFF7FEFF 		bl	chMBFetchI
 462              	.LVL37:
 463              		.loc 1 383 5 is_stmt 1 view .LVU131
 464              	.LBB1045:
 465              	.LBI1045:
 466              		.loc 2 386 20 view .LVU132
 467              	.LBB1046:
 468              		.loc 2 388 22 view .LVU133
 469              		.loc 2 389 33 view .LVU134
 470              		.loc 2 395 3 view .LVU135
 471              		.loc 2 395 3 view .LVU136
 472              		.loc 2 395 3 view .LVU137
 473              		.loc 2 399 3 view .LVU138
 474              	.LBB1047:
 475              	.LBI1047:
 476              		.loc 3 618 20 view .LVU139
 477              	.LBE1047:
 478              	.LBE1046:
 479              	.LBE1045:
 480              		.loc 3 621 3 view .LVU140
 481              	.LBB1052:
 482              	.LBB1051:
 483              	.LBB1050:
 484              	.LBB1048:
 485              	.LBI1048:
 486              		.loc 4 262 57 view .LVU141
 487              	.LBB1049:
 488              		.loc 4 264 3 view .LVU142
 489              		.syntax unified
 490              	@ 264 "../../../os/common/ext/CMSIS/include/cmsis_gcc.h" 1
 491 0100 84F31188 		MSR basepri, r4
 492              	@ 0 "" 2
 493              	.LVL38:
 494              		.loc 4 264 3 is_stmt 0 view .LVU143
 495              		.thumb
 496              		.syntax unified
 497              	.LBE1049:
 498              	.LBE1048:
 499              	.LBE1050:
 500              	.LBE1051:
 501              	.LBE1052:
 502              		.loc 1 384 5 is_stmt 1 view .LVU144
 503 0104 A0F1FF30 		sub	r0, r0, #-1
 504              	.LVL39:
 505              		.loc 1 384 5 is_stmt 0 view .LVU145
 506 0108 B0FA80F0 		clz	r0, r0
 507              	.LVL40:
 508              		.loc 1 384 5 view .LVU146
 509 010c 0449     		ldr	r1, .L13+8
ARM GAS  /tmp/ccCget5K.s 			page 10


 510 010e 4009     		lsrs	r0, r0, #5
 511 0110 FFF7FEFF 		bl	_test_assert
 512              	.LVL41:
 513              		.loc 1 384 5 is_stmt 1 view .LVU147
 514 0114 9DE7     		b	.L5
 515              	.L14:
 516 0116 00BF     		.align	2
 517              	.L13:
 518 0118 00000000 		.word	test_step
 519 011c 00000000 		.word	.LANCHOR0
 520 0120 00000000 		.word	.LC0
 521              		.cfi_endproc
 522              	.LFE285:
 523              		.size	test_008_003_execute, .-test_008_003_execute
 524              		.section	.text.test_008_001_setup,"ax",%progbits
 525              		.align	1
 526              		.p2align 4,,15
 527              		.syntax unified
 528              		.thumb
 529              		.thumb_func
 530              		.fpu softvfp
 531              		.type	test_008_001_setup, %function
 532              	test_008_001_setup:
 533              	.LFB277:
 534              		.loc 1 87 38 view -0
 535              		.cfi_startproc
 536              		@ args = 0, pretend = 0, frame = 0
 537              		@ frame_needed = 0, uses_anonymous_args = 0
 538              		@ link register save eliminated.
 539              		.loc 1 88 3 view .LVU149
 540 0000 0249     		ldr	r1, .L16
 541 0002 0348     		ldr	r0, .L16+4
 542 0004 0422     		movs	r2, #4
 543 0006 FFF7FEBF 		b	chMBObjectInit
 544              	.LVL42:
 545              	.L17:
 546 000a 00BF     		.align	2
 547              	.L16:
 548 000c 00000000 		.word	.LANCHOR1
 549 0010 00000000 		.word	.LANCHOR0
 550              		.cfi_endproc
 551              	.LFE277:
 552              		.size	test_008_001_setup, .-test_008_001_setup
 553              		.section	.rodata.test_008_002_execute.str1.4,"aMS",%progbits,1
 554              		.align	2
 555              	.LC1:
 556 0000 77726F6E 		.ascii	"wrong size\000"
 556      67207369 
 556      7A6500
 557 000b 00       		.align	2
 558              	.LC2:
 559 000c 6E6F7420 		.ascii	"not empty\000"
 559      656D7074 
 559      7900
 560 0016 0000     		.align	2
 561              	.LC3:
 562 0018 7374696C 		.ascii	"still full\000"
ARM GAS  /tmp/ccCget5K.s 			page 11


 562      6C206675 
 562      6C6C00
 563 0023 00       		.align	2
 564              	.LC4:
 565 0024 77726974 		.ascii	"write pointer not aligned to base\000"
 565      6520706F 
 565      696E7465 
 565      72206E6F 
 565      7420616C 
 566 0046 0000     		.align	2
 567              	.LC5:
 568 0048 72656164 		.ascii	"read pointer not aligned to base\000"
 568      20706F69 
 568      6E746572 
 568      206E6F74 
 568      20616C69 
 569 0069 000000   		.align	2
 570              	.LC6:
 571 006c 7374696C 		.ascii	"still empty\000"
 571      6C20656D 
 571      70747900 
 572              		.align	2
 573              	.LC7:
 574 0078 6E6F7420 		.ascii	"not full\000"
 574      66756C6C 
 574      00
 575 0081 000000   		.align	2
 576              	.LC8:
 577 0084 706F696E 		.ascii	"pointers not aligned\000"
 577      74657273 
 577      206E6F74 
 577      20616C69 
 577      676E6564 
 578 0099 000000   		.align	2
 579              	.LC9:
 580 009c 77726F6E 		.ascii	"wrong get sequence\000"
 580      67206765 
 580      74207365 
 580      7175656E 
 580      636500
 581 00af 00       		.align	2
 582              	.LC10:
 583 00b0 41424344 		.ascii	"ABCD\000"
 583      00
 584              		.section	.text.test_008_002_execute,"ax",%progbits
 585              		.align	1
 586              		.p2align 4,,15
 587              		.syntax unified
 588              		.thumb
 589              		.thumb_func
 590              		.fpu softvfp
 591              		.type	test_008_002_execute, %function
 592              	test_008_002_execute:
 593              	.LFB282:
 594              		.loc 1 222 40 view -0
 595              		.cfi_startproc
 596              		@ args = 0, pretend = 0, frame = 8
ARM GAS  /tmp/ccCget5K.s 			page 12


 597              		@ frame_needed = 0, uses_anonymous_args = 0
 598              		.loc 1 223 3 view .LVU151
 599              		.loc 1 224 3 view .LVU152
 600              		.loc 1 227 3 view .LVU153
 601              		.loc 1 222 40 is_stmt 0 view .LVU154
 602 0000 2DE9F043 		push	{r4, r5, r6, r7, r8, r9, lr}
 603              		.cfi_def_cfa_offset 28
 604              		.cfi_offset 4, -28
 605              		.cfi_offset 5, -24
 606              		.cfi_offset 6, -20
 607              		.cfi_offset 7, -16
 608              		.cfi_offset 8, -12
 609              		.cfi_offset 9, -8
 610              		.cfi_offset 14, -4
 611              		.loc 1 227 3 view .LVU155
 612 0004 AB4F     		ldr	r7, .L43
 613 0006 0123     		movs	r3, #1
 614              		.loc 1 222 40 view .LVU156
 615 0008 83B0     		sub	sp, sp, #12
 616              		.cfi_def_cfa_offset 40
 617              		.loc 1 227 3 view .LVU157
 618 000a 3B60     		str	r3, [r7]
 619              		.loc 1 229 5 is_stmt 1 view .LVU158
 620              	.LBB1310:
 621              	.LBI1310:
 622              		.file 6 "../../../os/hal/osal/rt/osal.h"
 623              		.loc 6 491 20 view .LVU159
 624              	.LBE1310:
 625              		.loc 6 493 3 view .LVU160
 626              	.LBB1318:
 627              	.LBB1311:
 628              	.LBI1311:
 629              		.loc 2 374 20 view .LVU161
 630              	.LBE1311:
 631              	.LBE1318:
 632              		.loc 2 376 3 view .LVU162
 633              	.LBB1319:
 634              	.LBB1316:
 635              	.LBB1312:
 636              	.LBI1312:
 637              		.loc 3 594 20 view .LVU163
 638              	.LBE1312:
 639              	.LBE1316:
 640              	.LBE1319:
 641              		.loc 3 602 3 view .LVU164
 642              	.LVL43:
 643              	.LBB1320:
 644              	.LBB1317:
 645              	.LBB1315:
 646              	.LBB1313:
 647              	.LBI1313:
 648              		.loc 4 262 57 view .LVU165
 649              	.LBB1314:
 650              		.loc 4 264 3 view .LVU166
 651 000c 2026     		movs	r6, #32
 652              		.syntax unified
 653              	@ 264 "../../../os/common/ext/CMSIS/include/cmsis_gcc.h" 1
ARM GAS  /tmp/ccCget5K.s 			page 13


 654 000e 86F31188 		MSR basepri, r6
 655              	@ 0 "" 2
 656              	.LVL44:
 657              		.loc 4 264 3 is_stmt 0 view .LVU167
 658              		.thumb
 659              		.syntax unified
 660              	.LBE1314:
 661              	.LBE1313:
 662              	.LBE1315:
 663              	.LBE1317:
 664              	.LBE1320:
 665              		.loc 2 377 34 is_stmt 1 view .LVU168
 666              		.loc 2 378 20 view .LVU169
 667              		.loc 1 229 5 view .LVU170
 668              	.LBB1321:
 669              	.LBI1321:
 670              		.loc 5 168 21 view .LVU171
 671              	.LBB1322:
 672              		.loc 5 170 21 view .LVU172
 673              		.loc 5 172 3 view .LVU173
 674              	.LBB1323:
 675              	.LBI1323:
 676              		.loc 5 136 21 view .LVU174
 677              	.LBB1324:
 678              		.loc 5 140 3 view .LVU175
 679              		.loc 5 140 3 is_stmt 0 view .LVU176
 680              	.LBE1324:
 681              	.LBE1323:
 682              	.LBB1327:
 683              	.LBI1327:
 684              		.loc 5 153 21 is_stmt 1 view .LVU177
 685              	.LBB1328:
 686              		.loc 5 155 21 view .LVU178
 687              		.loc 5 157 3 view .LVU179
 688              		.loc 5 157 3 is_stmt 0 view .LVU180
 689              	.LBE1328:
 690              	.LBE1327:
 691              	.LBB1329:
 692              	.LBB1325:
 693              		.loc 5 140 21 view .LVU181
 694 0012 A94C     		ldr	r4, .L43+4
 695              	.LBE1325:
 696              	.LBE1329:
 697              	.LBE1322:
 698              	.LBE1321:
 699              		.loc 1 229 5 view .LVU182
 700 0014 A949     		ldr	r1, .L43+8
 701              	.LBB1332:
 702              	.LBB1331:
 703              	.LBB1330:
 704              	.LBB1326:
 705              		.loc 5 140 27 view .LVU183
 706 0016 D4E90030 		ldrd	r3, r0, [r4]
 707 001a C31A     		subs	r3, r0, r3
 708              	.LBE1326:
 709              	.LBE1330:
 710              		.loc 5 172 28 view .LVU184
ARM GAS  /tmp/ccCget5K.s 			page 14


 711 001c 2069     		ldr	r0, [r4, #16]
 712 001e C0EBA300 		rsb	r0, r0, r3, asr #2
 713              	.LBE1331:
 714              	.LBE1332:
 715              		.loc 1 229 5 view .LVU185
 716 0022 A0F10400 		sub	r0, #4
 717 0026 B0FA80F0 		clz	r0, r0
 718 002a 4009     		lsrs	r0, r0, #5
 719 002c FFF7FEFF 		bl	_test_assert
 720              	.LVL45:
 721 0030 28B1     		cbz	r0, .L19
 722              		.loc 1 229 5 is_stmt 1 view .LVU186
 723              	.LBB1333:
 724              	.LBI1333:
 725              		.loc 6 502 20 view .LVU187
 726              	.LBE1333:
 727              		.loc 6 504 3 view .LVU188
 728              	.LBB1342:
 729              	.LBB1334:
 730              	.LBI1334:
 731              		.loc 2 386 20 view .LVU189
 732              	.LBB1335:
 733              		.loc 2 388 22 view .LVU190
 734              		.loc 2 389 33 view .LVU191
 735              		.loc 2 395 3 view .LVU192
 736              		.loc 2 395 3 view .LVU193
 737              		.loc 2 395 3 view .LVU194
 738              		.loc 2 399 3 view .LVU195
 739              	.LBB1336:
 740              	.LBI1336:
 741              		.loc 3 618 20 view .LVU196
 742              	.LBE1336:
 743              	.LBE1335:
 744              	.LBE1334:
 745              	.LBE1342:
 746              		.loc 3 621 3 view .LVU197
 747              	.LVL46:
 748              	.LBB1343:
 749              	.LBB1341:
 750              	.LBB1340:
 751              	.LBB1339:
 752              	.LBB1337:
 753              	.LBI1337:
 754              		.loc 4 262 57 view .LVU198
 755              	.LBB1338:
 756              		.loc 4 264 3 view .LVU199
 757 0032 0023     		movs	r3, #0
 758              		.syntax unified
 759              	@ 264 "../../../os/common/ext/CMSIS/include/cmsis_gcc.h" 1
 760 0034 83F31188 		MSR basepri, r3
 761              	@ 0 "" 2
 762              	.LVL47:
 763              		.loc 4 264 3 is_stmt 0 view .LVU200
 764              		.thumb
 765              		.syntax unified
 766              	.LBE1338:
 767              	.LBE1337:
ARM GAS  /tmp/ccCget5K.s 			page 15


 768              	.LBE1339:
 769              	.LBE1340:
 770              	.LBE1341:
 771              	.LBE1343:
 772              		.loc 1 229 5 is_stmt 1 view .LVU201
 773              	.L18:
 774              		.loc 1 304 1 is_stmt 0 view .LVU202
 775 0038 03B0     		add	sp, sp, #12
 776              		.cfi_remember_state
 777              		.cfi_def_cfa_offset 28
 778              		@ sp needed
 779 003a BDE8F083 		pop	{r4, r5, r6, r7, r8, r9, pc}
 780              	.L19:
 781              		.cfi_restore_state
 782              	.LBB1344:
 783              	.LBI1344:
 784              		.loc 1 222 13 is_stmt 1 view .LVU203
 785              	.LBB1345:
 786              		.loc 1 229 5 view .LVU204
 787              	.LBB1346:
 788              	.LBI1346:
 789              		.loc 6 502 20 view .LVU205
 790              	.LBE1346:
 791              	.LBE1345:
 792              	.LBE1344:
 793              		.loc 6 504 3 view .LVU206
 794              	.LBB1771:
 795              	.LBB1690:
 796              	.LBB1355:
 797              	.LBB1347:
 798              	.LBI1347:
 799              		.loc 2 386 20 view .LVU207
 800              	.LBB1348:
 801              		.loc 2 388 22 view .LVU208
 802              		.loc 2 389 33 view .LVU209
 803              		.loc 2 395 3 view .LVU210
 804              		.loc 2 395 3 view .LVU211
 805              		.loc 2 395 3 view .LVU212
 806              		.loc 2 399 3 view .LVU213
 807              	.LBB1349:
 808              	.LBI1349:
 809              		.loc 3 618 20 view .LVU214
 810              	.LBE1349:
 811              	.LBE1348:
 812              	.LBE1347:
 813              	.LBE1355:
 814              	.LBE1690:
 815              	.LBE1771:
 816              		.loc 3 621 3 view .LVU215
 817              	.LVL48:
 818              	.LBB1772:
 819              	.LBB1691:
 820              	.LBB1356:
 821              	.LBB1354:
 822              	.LBB1353:
 823              	.LBB1352:
 824              	.LBB1350:
ARM GAS  /tmp/ccCget5K.s 			page 16


 825              	.LBI1350:
 826              		.loc 4 262 57 view .LVU216
 827              	.LBB1351:
 828              		.loc 4 264 3 view .LVU217
 829 003e 0546     		mov	r5, r0
 830              		.syntax unified
 831              	@ 264 "../../../os/common/ext/CMSIS/include/cmsis_gcc.h" 1
 832 0040 80F31188 		MSR basepri, r0
 833              	@ 0 "" 2
 834              	.LVL49:
 835              		.loc 4 264 3 is_stmt 0 view .LVU218
 836              		.thumb
 837              		.syntax unified
 838              	.LBE1351:
 839              	.LBE1350:
 840              	.LBE1352:
 841              	.LBE1353:
 842              	.LBE1354:
 843              	.LBE1356:
 844              		.loc 1 229 71 is_stmt 1 view .LVU219
 845              		.loc 1 234 3 view .LVU220
 846 0044 0223     		movs	r3, #2
 847 0046 3B60     		str	r3, [r7]
 848              		.loc 1 236 5 view .LVU221
 849              	.LBB1357:
 850              	.LBI1357:
 851              		.loc 2 374 20 view .LVU222
 852              	.LBE1357:
 853              	.LBE1691:
 854              	.LBE1772:
 855              		.loc 2 376 3 view .LVU223
 856              	.LBB1773:
 857              	.LBB1692:
 858              	.LBB1362:
 859              	.LBB1358:
 860              	.LBI1358:
 861              		.loc 3 594 20 view .LVU224
 862              	.LBE1358:
 863              	.LBE1362:
 864              	.LBE1692:
 865              	.LBE1773:
 866              		.loc 3 602 3 view .LVU225
 867              	.LVL50:
 868              	.LBB1774:
 869              	.LBB1693:
 870              	.LBB1363:
 871              	.LBB1361:
 872              	.LBB1359:
 873              	.LBI1359:
 874              		.loc 4 262 57 view .LVU226
 875              	.LBB1360:
 876              		.loc 4 264 3 view .LVU227
 877              		.syntax unified
 878              	@ 264 "../../../os/common/ext/CMSIS/include/cmsis_gcc.h" 1
 879 0048 86F31188 		MSR basepri, r6
 880              	@ 0 "" 2
 881              	.LVL51:
ARM GAS  /tmp/ccCget5K.s 			page 17


 882              		.loc 4 264 3 is_stmt 0 view .LVU228
 883              		.thumb
 884              		.syntax unified
 885              	.LBE1360:
 886              	.LBE1359:
 887              	.LBE1361:
 888              	.LBE1363:
 889              	.LBE1693:
 890              	.LBE1774:
 891              		.loc 2 377 34 is_stmt 1 view .LVU229
 892              		.loc 2 378 20 view .LVU230
 893              	.LBB1775:
 894              	.LBB1694:
 895              		.loc 1 237 5 view .LVU231
 896 004c 2046     		mov	r0, r4
 897 004e FFF7FEFF 		bl	chMBResetI
 898              	.LVL52:
 899              		.loc 1 238 5 view .LVU232
 900              	.LBB1364:
 901              	.LBI1364:
 902              		.loc 2 386 20 view .LVU233
 903              	.LBB1365:
 904              		.loc 2 388 22 view .LVU234
 905              		.loc 2 389 33 view .LVU235
 906              		.loc 2 395 3 view .LVU236
 907              		.loc 2 395 3 view .LVU237
 908              		.loc 2 395 3 view .LVU238
 909              		.loc 2 399 3 view .LVU239
 910              	.LBB1366:
 911              	.LBI1366:
 912              		.loc 3 618 20 view .LVU240
 913              	.LBE1366:
 914              	.LBE1365:
 915              	.LBE1364:
 916              	.LBE1694:
 917              	.LBE1775:
 918              		.loc 3 621 3 view .LVU241
 919              	.LBB1776:
 920              	.LBB1695:
 921              	.LBB1371:
 922              	.LBB1370:
 923              	.LBB1369:
 924              	.LBB1367:
 925              	.LBI1367:
 926              		.loc 4 262 57 view .LVU242
 927              	.LBB1368:
 928              		.loc 4 264 3 view .LVU243
 929              		.syntax unified
 930              	@ 264 "../../../os/common/ext/CMSIS/include/cmsis_gcc.h" 1
 931 0052 85F31188 		MSR basepri, r5
 932              	@ 0 "" 2
 933              	.LVL53:
 934              		.loc 4 264 3 is_stmt 0 view .LVU244
 935              		.thumb
 936              		.syntax unified
 937              	.LBE1368:
 938              	.LBE1367:
ARM GAS  /tmp/ccCget5K.s 			page 18


 939              	.LBE1369:
 940              	.LBE1370:
 941              	.LBE1371:
 942              		.loc 1 239 5 is_stmt 1 view .LVU245
 943              	.LBB1372:
 944              	.LBI1372:
 945              		.loc 6 491 20 view .LVU246
 946              	.LBE1372:
 947              	.LBE1695:
 948              	.LBE1776:
 949              		.loc 6 493 3 view .LVU247
 950              	.LBB1777:
 951              	.LBB1696:
 952              	.LBB1380:
 953              	.LBB1373:
 954              	.LBI1373:
 955              		.loc 2 374 20 view .LVU248
 956              	.LBE1373:
 957              	.LBE1380:
 958              	.LBE1696:
 959              	.LBE1777:
 960              		.loc 2 376 3 view .LVU249
 961              	.LBB1778:
 962              	.LBB1697:
 963              	.LBB1381:
 964              	.LBB1378:
 965              	.LBB1374:
 966              	.LBI1374:
 967              		.loc 3 594 20 view .LVU250
 968              	.LBE1374:
 969              	.LBE1378:
 970              	.LBE1381:
 971              	.LBE1697:
 972              	.LBE1778:
 973              		.loc 3 602 3 view .LVU251
 974              	.LBB1779:
 975              	.LBB1698:
 976              	.LBB1382:
 977              	.LBB1379:
 978              	.LBB1377:
 979              	.LBB1375:
 980              	.LBI1375:
 981              		.loc 4 262 57 view .LVU252
 982              	.LBB1376:
 983              		.loc 4 264 3 view .LVU253
 984              		.syntax unified
 985              	@ 264 "../../../os/common/ext/CMSIS/include/cmsis_gcc.h" 1
 986 0056 86F31188 		MSR basepri, r6
 987              	@ 0 "" 2
 988              	.LVL54:
 989              		.loc 4 264 3 is_stmt 0 view .LVU254
 990              		.thumb
 991              		.syntax unified
 992              	.LBE1376:
 993              	.LBE1375:
 994              	.LBE1377:
 995              	.LBE1379:
ARM GAS  /tmp/ccCget5K.s 			page 19


 996              	.LBE1382:
 997              	.LBE1698:
 998              	.LBE1779:
 999              		.loc 2 377 34 is_stmt 1 view .LVU255
 1000              		.loc 2 378 20 view .LVU256
 1001              	.LBB1780:
 1002              	.LBB1699:
 1003              		.loc 1 239 5 view .LVU257
 1004              	.LBB1383:
 1005              	.LBI1383:
 1006              		.loc 5 168 21 view .LVU258
 1007              	.LBB1384:
 1008              		.loc 5 170 21 view .LVU259
 1009              		.loc 5 172 3 view .LVU260
 1010              	.LBB1385:
 1011              	.LBI1385:
 1012              		.loc 5 136 21 view .LVU261
 1013              	.LBB1386:
 1014              		.loc 5 140 3 view .LVU262
 1015              		.loc 5 140 3 is_stmt 0 view .LVU263
 1016              	.LBE1386:
 1017              	.LBE1385:
 1018              	.LBB1388:
 1019              	.LBI1388:
 1020              		.loc 5 153 21 is_stmt 1 view .LVU264
 1021              	.LBB1389:
 1022              		.loc 5 155 21 view .LVU265
 1023              		.loc 5 157 3 view .LVU266
 1024              		.loc 5 157 3 is_stmt 0 view .LVU267
 1025              	.LBE1389:
 1026              	.LBE1388:
 1027              	.LBB1390:
 1028              	.LBB1387:
 1029              		.loc 5 140 27 view .LVU268
 1030 005a D4E90030 		ldrd	r3, r0, [r4]
 1031 005e C31A     		subs	r3, r0, r3
 1032              	.LBE1387:
 1033              	.LBE1390:
 1034              		.loc 5 172 28 view .LVU269
 1035 0060 2069     		ldr	r0, [r4, #16]
 1036              	.LBE1384:
 1037              	.LBE1383:
 1038              		.loc 1 239 5 view .LVU270
 1039 0062 9749     		ldr	r1, .L43+12
 1040              	.LBB1392:
 1041              	.LBB1391:
 1042              		.loc 5 172 28 view .LVU271
 1043 0064 C0EBA300 		rsb	r0, r0, r3, asr #2
 1044              	.LBE1391:
 1045              	.LBE1392:
 1046              		.loc 1 239 5 view .LVU272
 1047 0068 A0F10400 		sub	r0, #4
 1048 006c B0FA80F0 		clz	r0, r0
 1049 0070 4009     		lsrs	r0, r0, #5
 1050 0072 FFF7FEFF 		bl	_test_assert
 1051              	.LVL55:
 1052 0076 8046     		mov	r8, r0
ARM GAS  /tmp/ccCget5K.s 			page 20


 1053 0078 88B9     		cbnz	r0, .L41
 1054              		.loc 1 239 5 is_stmt 1 view .LVU273
 1055              	.LBB1393:
 1056              	.LBI1393:
 1057              		.loc 6 502 20 view .LVU274
 1058              	.LBE1393:
 1059              	.LBE1699:
 1060              	.LBE1780:
 1061              		.loc 6 504 3 view .LVU275
 1062              	.LBB1781:
 1063              	.LBB1700:
 1064              	.LBB1402:
 1065              	.LBB1394:
 1066              	.LBI1394:
 1067              		.loc 2 386 20 view .LVU276
 1068              	.LBB1395:
 1069              		.loc 2 388 22 view .LVU277
 1070              		.loc 2 389 33 view .LVU278
 1071              		.loc 2 395 3 view .LVU279
 1072              		.loc 2 395 3 view .LVU280
 1073              		.loc 2 395 3 view .LVU281
 1074              		.loc 2 399 3 view .LVU282
 1075              	.LBB1396:
 1076              	.LBI1396:
 1077              		.loc 3 618 20 view .LVU283
 1078              	.LBE1396:
 1079              	.LBE1395:
 1080              	.LBE1394:
 1081              	.LBE1402:
 1082              	.LBE1700:
 1083              	.LBE1781:
 1084              		.loc 3 621 3 view .LVU284
 1085              	.LVL56:
 1086              	.LBB1782:
 1087              	.LBB1701:
 1088              	.LBB1403:
 1089              	.LBB1401:
 1090              	.LBB1400:
 1091              	.LBB1399:
 1092              	.LBB1397:
 1093              	.LBI1397:
 1094              		.loc 4 262 57 view .LVU285
 1095              	.LBB1398:
 1096              		.loc 4 264 3 view .LVU286
 1097              		.syntax unified
 1098              	@ 264 "../../../os/common/ext/CMSIS/include/cmsis_gcc.h" 1
 1099 007a 80F31188 		MSR basepri, r0
 1100              	@ 0 "" 2
 1101              	.LVL57:
 1102              		.loc 4 264 3 is_stmt 0 view .LVU287
 1103              		.thumb
 1104              		.syntax unified
 1105              	.LBE1398:
 1106              	.LBE1397:
 1107              	.LBE1399:
 1108              	.LBE1400:
 1109              	.LBE1401:
ARM GAS  /tmp/ccCget5K.s 			page 21


 1110              	.LBE1403:
 1111              		.loc 1 239 70 is_stmt 1 view .LVU288
 1112              		.loc 1 240 5 view .LVU289
 1113              	.LBB1404:
 1114              	.LBI1404:
 1115              		.loc 6 491 20 view .LVU290
 1116              	.LBE1404:
 1117              	.LBE1701:
 1118              	.LBE1782:
 1119              		.loc 6 493 3 view .LVU291
 1120              	.LBB1783:
 1121              	.LBB1702:
 1122              	.LBB1412:
 1123              	.LBB1405:
 1124              	.LBI1405:
 1125              		.loc 2 374 20 view .LVU292
 1126              	.LBE1405:
 1127              	.LBE1412:
 1128              	.LBE1702:
 1129              	.LBE1783:
 1130              		.loc 2 376 3 view .LVU293
 1131              	.LBB1784:
 1132              	.LBB1703:
 1133              	.LBB1413:
 1134              	.LBB1410:
 1135              	.LBB1406:
 1136              	.LBI1406:
 1137              		.loc 3 594 20 view .LVU294
 1138              	.LBE1406:
 1139              	.LBE1410:
 1140              	.LBE1413:
 1141              	.LBE1703:
 1142              	.LBE1784:
 1143              		.loc 3 602 3 view .LVU295
 1144              	.LBB1785:
 1145              	.LBB1704:
 1146              	.LBB1414:
 1147              	.LBB1411:
 1148              	.LBB1409:
 1149              	.LBB1407:
 1150              	.LBI1407:
 1151              		.loc 4 262 57 view .LVU296
 1152              	.LBB1408:
 1153              		.loc 4 264 3 view .LVU297
 1154              		.syntax unified
 1155              	@ 264 "../../../os/common/ext/CMSIS/include/cmsis_gcc.h" 1
 1156 007e 86F31188 		MSR basepri, r6
 1157              	@ 0 "" 2
 1158              	.LVL58:
 1159              		.loc 4 264 3 is_stmt 0 view .LVU298
 1160              		.thumb
 1161              		.syntax unified
 1162              	.LBE1408:
 1163              	.LBE1407:
 1164              	.LBE1409:
 1165              	.LBE1411:
 1166              	.LBE1414:
ARM GAS  /tmp/ccCget5K.s 			page 22


 1167              	.LBE1704:
 1168              	.LBE1785:
 1169              		.loc 2 377 34 is_stmt 1 view .LVU299
 1170              		.loc 2 378 20 view .LVU300
 1171              	.LBB1786:
 1172              	.LBB1705:
 1173              		.loc 1 240 5 view .LVU301
 1174              	.LBB1415:
 1175              	.LBI1415:
 1176              		.loc 5 153 21 view .LVU302
 1177              	.LBB1416:
 1178              		.loc 5 155 21 view .LVU303
 1179              		.loc 5 157 3 view .LVU304
 1180              		.loc 5 157 3 is_stmt 0 view .LVU305
 1181              	.LBE1416:
 1182              	.LBE1415:
 1183              		.loc 1 240 5 view .LVU306
 1184 0082 2069     		ldr	r0, [r4, #16]
 1185 0084 8F49     		ldr	r1, .L43+16
 1186 0086 B0FA80F0 		clz	r0, r0
 1187 008a 4009     		lsrs	r0, r0, #5
 1188 008c FFF7FEFF 		bl	_test_assert
 1189              	.LVL59:
 1190 0090 0546     		mov	r5, r0
 1191 0092 48B1     		cbz	r0, .L23
 1192              	.L42:
 1193              		.loc 1 267 5 is_stmt 1 view .LVU307
 1194              	.LBB1417:
 1195              	.LBI1417:
 1196              		.loc 6 502 20 view .LVU308
 1197              	.LBE1417:
 1198              	.LBE1705:
 1199              	.LBE1786:
 1200              		.loc 6 504 3 view .LVU309
 1201              	.LBB1787:
 1202              	.LBB1706:
 1203              	.LBB1426:
 1204              	.LBB1418:
 1205              	.LBI1418:
 1206              		.loc 2 386 20 view .LVU310
 1207              	.LBB1419:
 1208              		.loc 2 388 22 view .LVU311
 1209              		.loc 2 389 33 view .LVU312
 1210              		.loc 2 395 3 view .LVU313
 1211              		.loc 2 395 3 view .LVU314
 1212              		.loc 2 395 3 view .LVU315
 1213              		.loc 2 399 3 view .LVU316
 1214              	.LBB1420:
 1215              	.LBI1420:
 1216              		.loc 3 618 20 view .LVU317
 1217              	.LBE1420:
 1218              	.LBE1419:
 1219              	.LBE1418:
 1220              	.LBE1426:
 1221              	.LBE1706:
 1222              	.LBE1787:
 1223              		.loc 3 621 3 view .LVU318
ARM GAS  /tmp/ccCget5K.s 			page 23


 1224              	.LVL60:
 1225              	.LBB1788:
 1226              	.LBB1707:
 1227              	.LBB1427:
 1228              	.LBB1425:
 1229              	.LBB1424:
 1230              	.LBB1423:
 1231              	.LBB1421:
 1232              	.LBI1421:
 1233              		.loc 4 262 57 view .LVU319
 1234              	.LBB1422:
 1235              		.loc 4 264 3 view .LVU320
 1236              		.syntax unified
 1237              	@ 264 "../../../os/common/ext/CMSIS/include/cmsis_gcc.h" 1
 1238 0094 88F31188 		MSR basepri, r8
 1239              	@ 0 "" 2
 1240              	.LVL61:
 1241              		.loc 4 264 3 is_stmt 0 view .LVU321
 1242              		.thumb
 1243              		.syntax unified
 1244              	.LBE1422:
 1245              	.LBE1421:
 1246              	.LBE1423:
 1247              	.LBE1424:
 1248              	.LBE1425:
 1249              	.LBE1427:
 1250              		.loc 1 267 5 is_stmt 1 view .LVU322
 1251              	.LBE1707:
 1252              	.LBE1788:
 1253              		.loc 1 304 1 is_stmt 0 view .LVU323
 1254 0098 03B0     		add	sp, sp, #12
 1255              		.cfi_remember_state
 1256              		.cfi_def_cfa_offset 28
 1257              		@ sp needed
 1258 009a BDE8F083 		pop	{r4, r5, r6, r7, r8, r9, pc}
 1259              	.L41:
 1260              		.cfi_restore_state
 1261              	.LBB1789:
 1262              	.LBB1708:
 1263              		.loc 1 268 5 is_stmt 1 view .LVU324
 1264              	.LBB1428:
 1265              	.LBI1428:
 1266              		.loc 6 502 20 view .LVU325
 1267              	.LBE1428:
 1268              	.LBE1708:
 1269              	.LBE1789:
 1270              		.loc 6 504 3 view .LVU326
 1271              	.LBB1790:
 1272              	.LBB1709:
 1273              	.LBB1437:
 1274              	.LBB1429:
 1275              	.LBI1429:
 1276              		.loc 2 386 20 view .LVU327
 1277              	.LBB1430:
 1278              		.loc 2 388 22 view .LVU328
 1279              		.loc 2 389 33 view .LVU329
 1280              		.loc 2 395 3 view .LVU330
ARM GAS  /tmp/ccCget5K.s 			page 24


 1281              		.loc 2 395 3 view .LVU331
 1282              		.loc 2 395 3 view .LVU332
 1283              		.loc 2 399 3 view .LVU333
 1284              	.LBB1431:
 1285              	.LBI1431:
 1286              		.loc 3 618 20 view .LVU334
 1287              	.LBE1431:
 1288              	.LBE1430:
 1289              	.LBE1429:
 1290              	.LBE1437:
 1291              	.LBE1709:
 1292              	.LBE1790:
 1293              		.loc 3 621 3 view .LVU335
 1294              	.LVL62:
 1295              	.LBB1791:
 1296              	.LBB1710:
 1297              	.LBB1438:
 1298              	.LBB1436:
 1299              	.LBB1435:
 1300              	.LBB1434:
 1301              	.LBB1432:
 1302              	.LBI1432:
 1303              		.loc 4 262 57 view .LVU336
 1304              	.LBB1433:
 1305              		.loc 4 264 3 view .LVU337
 1306              		.syntax unified
 1307              	@ 264 "../../../os/common/ext/CMSIS/include/cmsis_gcc.h" 1
 1308 009e 85F31188 		MSR basepri, r5
 1309              	@ 0 "" 2
 1310              	.LVL63:
 1311              		.loc 4 264 3 is_stmt 0 view .LVU338
 1312              		.thumb
 1313              		.syntax unified
 1314              	.LBE1433:
 1315              	.LBE1432:
 1316              	.LBE1434:
 1317              	.LBE1435:
 1318              	.LBE1436:
 1319              	.LBE1438:
 1320              		.loc 1 268 5 is_stmt 1 view .LVU339
 1321              	.LBE1710:
 1322              	.LBE1791:
 1323              		.loc 1 304 1 is_stmt 0 view .LVU340
 1324 00a2 03B0     		add	sp, sp, #12
 1325              		.cfi_remember_state
 1326              		.cfi_def_cfa_offset 28
 1327              		@ sp needed
 1328 00a4 BDE8F083 		pop	{r4, r5, r6, r7, r8, r9, pc}
 1329              	.L23:
 1330              		.cfi_restore_state
 1331              	.LBB1792:
 1332              	.LBB1711:
 1333              		.loc 1 240 5 is_stmt 1 view .LVU341
 1334              	.LBB1439:
 1335              	.LBI1439:
 1336              		.loc 6 502 20 view .LVU342
 1337              	.LBE1439:
ARM GAS  /tmp/ccCget5K.s 			page 25


 1338              	.LBE1711:
 1339              	.LBE1792:
 1340              		.loc 6 504 3 view .LVU343
 1341              	.LBB1793:
 1342              	.LBB1712:
 1343              	.LBB1448:
 1344              	.LBB1440:
 1345              	.LBI1440:
 1346              		.loc 2 386 20 view .LVU344
 1347              	.LBB1441:
 1348              		.loc 2 388 22 view .LVU345
 1349              		.loc 2 389 33 view .LVU346
 1350              		.loc 2 395 3 view .LVU347
 1351              		.loc 2 395 3 view .LVU348
 1352              		.loc 2 395 3 view .LVU349
 1353              		.loc 2 399 3 view .LVU350
 1354              	.LBB1442:
 1355              	.LBI1442:
 1356              		.loc 3 618 20 view .LVU351
 1357              	.LBE1442:
 1358              	.LBE1441:
 1359              	.LBE1440:
 1360              	.LBE1448:
 1361              	.LBE1712:
 1362              	.LBE1793:
 1363              		.loc 3 621 3 view .LVU352
 1364              	.LVL64:
 1365              	.LBB1794:
 1366              	.LBB1713:
 1367              	.LBB1449:
 1368              	.LBB1447:
 1369              	.LBB1446:
 1370              	.LBB1445:
 1371              	.LBB1443:
 1372              	.LBI1443:
 1373              		.loc 4 262 57 view .LVU353
 1374              	.LBB1444:
 1375              		.loc 4 264 3 view .LVU354
 1376              		.syntax unified
 1377              	@ 264 "../../../os/common/ext/CMSIS/include/cmsis_gcc.h" 1
 1378 00a8 80F31188 		MSR basepri, r0
 1379              	@ 0 "" 2
 1380              	.LVL65:
 1381              		.loc 4 264 3 is_stmt 0 view .LVU355
 1382              		.thumb
 1383              		.syntax unified
 1384              	.LBE1444:
 1385              	.LBE1443:
 1386              	.LBE1445:
 1387              	.LBE1446:
 1388              	.LBE1447:
 1389              	.LBE1449:
 1390              		.loc 1 240 65 is_stmt 1 view .LVU356
 1391              		.loc 1 241 5 view .LVU357
 1392              	.LBB1450:
 1393              	.LBI1450:
 1394              		.loc 6 491 20 view .LVU358
ARM GAS  /tmp/ccCget5K.s 			page 26


 1395              	.LBE1450:
 1396              	.LBE1713:
 1397              	.LBE1794:
 1398              		.loc 6 493 3 view .LVU359
 1399              	.LBB1795:
 1400              	.LBB1714:
 1401              	.LBB1458:
 1402              	.LBB1451:
 1403              	.LBI1451:
 1404              		.loc 2 374 20 view .LVU360
 1405              	.LBE1451:
 1406              	.LBE1458:
 1407              	.LBE1714:
 1408              	.LBE1795:
 1409              		.loc 2 376 3 view .LVU361
 1410              	.LBB1796:
 1411              	.LBB1715:
 1412              	.LBB1459:
 1413              	.LBB1456:
 1414              	.LBB1452:
 1415              	.LBI1452:
 1416              		.loc 3 594 20 view .LVU362
 1417              	.LBE1452:
 1418              	.LBE1456:
 1419              	.LBE1459:
 1420              	.LBE1715:
 1421              	.LBE1796:
 1422              		.loc 3 602 3 view .LVU363
 1423              	.LBB1797:
 1424              	.LBB1716:
 1425              	.LBB1460:
 1426              	.LBB1457:
 1427              	.LBB1455:
 1428              	.LBB1453:
 1429              	.LBI1453:
 1430              		.loc 4 262 57 view .LVU364
 1431              	.LBB1454:
 1432              		.loc 4 264 3 view .LVU365
 1433              		.syntax unified
 1434              	@ 264 "../../../os/common/ext/CMSIS/include/cmsis_gcc.h" 1
 1435 00ac 86F31188 		MSR basepri, r6
 1436              	@ 0 "" 2
 1437              	.LVL66:
 1438              		.loc 4 264 3 is_stmt 0 view .LVU366
 1439              		.thumb
 1440              		.syntax unified
 1441              	.LBE1454:
 1442              	.LBE1453:
 1443              	.LBE1455:
 1444              	.LBE1457:
 1445              	.LBE1460:
 1446              	.LBE1716:
 1447              	.LBE1797:
 1448              		.loc 2 377 34 is_stmt 1 view .LVU367
 1449              		.loc 2 378 20 view .LVU368
 1450              	.LBB1798:
 1451              	.LBB1717:
ARM GAS  /tmp/ccCget5K.s 			page 27


 1452              		.loc 1 241 5 view .LVU369
 1453 00b0 2068     		ldr	r0, [r4]
 1454 00b2 A368     		ldr	r3, [r4, #8]
 1455 00b4 8449     		ldr	r1, .L43+20
 1456 00b6 C01A     		subs	r0, r0, r3
 1457 00b8 B0FA80F0 		clz	r0, r0
 1458 00bc 4009     		lsrs	r0, r0, #5
 1459 00be FFF7FEFF 		bl	_test_assert
 1460              	.LVL67:
 1461 00c2 8046     		mov	r8, r0
 1462 00c4 0028     		cmp	r0, #0
 1463 00c6 EAD1     		bne	.L41
 1464              		.loc 1 241 5 view .LVU370
 1465              	.LBB1461:
 1466              	.LBI1461:
 1467              		.loc 6 502 20 view .LVU371
 1468              	.LBE1461:
 1469              	.LBE1717:
 1470              	.LBE1798:
 1471              		.loc 6 504 3 view .LVU372
 1472              	.LBB1799:
 1473              	.LBB1718:
 1474              	.LBB1470:
 1475              	.LBB1462:
 1476              	.LBI1462:
 1477              		.loc 2 386 20 view .LVU373
 1478              	.LBB1463:
 1479              		.loc 2 388 22 view .LVU374
 1480              		.loc 2 389 33 view .LVU375
 1481              		.loc 2 395 3 view .LVU376
 1482              		.loc 2 395 3 view .LVU377
 1483              		.loc 2 395 3 view .LVU378
 1484              		.loc 2 399 3 view .LVU379
 1485              	.LBB1464:
 1486              	.LBI1464:
 1487              		.loc 3 618 20 view .LVU380
 1488              	.LBE1464:
 1489              	.LBE1463:
 1490              	.LBE1462:
 1491              	.LBE1470:
 1492              	.LBE1718:
 1493              	.LBE1799:
 1494              		.loc 3 621 3 view .LVU381
 1495              	.LVL68:
 1496              	.LBB1800:
 1497              	.LBB1719:
 1498              	.LBB1471:
 1499              	.LBB1469:
 1500              	.LBB1468:
 1501              	.LBB1467:
 1502              	.LBB1465:
 1503              	.LBI1465:
 1504              		.loc 4 262 57 view .LVU382
 1505              	.LBB1466:
 1506              		.loc 4 264 3 view .LVU383
 1507              		.syntax unified
 1508              	@ 264 "../../../os/common/ext/CMSIS/include/cmsis_gcc.h" 1
ARM GAS  /tmp/ccCget5K.s 			page 28


 1509 00c8 80F31188 		MSR basepri, r0
 1510              	@ 0 "" 2
 1511              	.LVL69:
 1512              		.loc 4 264 3 is_stmt 0 view .LVU384
 1513              		.thumb
 1514              		.syntax unified
 1515              	.LBE1466:
 1516              	.LBE1465:
 1517              	.LBE1467:
 1518              	.LBE1468:
 1519              	.LBE1469:
 1520              	.LBE1471:
 1521              		.loc 1 241 83 is_stmt 1 view .LVU385
 1522              		.loc 1 242 5 view .LVU386
 1523              	.LBB1472:
 1524              	.LBI1472:
 1525              		.loc 6 491 20 view .LVU387
 1526              	.LBE1472:
 1527              	.LBE1719:
 1528              	.LBE1800:
 1529              		.loc 6 493 3 view .LVU388
 1530              	.LBB1801:
 1531              	.LBB1720:
 1532              	.LBB1480:
 1533              	.LBB1473:
 1534              	.LBI1473:
 1535              		.loc 2 374 20 view .LVU389
 1536              	.LBE1473:
 1537              	.LBE1480:
 1538              	.LBE1720:
 1539              	.LBE1801:
 1540              		.loc 2 376 3 view .LVU390
 1541              	.LBB1802:
 1542              	.LBB1721:
 1543              	.LBB1481:
 1544              	.LBB1478:
 1545              	.LBB1474:
 1546              	.LBI1474:
 1547              		.loc 3 594 20 view .LVU391
 1548              	.LBE1474:
 1549              	.LBE1478:
 1550              	.LBE1481:
 1551              	.LBE1721:
 1552              	.LBE1802:
 1553              		.loc 3 602 3 view .LVU392
 1554              	.LBB1803:
 1555              	.LBB1722:
 1556              	.LBB1482:
 1557              	.LBB1479:
 1558              	.LBB1477:
 1559              	.LBB1475:
 1560              	.LBI1475:
 1561              		.loc 4 262 57 view .LVU393
 1562              	.LBB1476:
 1563              		.loc 4 264 3 view .LVU394
 1564              		.syntax unified
 1565              	@ 264 "../../../os/common/ext/CMSIS/include/cmsis_gcc.h" 1
ARM GAS  /tmp/ccCget5K.s 			page 29


 1566 00cc 86F31188 		MSR basepri, r6
 1567              	@ 0 "" 2
 1568              	.LVL70:
 1569              		.loc 4 264 3 is_stmt 0 view .LVU395
 1570              		.thumb
 1571              		.syntax unified
 1572              	.LBE1476:
 1573              	.LBE1475:
 1574              	.LBE1477:
 1575              	.LBE1479:
 1576              	.LBE1482:
 1577              	.LBE1722:
 1578              	.LBE1803:
 1579              		.loc 2 377 34 is_stmt 1 view .LVU396
 1580              		.loc 2 378 20 view .LVU397
 1581              	.LBB1804:
 1582              	.LBB1723:
 1583              		.loc 1 242 5 view .LVU398
 1584 00d0 2068     		ldr	r0, [r4]
 1585 00d2 E368     		ldr	r3, [r4, #12]
 1586 00d4 7D49     		ldr	r1, .L43+24
 1587 00d6 C01A     		subs	r0, r0, r3
 1588 00d8 B0FA80F0 		clz	r0, r0
 1589 00dc 4009     		lsrs	r0, r0, #5
 1590 00de FFF7FEFF 		bl	_test_assert
 1591              	.LVL71:
 1592 00e2 0028     		cmp	r0, #0
 1593 00e4 D6D1     		bne	.L42
 1594              		.loc 1 242 5 view .LVU399
 1595              	.LBB1483:
 1596              	.LBI1483:
 1597              		.loc 6 502 20 view .LVU400
 1598              	.LBE1483:
 1599              	.LBE1723:
 1600              	.LBE1804:
 1601              		.loc 6 504 3 view .LVU401
 1602              	.LBB1805:
 1603              	.LBB1724:
 1604              	.LBB1492:
 1605              	.LBB1484:
 1606              	.LBI1484:
 1607              		.loc 2 386 20 view .LVU402
 1608              	.LBB1485:
 1609              		.loc 2 388 22 view .LVU403
 1610              		.loc 2 389 33 view .LVU404
 1611              		.loc 2 395 3 view .LVU405
 1612              		.loc 2 395 3 view .LVU406
 1613              		.loc 2 395 3 view .LVU407
 1614              		.loc 2 399 3 view .LVU408
 1615              	.LBB1486:
 1616              	.LBI1486:
 1617              		.loc 3 618 20 view .LVU409
 1618              	.LBE1486:
 1619              	.LBE1485:
 1620              	.LBE1484:
 1621              	.LBE1492:
 1622              	.LBE1724:
ARM GAS  /tmp/ccCget5K.s 			page 30


 1623              	.LBE1805:
 1624              		.loc 3 621 3 view .LVU410
 1625              	.LVL72:
 1626              	.LBB1806:
 1627              	.LBB1725:
 1628              	.LBB1493:
 1629              	.LBB1491:
 1630              	.LBB1490:
 1631              	.LBB1489:
 1632              	.LBB1487:
 1633              	.LBI1487:
 1634              		.loc 4 262 57 view .LVU411
 1635              	.LBB1488:
 1636              		.loc 4 264 3 view .LVU412
 1637              		.syntax unified
 1638              	@ 264 "../../../os/common/ext/CMSIS/include/cmsis_gcc.h" 1
 1639 00e6 80F31188 		MSR basepri, r0
 1640              	@ 0 "" 2
 1641              	.LVL73:
 1642              		.loc 4 264 3 is_stmt 0 view .LVU413
 1643              		.thumb
 1644              		.syntax unified
 1645              	.LBE1488:
 1646              	.LBE1487:
 1647              	.LBE1489:
 1648              	.LBE1490:
 1649              	.LBE1491:
 1650              	.LBE1493:
 1651              		.loc 1 242 82 is_stmt 1 view .LVU414
 1652              		.loc 1 243 5 view .LVU415
 1653              	.LBB1494:
 1654              	.LBI1494:
 1655              		.loc 5 201 20 view .LVU416
 1656              	.LBB1495:
 1657              		.loc 5 203 3 view .LVU417
 1658              	.LBE1495:
 1659              	.LBE1494:
 1660              		.loc 1 248 3 is_stmt 0 view .LVU418
 1661 00ea 0323     		movs	r3, #3
 1662              		.loc 1 254 7 view .LVU419
 1663 00ec DFF8E091 		ldr	r9, .L43+28
 1664              	.LBB1497:
 1665              	.LBB1496:
 1666              		.loc 5 203 14 view .LVU420
 1667 00f0 2075     		strb	r0, [r4, #20]
 1668              	.LVL74:
 1669              		.loc 5 203 14 view .LVU421
 1670              	.LBE1496:
 1671              	.LBE1497:
 1672              		.loc 1 248 3 is_stmt 1 view .LVU422
 1673 00f2 3B60     		str	r3, [r7]
 1674              		.loc 1 250 5 view .LVU423
 1675              	.LVL75:
 1676              		.loc 1 250 17 view .LVU424
 1677              		.loc 1 248 3 is_stmt 0 view .LVU425
 1678 00f4 4FF04208 		mov	r8, #66
 1679              	.LVL76:
ARM GAS  /tmp/ccCget5K.s 			page 31


 1680              	.L27:
 1681              		.loc 1 251 7 is_stmt 1 view .LVU426
 1682              	.LBB1498:
 1683              	.LBI1498:
 1684              		.loc 2 374 20 view .LVU427
 1685              	.LBE1498:
 1686              	.LBE1725:
 1687              	.LBE1806:
 1688              		.loc 2 376 3 view .LVU428
 1689              	.LBB1807:
 1690              	.LBB1726:
 1691              	.LBB1503:
 1692              	.LBB1499:
 1693              	.LBI1499:
 1694              		.loc 3 594 20 view .LVU429
 1695              	.LBE1499:
 1696              	.LBE1503:
 1697              	.LBE1726:
 1698              	.LBE1807:
 1699              		.loc 3 602 3 view .LVU430
 1700              	.LBB1808:
 1701              	.LBB1727:
 1702              	.LBB1504:
 1703              	.LBB1502:
 1704              	.LBB1500:
 1705              	.LBI1500:
 1706              		.loc 4 262 57 view .LVU431
 1707              	.LBB1501:
 1708              		.loc 4 264 3 view .LVU432
 1709              		.syntax unified
 1710              	@ 264 "../../../os/common/ext/CMSIS/include/cmsis_gcc.h" 1
 1711 00f8 86F31188 		MSR basepri, r6
 1712              	@ 0 "" 2
 1713              	.LVL77:
 1714              		.loc 4 264 3 is_stmt 0 view .LVU433
 1715              		.thumb
 1716              		.syntax unified
 1717              	.LBE1501:
 1718              	.LBE1500:
 1719              	.LBE1502:
 1720              	.LBE1504:
 1721              	.LBE1727:
 1722              	.LBE1808:
 1723              		.loc 2 377 34 is_stmt 1 view .LVU434
 1724              		.loc 2 378 20 view .LVU435
 1725              	.LBB1809:
 1726              	.LBB1728:
 1727              		.loc 1 252 7 view .LVU436
 1728              		.loc 1 252 14 is_stmt 0 view .LVU437
 1729 00fc 4146     		mov	r1, r8
 1730 00fe 2046     		mov	r0, r4
 1731 0100 FFF7FEFF 		bl	chMBPostI
 1732              	.LVL78:
 1733              		.loc 1 253 7 is_stmt 1 view .LVU438
 1734              	.LBB1505:
 1735              	.LBI1505:
 1736              		.loc 2 386 20 view .LVU439
ARM GAS  /tmp/ccCget5K.s 			page 32


 1737              	.LBB1506:
 1738              		.loc 2 388 22 view .LVU440
 1739              		.loc 2 389 33 view .LVU441
 1740              		.loc 2 395 3 view .LVU442
 1741              		.loc 2 395 3 view .LVU443
 1742              		.loc 2 395 3 view .LVU444
 1743              		.loc 2 399 3 view .LVU445
 1744              	.LBB1507:
 1745              	.LBI1507:
 1746              		.loc 3 618 20 view .LVU446
 1747              	.LBE1507:
 1748              	.LBE1506:
 1749              	.LBE1505:
 1750              	.LBE1728:
 1751              	.LBE1809:
 1752              		.loc 3 621 3 view .LVU447
 1753              	.LBB1810:
 1754              	.LBB1729:
 1755              	.LBB1512:
 1756              	.LBB1511:
 1757              	.LBB1510:
 1758              	.LBB1508:
 1759              	.LBI1508:
 1760              		.loc 4 262 57 view .LVU448
 1761              	.LBB1509:
 1762              		.loc 4 264 3 view .LVU449
 1763 0104 0023     		movs	r3, #0
 1764              		.syntax unified
 1765              	@ 264 "../../../os/common/ext/CMSIS/include/cmsis_gcc.h" 1
 1766 0106 83F31188 		MSR basepri, r3
 1767              	@ 0 "" 2
 1768              	.LVL79:
 1769              		.loc 4 264 3 is_stmt 0 view .LVU450
 1770              		.thumb
 1771              		.syntax unified
 1772              	.LBE1509:
 1773              	.LBE1508:
 1774              	.LBE1510:
 1775              	.LBE1511:
 1776              	.LBE1512:
 1777              		.loc 1 254 7 is_stmt 1 view .LVU451
 1778 010a B0FA80F0 		clz	r0, r0
 1779              	.LVL80:
 1780              		.loc 1 254 7 is_stmt 0 view .LVU452
 1781 010e 4009     		lsrs	r0, r0, #5
 1782 0110 4946     		mov	r1, r9
 1783 0112 FFF7FEFF 		bl	_test_assert
 1784              	.LVL81:
 1785              		.loc 1 254 59 is_stmt 1 view .LVU453
 1786              		.loc 1 250 34 view .LVU454
 1787              		.loc 1 250 17 view .LVU455
 1788              		.loc 1 250 5 is_stmt 0 view .LVU456
 1789 0116 08F10108 		add	r8, r8, #1
 1790              		.loc 1 254 7 view .LVU457
 1791 011a 0546     		mov	r5, r0
 1792 011c 0028     		cmp	r0, #0
 1793 011e 8BD1     		bne	.L18
ARM GAS  /tmp/ccCget5K.s 			page 33


 1794              		.loc 1 250 5 view .LVU458
 1795 0120 B8F1450F 		cmp	r8, #69
 1796 0124 E8D1     		bne	.L27
 1797              		.loc 1 256 5 is_stmt 1 view .LVU459
 1798              	.LBB1513:
 1799              	.LBI1513:
 1800              		.loc 2 374 20 view .LVU460
 1801              	.LBE1513:
 1802              	.LBE1729:
 1803              	.LBE1810:
 1804              		.loc 2 376 3 view .LVU461
 1805              	.LBB1811:
 1806              	.LBB1730:
 1807              	.LBB1518:
 1808              	.LBB1514:
 1809              	.LBI1514:
 1810              		.loc 3 594 20 view .LVU462
 1811              	.LBE1514:
 1812              	.LBE1518:
 1813              	.LBE1730:
 1814              	.LBE1811:
 1815              		.loc 3 602 3 view .LVU463
 1816              	.LVL82:
 1817              	.LBB1812:
 1818              	.LBB1731:
 1819              	.LBB1519:
 1820              	.LBB1517:
 1821              	.LBB1515:
 1822              	.LBI1515:
 1823              		.loc 4 262 57 view .LVU464
 1824              	.LBB1516:
 1825              		.loc 4 264 3 view .LVU465
 1826              		.syntax unified
 1827              	@ 264 "../../../os/common/ext/CMSIS/include/cmsis_gcc.h" 1
 1828 0126 86F31188 		MSR basepri, r6
 1829              	@ 0 "" 2
 1830              	.LVL83:
 1831              		.loc 4 264 3 is_stmt 0 view .LVU466
 1832              		.thumb
 1833              		.syntax unified
 1834              	.LBE1516:
 1835              	.LBE1515:
 1836              	.LBE1517:
 1837              	.LBE1519:
 1838              	.LBE1731:
 1839              	.LBE1812:
 1840              		.loc 2 377 34 is_stmt 1 view .LVU467
 1841              		.loc 2 378 20 view .LVU468
 1842              	.LBB1813:
 1843              	.LBB1732:
 1844              		.loc 1 257 5 view .LVU469
 1845              		.loc 1 257 12 is_stmt 0 view .LVU470
 1846 012a 4121     		movs	r1, #65
 1847 012c 6248     		ldr	r0, .L43+4
 1848 012e FFF7FEFF 		bl	chMBPostAheadI
 1849              	.LVL84:
 1850              		.loc 1 258 5 is_stmt 1 view .LVU471
ARM GAS  /tmp/ccCget5K.s 			page 34


 1851              	.LBB1520:
 1852              	.LBI1520:
 1853              		.loc 2 386 20 view .LVU472
 1854              	.LBB1521:
 1855              		.loc 2 388 22 view .LVU473
 1856              		.loc 2 389 33 view .LVU474
 1857              		.loc 2 395 3 view .LVU475
 1858              		.loc 2 395 3 view .LVU476
 1859              		.loc 2 395 3 view .LVU477
 1860              		.loc 2 399 3 view .LVU478
 1861              	.LBB1522:
 1862              	.LBI1522:
 1863              		.loc 3 618 20 view .LVU479
 1864              	.LBE1522:
 1865              	.LBE1521:
 1866              	.LBE1520:
 1867              	.LBE1732:
 1868              	.LBE1813:
 1869              		.loc 3 621 3 view .LVU480
 1870              	.LBB1814:
 1871              	.LBB1733:
 1872              	.LBB1527:
 1873              	.LBB1526:
 1874              	.LBB1525:
 1875              	.LBB1523:
 1876              	.LBI1523:
 1877              		.loc 4 262 57 view .LVU481
 1878              	.LBB1524:
 1879              		.loc 4 264 3 view .LVU482
 1880              		.syntax unified
 1881              	@ 264 "../../../os/common/ext/CMSIS/include/cmsis_gcc.h" 1
 1882 0132 85F31188 		MSR basepri, r5
 1883              	@ 0 "" 2
 1884              	.LVL85:
 1885              		.loc 4 264 3 is_stmt 0 view .LVU483
 1886              		.thumb
 1887              		.syntax unified
 1888              	.LBE1524:
 1889              	.LBE1523:
 1890              	.LBE1525:
 1891              	.LBE1526:
 1892              	.LBE1527:
 1893              		.loc 1 259 5 is_stmt 1 view .LVU484
 1894 0136 B0FA80F0 		clz	r0, r0
 1895              	.LVL86:
 1896              		.loc 1 259 5 is_stmt 0 view .LVU485
 1897 013a 6549     		ldr	r1, .L43+28
 1898 013c 4009     		lsrs	r0, r0, #5
 1899 013e FFF7FEFF 		bl	_test_assert
 1900              	.LVL87:
 1901 0142 0546     		mov	r5, r0
 1902 0144 0028     		cmp	r0, #0
 1903 0146 7FF477AF 		bne	.L18
 1904              		.loc 1 259 57 is_stmt 1 view .LVU486
 1905              		.loc 1 264 3 view .LVU487
 1906 014a 4FF00409 		mov	r9, #4
 1907 014e C7F80090 		str	r9, [r7]
ARM GAS  /tmp/ccCget5K.s 			page 35


 1908              		.loc 1 266 5 view .LVU488
 1909              	.LBB1528:
 1910              	.LBI1528:
 1911              		.loc 6 491 20 view .LVU489
 1912              	.LBE1528:
 1913              	.LBE1733:
 1914              	.LBE1814:
 1915              		.loc 6 493 3 view .LVU490
 1916              	.LBB1815:
 1917              	.LBB1734:
 1918              	.LBB1536:
 1919              	.LBB1529:
 1920              	.LBI1529:
 1921              		.loc 2 374 20 view .LVU491
 1922              	.LBE1529:
 1923              	.LBE1536:
 1924              	.LBE1734:
 1925              	.LBE1815:
 1926              		.loc 2 376 3 view .LVU492
 1927              	.LBB1816:
 1928              	.LBB1735:
 1929              	.LBB1537:
 1930              	.LBB1534:
 1931              	.LBB1530:
 1932              	.LBI1530:
 1933              		.loc 3 594 20 view .LVU493
 1934              	.LBE1530:
 1935              	.LBE1534:
 1936              	.LBE1537:
 1937              	.LBE1735:
 1938              	.LBE1816:
 1939              		.loc 3 602 3 view .LVU494
 1940              	.LVL88:
 1941              	.LBB1817:
 1942              	.LBB1736:
 1943              	.LBB1538:
 1944              	.LBB1535:
 1945              	.LBB1533:
 1946              	.LBB1531:
 1947              	.LBI1531:
 1948              		.loc 4 262 57 view .LVU495
 1949              	.LBB1532:
 1950              		.loc 4 264 3 view .LVU496
 1951              		.syntax unified
 1952              	@ 264 "../../../os/common/ext/CMSIS/include/cmsis_gcc.h" 1
 1953 0152 86F31188 		MSR basepri, r6
 1954              	@ 0 "" 2
 1955              	.LVL89:
 1956              		.loc 4 264 3 is_stmt 0 view .LVU497
 1957              		.thumb
 1958              		.syntax unified
 1959              	.LBE1532:
 1960              	.LBE1531:
 1961              	.LBE1533:
 1962              	.LBE1535:
 1963              	.LBE1538:
 1964              	.LBE1736:
ARM GAS  /tmp/ccCget5K.s 			page 36


 1965              	.LBE1817:
 1966              		.loc 2 377 34 is_stmt 1 view .LVU498
 1967              		.loc 2 378 20 view .LVU499
 1968              	.LBB1818:
 1969              	.LBB1737:
 1970              		.loc 1 266 5 view .LVU500
 1971              	.LBB1539:
 1972              	.LBI1539:
 1973              		.loc 5 168 21 view .LVU501
 1974              	.LBE1539:
 1975              	.LBE1737:
 1976              	.LBE1818:
 1977              		.loc 5 170 21 view .LVU502
 1978              		.loc 5 172 3 view .LVU503
 1979              	.LBB1819:
 1980              	.LBB1738:
 1981              	.LBB1546:
 1982              	.LBB1540:
 1983              	.LBI1540:
 1984              		.loc 5 136 21 view .LVU504
 1985              	.LBB1541:
 1986              		.loc 5 140 3 view .LVU505
 1987              		.loc 5 140 3 is_stmt 0 view .LVU506
 1988              	.LBE1541:
 1989              	.LBE1540:
 1990              	.LBB1543:
 1991              	.LBI1543:
 1992              		.loc 5 153 21 is_stmt 1 view .LVU507
 1993              	.LBB1544:
 1994              		.loc 5 155 21 view .LVU508
 1995              		.loc 5 157 3 view .LVU509
 1996              		.loc 5 157 3 is_stmt 0 view .LVU510
 1997              	.LBE1544:
 1998              	.LBE1543:
 1999              	.LBB1545:
 2000              	.LBB1542:
 2001              		.loc 5 140 27 view .LVU511
 2002 0156 D4E90023 		ldrd	r2, r3, [r4]
 2003 015a 9B1A     		subs	r3, r3, r2
 2004              	.LBE1542:
 2005              	.LBE1545:
 2006              	.LBE1546:
 2007              		.loc 1 266 5 view .LVU512
 2008 015c 2269     		ldr	r2, [r4, #16]
 2009 015e 5D49     		ldr	r1, .L43+32
 2010 0160 B2EBA30F 		cmp	r2, r3, asr #2
 2011 0164 0CBF     		ite	eq
 2012 0166 0120     		moveq	r0, #1
 2013 0168 0020     		movne	r0, #0
 2014 016a FFF7FEFF 		bl	_test_assert
 2015              	.LVL90:
 2016 016e 8046     		mov	r8, r0
 2017 0170 0028     		cmp	r0, #0
 2018 0172 94D1     		bne	.L41
 2019              		.loc 1 266 5 is_stmt 1 view .LVU513
 2020              	.LBB1547:
 2021              	.LBI1547:
ARM GAS  /tmp/ccCget5K.s 			page 37


 2022              		.loc 6 502 20 view .LVU514
 2023              	.LBE1547:
 2024              	.LBE1738:
 2025              	.LBE1819:
 2026              		.loc 6 504 3 view .LVU515
 2027              	.LBB1820:
 2028              	.LBB1739:
 2029              	.LBB1556:
 2030              	.LBB1548:
 2031              	.LBI1548:
 2032              		.loc 2 386 20 view .LVU516
 2033              	.LBB1549:
 2034              		.loc 2 388 22 view .LVU517
 2035              		.loc 2 389 33 view .LVU518
 2036              		.loc 2 395 3 view .LVU519
 2037              		.loc 2 395 3 view .LVU520
 2038              		.loc 2 395 3 view .LVU521
 2039              		.loc 2 399 3 view .LVU522
 2040              	.LBB1550:
 2041              	.LBI1550:
 2042              		.loc 3 618 20 view .LVU523
 2043              	.LBE1550:
 2044              	.LBE1549:
 2045              	.LBE1548:
 2046              	.LBE1556:
 2047              	.LBE1739:
 2048              	.LBE1820:
 2049              		.loc 3 621 3 view .LVU524
 2050              	.LVL91:
 2051              	.LBB1821:
 2052              	.LBB1740:
 2053              	.LBB1557:
 2054              	.LBB1555:
 2055              	.LBB1554:
 2056              	.LBB1553:
 2057              	.LBB1551:
 2058              	.LBI1551:
 2059              		.loc 4 262 57 view .LVU525
 2060              	.LBB1552:
 2061              		.loc 4 264 3 view .LVU526
 2062              		.syntax unified
 2063              	@ 264 "../../../os/common/ext/CMSIS/include/cmsis_gcc.h" 1
 2064 0174 80F31188 		MSR basepri, r0
 2065              	@ 0 "" 2
 2066              	.LVL92:
 2067              		.loc 4 264 3 is_stmt 0 view .LVU527
 2068              		.thumb
 2069              		.syntax unified
 2070              	.LBE1552:
 2071              	.LBE1551:
 2072              	.LBE1553:
 2073              	.LBE1554:
 2074              	.LBE1555:
 2075              	.LBE1557:
 2076              		.loc 1 266 66 is_stmt 1 view .LVU528
 2077              		.loc 1 267 5 view .LVU529
 2078              	.LBB1558:
ARM GAS  /tmp/ccCget5K.s 			page 38


 2079              	.LBI1558:
 2080              		.loc 6 491 20 view .LVU530
 2081              	.LBE1558:
 2082              	.LBE1740:
 2083              	.LBE1821:
 2084              		.loc 6 493 3 view .LVU531
 2085              	.LBB1822:
 2086              	.LBB1741:
 2087              	.LBB1566:
 2088              	.LBB1559:
 2089              	.LBI1559:
 2090              		.loc 2 374 20 view .LVU532
 2091              	.LBE1559:
 2092              	.LBE1566:
 2093              	.LBE1741:
 2094              	.LBE1822:
 2095              		.loc 2 376 3 view .LVU533
 2096              	.LBB1823:
 2097              	.LBB1742:
 2098              	.LBB1567:
 2099              	.LBB1564:
 2100              	.LBB1560:
 2101              	.LBI1560:
 2102              		.loc 3 594 20 view .LVU534
 2103              	.LBE1560:
 2104              	.LBE1564:
 2105              	.LBE1567:
 2106              	.LBE1742:
 2107              	.LBE1823:
 2108              		.loc 3 602 3 view .LVU535
 2109              	.LBB1824:
 2110              	.LBB1743:
 2111              	.LBB1568:
 2112              	.LBB1565:
 2113              	.LBB1563:
 2114              	.LBB1561:
 2115              	.LBI1561:
 2116              		.loc 4 262 57 view .LVU536
 2117              	.LBB1562:
 2118              		.loc 4 264 3 view .LVU537
 2119              		.syntax unified
 2120              	@ 264 "../../../os/common/ext/CMSIS/include/cmsis_gcc.h" 1
 2121 0178 86F31188 		MSR basepri, r6
 2122              	@ 0 "" 2
 2123              	.LVL93:
 2124              		.loc 4 264 3 is_stmt 0 view .LVU538
 2125              		.thumb
 2126              		.syntax unified
 2127              	.LBE1562:
 2128              	.LBE1561:
 2129              	.LBE1563:
 2130              	.LBE1565:
 2131              	.LBE1568:
 2132              	.LBE1743:
 2133              	.LBE1824:
 2134              		.loc 2 377 34 is_stmt 1 view .LVU539
 2135              		.loc 2 378 20 view .LVU540
ARM GAS  /tmp/ccCget5K.s 			page 39


 2136              	.LBB1825:
 2137              	.LBB1744:
 2138              		.loc 1 267 5 view .LVU541
 2139              	.LBB1569:
 2140              	.LBI1569:
 2141              		.loc 5 153 21 view .LVU542
 2142              	.LBB1570:
 2143              		.loc 5 155 21 view .LVU543
 2144              		.loc 5 157 3 view .LVU544
 2145              		.loc 5 157 3 is_stmt 0 view .LVU545
 2146              	.LBE1570:
 2147              	.LBE1569:
 2148              		.loc 1 267 5 view .LVU546
 2149 017c 2069     		ldr	r0, [r4, #16]
 2150 017e 5649     		ldr	r1, .L43+36
 2151 0180 A0F10400 		sub	r0, #4
 2152 0184 B0FA80F0 		clz	r0, r0
 2153 0188 4009     		lsrs	r0, r0, #5
 2154 018a FFF7FEFF 		bl	_test_assert
 2155              	.LVL94:
 2156 018e 0546     		mov	r5, r0
 2157 0190 0028     		cmp	r0, #0
 2158 0192 7FF47FAF 		bne	.L42
 2159              		.loc 1 267 5 is_stmt 1 view .LVU547
 2160              	.LBB1571:
 2161              	.LBI1571:
 2162              		.loc 6 502 20 view .LVU548
 2163              	.LBE1571:
 2164              	.LBE1744:
 2165              	.LBE1825:
 2166              		.loc 6 504 3 view .LVU549
 2167              	.LBB1826:
 2168              	.LBB1745:
 2169              	.LBB1580:
 2170              	.LBB1572:
 2171              	.LBI1572:
 2172              		.loc 2 386 20 view .LVU550
 2173              	.LBB1573:
 2174              		.loc 2 388 22 view .LVU551
 2175              		.loc 2 389 33 view .LVU552
 2176              		.loc 2 395 3 view .LVU553
 2177              		.loc 2 395 3 view .LVU554
 2178              		.loc 2 395 3 view .LVU555
 2179              		.loc 2 399 3 view .LVU556
 2180              	.LBB1574:
 2181              	.LBI1574:
 2182              		.loc 3 618 20 view .LVU557
 2183              	.LBE1574:
 2184              	.LBE1573:
 2185              	.LBE1572:
 2186              	.LBE1580:
 2187              	.LBE1745:
 2188              	.LBE1826:
 2189              		.loc 3 621 3 view .LVU558
 2190              	.LVL95:
 2191              	.LBB1827:
 2192              	.LBB1746:
ARM GAS  /tmp/ccCget5K.s 			page 40


 2193              	.LBB1581:
 2194              	.LBB1579:
 2195              	.LBB1578:
 2196              	.LBB1577:
 2197              	.LBB1575:
 2198              	.LBI1575:
 2199              		.loc 4 262 57 view .LVU559
 2200              	.LBB1576:
 2201              		.loc 4 264 3 view .LVU560
 2202              		.syntax unified
 2203              	@ 264 "../../../os/common/ext/CMSIS/include/cmsis_gcc.h" 1
 2204 0196 80F31188 		MSR basepri, r0
 2205              	@ 0 "" 2
 2206              	.LVL96:
 2207              		.loc 4 264 3 is_stmt 0 view .LVU561
 2208              		.thumb
 2209              		.syntax unified
 2210              	.LBE1576:
 2211              	.LBE1575:
 2212              	.LBE1577:
 2213              	.LBE1578:
 2214              	.LBE1579:
 2215              	.LBE1581:
 2216              		.loc 1 267 69 is_stmt 1 view .LVU562
 2217              		.loc 1 268 5 view .LVU563
 2218              	.LBB1582:
 2219              	.LBI1582:
 2220              		.loc 6 491 20 view .LVU564
 2221              	.LBE1582:
 2222              	.LBE1746:
 2223              	.LBE1827:
 2224              		.loc 6 493 3 view .LVU565
 2225              	.LBB1828:
 2226              	.LBB1747:
 2227              	.LBB1590:
 2228              	.LBB1583:
 2229              	.LBI1583:
 2230              		.loc 2 374 20 view .LVU566
 2231              	.LBE1583:
 2232              	.LBE1590:
 2233              	.LBE1747:
 2234              	.LBE1828:
 2235              		.loc 2 376 3 view .LVU567
 2236              	.LBB1829:
 2237              	.LBB1748:
 2238              	.LBB1591:
 2239              	.LBB1588:
 2240              	.LBB1584:
 2241              	.LBI1584:
 2242              		.loc 3 594 20 view .LVU568
 2243              	.LBE1584:
 2244              	.LBE1588:
 2245              	.LBE1591:
 2246              	.LBE1748:
 2247              	.LBE1829:
 2248              		.loc 3 602 3 view .LVU569
 2249              	.LBB1830:
ARM GAS  /tmp/ccCget5K.s 			page 41


 2250              	.LBB1749:
 2251              	.LBB1592:
 2252              	.LBB1589:
 2253              	.LBB1587:
 2254              	.LBB1585:
 2255              	.LBI1585:
 2256              		.loc 4 262 57 view .LVU570
 2257              	.LBB1586:
 2258              		.loc 4 264 3 view .LVU571
 2259              		.syntax unified
 2260              	@ 264 "../../../os/common/ext/CMSIS/include/cmsis_gcc.h" 1
 2261 019a 86F31188 		MSR basepri, r6
 2262              	@ 0 "" 2
 2263              	.LVL97:
 2264              		.loc 4 264 3 is_stmt 0 view .LVU572
 2265              		.thumb
 2266              		.syntax unified
 2267              	.LBE1586:
 2268              	.LBE1585:
 2269              	.LBE1587:
 2270              	.LBE1589:
 2271              	.LBE1592:
 2272              	.LBE1749:
 2273              	.LBE1830:
 2274              		.loc 2 377 34 is_stmt 1 view .LVU573
 2275              		.loc 2 378 20 view .LVU574
 2276              	.LBB1831:
 2277              	.LBB1750:
 2278              		.loc 1 268 5 view .LVU575
 2279 019e D4E90230 		ldrd	r3, r0, [r4, #8]
 2280 01a2 C01A     		subs	r0, r0, r3
 2281 01a4 B0FA80F0 		clz	r0, r0
 2282 01a8 4C49     		ldr	r1, .L43+40
 2283 01aa 4009     		lsrs	r0, r0, #5
 2284 01ac FFF7FEFF 		bl	_test_assert
 2285              	.LVL98:
 2286 01b0 0028     		cmp	r0, #0
 2287 01b2 7FF474AF 		bne	.L41
 2288              		.loc 1 268 5 view .LVU576
 2289              	.LBB1593:
 2290              	.LBI1593:
 2291              		.loc 6 502 20 view .LVU577
 2292              	.LBE1593:
 2293              	.LBE1750:
 2294              	.LBE1831:
 2295              		.loc 6 504 3 view .LVU578
 2296              	.LBB1832:
 2297              	.LBB1751:
 2298              	.LBB1602:
 2299              	.LBB1594:
 2300              	.LBI1594:
 2301              		.loc 2 386 20 view .LVU579
 2302              	.LBB1595:
 2303              		.loc 2 388 22 view .LVU580
 2304              		.loc 2 389 33 view .LVU581
 2305              		.loc 2 395 3 view .LVU582
 2306              		.loc 2 395 3 view .LVU583
ARM GAS  /tmp/ccCget5K.s 			page 42


 2307              		.loc 2 395 3 view .LVU584
 2308              		.loc 2 399 3 view .LVU585
 2309              	.LBB1596:
 2310              	.LBI1596:
 2311              		.loc 3 618 20 view .LVU586
 2312              	.LBE1596:
 2313              	.LBE1595:
 2314              	.LBE1594:
 2315              	.LBE1602:
 2316              	.LBE1751:
 2317              	.LBE1832:
 2318              		.loc 3 621 3 view .LVU587
 2319              	.LVL99:
 2320              	.LBB1833:
 2321              	.LBB1752:
 2322              	.LBB1603:
 2323              	.LBB1601:
 2324              	.LBB1600:
 2325              	.LBB1599:
 2326              	.LBB1597:
 2327              	.LBI1597:
 2328              		.loc 4 262 57 view .LVU588
 2329              	.LBB1598:
 2330              		.loc 4 264 3 view .LVU589
 2331              		.syntax unified
 2332              	@ 264 "../../../os/common/ext/CMSIS/include/cmsis_gcc.h" 1
 2333 01b6 80F31188 		MSR basepri, r0
 2334              	@ 0 "" 2
 2335              	.LVL100:
 2336              		.loc 4 264 3 is_stmt 0 view .LVU590
 2337              		.thumb
 2338              		.syntax unified
 2339              	.LBE1598:
 2340              	.LBE1597:
 2341              	.LBE1599:
 2342              	.LBE1600:
 2343              	.LBE1601:
 2344              	.LBE1603:
 2345              		.loc 1 268 69 is_stmt 1 view .LVU591
 2346              		.loc 1 273 3 view .LVU592
 2347 01ba 0523     		movs	r3, #5
 2348              		.loc 1 277 14 is_stmt 0 view .LVU593
 2349 01bc DFF8F880 		ldr	r8, .L43+4
 2350              		.loc 1 279 7 view .LVU594
 2351 01c0 434E     		ldr	r6, .L43+28
 2352              		.loc 1 273 3 view .LVU595
 2353 01c2 3B60     		str	r3, [r7]
 2354              		.loc 1 275 5 is_stmt 1 view .LVU596
 2355              	.LVL101:
 2356              		.loc 1 275 17 view .LVU597
 2357              	.LBB1604:
 2358              	.LBB1605:
 2359              	.LBB1606:
 2360              	.LBB1607:
 2361              		.loc 4 264 3 is_stmt 0 view .LVU598
 2362 01c4 2025     		movs	r5, #32
 2363              	.LVL102:
ARM GAS  /tmp/ccCget5K.s 			page 43


 2364              	.L32:
 2365              		.loc 4 264 3 view .LVU599
 2366              	.LBE1607:
 2367              	.LBE1606:
 2368              	.LBE1605:
 2369              	.LBE1604:
 2370              		.loc 1 276 7 is_stmt 1 view .LVU600
 2371              	.LBB1612:
 2372              	.LBI1604:
 2373              		.loc 2 374 20 view .LVU601
 2374              	.LBE1612:
 2375              	.LBE1752:
 2376              	.LBE1833:
 2377              		.loc 2 376 3 view .LVU602
 2378              	.LBB1834:
 2379              	.LBB1753:
 2380              	.LBB1613:
 2381              	.LBB1610:
 2382              	.LBI1605:
 2383              		.loc 3 594 20 view .LVU603
 2384              	.LBE1610:
 2385              	.LBE1613:
 2386              	.LBE1753:
 2387              	.LBE1834:
 2388              		.loc 3 602 3 view .LVU604
 2389              	.LBB1835:
 2390              	.LBB1754:
 2391              	.LBB1614:
 2392              	.LBB1611:
 2393              	.LBB1609:
 2394              	.LBI1606:
 2395              		.loc 4 262 57 view .LVU605
 2396              	.LBB1608:
 2397              		.loc 4 264 3 view .LVU606
 2398              		.syntax unified
 2399              	@ 264 "../../../os/common/ext/CMSIS/include/cmsis_gcc.h" 1
 2400 01c6 85F31188 		MSR basepri, r5
 2401              	@ 0 "" 2
 2402              	.LVL103:
 2403              		.loc 4 264 3 is_stmt 0 view .LVU607
 2404              		.thumb
 2405              		.syntax unified
 2406              	.LBE1608:
 2407              	.LBE1609:
 2408              	.LBE1611:
 2409              	.LBE1614:
 2410              	.LBE1754:
 2411              	.LBE1835:
 2412              		.loc 2 377 34 is_stmt 1 view .LVU608
 2413              		.loc 2 378 20 view .LVU609
 2414              	.LBB1836:
 2415              	.LBB1755:
 2416              		.loc 1 277 7 view .LVU610
 2417              		.loc 1 277 14 is_stmt 0 view .LVU611
 2418 01ca 01A9     		add	r1, sp, #4
 2419 01cc 4046     		mov	r0, r8
 2420 01ce FFF7FEFF 		bl	chMBFetchI
ARM GAS  /tmp/ccCget5K.s 			page 44


 2421              	.LVL104:
 2422              		.loc 1 278 7 is_stmt 1 view .LVU612
 2423              	.LBB1615:
 2424              	.LBI1615:
 2425              		.loc 2 386 20 view .LVU613
 2426              	.LBB1616:
 2427              		.loc 2 388 22 view .LVU614
 2428              		.loc 2 389 33 view .LVU615
 2429              		.loc 2 395 3 view .LVU616
 2430              		.loc 2 395 3 view .LVU617
 2431              		.loc 2 395 3 view .LVU618
 2432              		.loc 2 399 3 view .LVU619
 2433              	.LBB1617:
 2434              	.LBI1617:
 2435              		.loc 3 618 20 view .LVU620
 2436              	.LBE1617:
 2437              	.LBE1616:
 2438              	.LBE1615:
 2439              	.LBE1755:
 2440              	.LBE1836:
 2441              		.loc 3 621 3 view .LVU621
 2442              	.LBB1837:
 2443              	.LBB1756:
 2444              	.LBB1622:
 2445              	.LBB1621:
 2446              	.LBB1620:
 2447              	.LBB1618:
 2448              	.LBI1618:
 2449              		.loc 4 262 57 view .LVU622
 2450              	.LBB1619:
 2451              		.loc 4 264 3 view .LVU623
 2452 01d2 0023     		movs	r3, #0
 2453              		.syntax unified
 2454              	@ 264 "../../../os/common/ext/CMSIS/include/cmsis_gcc.h" 1
 2455 01d4 83F31188 		MSR basepri, r3
 2456              	@ 0 "" 2
 2457              	.LVL105:
 2458              		.loc 4 264 3 is_stmt 0 view .LVU624
 2459              		.thumb
 2460              		.syntax unified
 2461              	.LBE1619:
 2462              	.LBE1618:
 2463              	.LBE1620:
 2464              	.LBE1621:
 2465              	.LBE1622:
 2466              		.loc 1 279 7 is_stmt 1 view .LVU625
 2467 01d8 B0FA80F0 		clz	r0, r0
 2468              	.LVL106:
 2469              		.loc 1 279 7 is_stmt 0 view .LVU626
 2470 01dc 4009     		lsrs	r0, r0, #5
 2471 01de 3146     		mov	r1, r6
 2472 01e0 FFF7FEFF 		bl	_test_assert
 2473              	.LVL107:
 2474              		.loc 1 279 59 is_stmt 1 view .LVU627
 2475              		.loc 1 280 7 view .LVU628
 2476              		.loc 1 279 7 is_stmt 0 view .LVU629
 2477 01e4 0028     		cmp	r0, #0
ARM GAS  /tmp/ccCget5K.s 			page 45


 2478 01e6 7FF427AF 		bne	.L18
 2479              		.loc 1 280 7 view .LVU630
 2480 01ea 9DF80400 		ldrb	r0, [sp, #4]	@ zero_extendqisi2
 2481 01ee FFF7FEFF 		bl	test_emit_token
 2482              	.LVL108:
 2483              		.loc 1 275 30 is_stmt 1 view .LVU631
 2484              		.loc 1 275 17 view .LVU632
 2485              		.loc 1 275 5 is_stmt 0 view .LVU633
 2486 01f2 B9F10109 		subs	r9, r9, #1
 2487              	.LVL109:
 2488              		.loc 1 275 5 view .LVU634
 2489 01f6 E6D1     		bne	.L32
 2490              		.loc 1 282 5 is_stmt 1 view .LVU635
 2491 01f8 3949     		ldr	r1, .L43+44
 2492 01fa 3A48     		ldr	r0, .L43+48
 2493 01fc FFF7FEFF 		bl	_test_assert_sequence
 2494              	.LVL110:
 2495 0200 0028     		cmp	r0, #0
 2496 0202 7FF419AF 		bne	.L18
 2497              		.loc 1 282 55 view .LVU636
 2498              		.loc 1 287 3 view .LVU637
 2499              		.loc 1 289 12 is_stmt 0 view .LVU638
 2500 0206 4621     		movs	r1, #70
 2501              		.loc 1 287 3 view .LVU639
 2502 0208 0623     		movs	r3, #6
 2503              		.loc 1 289 12 view .LVU640
 2504 020a 2B48     		ldr	r0, .L43+4
 2505              		.loc 1 287 3 view .LVU641
 2506 020c 3B60     		str	r3, [r7]
 2507              		.loc 1 289 5 is_stmt 1 view .LVU642
 2508              		.loc 1 289 12 is_stmt 0 view .LVU643
 2509 020e 4FF0FF32 		mov	r2, #-1
 2510 0212 FFF7FEFF 		bl	chMBPost
 2511              	.LVL111:
 2512              		.loc 1 290 5 is_stmt 1 view .LVU644
 2513 0216 B0FA80F0 		clz	r0, r0
 2514              	.LVL112:
 2515              		.loc 1 290 5 is_stmt 0 view .LVU645
 2516 021a 2D49     		ldr	r1, .L43+28
 2517 021c 4009     		lsrs	r0, r0, #5
 2518 021e FFF7FEFF 		bl	_test_assert
 2519              	.LVL113:
 2520 0222 0028     		cmp	r0, #0
 2521 0224 7FF408AF 		bne	.L18
 2522              		.loc 1 290 57 is_stmt 1 view .LVU646
 2523              		.loc 1 291 5 view .LVU647
 2524              		.loc 1 291 12 is_stmt 0 view .LVU648
 2525 0228 01A9     		add	r1, sp, #4
 2526 022a 2348     		ldr	r0, .L43+4
 2527 022c 4FF0FF32 		mov	r2, #-1
 2528 0230 FFF7FEFF 		bl	chMBFetch
 2529              	.LVL114:
 2530              		.loc 1 292 5 is_stmt 1 view .LVU649
 2531 0234 B0FA80F0 		clz	r0, r0
 2532              	.LVL115:
 2533              		.loc 1 292 5 is_stmt 0 view .LVU650
 2534 0238 2549     		ldr	r1, .L43+28
ARM GAS  /tmp/ccCget5K.s 			page 46


 2535 023a 4009     		lsrs	r0, r0, #5
 2536 023c FFF7FEFF 		bl	_test_assert
 2537              	.LVL116:
 2538 0240 0028     		cmp	r0, #0
 2539 0242 7FF4F9AE 		bne	.L18
 2540              		.loc 1 292 57 is_stmt 1 view .LVU651
 2541              		.loc 1 297 3 view .LVU652
 2542 0246 0723     		movs	r3, #7
 2543 0248 3B60     		str	r3, [r7]
 2544              		.loc 1 299 5 view .LVU653
 2545              	.LBB1623:
 2546              	.LBI1623:
 2547              		.loc 6 491 20 view .LVU654
 2548              	.LBE1623:
 2549              	.LBE1756:
 2550              	.LBE1837:
 2551              		.loc 6 493 3 view .LVU655
 2552              	.LBB1838:
 2553              	.LBB1757:
 2554              	.LBB1631:
 2555              	.LBB1624:
 2556              	.LBI1624:
 2557              		.loc 2 374 20 view .LVU656
 2558              	.LBE1624:
 2559              	.LBE1631:
 2560              	.LBE1757:
 2561              	.LBE1838:
 2562              		.loc 2 376 3 view .LVU657
 2563              	.LBB1839:
 2564              	.LBB1758:
 2565              	.LBB1632:
 2566              	.LBB1629:
 2567              	.LBB1625:
 2568              	.LBI1625:
 2569              		.loc 3 594 20 view .LVU658
 2570              	.LBE1625:
 2571              	.LBE1629:
 2572              	.LBE1632:
 2573              	.LBE1758:
 2574              	.LBE1839:
 2575              		.loc 3 602 3 view .LVU659
 2576              	.LVL117:
 2577              	.LBB1840:
 2578              	.LBB1759:
 2579              	.LBB1633:
 2580              	.LBB1630:
 2581              	.LBB1628:
 2582              	.LBB1626:
 2583              	.LBI1626:
 2584              		.loc 4 262 57 view .LVU660
 2585              	.LBB1627:
 2586              		.loc 4 264 3 view .LVU661
 2587              		.syntax unified
 2588              	@ 264 "../../../os/common/ext/CMSIS/include/cmsis_gcc.h" 1
 2589 024a 85F31188 		MSR basepri, r5
 2590              	@ 0 "" 2
 2591              	.LVL118:
ARM GAS  /tmp/ccCget5K.s 			page 47


 2592              		.loc 4 264 3 is_stmt 0 view .LVU662
 2593              		.thumb
 2594              		.syntax unified
 2595              	.LBE1627:
 2596              	.LBE1626:
 2597              	.LBE1628:
 2598              	.LBE1630:
 2599              	.LBE1633:
 2600              	.LBE1759:
 2601              	.LBE1840:
 2602              		.loc 2 377 34 is_stmt 1 view .LVU663
 2603              		.loc 2 378 20 view .LVU664
 2604              	.LBB1841:
 2605              	.LBB1760:
 2606              		.loc 1 299 5 view .LVU665
 2607              	.LBB1634:
 2608              	.LBI1634:
 2609              		.loc 5 168 21 view .LVU666
 2610              	.LBB1635:
 2611              		.loc 5 170 21 view .LVU667
 2612              		.loc 5 172 3 view .LVU668
 2613              	.LBB1636:
 2614              	.LBI1636:
 2615              		.loc 5 136 21 view .LVU669
 2616              	.LBB1637:
 2617              		.loc 5 140 3 view .LVU670
 2618              		.loc 5 140 3 is_stmt 0 view .LVU671
 2619              	.LBE1637:
 2620              	.LBE1636:
 2621              	.LBB1639:
 2622              	.LBI1639:
 2623              		.loc 5 153 21 is_stmt 1 view .LVU672
 2624              	.LBB1640:
 2625              		.loc 5 155 21 view .LVU673
 2626              		.loc 5 157 3 view .LVU674
 2627              		.loc 5 157 3 is_stmt 0 view .LVU675
 2628              	.LBE1640:
 2629              	.LBE1639:
 2630              	.LBB1641:
 2631              	.LBB1638:
 2632              		.loc 5 140 27 view .LVU676
 2633 024e D4E90023 		ldrd	r2, r3, [r4]
 2634 0252 9A1A     		subs	r2, r3, r2
 2635              	.LBE1638:
 2636              	.LBE1641:
 2637              		.loc 5 172 28 view .LVU677
 2638 0254 2369     		ldr	r3, [r4, #16]
 2639              	.LBE1635:
 2640              	.LBE1634:
 2641              		.loc 1 299 5 view .LVU678
 2642 0256 1A49     		ldr	r1, .L43+12
 2643              	.LBB1643:
 2644              	.LBB1642:
 2645              		.loc 5 172 28 view .LVU679
 2646 0258 C3EBA203 		rsb	r3, r3, r2, asr #2
 2647              	.LBE1642:
 2648              	.LBE1643:
ARM GAS  /tmp/ccCget5K.s 			page 48


 2649              		.loc 1 299 5 view .LVU680
 2650 025c 1E1F     		subs	r6, r3, #4
 2651 025e 7042     		rsbs	r0, r6, #0
 2652 0260 7041     		adcs	r0, r0, r6
 2653 0262 FFF7FEFF 		bl	_test_assert
 2654              	.LVL119:
 2655 0266 08BB     		cbnz	r0, .L40
 2656              		.loc 1 299 5 is_stmt 1 view .LVU681
 2657              	.LBB1644:
 2658              	.LBI1644:
 2659              		.loc 6 502 20 view .LVU682
 2660              	.LBE1644:
 2661              	.LBE1760:
 2662              	.LBE1841:
 2663              		.loc 6 504 3 view .LVU683
 2664              	.LBB1842:
 2665              	.LBB1761:
 2666              	.LBB1653:
 2667              	.LBB1645:
 2668              	.LBI1645:
 2669              		.loc 2 386 20 view .LVU684
 2670              	.LBB1646:
 2671              		.loc 2 388 22 view .LVU685
 2672              		.loc 2 389 33 view .LVU686
 2673              		.loc 2 395 3 view .LVU687
 2674              		.loc 2 395 3 view .LVU688
 2675              		.loc 2 395 3 view .LVU689
 2676              		.loc 2 399 3 view .LVU690
 2677              	.LBB1647:
 2678              	.LBI1647:
 2679              		.loc 3 618 20 view .LVU691
 2680              	.LBE1647:
 2681              	.LBE1646:
 2682              	.LBE1645:
 2683              	.LBE1653:
 2684              	.LBE1761:
 2685              	.LBE1842:
 2686              		.loc 3 621 3 view .LVU692
 2687              	.LVL120:
 2688              	.LBB1843:
 2689              	.LBB1762:
 2690              	.LBB1654:
 2691              	.LBB1652:
 2692              	.LBB1651:
 2693              	.LBB1650:
 2694              	.LBB1648:
 2695              	.LBI1648:
 2696              		.loc 4 262 57 view .LVU693
 2697              	.LBB1649:
 2698              		.loc 4 264 3 view .LVU694
 2699              		.syntax unified
 2700              	@ 264 "../../../os/common/ext/CMSIS/include/cmsis_gcc.h" 1
 2701 0268 89F31188 		MSR basepri, r9
 2702              	@ 0 "" 2
 2703              	.LVL121:
 2704              		.loc 4 264 3 is_stmt 0 view .LVU695
 2705              		.thumb
ARM GAS  /tmp/ccCget5K.s 			page 49


 2706              		.syntax unified
 2707              	.LBE1649:
 2708              	.LBE1648:
 2709              	.LBE1650:
 2710              	.LBE1651:
 2711              	.LBE1652:
 2712              	.LBE1654:
 2713              		.loc 1 299 70 is_stmt 1 view .LVU696
 2714              		.loc 1 300 5 view .LVU697
 2715              	.LBB1655:
 2716              	.LBI1655:
 2717              		.loc 6 491 20 view .LVU698
 2718              	.LBE1655:
 2719              	.LBE1762:
 2720              	.LBE1843:
 2721              		.loc 6 493 3 view .LVU699
 2722              	.LBB1844:
 2723              	.LBB1763:
 2724              	.LBB1663:
 2725              	.LBB1656:
 2726              	.LBI1656:
 2727              		.loc 2 374 20 view .LVU700
 2728              	.LBE1656:
 2729              	.LBE1663:
 2730              	.LBE1763:
 2731              	.LBE1844:
 2732              		.loc 2 376 3 view .LVU701
 2733              	.LBB1845:
 2734              	.LBB1764:
 2735              	.LBB1664:
 2736              	.LBB1661:
 2737              	.LBB1657:
 2738              	.LBI1657:
 2739              		.loc 3 594 20 view .LVU702
 2740              	.LBE1657:
 2741              	.LBE1661:
 2742              	.LBE1664:
 2743              	.LBE1764:
 2744              	.LBE1845:
 2745              		.loc 3 602 3 view .LVU703
 2746              	.LBB1846:
 2747              	.LBB1765:
 2748              	.LBB1665:
 2749              	.LBB1662:
 2750              	.LBB1660:
 2751              	.LBB1658:
 2752              	.LBI1658:
 2753              		.loc 4 262 57 view .LVU704
 2754              	.LBB1659:
 2755              		.loc 4 264 3 view .LVU705
 2756              		.syntax unified
 2757              	@ 264 "../../../os/common/ext/CMSIS/include/cmsis_gcc.h" 1
 2758 026c 85F31188 		MSR basepri, r5
 2759              	@ 0 "" 2
 2760              	.LVL122:
 2761              		.loc 4 264 3 is_stmt 0 view .LVU706
 2762              		.thumb
ARM GAS  /tmp/ccCget5K.s 			page 50


 2763              		.syntax unified
 2764              	.LBE1659:
 2765              	.LBE1658:
 2766              	.LBE1660:
 2767              	.LBE1662:
 2768              	.LBE1665:
 2769              	.LBE1765:
 2770              	.LBE1846:
 2771              		.loc 2 377 34 is_stmt 1 view .LVU707
 2772              		.loc 2 378 20 view .LVU708
 2773              	.LBB1847:
 2774              	.LBB1766:
 2775              		.loc 1 300 5 view .LVU709
 2776              	.LBB1666:
 2777              	.LBI1666:
 2778              		.loc 5 153 21 view .LVU710
 2779              	.LBB1667:
 2780              		.loc 5 155 21 view .LVU711
 2781              		.loc 5 157 3 view .LVU712
 2782              		.loc 5 157 3 is_stmt 0 view .LVU713
 2783              	.LBE1667:
 2784              	.LBE1666:
 2785              		.loc 1 300 5 view .LVU714
 2786 0270 2069     		ldr	r0, [r4, #16]
 2787 0272 1449     		ldr	r1, .L43+16
 2788 0274 B0FA80F0 		clz	r0, r0
 2789 0278 4009     		lsrs	r0, r0, #5
 2790 027a FFF7FEFF 		bl	_test_assert
 2791              	.LVL123:
 2792 027e A8B9     		cbnz	r0, .L40
 2793              		.loc 1 300 5 is_stmt 1 view .LVU715
 2794              	.LBB1668:
 2795              	.LBI1668:
 2796              		.loc 6 502 20 view .LVU716
 2797              	.LBE1668:
 2798              	.LBE1766:
 2799              	.LBE1847:
 2800              		.loc 6 504 3 view .LVU717
 2801              	.LBB1848:
 2802              	.LBB1767:
 2803              	.LBB1677:
 2804              	.LBB1669:
 2805              	.LBI1669:
 2806              		.loc 2 386 20 view .LVU718
 2807              	.LBB1670:
 2808              		.loc 2 388 22 view .LVU719
 2809              		.loc 2 389 33 view .LVU720
 2810              		.loc 2 395 3 view .LVU721
 2811              		.loc 2 395 3 view .LVU722
 2812              		.loc 2 395 3 view .LVU723
 2813              		.loc 2 399 3 view .LVU724
 2814              	.LBB1671:
 2815              	.LBI1671:
 2816              		.loc 3 618 20 view .LVU725
 2817              	.LBE1671:
 2818              	.LBE1670:
 2819              	.LBE1669:
ARM GAS  /tmp/ccCget5K.s 			page 51


 2820              	.LBE1677:
 2821              	.LBE1767:
 2822              	.LBE1848:
 2823              		.loc 3 621 3 view .LVU726
 2824              	.LVL124:
 2825              	.LBB1849:
 2826              	.LBB1768:
 2827              	.LBB1678:
 2828              	.LBB1676:
 2829              	.LBB1675:
 2830              	.LBB1674:
 2831              	.LBB1672:
 2832              	.LBI1672:
 2833              		.loc 4 262 57 view .LVU727
 2834              	.LBB1673:
 2835              		.loc 4 264 3 view .LVU728
 2836              		.syntax unified
 2837              	@ 264 "../../../os/common/ext/CMSIS/include/cmsis_gcc.h" 1
 2838 0280 89F31188 		MSR basepri, r9
 2839              	@ 0 "" 2
 2840              	.LVL125:
 2841              		.loc 4 264 3 is_stmt 0 view .LVU729
 2842              		.thumb
 2843              		.syntax unified
 2844              	.LBE1673:
 2845              	.LBE1672:
 2846              	.LBE1674:
 2847              	.LBE1675:
 2848              	.LBE1676:
 2849              	.LBE1678:
 2850              		.loc 1 300 65 is_stmt 1 view .LVU730
 2851              		.loc 1 301 5 view .LVU731
 2852 0284 2068     		ldr	r0, [r4]
 2853 0286 A368     		ldr	r3, [r4, #8]
 2854 0288 0F49     		ldr	r1, .L43+20
 2855 028a C21A     		subs	r2, r0, r3
 2856 028c 5042     		rsbs	r0, r2, #0
 2857 028e 5041     		adcs	r0, r0, r2
 2858 0290 FFF7FEFF 		bl	_test_assert
 2859              	.LVL126:
 2860 0294 0028     		cmp	r0, #0
 2861 0296 7FF4CFAE 		bne	.L18
 2862              		.loc 1 301 78 view .LVU732
 2863              		.loc 1 302 5 view .LVU733
 2864 029a 2068     		ldr	r0, [r4]
 2865 029c E368     		ldr	r3, [r4, #12]
 2866 029e 0B49     		ldr	r1, .L43+24
 2867 02a0 C31A     		subs	r3, r0, r3
 2868 02a2 5842     		rsbs	r0, r3, #0
 2869 02a4 5841     		adcs	r0, r0, r3
 2870 02a6 FFF7FEFF 		bl	_test_assert
 2871              	.LVL127:
 2872              		.loc 1 302 5 view .LVU734
 2873              		.loc 1 302 5 is_stmt 0 view .LVU735
 2874 02aa C5E6     		b	.L18
 2875              	.LVL128:
 2876              	.L40:
ARM GAS  /tmp/ccCget5K.s 			page 52


 2877              		.loc 1 300 5 is_stmt 1 view .LVU736
 2878              	.LBB1679:
 2879              	.LBI1679:
 2880              		.loc 6 502 20 view .LVU737
 2881              	.LBE1679:
 2882              	.LBE1768:
 2883              	.LBE1849:
 2884              		.loc 6 504 3 view .LVU738
 2885              	.LBB1850:
 2886              	.LBB1769:
 2887              	.LBB1688:
 2888              	.LBB1680:
 2889              	.LBI1680:
 2890              		.loc 2 386 20 view .LVU739
 2891              	.LBB1681:
 2892              		.loc 2 388 22 view .LVU740
 2893              		.loc 2 389 33 view .LVU741
 2894              		.loc 2 395 3 view .LVU742
 2895              		.loc 2 395 3 view .LVU743
 2896              		.loc 2 395 3 view .LVU744
 2897              		.loc 2 399 3 view .LVU745
 2898              	.LBB1682:
 2899              	.LBI1682:
 2900              		.loc 3 618 20 view .LVU746
 2901              	.LBE1682:
 2902              	.LBE1681:
 2903              	.LBE1680:
 2904              	.LBE1688:
 2905              	.LBE1769:
 2906              	.LBE1850:
 2907              		.loc 3 621 3 view .LVU747
 2908              	.LBB1851:
 2909              	.LBB1770:
 2910              	.LBB1689:
 2911              	.LBB1687:
 2912              	.LBB1686:
 2913              	.LBB1685:
 2914              	.LBB1683:
 2915              	.LBI1683:
 2916              		.loc 4 262 57 view .LVU748
 2917              	.LBB1684:
 2918              		.loc 4 264 3 view .LVU749
 2919              		.syntax unified
 2920              	@ 264 "../../../os/common/ext/CMSIS/include/cmsis_gcc.h" 1
 2921 02ac 89F31188 		MSR basepri, r9
 2922              	@ 0 "" 2
 2923              	.LVL129:
 2924              		.loc 4 264 3 is_stmt 0 view .LVU750
 2925              		.thumb
 2926              		.syntax unified
 2927              	.LBE1684:
 2928              	.LBE1683:
 2929              	.LBE1685:
 2930              	.LBE1686:
 2931              	.LBE1687:
 2932              	.LBE1689:
 2933              		.loc 1 300 5 is_stmt 1 view .LVU751
ARM GAS  /tmp/ccCget5K.s 			page 53


 2934 02b0 C2E6     		b	.L18
 2935              	.L44:
 2936 02b2 00BF     		.align	2
 2937              	.L43:
 2938 02b4 00000000 		.word	test_step
 2939 02b8 00000000 		.word	.LANCHOR0
 2940 02bc 00000000 		.word	.LC1
 2941 02c0 0C000000 		.word	.LC2
 2942 02c4 18000000 		.word	.LC3
 2943 02c8 24000000 		.word	.LC4
 2944 02cc 48000000 		.word	.LC5
 2945 02d0 00000000 		.word	.LC0
 2946 02d4 6C000000 		.word	.LC6
 2947 02d8 78000000 		.word	.LC7
 2948 02dc 84000000 		.word	.LC8
 2949 02e0 9C000000 		.word	.LC9
 2950 02e4 B0000000 		.word	.LC10
 2951              	.LBE1770:
 2952              	.LBE1851:
 2953              		.cfi_endproc
 2954              	.LFE282:
 2955              		.size	test_008_002_execute, .-test_008_002_execute
 2956              		.section	.rodata.test_008_001_execute.str1.4,"aMS",%progbits,1
 2957              		.align	2
 2958              	.LC11:
 2959 0000 6E6F7420 		.ascii	"not in reset state\000"
 2959      696E2072 
 2959      65736574 
 2959      20737461 
 2959      746500
 2960              		.section	.text.test_008_001_execute,"ax",%progbits
 2961              		.align	1
 2962              		.p2align 4,,15
 2963              		.syntax unified
 2964              		.thumb
 2965              		.thumb_func
 2966              		.fpu softvfp
 2967              		.type	test_008_001_execute, %function
 2968              	test_008_001_execute:
 2969              	.LFB279:
 2970              		.loc 1 95 40 view -0
 2971              		.cfi_startproc
 2972              		@ args = 0, pretend = 0, frame = 8
 2973              		@ frame_needed = 0, uses_anonymous_args = 0
 2974              		.loc 1 96 3 view .LVU753
 2975              		.loc 1 97 3 view .LVU754
 2976              		.loc 1 100 3 view .LVU755
 2977              		.loc 1 95 40 is_stmt 0 view .LVU756
 2978 0000 2DE9F041 		push	{r4, r5, r6, r7, r8, lr}
 2979              		.cfi_def_cfa_offset 24
 2980              		.cfi_offset 4, -24
 2981              		.cfi_offset 5, -20
 2982              		.cfi_offset 6, -16
 2983              		.cfi_offset 7, -12
 2984              		.cfi_offset 8, -8
 2985              		.cfi_offset 14, -4
 2986              		.loc 1 100 3 view .LVU757
ARM GAS  /tmp/ccCget5K.s 			page 54


 2987 0004 BE4F     		ldr	r7, .L68
 2988 0006 0123     		movs	r3, #1
 2989              		.loc 1 95 40 view .LVU758
 2990 0008 82B0     		sub	sp, sp, #8
 2991              		.cfi_def_cfa_offset 32
 2992              		.loc 1 100 3 view .LVU759
 2993 000a 3B60     		str	r3, [r7]
 2994              		.loc 1 102 5 is_stmt 1 view .LVU760
 2995              	.LBB2073:
 2996              	.LBI2073:
 2997              		.loc 6 491 20 view .LVU761
 2998              	.LBE2073:
 2999              		.loc 6 493 3 view .LVU762
 3000              	.LBB2081:
 3001              	.LBB2074:
 3002              	.LBI2074:
 3003              		.loc 2 374 20 view .LVU763
 3004              	.LBE2074:
 3005              	.LBE2081:
 3006              		.loc 2 376 3 view .LVU764
 3007              	.LBB2082:
 3008              	.LBB2079:
 3009              	.LBB2075:
 3010              	.LBI2075:
 3011              		.loc 3 594 20 view .LVU765
 3012              	.LBE2075:
 3013              	.LBE2079:
 3014              	.LBE2082:
 3015              		.loc 3 602 3 view .LVU766
 3016              	.LVL130:
 3017              	.LBB2083:
 3018              	.LBB2080:
 3019              	.LBB2078:
 3020              	.LBB2076:
 3021              	.LBI2076:
 3022              		.loc 4 262 57 view .LVU767
 3023              	.LBB2077:
 3024              		.loc 4 264 3 view .LVU768
 3025 000c 2026     		movs	r6, #32
 3026              		.syntax unified
 3027              	@ 264 "../../../os/common/ext/CMSIS/include/cmsis_gcc.h" 1
 3028 000e 86F31188 		MSR basepri, r6
 3029              	@ 0 "" 2
 3030              	.LVL131:
 3031              		.loc 4 264 3 is_stmt 0 view .LVU769
 3032              		.thumb
 3033              		.syntax unified
 3034              	.LBE2077:
 3035              	.LBE2076:
 3036              	.LBE2078:
 3037              	.LBE2080:
 3038              	.LBE2083:
 3039              		.loc 2 377 34 is_stmt 1 view .LVU770
 3040              		.loc 2 378 20 view .LVU771
 3041              		.loc 1 102 5 view .LVU772
 3042              	.LBB2084:
 3043              	.LBI2084:
ARM GAS  /tmp/ccCget5K.s 			page 55


 3044              		.loc 5 168 21 view .LVU773
 3045              	.LBB2085:
 3046              		.loc 5 170 21 view .LVU774
 3047              		.loc 5 172 3 view .LVU775
 3048              	.LBB2086:
 3049              	.LBI2086:
 3050              		.loc 5 136 21 view .LVU776
 3051              	.LBB2087:
 3052              		.loc 5 140 3 view .LVU777
 3053              		.loc 5 140 3 is_stmt 0 view .LVU778
 3054              	.LBE2087:
 3055              	.LBE2086:
 3056              	.LBB2090:
 3057              	.LBI2090:
 3058              		.loc 5 153 21 is_stmt 1 view .LVU779
 3059              	.LBB2091:
 3060              		.loc 5 155 21 view .LVU780
 3061              		.loc 5 157 3 view .LVU781
 3062              		.loc 5 157 3 is_stmt 0 view .LVU782
 3063              	.LBE2091:
 3064              	.LBE2090:
 3065              	.LBB2092:
 3066              	.LBB2088:
 3067              		.loc 5 140 21 view .LVU783
 3068 0012 BC4C     		ldr	r4, .L68+4
 3069              	.LBE2088:
 3070              	.LBE2092:
 3071              	.LBE2085:
 3072              	.LBE2084:
 3073              		.loc 1 102 5 view .LVU784
 3074 0014 BC49     		ldr	r1, .L68+8
 3075              	.LBB2095:
 3076              	.LBB2094:
 3077              	.LBB2093:
 3078              	.LBB2089:
 3079              		.loc 5 140 27 view .LVU785
 3080 0016 D4E90030 		ldrd	r3, r0, [r4]
 3081 001a C31A     		subs	r3, r0, r3
 3082              	.LBE2089:
 3083              	.LBE2093:
 3084              		.loc 5 172 28 view .LVU786
 3085 001c 2069     		ldr	r0, [r4, #16]
 3086 001e C0EBA300 		rsb	r0, r0, r3, asr #2
 3087              	.LBE2094:
 3088              	.LBE2095:
 3089              		.loc 1 102 5 view .LVU787
 3090 0022 A0F10400 		sub	r0, #4
 3091 0026 B0FA80F0 		clz	r0, r0
 3092 002a 4009     		lsrs	r0, r0, #5
 3093 002c FFF7FEFF 		bl	_test_assert
 3094              	.LVL132:
 3095 0030 28B1     		cbz	r0, .L46
 3096              		.loc 1 102 5 is_stmt 1 view .LVU788
 3097              	.LBB2096:
 3098              	.LBI2096:
 3099              		.loc 6 502 20 view .LVU789
 3100              	.LBE2096:
ARM GAS  /tmp/ccCget5K.s 			page 56


 3101              		.loc 6 504 3 view .LVU790
 3102              	.LBB2105:
 3103              	.LBB2097:
 3104              	.LBI2097:
 3105              		.loc 2 386 20 view .LVU791
 3106              	.LBB2098:
 3107              		.loc 2 388 22 view .LVU792
 3108              		.loc 2 389 33 view .LVU793
 3109              		.loc 2 395 3 view .LVU794
 3110              		.loc 2 395 3 view .LVU795
 3111              		.loc 2 395 3 view .LVU796
 3112              		.loc 2 399 3 view .LVU797
 3113              	.LBB2099:
 3114              	.LBI2099:
 3115              		.loc 3 618 20 view .LVU798
 3116              	.LBE2099:
 3117              	.LBE2098:
 3118              	.LBE2097:
 3119              	.LBE2105:
 3120              		.loc 3 621 3 view .LVU799
 3121              	.LVL133:
 3122              	.LBB2106:
 3123              	.LBB2104:
 3124              	.LBB2103:
 3125              	.LBB2102:
 3126              	.LBB2100:
 3127              	.LBI2100:
 3128              		.loc 4 262 57 view .LVU800
 3129              	.LBB2101:
 3130              		.loc 4 264 3 view .LVU801
 3131 0032 0023     		movs	r3, #0
 3132              		.syntax unified
 3133              	@ 264 "../../../os/common/ext/CMSIS/include/cmsis_gcc.h" 1
 3134 0034 83F31188 		MSR basepri, r3
 3135              	@ 0 "" 2
 3136              	.LVL134:
 3137              		.loc 4 264 3 is_stmt 0 view .LVU802
 3138              		.thumb
 3139              		.syntax unified
 3140              	.LBE2101:
 3141              	.LBE2100:
 3142              	.LBE2102:
 3143              	.LBE2103:
 3144              	.LBE2104:
 3145              	.LBE2106:
 3146              		.loc 1 102 5 is_stmt 1 view .LVU803
 3147              	.L45:
 3148              		.loc 1 181 1 is_stmt 0 view .LVU804
 3149 0038 02B0     		add	sp, sp, #8
 3150              		.cfi_remember_state
 3151              		.cfi_def_cfa_offset 24
 3152              		@ sp needed
 3153 003a BDE8F081 		pop	{r4, r5, r6, r7, r8, pc}
 3154              	.L46:
 3155              		.cfi_restore_state
 3156              	.LBB2107:
 3157              	.LBI2107:
ARM GAS  /tmp/ccCget5K.s 			page 57


 3158              		.loc 1 95 13 is_stmt 1 view .LVU805
 3159              	.LBB2108:
 3160              		.loc 1 102 5 view .LVU806
 3161              	.LBB2109:
 3162              	.LBI2109:
 3163              		.loc 6 502 20 view .LVU807
 3164              	.LBE2109:
 3165              	.LBE2108:
 3166              	.LBE2107:
 3167              		.loc 6 504 3 view .LVU808
 3168              	.LBB2454:
 3169              	.LBB2389:
 3170              	.LBB2118:
 3171              	.LBB2110:
 3172              	.LBI2110:
 3173              		.loc 2 386 20 view .LVU809
 3174              	.LBB2111:
 3175              		.loc 2 388 22 view .LVU810
 3176              		.loc 2 389 33 view .LVU811
 3177              		.loc 2 395 3 view .LVU812
 3178              		.loc 2 395 3 view .LVU813
 3179              		.loc 2 395 3 view .LVU814
 3180              		.loc 2 399 3 view .LVU815
 3181              	.LBB2112:
 3182              	.LBI2112:
 3183              		.loc 3 618 20 view .LVU816
 3184              	.LBE2112:
 3185              	.LBE2111:
 3186              	.LBE2110:
 3187              	.LBE2118:
 3188              	.LBE2389:
 3189              	.LBE2454:
 3190              		.loc 3 621 3 view .LVU817
 3191              	.LVL135:
 3192              	.LBB2455:
 3193              	.LBB2390:
 3194              	.LBB2119:
 3195              	.LBB2117:
 3196              	.LBB2116:
 3197              	.LBB2115:
 3198              	.LBB2113:
 3199              	.LBI2113:
 3200              		.loc 4 262 57 view .LVU818
 3201              	.LBB2114:
 3202              		.loc 4 264 3 view .LVU819
 3203 003e 0546     		mov	r5, r0
 3204              		.syntax unified
 3205              	@ 264 "../../../os/common/ext/CMSIS/include/cmsis_gcc.h" 1
 3206 0040 80F31188 		MSR basepri, r0
 3207              	@ 0 "" 2
 3208              	.LVL136:
 3209              		.loc 4 264 3 is_stmt 0 view .LVU820
 3210              		.thumb
 3211              		.syntax unified
 3212              	.LBE2114:
 3213              	.LBE2113:
 3214              	.LBE2115:
ARM GAS  /tmp/ccCget5K.s 			page 58


 3215              	.LBE2116:
 3216              	.LBE2117:
 3217              	.LBE2119:
 3218              		.loc 1 102 71 is_stmt 1 view .LVU821
 3219              		.loc 1 107 3 view .LVU822
 3220 0044 0223     		movs	r3, #2
 3221              		.loc 1 109 5 is_stmt 0 view .LVU823
 3222 0046 2046     		mov	r0, r4
 3223              		.loc 1 107 3 view .LVU824
 3224 0048 3B60     		str	r3, [r7]
 3225              		.loc 1 109 5 is_stmt 1 view .LVU825
 3226 004a FFF7FEFF 		bl	chMBReset
 3227              	.LVL137:
 3228              		.loc 1 110 5 view .LVU826
 3229              	.LBB2120:
 3230              	.LBI2120:
 3231              		.loc 6 491 20 view .LVU827
 3232              	.LBE2120:
 3233              	.LBE2390:
 3234              	.LBE2455:
 3235              		.loc 6 493 3 view .LVU828
 3236              	.LBB2456:
 3237              	.LBB2391:
 3238              	.LBB2128:
 3239              	.LBB2121:
 3240              	.LBI2121:
 3241              		.loc 2 374 20 view .LVU829
 3242              	.LBE2121:
 3243              	.LBE2128:
 3244              	.LBE2391:
 3245              	.LBE2456:
 3246              		.loc 2 376 3 view .LVU830
 3247              	.LBB2457:
 3248              	.LBB2392:
 3249              	.LBB2129:
 3250              	.LBB2126:
 3251              	.LBB2122:
 3252              	.LBI2122:
 3253              		.loc 3 594 20 view .LVU831
 3254              	.LBE2122:
 3255              	.LBE2126:
 3256              	.LBE2129:
 3257              	.LBE2392:
 3258              	.LBE2457:
 3259              		.loc 3 602 3 view .LVU832
 3260              	.LBB2458:
 3261              	.LBB2393:
 3262              	.LBB2130:
 3263              	.LBB2127:
 3264              	.LBB2125:
 3265              	.LBB2123:
 3266              	.LBI2123:
 3267              		.loc 4 262 57 view .LVU833
 3268              	.LBB2124:
 3269              		.loc 4 264 3 view .LVU834
 3270              		.syntax unified
 3271              	@ 264 "../../../os/common/ext/CMSIS/include/cmsis_gcc.h" 1
ARM GAS  /tmp/ccCget5K.s 			page 59


 3272 004e 86F31188 		MSR basepri, r6
 3273              	@ 0 "" 2
 3274              	.LVL138:
 3275              		.loc 4 264 3 is_stmt 0 view .LVU835
 3276              		.thumb
 3277              		.syntax unified
 3278              	.LBE2124:
 3279              	.LBE2123:
 3280              	.LBE2125:
 3281              	.LBE2127:
 3282              	.LBE2130:
 3283              	.LBE2393:
 3284              	.LBE2458:
 3285              		.loc 2 377 34 is_stmt 1 view .LVU836
 3286              		.loc 2 378 20 view .LVU837
 3287              	.LBB2459:
 3288              	.LBB2394:
 3289              		.loc 1 110 5 view .LVU838
 3290              	.LBB2131:
 3291              	.LBI2131:
 3292              		.loc 5 168 21 view .LVU839
 3293              	.LBB2132:
 3294              		.loc 5 170 21 view .LVU840
 3295              		.loc 5 172 3 view .LVU841
 3296              	.LBB2133:
 3297              	.LBI2133:
 3298              		.loc 5 136 21 view .LVU842
 3299              	.LBB2134:
 3300              		.loc 5 140 3 view .LVU843
 3301              		.loc 5 140 3 is_stmt 0 view .LVU844
 3302              	.LBE2134:
 3303              	.LBE2133:
 3304              	.LBB2136:
 3305              	.LBI2136:
 3306              		.loc 5 153 21 is_stmt 1 view .LVU845
 3307              	.LBB2137:
 3308              		.loc 5 155 21 view .LVU846
 3309              		.loc 5 157 3 view .LVU847
 3310              		.loc 5 157 3 is_stmt 0 view .LVU848
 3311              	.LBE2137:
 3312              	.LBE2136:
 3313              	.LBB2138:
 3314              	.LBB2135:
 3315              		.loc 5 140 27 view .LVU849
 3316 0052 D4E90030 		ldrd	r3, r0, [r4]
 3317 0056 C31A     		subs	r3, r0, r3
 3318              	.LBE2135:
 3319              	.LBE2138:
 3320              		.loc 5 172 28 view .LVU850
 3321 0058 2069     		ldr	r0, [r4, #16]
 3322              	.LBE2132:
 3323              	.LBE2131:
 3324              		.loc 1 110 5 view .LVU851
 3325 005a AC49     		ldr	r1, .L68+12
 3326              	.LBB2140:
 3327              	.LBB2139:
 3328              		.loc 5 172 28 view .LVU852
ARM GAS  /tmp/ccCget5K.s 			page 60


 3329 005c C0EBA300 		rsb	r0, r0, r3, asr #2
 3330              	.LBE2139:
 3331              	.LBE2140:
 3332              		.loc 1 110 5 view .LVU853
 3333 0060 A0F10400 		sub	r0, #4
 3334 0064 B0FA80F0 		clz	r0, r0
 3335 0068 4009     		lsrs	r0, r0, #5
 3336 006a FFF7FEFF 		bl	_test_assert
 3337              	.LVL139:
 3338 006e 8046     		mov	r8, r0
 3339 0070 88B9     		cbnz	r0, .L67
 3340              		.loc 1 110 5 is_stmt 1 view .LVU854
 3341              	.LBB2141:
 3342              	.LBI2141:
 3343              		.loc 6 502 20 view .LVU855
 3344              	.LBE2141:
 3345              	.LBE2394:
 3346              	.LBE2459:
 3347              		.loc 6 504 3 view .LVU856
 3348              	.LBB2460:
 3349              	.LBB2395:
 3350              	.LBB2150:
 3351              	.LBB2142:
 3352              	.LBI2142:
 3353              		.loc 2 386 20 view .LVU857
 3354              	.LBB2143:
 3355              		.loc 2 388 22 view .LVU858
 3356              		.loc 2 389 33 view .LVU859
 3357              		.loc 2 395 3 view .LVU860
 3358              		.loc 2 395 3 view .LVU861
 3359              		.loc 2 395 3 view .LVU862
 3360              		.loc 2 399 3 view .LVU863
 3361              	.LBB2144:
 3362              	.LBI2144:
 3363              		.loc 3 618 20 view .LVU864
 3364              	.LBE2144:
 3365              	.LBE2143:
 3366              	.LBE2142:
 3367              	.LBE2150:
 3368              	.LBE2395:
 3369              	.LBE2460:
 3370              		.loc 3 621 3 view .LVU865
 3371              	.LVL140:
 3372              	.LBB2461:
 3373              	.LBB2396:
 3374              	.LBB2151:
 3375              	.LBB2149:
 3376              	.LBB2148:
 3377              	.LBB2147:
 3378              	.LBB2145:
 3379              	.LBI2145:
 3380              		.loc 4 262 57 view .LVU866
 3381              	.LBB2146:
 3382              		.loc 4 264 3 view .LVU867
 3383              		.syntax unified
 3384              	@ 264 "../../../os/common/ext/CMSIS/include/cmsis_gcc.h" 1
 3385 0072 80F31188 		MSR basepri, r0
ARM GAS  /tmp/ccCget5K.s 			page 61


 3386              	@ 0 "" 2
 3387              	.LVL141:
 3388              		.loc 4 264 3 is_stmt 0 view .LVU868
 3389              		.thumb
 3390              		.syntax unified
 3391              	.LBE2146:
 3392              	.LBE2145:
 3393              	.LBE2147:
 3394              	.LBE2148:
 3395              	.LBE2149:
 3396              	.LBE2151:
 3397              		.loc 1 110 70 is_stmt 1 view .LVU869
 3398              		.loc 1 111 5 view .LVU870
 3399              	.LBB2152:
 3400              	.LBI2152:
 3401              		.loc 6 491 20 view .LVU871
 3402              	.LBE2152:
 3403              	.LBE2396:
 3404              	.LBE2461:
 3405              		.loc 6 493 3 view .LVU872
 3406              	.LBB2462:
 3407              	.LBB2397:
 3408              	.LBB2160:
 3409              	.LBB2153:
 3410              	.LBI2153:
 3411              		.loc 2 374 20 view .LVU873
 3412              	.LBE2153:
 3413              	.LBE2160:
 3414              	.LBE2397:
 3415              	.LBE2462:
 3416              		.loc 2 376 3 view .LVU874
 3417              	.LBB2463:
 3418              	.LBB2398:
 3419              	.LBB2161:
 3420              	.LBB2158:
 3421              	.LBB2154:
 3422              	.LBI2154:
 3423              		.loc 3 594 20 view .LVU875
 3424              	.LBE2154:
 3425              	.LBE2158:
 3426              	.LBE2161:
 3427              	.LBE2398:
 3428              	.LBE2463:
 3429              		.loc 3 602 3 view .LVU876
 3430              	.LBB2464:
 3431              	.LBB2399:
 3432              	.LBB2162:
 3433              	.LBB2159:
 3434              	.LBB2157:
 3435              	.LBB2155:
 3436              	.LBI2155:
 3437              		.loc 4 262 57 view .LVU877
 3438              	.LBB2156:
 3439              		.loc 4 264 3 view .LVU878
 3440              		.syntax unified
 3441              	@ 264 "../../../os/common/ext/CMSIS/include/cmsis_gcc.h" 1
 3442 0076 86F31188 		MSR basepri, r6
ARM GAS  /tmp/ccCget5K.s 			page 62


 3443              	@ 0 "" 2
 3444              	.LVL142:
 3445              		.loc 4 264 3 is_stmt 0 view .LVU879
 3446              		.thumb
 3447              		.syntax unified
 3448              	.LBE2156:
 3449              	.LBE2155:
 3450              	.LBE2157:
 3451              	.LBE2159:
 3452              	.LBE2162:
 3453              	.LBE2399:
 3454              	.LBE2464:
 3455              		.loc 2 377 34 is_stmt 1 view .LVU880
 3456              		.loc 2 378 20 view .LVU881
 3457              	.LBB2465:
 3458              	.LBB2400:
 3459              		.loc 1 111 5 view .LVU882
 3460              	.LBB2163:
 3461              	.LBI2163:
 3462              		.loc 5 153 21 view .LVU883
 3463              	.LBB2164:
 3464              		.loc 5 155 21 view .LVU884
 3465              		.loc 5 157 3 view .LVU885
 3466              		.loc 5 157 3 is_stmt 0 view .LVU886
 3467              	.LBE2164:
 3468              	.LBE2163:
 3469              		.loc 1 111 5 view .LVU887
 3470 007a 2069     		ldr	r0, [r4, #16]
 3471 007c A449     		ldr	r1, .L68+16
 3472 007e B0FA80F0 		clz	r0, r0
 3473 0082 4009     		lsrs	r0, r0, #5
 3474 0084 FFF7FEFF 		bl	_test_assert
 3475              	.LVL143:
 3476 0088 0546     		mov	r5, r0
 3477 008a 48B1     		cbz	r0, .L50
 3478              	.L66:
 3479              		.loc 1 113 5 is_stmt 1 view .LVU888
 3480              	.LBB2165:
 3481              	.LBI2165:
 3482              		.loc 6 502 20 view .LVU889
 3483              	.LBE2165:
 3484              	.LBE2400:
 3485              	.LBE2465:
 3486              		.loc 6 504 3 view .LVU890
 3487              	.LBB2466:
 3488              	.LBB2401:
 3489              	.LBB2174:
 3490              	.LBB2166:
 3491              	.LBI2166:
 3492              		.loc 2 386 20 view .LVU891
 3493              	.LBB2167:
 3494              		.loc 2 388 22 view .LVU892
 3495              		.loc 2 389 33 view .LVU893
 3496              		.loc 2 395 3 view .LVU894
 3497              		.loc 2 395 3 view .LVU895
 3498              		.loc 2 395 3 view .LVU896
 3499              		.loc 2 399 3 view .LVU897
ARM GAS  /tmp/ccCget5K.s 			page 63


 3500              	.LBB2168:
 3501              	.LBI2168:
 3502              		.loc 3 618 20 view .LVU898
 3503              	.LBE2168:
 3504              	.LBE2167:
 3505              	.LBE2166:
 3506              	.LBE2174:
 3507              	.LBE2401:
 3508              	.LBE2466:
 3509              		.loc 3 621 3 view .LVU899
 3510              	.LVL144:
 3511              	.LBB2467:
 3512              	.LBB2402:
 3513              	.LBB2175:
 3514              	.LBB2173:
 3515              	.LBB2172:
 3516              	.LBB2171:
 3517              	.LBB2169:
 3518              	.LBI2169:
 3519              		.loc 4 262 57 view .LVU900
 3520              	.LBB2170:
 3521              		.loc 4 264 3 view .LVU901
 3522              		.syntax unified
 3523              	@ 264 "../../../os/common/ext/CMSIS/include/cmsis_gcc.h" 1
 3524 008c 88F31188 		MSR basepri, r8
 3525              	@ 0 "" 2
 3526              	.LVL145:
 3527              		.loc 4 264 3 is_stmt 0 view .LVU902
 3528              		.thumb
 3529              		.syntax unified
 3530              	.LBE2170:
 3531              	.LBE2169:
 3532              	.LBE2171:
 3533              	.LBE2172:
 3534              	.LBE2173:
 3535              	.LBE2175:
 3536              		.loc 1 113 5 is_stmt 1 view .LVU903
 3537              	.LBE2402:
 3538              	.LBE2467:
 3539              		.loc 1 181 1 is_stmt 0 view .LVU904
 3540 0090 02B0     		add	sp, sp, #8
 3541              		.cfi_remember_state
 3542              		.cfi_def_cfa_offset 24
 3543              		@ sp needed
 3544 0092 BDE8F081 		pop	{r4, r5, r6, r7, r8, pc}
 3545              	.L67:
 3546              		.cfi_restore_state
 3547              	.LBB2468:
 3548              	.LBB2403:
 3549              		.loc 1 177 5 is_stmt 1 view .LVU905
 3550              	.LBB2176:
 3551              	.LBI2176:
 3552              		.loc 6 502 20 view .LVU906
 3553              	.LBE2176:
 3554              	.LBE2403:
 3555              	.LBE2468:
 3556              		.loc 6 504 3 view .LVU907
ARM GAS  /tmp/ccCget5K.s 			page 64


 3557              	.LBB2469:
 3558              	.LBB2404:
 3559              	.LBB2185:
 3560              	.LBB2177:
 3561              	.LBI2177:
 3562              		.loc 2 386 20 view .LVU908
 3563              	.LBB2178:
 3564              		.loc 2 388 22 view .LVU909
 3565              		.loc 2 389 33 view .LVU910
 3566              		.loc 2 395 3 view .LVU911
 3567              		.loc 2 395 3 view .LVU912
 3568              		.loc 2 395 3 view .LVU913
 3569              		.loc 2 399 3 view .LVU914
 3570              	.LBB2179:
 3571              	.LBI2179:
 3572              		.loc 3 618 20 view .LVU915
 3573              	.LBE2179:
 3574              	.LBE2178:
 3575              	.LBE2177:
 3576              	.LBE2185:
 3577              	.LBE2404:
 3578              	.LBE2469:
 3579              		.loc 3 621 3 view .LVU916
 3580              	.LVL146:
 3581              	.LBB2470:
 3582              	.LBB2405:
 3583              	.LBB2186:
 3584              	.LBB2184:
 3585              	.LBB2183:
 3586              	.LBB2182:
 3587              	.LBB2180:
 3588              	.LBI2180:
 3589              		.loc 4 262 57 view .LVU917
 3590              	.LBB2181:
 3591              		.loc 4 264 3 view .LVU918
 3592              		.syntax unified
 3593              	@ 264 "../../../os/common/ext/CMSIS/include/cmsis_gcc.h" 1
 3594 0096 85F31188 		MSR basepri, r5
 3595              	@ 0 "" 2
 3596              	.LVL147:
 3597              		.loc 4 264 3 is_stmt 0 view .LVU919
 3598              		.thumb
 3599              		.syntax unified
 3600              	.LBE2181:
 3601              	.LBE2180:
 3602              	.LBE2182:
 3603              	.LBE2183:
 3604              	.LBE2184:
 3605              	.LBE2186:
 3606              		.loc 1 177 5 is_stmt 1 view .LVU920
 3607              	.LBE2405:
 3608              	.LBE2470:
 3609              		.loc 1 181 1 is_stmt 0 view .LVU921
 3610 009a 02B0     		add	sp, sp, #8
 3611              		.cfi_remember_state
 3612              		.cfi_def_cfa_offset 24
 3613              		@ sp needed
ARM GAS  /tmp/ccCget5K.s 			page 65


 3614 009c BDE8F081 		pop	{r4, r5, r6, r7, r8, pc}
 3615              	.L50:
 3616              		.cfi_restore_state
 3617              	.LBB2471:
 3618              	.LBB2406:
 3619              		.loc 1 111 5 is_stmt 1 view .LVU922
 3620              	.LBB2187:
 3621              	.LBI2187:
 3622              		.loc 6 502 20 view .LVU923
 3623              	.LBE2187:
 3624              	.LBE2406:
 3625              	.LBE2471:
 3626              		.loc 6 504 3 view .LVU924
 3627              	.LBB2472:
 3628              	.LBB2407:
 3629              	.LBB2196:
 3630              	.LBB2188:
 3631              	.LBI2188:
 3632              		.loc 2 386 20 view .LVU925
 3633              	.LBB2189:
 3634              		.loc 2 388 22 view .LVU926
 3635              		.loc 2 389 33 view .LVU927
 3636              		.loc 2 395 3 view .LVU928
 3637              		.loc 2 395 3 view .LVU929
 3638              		.loc 2 395 3 view .LVU930
 3639              		.loc 2 399 3 view .LVU931
 3640              	.LBB2190:
 3641              	.LBI2190:
 3642              		.loc 3 618 20 view .LVU932
 3643              	.LBE2190:
 3644              	.LBE2189:
 3645              	.LBE2188:
 3646              	.LBE2196:
 3647              	.LBE2407:
 3648              	.LBE2472:
 3649              		.loc 3 621 3 view .LVU933
 3650              	.LVL148:
 3651              	.LBB2473:
 3652              	.LBB2408:
 3653              	.LBB2197:
 3654              	.LBB2195:
 3655              	.LBB2194:
 3656              	.LBB2193:
 3657              	.LBB2191:
 3658              	.LBI2191:
 3659              		.loc 4 262 57 view .LVU934
 3660              	.LBB2192:
 3661              		.loc 4 264 3 view .LVU935
 3662              		.syntax unified
 3663              	@ 264 "../../../os/common/ext/CMSIS/include/cmsis_gcc.h" 1
 3664 00a0 80F31188 		MSR basepri, r0
 3665              	@ 0 "" 2
 3666              	.LVL149:
 3667              		.loc 4 264 3 is_stmt 0 view .LVU936
 3668              		.thumb
 3669              		.syntax unified
 3670              	.LBE2192:
ARM GAS  /tmp/ccCget5K.s 			page 66


 3671              	.LBE2191:
 3672              	.LBE2193:
 3673              	.LBE2194:
 3674              	.LBE2195:
 3675              	.LBE2197:
 3676              		.loc 1 111 65 is_stmt 1 view .LVU937
 3677              		.loc 1 112 5 view .LVU938
 3678              	.LBB2198:
 3679              	.LBI2198:
 3680              		.loc 6 491 20 view .LVU939
 3681              	.LBE2198:
 3682              	.LBE2408:
 3683              	.LBE2473:
 3684              		.loc 6 493 3 view .LVU940
 3685              	.LBB2474:
 3686              	.LBB2409:
 3687              	.LBB2206:
 3688              	.LBB2199:
 3689              	.LBI2199:
 3690              		.loc 2 374 20 view .LVU941
 3691              	.LBE2199:
 3692              	.LBE2206:
 3693              	.LBE2409:
 3694              	.LBE2474:
 3695              		.loc 2 376 3 view .LVU942
 3696              	.LBB2475:
 3697              	.LBB2410:
 3698              	.LBB2207:
 3699              	.LBB2204:
 3700              	.LBB2200:
 3701              	.LBI2200:
 3702              		.loc 3 594 20 view .LVU943
 3703              	.LBE2200:
 3704              	.LBE2204:
 3705              	.LBE2207:
 3706              	.LBE2410:
 3707              	.LBE2475:
 3708              		.loc 3 602 3 view .LVU944
 3709              	.LBB2476:
 3710              	.LBB2411:
 3711              	.LBB2208:
 3712              	.LBB2205:
 3713              	.LBB2203:
 3714              	.LBB2201:
 3715              	.LBI2201:
 3716              		.loc 4 262 57 view .LVU945
 3717              	.LBB2202:
 3718              		.loc 4 264 3 view .LVU946
 3719              		.syntax unified
 3720              	@ 264 "../../../os/common/ext/CMSIS/include/cmsis_gcc.h" 1
 3721 00a4 86F31188 		MSR basepri, r6
 3722              	@ 0 "" 2
 3723              	.LVL150:
 3724              		.loc 4 264 3 is_stmt 0 view .LVU947
 3725              		.thumb
 3726              		.syntax unified
 3727              	.LBE2202:
ARM GAS  /tmp/ccCget5K.s 			page 67


 3728              	.LBE2201:
 3729              	.LBE2203:
 3730              	.LBE2205:
 3731              	.LBE2208:
 3732              	.LBE2411:
 3733              	.LBE2476:
 3734              		.loc 2 377 34 is_stmt 1 view .LVU948
 3735              		.loc 2 378 20 view .LVU949
 3736              	.LBB2477:
 3737              	.LBB2412:
 3738              		.loc 1 112 5 view .LVU950
 3739 00a8 2068     		ldr	r0, [r4]
 3740 00aa A368     		ldr	r3, [r4, #8]
 3741 00ac 9949     		ldr	r1, .L68+20
 3742 00ae C01A     		subs	r0, r0, r3
 3743 00b0 B0FA80F0 		clz	r0, r0
 3744 00b4 4009     		lsrs	r0, r0, #5
 3745 00b6 FFF7FEFF 		bl	_test_assert
 3746              	.LVL151:
 3747 00ba 8046     		mov	r8, r0
 3748 00bc 0028     		cmp	r0, #0
 3749 00be EAD1     		bne	.L67
 3750              		.loc 1 112 5 view .LVU951
 3751              	.LBB2209:
 3752              	.LBI2209:
 3753              		.loc 6 502 20 view .LVU952
 3754              	.LBE2209:
 3755              	.LBE2412:
 3756              	.LBE2477:
 3757              		.loc 6 504 3 view .LVU953
 3758              	.LBB2478:
 3759              	.LBB2413:
 3760              	.LBB2218:
 3761              	.LBB2210:
 3762              	.LBI2210:
 3763              		.loc 2 386 20 view .LVU954
 3764              	.LBB2211:
 3765              		.loc 2 388 22 view .LVU955
 3766              		.loc 2 389 33 view .LVU956
 3767              		.loc 2 395 3 view .LVU957
 3768              		.loc 2 395 3 view .LVU958
 3769              		.loc 2 395 3 view .LVU959
 3770              		.loc 2 399 3 view .LVU960
 3771              	.LBB2212:
 3772              	.LBI2212:
 3773              		.loc 3 618 20 view .LVU961
 3774              	.LBE2212:
 3775              	.LBE2211:
 3776              	.LBE2210:
 3777              	.LBE2218:
 3778              	.LBE2413:
 3779              	.LBE2478:
 3780              		.loc 3 621 3 view .LVU962
 3781              	.LVL152:
 3782              	.LBB2479:
 3783              	.LBB2414:
 3784              	.LBB2219:
ARM GAS  /tmp/ccCget5K.s 			page 68


 3785              	.LBB2217:
 3786              	.LBB2216:
 3787              	.LBB2215:
 3788              	.LBB2213:
 3789              	.LBI2213:
 3790              		.loc 4 262 57 view .LVU963
 3791              	.LBB2214:
 3792              		.loc 4 264 3 view .LVU964
 3793              		.syntax unified
 3794              	@ 264 "../../../os/common/ext/CMSIS/include/cmsis_gcc.h" 1
 3795 00c0 80F31188 		MSR basepri, r0
 3796              	@ 0 "" 2
 3797              	.LVL153:
 3798              		.loc 4 264 3 is_stmt 0 view .LVU965
 3799              		.thumb
 3800              		.syntax unified
 3801              	.LBE2214:
 3802              	.LBE2213:
 3803              	.LBE2215:
 3804              	.LBE2216:
 3805              	.LBE2217:
 3806              	.LBE2219:
 3807              		.loc 1 112 83 is_stmt 1 view .LVU966
 3808              		.loc 1 113 5 view .LVU967
 3809              	.LBB2220:
 3810              	.LBI2220:
 3811              		.loc 6 491 20 view .LVU968
 3812              	.LBE2220:
 3813              	.LBE2414:
 3814              	.LBE2479:
 3815              		.loc 6 493 3 view .LVU969
 3816              	.LBB2480:
 3817              	.LBB2415:
 3818              	.LBB2228:
 3819              	.LBB2221:
 3820              	.LBI2221:
 3821              		.loc 2 374 20 view .LVU970
 3822              	.LBE2221:
 3823              	.LBE2228:
 3824              	.LBE2415:
 3825              	.LBE2480:
 3826              		.loc 2 376 3 view .LVU971
 3827              	.LBB2481:
 3828              	.LBB2416:
 3829              	.LBB2229:
 3830              	.LBB2226:
 3831              	.LBB2222:
 3832              	.LBI2222:
 3833              		.loc 3 594 20 view .LVU972
 3834              	.LBE2222:
 3835              	.LBE2226:
 3836              	.LBE2229:
 3837              	.LBE2416:
 3838              	.LBE2481:
 3839              		.loc 3 602 3 view .LVU973
 3840              	.LBB2482:
 3841              	.LBB2417:
ARM GAS  /tmp/ccCget5K.s 			page 69


 3842              	.LBB2230:
 3843              	.LBB2227:
 3844              	.LBB2225:
 3845              	.LBB2223:
 3846              	.LBI2223:
 3847              		.loc 4 262 57 view .LVU974
 3848              	.LBB2224:
 3849              		.loc 4 264 3 view .LVU975
 3850              		.syntax unified
 3851              	@ 264 "../../../os/common/ext/CMSIS/include/cmsis_gcc.h" 1
 3852 00c4 86F31188 		MSR basepri, r6
 3853              	@ 0 "" 2
 3854              	.LVL154:
 3855              		.loc 4 264 3 is_stmt 0 view .LVU976
 3856              		.thumb
 3857              		.syntax unified
 3858              	.LBE2224:
 3859              	.LBE2223:
 3860              	.LBE2225:
 3861              	.LBE2227:
 3862              	.LBE2230:
 3863              	.LBE2417:
 3864              	.LBE2482:
 3865              		.loc 2 377 34 is_stmt 1 view .LVU977
 3866              		.loc 2 378 20 view .LVU978
 3867              	.LBB2483:
 3868              	.LBB2418:
 3869              		.loc 1 113 5 view .LVU979
 3870 00c8 2068     		ldr	r0, [r4]
 3871 00ca E368     		ldr	r3, [r4, #12]
 3872 00cc 9249     		ldr	r1, .L68+24
 3873 00ce C01A     		subs	r0, r0, r3
 3874 00d0 B0FA80F0 		clz	r0, r0
 3875 00d4 4009     		lsrs	r0, r0, #5
 3876 00d6 FFF7FEFF 		bl	_test_assert
 3877              	.LVL155:
 3878 00da 0028     		cmp	r0, #0
 3879 00dc D6D1     		bne	.L66
 3880              		.loc 1 113 5 view .LVU980
 3881              	.LBB2231:
 3882              	.LBI2231:
 3883              		.loc 6 502 20 view .LVU981
 3884              	.LBE2231:
 3885              	.LBE2418:
 3886              	.LBE2483:
 3887              		.loc 6 504 3 view .LVU982
 3888              	.LBB2484:
 3889              	.LBB2419:
 3890              	.LBB2240:
 3891              	.LBB2232:
 3892              	.LBI2232:
 3893              		.loc 2 386 20 view .LVU983
 3894              	.LBB2233:
 3895              		.loc 2 388 22 view .LVU984
 3896              		.loc 2 389 33 view .LVU985
 3897              		.loc 2 395 3 view .LVU986
 3898              		.loc 2 395 3 view .LVU987
ARM GAS  /tmp/ccCget5K.s 			page 70


 3899              		.loc 2 395 3 view .LVU988
 3900              		.loc 2 399 3 view .LVU989
 3901              	.LBB2234:
 3902              	.LBI2234:
 3903              		.loc 3 618 20 view .LVU990
 3904              	.LBE2234:
 3905              	.LBE2233:
 3906              	.LBE2232:
 3907              	.LBE2240:
 3908              	.LBE2419:
 3909              	.LBE2484:
 3910              		.loc 3 621 3 view .LVU991
 3911              	.LVL156:
 3912              	.LBB2485:
 3913              	.LBB2420:
 3914              	.LBB2241:
 3915              	.LBB2239:
 3916              	.LBB2238:
 3917              	.LBB2237:
 3918              	.LBB2235:
 3919              	.LBI2235:
 3920              		.loc 4 262 57 view .LVU992
 3921              	.LBB2236:
 3922              		.loc 4 264 3 view .LVU993
 3923              		.syntax unified
 3924              	@ 264 "../../../os/common/ext/CMSIS/include/cmsis_gcc.h" 1
 3925 00de 80F31188 		MSR basepri, r0
 3926              	@ 0 "" 2
 3927              	.LVL157:
 3928              		.loc 4 264 3 is_stmt 0 view .LVU994
 3929              		.thumb
 3930              		.syntax unified
 3931              	.LBE2236:
 3932              	.LBE2235:
 3933              	.LBE2237:
 3934              	.LBE2238:
 3935              	.LBE2239:
 3936              	.LBE2241:
 3937              		.loc 1 113 82 is_stmt 1 view .LVU995
 3938              		.loc 1 118 3 view .LVU996
 3939 00e2 0323     		movs	r3, #3
 3940              		.loc 1 120 12 is_stmt 0 view .LVU997
 3941 00e4 0146     		mov	r1, r0
 3942 00e6 4FF0FF32 		mov	r2, #-1
 3943 00ea 2046     		mov	r0, r4
 3944              		.loc 1 118 3 view .LVU998
 3945 00ec 3B60     		str	r3, [r7]
 3946              		.loc 1 120 5 is_stmt 1 view .LVU999
 3947              		.loc 1 120 12 is_stmt 0 view .LVU1000
 3948 00ee FFF7FEFF 		bl	chMBPost
 3949              	.LVL158:
 3950              		.loc 1 121 5 is_stmt 1 view .LVU1001
 3951 00f2 851C     		adds	r5, r0, #2
 3952 00f4 14BF     		ite	ne
 3953 00f6 0020     		movne	r0, #0
 3954              	.LVL159:
 3955              		.loc 1 121 5 is_stmt 0 view .LVU1002
ARM GAS  /tmp/ccCget5K.s 			page 71


 3956 00f8 0120     		moveq	r0, #1
 3957 00fa 8849     		ldr	r1, .L68+28
 3958 00fc FFF7FEFF 		bl	_test_assert
 3959              	.LVL160:
 3960 0100 0028     		cmp	r0, #0
 3961 0102 99D1     		bne	.L45
 3962              		.loc 1 121 57 is_stmt 1 view .LVU1003
 3963              		.loc 1 122 5 view .LVU1004
 3964              		.loc 1 122 12 is_stmt 0 view .LVU1005
 3965 0104 0146     		mov	r1, r0
 3966 0106 4FF0FF32 		mov	r2, #-1
 3967 010a 2046     		mov	r0, r4
 3968 010c FFF7FEFF 		bl	chMBPostAhead
 3969              	.LVL161:
 3970              		.loc 1 123 5 is_stmt 1 view .LVU1006
 3971 0110 821C     		adds	r2, r0, #2
 3972 0112 14BF     		ite	ne
 3973 0114 0020     		movne	r0, #0
 3974              	.LVL162:
 3975              		.loc 1 123 5 is_stmt 0 view .LVU1007
 3976 0116 0120     		moveq	r0, #1
 3977 0118 8049     		ldr	r1, .L68+28
 3978 011a FFF7FEFF 		bl	_test_assert
 3979              	.LVL163:
 3980              		.loc 1 123 5 view .LVU1008
 3981 011e 0028     		cmp	r0, #0
 3982 0120 8AD1     		bne	.L45
 3983              		.loc 1 123 57 is_stmt 1 view .LVU1009
 3984              		.loc 1 124 5 view .LVU1010
 3985              		.loc 1 124 12 is_stmt 0 view .LVU1011
 3986 0122 01A9     		add	r1, sp, #4
 3987 0124 4FF0FF32 		mov	r2, #-1
 3988 0128 2046     		mov	r0, r4
 3989 012a FFF7FEFF 		bl	chMBFetch
 3990              	.LVL164:
 3991              		.loc 1 125 5 is_stmt 1 view .LVU1012
 3992 012e 831C     		adds	r3, r0, #2
 3993 0130 14BF     		ite	ne
 3994 0132 0020     		movne	r0, #0
 3995              	.LVL165:
 3996              		.loc 1 125 5 is_stmt 0 view .LVU1013
 3997 0134 0120     		moveq	r0, #1
 3998 0136 7949     		ldr	r1, .L68+28
 3999 0138 FFF7FEFF 		bl	_test_assert
 4000              	.LVL166:
 4001              		.loc 1 125 5 view .LVU1014
 4002 013c 0028     		cmp	r0, #0
 4003 013e 7FF47BAF 		bne	.L45
 4004              		.loc 1 125 57 is_stmt 1 view .LVU1015
 4005              		.loc 1 126 5 view .LVU1016
 4006              	.LVL167:
 4007              	.LBB2242:
 4008              	.LBI2242:
 4009              		.loc 5 201 20 view .LVU1017
 4010              	.LBB2243:
 4011              		.loc 5 203 3 view .LVU1018
 4012              	.LBE2243:
ARM GAS  /tmp/ccCget5K.s 			page 72


 4013              	.LBE2242:
 4014              		.loc 1 131 3 is_stmt 0 view .LVU1019
 4015 0142 0423     		movs	r3, #4
 4016              		.loc 1 135 7 view .LVU1020
 4017 0144 764E     		ldr	r6, .L68+32
 4018              	.LBB2245:
 4019              	.LBB2244:
 4020              		.loc 5 203 14 view .LVU1021
 4021 0146 2075     		strb	r0, [r4, #20]
 4022              	.LVL168:
 4023              		.loc 5 203 14 view .LVU1022
 4024              	.LBE2244:
 4025              	.LBE2245:
 4026              		.loc 1 131 3 is_stmt 1 view .LVU1023
 4027 0148 3B60     		str	r3, [r7]
 4028              		.loc 1 133 5 view .LVU1024
 4029              	.LVL169:
 4030              		.loc 1 133 17 view .LVU1025
 4031              		.loc 1 131 3 is_stmt 0 view .LVU1026
 4032 014a 4225     		movs	r5, #66
 4033              	.LVL170:
 4034              	.L55:
 4035              		.loc 1 134 7 is_stmt 1 view .LVU1027
 4036              		.loc 1 134 14 is_stmt 0 view .LVU1028
 4037 014c 2946     		mov	r1, r5
 4038 014e 4FF0FF32 		mov	r2, #-1
 4039 0152 2046     		mov	r0, r4
 4040 0154 FFF7FEFF 		bl	chMBPost
 4041              	.LVL171:
 4042              		.loc 1 135 7 is_stmt 1 view .LVU1029
 4043 0158 B0FA80F0 		clz	r0, r0
 4044              	.LVL172:
 4045              		.loc 1 135 7 is_stmt 0 view .LVU1030
 4046 015c 3146     		mov	r1, r6
 4047 015e 4009     		lsrs	r0, r0, #5
 4048              		.loc 1 133 5 view .LVU1031
 4049 0160 0135     		adds	r5, r5, #1
 4050              	.LVL173:
 4051              		.loc 1 135 7 view .LVU1032
 4052 0162 FFF7FEFF 		bl	_test_assert
 4053              	.LVL174:
 4054              		.loc 1 135 59 is_stmt 1 view .LVU1033
 4055              		.loc 1 133 34 view .LVU1034
 4056              		.loc 1 133 17 view .LVU1035
 4057              		.loc 1 135 7 is_stmt 0 view .LVU1036
 4058 0166 0028     		cmp	r0, #0
 4059 0168 7FF466AF 		bne	.L45
 4060              		.loc 1 133 5 view .LVU1037
 4061 016c 452D     		cmp	r5, #69
 4062 016e EDD1     		bne	.L55
 4063              		.loc 1 137 5 is_stmt 1 view .LVU1038
 4064              		.loc 1 137 12 is_stmt 0 view .LVU1039
 4065 0170 4FF0FF32 		mov	r2, #-1
 4066 0174 4121     		movs	r1, #65
 4067 0176 6348     		ldr	r0, .L68+4
 4068 0178 FFF7FEFF 		bl	chMBPostAhead
 4069              	.LVL175:
ARM GAS  /tmp/ccCget5K.s 			page 73


 4070              		.loc 1 138 5 is_stmt 1 view .LVU1040
 4071 017c B0FA80F0 		clz	r0, r0
 4072              	.LVL176:
 4073              		.loc 1 138 5 is_stmt 0 view .LVU1041
 4074 0180 6749     		ldr	r1, .L68+32
 4075 0182 4009     		lsrs	r0, r0, #5
 4076 0184 FFF7FEFF 		bl	_test_assert
 4077              	.LVL177:
 4078 0188 0546     		mov	r5, r0
 4079 018a 0028     		cmp	r0, #0
 4080 018c 7FF454AF 		bne	.L45
 4081              		.loc 1 138 57 is_stmt 1 view .LVU1042
 4082              		.loc 1 143 3 view .LVU1043
 4083 0190 0523     		movs	r3, #5
 4084 0192 3B60     		str	r3, [r7]
 4085              		.loc 1 145 5 view .LVU1044
 4086              	.LBB2246:
 4087              	.LBI2246:
 4088              		.loc 6 491 20 view .LVU1045
 4089              	.LBE2246:
 4090              	.LBE2420:
 4091              	.LBE2485:
 4092              		.loc 6 493 3 view .LVU1046
 4093              	.LBB2486:
 4094              	.LBB2421:
 4095              	.LBB2254:
 4096              	.LBB2247:
 4097              	.LBI2247:
 4098              		.loc 2 374 20 view .LVU1047
 4099              	.LBE2247:
 4100              	.LBE2254:
 4101              	.LBE2421:
 4102              	.LBE2486:
 4103              		.loc 2 376 3 view .LVU1048
 4104              	.LBB2487:
 4105              	.LBB2422:
 4106              	.LBB2255:
 4107              	.LBB2252:
 4108              	.LBB2248:
 4109              	.LBI2248:
 4110              		.loc 3 594 20 view .LVU1049
 4111              	.LBE2248:
 4112              	.LBE2252:
 4113              	.LBE2255:
 4114              	.LBE2422:
 4115              	.LBE2487:
 4116              		.loc 3 602 3 view .LVU1050
 4117              	.LVL178:
 4118              	.LBB2488:
 4119              	.LBB2423:
 4120              	.LBB2256:
 4121              	.LBB2253:
 4122              	.LBB2251:
 4123              	.LBB2249:
 4124              	.LBI2249:
 4125              		.loc 4 262 57 view .LVU1051
 4126              	.LBB2250:
ARM GAS  /tmp/ccCget5K.s 			page 74


 4127              		.loc 4 264 3 view .LVU1052
 4128 0194 4FF02008 		mov	r8, #32
 4129              		.syntax unified
 4130              	@ 264 "../../../os/common/ext/CMSIS/include/cmsis_gcc.h" 1
 4131 0198 88F31188 		MSR basepri, r8
 4132              	@ 0 "" 2
 4133              	.LVL179:
 4134              		.loc 4 264 3 is_stmt 0 view .LVU1053
 4135              		.thumb
 4136              		.syntax unified
 4137              	.LBE2250:
 4138              	.LBE2249:
 4139              	.LBE2251:
 4140              	.LBE2253:
 4141              	.LBE2256:
 4142              	.LBE2423:
 4143              	.LBE2488:
 4144              		.loc 2 377 34 is_stmt 1 view .LVU1054
 4145              		.loc 2 378 20 view .LVU1055
 4146              	.LBB2489:
 4147              	.LBB2424:
 4148              		.loc 1 145 5 view .LVU1056
 4149              	.LBB2257:
 4150              	.LBI2257:
 4151              		.loc 5 168 21 view .LVU1057
 4152              	.LBE2257:
 4153              	.LBE2424:
 4154              	.LBE2489:
 4155              		.loc 5 170 21 view .LVU1058
 4156              		.loc 5 172 3 view .LVU1059
 4157              	.LBB2490:
 4158              	.LBB2425:
 4159              	.LBB2264:
 4160              	.LBB2258:
 4161              	.LBI2258:
 4162              		.loc 5 136 21 view .LVU1060
 4163              	.LBB2259:
 4164              		.loc 5 140 3 view .LVU1061
 4165              		.loc 5 140 3 is_stmt 0 view .LVU1062
 4166              	.LBE2259:
 4167              	.LBE2258:
 4168              	.LBB2261:
 4169              	.LBI2261:
 4170              		.loc 5 153 21 is_stmt 1 view .LVU1063
 4171              	.LBB2262:
 4172              		.loc 5 155 21 view .LVU1064
 4173              		.loc 5 157 3 view .LVU1065
 4174              		.loc 5 157 3 is_stmt 0 view .LVU1066
 4175              	.LBE2262:
 4176              	.LBE2261:
 4177              	.LBB2263:
 4178              	.LBB2260:
 4179              		.loc 5 140 27 view .LVU1067
 4180 019c D4E90023 		ldrd	r2, r3, [r4]
 4181 01a0 9B1A     		subs	r3, r3, r2
 4182              	.LBE2260:
 4183              	.LBE2263:
ARM GAS  /tmp/ccCget5K.s 			page 75


 4184              	.LBE2264:
 4185              		.loc 1 145 5 view .LVU1068
 4186 01a2 2269     		ldr	r2, [r4, #16]
 4187 01a4 5F49     		ldr	r1, .L68+36
 4188 01a6 B2EBA30F 		cmp	r2, r3, asr #2
 4189 01aa 0CBF     		ite	eq
 4190 01ac 0120     		moveq	r0, #1
 4191 01ae 0020     		movne	r0, #0
 4192 01b0 FFF7FEFF 		bl	_test_assert
 4193              	.LVL180:
 4194 01b4 0646     		mov	r6, r0
 4195 01b6 0028     		cmp	r0, #0
 4196 01b8 7FF46DAF 		bne	.L67
 4197              		.loc 1 145 5 is_stmt 1 view .LVU1069
 4198              	.LBB2265:
 4199              	.LBI2265:
 4200              		.loc 6 502 20 view .LVU1070
 4201              	.LBE2265:
 4202              	.LBE2425:
 4203              	.LBE2490:
 4204              		.loc 6 504 3 view .LVU1071
 4205              	.LBB2491:
 4206              	.LBB2426:
 4207              	.LBB2274:
 4208              	.LBB2266:
 4209              	.LBI2266:
 4210              		.loc 2 386 20 view .LVU1072
 4211              	.LBB2267:
 4212              		.loc 2 388 22 view .LVU1073
 4213              		.loc 2 389 33 view .LVU1074
 4214              		.loc 2 395 3 view .LVU1075
 4215              		.loc 2 395 3 view .LVU1076
 4216              		.loc 2 395 3 view .LVU1077
 4217              		.loc 2 399 3 view .LVU1078
 4218              	.LBB2268:
 4219              	.LBI2268:
 4220              		.loc 3 618 20 view .LVU1079
 4221              	.LBE2268:
 4222              	.LBE2267:
 4223              	.LBE2266:
 4224              	.LBE2274:
 4225              	.LBE2426:
 4226              	.LBE2491:
 4227              		.loc 3 621 3 view .LVU1080
 4228              	.LVL181:
 4229              	.LBB2492:
 4230              	.LBB2427:
 4231              	.LBB2275:
 4232              	.LBB2273:
 4233              	.LBB2272:
 4234              	.LBB2271:
 4235              	.LBB2269:
 4236              	.LBI2269:
 4237              		.loc 4 262 57 view .LVU1081
 4238              	.LBB2270:
 4239              		.loc 4 264 3 view .LVU1082
 4240              		.syntax unified
ARM GAS  /tmp/ccCget5K.s 			page 76


 4241              	@ 264 "../../../os/common/ext/CMSIS/include/cmsis_gcc.h" 1
 4242 01bc 80F31188 		MSR basepri, r0
 4243              	@ 0 "" 2
 4244              	.LVL182:
 4245              		.loc 4 264 3 is_stmt 0 view .LVU1083
 4246              		.thumb
 4247              		.syntax unified
 4248              	.LBE2270:
 4249              	.LBE2269:
 4250              	.LBE2271:
 4251              	.LBE2272:
 4252              	.LBE2273:
 4253              	.LBE2275:
 4254              		.loc 1 145 66 is_stmt 1 view .LVU1084
 4255              		.loc 1 146 5 view .LVU1085
 4256              	.LBB2276:
 4257              	.LBI2276:
 4258              		.loc 6 491 20 view .LVU1086
 4259              	.LBE2276:
 4260              	.LBE2427:
 4261              	.LBE2492:
 4262              		.loc 6 493 3 view .LVU1087
 4263              	.LBB2493:
 4264              	.LBB2428:
 4265              	.LBB2284:
 4266              	.LBB2277:
 4267              	.LBI2277:
 4268              		.loc 2 374 20 view .LVU1088
 4269              	.LBE2277:
 4270              	.LBE2284:
 4271              	.LBE2428:
 4272              	.LBE2493:
 4273              		.loc 2 376 3 view .LVU1089
 4274              	.LBB2494:
 4275              	.LBB2429:
 4276              	.LBB2285:
 4277              	.LBB2282:
 4278              	.LBB2278:
 4279              	.LBI2278:
 4280              		.loc 3 594 20 view .LVU1090
 4281              	.LBE2278:
 4282              	.LBE2282:
 4283              	.LBE2285:
 4284              	.LBE2429:
 4285              	.LBE2494:
 4286              		.loc 3 602 3 view .LVU1091
 4287              	.LBB2495:
 4288              	.LBB2430:
 4289              	.LBB2286:
 4290              	.LBB2283:
 4291              	.LBB2281:
 4292              	.LBB2279:
 4293              	.LBI2279:
 4294              		.loc 4 262 57 view .LVU1092
 4295              	.LBB2280:
 4296              		.loc 4 264 3 view .LVU1093
 4297              		.syntax unified
ARM GAS  /tmp/ccCget5K.s 			page 77


 4298              	@ 264 "../../../os/common/ext/CMSIS/include/cmsis_gcc.h" 1
 4299 01c0 88F31188 		MSR basepri, r8
 4300              	@ 0 "" 2
 4301              	.LVL183:
 4302              		.loc 4 264 3 is_stmt 0 view .LVU1094
 4303              		.thumb
 4304              		.syntax unified
 4305              	.LBE2280:
 4306              	.LBE2279:
 4307              	.LBE2281:
 4308              	.LBE2283:
 4309              	.LBE2286:
 4310              	.LBE2430:
 4311              	.LBE2495:
 4312              		.loc 2 377 34 is_stmt 1 view .LVU1095
 4313              		.loc 2 378 20 view .LVU1096
 4314              	.LBB2496:
 4315              	.LBB2431:
 4316              		.loc 1 146 5 view .LVU1097
 4317              	.LBB2287:
 4318              	.LBI2287:
 4319              		.loc 5 153 21 view .LVU1098
 4320              	.LBB2288:
 4321              		.loc 5 155 21 view .LVU1099
 4322              		.loc 5 157 3 view .LVU1100
 4323              		.loc 5 157 3 is_stmt 0 view .LVU1101
 4324              	.LBE2288:
 4325              	.LBE2287:
 4326              		.loc 1 146 5 view .LVU1102
 4327 01c4 2069     		ldr	r0, [r4, #16]
 4328 01c6 5849     		ldr	r1, .L68+40
 4329 01c8 A0F1040E 		sub	lr, r0, #4
 4330 01cc DEF10000 		rsbs	r0, lr, #0
 4331 01d0 40EB0E00 		adc	r0, r0, lr
 4332 01d4 FFF7FEFF 		bl	_test_assert
 4333              	.LVL184:
 4334 01d8 0546     		mov	r5, r0
 4335 01da 10B1     		cbz	r0, .L57
 4336              		.loc 1 146 5 is_stmt 1 view .LVU1103
 4337              	.LBB2289:
 4338              	.LBI2289:
 4339              		.loc 6 502 20 view .LVU1104
 4340              	.LBE2289:
 4341              	.LBE2431:
 4342              	.LBE2496:
 4343              		.loc 6 504 3 view .LVU1105
 4344              	.LBB2497:
 4345              	.LBB2432:
 4346              	.LBB2298:
 4347              	.LBB2290:
 4348              	.LBI2290:
 4349              		.loc 2 386 20 view .LVU1106
 4350              	.LBB2291:
 4351              		.loc 2 388 22 view .LVU1107
 4352              		.loc 2 389 33 view .LVU1108
 4353              		.loc 2 395 3 view .LVU1109
 4354              		.loc 2 395 3 view .LVU1110
ARM GAS  /tmp/ccCget5K.s 			page 78


 4355              		.loc 2 395 3 view .LVU1111
 4356              		.loc 2 399 3 view .LVU1112
 4357              	.LBB2292:
 4358              	.LBI2292:
 4359              		.loc 3 618 20 view .LVU1113
 4360              	.LBE2292:
 4361              	.LBE2291:
 4362              	.LBE2290:
 4363              	.LBE2298:
 4364              	.LBE2432:
 4365              	.LBE2497:
 4366              		.loc 3 621 3 view .LVU1114
 4367              	.LVL185:
 4368              	.LBB2498:
 4369              	.LBB2433:
 4370              	.LBB2299:
 4371              	.LBB2297:
 4372              	.LBB2296:
 4373              	.LBB2295:
 4374              	.LBB2293:
 4375              	.LBI2293:
 4376              		.loc 4 262 57 view .LVU1115
 4377              	.LBB2294:
 4378              		.loc 4 264 3 view .LVU1116
 4379              		.syntax unified
 4380              	@ 264 "../../../os/common/ext/CMSIS/include/cmsis_gcc.h" 1
 4381 01dc 86F31188 		MSR basepri, r6
 4382              	@ 0 "" 2
 4383              	.LVL186:
 4384              		.loc 4 264 3 is_stmt 0 view .LVU1117
 4385              		.thumb
 4386              		.syntax unified
 4387              	.LBE2294:
 4388              	.LBE2293:
 4389              	.LBE2295:
 4390              	.LBE2296:
 4391              	.LBE2297:
 4392              	.LBE2299:
 4393              		.loc 1 146 5 is_stmt 1 view .LVU1118
 4394 01e0 2AE7     		b	.L45
 4395              	.L57:
 4396              		.loc 1 146 5 view .LVU1119
 4397              	.LBB2300:
 4398              	.LBI2300:
 4399              		.loc 6 502 20 view .LVU1120
 4400              	.LBE2300:
 4401              	.LBE2433:
 4402              	.LBE2498:
 4403              		.loc 6 504 3 view .LVU1121
 4404              	.LBB2499:
 4405              	.LBB2434:
 4406              	.LBB2309:
 4407              	.LBB2301:
 4408              	.LBI2301:
 4409              		.loc 2 386 20 view .LVU1122
 4410              	.LBB2302:
 4411              		.loc 2 388 22 view .LVU1123
ARM GAS  /tmp/ccCget5K.s 			page 79


 4412              		.loc 2 389 33 view .LVU1124
 4413              		.loc 2 395 3 view .LVU1125
 4414              		.loc 2 395 3 view .LVU1126
 4415              		.loc 2 395 3 view .LVU1127
 4416              		.loc 2 399 3 view .LVU1128
 4417              	.LBB2303:
 4418              	.LBI2303:
 4419              		.loc 3 618 20 view .LVU1129
 4420              	.LBE2303:
 4421              	.LBE2302:
 4422              	.LBE2301:
 4423              	.LBE2309:
 4424              	.LBE2434:
 4425              	.LBE2499:
 4426              		.loc 3 621 3 view .LVU1130
 4427              	.LVL187:
 4428              	.LBB2500:
 4429              	.LBB2435:
 4430              	.LBB2310:
 4431              	.LBB2308:
 4432              	.LBB2307:
 4433              	.LBB2306:
 4434              	.LBB2304:
 4435              	.LBI2304:
 4436              		.loc 4 262 57 view .LVU1131
 4437              	.LBB2305:
 4438              		.loc 4 264 3 view .LVU1132
 4439              		.syntax unified
 4440              	@ 264 "../../../os/common/ext/CMSIS/include/cmsis_gcc.h" 1
 4441 01e2 80F31188 		MSR basepri, r0
 4442              	@ 0 "" 2
 4443              	.LVL188:
 4444              		.loc 4 264 3 is_stmt 0 view .LVU1133
 4445              		.thumb
 4446              		.syntax unified
 4447              	.LBE2305:
 4448              	.LBE2304:
 4449              	.LBE2306:
 4450              	.LBE2307:
 4451              	.LBE2308:
 4452              	.LBE2310:
 4453              		.loc 1 146 69 is_stmt 1 view .LVU1134
 4454              		.loc 1 147 5 view .LVU1135
 4455              	.LBB2311:
 4456              	.LBI2311:
 4457              		.loc 6 491 20 view .LVU1136
 4458              	.LBE2311:
 4459              	.LBE2435:
 4460              	.LBE2500:
 4461              		.loc 6 493 3 view .LVU1137
 4462              	.LBB2501:
 4463              	.LBB2436:
 4464              	.LBB2319:
 4465              	.LBB2312:
 4466              	.LBI2312:
 4467              		.loc 2 374 20 view .LVU1138
 4468              	.LBE2312:
ARM GAS  /tmp/ccCget5K.s 			page 80


 4469              	.LBE2319:
 4470              	.LBE2436:
 4471              	.LBE2501:
 4472              		.loc 2 376 3 view .LVU1139
 4473              	.LBB2502:
 4474              	.LBB2437:
 4475              	.LBB2320:
 4476              	.LBB2317:
 4477              	.LBB2313:
 4478              	.LBI2313:
 4479              		.loc 3 594 20 view .LVU1140
 4480              	.LBE2313:
 4481              	.LBE2317:
 4482              	.LBE2320:
 4483              	.LBE2437:
 4484              	.LBE2502:
 4485              		.loc 3 602 3 view .LVU1141
 4486              	.LBB2503:
 4487              	.LBB2438:
 4488              	.LBB2321:
 4489              	.LBB2318:
 4490              	.LBB2316:
 4491              	.LBB2314:
 4492              	.LBI2314:
 4493              		.loc 4 262 57 view .LVU1142
 4494              	.LBB2315:
 4495              		.loc 4 264 3 view .LVU1143
 4496              		.syntax unified
 4497              	@ 264 "../../../os/common/ext/CMSIS/include/cmsis_gcc.h" 1
 4498 01e6 88F31188 		MSR basepri, r8
 4499              	@ 0 "" 2
 4500              	.LVL189:
 4501              		.loc 4 264 3 is_stmt 0 view .LVU1144
 4502              		.thumb
 4503              		.syntax unified
 4504              	.LBE2315:
 4505              	.LBE2314:
 4506              	.LBE2316:
 4507              	.LBE2318:
 4508              	.LBE2321:
 4509              	.LBE2438:
 4510              	.LBE2503:
 4511              		.loc 2 377 34 is_stmt 1 view .LVU1145
 4512              		.loc 2 378 20 view .LVU1146
 4513              	.LBB2504:
 4514              	.LBB2439:
 4515              		.loc 1 147 5 view .LVU1147
 4516 01ea D4E90230 		ldrd	r3, r0, [r4, #8]
 4517 01ee A0EB030C 		sub	ip, r0, r3
 4518 01f2 DCF10000 		rsbs	r0, ip, #0
 4519 01f6 40EB0C00 		adc	r0, r0, ip
 4520 01fa 4C49     		ldr	r1, .L68+44
 4521 01fc FFF7FEFF 		bl	_test_assert
 4522              	.LVL190:
 4523 0200 0028     		cmp	r0, #0
 4524 0202 7FF448AF 		bne	.L67
 4525              		.loc 1 147 5 view .LVU1148
ARM GAS  /tmp/ccCget5K.s 			page 81


 4526              	.LBB2322:
 4527              	.LBI2322:
 4528              		.loc 6 502 20 view .LVU1149
 4529              	.LBE2322:
 4530              	.LBE2439:
 4531              	.LBE2504:
 4532              		.loc 6 504 3 view .LVU1150
 4533              	.LBB2505:
 4534              	.LBB2440:
 4535              	.LBB2331:
 4536              	.LBB2323:
 4537              	.LBI2323:
 4538              		.loc 2 386 20 view .LVU1151
 4539              	.LBB2324:
 4540              		.loc 2 388 22 view .LVU1152
 4541              		.loc 2 389 33 view .LVU1153
 4542              		.loc 2 395 3 view .LVU1154
 4543              		.loc 2 395 3 view .LVU1155
 4544              		.loc 2 395 3 view .LVU1156
 4545              		.loc 2 399 3 view .LVU1157
 4546              	.LBB2325:
 4547              	.LBI2325:
 4548              		.loc 3 618 20 view .LVU1158
 4549              	.LBE2325:
 4550              	.LBE2324:
 4551              	.LBE2323:
 4552              	.LBE2331:
 4553              	.LBE2440:
 4554              	.LBE2505:
 4555              		.loc 3 621 3 view .LVU1159
 4556              	.LVL191:
 4557              	.LBB2506:
 4558              	.LBB2441:
 4559              	.LBB2332:
 4560              	.LBB2330:
 4561              	.LBB2329:
 4562              	.LBB2328:
 4563              	.LBB2326:
 4564              	.LBI2326:
 4565              		.loc 4 262 57 view .LVU1160
 4566              	.LBB2327:
 4567              		.loc 4 264 3 view .LVU1161
 4568              		.syntax unified
 4569              	@ 264 "../../../os/common/ext/CMSIS/include/cmsis_gcc.h" 1
 4570 0206 80F31188 		MSR basepri, r0
 4571              	@ 0 "" 2
 4572              	.LVL192:
 4573              		.loc 4 264 3 is_stmt 0 view .LVU1162
 4574              		.thumb
 4575              		.syntax unified
 4576              	.LBE2327:
 4577              	.LBE2326:
 4578              	.LBE2328:
 4579              	.LBE2329:
 4580              	.LBE2330:
 4581              	.LBE2332:
 4582              		.loc 1 147 69 is_stmt 1 view .LVU1163
ARM GAS  /tmp/ccCget5K.s 			page 82


 4583              		.loc 1 152 3 view .LVU1164
 4584 020a 0623     		movs	r3, #6
 4585              		.loc 1 155 14 is_stmt 0 view .LVU1165
 4586 020c DFF8F480 		ldr	r8, .L68+4
 4587              		.loc 1 156 7 view .LVU1166
 4588 0210 434E     		ldr	r6, .L68+32
 4589              		.loc 1 152 3 view .LVU1167
 4590 0212 3B60     		str	r3, [r7]
 4591              		.loc 1 154 5 is_stmt 1 view .LVU1168
 4592              	.LVL193:
 4593              		.loc 1 154 17 view .LVU1169
 4594              		.loc 1 152 3 is_stmt 0 view .LVU1170
 4595 0214 0425     		movs	r5, #4
 4596              	.LVL194:
 4597              	.L59:
 4598              		.loc 1 155 7 is_stmt 1 view .LVU1171
 4599              		.loc 1 155 14 is_stmt 0 view .LVU1172
 4600 0216 01A9     		add	r1, sp, #4
 4601 0218 4FF0FF32 		mov	r2, #-1
 4602 021c 4046     		mov	r0, r8
 4603 021e FFF7FEFF 		bl	chMBFetch
 4604              	.LVL195:
 4605              		.loc 1 156 7 is_stmt 1 view .LVU1173
 4606 0222 B0FA80F0 		clz	r0, r0
 4607              	.LVL196:
 4608              		.loc 1 156 7 is_stmt 0 view .LVU1174
 4609 0226 3146     		mov	r1, r6
 4610 0228 4009     		lsrs	r0, r0, #5
 4611 022a FFF7FEFF 		bl	_test_assert
 4612              	.LVL197:
 4613              		.loc 1 156 59 is_stmt 1 view .LVU1175
 4614              		.loc 1 157 7 view .LVU1176
 4615              		.loc 1 156 7 is_stmt 0 view .LVU1177
 4616 022e 0028     		cmp	r0, #0
 4617 0230 7FF402AF 		bne	.L45
 4618              		.loc 1 157 7 view .LVU1178
 4619 0234 9DF80400 		ldrb	r0, [sp, #4]	@ zero_extendqisi2
 4620 0238 FFF7FEFF 		bl	test_emit_token
 4621              	.LVL198:
 4622              		.loc 1 154 30 is_stmt 1 view .LVU1179
 4623              		.loc 1 154 17 view .LVU1180
 4624              		.loc 1 154 5 is_stmt 0 view .LVU1181
 4625 023c 013D     		subs	r5, r5, #1
 4626              	.LVL199:
 4627              		.loc 1 154 5 view .LVU1182
 4628 023e EAD1     		bne	.L59
 4629              		.loc 1 159 5 is_stmt 1 view .LVU1183
 4630 0240 3B49     		ldr	r1, .L68+48
 4631 0242 3C48     		ldr	r0, .L68+52
 4632 0244 FFF7FEFF 		bl	_test_assert_sequence
 4633              	.LVL200:
 4634 0248 0028     		cmp	r0, #0
 4635 024a 7FF4F5AE 		bne	.L45
 4636              		.loc 1 159 55 view .LVU1184
 4637              		.loc 1 164 3 view .LVU1185
 4638 024e 0723     		movs	r3, #7
 4639              		.loc 1 166 12 is_stmt 0 view .LVU1186
ARM GAS  /tmp/ccCget5K.s 			page 83


 4640 0250 4621     		movs	r1, #70
 4641 0252 2C48     		ldr	r0, .L68+4
 4642              		.loc 1 164 3 view .LVU1187
 4643 0254 3B60     		str	r3, [r7]
 4644              		.loc 1 166 5 is_stmt 1 view .LVU1188
 4645              		.loc 1 166 12 is_stmt 0 view .LVU1189
 4646 0256 4FF0FF32 		mov	r2, #-1
 4647 025a FFF7FEFF 		bl	chMBPost
 4648              	.LVL201:
 4649              		.loc 1 167 5 is_stmt 1 view .LVU1190
 4650 025e B0FA80F0 		clz	r0, r0
 4651              	.LVL202:
 4652              		.loc 1 167 5 is_stmt 0 view .LVU1191
 4653 0262 2F49     		ldr	r1, .L68+32
 4654 0264 4009     		lsrs	r0, r0, #5
 4655 0266 FFF7FEFF 		bl	_test_assert
 4656              	.LVL203:
 4657 026a 0028     		cmp	r0, #0
 4658 026c 7FF4E4AE 		bne	.L45
 4659              		.loc 1 167 57 is_stmt 1 view .LVU1192
 4660              		.loc 1 168 5 view .LVU1193
 4661              		.loc 1 168 12 is_stmt 0 view .LVU1194
 4662 0270 01A9     		add	r1, sp, #4
 4663 0272 2448     		ldr	r0, .L68+4
 4664 0274 4FF0FF32 		mov	r2, #-1
 4665 0278 FFF7FEFF 		bl	chMBFetch
 4666              	.LVL204:
 4667              		.loc 1 169 5 is_stmt 1 view .LVU1195
 4668 027c B0FA80F0 		clz	r0, r0
 4669              	.LVL205:
 4670              		.loc 1 169 5 is_stmt 0 view .LVU1196
 4671 0280 2749     		ldr	r1, .L68+32
 4672 0282 4009     		lsrs	r0, r0, #5
 4673 0284 FFF7FEFF 		bl	_test_assert
 4674              	.LVL206:
 4675 0288 0028     		cmp	r0, #0
 4676 028a 7FF4D5AE 		bne	.L45
 4677              		.loc 1 169 57 is_stmt 1 view .LVU1197
 4678              		.loc 1 174 3 view .LVU1198
 4679 028e 0823     		movs	r3, #8
 4680 0290 3B60     		str	r3, [r7]
 4681              		.loc 1 176 5 view .LVU1199
 4682              	.LBB2333:
 4683              	.LBI2333:
 4684              		.loc 6 491 20 view .LVU1200
 4685              	.LBE2333:
 4686              	.LBE2441:
 4687              	.LBE2506:
 4688              		.loc 6 493 3 view .LVU1201
 4689              	.LBB2507:
 4690              	.LBB2442:
 4691              	.LBB2341:
 4692              	.LBB2334:
 4693              	.LBI2334:
 4694              		.loc 2 374 20 view .LVU1202
 4695              	.LBE2334:
 4696              	.LBE2341:
ARM GAS  /tmp/ccCget5K.s 			page 84


 4697              	.LBE2442:
 4698              	.LBE2507:
 4699              		.loc 2 376 3 view .LVU1203
 4700              	.LBB2508:
 4701              	.LBB2443:
 4702              	.LBB2342:
 4703              	.LBB2339:
 4704              	.LBB2335:
 4705              	.LBI2335:
 4706              		.loc 3 594 20 view .LVU1204
 4707              	.LBE2335:
 4708              	.LBE2339:
 4709              	.LBE2342:
 4710              	.LBE2443:
 4711              	.LBE2508:
 4712              		.loc 3 602 3 view .LVU1205
 4713              	.LVL207:
 4714              	.LBB2509:
 4715              	.LBB2444:
 4716              	.LBB2343:
 4717              	.LBB2340:
 4718              	.LBB2338:
 4719              	.LBB2336:
 4720              	.LBI2336:
 4721              		.loc 4 262 57 view .LVU1206
 4722              	.LBB2337:
 4723              		.loc 4 264 3 view .LVU1207
 4724 0292 2026     		movs	r6, #32
 4725              		.syntax unified
 4726              	@ 264 "../../../os/common/ext/CMSIS/include/cmsis_gcc.h" 1
 4727 0294 86F31188 		MSR basepri, r6
 4728              	@ 0 "" 2
 4729              	.LVL208:
 4730              		.loc 4 264 3 is_stmt 0 view .LVU1208
 4731              		.thumb
 4732              		.syntax unified
 4733              	.LBE2337:
 4734              	.LBE2336:
 4735              	.LBE2338:
 4736              	.LBE2340:
 4737              	.LBE2343:
 4738              	.LBE2444:
 4739              	.LBE2509:
 4740              		.loc 2 377 34 is_stmt 1 view .LVU1209
 4741              		.loc 2 378 20 view .LVU1210
 4742              	.LBB2510:
 4743              	.LBB2445:
 4744              		.loc 1 176 5 view .LVU1211
 4745              	.LBB2344:
 4746              	.LBI2344:
 4747              		.loc 5 168 21 view .LVU1212
 4748              	.LBB2345:
 4749              		.loc 5 170 21 view .LVU1213
 4750              		.loc 5 172 3 view .LVU1214
 4751              	.LBB2346:
 4752              	.LBI2346:
 4753              		.loc 5 136 21 view .LVU1215
ARM GAS  /tmp/ccCget5K.s 			page 85


 4754              	.LBB2347:
 4755              		.loc 5 140 3 view .LVU1216
 4756              		.loc 5 140 3 is_stmt 0 view .LVU1217
 4757              	.LBE2347:
 4758              	.LBE2346:
 4759              	.LBB2349:
 4760              	.LBI2349:
 4761              		.loc 5 153 21 is_stmt 1 view .LVU1218
 4762              	.LBB2350:
 4763              		.loc 5 155 21 view .LVU1219
 4764              		.loc 5 157 3 view .LVU1220
 4765              		.loc 5 157 3 is_stmt 0 view .LVU1221
 4766              	.LBE2350:
 4767              	.LBE2349:
 4768              	.LBB2351:
 4769              	.LBB2348:
 4770              		.loc 5 140 27 view .LVU1222
 4771 0298 D4E90023 		ldrd	r2, r3, [r4]
 4772 029c 9A1A     		subs	r2, r3, r2
 4773              	.LBE2348:
 4774              	.LBE2351:
 4775              		.loc 5 172 28 view .LVU1223
 4776 029e 2369     		ldr	r3, [r4, #16]
 4777              	.LBE2345:
 4778              	.LBE2344:
 4779              		.loc 1 176 5 view .LVU1224
 4780 02a0 1A49     		ldr	r1, .L68+12
 4781              	.LBB2353:
 4782              	.LBB2352:
 4783              		.loc 5 172 28 view .LVU1225
 4784 02a2 C3EBA203 		rsb	r3, r3, r2, asr #2
 4785              	.LBE2352:
 4786              	.LBE2353:
 4787              		.loc 1 176 5 view .LVU1226
 4788 02a6 1F1F     		subs	r7, r3, #4
 4789 02a8 7842     		rsbs	r0, r7, #0
 4790 02aa 7841     		adcs	r0, r0, r7
 4791 02ac FFF7FEFF 		bl	_test_assert
 4792              	.LVL209:
 4793 02b0 0028     		cmp	r0, #0
 4794 02b2 7FF4F0AE 		bne	.L67
 4795              		.loc 1 176 5 is_stmt 1 view .LVU1227
 4796              	.LBB2354:
 4797              	.LBI2354:
 4798              		.loc 6 502 20 view .LVU1228
 4799              	.LBE2354:
 4800              	.LBE2445:
 4801              	.LBE2510:
 4802              		.loc 6 504 3 view .LVU1229
 4803              	.LBB2511:
 4804              	.LBB2446:
 4805              	.LBB2363:
 4806              	.LBB2355:
 4807              	.LBI2355:
 4808              		.loc 2 386 20 view .LVU1230
 4809              	.LBB2356:
 4810              		.loc 2 388 22 view .LVU1231
ARM GAS  /tmp/ccCget5K.s 			page 86


 4811              		.loc 2 389 33 view .LVU1232
 4812              		.loc 2 395 3 view .LVU1233
 4813              		.loc 2 395 3 view .LVU1234
 4814              		.loc 2 395 3 view .LVU1235
 4815              		.loc 2 399 3 view .LVU1236
 4816              	.LBB2357:
 4817              	.LBI2357:
 4818              		.loc 3 618 20 view .LVU1237
 4819              	.LBE2357:
 4820              	.LBE2356:
 4821              	.LBE2355:
 4822              	.LBE2363:
 4823              	.LBE2446:
 4824              	.LBE2511:
 4825              		.loc 3 621 3 view .LVU1238
 4826              	.LVL210:
 4827              	.LBB2512:
 4828              	.LBB2447:
 4829              	.LBB2364:
 4830              	.LBB2362:
 4831              	.LBB2361:
 4832              	.LBB2360:
 4833              	.LBB2358:
 4834              	.LBI2358:
 4835              		.loc 4 262 57 view .LVU1239
 4836              	.LBB2359:
 4837              		.loc 4 264 3 view .LVU1240
 4838              		.syntax unified
 4839              	@ 264 "../../../os/common/ext/CMSIS/include/cmsis_gcc.h" 1
 4840 02b6 85F31188 		MSR basepri, r5
 4841              	@ 0 "" 2
 4842              	.LVL211:
 4843              		.loc 4 264 3 is_stmt 0 view .LVU1241
 4844              		.thumb
 4845              		.syntax unified
 4846              	.LBE2359:
 4847              	.LBE2358:
 4848              	.LBE2360:
 4849              	.LBE2361:
 4850              	.LBE2362:
 4851              	.LBE2364:
 4852              		.loc 1 176 70 is_stmt 1 view .LVU1242
 4853              		.loc 1 177 5 view .LVU1243
 4854              	.LBB2365:
 4855              	.LBI2365:
 4856              		.loc 6 491 20 view .LVU1244
 4857              	.LBE2365:
 4858              	.LBE2447:
 4859              	.LBE2512:
 4860              		.loc 6 493 3 view .LVU1245
 4861              	.LBB2513:
 4862              	.LBB2448:
 4863              	.LBB2373:
 4864              	.LBB2366:
 4865              	.LBI2366:
 4866              		.loc 2 374 20 view .LVU1246
 4867              	.LBE2366:
ARM GAS  /tmp/ccCget5K.s 			page 87


 4868              	.LBE2373:
 4869              	.LBE2448:
 4870              	.LBE2513:
 4871              		.loc 2 376 3 view .LVU1247
 4872              	.LBB2514:
 4873              	.LBB2449:
 4874              	.LBB2374:
 4875              	.LBB2371:
 4876              	.LBB2367:
 4877              	.LBI2367:
 4878              		.loc 3 594 20 view .LVU1248
 4879              	.LBE2367:
 4880              	.LBE2371:
 4881              	.LBE2374:
 4882              	.LBE2449:
 4883              	.LBE2514:
 4884              		.loc 3 602 3 view .LVU1249
 4885              	.LBB2515:
 4886              	.LBB2450:
 4887              	.LBB2375:
 4888              	.LBB2372:
 4889              	.LBB2370:
 4890              	.LBB2368:
 4891              	.LBI2368:
 4892              		.loc 4 262 57 view .LVU1250
 4893              	.LBB2369:
 4894              		.loc 4 264 3 view .LVU1251
 4895              		.syntax unified
 4896              	@ 264 "../../../os/common/ext/CMSIS/include/cmsis_gcc.h" 1
 4897 02ba 86F31188 		MSR basepri, r6
 4898              	@ 0 "" 2
 4899              	.LVL212:
 4900              		.loc 4 264 3 is_stmt 0 view .LVU1252
 4901              		.thumb
 4902              		.syntax unified
 4903              	.LBE2369:
 4904              	.LBE2368:
 4905              	.LBE2370:
 4906              	.LBE2372:
 4907              	.LBE2375:
 4908              	.LBE2450:
 4909              	.LBE2515:
 4910              		.loc 2 377 34 is_stmt 1 view .LVU1253
 4911              		.loc 2 378 20 view .LVU1254
 4912              	.LBB2516:
 4913              	.LBB2451:
 4914              		.loc 1 177 5 view .LVU1255
 4915              	.LBB2376:
 4916              	.LBI2376:
 4917              		.loc 5 153 21 view .LVU1256
 4918              	.LBB2377:
 4919              		.loc 5 155 21 view .LVU1257
 4920              		.loc 5 157 3 view .LVU1258
 4921              		.loc 5 157 3 is_stmt 0 view .LVU1259
 4922              	.LBE2377:
 4923              	.LBE2376:
 4924              		.loc 1 177 5 view .LVU1260
ARM GAS  /tmp/ccCget5K.s 			page 88


 4925 02be 2069     		ldr	r0, [r4, #16]
 4926 02c0 1349     		ldr	r1, .L68+16
 4927 02c2 B0FA80F0 		clz	r0, r0
 4928 02c6 4009     		lsrs	r0, r0, #5
 4929 02c8 FFF7FEFF 		bl	_test_assert
 4930              	.LVL213:
 4931 02cc 0028     		cmp	r0, #0
 4932 02ce 7FF4E2AE 		bne	.L67
 4933              		.loc 1 177 5 is_stmt 1 view .LVU1261
 4934              	.LBB2378:
 4935              	.LBI2378:
 4936              		.loc 6 502 20 view .LVU1262
 4937              	.LBE2378:
 4938              	.LBE2451:
 4939              	.LBE2516:
 4940              		.loc 6 504 3 view .LVU1263
 4941              	.LBB2517:
 4942              	.LBB2452:
 4943              	.LBB2387:
 4944              	.LBB2379:
 4945              	.LBI2379:
 4946              		.loc 2 386 20 view .LVU1264
 4947              	.LBB2380:
 4948              		.loc 2 388 22 view .LVU1265
 4949              		.loc 2 389 33 view .LVU1266
 4950              		.loc 2 395 3 view .LVU1267
 4951              		.loc 2 395 3 view .LVU1268
 4952              		.loc 2 395 3 view .LVU1269
 4953              		.loc 2 399 3 view .LVU1270
 4954              	.LBB2381:
 4955              	.LBI2381:
 4956              		.loc 3 618 20 view .LVU1271
 4957              	.LBE2381:
 4958              	.LBE2380:
 4959              	.LBE2379:
 4960              	.LBE2387:
 4961              	.LBE2452:
 4962              	.LBE2517:
 4963              		.loc 3 621 3 view .LVU1272
 4964              	.LVL214:
 4965              	.LBB2518:
 4966              	.LBB2453:
 4967              	.LBB2388:
 4968              	.LBB2386:
 4969              	.LBB2385:
 4970              	.LBB2384:
 4971              	.LBB2382:
 4972              	.LBI2382:
 4973              		.loc 4 262 57 view .LVU1273
 4974              	.LBB2383:
 4975              		.loc 4 264 3 view .LVU1274
 4976              		.syntax unified
 4977              	@ 264 "../../../os/common/ext/CMSIS/include/cmsis_gcc.h" 1
 4978 02d2 85F31188 		MSR basepri, r5
 4979              	@ 0 "" 2
 4980              	.LVL215:
 4981              		.loc 4 264 3 is_stmt 0 view .LVU1275
ARM GAS  /tmp/ccCget5K.s 			page 89


 4982              		.thumb
 4983              		.syntax unified
 4984              	.LBE2383:
 4985              	.LBE2382:
 4986              	.LBE2384:
 4987              	.LBE2385:
 4988              	.LBE2386:
 4989              	.LBE2388:
 4990              		.loc 1 177 65 is_stmt 1 view .LVU1276
 4991              		.loc 1 178 5 view .LVU1277
 4992 02d6 2068     		ldr	r0, [r4]
 4993 02d8 A368     		ldr	r3, [r4, #8]
 4994 02da 0E49     		ldr	r1, .L68+20
 4995 02dc C21A     		subs	r2, r0, r3
 4996 02de 5042     		rsbs	r0, r2, #0
 4997 02e0 5041     		adcs	r0, r0, r2
 4998 02e2 FFF7FEFF 		bl	_test_assert
 4999              	.LVL216:
 5000 02e6 0028     		cmp	r0, #0
 5001 02e8 7FF4A6AE 		bne	.L45
 5002              		.loc 1 178 78 view .LVU1278
 5003              		.loc 1 179 5 view .LVU1279
 5004 02ec 2068     		ldr	r0, [r4]
 5005 02ee E368     		ldr	r3, [r4, #12]
 5006 02f0 0949     		ldr	r1, .L68+24
 5007 02f2 C31A     		subs	r3, r0, r3
 5008 02f4 5842     		rsbs	r0, r3, #0
 5009 02f6 5841     		adcs	r0, r0, r3
 5010 02f8 FFF7FEFF 		bl	_test_assert
 5011              	.LVL217:
 5012              		.loc 1 179 5 view .LVU1280
 5013              		.loc 1 179 5 is_stmt 0 view .LVU1281
 5014 02fc 9CE6     		b	.L45
 5015              	.L69:
 5016 02fe 00BF     		.align	2
 5017              	.L68:
 5018 0300 00000000 		.word	test_step
 5019 0304 00000000 		.word	.LANCHOR0
 5020 0308 00000000 		.word	.LC1
 5021 030c 0C000000 		.word	.LC2
 5022 0310 18000000 		.word	.LC3
 5023 0314 24000000 		.word	.LC4
 5024 0318 48000000 		.word	.LC5
 5025 031c 00000000 		.word	.LC11
 5026 0320 00000000 		.word	.LC0
 5027 0324 6C000000 		.word	.LC6
 5028 0328 78000000 		.word	.LC7
 5029 032c 84000000 		.word	.LC8
 5030 0330 9C000000 		.word	.LC9
 5031 0334 B0000000 		.word	.LC10
 5032              	.LBE2453:
 5033              	.LBE2518:
 5034              		.cfi_endproc
 5035              	.LFE279:
 5036              		.size	test_008_001_execute, .-test_008_001_execute
 5037              		.section	.text.test_008_003_teardown,"ax",%progbits
 5038              		.align	1
ARM GAS  /tmp/ccCget5K.s 			page 90


 5039              		.p2align 4,,15
 5040              		.syntax unified
 5041              		.thumb
 5042              		.thumb_func
 5043              		.fpu softvfp
 5044              		.type	test_008_003_teardown, %function
 5045              	test_008_003_teardown:
 5046              	.LFB295:
 5047              		.cfi_startproc
 5048              		@ args = 0, pretend = 0, frame = 0
 5049              		@ frame_needed = 0, uses_anonymous_args = 0
 5050              		@ link register save eliminated.
 5051 0000 0148     		ldr	r0, .L71
 5052 0002 FFF7FEBF 		b	chMBReset
 5053              	.L72:
 5054 0006 00BF     		.align	2
 5055              	.L71:
 5056 0008 00000000 		.word	.LANCHOR0
 5057              		.cfi_endproc
 5058              	.LFE295:
 5059              		.size	test_008_003_teardown, .-test_008_003_teardown
 5060              		.section	.text.test_008_002_teardown,"ax",%progbits
 5061              		.align	1
 5062              		.p2align 4,,15
 5063              		.syntax unified
 5064              		.thumb
 5065              		.thumb_func
 5066              		.fpu softvfp
 5067              		.type	test_008_002_teardown, %function
 5068              	test_008_002_teardown:
 5069              	.LFB293:
 5070              		.cfi_startproc
 5071              		@ args = 0, pretend = 0, frame = 0
 5072              		@ frame_needed = 0, uses_anonymous_args = 0
 5073              		@ link register save eliminated.
 5074 0000 0148     		ldr	r0, .L74
 5075 0002 FFF7FEBF 		b	chMBReset
 5076              	.L75:
 5077 0006 00BF     		.align	2
 5078              	.L74:
 5079 0008 00000000 		.word	.LANCHOR0
 5080              		.cfi_endproc
 5081              	.LFE293:
 5082              		.size	test_008_002_teardown, .-test_008_002_teardown
 5083              		.section	.text.test_008_002_setup,"ax",%progbits
 5084              		.align	1
 5085              		.p2align 4,,15
 5086              		.syntax unified
 5087              		.thumb
 5088              		.thumb_func
 5089              		.fpu softvfp
 5090              		.type	test_008_002_setup, %function
 5091              	test_008_002_setup:
 5092              	.LFB289:
 5093              		.cfi_startproc
 5094              		@ args = 0, pretend = 0, frame = 0
 5095              		@ frame_needed = 0, uses_anonymous_args = 0
ARM GAS  /tmp/ccCget5K.s 			page 91


 5096              		@ link register save eliminated.
 5097 0000 0249     		ldr	r1, .L77
 5098 0002 0348     		ldr	r0, .L77+4
 5099 0004 0422     		movs	r2, #4
 5100 0006 FFF7FEBF 		b	chMBObjectInit
 5101              	.L78:
 5102 000a 00BF     		.align	2
 5103              	.L77:
 5104 000c 00000000 		.word	.LANCHOR1
 5105 0010 00000000 		.word	.LANCHOR0
 5106              		.cfi_endproc
 5107              	.LFE289:
 5108              		.size	test_008_002_setup, .-test_008_002_setup
 5109              		.section	.text.test_008_003_setup,"ax",%progbits
 5110              		.align	1
 5111              		.p2align 4,,15
 5112              		.syntax unified
 5113              		.thumb
 5114              		.thumb_func
 5115              		.fpu softvfp
 5116              		.type	test_008_003_setup, %function
 5117              	test_008_003_setup:
 5118              	.LFB291:
 5119              		.cfi_startproc
 5120              		@ args = 0, pretend = 0, frame = 0
 5121              		@ frame_needed = 0, uses_anonymous_args = 0
 5122              		@ link register save eliminated.
 5123 0000 0249     		ldr	r1, .L80
 5124 0002 0348     		ldr	r0, .L80+4
 5125 0004 0422     		movs	r2, #4
 5126 0006 FFF7FEBF 		b	chMBObjectInit
 5127              	.L81:
 5128 000a 00BF     		.align	2
 5129              	.L80:
 5130 000c 00000000 		.word	.LANCHOR1
 5131 0010 00000000 		.word	.LANCHOR0
 5132              		.cfi_endproc
 5133              	.LFE291:
 5134              		.size	test_008_003_setup, .-test_008_003_setup
 5135              		.global	test_sequence_008
 5136              		.section	.rodata.str1.4,"aMS",%progbits,1
 5137              		.align	2
 5138              	.LC12:
 5139 0000 4D61696C 		.ascii	"Mailbox timeouts\000"
 5139      626F7820 
 5139      74696D65 
 5139      6F757473 
 5139      00
 5140 0011 000000   		.align	2
 5141              	.LC13:
 5142 0014 4D61696C 		.ascii	"Mailbox I-Class API, non-blocking tests\000"
 5142      626F7820 
 5142      492D436C 
 5142      61737320 
 5142      4150492C 
 5143              		.align	2
 5144              	.LC14:
ARM GAS  /tmp/ccCget5K.s 			page 92


 5145 003c 4D61696C 		.ascii	"Mailbox normal API, non-blocking tests\000"
 5145      626F7820 
 5145      6E6F726D 
 5145      616C2041 
 5145      50492C20 
 5146              		.section	.bss.mb_buffer,"aw",%nobits
 5147              		.align	2
 5148              		.set	.LANCHOR1,. + 0
 5149              		.type	mb_buffer, %object
 5150              		.size	mb_buffer, 16
 5151              	mb_buffer:
 5152 0000 00000000 		.space	16
 5152      00000000 
 5152      00000000 
 5152      00000000 
 5153              		.section	.data.mb1,"aw"
 5154              		.align	2
 5155              		.set	.LANCHOR0,. + 0
 5156              		.type	mb1, %object
 5157              		.size	mb1, 40
 5158              	mb1:
 5159 0000 00000000 		.word	mb_buffer
 5160 0004 10000000 		.word	mb_buffer+16
 5161 0008 00000000 		.word	mb_buffer
 5162 000c 00000000 		.word	mb_buffer
 5163 0010 00000000 		.word	0
 5164 0014 00       		.byte	0
 5165 0015 000000   		.space	3
 5166 0018 18000000 		.word	mb1+24
 5167 001c 18000000 		.word	mb1+24
 5168 0020 20000000 		.word	mb1+32
 5169 0024 20000000 		.word	mb1+32
 5170              		.section	.rodata.test_008_001,"a"
 5171              		.align	2
 5172              		.type	test_008_001, %object
 5173              		.size	test_008_001, 16
 5174              	test_008_001:
 5175 0000 3C000000 		.word	.LC14
 5176 0004 00000000 		.word	test_008_001_setup
 5177 0008 00000000 		.word	test_008_001_teardown
 5178 000c 00000000 		.word	test_008_001_execute
 5179              		.section	.rodata.test_008_002,"a"
 5180              		.align	2
 5181              		.type	test_008_002, %object
 5182              		.size	test_008_002, 16
 5183              	test_008_002:
 5184 0000 14000000 		.word	.LC13
 5185 0004 00000000 		.word	test_008_002_setup
 5186 0008 00000000 		.word	test_008_002_teardown
 5187 000c 00000000 		.word	test_008_002_execute
 5188              		.section	.rodata.test_008_003,"a"
 5189              		.align	2
 5190              		.type	test_008_003, %object
 5191              		.size	test_008_003, 16
 5192              	test_008_003:
 5193 0000 00000000 		.word	.LC12
 5194 0004 00000000 		.word	test_008_003_setup
ARM GAS  /tmp/ccCget5K.s 			page 93


 5195 0008 00000000 		.word	test_008_003_teardown
 5196 000c 00000000 		.word	test_008_003_execute
 5197              		.section	.rodata.test_sequence_008,"a"
 5198              		.align	2
 5199              		.type	test_sequence_008, %object
 5200              		.size	test_sequence_008, 16
 5201              	test_sequence_008:
 5202 0000 00000000 		.word	test_008_001
 5203 0004 00000000 		.word	test_008_002
 5204 0008 00000000 		.word	test_008_003
 5205 000c 00000000 		.word	0
 5206              		.text
 5207              	.Letext0:
 5208              		.file 7 "/usr/lib/gcc/arm-none-eabi/10.3.1/include/stddef.h"
 5209              		.file 8 "/usr/lib/gcc/arm-none-eabi/10.3.1/include/stdint.h"
 5210              		.file 9 "../../../os/common/ports/ARMCMx/compilers/GCC/chtypes.h"
 5211              		.file 10 "../../../os/rt/include/chsystypes.h"
 5212              		.file 11 "../../../os/rt/include/chschd.h"
 5213              		.file 12 "../../../os/common/ports/ARMCMx/chcore.h"
 5214              		.file 13 "../../../os/rt/include/chsem.h"
 5215              		.file 14 "../../../os/rt/include/chmtx.h"
 5216              		.file 15 "../../../test/lib/ch_test.h"
 5217              		.file 16 "../../../test/rt/source/test/test_sequence_008.h"