ARM GAS  /tmp/ccMrTRpt.s 			page 1


   1              		.cpu cortex-m4
   2              		.eabi_attribute 20, 1
   3              		.eabi_attribute 21, 1
   4              		.eabi_attribute 23, 3
   5              		.eabi_attribute 24, 1
   6              		.eabi_attribute 25, 1
   7              		.eabi_attribute 26, 1
   8              		.eabi_attribute 30, 2
   9              		.eabi_attribute 34, 1
  10              		.eabi_attribute 18, 4
  11              		.file	"test_sequence_005.c"
  12              		.text
  13              	.Ltext0:
  14              		.cfi_sections	.debug_frame
  15              		.section	.text.test_005_004_teardown,"ax",%progbits
  16              		.align	1
  17              		.p2align 4,,15
  18              		.arch armv7e-m
  19              		.syntax unified
  20              		.thumb
  21              		.thumb_func
  22              		.fpu softvfp
  23              		.type	test_005_004_teardown, %function
  24              	test_005_004_teardown:
  25              	.LFB286:
  26              		.file 1 "../../../test/rt/source/test/test_sequence_005.c"
  27              		.loc 1 484 41 view -0
  28              		.cfi_startproc
  29              		@ args = 0, pretend = 0, frame = 0
  30              		@ frame_needed = 0, uses_anonymous_args = 0
  31              		@ link register save eliminated.
  32              		.loc 1 485 3 view .LVU1
  33 0000 FFF7FEBF 		b	test_wait_threads
  34              	.LVL0:
  35              		.cfi_endproc
  36              	.LFE286:
  37              		.size	test_005_004_teardown, .-test_005_004_teardown
  38              		.section	.rodata.test_005_009_execute.str1.4,"aMS",%progbits,1
  39              		.align	2
  40              	.LC0:
  41 0000 4100     		.ascii	"A\000"
  42 0002 0000     		.align	2
  43              	.LC1:
  44 0004 4300     		.ascii	"C\000"
  45 0006 0000     		.align	2
  46              	.LC2:
  47 0008 4200     		.ascii	"B\000"
  48 000a 0000     		.align	2
  49              	.LC3:
  50 000c 696E7661 		.ascii	"invalid sequence\000"
  50      6C696420 
  50      73657175 
  50      656E6365 
  50      00
  51 001d 000000   		.align	2
  52              	.LC4:
  53 0020 41424300 		.ascii	"ABC\000"
ARM GAS  /tmp/ccMrTRpt.s 			page 2


  54              		.section	.text.test_005_009_execute,"ax",%progbits
  55              		.align	1
  56              		.p2align 4,,15
  57              		.syntax unified
  58              		.thumb
  59              		.thumb_func
  60              		.fpu softvfp
  61              		.type	test_005_009_execute, %function
  62              	test_005_009_execute:
  63              	.LFB295:
  64              		.loc 1 975 40 view -0
  65              		.cfi_startproc
  66              		@ args = 0, pretend = 0, frame = 0
  67              		@ frame_needed = 0, uses_anonymous_args = 0
  68              		.loc 1 976 3 view .LVU3
  69              		.loc 1 979 3 view .LVU4
  70              		.loc 1 981 5 view .LVU5
  71              	.LBB102:
  72              	.LBI102:
  73              		.file 2 "../../../os/rt/include/chthreads.h"
  74              		.loc 2 297 23 view .LVU6
  75              	.LBB103:
  76              		.loc 2 299 3 view .LVU7
  77              	.LBB104:
  78              	.LBI104:
  79              		.loc 2 284 25 view .LVU8
  80              	.LBB105:
  81              		.loc 2 286 3 view .LVU9
  82              	.LBE105:
  83              	.LBE104:
  84              	.LBE103:
  85              	.LBE102:
  86              		.loc 1 975 40 is_stmt 0 view .LVU10
  87 0000 F0B5     		push	{r4, r5, r6, r7, lr}
  88              		.cfi_def_cfa_offset 20
  89              		.cfi_offset 4, -20
  90              		.cfi_offset 5, -16
  91              		.cfi_offset 6, -12
  92              		.cfi_offset 7, -8
  93              		.cfi_offset 14, -4
  94              	.LBB111:
  95              	.LBB108:
  96              	.LBB107:
  97              	.LBB106:
  98              		.loc 2 286 18 view .LVU11
  99 0002 214B     		ldr	r3, .L5
 100              	.LBE106:
 101              	.LBE107:
 102              	.LBE108:
 103              	.LBE111:
 104              		.loc 1 986 3 view .LVU12
 105 0004 214C     		ldr	r4, .L5+4
 106              	.LBB112:
 107              	.LBB109:
 108              		.loc 2 299 25 view .LVU13
 109 0006 9B69     		ldr	r3, [r3, #24]
 110              	.LBE109:
ARM GAS  /tmp/ccMrTRpt.s 			page 3


 111              	.LBE112:
 112              		.loc 1 988 18 view .LVU14
 113 0008 214E     		ldr	r6, .L5+8
 114              	.LBB113:
 115              	.LBB110:
 116              		.loc 2 299 25 view .LVU15
 117 000a 9F68     		ldr	r7, [r3, #8]
 118              	.LVL1:
 119              		.loc 2 299 25 view .LVU16
 120              	.LBE110:
 121              	.LBE113:
 122              		.loc 1 986 3 is_stmt 1 view .LVU17
 123              		.loc 1 988 18 is_stmt 0 view .LVU18
 124 000c 2149     		ldr	r1, .L5+12
 125 000e 224B     		ldr	r3, .L5+16
 126 0010 3068     		ldr	r0, [r6]
 127              		.loc 1 988 16 view .LVU19
 128 0012 224D     		ldr	r5, .L5+20
 129              		.loc 1 975 40 view .LVU20
 130 0014 83B0     		sub	sp, sp, #12
 131              		.cfi_def_cfa_offset 32
 132              		.loc 1 986 3 view .LVU21
 133 0016 0222     		movs	r2, #2
 134              		.loc 1 988 18 view .LVU22
 135 0018 0091     		str	r1, [sp]
 136              		.loc 1 986 3 view .LVU23
 137 001a 2260     		str	r2, [r4]
 138              		.loc 1 988 5 is_stmt 1 view .LVU24
 139              		.loc 1 988 18 is_stmt 0 view .LVU25
 140 001c 4FF4A471 		mov	r1, #328
 141 0020 7A1C     		adds	r2, r7, #1
 142 0022 FFF7FEFF 		bl	chThdCreateStatic
 143              	.LVL2:
 144              		.loc 1 993 3 view .LVU26
 145 0026 0323     		movs	r3, #3
 146 0028 2360     		str	r3, [r4]
 147              		.loc 1 995 18 view .LVU27
 148 002a 1D4B     		ldr	r3, .L5+24
 149              		.loc 1 988 16 view .LVU28
 150 002c 2860     		str	r0, [r5]
 151              		.loc 1 993 3 is_stmt 1 view .LVU29
 152              		.loc 1 995 5 view .LVU30
 153              		.loc 1 995 18 is_stmt 0 view .LVU31
 154 002e 0093     		str	r3, [sp]
 155 0030 BA1C     		adds	r2, r7, #2
 156 0032 1C4B     		ldr	r3, .L5+28
 157 0034 7068     		ldr	r0, [r6, #4]
 158 0036 4FF4A471 		mov	r1, #328
 159 003a FFF7FEFF 		bl	chThdCreateStatic
 160              	.LVL3:
 161 003e 0346     		mov	r3, r0
 162              		.loc 1 995 16 view .LVU32
 163 0040 6B60     		str	r3, [r5, #4]
 164              		.loc 1 1000 3 is_stmt 1 view .LVU33
 165 0042 0423     		movs	r3, #4
 166 0044 2360     		str	r3, [r4]
 167              		.loc 1 1002 5 view .LVU34
ARM GAS  /tmp/ccMrTRpt.s 			page 4


 168              		.loc 1 1002 18 is_stmt 0 view .LVU35
 169 0046 184B     		ldr	r3, .L5+32
 170 0048 0093     		str	r3, [sp]
 171 004a FA1C     		adds	r2, r7, #3
 172 004c 4FF4A471 		mov	r1, #328
 173 0050 B068     		ldr	r0, [r6, #8]
 174 0052 164B     		ldr	r3, .L5+36
 175              		.loc 1 1010 5 view .LVU36
 176 0054 164E     		ldr	r6, .L5+40
 177              		.loc 1 1002 18 view .LVU37
 178 0056 FFF7FEFF 		bl	chThdCreateStatic
 179              	.LVL4:
 180              		.loc 1 1008 3 view .LVU38
 181 005a 0523     		movs	r3, #5
 182              		.loc 1 1002 16 view .LVU39
 183 005c A860     		str	r0, [r5, #8]
 184              		.loc 1 1008 3 is_stmt 1 view .LVU40
 185              		.loc 1 1010 5 is_stmt 0 view .LVU41
 186 005e 3046     		mov	r0, r6
 187              		.loc 1 1008 3 view .LVU42
 188 0060 2360     		str	r3, [r4]
 189              		.loc 1 1010 5 is_stmt 1 view .LVU43
 190 0062 FFF7FEFF 		bl	chCondSignal
 191              	.LVL5:
 192              		.loc 1 1014 3 view .LVU44
 193              		.loc 1 1016 5 is_stmt 0 view .LVU45
 194 0066 3046     		mov	r0, r6
 195              		.loc 1 1014 3 view .LVU46
 196 0068 0623     		movs	r3, #6
 197 006a 2360     		str	r3, [r4]
 198              		.loc 1 1016 5 is_stmt 1 view .LVU47
 199 006c FFF7FEFF 		bl	chCondSignal
 200              	.LVL6:
 201              		.loc 1 1020 3 view .LVU48
 202 0070 0723     		movs	r3, #7
 203 0072 2360     		str	r3, [r4]
 204              		.loc 1 1022 5 view .LVU49
 205 0074 FFF7FEFF 		bl	test_wait_threads
 206              	.LVL7:
 207              		.loc 1 1023 5 view .LVU50
 208 0078 0E49     		ldr	r1, .L5+44
 209 007a 0F48     		ldr	r0, .L5+48
 210              		.loc 1 1025 1 is_stmt 0 view .LVU51
 211 007c 03B0     		add	sp, sp, #12
 212              		.cfi_def_cfa_offset 20
 213              		@ sp needed
 214 007e BDE8F040 		pop	{r4, r5, r6, r7, lr}
 215              		.cfi_restore 14
 216              		.cfi_restore 7
 217              		.cfi_restore 6
 218              		.cfi_restore 5
 219              		.cfi_restore 4
 220              		.cfi_def_cfa_offset 0
 221              	.LVL8:
 222              		.loc 1 1023 5 view .LVU52
 223 0082 FFF7FEBF 		b	_test_assert_sequence
 224              	.LVL9:
ARM GAS  /tmp/ccMrTRpt.s 			page 5


 225              	.L6:
 226 0086 00BF     		.align	2
 227              	.L5:
 228 0088 00000000 		.word	ch
 229 008c 00000000 		.word	test_step
 230 0090 00000000 		.word	wa
 231 0094 00000000 		.word	.LC0
 232 0098 00000000 		.word	thread8
 233 009c 00000000 		.word	threads
 234 00a0 04000000 		.word	.LC1
 235 00a4 00000000 		.word	thread6
 236 00a8 08000000 		.word	.LC2
 237 00ac 00000000 		.word	thread9
 238 00b0 00000000 		.word	.LANCHOR0
 239 00b4 0C000000 		.word	.LC3
 240 00b8 20000000 		.word	.LC4
 241              		.cfi_endproc
 242              	.LFE295:
 243              		.size	test_005_009_execute, .-test_005_009_execute
 244              		.section	.text.thread9,"ax",%progbits
 245              		.align	1
 246              		.p2align 4,,15
 247              		.syntax unified
 248              		.thumb
 249              		.thumb_func
 250              		.fpu softvfp
 251              		.type	thread9, %function
 252              	thread9:
 253              	.LVL10:
 254              	.LFB282:
 255              		.loc 1 224 33 is_stmt 1 view -0
 256              		.cfi_startproc
 257              		@ args = 0, pretend = 0, frame = 0
 258              		@ frame_needed = 0, uses_anonymous_args = 0
 259              		.loc 1 226 3 view .LVU54
 260              		.loc 1 224 33 is_stmt 0 view .LVU55
 261 0000 38B5     		push	{r3, r4, r5, lr}
 262              		.cfi_def_cfa_offset 16
 263              		.cfi_offset 3, -16
 264              		.cfi_offset 4, -12
 265              		.cfi_offset 5, -8
 266              		.cfi_offset 14, -4
 267              		.loc 1 226 3 view .LVU56
 268 0002 064D     		ldr	r5, .L9
 269              		.loc 1 224 33 view .LVU57
 270 0004 0446     		mov	r4, r0
 271              		.loc 1 226 3 view .LVU58
 272 0006 2846     		mov	r0, r5
 273              	.LVL11:
 274              		.loc 1 226 3 view .LVU59
 275 0008 FFF7FEFF 		bl	chMtxLock
 276              	.LVL12:
 277              		.loc 1 227 3 is_stmt 1 view .LVU60
 278 000c 2078     		ldrb	r0, [r4]	@ zero_extendqisi2
 279 000e FFF7FEFF 		bl	test_emit_token
 280              	.LVL13:
 281              		.loc 1 228 3 view .LVU61
ARM GAS  /tmp/ccMrTRpt.s 			page 6


 282 0012 2846     		mov	r0, r5
 283              		.loc 1 229 1 is_stmt 0 view .LVU62
 284 0014 BDE83840 		pop	{r3, r4, r5, lr}
 285              		.cfi_restore 14
 286              		.cfi_restore 5
 287              		.cfi_restore 4
 288              		.cfi_restore 3
 289              		.cfi_def_cfa_offset 0
 290              	.LVL14:
 291              		.loc 1 228 3 view .LVU63
 292 0018 FFF7FEBF 		b	chMtxUnlock
 293              	.LVL15:
 294              	.L10:
 295              		.align	2
 296              	.L9:
 297 001c 00000000 		.word	.LANCHOR1
 298              		.cfi_endproc
 299              	.LFE282:
 300              		.size	thread9, .-thread9
 301              		.section	.text.thread1,"ax",%progbits
 302              		.align	1
 303              		.p2align 4,,15
 304              		.syntax unified
 305              		.thumb
 306              		.thumb_func
 307              		.fpu softvfp
 308              		.type	thread1, %function
 309              	thread1:
 310              	.LVL16:
 311              	.LFB277:
 312              		.loc 1 86 33 is_stmt 1 view -0
 313              		.cfi_startproc
 314              		@ args = 0, pretend = 0, frame = 0
 315              		@ frame_needed = 0, uses_anonymous_args = 0
 316              		.loc 1 88 3 view .LVU65
 317              		.loc 1 86 33 is_stmt 0 view .LVU66
 318 0000 38B5     		push	{r3, r4, r5, lr}
 319              		.cfi_def_cfa_offset 16
 320              		.cfi_offset 3, -16
 321              		.cfi_offset 4, -12
 322              		.cfi_offset 5, -8
 323              		.cfi_offset 14, -4
 324              		.loc 1 88 3 view .LVU67
 325 0002 064D     		ldr	r5, .L13
 326              		.loc 1 86 33 view .LVU68
 327 0004 0446     		mov	r4, r0
 328              		.loc 1 88 3 view .LVU69
 329 0006 2846     		mov	r0, r5
 330              	.LVL17:
 331              		.loc 1 88 3 view .LVU70
 332 0008 FFF7FEFF 		bl	chMtxLock
 333              	.LVL18:
 334              		.loc 1 89 3 is_stmt 1 view .LVU71
 335 000c 2078     		ldrb	r0, [r4]	@ zero_extendqisi2
 336 000e FFF7FEFF 		bl	test_emit_token
 337              	.LVL19:
 338              		.loc 1 90 3 view .LVU72
ARM GAS  /tmp/ccMrTRpt.s 			page 7


 339 0012 2846     		mov	r0, r5
 340              		.loc 1 91 1 is_stmt 0 view .LVU73
 341 0014 BDE83840 		pop	{r3, r4, r5, lr}
 342              		.cfi_restore 14
 343              		.cfi_restore 5
 344              		.cfi_restore 4
 345              		.cfi_restore 3
 346              		.cfi_def_cfa_offset 0
 347              	.LVL20:
 348              		.loc 1 90 3 view .LVU74
 349 0018 FFF7FEBF 		b	chMtxUnlock
 350              	.LVL21:
 351              	.L14:
 352              		.align	2
 353              	.L13:
 354 001c 00000000 		.word	.LANCHOR2
 355              		.cfi_endproc
 356              	.LFE277:
 357              		.size	thread1, .-thread1
 358              		.section	.text.thread6,"ax",%progbits
 359              		.align	1
 360              		.p2align 4,,15
 361              		.syntax unified
 362              		.thumb
 363              		.thumb_func
 364              		.fpu softvfp
 365              		.type	thread6, %function
 366              	thread6:
 367              	.LVL22:
 368              	.LFB280:
 369              		.loc 1 202 33 is_stmt 1 view -0
 370              		.cfi_startproc
 371              		@ args = 0, pretend = 0, frame = 0
 372              		@ frame_needed = 0, uses_anonymous_args = 0
 373              		.loc 1 204 3 view .LVU76
 374              		.loc 1 202 33 is_stmt 0 view .LVU77
 375 0000 38B5     		push	{r3, r4, r5, lr}
 376              		.cfi_def_cfa_offset 16
 377              		.cfi_offset 3, -16
 378              		.cfi_offset 4, -12
 379              		.cfi_offset 5, -8
 380              		.cfi_offset 14, -4
 381              		.loc 1 204 3 view .LVU78
 382 0002 084D     		ldr	r5, .L17
 383              		.loc 1 202 33 view .LVU79
 384 0004 0446     		mov	r4, r0
 385              		.loc 1 204 3 view .LVU80
 386 0006 2846     		mov	r0, r5
 387              	.LVL23:
 388              		.loc 1 204 3 view .LVU81
 389 0008 FFF7FEFF 		bl	chMtxLock
 390              	.LVL24:
 391              		.loc 1 205 3 is_stmt 1 view .LVU82
 392 000c 0648     		ldr	r0, .L17+4
 393 000e FFF7FEFF 		bl	chCondWait
 394              	.LVL25:
 395              		.loc 1 206 3 view .LVU83
ARM GAS  /tmp/ccMrTRpt.s 			page 8


 396 0012 2078     		ldrb	r0, [r4]	@ zero_extendqisi2
 397 0014 FFF7FEFF 		bl	test_emit_token
 398              	.LVL26:
 399              		.loc 1 207 3 view .LVU84
 400 0018 2846     		mov	r0, r5
 401              		.loc 1 208 1 is_stmt 0 view .LVU85
 402 001a BDE83840 		pop	{r3, r4, r5, lr}
 403              		.cfi_restore 14
 404              		.cfi_restore 5
 405              		.cfi_restore 4
 406              		.cfi_restore 3
 407              		.cfi_def_cfa_offset 0
 408              	.LVL27:
 409              		.loc 1 207 3 view .LVU86
 410 001e FFF7FEBF 		b	chMtxUnlock
 411              	.LVL28:
 412              	.L18:
 413 0022 00BF     		.align	2
 414              	.L17:
 415 0024 00000000 		.word	.LANCHOR2
 416 0028 00000000 		.word	.LANCHOR0
 417              		.cfi_endproc
 418              	.LFE280:
 419              		.size	thread6, .-thread6
 420              		.section	.text.thread8,"ax",%progbits
 421              		.align	1
 422              		.p2align 4,,15
 423              		.syntax unified
 424              		.thumb
 425              		.thumb_func
 426              		.fpu softvfp
 427              		.type	thread8, %function
 428              	thread8:
 429              	.LVL29:
 430              	.LFB281:
 431              		.loc 1 210 33 is_stmt 1 view -0
 432              		.cfi_startproc
 433              		@ args = 0, pretend = 0, frame = 0
 434              		@ frame_needed = 0, uses_anonymous_args = 0
 435              		.loc 1 212 3 view .LVU88
 436              		.loc 1 210 33 is_stmt 0 view .LVU89
 437 0000 70B5     		push	{r4, r5, r6, lr}
 438              		.cfi_def_cfa_offset 16
 439              		.cfi_offset 4, -16
 440              		.cfi_offset 5, -12
 441              		.cfi_offset 6, -8
 442              		.cfi_offset 14, -4
 443              		.loc 1 212 3 view .LVU90
 444 0002 0C4D     		ldr	r5, .L21
 445              		.loc 1 213 3 view .LVU91
 446 0004 0C4E     		ldr	r6, .L21+4
 447              		.loc 1 210 33 view .LVU92
 448 0006 0446     		mov	r4, r0
 449              		.loc 1 212 3 view .LVU93
 450 0008 2846     		mov	r0, r5
 451              	.LVL30:
 452              		.loc 1 212 3 view .LVU94
ARM GAS  /tmp/ccMrTRpt.s 			page 9


 453 000a FFF7FEFF 		bl	chMtxLock
 454              	.LVL31:
 455              		.loc 1 213 3 is_stmt 1 view .LVU95
 456 000e 3046     		mov	r0, r6
 457 0010 FFF7FEFF 		bl	chMtxLock
 458              	.LVL32:
 459              		.loc 1 215 3 view .LVU96
 460 0014 4FF0FF31 		mov	r1, #-1
 461 0018 0848     		ldr	r0, .L21+8
 462 001a FFF7FEFF 		bl	chCondWaitTimeout
 463              	.LVL33:
 464              		.loc 1 219 3 view .LVU97
 465 001e 2078     		ldrb	r0, [r4]	@ zero_extendqisi2
 466 0020 FFF7FEFF 		bl	test_emit_token
 467              	.LVL34:
 468              		.loc 1 220 3 view .LVU98
 469 0024 3046     		mov	r0, r6
 470 0026 FFF7FEFF 		bl	chMtxUnlock
 471              	.LVL35:
 472              		.loc 1 221 3 view .LVU99
 473 002a 2846     		mov	r0, r5
 474              		.loc 1 222 1 is_stmt 0 view .LVU100
 475 002c BDE87040 		pop	{r4, r5, r6, lr}
 476              		.cfi_restore 14
 477              		.cfi_restore 6
 478              		.cfi_restore 5
 479              		.cfi_restore 4
 480              		.cfi_def_cfa_offset 0
 481              	.LVL36:
 482              		.loc 1 221 3 view .LVU101
 483 0030 FFF7FEBF 		b	chMtxUnlock
 484              	.LVL37:
 485              	.L22:
 486              		.align	2
 487              	.L21:
 488 0034 00000000 		.word	.LANCHOR1
 489 0038 00000000 		.word	.LANCHOR2
 490 003c 00000000 		.word	.LANCHOR0
 491              		.cfi_endproc
 492              	.LFE281:
 493              		.size	thread8, .-thread8
 494              		.section	.text.test_005_009_setup,"ax",%progbits
 495              		.align	1
 496              		.p2align 4,,15
 497              		.syntax unified
 498              		.thumb
 499              		.thumb_func
 500              		.fpu softvfp
 501              		.type	test_005_009_setup, %function
 502              	test_005_009_setup:
 503              	.LFB294:
 504              		.loc 1 969 38 is_stmt 1 view -0
 505              		.cfi_startproc
 506              		@ args = 0, pretend = 0, frame = 0
 507              		@ frame_needed = 0, uses_anonymous_args = 0
 508              		.loc 1 970 3 view .LVU103
 509              		.loc 1 969 38 is_stmt 0 view .LVU104
ARM GAS  /tmp/ccMrTRpt.s 			page 10


 510 0000 08B5     		push	{r3, lr}
 511              		.cfi_def_cfa_offset 8
 512              		.cfi_offset 3, -8
 513              		.cfi_offset 14, -4
 514              		.loc 1 970 3 view .LVU105
 515 0002 0548     		ldr	r0, .L25
 516 0004 FFF7FEFF 		bl	chCondObjectInit
 517              	.LVL38:
 518              		.loc 1 971 3 is_stmt 1 view .LVU106
 519 0008 0448     		ldr	r0, .L25+4
 520 000a FFF7FEFF 		bl	chMtxObjectInit
 521              	.LVL39:
 522              		.loc 1 972 3 view .LVU107
 523              		.loc 1 973 1 is_stmt 0 view .LVU108
 524 000e BDE80840 		pop	{r3, lr}
 525              		.cfi_restore 14
 526              		.cfi_restore 3
 527              		.cfi_def_cfa_offset 0
 528              		.loc 1 972 3 view .LVU109
 529 0012 0348     		ldr	r0, .L25+8
 530 0014 FFF7FEBF 		b	chMtxObjectInit
 531              	.LVL40:
 532              	.L26:
 533              		.align	2
 534              	.L25:
 535 0018 00000000 		.word	.LANCHOR0
 536 001c 00000000 		.word	.LANCHOR2
 537 0020 00000000 		.word	.LANCHOR1
 538              		.cfi_endproc
 539              	.LFE294:
 540              		.size	test_005_009_setup, .-test_005_009_setup
 541              		.section	.text.test_005_007_setup,"ax",%progbits
 542              		.align	1
 543              		.p2align 4,,15
 544              		.syntax unified
 545              		.thumb
 546              		.thumb_func
 547              		.fpu softvfp
 548              		.type	test_005_007_setup, %function
 549              	test_005_007_setup:
 550              	.LFB290:
 551              		.loc 1 829 38 is_stmt 1 view -0
 552              		.cfi_startproc
 553              		@ args = 0, pretend = 0, frame = 0
 554              		@ frame_needed = 0, uses_anonymous_args = 0
 555              		.loc 1 830 3 view .LVU111
 556              		.loc 1 829 38 is_stmt 0 view .LVU112
 557 0000 08B5     		push	{r3, lr}
 558              		.cfi_def_cfa_offset 8
 559              		.cfi_offset 3, -8
 560              		.cfi_offset 14, -4
 561              		.loc 1 830 3 view .LVU113
 562 0002 0448     		ldr	r0, .L29
 563 0004 FFF7FEFF 		bl	chCondObjectInit
 564              	.LVL41:
 565              		.loc 1 831 3 is_stmt 1 view .LVU114
 566              		.loc 1 832 1 is_stmt 0 view .LVU115
ARM GAS  /tmp/ccMrTRpt.s 			page 11


 567 0008 BDE80840 		pop	{r3, lr}
 568              		.cfi_restore 14
 569              		.cfi_restore 3
 570              		.cfi_def_cfa_offset 0
 571              		.loc 1 831 3 view .LVU116
 572 000c 0248     		ldr	r0, .L29+4
 573 000e FFF7FEBF 		b	chMtxObjectInit
 574              	.LVL42:
 575              	.L30:
 576 0012 00BF     		.align	2
 577              	.L29:
 578 0014 00000000 		.word	.LANCHOR0
 579 0018 00000000 		.word	.LANCHOR2
 580              		.cfi_endproc
 581              	.LFE290:
 582              		.size	test_005_007_setup, .-test_005_007_setup
 583              		.section	.text.test_005_004_setup,"ax",%progbits
 584              		.align	1
 585              		.p2align 4,,15
 586              		.syntax unified
 587              		.thumb
 588              		.thumb_func
 589              		.fpu softvfp
 590              		.type	test_005_004_setup, %function
 591              	test_005_004_setup:
 592              	.LFB285:
 593              		.loc 1 479 38 is_stmt 1 view -0
 594              		.cfi_startproc
 595              		@ args = 0, pretend = 0, frame = 0
 596              		@ frame_needed = 0, uses_anonymous_args = 0
 597              		.loc 1 480 3 view .LVU118
 598              		.loc 1 479 38 is_stmt 0 view .LVU119
 599 0000 08B5     		push	{r3, lr}
 600              		.cfi_def_cfa_offset 8
 601              		.cfi_offset 3, -8
 602              		.cfi_offset 14, -4
 603              		.loc 1 480 3 view .LVU120
 604 0002 0448     		ldr	r0, .L33
 605 0004 FFF7FEFF 		bl	chMtxObjectInit
 606              	.LVL43:
 607              		.loc 1 481 3 is_stmt 1 view .LVU121
 608              		.loc 1 482 1 is_stmt 0 view .LVU122
 609 0008 BDE80840 		pop	{r3, lr}
 610              		.cfi_restore 14
 611              		.cfi_restore 3
 612              		.cfi_def_cfa_offset 0
 613              		.loc 1 481 3 view .LVU123
 614 000c 0248     		ldr	r0, .L33+4
 615 000e FFF7FEBF 		b	chMtxObjectInit
 616              	.LVL44:
 617              	.L34:
 618 0012 00BF     		.align	2
 619              	.L33:
 620 0014 00000000 		.word	.LANCHOR2
 621 0018 00000000 		.word	.LANCHOR1
 622              		.cfi_endproc
 623              	.LFE285:
ARM GAS  /tmp/ccMrTRpt.s 			page 12


 624              		.size	test_005_004_setup, .-test_005_004_setup
 625              		.section	.text.test_005_001_setup,"ax",%progbits
 626              		.align	1
 627              		.p2align 4,,15
 628              		.syntax unified
 629              		.thumb
 630              		.thumb_func
 631              		.fpu softvfp
 632              		.type	test_005_001_setup, %function
 633              	test_005_001_setup:
 634              	.LFB283:
 635              		.loc 1 256 38 is_stmt 1 view -0
 636              		.cfi_startproc
 637              		@ args = 0, pretend = 0, frame = 0
 638              		@ frame_needed = 0, uses_anonymous_args = 0
 639              		@ link register save eliminated.
 640              		.loc 1 257 3 view .LVU125
 641 0000 0148     		ldr	r0, .L36
 642 0002 FFF7FEBF 		b	chMtxObjectInit
 643              	.LVL45:
 644              	.L37:
 645 0006 00BF     		.align	2
 646              	.L36:
 647 0008 00000000 		.word	.LANCHOR2
 648              		.cfi_endproc
 649              	.LFE283:
 650              		.size	test_005_001_setup, .-test_005_001_setup
 651              		.section	.rodata.test_005_008_execute.str1.4,"aMS",%progbits,1
 652              		.align	2
 653              	.LC5:
 654 0000 4500     		.ascii	"E\000"
 655 0002 0000     		.align	2
 656              	.LC6:
 657 0004 4400     		.ascii	"D\000"
 658 0006 0000     		.align	2
 659              	.LC7:
 660 0008 41424344 		.ascii	"ABCDE\000"
 660      4500
 661              		.section	.text.test_005_008_execute,"ax",%progbits
 662              		.align	1
 663              		.p2align 4,,15
 664              		.syntax unified
 665              		.thumb
 666              		.thumb_func
 667              		.fpu softvfp
 668              		.type	test_005_008_execute, %function
 669              	test_005_008_execute:
 670              	.LFB293:
 671              		.loc 1 903 40 view -0
 672              		.cfi_startproc
 673              		@ args = 0, pretend = 0, frame = 0
 674              		@ frame_needed = 0, uses_anonymous_args = 0
 675              		.loc 1 907 3 view .LVU127
 676              		.loc 1 903 40 is_stmt 0 view .LVU128
 677 0000 2DE9F041 		push	{r4, r5, r6, r7, r8, lr}
 678              		.cfi_def_cfa_offset 24
 679              		.cfi_offset 4, -24
ARM GAS  /tmp/ccMrTRpt.s 			page 13


 680              		.cfi_offset 5, -20
 681              		.cfi_offset 6, -16
 682              		.cfi_offset 7, -12
 683              		.cfi_offset 8, -8
 684              		.cfi_offset 14, -4
 685              	.LBB114:
 686              	.LBB115:
 687              	.LBB116:
 688              	.LBB117:
 689              	.LBB118:
 690              		.loc 2 286 18 view .LVU129
 691 0004 264B     		ldr	r3, .L40
 692              	.LBE118:
 693              	.LBE117:
 694              	.LBE116:
 695              	.LBE115:
 696              	.LBE114:
 697              		.loc 1 907 3 view .LVU130
 698 0006 DFF89C80 		ldr	r8, .L40+4
 699              	.LBB127:
 700              	.LBB124:
 701              	.LBB121:
 702              		.loc 2 299 25 view .LVU131
 703 000a 9B69     		ldr	r3, [r3, #24]
 704              	.LBE121:
 705              	.LBE124:
 706              		.loc 1 910 18 view .LVU132
 707 000c 264F     		ldr	r7, .L40+8
 708              	.LBB125:
 709              	.LBB122:
 710              		.loc 2 299 25 view .LVU133
 711 000e 9E68     		ldr	r6, [r3, #8]
 712              	.LBE122:
 713              	.LBE125:
 714              		.loc 1 910 18 view .LVU134
 715 0010 264D     		ldr	r5, .L40+12
 716              		.loc 1 910 16 view .LVU135
 717 0012 274C     		ldr	r4, .L40+16
 718              		.loc 1 910 18 view .LVU136
 719 0014 2868     		ldr	r0, [r5]
 720              	.LBE127:
 721              		.loc 1 903 40 view .LVU137
 722 0016 82B0     		sub	sp, sp, #8
 723              		.cfi_def_cfa_offset 32
 724              		.loc 1 907 3 view .LVU138
 725 0018 0123     		movs	r3, #1
 726 001a C8F80030 		str	r3, [r8]
 727              	.LBB128:
 728              		.loc 1 909 5 is_stmt 1 view .LVU139
 729              	.LBB126:
 730              	.LBI115:
 731              		.loc 2 297 23 view .LVU140
 732              	.LBB123:
 733              		.loc 2 299 3 view .LVU141
 734              	.LBB120:
 735              	.LBI117:
 736              		.loc 2 284 25 view .LVU142
ARM GAS  /tmp/ccMrTRpt.s 			page 14


 737              	.LBB119:
 738              		.loc 2 286 3 view .LVU143
 739              	.LVL46:
 740              		.loc 2 286 3 is_stmt 0 view .LVU144
 741              	.LBE119:
 742              	.LBE120:
 743              	.LBE123:
 744              	.LBE126:
 745              		.loc 1 910 5 is_stmt 1 view .LVU145
 746              		.loc 1 910 18 is_stmt 0 view .LVU146
 747 001e 254B     		ldr	r3, .L40+20
 748 0020 0093     		str	r3, [sp]
 749 0022 721C     		adds	r2, r6, #1
 750 0024 3B46     		mov	r3, r7
 751 0026 4FF4A471 		mov	r1, #328
 752 002a FFF7FEFF 		bl	chThdCreateStatic
 753              	.LVL47:
 754              		.loc 1 911 18 view .LVU147
 755 002e 224B     		ldr	r3, .L40+24
 756              		.loc 1 910 16 view .LVU148
 757 0030 2060     		str	r0, [r4]
 758              		.loc 1 911 5 is_stmt 1 view .LVU149
 759              		.loc 1 911 18 is_stmt 0 view .LVU150
 760 0032 0093     		str	r3, [sp]
 761 0034 B21C     		adds	r2, r6, #2
 762 0036 3B46     		mov	r3, r7
 763 0038 6868     		ldr	r0, [r5, #4]
 764 003a 4FF4A471 		mov	r1, #328
 765 003e FFF7FEFF 		bl	chThdCreateStatic
 766              	.LVL48:
 767              		.loc 1 912 18 view .LVU151
 768 0042 1E4B     		ldr	r3, .L40+28
 769              		.loc 1 911 16 view .LVU152
 770 0044 6060     		str	r0, [r4, #4]
 771              		.loc 1 912 5 is_stmt 1 view .LVU153
 772              		.loc 1 912 18 is_stmt 0 view .LVU154
 773 0046 0093     		str	r3, [sp]
 774 0048 F21C     		adds	r2, r6, #3
 775 004a 3B46     		mov	r3, r7
 776 004c A868     		ldr	r0, [r5, #8]
 777 004e 4FF4A471 		mov	r1, #328
 778 0052 FFF7FEFF 		bl	chThdCreateStatic
 779              	.LVL49:
 780              		.loc 1 913 18 view .LVU155
 781 0056 1A4B     		ldr	r3, .L40+32
 782              		.loc 1 912 16 view .LVU156
 783 0058 A060     		str	r0, [r4, #8]
 784              		.loc 1 913 5 is_stmt 1 view .LVU157
 785              		.loc 1 913 18 is_stmt 0 view .LVU158
 786 005a 0093     		str	r3, [sp]
 787 005c 321D     		adds	r2, r6, #4
 788 005e 3B46     		mov	r3, r7
 789 0060 E868     		ldr	r0, [r5, #12]
 790 0062 4FF4A471 		mov	r1, #328
 791 0066 FFF7FEFF 		bl	chThdCreateStatic
 792              	.LVL50:
 793              		.loc 1 914 18 view .LVU159
ARM GAS  /tmp/ccMrTRpt.s 			page 15


 794 006a 1649     		ldr	r1, .L40+36
 795              		.loc 1 913 16 view .LVU160
 796 006c E060     		str	r0, [r4, #12]
 797              		.loc 1 914 5 is_stmt 1 view .LVU161
 798              		.loc 1 914 18 is_stmt 0 view .LVU162
 799 006e 3B46     		mov	r3, r7
 800 0070 721D     		adds	r2, r6, #5
 801 0072 0091     		str	r1, [sp]
 802 0074 2869     		ldr	r0, [r5, #16]
 803 0076 4FF4A471 		mov	r1, #328
 804 007a FFF7FEFF 		bl	chThdCreateStatic
 805              	.LVL51:
 806              	.LBE128:
 807              		.loc 1 919 3 view .LVU163
 808 007e 0223     		movs	r3, #2
 809              	.LBB129:
 810              		.loc 1 914 18 view .LVU164
 811 0080 0246     		mov	r2, r0
 812              	.LBE129:
 813              		.loc 1 921 5 view .LVU165
 814 0082 1148     		ldr	r0, .L40+40
 815              	.LBB130:
 816              		.loc 1 914 16 view .LVU166
 817 0084 2261     		str	r2, [r4, #16]
 818              	.LBE130:
 819              		.loc 1 919 3 is_stmt 1 view .LVU167
 820 0086 C8F80030 		str	r3, [r8]
 821              		.loc 1 921 5 view .LVU168
 822 008a FFF7FEFF 		bl	chCondBroadcast
 823              	.LVL52:
 824              		.loc 1 922 5 view .LVU169
 825 008e FFF7FEFF 		bl	test_wait_threads
 826              	.LVL53:
 827              		.loc 1 923 5 view .LVU170
 828 0092 0E49     		ldr	r1, .L40+44
 829 0094 0E48     		ldr	r0, .L40+48
 830              		.loc 1 925 1 is_stmt 0 view .LVU171
 831 0096 02B0     		add	sp, sp, #8
 832              		.cfi_def_cfa_offset 24
 833              		@ sp needed
 834 0098 BDE8F041 		pop	{r4, r5, r6, r7, r8, lr}
 835              		.cfi_restore 14
 836              		.cfi_restore 8
 837              		.cfi_restore 7
 838              		.cfi_restore 6
 839              		.cfi_restore 5
 840              		.cfi_restore 4
 841              		.cfi_def_cfa_offset 0
 842              	.LVL54:
 843              		.loc 1 923 5 view .LVU172
 844 009c FFF7FEBF 		b	_test_assert_sequence
 845              	.LVL55:
 846              	.L41:
 847              		.align	2
 848              	.L40:
 849 00a0 00000000 		.word	ch
 850 00a4 00000000 		.word	test_step
ARM GAS  /tmp/ccMrTRpt.s 			page 16


 851 00a8 00000000 		.word	thread6
 852 00ac 00000000 		.word	wa
 853 00b0 00000000 		.word	threads
 854 00b4 00000000 		.word	.LC5
 855 00b8 04000000 		.word	.LC6
 856 00bc 04000000 		.word	.LC1
 857 00c0 08000000 		.word	.LC2
 858 00c4 00000000 		.word	.LC0
 859 00c8 00000000 		.word	.LANCHOR0
 860 00cc 0C000000 		.word	.LC3
 861 00d0 08000000 		.word	.LC7
 862              		.cfi_endproc
 863              	.LFE293:
 864              		.size	test_005_008_execute, .-test_005_008_execute
 865              		.section	.text.test_005_007_execute,"ax",%progbits
 866              		.align	1
 867              		.p2align 4,,15
 868              		.syntax unified
 869              		.thumb
 870              		.thumb_func
 871              		.fpu softvfp
 872              		.type	test_005_007_execute, %function
 873              	test_005_007_execute:
 874              	.LFB291:
 875              		.loc 1 834 40 is_stmt 1 view -0
 876              		.cfi_startproc
 877              		@ args = 0, pretend = 0, frame = 0
 878              		@ frame_needed = 0, uses_anonymous_args = 0
 879              		.loc 1 838 3 view .LVU174
 880              		.loc 1 834 40 is_stmt 0 view .LVU175
 881 0000 2DE9F041 		push	{r4, r5, r6, r7, r8, lr}
 882              		.cfi_def_cfa_offset 24
 883              		.cfi_offset 4, -24
 884              		.cfi_offset 5, -20
 885              		.cfi_offset 6, -16
 886              		.cfi_offset 7, -12
 887              		.cfi_offset 8, -8
 888              		.cfi_offset 14, -4
 889              	.LBB131:
 890              	.LBB132:
 891              	.LBB133:
 892              	.LBB134:
 893              	.LBB135:
 894              		.loc 2 286 18 view .LVU176
 895 0004 304B     		ldr	r3, .L44
 896              	.LBE135:
 897              	.LBE134:
 898              	.LBE133:
 899              	.LBE132:
 900              	.LBE131:
 901              		.loc 1 838 3 view .LVU177
 902 0006 DFF8C480 		ldr	r8, .L44+4
 903              	.LBB144:
 904              	.LBB141:
 905              	.LBB138:
 906              		.loc 2 299 25 view .LVU178
 907 000a 9B69     		ldr	r3, [r3, #24]
ARM GAS  /tmp/ccMrTRpt.s 			page 17


 908              	.LBE138:
 909              	.LBE141:
 910              		.loc 1 841 18 view .LVU179
 911 000c 304E     		ldr	r6, .L44+8
 912              	.LBB142:
 913              	.LBB139:
 914              		.loc 2 299 25 view .LVU180
 915 000e 9D68     		ldr	r5, [r3, #8]
 916              	.LBE139:
 917              	.LBE142:
 918              		.loc 1 841 18 view .LVU181
 919 0010 304F     		ldr	r7, .L44+12
 920              		.loc 1 841 16 view .LVU182
 921 0012 314C     		ldr	r4, .L44+16
 922              		.loc 1 841 18 view .LVU183
 923 0014 3868     		ldr	r0, [r7]
 924              	.LBE144:
 925              		.loc 1 834 40 view .LVU184
 926 0016 82B0     		sub	sp, sp, #8
 927              		.cfi_def_cfa_offset 32
 928              		.loc 1 838 3 view .LVU185
 929 0018 0123     		movs	r3, #1
 930 001a C8F80030 		str	r3, [r8]
 931              	.LBB145:
 932              		.loc 1 840 5 is_stmt 1 view .LVU186
 933              	.LBB143:
 934              	.LBI132:
 935              		.loc 2 297 23 view .LVU187
 936              	.LBB140:
 937              		.loc 2 299 3 view .LVU188
 938              	.LBB137:
 939              	.LBI134:
 940              		.loc 2 284 25 view .LVU189
 941              	.LBB136:
 942              		.loc 2 286 3 view .LVU190
 943              	.LVL56:
 944              		.loc 2 286 3 is_stmt 0 view .LVU191
 945              	.LBE136:
 946              	.LBE137:
 947              	.LBE140:
 948              	.LBE143:
 949              		.loc 1 841 5 is_stmt 1 view .LVU192
 950              		.loc 1 841 18 is_stmt 0 view .LVU193
 951 001e 2F4B     		ldr	r3, .L44+20
 952 0020 0093     		str	r3, [sp]
 953 0022 6A1C     		adds	r2, r5, #1
 954 0024 3346     		mov	r3, r6
 955 0026 4FF4A471 		mov	r1, #328
 956 002a FFF7FEFF 		bl	chThdCreateStatic
 957              	.LVL57:
 958              		.loc 1 842 18 view .LVU194
 959 002e 2C4B     		ldr	r3, .L44+24
 960              		.loc 1 841 16 view .LVU195
 961 0030 2060     		str	r0, [r4]
 962              		.loc 1 842 5 is_stmt 1 view .LVU196
 963              		.loc 1 842 18 is_stmt 0 view .LVU197
 964 0032 AA1C     		adds	r2, r5, #2
ARM GAS  /tmp/ccMrTRpt.s 			page 18


 965 0034 0093     		str	r3, [sp]
 966 0036 7868     		ldr	r0, [r7, #4]
 967 0038 3346     		mov	r3, r6
 968 003a 4FF4A471 		mov	r1, #328
 969 003e FFF7FEFF 		bl	chThdCreateStatic
 970              	.LVL58:
 971              		.loc 1 843 18 view .LVU198
 972 0042 284B     		ldr	r3, .L44+28
 973              		.loc 1 842 16 view .LVU199
 974 0044 6060     		str	r0, [r4, #4]
 975              		.loc 1 843 5 is_stmt 1 view .LVU200
 976              		.loc 1 843 18 is_stmt 0 view .LVU201
 977 0046 EA1C     		adds	r2, r5, #3
 978 0048 0093     		str	r3, [sp]
 979 004a B868     		ldr	r0, [r7, #8]
 980 004c 3346     		mov	r3, r6
 981 004e 4FF4A471 		mov	r1, #328
 982 0052 FFF7FEFF 		bl	chThdCreateStatic
 983              	.LVL59:
 984              		.loc 1 844 18 view .LVU202
 985 0056 244B     		ldr	r3, .L44+32
 986              		.loc 1 843 16 view .LVU203
 987 0058 A060     		str	r0, [r4, #8]
 988              		.loc 1 844 5 is_stmt 1 view .LVU204
 989              		.loc 1 844 18 is_stmt 0 view .LVU205
 990 005a 2A1D     		adds	r2, r5, #4
 991 005c 0093     		str	r3, [sp]
 992 005e F868     		ldr	r0, [r7, #12]
 993 0060 3346     		mov	r3, r6
 994 0062 4FF4A471 		mov	r1, #328
 995 0066 FFF7FEFF 		bl	chThdCreateStatic
 996              	.LVL60:
 997              		.loc 1 845 18 view .LVU206
 998 006a 2049     		ldr	r1, .L44+36
 999              		.loc 1 844 16 view .LVU207
 1000 006c E060     		str	r0, [r4, #12]
 1001              		.loc 1 845 5 is_stmt 1 view .LVU208
 1002              		.loc 1 845 18 is_stmt 0 view .LVU209
 1003 006e 3346     		mov	r3, r6
 1004 0070 0091     		str	r1, [sp]
 1005 0072 3869     		ldr	r0, [r7, #16]
 1006 0074 6A1D     		adds	r2, r5, #5
 1007 0076 4FF4A471 		mov	r1, #328
 1008 007a FFF7FEFF 		bl	chThdCreateStatic
 1009              	.LVL61:
 1010              	.LBE145:
 1011              		.loc 1 851 3 view .LVU210
 1012 007e 0223     		movs	r3, #2
 1013 0080 C8F80030 		str	r3, [r8]
 1014              	.LBB146:
 1015              		.loc 1 845 16 view .LVU211
 1016 0084 2061     		str	r0, [r4, #16]
 1017              	.LBE146:
 1018              		.loc 1 851 3 is_stmt 1 view .LVU212
 1019              		.loc 1 853 5 view .LVU213
 1020              	.LBB147:
 1021              	.LBI147:
ARM GAS  /tmp/ccMrTRpt.s 			page 19


 1022              		.file 3 "../../../os/rt/include/chsys.h"
 1023              		.loc 3 374 20 view .LVU214
 1024              	.LBE147:
 1025              		.loc 3 376 3 view .LVU215
 1026              	.LBB152:
 1027              	.LBB148:
 1028              	.LBI148:
 1029              		.file 4 "../../../os/common/ports/ARMCMx/chcore_v7m.h"
 1030              		.loc 4 594 20 view .LVU216
 1031              	.LBE148:
 1032              	.LBE152:
 1033              		.loc 4 602 3 view .LVU217
 1034              	.LVL62:
 1035              	.LBB153:
 1036              	.LBB151:
 1037              	.LBB149:
 1038              	.LBI149:
 1039              		.file 5 "../../../os/common/ext/CMSIS/include/cmsis_gcc.h"
 1040              		.loc 5 262 57 view .LVU218
 1041              	.LBB150:
 1042              		.loc 5 264 3 view .LVU219
 1043 0086 2023     		movs	r3, #32
 1044              		.syntax unified
 1045              	@ 264 "../../../os/common/ext/CMSIS/include/cmsis_gcc.h" 1
 1046 0088 83F31188 		MSR basepri, r3
 1047              	@ 0 "" 2
 1048              	.LVL63:
 1049              		.loc 5 264 3 is_stmt 0 view .LVU220
 1050              		.thumb
 1051              		.syntax unified
 1052              	.LBE150:
 1053              	.LBE149:
 1054              	.LBE151:
 1055              	.LBE153:
 1056              		.loc 3 377 34 is_stmt 1 view .LVU221
 1057              		.loc 3 378 20 view .LVU222
 1058              		.loc 1 854 5 view .LVU223
 1059 008c 184C     		ldr	r4, .L44+40
 1060 008e 2046     		mov	r0, r4
 1061 0090 FFF7FEFF 		bl	chCondSignalI
 1062              	.LVL64:
 1063              		.loc 1 855 5 view .LVU224
 1064 0094 2046     		mov	r0, r4
 1065 0096 FFF7FEFF 		bl	chCondSignalI
 1066              	.LVL65:
 1067              		.loc 1 856 5 view .LVU225
 1068 009a 2046     		mov	r0, r4
 1069 009c FFF7FEFF 		bl	chCondSignalI
 1070              	.LVL66:
 1071              		.loc 1 857 5 view .LVU226
 1072 00a0 2046     		mov	r0, r4
 1073 00a2 FFF7FEFF 		bl	chCondSignalI
 1074              	.LVL67:
 1075              		.loc 1 858 5 view .LVU227
 1076 00a6 2046     		mov	r0, r4
 1077 00a8 FFF7FEFF 		bl	chCondSignalI
 1078              	.LVL68:
ARM GAS  /tmp/ccMrTRpt.s 			page 20


 1079              		.loc 1 859 5 view .LVU228
 1080 00ac FFF7FEFF 		bl	chSchRescheduleS
 1081              	.LVL69:
 1082              		.loc 1 860 5 view .LVU229
 1083              	.LBB154:
 1084              	.LBI154:
 1085              		.loc 3 386 20 view .LVU230
 1086              	.LBB155:
 1087              		.loc 3 388 22 view .LVU231
 1088              		.loc 3 389 33 view .LVU232
 1089              		.loc 3 395 3 view .LVU233
 1090              		.loc 3 395 3 view .LVU234
 1091              		.loc 3 395 3 view .LVU235
 1092              		.loc 3 399 3 view .LVU236
 1093              	.LBB156:
 1094              	.LBI156:
 1095              		.loc 4 618 20 view .LVU237
 1096              	.LBE156:
 1097              	.LBE155:
 1098              	.LBE154:
 1099              		.loc 4 621 3 view .LVU238
 1100              	.LBB161:
 1101              	.LBB160:
 1102              	.LBB159:
 1103              	.LBB157:
 1104              	.LBI157:
 1105              		.loc 5 262 57 view .LVU239
 1106              	.LBB158:
 1107              		.loc 5 264 3 view .LVU240
 1108 00b0 0023     		movs	r3, #0
 1109              		.syntax unified
 1110              	@ 264 "../../../os/common/ext/CMSIS/include/cmsis_gcc.h" 1
 1111 00b2 83F31188 		MSR basepri, r3
 1112              	@ 0 "" 2
 1113              	.LVL70:
 1114              		.loc 5 264 3 is_stmt 0 view .LVU241
 1115              		.thumb
 1116              		.syntax unified
 1117              	.LBE158:
 1118              	.LBE157:
 1119              	.LBE159:
 1120              	.LBE160:
 1121              	.LBE161:
 1122              		.loc 1 861 5 is_stmt 1 view .LVU242
 1123 00b6 FFF7FEFF 		bl	test_wait_threads
 1124              	.LVL71:
 1125              		.loc 1 862 5 view .LVU243
 1126 00ba 0E49     		ldr	r1, .L44+44
 1127 00bc 0E48     		ldr	r0, .L44+48
 1128              		.loc 1 864 1 is_stmt 0 view .LVU244
 1129 00be 02B0     		add	sp, sp, #8
 1130              		.cfi_def_cfa_offset 24
 1131              		@ sp needed
 1132 00c0 BDE8F041 		pop	{r4, r5, r6, r7, r8, lr}
 1133              		.cfi_restore 14
 1134              		.cfi_restore 8
 1135              		.cfi_restore 7
ARM GAS  /tmp/ccMrTRpt.s 			page 21


 1136              		.cfi_restore 6
 1137              		.cfi_restore 5
 1138              		.cfi_restore 4
 1139              		.cfi_def_cfa_offset 0
 1140              	.LVL72:
 1141              		.loc 1 862 5 view .LVU245
 1142 00c4 FFF7FEBF 		b	_test_assert_sequence
 1143              	.LVL73:
 1144              	.L45:
 1145              		.align	2
 1146              	.L44:
 1147 00c8 00000000 		.word	ch
 1148 00cc 00000000 		.word	test_step
 1149 00d0 00000000 		.word	thread6
 1150 00d4 00000000 		.word	wa
 1151 00d8 00000000 		.word	threads
 1152 00dc 00000000 		.word	.LC5
 1153 00e0 04000000 		.word	.LC6
 1154 00e4 04000000 		.word	.LC1
 1155 00e8 08000000 		.word	.LC2
 1156 00ec 00000000 		.word	.LC0
 1157 00f0 00000000 		.word	.LANCHOR0
 1158 00f4 0C000000 		.word	.LC3
 1159 00f8 08000000 		.word	.LC7
 1160              		.cfi_endproc
 1161              	.LFE291:
 1162              		.size	test_005_007_execute, .-test_005_007_execute
 1163              		.section	.rodata.test_005_001_execute.str1.4,"aMS",%progbits,1
 1164              		.align	2
 1165              	.LC8:
 1166 0000 77726F6E 		.ascii	"wrong priority level\000"
 1166      67207072 
 1166      696F7269 
 1166      7479206C 
 1166      6576656C 
 1167              		.section	.text.test_005_001_execute,"ax",%progbits
 1168              		.align	1
 1169              		.p2align 4,,15
 1170              		.syntax unified
 1171              		.thumb
 1172              		.thumb_func
 1173              		.fpu softvfp
 1174              		.type	test_005_001_execute, %function
 1175              	test_005_001_execute:
 1176              	.LFB284:
 1177              		.loc 1 260 40 is_stmt 1 view -0
 1178              		.cfi_startproc
 1179              		@ args = 0, pretend = 0, frame = 0
 1180              		@ frame_needed = 0, uses_anonymous_args = 0
 1181              		.loc 1 261 3 view .LVU247
 1182              		.loc 1 264 3 view .LVU248
 1183              		.loc 1 266 5 view .LVU249
 1184              	.LBB162:
 1185              	.LBI162:
 1186              		.loc 2 297 23 view .LVU250
 1187              	.LBB163:
 1188              		.loc 2 299 3 view .LVU251
ARM GAS  /tmp/ccMrTRpt.s 			page 22


 1189              	.LBB164:
 1190              	.LBI164:
 1191              		.loc 2 284 25 view .LVU252
 1192              	.LBB165:
 1193              		.loc 2 286 3 view .LVU253
 1194              	.LBE165:
 1195              	.LBE164:
 1196              	.LBE163:
 1197              	.LBE162:
 1198              		.loc 1 260 40 is_stmt 0 view .LVU254
 1199 0000 2DE9F041 		push	{r4, r5, r6, r7, r8, lr}
 1200              		.cfi_def_cfa_offset 24
 1201              		.cfi_offset 4, -24
 1202              		.cfi_offset 5, -20
 1203              		.cfi_offset 6, -16
 1204              		.cfi_offset 7, -12
 1205              		.cfi_offset 8, -8
 1206              		.cfi_offset 14, -4
 1207              	.LBB171:
 1208              	.LBB168:
 1209              	.LBB167:
 1210              	.LBB166:
 1211              		.loc 2 286 18 view .LVU255
 1212 0004 DFF8B880 		ldr	r8, .L50
 1213              	.LBE166:
 1214              	.LBE167:
 1215              	.LBE168:
 1216              	.LBE171:
 1217              		.loc 1 270 3 view .LVU256
 1218 0008 2E4F     		ldr	r7, .L50+4
 1219              	.LBB172:
 1220              	.LBB169:
 1221              		.loc 2 299 25 view .LVU257
 1222 000a D8F81830 		ldr	r3, [r8, #24]
 1223              	.LBE169:
 1224              	.LBE172:
 1225              		.loc 1 272 5 view .LVU258
 1226 000e 2E48     		ldr	r0, .L50+8
 1227              	.LBB173:
 1228              	.LBB170:
 1229              		.loc 2 299 25 view .LVU259
 1230 0010 9C68     		ldr	r4, [r3, #8]
 1231              	.LVL74:
 1232              		.loc 2 299 25 view .LVU260
 1233              	.LBE170:
 1234              	.LBE173:
 1235              		.loc 1 270 3 is_stmt 1 view .LVU261
 1236              		.loc 1 280 18 is_stmt 0 view .LVU262
 1237 0012 2E4E     		ldr	r6, .L50+12
 1238              		.loc 1 280 16 view .LVU263
 1239 0014 2E4D     		ldr	r5, .L50+16
 1240              		.loc 1 260 40 view .LVU264
 1241 0016 82B0     		sub	sp, sp, #8
 1242              		.cfi_def_cfa_offset 32
 1243              		.loc 1 270 3 view .LVU265
 1244 0018 0223     		movs	r3, #2
 1245 001a 3B60     		str	r3, [r7]
ARM GAS  /tmp/ccMrTRpt.s 			page 23


 1246              		.loc 1 272 5 is_stmt 1 view .LVU266
 1247 001c FFF7FEFF 		bl	chMtxLock
 1248              	.LVL75:
 1249              		.loc 1 278 3 view .LVU267
 1250 0020 0323     		movs	r3, #3
 1251 0022 3B60     		str	r3, [r7]
 1252              		.loc 1 280 5 view .LVU268
 1253              		.loc 1 280 18 is_stmt 0 view .LVU269
 1254 0024 2B4B     		ldr	r3, .L50+20
 1255 0026 0093     		str	r3, [sp]
 1256 0028 621C     		adds	r2, r4, #1
 1257 002a 2B4B     		ldr	r3, .L50+24
 1258 002c 3068     		ldr	r0, [r6]
 1259 002e 4FF4A471 		mov	r1, #328
 1260 0032 FFF7FEFF 		bl	chThdCreateStatic
 1261              	.LVL76:
 1262              		.loc 1 281 18 view .LVU270
 1263 0036 294B     		ldr	r3, .L50+28
 1264              		.loc 1 280 16 view .LVU271
 1265 0038 2860     		str	r0, [r5]
 1266              		.loc 1 281 5 is_stmt 1 view .LVU272
 1267              		.loc 1 281 18 is_stmt 0 view .LVU273
 1268 003a 0093     		str	r3, [sp]
 1269 003c A21C     		adds	r2, r4, #2
 1270 003e 264B     		ldr	r3, .L50+24
 1271 0040 7068     		ldr	r0, [r6, #4]
 1272 0042 4FF4A471 		mov	r1, #328
 1273 0046 FFF7FEFF 		bl	chThdCreateStatic
 1274              	.LVL77:
 1275              		.loc 1 282 18 view .LVU274
 1276 004a 254B     		ldr	r3, .L50+32
 1277              		.loc 1 281 16 view .LVU275
 1278 004c 6860     		str	r0, [r5, #4]
 1279              		.loc 1 282 5 is_stmt 1 view .LVU276
 1280              		.loc 1 282 18 is_stmt 0 view .LVU277
 1281 004e 0093     		str	r3, [sp]
 1282 0050 E21C     		adds	r2, r4, #3
 1283 0052 214B     		ldr	r3, .L50+24
 1284 0054 B068     		ldr	r0, [r6, #8]
 1285 0056 4FF4A471 		mov	r1, #328
 1286 005a FFF7FEFF 		bl	chThdCreateStatic
 1287              	.LVL78:
 1288              		.loc 1 283 18 view .LVU278
 1289 005e 214B     		ldr	r3, .L50+36
 1290              		.loc 1 282 16 view .LVU279
 1291 0060 A860     		str	r0, [r5, #8]
 1292              		.loc 1 283 5 is_stmt 1 view .LVU280
 1293              		.loc 1 283 18 is_stmt 0 view .LVU281
 1294 0062 0093     		str	r3, [sp]
 1295 0064 221D     		adds	r2, r4, #4
 1296 0066 1C4B     		ldr	r3, .L50+24
 1297 0068 F068     		ldr	r0, [r6, #12]
 1298 006a 4FF4A471 		mov	r1, #328
 1299 006e FFF7FEFF 		bl	chThdCreateStatic
 1300              	.LVL79:
 1301              		.loc 1 284 18 view .LVU282
 1302 0072 1D4B     		ldr	r3, .L50+40
ARM GAS  /tmp/ccMrTRpt.s 			page 24


 1303              		.loc 1 283 16 view .LVU283
 1304 0074 E860     		str	r0, [r5, #12]
 1305              		.loc 1 284 5 is_stmt 1 view .LVU284
 1306              		.loc 1 284 18 is_stmt 0 view .LVU285
 1307 0076 4FF4A471 		mov	r1, #328
 1308 007a 621D     		adds	r2, r4, #5
 1309 007c 0093     		str	r3, [sp]
 1310 007e 3069     		ldr	r0, [r6, #16]
 1311 0080 154B     		ldr	r3, .L50+24
 1312 0082 FFF7FEFF 		bl	chThdCreateStatic
 1313              	.LVL80:
 1314              		.loc 1 289 3 view .LVU286
 1315 0086 0423     		movs	r3, #4
 1316              		.loc 1 284 16 view .LVU287
 1317 0088 2861     		str	r0, [r5, #16]
 1318              		.loc 1 289 3 is_stmt 1 view .LVU288
 1319              		.loc 1 291 5 is_stmt 0 view .LVU289
 1320 008a 0F48     		ldr	r0, .L50+8
 1321              		.loc 1 289 3 view .LVU290
 1322 008c 3B60     		str	r3, [r7]
 1323              		.loc 1 291 5 is_stmt 1 view .LVU291
 1324 008e FFF7FEFF 		bl	chMtxUnlock
 1325              	.LVL81:
 1326              		.loc 1 292 5 view .LVU292
 1327 0092 FFF7FEFF 		bl	test_wait_threads
 1328              	.LVL82:
 1329              		.loc 1 293 5 view .LVU293
 1330              	.LBB174:
 1331              	.LBI174:
 1332              		.loc 2 297 23 view .LVU294
 1333              	.LBB175:
 1334              		.loc 2 299 3 view .LVU295
 1335              	.LBB176:
 1336              	.LBI176:
 1337              		.loc 2 284 25 view .LVU296
 1338              	.LBB177:
 1339              		.loc 2 286 3 view .LVU297
 1340              	.LBE177:
 1341              	.LBE176:
 1342              		.loc 2 299 25 is_stmt 0 view .LVU298
 1343 0096 D8F81830 		ldr	r3, [r8, #24]
 1344              	.LBE175:
 1345              	.LBE174:
 1346              		.loc 1 293 5 view .LVU299
 1347 009a 1449     		ldr	r1, .L50+44
 1348 009c 9868     		ldr	r0, [r3, #8]
 1349 009e 001B     		subs	r0, r0, r4
 1350 00a0 B0FA80F0 		clz	r0, r0
 1351 00a4 4009     		lsrs	r0, r0, #5
 1352 00a6 FFF7FEFF 		bl	_test_assert
 1353              	.LVL83:
 1354 00aa 10B1     		cbz	r0, .L49
 1355              		.loc 1 296 1 view .LVU300
 1356 00ac 02B0     		add	sp, sp, #8
 1357              		.cfi_remember_state
 1358              		.cfi_def_cfa_offset 24
 1359              		@ sp needed
ARM GAS  /tmp/ccMrTRpt.s 			page 25


 1360 00ae BDE8F081 		pop	{r4, r5, r6, r7, r8, pc}
 1361              	.LVL84:
 1362              	.L49:
 1363              		.cfi_restore_state
 1364              		.loc 1 293 69 is_stmt 1 discriminator 2 view .LVU301
 1365              		.loc 1 294 5 discriminator 2 view .LVU302
 1366 00b2 0F49     		ldr	r1, .L50+48
 1367 00b4 0F48     		ldr	r0, .L50+52
 1368              		.loc 1 296 1 is_stmt 0 discriminator 2 view .LVU303
 1369 00b6 02B0     		add	sp, sp, #8
 1370              		.cfi_def_cfa_offset 24
 1371              		@ sp needed
 1372 00b8 BDE8F041 		pop	{r4, r5, r6, r7, r8, lr}
 1373              		.cfi_restore 14
 1374              		.cfi_restore 8
 1375              		.cfi_restore 7
 1376              		.cfi_restore 6
 1377              		.cfi_restore 5
 1378              		.cfi_restore 4
 1379              		.cfi_def_cfa_offset 0
 1380              	.LVL85:
 1381              		.loc 1 294 5 discriminator 2 view .LVU304
 1382 00bc FFF7FEBF 		b	_test_assert_sequence
 1383              	.LVL86:
 1384              	.L51:
 1385              		.align	2
 1386              	.L50:
 1387 00c0 00000000 		.word	ch
 1388 00c4 00000000 		.word	test_step
 1389 00c8 00000000 		.word	.LANCHOR2
 1390 00cc 00000000 		.word	wa
 1391 00d0 00000000 		.word	threads
 1392 00d4 00000000 		.word	.LC5
 1393 00d8 00000000 		.word	thread1
 1394 00dc 04000000 		.word	.LC6
 1395 00e0 04000000 		.word	.LC1
 1396 00e4 08000000 		.word	.LC2
 1397 00e8 00000000 		.word	.LC0
 1398 00ec 00000000 		.word	.LC8
 1399 00f0 0C000000 		.word	.LC3
 1400 00f4 08000000 		.word	.LC7
 1401              		.cfi_endproc
 1402              	.LFE284:
 1403              		.size	test_005_001_execute, .-test_005_001_execute
 1404              		.section	.rodata.test_005_005_execute.str1.4,"aMS",%progbits,1
 1405              		.align	2
 1406              	.LC9:
 1407 0000 616C7265 		.ascii	"already locked\000"
 1407      61647920 
 1407      6C6F636B 
 1407      656400
 1408 000f 00       		.align	2
 1409              	.LC10:
 1410 0010 6E6F7420 		.ascii	"not locked\000"
 1410      6C6F636B 
 1410      656400
 1411 001b 00       		.align	2
ARM GAS  /tmp/ccMrTRpt.s 			page 26


 1412              	.LC11:
 1413 001c 7374696C 		.ascii	"still owned\000"
 1413      6C206F77 
 1413      6E656400 
 1414              		.align	2
 1415              	.LC12:
 1416 0028 71756575 		.ascii	"queue not empty\000"
 1416      65206E6F 
 1416      7420656D 
 1416      70747900 
 1417              		.section	.text.test_005_005_execute,"ax",%progbits
 1418              		.align	1
 1419              		.p2align 4,,15
 1420              		.syntax unified
 1421              		.thumb
 1422              		.thumb_func
 1423              		.fpu softvfp
 1424              		.type	test_005_005_execute, %function
 1425              	test_005_005_execute:
 1426              	.LFB289:
 1427              		.loc 1 597 40 is_stmt 1 view -0
 1428              		.cfi_startproc
 1429              		@ args = 0, pretend = 0, frame = 0
 1430              		@ frame_needed = 0, uses_anonymous_args = 0
 1431              		.loc 1 598 3 view .LVU306
 1432              		.loc 1 599 3 view .LVU307
 1433              		.loc 1 602 3 view .LVU308
 1434              		.loc 1 604 5 view .LVU309
 1435              	.LBB178:
 1436              	.LBI178:
 1437              		.loc 2 297 23 view .LVU310
 1438              	.LBB179:
 1439              		.loc 2 299 3 view .LVU311
 1440              	.LBB180:
 1441              	.LBI180:
 1442              		.loc 2 284 25 view .LVU312
 1443              	.LBB181:
 1444              		.loc 2 286 3 view .LVU313
 1445              	.LBE181:
 1446              	.LBE180:
 1447              	.LBE179:
 1448              	.LBE178:
 1449              		.loc 1 597 40 is_stmt 0 view .LVU314
 1450 0000 F8B5     		push	{r3, r4, r5, r6, r7, lr}
 1451              		.cfi_def_cfa_offset 24
 1452              		.cfi_offset 3, -24
 1453              		.cfi_offset 4, -20
 1454              		.cfi_offset 5, -16
 1455              		.cfi_offset 6, -12
 1456              		.cfi_offset 7, -8
 1457              		.cfi_offset 14, -4
 1458              	.LBB187:
 1459              	.LBB184:
 1460              	.LBB183:
 1461              	.LBB182:
 1462              		.loc 2 286 18 view .LVU315
 1463 0002 3C4E     		ldr	r6, .L58
ARM GAS  /tmp/ccMrTRpt.s 			page 27


 1464              	.LBE182:
 1465              	.LBE183:
 1466              	.LBE184:
 1467              	.LBE187:
 1468              		.loc 1 611 9 view .LVU316
 1469 0004 3C4C     		ldr	r4, .L58+4
 1470              	.LBB188:
 1471              	.LBB185:
 1472              		.loc 2 299 25 view .LVU317
 1473 0006 B269     		ldr	r2, [r6, #24]
 1474              	.LBE185:
 1475              	.LBE188:
 1476              		.loc 1 609 3 view .LVU318
 1477 0008 3C4D     		ldr	r5, .L58+8
 1478              	.LBB189:
 1479              	.LBB186:
 1480              		.loc 2 299 25 view .LVU319
 1481 000a 9768     		ldr	r7, [r2, #8]
 1482              	.LVL87:
 1483              		.loc 2 299 25 view .LVU320
 1484              	.LBE186:
 1485              	.LBE189:
 1486              		.loc 1 609 3 is_stmt 1 view .LVU321
 1487 000c 0223     		movs	r3, #2
 1488              		.loc 1 611 9 is_stmt 0 view .LVU322
 1489 000e 2046     		mov	r0, r4
 1490              		.loc 1 609 3 view .LVU323
 1491 0010 2B60     		str	r3, [r5]
 1492              		.loc 1 611 5 is_stmt 1 view .LVU324
 1493              		.loc 1 611 9 is_stmt 0 view .LVU325
 1494 0012 FFF7FEFF 		bl	chMtxTryLock
 1495              	.LVL88:
 1496              		.loc 1 612 5 is_stmt 1 view .LVU326
 1497 0016 3A49     		ldr	r1, .L58+12
 1498 0018 FFF7FEFF 		bl	_test_assert
 1499              	.LVL89:
 1500              		.loc 1 612 5 is_stmt 0 view .LVU327
 1501 001c 00B1     		cbz	r0, .L57
 1502              	.L52:
 1503              		.loc 1 656 1 view .LVU328
 1504 001e F8BD     		pop	{r3, r4, r5, r6, r7, pc}
 1505              	.LVL90:
 1506              	.L57:
 1507              		.loc 1 612 37 is_stmt 1 discriminator 2 view .LVU329
 1508              		.loc 1 617 3 discriminator 2 view .LVU330
 1509 0020 0323     		movs	r3, #3
 1510              		.loc 1 619 9 is_stmt 0 discriminator 2 view .LVU331
 1511 0022 2046     		mov	r0, r4
 1512              		.loc 1 617 3 discriminator 2 view .LVU332
 1513 0024 2B60     		str	r3, [r5]
 1514              		.loc 1 619 5 is_stmt 1 discriminator 2 view .LVU333
 1515              		.loc 1 619 9 is_stmt 0 discriminator 2 view .LVU334
 1516 0026 FFF7FEFF 		bl	chMtxTryLock
 1517              	.LVL91:
 1518              		.loc 1 620 5 is_stmt 1 discriminator 2 view .LVU335
 1519 002a 80F00100 		eor	r0, r0, #1
 1520              	.LVL92:
ARM GAS  /tmp/ccMrTRpt.s 			page 28


 1521              		.loc 1 620 5 is_stmt 0 discriminator 2 view .LVU336
 1522 002e 3549     		ldr	r1, .L58+16
 1523 0030 C0B2     		uxtb	r0, r0
 1524 0032 FFF7FEFF 		bl	_test_assert
 1525              	.LVL93:
 1526 0036 0028     		cmp	r0, #0
 1527 0038 F1D1     		bne	.L52
 1528              		.loc 1 620 34 is_stmt 1 discriminator 2 view .LVU337
 1529              		.loc 1 625 3 discriminator 2 view .LVU338
 1530 003a 0423     		movs	r3, #4
 1531              		.loc 1 627 5 is_stmt 0 discriminator 2 view .LVU339
 1532 003c 2046     		mov	r0, r4
 1533              		.loc 1 625 3 discriminator 2 view .LVU340
 1534 003e 2B60     		str	r3, [r5]
 1535              		.loc 1 627 5 is_stmt 1 discriminator 2 view .LVU341
 1536 0040 FFF7FEFF 		bl	chMtxUnlock
 1537              	.LVL94:
 1538              		.loc 1 628 5 discriminator 2 view .LVU342
 1539 0044 A068     		ldr	r0, [r4, #8]
 1540 0046 3049     		ldr	r1, .L58+20
 1541 0048 B0FA80F0 		clz	r0, r0
 1542 004c 4009     		lsrs	r0, r0, #5
 1543 004e FFF7FEFF 		bl	_test_assert
 1544              	.LVL95:
 1545 0052 0028     		cmp	r0, #0
 1546 0054 E3D1     		bne	.L52
 1547              		.loc 1 628 49 view .LVU343
 1548              		.loc 1 629 5 view .LVU344
 1549              	.LVL96:
 1550              	.LBB190:
 1551              	.LBI190:
 1552              		.file 6 "../../../os/rt/include/chschd.h"
 1553              		.loc 6 562 20 view .LVU345
 1554              	.LBB191:
 1555              		.loc 6 564 3 view .LVU346
 1556              		.loc 6 564 10 is_stmt 0 view .LVU347
 1557 0056 2068     		ldr	r0, [r4]
 1558              	.LBE191:
 1559              	.LBE190:
 1560              		.loc 1 629 5 view .LVU348
 1561 0058 2C49     		ldr	r1, .L58+24
 1562 005a 001B     		subs	r0, r0, r4
 1563 005c B0FA80F0 		clz	r0, r0
 1564 0060 4009     		lsrs	r0, r0, #5
 1565 0062 FFF7FEFF 		bl	_test_assert
 1566              	.LVL97:
 1567 0066 0028     		cmp	r0, #0
 1568 0068 D9D1     		bne	.L52
 1569              		.loc 1 629 61 is_stmt 1 discriminator 2 view .LVU349
 1570              		.loc 1 633 3 discriminator 2 view .LVU350
 1571 006a 0523     		movs	r3, #5
 1572 006c 2B60     		str	r3, [r5]
 1573              		.loc 1 635 5 discriminator 2 view .LVU351
 1574              	.LBB192:
 1575              	.LBI192:
 1576              		.loc 2 297 23 discriminator 2 view .LVU352
 1577              	.LBB193:
ARM GAS  /tmp/ccMrTRpt.s 			page 29


 1578              		.loc 2 299 3 discriminator 2 view .LVU353
 1579              	.LBB194:
 1580              	.LBI194:
 1581              		.loc 2 284 25 discriminator 2 view .LVU354
 1582              	.LBB195:
 1583              		.loc 2 286 3 discriminator 2 view .LVU355
 1584              	.LBE195:
 1585              	.LBE194:
 1586              		.loc 2 299 25 is_stmt 0 discriminator 2 view .LVU356
 1587 006e B369     		ldr	r3, [r6, #24]
 1588              	.LBE193:
 1589              	.LBE192:
 1590              		.loc 1 635 5 discriminator 2 view .LVU357
 1591 0070 2749     		ldr	r1, .L58+28
 1592 0072 9868     		ldr	r0, [r3, #8]
 1593 0074 C01B     		subs	r0, r0, r7
 1594 0076 B0FA80F0 		clz	r0, r0
 1595 007a 4009     		lsrs	r0, r0, #5
 1596 007c FFF7FEFF 		bl	_test_assert
 1597              	.LVL98:
 1598 0080 0028     		cmp	r0, #0
 1599 0082 CCD1     		bne	.L52
 1600              		.loc 1 635 69 is_stmt 1 discriminator 2 view .LVU358
 1601              		.loc 1 639 3 discriminator 2 view .LVU359
 1602 0084 0623     		movs	r3, #6
 1603              		.loc 1 641 9 is_stmt 0 discriminator 2 view .LVU360
 1604 0086 2046     		mov	r0, r4
 1605              		.loc 1 639 3 discriminator 2 view .LVU361
 1606 0088 2B60     		str	r3, [r5]
 1607              		.loc 1 641 5 is_stmt 1 discriminator 2 view .LVU362
 1608              		.loc 1 641 9 is_stmt 0 discriminator 2 view .LVU363
 1609 008a FFF7FEFF 		bl	chMtxTryLock
 1610              	.LVL99:
 1611              		.loc 1 642 5 is_stmt 1 discriminator 2 view .LVU364
 1612 008e 1C49     		ldr	r1, .L58+12
 1613 0090 FFF7FEFF 		bl	_test_assert
 1614              	.LVL100:
 1615              		.loc 1 642 5 is_stmt 0 discriminator 2 view .LVU365
 1616 0094 0028     		cmp	r0, #0
 1617 0096 C2D1     		bne	.L52
 1618              		.loc 1 642 37 is_stmt 1 discriminator 2 view .LVU366
 1619              		.loc 1 643 5 discriminator 2 view .LVU367
 1620              		.loc 1 643 9 is_stmt 0 discriminator 2 view .LVU368
 1621 0098 2046     		mov	r0, r4
 1622 009a FFF7FEFF 		bl	chMtxTryLock
 1623              	.LVL101:
 1624              		.loc 1 644 5 is_stmt 1 discriminator 2 view .LVU369
 1625 009e 80F00100 		eor	r0, r0, #1
 1626              	.LVL102:
 1627              		.loc 1 644 5 is_stmt 0 discriminator 2 view .LVU370
 1628 00a2 1849     		ldr	r1, .L58+16
 1629 00a4 C0B2     		uxtb	r0, r0
 1630 00a6 FFF7FEFF 		bl	_test_assert
 1631              	.LVL103:
 1632 00aa 0028     		cmp	r0, #0
 1633 00ac B7D1     		bne	.L52
 1634              		.loc 1 644 34 is_stmt 1 discriminator 2 view .LVU371
ARM GAS  /tmp/ccMrTRpt.s 			page 30


 1635              		.loc 1 646 5 discriminator 2 view .LVU372
 1636 00ae FFF7FEFF 		bl	chMtxUnlockAll
 1637              	.LVL104:
 1638              		.loc 1 647 5 discriminator 2 view .LVU373
 1639 00b2 A068     		ldr	r0, [r4, #8]
 1640 00b4 1449     		ldr	r1, .L58+20
 1641 00b6 B0FA80F0 		clz	r0, r0
 1642 00ba 4009     		lsrs	r0, r0, #5
 1643 00bc FFF7FEFF 		bl	_test_assert
 1644              	.LVL105:
 1645 00c0 0028     		cmp	r0, #0
 1646 00c2 ACD1     		bne	.L52
 1647              		.loc 1 647 49 view .LVU374
 1648              		.loc 1 648 5 view .LVU375
 1649              	.LVL106:
 1650              	.LBB196:
 1651              	.LBI196:
 1652              		.loc 6 562 20 view .LVU376
 1653              	.LBB197:
 1654              		.loc 6 564 3 view .LVU377
 1655              		.loc 6 564 10 is_stmt 0 view .LVU378
 1656 00c4 2068     		ldr	r0, [r4]
 1657              	.LBE197:
 1658              	.LBE196:
 1659              		.loc 1 648 5 view .LVU379
 1660 00c6 1149     		ldr	r1, .L58+24
 1661 00c8 001B     		subs	r0, r0, r4
 1662 00ca B0FA80F0 		clz	r0, r0
 1663 00ce 4009     		lsrs	r0, r0, #5
 1664 00d0 FFF7FEFF 		bl	_test_assert
 1665              	.LVL107:
 1666 00d4 0028     		cmp	r0, #0
 1667 00d6 A2D1     		bne	.L52
 1668              		.loc 1 648 61 is_stmt 1 discriminator 2 view .LVU380
 1669              		.loc 1 652 3 discriminator 2 view .LVU381
 1670              	.LBB198:
 1671              	.LBB199:
 1672              		.loc 2 299 25 is_stmt 0 discriminator 2 view .LVU382
 1673 00d8 B269     		ldr	r2, [r6, #24]
 1674              	.LBE199:
 1675              	.LBE198:
 1676              		.loc 1 654 5 discriminator 2 view .LVU383
 1677 00da 0D49     		ldr	r1, .L58+28
 1678 00dc 9068     		ldr	r0, [r2, #8]
 1679 00de C01B     		subs	r0, r0, r7
 1680              		.loc 1 652 3 discriminator 2 view .LVU384
 1681 00e0 0723     		movs	r3, #7
 1682              		.loc 1 654 5 discriminator 2 view .LVU385
 1683 00e2 B0FA80F0 		clz	r0, r0
 1684              		.loc 1 652 3 discriminator 2 view .LVU386
 1685 00e6 2B60     		str	r3, [r5]
 1686              		.loc 1 654 5 is_stmt 1 discriminator 2 view .LVU387
 1687              	.LBB203:
 1688              	.LBI198:
 1689              		.loc 2 297 23 discriminator 2 view .LVU388
 1690              	.LBB202:
 1691              		.loc 2 299 3 discriminator 2 view .LVU389
ARM GAS  /tmp/ccMrTRpt.s 			page 31


 1692              	.LBB200:
 1693              	.LBI200:
 1694              		.loc 2 284 25 discriminator 2 view .LVU390
 1695              	.LBB201:
 1696              		.loc 2 286 3 discriminator 2 view .LVU391
 1697              	.LBE201:
 1698              	.LBE200:
 1699              	.LBE202:
 1700              	.LBE203:
 1701              		.loc 1 654 5 is_stmt 0 discriminator 2 view .LVU392
 1702 00e8 4009     		lsrs	r0, r0, #5
 1703              		.loc 1 656 1 discriminator 2 view .LVU393
 1704 00ea BDE8F840 		pop	{r3, r4, r5, r6, r7, lr}
 1705              		.cfi_restore 14
 1706              		.cfi_restore 7
 1707              		.cfi_restore 6
 1708              		.cfi_restore 5
 1709              		.cfi_restore 4
 1710              		.cfi_restore 3
 1711              		.cfi_def_cfa_offset 0
 1712              	.LVL108:
 1713              		.loc 1 654 5 discriminator 2 view .LVU394
 1714 00ee FFF7FEBF 		b	_test_assert
 1715              	.LVL109:
 1716              	.L59:
 1717 00f2 00BF     		.align	2
 1718              	.L58:
 1719 00f4 00000000 		.word	ch
 1720 00f8 00000000 		.word	.LANCHOR2
 1721 00fc 00000000 		.word	test_step
 1722 0100 00000000 		.word	.LC9
 1723 0104 10000000 		.word	.LC10
 1724 0108 1C000000 		.word	.LC11
 1725 010c 28000000 		.word	.LC12
 1726 0110 00000000 		.word	.LC8
 1727              		.cfi_endproc
 1728              	.LFE289:
 1729              		.size	test_005_005_execute, .-test_005_005_execute
 1730              		.section	.text.test_005_004_execute,"ax",%progbits
 1731              		.align	1
 1732              		.p2align 4,,15
 1733              		.syntax unified
 1734              		.thumb
 1735              		.thumb_func
 1736              		.fpu softvfp
 1737              		.type	test_005_004_execute, %function
 1738              	test_005_004_execute:
 1739              	.LFB287:
 1740              		.loc 1 488 40 is_stmt 1 view -0
 1741              		.cfi_startproc
 1742              		@ args = 0, pretend = 0, frame = 0
 1743              		@ frame_needed = 0, uses_anonymous_args = 0
 1744              		.loc 1 489 3 view .LVU396
 1745              		.loc 1 493 3 view .LVU397
 1746              		.loc 1 495 5 view .LVU398
 1747              	.LBB204:
 1748              	.LBI204:
ARM GAS  /tmp/ccMrTRpt.s 			page 32


 1749              		.loc 2 297 23 view .LVU399
 1750              	.LBB205:
 1751              		.loc 2 299 3 view .LVU400
 1752              	.LBB206:
 1753              	.LBI206:
 1754              		.loc 2 284 25 view .LVU401
 1755              	.LBB207:
 1756              		.loc 2 286 3 view .LVU402
 1757              	.LBE207:
 1758              	.LBE206:
 1759              	.LBE205:
 1760              	.LBE204:
 1761              		.loc 1 488 40 is_stmt 0 view .LVU403
 1762 0000 2DE9F043 		push	{r4, r5, r6, r7, r8, r9, lr}
 1763              		.cfi_def_cfa_offset 28
 1764              		.cfi_offset 4, -28
 1765              		.cfi_offset 5, -24
 1766              		.cfi_offset 6, -20
 1767              		.cfi_offset 7, -16
 1768              		.cfi_offset 8, -12
 1769              		.cfi_offset 9, -8
 1770              		.cfi_offset 14, -4
 1771              	.LBB213:
 1772              	.LBB210:
 1773              	.LBB209:
 1774              	.LBB208:
 1775              		.loc 2 286 18 view .LVU404
 1776 0004 464D     		ldr	r5, .L66
 1777              	.LBE208:
 1778              	.LBE209:
 1779              	.LBE210:
 1780              	.LBE213:
 1781              		.loc 1 503 18 view .LVU405
 1782 0006 474F     		ldr	r7, .L66+4
 1783              	.LBB214:
 1784              	.LBB211:
 1785              		.loc 2 299 25 view .LVU406
 1786 0008 AB69     		ldr	r3, [r5, #24]
 1787              	.LBE211:
 1788              	.LBE214:
 1789              		.loc 1 501 3 view .LVU407
 1790 000a 474E     		ldr	r6, .L66+8
 1791              	.LBB215:
 1792              	.LBB212:
 1793              		.loc 2 299 25 view .LVU408
 1794 000c 9C68     		ldr	r4, [r3, #8]
 1795              	.LVL110:
 1796              		.loc 2 299 25 view .LVU409
 1797              	.LBE212:
 1798              	.LBE215:
 1799              		.loc 1 496 5 is_stmt 1 view .LVU410
 1800              		.loc 1 503 18 is_stmt 0 view .LVU411
 1801 000e 474B     		ldr	r3, .L66+12
 1802 0010 3868     		ldr	r0, [r7]
 1803              		.loc 1 488 40 view .LVU412
 1804 0012 83B0     		sub	sp, sp, #12
 1805              		.cfi_def_cfa_offset 40
ARM GAS  /tmp/ccMrTRpt.s 			page 33


 1806              		.loc 1 496 8 view .LVU413
 1807 0014 04F10108 		add	r8, r4, #1
 1808              	.LVL111:
 1809              		.loc 1 497 5 is_stmt 1 view .LVU414
 1810              		.loc 1 501 3 is_stmt 0 view .LVU415
 1811 0018 4FF0020C 		mov	ip, #2
 1812              		.loc 1 503 18 view .LVU416
 1813 001c 0093     		str	r3, [sp]
 1814 001e 4246     		mov	r2, r8
 1815 0020 434B     		ldr	r3, .L66+16
 1816              		.loc 1 501 3 view .LVU417
 1817 0022 C6F800C0 		str	ip, [r6]
 1818              		.loc 1 503 18 view .LVU418
 1819 0026 4FF4A471 		mov	r1, #328
 1820 002a FFF7FEFF 		bl	chThdCreateStatic
 1821              	.LVL112:
 1822 002e 0346     		mov	r3, r0
 1823              		.loc 1 504 18 view .LVU419
 1824 0030 7868     		ldr	r0, [r7, #4]
 1825              		.loc 1 503 16 view .LVU420
 1826 0032 404F     		ldr	r7, .L66+20
 1827              		.loc 1 497 8 view .LVU421
 1828 0034 04F10209 		add	r9, r4, #2
 1829              	.LVL113:
 1830              		.loc 1 501 3 is_stmt 1 view .LVU422
 1831              		.loc 1 503 5 view .LVU423
 1832              		.loc 1 503 16 is_stmt 0 view .LVU424
 1833 0038 3B60     		str	r3, [r7]
 1834              		.loc 1 504 5 is_stmt 1 view .LVU425
 1835              		.loc 1 504 18 is_stmt 0 view .LVU426
 1836 003a 3F4B     		ldr	r3, .L66+24
 1837 003c 0093     		str	r3, [sp]
 1838 003e 4FF4A471 		mov	r1, #328
 1839 0042 3E4B     		ldr	r3, .L66+28
 1840 0044 4A46     		mov	r2, r9
 1841 0046 FFF7FEFF 		bl	chThdCreateStatic
 1842              	.LVL114:
 1843              		.loc 1 510 3 view .LVU427
 1844 004a 0323     		movs	r3, #3
 1845              		.loc 1 504 16 view .LVU428
 1846 004c 7860     		str	r0, [r7, #4]
 1847              		.loc 1 510 3 is_stmt 1 view .LVU429
 1848              		.loc 1 512 5 is_stmt 0 view .LVU430
 1849 004e 3C48     		ldr	r0, .L66+32
 1850              		.loc 1 510 3 view .LVU431
 1851 0050 3360     		str	r3, [r6]
 1852              		.loc 1 512 5 is_stmt 1 view .LVU432
 1853 0052 FFF7FEFF 		bl	chMtxLock
 1854              	.LVL115:
 1855              		.loc 1 513 5 view .LVU433
 1856              	.LBB216:
 1857              	.LBI216:
 1858              		.loc 2 297 23 view .LVU434
 1859              	.LBB217:
 1860              		.loc 2 299 3 view .LVU435
 1861              	.LBB218:
 1862              	.LBI218:
ARM GAS  /tmp/ccMrTRpt.s 			page 34


 1863              		.loc 2 284 25 view .LVU436
 1864              	.LBB219:
 1865              		.loc 2 286 3 view .LVU437
 1866              	.LBE219:
 1867              	.LBE218:
 1868              		.loc 2 299 25 is_stmt 0 view .LVU438
 1869 0056 AB69     		ldr	r3, [r5, #24]
 1870              	.LBE217:
 1871              	.LBE216:
 1872              		.loc 1 513 5 view .LVU439
 1873 0058 3A49     		ldr	r1, .L66+36
 1874 005a 9868     		ldr	r0, [r3, #8]
 1875 005c 001B     		subs	r0, r0, r4
 1876 005e B0FA80F0 		clz	r0, r0
 1877 0062 4009     		lsrs	r0, r0, #5
 1878 0064 FFF7FEFF 		bl	_test_assert
 1879              	.LVL116:
 1880 0068 10B1     		cbz	r0, .L65
 1881              	.L60:
 1882              		.loc 1 556 1 view .LVU440
 1883 006a 03B0     		add	sp, sp, #12
 1884              		.cfi_remember_state
 1885              		.cfi_def_cfa_offset 28
 1886              		@ sp needed
 1887 006c BDE8F083 		pop	{r4, r5, r6, r7, r8, r9, pc}
 1888              	.LVL117:
 1889              	.L65:
 1890              		.cfi_restore_state
 1891              		.loc 1 513 66 is_stmt 1 discriminator 2 view .LVU441
 1892              		.loc 1 519 3 discriminator 2 view .LVU442
 1893 0070 0423     		movs	r3, #4
 1894              		.loc 1 521 5 is_stmt 0 discriminator 2 view .LVU443
 1895 0072 4FF47A70 		mov	r0, #1000
 1896              		.loc 1 519 3 discriminator 2 view .LVU444
 1897 0076 3360     		str	r3, [r6]
 1898              		.loc 1 521 5 is_stmt 1 discriminator 2 view .LVU445
 1899 0078 FFF7FEFF 		bl	chThdSleep
 1900              	.LVL118:
 1901              		.loc 1 522 5 discriminator 2 view .LVU446
 1902              	.LBB220:
 1903              	.LBI220:
 1904              		.loc 2 297 23 discriminator 2 view .LVU447
 1905              	.LBB221:
 1906              		.loc 2 299 3 discriminator 2 view .LVU448
 1907              	.LBB222:
 1908              	.LBI222:
 1909              		.loc 2 284 25 discriminator 2 view .LVU449
 1910              	.LBB223:
 1911              		.loc 2 286 3 discriminator 2 view .LVU450
 1912              	.LBE223:
 1913              	.LBE222:
 1914              		.loc 2 299 25 is_stmt 0 discriminator 2 view .LVU451
 1915 007c AB69     		ldr	r3, [r5, #24]
 1916              	.LBE221:
 1917              	.LBE220:
 1918              		.loc 1 522 5 discriminator 2 view .LVU452
 1919 007e 3149     		ldr	r1, .L66+36
ARM GAS  /tmp/ccMrTRpt.s 			page 35


 1920 0080 9868     		ldr	r0, [r3, #8]
 1921 0082 A0EB0800 		sub	r0, r0, r8
 1922 0086 B0FA80F0 		clz	r0, r0
 1923 008a 4009     		lsrs	r0, r0, #5
 1924 008c FFF7FEFF 		bl	_test_assert
 1925              	.LVL119:
 1926 0090 0028     		cmp	r0, #0
 1927 0092 EAD1     		bne	.L60
 1928              		.loc 1 522 67 is_stmt 1 discriminator 2 view .LVU453
 1929              		.loc 1 528 3 discriminator 2 view .LVU454
 1930 0094 0523     		movs	r3, #5
 1931              		.loc 1 530 5 is_stmt 0 discriminator 2 view .LVU455
 1932 0096 2C48     		ldr	r0, .L66+40
 1933              		.loc 1 528 3 discriminator 2 view .LVU456
 1934 0098 3360     		str	r3, [r6]
 1935              		.loc 1 530 5 is_stmt 1 discriminator 2 view .LVU457
 1936 009a FFF7FEFF 		bl	chMtxLock
 1937              	.LVL120:
 1938              		.loc 1 531 5 discriminator 2 view .LVU458
 1939              	.LBB224:
 1940              	.LBI224:
 1941              		.loc 2 297 23 discriminator 2 view .LVU459
 1942              	.LBB225:
 1943              		.loc 2 299 3 discriminator 2 view .LVU460
 1944              	.LBB226:
 1945              	.LBI226:
 1946              		.loc 2 284 25 discriminator 2 view .LVU461
 1947              	.LBB227:
 1948              		.loc 2 286 3 discriminator 2 view .LVU462
 1949              	.LBE227:
 1950              	.LBE226:
 1951              		.loc 2 299 25 is_stmt 0 discriminator 2 view .LVU463
 1952 009e AB69     		ldr	r3, [r5, #24]
 1953              	.LBE225:
 1954              	.LBE224:
 1955              		.loc 1 531 5 discriminator 2 view .LVU464
 1956 00a0 2849     		ldr	r1, .L66+36
 1957 00a2 9868     		ldr	r0, [r3, #8]
 1958 00a4 A0EB0800 		sub	r0, r0, r8
 1959 00a8 B0FA80F0 		clz	r0, r0
 1960 00ac 4009     		lsrs	r0, r0, #5
 1961 00ae FFF7FEFF 		bl	_test_assert
 1962              	.LVL121:
 1963 00b2 0028     		cmp	r0, #0
 1964 00b4 D9D1     		bne	.L60
 1965              		.loc 1 531 67 is_stmt 1 discriminator 2 view .LVU465
 1966              		.loc 1 537 3 discriminator 2 view .LVU466
 1967 00b6 0623     		movs	r3, #6
 1968              		.loc 1 539 5 is_stmt 0 discriminator 2 view .LVU467
 1969 00b8 4FF47A70 		mov	r0, #1000
 1970              		.loc 1 537 3 discriminator 2 view .LVU468
 1971 00bc 3360     		str	r3, [r6]
 1972              		.loc 1 539 5 is_stmt 1 discriminator 2 view .LVU469
 1973 00be FFF7FEFF 		bl	chThdSleep
 1974              	.LVL122:
 1975              		.loc 1 540 5 discriminator 2 view .LVU470
 1976              	.LBB228:
ARM GAS  /tmp/ccMrTRpt.s 			page 36


 1977              	.LBI228:
 1978              		.loc 2 297 23 discriminator 2 view .LVU471
 1979              	.LBB229:
 1980              		.loc 2 299 3 discriminator 2 view .LVU472
 1981              	.LBB230:
 1982              	.LBI230:
 1983              		.loc 2 284 25 discriminator 2 view .LVU473
 1984              	.LBB231:
 1985              		.loc 2 286 3 discriminator 2 view .LVU474
 1986              	.LBE231:
 1987              	.LBE230:
 1988              		.loc 2 299 25 is_stmt 0 discriminator 2 view .LVU475
 1989 00c2 AB69     		ldr	r3, [r5, #24]
 1990              	.LBE229:
 1991              	.LBE228:
 1992              		.loc 1 540 5 discriminator 2 view .LVU476
 1993 00c4 1F49     		ldr	r1, .L66+36
 1994 00c6 9868     		ldr	r0, [r3, #8]
 1995 00c8 A0EB0900 		sub	r0, r0, r9
 1996 00cc B0FA80F0 		clz	r0, r0
 1997 00d0 4009     		lsrs	r0, r0, #5
 1998 00d2 FFF7FEFF 		bl	_test_assert
 1999              	.LVL123:
 2000 00d6 0028     		cmp	r0, #0
 2001 00d8 C7D1     		bne	.L60
 2002              		.loc 1 540 67 is_stmt 1 discriminator 2 view .LVU477
 2003              		.loc 1 544 3 discriminator 2 view .LVU478
 2004 00da 0723     		movs	r3, #7
 2005              		.loc 1 546 5 is_stmt 0 discriminator 2 view .LVU479
 2006 00dc 1A48     		ldr	r0, .L66+40
 2007              		.loc 1 544 3 discriminator 2 view .LVU480
 2008 00de 3360     		str	r3, [r6]
 2009              		.loc 1 546 5 is_stmt 1 discriminator 2 view .LVU481
 2010 00e0 FFF7FEFF 		bl	chMtxUnlock
 2011              	.LVL124:
 2012              		.loc 1 547 5 discriminator 2 view .LVU482
 2013              	.LBB232:
 2014              	.LBI232:
 2015              		.loc 2 297 23 discriminator 2 view .LVU483
 2016              	.LBB233:
 2017              		.loc 2 299 3 discriminator 2 view .LVU484
 2018              	.LBB234:
 2019              	.LBI234:
 2020              		.loc 2 284 25 discriminator 2 view .LVU485
 2021              	.LBB235:
 2022              		.loc 2 286 3 discriminator 2 view .LVU486
 2023              	.LBE235:
 2024              	.LBE234:
 2025              		.loc 2 299 25 is_stmt 0 discriminator 2 view .LVU487
 2026 00e4 AB69     		ldr	r3, [r5, #24]
 2027              	.LBE233:
 2028              	.LBE232:
 2029              		.loc 1 547 5 discriminator 2 view .LVU488
 2030 00e6 1749     		ldr	r1, .L66+36
 2031 00e8 9868     		ldr	r0, [r3, #8]
 2032 00ea A0EB0800 		sub	r0, r0, r8
 2033 00ee B0FA80F0 		clz	r0, r0
ARM GAS  /tmp/ccMrTRpt.s 			page 37


 2034 00f2 4009     		lsrs	r0, r0, #5
 2035 00f4 FFF7FEFF 		bl	_test_assert
 2036              	.LVL125:
 2037 00f8 0028     		cmp	r0, #0
 2038 00fa B6D1     		bne	.L60
 2039              		.loc 1 547 67 is_stmt 1 discriminator 2 view .LVU489
 2040              		.loc 1 551 3 discriminator 2 view .LVU490
 2041 00fc 0823     		movs	r3, #8
 2042              		.loc 1 553 5 is_stmt 0 discriminator 2 view .LVU491
 2043 00fe 1048     		ldr	r0, .L66+32
 2044              		.loc 1 551 3 discriminator 2 view .LVU492
 2045 0100 3360     		str	r3, [r6]
 2046              		.loc 1 553 5 is_stmt 1 discriminator 2 view .LVU493
 2047 0102 FFF7FEFF 		bl	chMtxUnlock
 2048              	.LVL126:
 2049              		.loc 1 554 5 discriminator 2 view .LVU494
 2050              	.LBB236:
 2051              	.LBI236:
 2052              		.loc 2 297 23 discriminator 2 view .LVU495
 2053              	.LBB237:
 2054              		.loc 2 299 3 discriminator 2 view .LVU496
 2055              	.LBB238:
 2056              	.LBI238:
 2057              		.loc 2 284 25 discriminator 2 view .LVU497
 2058              	.LBB239:
 2059              		.loc 2 286 3 discriminator 2 view .LVU498
 2060              	.LBE239:
 2061              	.LBE238:
 2062              		.loc 2 299 25 is_stmt 0 discriminator 2 view .LVU499
 2063 0106 AB69     		ldr	r3, [r5, #24]
 2064              	.LBE237:
 2065              	.LBE236:
 2066              		.loc 1 554 5 discriminator 2 view .LVU500
 2067 0108 0E49     		ldr	r1, .L66+36
 2068 010a 9868     		ldr	r0, [r3, #8]
 2069 010c 001B     		subs	r0, r0, r4
 2070 010e B0FA80F0 		clz	r0, r0
 2071 0112 4009     		lsrs	r0, r0, #5
 2072              		.loc 1 556 1 discriminator 2 view .LVU501
 2073 0114 03B0     		add	sp, sp, #12
 2074              		.cfi_def_cfa_offset 28
 2075              		@ sp needed
 2076 0116 BDE8F043 		pop	{r4, r5, r6, r7, r8, r9, lr}
 2077              		.cfi_restore 14
 2078              		.cfi_restore 9
 2079              		.cfi_restore 8
 2080              		.cfi_restore 7
 2081              		.cfi_restore 6
 2082              		.cfi_restore 5
 2083              		.cfi_restore 4
 2084              		.cfi_def_cfa_offset 0
 2085              	.LVL127:
 2086              		.loc 1 554 5 discriminator 2 view .LVU502
 2087 011a FFF7FEBF 		b	_test_assert
 2088              	.LVL128:
 2089              	.L67:
 2090 011e 00BF     		.align	2
ARM GAS  /tmp/ccMrTRpt.s 			page 38


 2091              	.L66:
 2092 0120 00000000 		.word	ch
 2093 0124 00000000 		.word	wa
 2094 0128 00000000 		.word	test_step
 2095 012c 00000000 		.word	.LC0
 2096 0130 00000000 		.word	thread4A
 2097 0134 00000000 		.word	threads
 2098 0138 08000000 		.word	.LC2
 2099 013c 00000000 		.word	thread4B
 2100 0140 00000000 		.word	.LANCHOR2
 2101 0144 00000000 		.word	.LC8
 2102 0148 00000000 		.word	.LANCHOR1
 2103              		.cfi_endproc
 2104              	.LFE287:
 2105              		.size	test_005_004_execute, .-test_005_004_execute
 2106              		.section	.text.thread4A,"ax",%progbits
 2107              		.align	1
 2108              		.p2align 4,,15
 2109              		.syntax unified
 2110              		.thumb
 2111              		.thumb_func
 2112              		.fpu softvfp
 2113              		.type	thread4A, %function
 2114              	thread4A:
 2115              	.LVL129:
 2116              	.LFB278:
 2117              		.loc 1 182 34 is_stmt 1 view -0
 2118              		.cfi_startproc
 2119              		@ args = 0, pretend = 0, frame = 0
 2120              		@ frame_needed = 0, uses_anonymous_args = 0
 2121              		.loc 1 184 3 view .LVU504
 2122              		.loc 1 185 3 view .LVU505
 2123              		.loc 1 182 34 is_stmt 0 view .LVU506
 2124 0000 10B5     		push	{r4, lr}
 2125              		.cfi_def_cfa_offset 8
 2126              		.cfi_offset 4, -8
 2127              		.cfi_offset 14, -4
 2128              		.loc 1 186 3 view .LVU507
 2129 0002 064C     		ldr	r4, .L70
 2130              		.loc 1 185 3 view .LVU508
 2131 0004 4FF4FA70 		mov	r0, #500
 2132              	.LVL130:
 2133              		.loc 1 185 3 view .LVU509
 2134 0008 FFF7FEFF 		bl	chThdSleep
 2135              	.LVL131:
 2136              		.loc 1 186 3 is_stmt 1 view .LVU510
 2137 000c 2046     		mov	r0, r4
 2138 000e FFF7FEFF 		bl	chMtxLock
 2139              	.LVL132:
 2140              		.loc 1 187 3 view .LVU511
 2141 0012 2046     		mov	r0, r4
 2142              		.loc 1 188 1 is_stmt 0 view .LVU512
 2143 0014 BDE81040 		pop	{r4, lr}
 2144              		.cfi_restore 14
 2145              		.cfi_restore 4
 2146              		.cfi_def_cfa_offset 0
 2147              		.loc 1 187 3 view .LVU513
ARM GAS  /tmp/ccMrTRpt.s 			page 39


 2148 0018 FFF7FEBF 		b	chMtxUnlock
 2149              	.LVL133:
 2150              	.L71:
 2151              		.align	2
 2152              	.L70:
 2153 001c 00000000 		.word	.LANCHOR2
 2154              		.cfi_endproc
 2155              	.LFE278:
 2156              		.size	thread4A, .-thread4A
 2157              		.section	.text.thread4B,"ax",%progbits
 2158              		.align	1
 2159              		.p2align 4,,15
 2160              		.syntax unified
 2161              		.thumb
 2162              		.thumb_func
 2163              		.fpu softvfp
 2164              		.type	thread4B, %function
 2165              	thread4B:
 2166              	.LVL134:
 2167              	.LFB279:
 2168              		.loc 1 190 34 is_stmt 1 view -0
 2169              		.cfi_startproc
 2170              		@ args = 0, pretend = 0, frame = 0
 2171              		@ frame_needed = 0, uses_anonymous_args = 0
 2172              		.loc 1 192 3 view .LVU515
 2173              		.loc 1 193 3 view .LVU516
 2174              		.loc 1 190 34 is_stmt 0 view .LVU517
 2175 0000 10B5     		push	{r4, lr}
 2176              		.cfi_def_cfa_offset 8
 2177              		.cfi_offset 4, -8
 2178              		.cfi_offset 14, -4
 2179              		.loc 1 193 3 view .LVU518
 2180 0002 40F2DC50 		movw	r0, #1500
 2181              	.LVL135:
 2182              		.loc 1 193 3 view .LVU519
 2183 0006 FFF7FEFF 		bl	chThdSleep
 2184              	.LVL136:
 2185              		.loc 1 194 3 is_stmt 1 view .LVU520
 2186              	.LBB240:
 2187              	.LBI240:
 2188              		.loc 3 374 20 view .LVU521
 2189              	.LBE240:
 2190              		.loc 3 376 3 view .LVU522
 2191              	.LBB245:
 2192              	.LBB241:
 2193              	.LBI241:
 2194              		.loc 4 594 20 view .LVU523
 2195              	.LBE241:
 2196              	.LBE245:
 2197              		.loc 4 602 3 view .LVU524
 2198              	.LBB246:
 2199              	.LBB244:
 2200              	.LBB242:
 2201              	.LBI242:
 2202              		.loc 5 262 57 view .LVU525
 2203              	.LBB243:
 2204              		.loc 5 264 3 view .LVU526
ARM GAS  /tmp/ccMrTRpt.s 			page 40


 2205 000a 2023     		movs	r3, #32
 2206              		.syntax unified
 2207              	@ 264 "../../../os/common/ext/CMSIS/include/cmsis_gcc.h" 1
 2208 000c 83F31188 		MSR basepri, r3
 2209              	@ 0 "" 2
 2210              	.LVL137:
 2211              		.loc 5 264 3 is_stmt 0 view .LVU527
 2212              		.thumb
 2213              		.syntax unified
 2214              	.LBE243:
 2215              	.LBE242:
 2216              	.LBE244:
 2217              	.LBE246:
 2218              		.loc 3 377 34 is_stmt 1 view .LVU528
 2219              		.loc 3 378 20 view .LVU529
 2220              		.loc 1 195 3 view .LVU530
 2221 0010 064C     		ldr	r4, .L74
 2222 0012 2046     		mov	r0, r4
 2223 0014 FFF7FEFF 		bl	chMtxLockS
 2224              	.LVL138:
 2225              		.loc 1 196 3 view .LVU531
 2226 0018 2046     		mov	r0, r4
 2227 001a FFF7FEFF 		bl	chMtxUnlockS
 2228              	.LVL139:
 2229              		.loc 1 197 3 view .LVU532
 2230 001e FFF7FEFF 		bl	chSchRescheduleS
 2231              	.LVL140:
 2232              		.loc 1 198 3 view .LVU533
 2233              	.LBB247:
 2234              	.LBI247:
 2235              		.loc 3 386 20 view .LVU534
 2236              	.LBB248:
 2237              		.loc 3 388 22 view .LVU535
 2238              		.loc 3 389 33 view .LVU536
 2239              		.loc 3 395 3 view .LVU537
 2240              		.loc 3 395 3 view .LVU538
 2241              		.loc 3 395 3 view .LVU539
 2242              		.loc 3 399 3 view .LVU540
 2243              	.LBB249:
 2244              	.LBI249:
 2245              		.loc 4 618 20 view .LVU541
 2246              	.LBE249:
 2247              	.LBE248:
 2248              	.LBE247:
 2249              		.loc 4 621 3 view .LVU542
 2250              	.LBB254:
 2251              	.LBB253:
 2252              	.LBB252:
 2253              	.LBB250:
 2254              	.LBI250:
 2255              		.loc 5 262 57 view .LVU543
 2256              	.LBB251:
 2257              		.loc 5 264 3 view .LVU544
 2258 0022 0023     		movs	r3, #0
 2259              		.syntax unified
 2260              	@ 264 "../../../os/common/ext/CMSIS/include/cmsis_gcc.h" 1
 2261 0024 83F31188 		MSR basepri, r3
ARM GAS  /tmp/ccMrTRpt.s 			page 41


 2262              	@ 0 "" 2
 2263              	.LVL141:
 2264              		.loc 5 264 3 is_stmt 0 view .LVU545
 2265              		.thumb
 2266              		.syntax unified
 2267              	.LBE251:
 2268              	.LBE250:
 2269              	.LBE252:
 2270              	.LBE253:
 2271              	.LBE254:
 2272              		.loc 1 199 1 view .LVU546
 2273 0028 10BD     		pop	{r4, pc}
 2274              	.L75:
 2275 002a 00BF     		.align	2
 2276              	.L74:
 2277 002c 00000000 		.word	.LANCHOR1
 2278              		.cfi_endproc
 2279              	.LFE279:
 2280              		.size	thread4B, .-thread4B
 2281              		.section	.text.test_005_005_setup,"ax",%progbits
 2282              		.align	1
 2283              		.p2align 4,,15
 2284              		.syntax unified
 2285              		.thumb
 2286              		.thumb_func
 2287              		.fpu softvfp
 2288              		.type	test_005_005_setup, %function
 2289              	test_005_005_setup:
 2290              	.LFB297:
 2291              		.cfi_startproc
 2292              		@ args = 0, pretend = 0, frame = 0
 2293              		@ frame_needed = 0, uses_anonymous_args = 0
 2294              		@ link register save eliminated.
 2295 0000 0148     		ldr	r0, .L77
 2296 0002 FFF7FEBF 		b	chMtxObjectInit
 2297              	.L78:
 2298 0006 00BF     		.align	2
 2299              	.L77:
 2300 0008 00000000 		.word	.LANCHOR2
 2301              		.cfi_endproc
 2302              	.LFE297:
 2303              		.size	test_005_005_setup, .-test_005_005_setup
 2304              		.section	.text.test_005_008_setup,"ax",%progbits
 2305              		.align	1
 2306              		.p2align 4,,15
 2307              		.syntax unified
 2308              		.thumb
 2309              		.thumb_func
 2310              		.fpu softvfp
 2311              		.type	test_005_008_setup, %function
 2312              	test_005_008_setup:
 2313              	.LFB299:
 2314              		.cfi_startproc
 2315              		@ args = 0, pretend = 0, frame = 0
 2316              		@ frame_needed = 0, uses_anonymous_args = 0
 2317 0000 08B5     		push	{r3, lr}
 2318              		.cfi_def_cfa_offset 8
ARM GAS  /tmp/ccMrTRpt.s 			page 42


 2319              		.cfi_offset 3, -8
 2320              		.cfi_offset 14, -4
 2321 0002 0448     		ldr	r0, .L81
 2322 0004 FFF7FEFF 		bl	chCondObjectInit
 2323 0008 BDE80840 		pop	{r3, lr}
 2324              		.cfi_restore 14
 2325              		.cfi_restore 3
 2326              		.cfi_def_cfa_offset 0
 2327 000c 0248     		ldr	r0, .L81+4
 2328 000e FFF7FEBF 		b	chMtxObjectInit
 2329              	.L82:
 2330 0012 00BF     		.align	2
 2331              	.L81:
 2332 0014 00000000 		.word	.LANCHOR0
 2333 0018 00000000 		.word	.LANCHOR2
 2334              		.cfi_endproc
 2335              	.LFE299:
 2336              		.size	test_005_008_setup, .-test_005_008_setup
 2337              		.global	test_sequence_005
 2338              		.section	.rodata.str1.4,"aMS",%progbits,1
 2339              		.align	2
 2340              	.LC13:
 2341 0000 436F6E64 		.ascii	"Condition Variable priority boost test\000"
 2341      6974696F 
 2341      6E205661 
 2341      72696162 
 2341      6C652070 
 2342 0027 00       		.align	2
 2343              	.LC14:
 2344 0028 436F6E64 		.ascii	"Condition Variable broadcast test\000"
 2344      6974696F 
 2344      6E205661 
 2344      72696162 
 2344      6C652062 
 2345 004a 0000     		.align	2
 2346              	.LC15:
 2347 004c 436F6E64 		.ascii	"Condition Variable signal test\000"
 2347      6974696F 
 2347      6E205661 
 2347      72696162 
 2347      6C652073 
 2348 006b 00       		.align	2
 2349              	.LC16:
 2350 006c 52657065 		.ascii	"Repeated locks, non recursive scenario\000"
 2350      61746564 
 2350      206C6F63 
 2350      6B732C20 
 2350      6E6F6E20 
 2351 0093 00       		.align	2
 2352              	.LC17:
 2353 0094 5072696F 		.ascii	"Priority return verification\000"
 2353      72697479 
 2353      20726574 
 2353      75726E20 
 2353      76657269 
 2354 00b1 000000   		.align	2
 2355              	.LC18:
ARM GAS  /tmp/ccMrTRpt.s 			page 43


 2356 00b4 5072696F 		.ascii	"Priority enqueuing test\000"
 2356      72697479 
 2356      20656E71 
 2356      75657569 
 2356      6E672074 
 2357              		.section	.data.c1,"aw"
 2358              		.align	2
 2359              		.set	.LANCHOR0,. + 0
 2360              		.type	c1, %object
 2361              		.size	c1, 8
 2362              	c1:
 2363 0000 00000000 		.word	c1
 2364 0004 00000000 		.word	c1
 2365              		.section	.data.m1,"aw"
 2366              		.align	2
 2367              		.set	.LANCHOR2,. + 0
 2368              		.type	m1, %object
 2369              		.size	m1, 16
 2370              	m1:
 2371 0000 00000000 		.word	m1
 2372 0004 00000000 		.word	m1
 2373 0008 00000000 		.word	0
 2374 000c 00000000 		.word	0
 2375              		.section	.data.m2,"aw"
 2376              		.align	2
 2377              		.set	.LANCHOR1,. + 0
 2378              		.type	m2, %object
 2379              		.size	m2, 16
 2380              	m2:
 2381 0000 00000000 		.word	m2
 2382 0004 00000000 		.word	m2
 2383 0008 00000000 		.word	0
 2384 000c 00000000 		.word	0
 2385              		.section	.rodata.test_005_001,"a"
 2386              		.align	2
 2387              		.type	test_005_001, %object
 2388              		.size	test_005_001, 16
 2389              	test_005_001:
 2390 0000 B4000000 		.word	.LC18
 2391 0004 00000000 		.word	test_005_001_setup
 2392 0008 00000000 		.word	0
 2393 000c 00000000 		.word	test_005_001_execute
 2394              		.section	.rodata.test_005_004,"a"
 2395              		.align	2
 2396              		.type	test_005_004, %object
 2397              		.size	test_005_004, 16
 2398              	test_005_004:
 2399 0000 94000000 		.word	.LC17
 2400 0004 00000000 		.word	test_005_004_setup
 2401 0008 00000000 		.word	test_005_004_teardown
 2402 000c 00000000 		.word	test_005_004_execute
 2403              		.section	.rodata.test_005_005,"a"
 2404              		.align	2
 2405              		.type	test_005_005, %object
 2406              		.size	test_005_005, 16
 2407              	test_005_005:
 2408 0000 6C000000 		.word	.LC16
ARM GAS  /tmp/ccMrTRpt.s 			page 44


 2409 0004 00000000 		.word	test_005_005_setup
 2410 0008 00000000 		.word	0
 2411 000c 00000000 		.word	test_005_005_execute
 2412              		.section	.rodata.test_005_007,"a"
 2413              		.align	2
 2414              		.type	test_005_007, %object
 2415              		.size	test_005_007, 16
 2416              	test_005_007:
 2417 0000 4C000000 		.word	.LC15
 2418 0004 00000000 		.word	test_005_007_setup
 2419 0008 00000000 		.word	0
 2420 000c 00000000 		.word	test_005_007_execute
 2421              		.section	.rodata.test_005_008,"a"
 2422              		.align	2
 2423              		.type	test_005_008, %object
 2424              		.size	test_005_008, 16
 2425              	test_005_008:
 2426 0000 28000000 		.word	.LC14
 2427 0004 00000000 		.word	test_005_008_setup
 2428 0008 00000000 		.word	0
 2429 000c 00000000 		.word	test_005_008_execute
 2430              		.section	.rodata.test_005_009,"a"
 2431              		.align	2
 2432              		.type	test_005_009, %object
 2433              		.size	test_005_009, 16
 2434              	test_005_009:
 2435 0000 00000000 		.word	.LC13
 2436 0004 00000000 		.word	test_005_009_setup
 2437 0008 00000000 		.word	0
 2438 000c 00000000 		.word	test_005_009_execute
 2439              		.section	.rodata.test_sequence_005,"a"
 2440              		.align	2
 2441              		.type	test_sequence_005, %object
 2442              		.size	test_sequence_005, 28
 2443              	test_sequence_005:
 2444 0000 00000000 		.word	test_005_001
 2445 0004 00000000 		.word	test_005_004
 2446 0008 00000000 		.word	test_005_005
 2447 000c 00000000 		.word	test_005_007
 2448 0010 00000000 		.word	test_005_008
 2449 0014 00000000 		.word	test_005_009
 2450 0018 00000000 		.word	0
 2451              		.text
 2452              	.Letext0:
 2453              		.file 7 "/usr/lib/gcc/arm-none-eabi/10.3.1/include/stddef.h"
 2454              		.file 8 "/usr/lib/gcc/arm-none-eabi/10.3.1/include/stdint.h"
 2455              		.file 9 "../../../os/common/ports/ARMCMx/compilers/GCC/chtypes.h"
 2456              		.file 10 "../../../os/rt/include/chsystypes.h"
 2457              		.file 11 "../../../os/common/ports/ARMCMx/chcore.h"
 2458              		.file 12 "../../../os/rt/include/chtm.h"
 2459              		.file 13 "../../../os/rt/include/chsem.h"
 2460              		.file 14 "../../../os/rt/include/chmtx.h"
 2461              		.file 15 "../../../os/rt/include/chcond.h"
 2462              		.file 16 "../../../test/lib/ch_test.h"
 2463              		.file 17 "../../../test/rt/source/test/test_sequence_005.h"
 2464              		.file 18 "../../../test/rt/source/test/test_root.h"