ARM GAS  /tmp/ccItyVqU.s 			page 1


   1              		.cpu cortex-m4
   2              		.eabi_attribute 20, 1
   3              		.eabi_attribute 21, 1
   4              		.eabi_attribute 23, 3
   5              		.eabi_attribute 24, 1
   6              		.eabi_attribute 25, 1
   7              		.eabi_attribute 26, 1
   8              		.eabi_attribute 30, 2
   9              		.eabi_attribute 34, 1
  10              		.eabi_attribute 18, 4
  11              		.file	"test_sequence_003.c"
  12              		.text
  13              	.Ltext0:
  14              		.cfi_sections	.debug_frame
  15              		.section	.text.test_003_001_setup,"ax",%progbits
  16              		.align	1
  17              		.p2align 4,,15
  18              		.arch armv7e-m
  19              		.syntax unified
  20              		.thumb
  21              		.thumb_func
  22              		.fpu softvfp
  23              		.type	test_003_001_setup, %function
  24              	test_003_001_setup:
  25              	.LFB278:
  26              		.file 1 "../../../test/rt/source/test/test_sequence_003.c"
  27              		.loc 1 74 38 view -0
  28              		.cfi_startproc
  29              		@ args = 0, pretend = 0, frame = 0
  30              		@ frame_needed = 0, uses_anonymous_args = 0
  31              		@ link register save eliminated.
  32              		.loc 1 75 3 view .LVU1
  33              		.loc 1 75 7 is_stmt 0 view .LVU2
  34 0000 014B     		ldr	r3, .L3
  35 0002 0022     		movs	r2, #0
  36 0004 1A60     		str	r2, [r3]
  37              		.loc 1 76 1 view .LVU3
  38 0006 7047     		bx	lr
  39              	.L4:
  40              		.align	2
  41              	.L3:
  42 0008 00000000 		.word	.LANCHOR0
  43              		.cfi_endproc
  44              	.LFE278:
  45              		.size	test_003_001_setup, .-test_003_001_setup
  46              		.section	.rodata.test_003_001_execute.str1.4,"aMS",%progbits,1
  47              		.align	2
  48              	.LC0:
  49 0000 4100     		.ascii	"A\000"
  50 0002 0000     		.align	2
  51              	.LC1:
  52 0004 6E6F7420 		.ascii	"not NULL\000"
  52      4E554C4C 
  52      00
  53 000d 000000   		.align	2
  54              	.LC2:
  55 0010 77726F6E 		.ascii	"wrong returned message\000"
ARM GAS  /tmp/ccItyVqU.s 			page 2


  55      67207265 
  55      7475726E 
  55      6564206D 
  55      65737361 
  56 0027 00       		.align	2
  57              	.LC3:
  58 0028 6F757420 		.ascii	"out of time window\000"
  58      6F662074 
  58      696D6520 
  58      77696E64 
  58      6F7700
  59              		.section	.text.test_003_001_execute,"ax",%progbits
  60              		.align	1
  61              		.p2align 4,,15
  62              		.syntax unified
  63              		.thumb
  64              		.thumb_func
  65              		.fpu softvfp
  66              		.type	test_003_001_execute, %function
  67              	test_003_001_execute:
  68              	.LFB279:
  69              		.loc 1 78 40 is_stmt 1 view -0
  70              		.cfi_startproc
  71              		@ args = 0, pretend = 0, frame = 0
  72              		@ frame_needed = 0, uses_anonymous_args = 0
  73              		.loc 1 79 3 view .LVU5
  74              		.loc 1 80 3 view .LVU6
  75              		.loc 1 85 3 view .LVU7
  76              		.loc 1 78 40 is_stmt 0 view .LVU8
  77 0000 F0B5     		push	{r4, r5, r6, r7, lr}
  78              		.cfi_def_cfa_offset 20
  79              		.cfi_offset 4, -20
  80              		.cfi_offset 5, -16
  81              		.cfi_offset 6, -12
  82              		.cfi_offset 7, -8
  83              		.cfi_offset 14, -4
  84              	.LBB61:
  85              	.LBB62:
  86              	.LBB63:
  87              	.LBB64:
  88              		.file 2 "../../../os/rt/include/chthreads.h"
  89              		.loc 2 286 18 view .LVU9
  90 0002 314B     		ldr	r3, .L11
  91              	.LBE64:
  92              	.LBE63:
  93              	.LBE62:
  94              	.LBE61:
  95              		.loc 1 87 18 view .LVU10
  96 0004 3149     		ldr	r1, .L11+4
  97              	.LBB69:
  98              	.LBB67:
  99              		.loc 2 299 25 view .LVU11
 100 0006 9B69     		ldr	r3, [r3, #24]
 101              	.LBE67:
 102              	.LBE69:
 103              		.loc 1 85 3 view .LVU12
 104 0008 314F     		ldr	r7, .L11+8
ARM GAS  /tmp/ccItyVqU.s 			page 3


 105              		.loc 1 87 18 view .LVU13
 106 000a 9A68     		ldr	r2, [r3, #8]
 107 000c 314C     		ldr	r4, .L11+12
 108 000e 0868     		ldr	r0, [r1]
 109 0010 314B     		ldr	r3, .L11+16
 110              		.loc 1 78 40 view .LVU14
 111 0012 83B0     		sub	sp, sp, #12
 112              		.cfi_def_cfa_offset 32
 113              		.loc 1 85 3 view .LVU15
 114 0014 0121     		movs	r1, #1
 115              		.loc 1 87 18 view .LVU16
 116 0016 0094     		str	r4, [sp]
 117 0018 013A     		subs	r2, r2, #1
 118              		.loc 1 85 3 view .LVU17
 119 001a 3960     		str	r1, [r7]
 120              		.loc 1 87 5 is_stmt 1 view .LVU18
 121              	.LBB70:
 122              	.LBI61:
 123              		.loc 2 297 23 view .LVU19
 124              	.LBB68:
 125              		.loc 2 299 3 view .LVU20
 126              	.LBB66:
 127              	.LBI63:
 128              		.loc 2 284 25 view .LVU21
 129              	.LBB65:
 130              		.loc 2 286 3 view .LVU22
 131              	.LBE65:
 132              	.LBE66:
 133              	.LBE68:
 134              	.LBE70:
 135              		.loc 1 87 18 is_stmt 0 view .LVU23
 136 001c 4FF4A471 		mov	r1, #328
 137 0020 FFF7FEFF 		bl	chThdCreateStatic
 138              	.LVL0:
 139              		.loc 1 87 16 view .LVU24
 140 0024 2D4B     		ldr	r3, .L11+20
 141              	.LBB71:
 142              	.LBB72:
 143              	.LBB73:
 144              	.LBB74:
 145              		.file 3 "../../../os/common/ext/CMSIS/include/cmsis_gcc.h"
 146              		.loc 3 264 3 view .LVU25
 147 0026 2026     		movs	r6, #32
 148              	.LBE74:
 149              	.LBE73:
 150              	.LBE72:
 151              	.LBE71:
 152              		.loc 1 87 16 view .LVU26
 153 0028 1860     		str	r0, [r3]
 154              		.loc 1 88 5 is_stmt 1 view .LVU27
 155              	.LBB79:
 156              	.LBI71:
 157              		.file 4 "../../../os/rt/include/chsys.h"
 158              		.loc 4 374 20 view .LVU28
 159              	.LBE79:
 160              		.loc 4 376 3 view .LVU29
 161              	.LBB80:
ARM GAS  /tmp/ccItyVqU.s 			page 4


 162              	.LBB77:
 163              	.LBI72:
 164              		.file 5 "../../../os/common/ports/ARMCMx/chcore_v7m.h"
 165              		.loc 5 594 20 view .LVU30
 166              	.LBE77:
 167              	.LBE80:
 168              		.loc 5 602 3 view .LVU31
 169              	.LVL1:
 170              	.LBB81:
 171              	.LBB78:
 172              	.LBB76:
 173              	.LBI73:
 174              		.loc 3 262 57 view .LVU32
 175              	.LBB75:
 176              		.loc 3 264 3 view .LVU33
 177              		.syntax unified
 178              	@ 264 "../../../os/common/ext/CMSIS/include/cmsis_gcc.h" 1
 179 002a 86F31188 		MSR basepri, r6
 180              	@ 0 "" 2
 181              	.LVL2:
 182              		.loc 3 264 3 is_stmt 0 view .LVU34
 183              		.thumb
 184              		.syntax unified
 185              	.LBE75:
 186              	.LBE76:
 187              	.LBE78:
 188              	.LBE81:
 189              		.loc 4 377 34 is_stmt 1 view .LVU35
 190              		.loc 4 378 20 view .LVU36
 191              		.loc 1 89 5 view .LVU37
 192              		.loc 1 89 11 is_stmt 0 view .LVU38
 193 002e 2C4D     		ldr	r5, .L11+24
 194 0030 4FF0FF31 		mov	r1, #-1
 195 0034 2846     		mov	r0, r5
 196 0036 FFF7FEFF 		bl	chThdSuspendTimeoutS
 197              	.LVL3:
 198              	.LBB82:
 199              	.LBB83:
 200              	.LBB84:
 201              	.LBB85:
 202              	.LBB86:
 203              		.loc 3 264 3 view .LVU39
 204 003a 0023     		movs	r3, #0
 205              	.LBE86:
 206              	.LBE85:
 207              	.LBE84:
 208              	.LBE83:
 209              	.LBE82:
 210              		.loc 1 89 11 view .LVU40
 211 003c 0446     		mov	r4, r0
 212              	.LVL4:
 213              		.loc 1 90 5 is_stmt 1 view .LVU41
 214              	.LBB93:
 215              	.LBI82:
 216              		.loc 4 386 20 view .LVU42
 217              	.LBB91:
 218              		.loc 4 388 22 view .LVU43
ARM GAS  /tmp/ccItyVqU.s 			page 5


 219              		.loc 4 389 33 view .LVU44
 220              		.loc 4 395 3 view .LVU45
 221              		.loc 4 395 3 view .LVU46
 222              		.loc 4 395 3 view .LVU47
 223              		.loc 4 399 3 view .LVU48
 224              	.LBB89:
 225              	.LBI84:
 226              		.loc 5 618 20 view .LVU49
 227              	.LBE89:
 228              	.LBE91:
 229              	.LBE93:
 230              		.loc 5 621 3 view .LVU50
 231              	.LBB94:
 232              	.LBB92:
 233              	.LBB90:
 234              	.LBB88:
 235              	.LBI85:
 236              		.loc 3 262 57 view .LVU51
 237              	.LBB87:
 238              		.loc 3 264 3 view .LVU52
 239              		.syntax unified
 240              	@ 264 "../../../os/common/ext/CMSIS/include/cmsis_gcc.h" 1
 241 003e 83F31188 		MSR basepri, r3
 242              	@ 0 "" 2
 243              	.LVL5:
 244              		.loc 3 264 3 is_stmt 0 view .LVU53
 245              		.thumb
 246              		.syntax unified
 247              	.LBE87:
 248              	.LBE88:
 249              	.LBE90:
 250              	.LBE92:
 251              	.LBE94:
 252              		.loc 1 91 5 is_stmt 1 view .LVU54
 253 0042 2868     		ldr	r0, [r5]
 254              	.LVL6:
 255              		.loc 1 91 5 is_stmt 0 view .LVU55
 256 0044 2749     		ldr	r1, .L11+28
 257 0046 B0FA80F0 		clz	r0, r0
 258 004a 4009     		lsrs	r0, r0, #5
 259 004c FFF7FEFF 		bl	_test_assert
 260              	.LVL7:
 261 0050 08B1     		cbz	r0, .L10
 262              	.LVL8:
 263              	.L5:
 264              		.loc 1 111 1 view .LVU56
 265 0052 03B0     		add	sp, sp, #12
 266              		.cfi_remember_state
 267              		.cfi_def_cfa_offset 20
 268              		@ sp needed
 269 0054 F0BD     		pop	{r4, r5, r6, r7, pc}
 270              	.LVL9:
 271              	.L10:
 272              		.cfi_restore_state
 273              		.loc 1 91 41 is_stmt 1 discriminator 2 view .LVU57
 274              		.loc 1 92 5 discriminator 2 view .LVU58
 275 0056 B4FA84F0 		clz	r0, r4
ARM GAS  /tmp/ccItyVqU.s 			page 6


 276 005a 2349     		ldr	r1, .L11+32
 277 005c 4009     		lsrs	r0, r0, #5
 278 005e FFF7FEFF 		bl	_test_assert
 279              	.LVL10:
 280 0062 0446     		mov	r4, r0
 281              	.LVL11:
 282              		.loc 1 92 5 is_stmt 0 discriminator 2 view .LVU59
 283 0064 0028     		cmp	r0, #0
 284 0066 F4D1     		bne	.L5
 285              		.loc 1 92 56 is_stmt 1 discriminator 2 view .LVU60
 286              		.loc 1 93 5 discriminator 2 view .LVU61
 287 0068 FFF7FEFF 		bl	test_wait_threads
 288              	.LVL12:
 289              		.loc 1 99 3 discriminator 2 view .LVU62
 290 006c 0223     		movs	r3, #2
 291 006e 3B60     		str	r3, [r7]
 292              		.loc 1 101 5 discriminator 2 view .LVU63
 293              	.LBB95:
 294              	.LBI95:
 295              		.loc 4 374 20 discriminator 2 view .LVU64
 296              	.LBE95:
 297              		.loc 4 376 3 discriminator 2 view .LVU65
 298              	.LBB100:
 299              	.LBB96:
 300              	.LBI96:
 301              		.loc 5 594 20 discriminator 2 view .LVU66
 302              	.LBE96:
 303              	.LBE100:
 304              		.loc 5 602 3 discriminator 2 view .LVU67
 305              	.LVL13:
 306              	.LBB101:
 307              	.LBB99:
 308              	.LBB97:
 309              	.LBI97:
 310              		.loc 3 262 57 discriminator 2 view .LVU68
 311              	.LBB98:
 312              		.loc 3 264 3 discriminator 2 view .LVU69
 313              		.syntax unified
 314              	@ 264 "../../../os/common/ext/CMSIS/include/cmsis_gcc.h" 1
 315 0070 86F31188 		MSR basepri, r6
 316              	@ 0 "" 2
 317              	.LVL14:
 318              		.loc 3 264 3 is_stmt 0 discriminator 2 view .LVU70
 319              		.thumb
 320              		.syntax unified
 321              	.LBE98:
 322              	.LBE97:
 323              	.LBE99:
 324              	.LBE101:
 325              		.loc 4 377 34 is_stmt 1 discriminator 2 view .LVU71
 326              		.loc 4 378 20 discriminator 2 view .LVU72
 327              		.loc 1 102 5 discriminator 2 view .LVU73
 328              	.LBB102:
 329              	.LBI102:
 330              		.file 6 "../../../os/rt/include/chvt.h"
 331              		.loc 6 392 25 discriminator 2 view .LVU74
 332              	.LBE102:
ARM GAS  /tmp/ccItyVqU.s 			page 7


 333              		.loc 6 397 3 discriminator 2 view .LVU75
 334              	.LBB110:
 335              	.LBB103:
 336              	.LBI103:
 337              		.file 7 "../../../os/common/ports/ARMCMx/chcore_timer.h"
 338              		.loc 7 105 25 discriminator 2 view .LVU76
 339              	.LBE103:
 340              	.LBE110:
 341              		.loc 7 107 3 discriminator 2 view .LVU77
 342              	.LBB111:
 343              	.LBB108:
 344              	.LBB104:
 345              	.LBI104:
 346              		.file 8 "../../../os/hal/ports/STM32/LLD/TIMv1/hal_st_lld.h"
 347              		.loc 8 139 25 discriminator 2 view .LVU78
 348              	.LBB105:
 349              		.loc 8 141 3 discriminator 2 view .LVU79
 350              		.loc 8 141 10 is_stmt 0 discriminator 2 view .LVU80
 351 0074 4FF08043 		mov	r3, #1073741824
 352              	.LBE105:
 353              	.LBE104:
 354              	.LBE108:
 355              	.LBE111:
 356              		.loc 1 103 11 discriminator 2 view .LVU81
 357 0078 42F21071 		movw	r1, #10000
 358 007c 2846     		mov	r0, r5
 359              	.LBB112:
 360              	.LBB109:
 361              	.LBB107:
 362              	.LBB106:
 363              		.loc 8 141 10 discriminator 2 view .LVU82
 364 007e 5F6A     		ldr	r7, [r3, #36]
 365              	.LVL15:
 366              		.loc 8 141 10 discriminator 2 view .LVU83
 367              	.LBE106:
 368              	.LBE107:
 369              	.LBE109:
 370              	.LBE112:
 371              		.loc 1 103 5 is_stmt 1 discriminator 2 view .LVU84
 372              		.loc 1 103 11 is_stmt 0 discriminator 2 view .LVU85
 373 0080 FFF7FEFF 		bl	chThdSuspendTimeoutS
 374              	.LVL16:
 375 0084 0646     		mov	r6, r0
 376              	.LVL17:
 377              		.loc 1 104 5 is_stmt 1 discriminator 2 view .LVU86
 378              	.LBB113:
 379              	.LBI113:
 380              		.loc 4 386 20 discriminator 2 view .LVU87
 381              	.LBB114:
 382              		.loc 4 388 22 discriminator 2 view .LVU88
 383              		.loc 4 389 33 discriminator 2 view .LVU89
 384              		.loc 4 395 3 discriminator 2 view .LVU90
 385              		.loc 4 395 3 discriminator 2 view .LVU91
 386              		.loc 4 395 3 discriminator 2 view .LVU92
 387              		.loc 4 399 3 discriminator 2 view .LVU93
 388              	.LBB115:
 389              	.LBI115:
ARM GAS  /tmp/ccItyVqU.s 			page 8


 390              		.loc 5 618 20 discriminator 2 view .LVU94
 391              	.LBE115:
 392              	.LBE114:
 393              	.LBE113:
 394              		.loc 5 621 3 discriminator 2 view .LVU95
 395              	.LBB120:
 396              	.LBB119:
 397              	.LBB118:
 398              	.LBB116:
 399              	.LBI116:
 400              		.loc 3 262 57 discriminator 2 view .LVU96
 401              	.LBB117:
 402              		.loc 3 264 3 discriminator 2 view .LVU97
 403              		.syntax unified
 404              	@ 264 "../../../os/common/ext/CMSIS/include/cmsis_gcc.h" 1
 405 0086 84F31188 		MSR basepri, r4
 406              	@ 0 "" 2
 407              	.LVL18:
 408              		.loc 3 264 3 is_stmt 0 discriminator 2 view .LVU98
 409              		.thumb
 410              		.syntax unified
 411              	.LBE117:
 412              	.LBE116:
 413              	.LBE118:
 414              	.LBE119:
 415              	.LBE120:
 416              		.loc 1 105 5 is_stmt 1 discriminator 2 view .LVU99
 417 008a 07F51C51 		add	r1, r7, #9984
 418 008e 0846     		mov	r0, r1
 419              	.LVL19:
 420              		.loc 1 105 5 is_stmt 0 discriminator 2 view .LVU100
 421 0090 164A     		ldr	r2, .L11+36
 422 0092 1331     		adds	r1, r1, #19
 423 0094 1030     		adds	r0, r0, #16
 424 0096 FFF7FEFF 		bl	_test_assert_time_window
 425              	.LVL20:
 426 009a 0028     		cmp	r0, #0
 427 009c D9D1     		bne	.L5
 428              		.loc 1 107 50 is_stmt 1 view .LVU101
 429              		.loc 1 108 5 view .LVU102
 430 009e 2868     		ldr	r0, [r5]
 431 00a0 1049     		ldr	r1, .L11+28
 432 00a2 B0FA80F0 		clz	r0, r0
 433 00a6 4009     		lsrs	r0, r0, #5
 434 00a8 FFF7FEFF 		bl	_test_assert
 435              	.LVL21:
 436 00ac 0028     		cmp	r0, #0
 437 00ae D0D1     		bne	.L5
 438              		.loc 1 108 41 discriminator 2 view .LVU103
 439              		.loc 1 109 5 discriminator 2 view .LVU104
 440 00b0 A6F1FF30 		sub	r0, r6, #-1
 441 00b4 0C49     		ldr	r1, .L11+32
 442 00b6 B0FA80F0 		clz	r0, r0
 443 00ba 4009     		lsrs	r0, r0, #5
 444              		.loc 1 111 1 is_stmt 0 discriminator 2 view .LVU105
 445 00bc 03B0     		add	sp, sp, #12
 446              		.cfi_def_cfa_offset 20
ARM GAS  /tmp/ccItyVqU.s 			page 9


 447              		@ sp needed
 448 00be BDE8F040 		pop	{r4, r5, r6, r7, lr}
 449              		.cfi_restore 14
 450              		.cfi_restore 7
 451              		.cfi_restore 6
 452              		.cfi_restore 5
 453              		.cfi_restore 4
 454              		.cfi_def_cfa_offset 0
 455              	.LVL22:
 456              		.loc 1 109 5 discriminator 2 view .LVU106
 457 00c2 FFF7FEBF 		b	_test_assert
 458              	.LVL23:
 459              	.L12:
 460 00c6 00BF     		.align	2
 461              	.L11:
 462 00c8 00000000 		.word	ch
 463 00cc 00000000 		.word	wa
 464 00d0 00000000 		.word	test_step
 465 00d4 00000000 		.word	.LC0
 466 00d8 00000000 		.word	thread1
 467 00dc 00000000 		.word	threads
 468 00e0 00000000 		.word	.LANCHOR0
 469 00e4 04000000 		.word	.LC1
 470 00e8 10000000 		.word	.LC2
 471 00ec 28000000 		.word	.LC3
 472              		.cfi_endproc
 473              	.LFE279:
 474              		.size	test_003_001_execute, .-test_003_001_execute
 475              		.section	.text.thread1,"ax",%progbits
 476              		.align	1
 477              		.p2align 4,,15
 478              		.syntax unified
 479              		.thumb
 480              		.thumb_func
 481              		.fpu softvfp
 482              		.type	thread1, %function
 483              	thread1:
 484              	.LVL24:
 485              	.LFB277:
 486              		.loc 1 44 33 is_stmt 1 view -0
 487              		.cfi_startproc
 488              		@ args = 0, pretend = 0, frame = 0
 489              		@ frame_needed = 0, uses_anonymous_args = 0
 490              		.loc 1 46 3 view .LVU108
 491              	.LBB121:
 492              	.LBI121:
 493              		.loc 4 374 20 view .LVU109
 494              	.LBE121:
 495              		.loc 4 376 3 view .LVU110
 496              	.LBB132:
 497              	.LBB122:
 498              	.LBI122:
 499              		.loc 5 594 20 view .LVU111
 500              	.LBE122:
 501              	.LBE132:
 502              		.loc 5 602 3 view .LVU112
 503              	.LBB133:
ARM GAS  /tmp/ccItyVqU.s 			page 10


 504              	.LBB129:
 505              	.LBB123:
 506              	.LBI123:
 507              		.loc 3 262 57 view .LVU113
 508              	.LBB124:
 509              		.loc 3 264 3 view .LVU114
 510              	.LBE124:
 511              	.LBE123:
 512              	.LBE129:
 513              	.LBE133:
 514              		.loc 1 44 33 is_stmt 0 view .LVU115
 515 0000 10B5     		push	{r4, lr}
 516              		.cfi_def_cfa_offset 8
 517              		.cfi_offset 4, -8
 518              		.cfi_offset 14, -4
 519              	.LBB134:
 520              	.LBB130:
 521              	.LBB127:
 522              	.LBB125:
 523              		.loc 3 264 3 view .LVU116
 524 0002 2023     		movs	r3, #32
 525              	.LBE125:
 526              	.LBE127:
 527              	.LBE130:
 528              	.LBE134:
 529              		.loc 1 44 33 view .LVU117
 530 0004 0446     		mov	r4, r0
 531              	.LBB135:
 532              	.LBB131:
 533              	.LBB128:
 534              	.LBB126:
 535              		.loc 3 264 3 view .LVU118
 536              		.syntax unified
 537              	@ 264 "../../../os/common/ext/CMSIS/include/cmsis_gcc.h" 1
 538 0006 83F31188 		MSR basepri, r3
 539              	@ 0 "" 2
 540              	.LVL25:
 541              		.loc 3 264 3 view .LVU119
 542              		.thumb
 543              		.syntax unified
 544              	.LBE126:
 545              	.LBE128:
 546              	.LBE131:
 547              	.LBE135:
 548              		.loc 4 377 34 is_stmt 1 view .LVU120
 549              		.loc 4 378 20 view .LVU121
 550              		.loc 1 47 3 view .LVU122
 551 000a 0748     		ldr	r0, .L15
 552              	.LVL26:
 553              		.loc 1 47 3 is_stmt 0 view .LVU123
 554 000c 0021     		movs	r1, #0
 555 000e FFF7FEFF 		bl	chThdResumeI
 556              	.LVL27:
 557              		.loc 1 48 3 is_stmt 1 view .LVU124
 558 0012 FFF7FEFF 		bl	chSchRescheduleS
 559              	.LVL28:
 560              		.loc 1 49 3 view .LVU125
ARM GAS  /tmp/ccItyVqU.s 			page 11


 561              	.LBB136:
 562              	.LBI136:
 563              		.loc 4 386 20 view .LVU126
 564              	.LBB137:
 565              		.loc 4 388 22 view .LVU127
 566              		.loc 4 389 33 view .LVU128
 567              		.loc 4 395 3 view .LVU129
 568              		.loc 4 395 3 view .LVU130
 569              		.loc 4 395 3 view .LVU131
 570              		.loc 4 399 3 view .LVU132
 571              	.LBB138:
 572              	.LBI138:
 573              		.loc 5 618 20 view .LVU133
 574              	.LBE138:
 575              	.LBE137:
 576              	.LBE136:
 577              		.loc 5 621 3 view .LVU134
 578              	.LBB143:
 579              	.LBB142:
 580              	.LBB141:
 581              	.LBB139:
 582              	.LBI139:
 583              		.loc 3 262 57 view .LVU135
 584              	.LBB140:
 585              		.loc 3 264 3 view .LVU136
 586 0016 0023     		movs	r3, #0
 587              		.syntax unified
 588              	@ 264 "../../../os/common/ext/CMSIS/include/cmsis_gcc.h" 1
 589 0018 83F31188 		MSR basepri, r3
 590              	@ 0 "" 2
 591              	.LVL29:
 592              		.loc 3 264 3 is_stmt 0 view .LVU137
 593              		.thumb
 594              		.syntax unified
 595              	.LBE140:
 596              	.LBE139:
 597              	.LBE141:
 598              	.LBE142:
 599              	.LBE143:
 600              		.loc 1 50 3 is_stmt 1 view .LVU138
 601 001c 2078     		ldrb	r0, [r4]	@ zero_extendqisi2
 602              		.loc 1 51 1 is_stmt 0 view .LVU139
 603 001e BDE81040 		pop	{r4, lr}
 604              		.cfi_restore 14
 605              		.cfi_restore 4
 606              		.cfi_def_cfa_offset 0
 607              	.LVL30:
 608              		.loc 1 50 3 view .LVU140
 609 0022 FFF7FEBF 		b	test_emit_token
 610              	.LVL31:
 611              	.L16:
 612 0026 00BF     		.align	2
 613              	.L15:
 614 0028 00000000 		.word	.LANCHOR0
 615              		.cfi_endproc
 616              	.LFE277:
 617              		.size	thread1, .-thread1
ARM GAS  /tmp/ccItyVqU.s 			page 12


 618              		.global	test_sequence_003
 619              		.section	.rodata.str1.4,"aMS",%progbits,1
 620              		.align	2
 621              	.LC4:
 622 0000 53757370 		.ascii	"Suspend and Resume functionality\000"
 622      656E6420 
 622      616E6420 
 622      52657375 
 622      6D652066 
 623              		.section	.bss.tr1,"aw",%nobits
 624              		.align	2
 625              		.set	.LANCHOR0,. + 0
 626              		.type	tr1, %object
 627              		.size	tr1, 4
 628              	tr1:
 629 0000 00000000 		.space	4
 630              		.section	.rodata.test_003_001,"a"
 631              		.align	2
 632              		.type	test_003_001, %object
 633              		.size	test_003_001, 16
 634              	test_003_001:
 635 0000 00000000 		.word	.LC4
 636 0004 00000000 		.word	test_003_001_setup
 637 0008 00000000 		.word	0
 638 000c 00000000 		.word	test_003_001_execute
 639              		.section	.rodata.test_sequence_003,"a"
 640              		.align	2
 641              		.type	test_sequence_003, %object
 642              		.size	test_sequence_003, 8
 643              	test_sequence_003:
 644 0000 00000000 		.word	test_003_001
 645 0004 00000000 		.word	0
 646              		.text
 647              	.Letext0:
 648              		.file 9 "/usr/lib/gcc/arm-none-eabi/10.3.1/include/stddef.h"
 649              		.file 10 "/usr/lib/gcc/arm-none-eabi/10.3.1/include/stdint.h"
 650              		.file 11 "../../../os/common/ports/ARMCMx/compilers/GCC/chtypes.h"
 651              		.file 12 "../../../os/rt/include/chsystypes.h"
 652              		.file 13 "../../../os/rt/include/chschd.h"
 653              		.file 14 "../../../os/common/ports/ARMCMx/chcore.h"
 654              		.file 15 "../../../os/hal/ports/STM32/LLD/TIMv1/stm32_tim.h"
 655              		.file 16 "../../../os/rt/include/chtm.h"
 656              		.file 17 "../../../os/rt/include/chsem.h"
 657              		.file 18 "../../../os/rt/include/chmtx.h"
 658              		.file 19 "../../../test/lib/ch_test.h"
 659              		.file 20 "../../../test/rt/source/test/test_sequence_003.h"
 660              		.file 21 "../../../test/rt/source/test/test_root.h"
 661              		.section	.debug_info,"",%progbits
 662              	.Ldebug_info0:
 663 0000 900D0000 		.4byte	0xd90
 664 0004 0400     		.2byte	0x4
 665 0006 00000000 		.4byte	.Ldebug_abbrev0
 666 000a 04       		.byte	0x4
 667 000b 01       		.uleb128 0x1
 668 000c FB020000 		.4byte	.LASF126
 669 0010 0C       		.byte	0xc
 670 0011 44050000 		.4byte	.LASF127
ARM GAS  /tmp/ccItyVqU.s 			page 13


 671 0015 00000000 		.4byte	.LASF128
 672 0019 78010000 		.4byte	.Ldebug_ranges0+0x178
 673 001d 00000000 		.4byte	0
 674 0021 00000000 		.4byte	.Ldebug_line0
 675 0025 02       		.uleb128 0x2
 676 0026 04       		.byte	0x4
 677 0027 05       		.byte	0x5
 678 0028 696E7400 		.ascii	"int\000"
 679 002c 03       		.uleb128 0x3
 680 002d 55000000 		.4byte	.LASF5
 681 0031 09       		.byte	0x9
 682 0032 D1       		.byte	0xd1
 683 0033 17       		.byte	0x17
 684 0034 38000000 		.4byte	0x38
 685 0038 04       		.uleb128 0x4
 686 0039 04       		.byte	0x4
 687 003a 07       		.byte	0x7
 688 003b EF010000 		.4byte	.LASF0
 689 003f 04       		.uleb128 0x4
 690 0040 08       		.byte	0x8
 691 0041 05       		.byte	0x5
 692 0042 85010000 		.4byte	.LASF1
 693 0046 04       		.uleb128 0x4
 694 0047 08       		.byte	0x8
 695 0048 04       		.byte	0x4
 696 0049 EF020000 		.4byte	.LASF2
 697 004d 04       		.uleb128 0x4
 698 004e 01       		.byte	0x1
 699 004f 06       		.byte	0x6
 700 0050 12010000 		.4byte	.LASF3
 701 0054 04       		.uleb128 0x4
 702 0055 02       		.byte	0x2
 703 0056 05       		.byte	0x5
 704 0057 A4040000 		.4byte	.LASF4
 705 005b 03       		.uleb128 0x3
 706 005c 79040000 		.4byte	.LASF6
 707 0060 0A       		.byte	0xa
 708 0061 28       		.byte	0x28
 709 0062 18       		.byte	0x18
 710 0063 67000000 		.4byte	0x67
 711 0067 04       		.uleb128 0x4
 712 0068 04       		.byte	0x4
 713 0069 05       		.byte	0x5
 714 006a 50010000 		.4byte	.LASF7
 715 006e 03       		.uleb128 0x3
 716 006f 3F060000 		.4byte	.LASF8
 717 0073 0A       		.byte	0xa
 718 0074 2E       		.byte	0x2e
 719 0075 18       		.byte	0x18
 720 0076 7A000000 		.4byte	0x7a
 721 007a 04       		.uleb128 0x4
 722 007b 01       		.byte	0x1
 723 007c 08       		.byte	0x8
 724 007d 81040000 		.4byte	.LASF9
 725 0081 04       		.uleb128 0x4
 726 0082 02       		.byte	0x2
 727 0083 07       		.byte	0x7
ARM GAS  /tmp/ccItyVqU.s 			page 14


 728 0084 E5050000 		.4byte	.LASF10
 729 0088 03       		.uleb128 0x3
 730 0089 21050000 		.4byte	.LASF11
 731 008d 0A       		.byte	0xa
 732 008e 34       		.byte	0x34
 733 008f 19       		.byte	0x19
 734 0090 99000000 		.4byte	0x99
 735 0094 05       		.uleb128 0x5
 736 0095 88000000 		.4byte	0x88
 737 0099 04       		.uleb128 0x4
 738 009a 04       		.byte	0x4
 739 009b 07       		.byte	0x7
 740 009c 8B050000 		.4byte	.LASF12
 741 00a0 03       		.uleb128 0x3
 742 00a1 6E000000 		.4byte	.LASF13
 743 00a5 0A       		.byte	0xa
 744 00a6 37       		.byte	0x37
 745 00a7 19       		.byte	0x19
 746 00a8 AC000000 		.4byte	0xac
 747 00ac 04       		.uleb128 0x4
 748 00ad 08       		.byte	0x8
 749 00ae 07       		.byte	0x7
 750 00af A1000000 		.4byte	.LASF14
 751 00b3 03       		.uleb128 0x3
 752 00b4 B3020000 		.4byte	.LASF15
 753 00b8 0B       		.byte	0xb
 754 00b9 39       		.byte	0x39
 755 00ba 1D       		.byte	0x1d
 756 00bb 88000000 		.4byte	0x88
 757 00bf 03       		.uleb128 0x3
 758 00c0 8C060000 		.4byte	.LASF16
 759 00c4 0B       		.byte	0xb
 760 00c5 3C       		.byte	0x3c
 761 00c6 1D       		.byte	0x1d
 762 00c7 6E000000 		.4byte	0x6e
 763 00cb 03       		.uleb128 0x3
 764 00cc 59010000 		.4byte	.LASF17
 765 00d0 0B       		.byte	0xb
 766 00d1 3D       		.byte	0x3d
 767 00d2 1D       		.byte	0x1d
 768 00d3 6E000000 		.4byte	0x6e
 769 00d7 03       		.uleb128 0x3
 770 00d8 31040000 		.4byte	.LASF18
 771 00dc 0B       		.byte	0xb
 772 00dd 3E       		.byte	0x3e
 773 00de 1D       		.byte	0x1d
 774 00df 6E000000 		.4byte	0x6e
 775 00e3 03       		.uleb128 0x3
 776 00e4 4E040000 		.4byte	.LASF19
 777 00e8 0B       		.byte	0xb
 778 00e9 40       		.byte	0x40
 779 00ea 1D       		.byte	0x1d
 780 00eb 88000000 		.4byte	0x88
 781 00ef 03       		.uleb128 0x3
 782 00f0 2C020000 		.4byte	.LASF20
 783 00f4 0B       		.byte	0xb
 784 00f5 41       		.byte	0x41
ARM GAS  /tmp/ccItyVqU.s 			page 15


 785 00f6 1D       		.byte	0x1d
 786 00f7 5B000000 		.4byte	0x5b
 787 00fb 03       		.uleb128 0x3
 788 00fc 61020000 		.4byte	.LASF21
 789 0100 0B       		.byte	0xb
 790 0101 43       		.byte	0x43
 791 0102 1D       		.byte	0x1d
 792 0103 88000000 		.4byte	0x88
 793 0107 03       		.uleb128 0x3
 794 0108 D6010000 		.4byte	.LASF22
 795 010c 0B       		.byte	0xb
 796 010d 45       		.byte	0x45
 797 010e 1D       		.byte	0x1d
 798 010f 5B000000 		.4byte	0x5b
 799 0113 03       		.uleb128 0x3
 800 0114 BD050000 		.4byte	.LASF23
 801 0118 0C       		.byte	0xc
 802 0119 33       		.byte	0x33
 803 011a 12       		.byte	0x12
 804 011b 88000000 		.4byte	0x88
 805 011f 03       		.uleb128 0x3
 806 0120 B4050000 		.4byte	.LASF24
 807 0124 0C       		.byte	0xc
 808 0125 3F       		.byte	0x3f
 809 0126 1A       		.byte	0x1a
 810 0127 2B010000 		.4byte	0x12b
 811 012b 06       		.uleb128 0x6
 812 012c 22020000 		.4byte	.LASF42
 813 0130 44       		.byte	0x44
 814 0131 0D       		.byte	0xd
 815 0132 9A       		.byte	0x9a
 816 0133 08       		.byte	0x8
 817 0134 1B020000 		.4byte	0x21b
 818 0138 07       		.uleb128 0x7
 819 0139 93010000 		.4byte	.LASF25
 820 013d 0D       		.byte	0xd
 821 013e 9B       		.byte	0x9b
 822 013f 19       		.byte	0x19
 823 0140 54020000 		.4byte	0x254
 824 0144 00       		.byte	0
 825 0145 07       		.uleb128 0x7
 826 0146 24040000 		.4byte	.LASF26
 827 014a 0D       		.byte	0xd
 828 014b 9C       		.byte	0x9c
 829 014c 19       		.byte	0x19
 830 014d E3000000 		.4byte	0xe3
 831 0151 08       		.byte	0x8
 832 0152 08       		.uleb128 0x8
 833 0153 63747800 		.ascii	"ctx\000"
 834 0157 0D       		.byte	0xd
 835 0158 9D       		.byte	0x9d
 836 0159 19       		.byte	0x19
 837 015a 9A040000 		.4byte	0x49a
 838 015e 0C       		.byte	0xc
 839 015f 07       		.uleb128 0x7
 840 0160 0C060000 		.4byte	.LASF27
 841 0164 0D       		.byte	0xd
ARM GAS  /tmp/ccItyVqU.s 			page 16


 842 0165 9F       		.byte	0x9f
 843 0166 1A       		.byte	0x1a
 844 0167 27020000 		.4byte	0x227
 845 016b 10       		.byte	0x10
 846 016c 07       		.uleb128 0x7
 847 016d A9050000 		.4byte	.LASF28
 848 0171 0D       		.byte	0xd
 849 0172 A0       		.byte	0xa0
 850 0173 1A       		.byte	0x1a
 851 0174 27020000 		.4byte	0x227
 852 0178 14       		.byte	0x14
 853 0179 07       		.uleb128 0x7
 854 017a 12020000 		.4byte	.LASF29
 855 017e 0D       		.byte	0xd
 856 017f A7       		.byte	0xa7
 857 0180 1A       		.byte	0x1a
 858 0181 6C070000 		.4byte	0x76c
 859 0185 18       		.byte	0x18
 860 0186 07       		.uleb128 0x7
 861 0187 9D050000 		.4byte	.LASF30
 862 018b 0D       		.byte	0xd
 863 018c B0       		.byte	0xb0
 864 018d 1A       		.byte	0x1a
 865 018e 83070000 		.4byte	0x783
 866 0192 1C       		.byte	0x1c
 867 0193 07       		.uleb128 0x7
 868 0194 4A010000 		.4byte	.LASF31
 869 0198 0D       		.byte	0xd
 870 0199 B5       		.byte	0xb5
 871 019a 19       		.byte	0x19
 872 019b CB000000 		.4byte	0xcb
 873 019f 20       		.byte	0x20
 874 01a0 07       		.uleb128 0x7
 875 01a1 47060000 		.4byte	.LASF32
 876 01a5 0D       		.byte	0xd
 877 01a6 B9       		.byte	0xb9
 878 01a7 19       		.byte	0x19
 879 01a8 BF000000 		.4byte	0xbf
 880 01ac 21       		.byte	0x21
 881 01ad 07       		.uleb128 0x7
 882 01ae 39040000 		.4byte	.LASF33
 883 01b2 0D       		.byte	0xd
 884 01b3 BE       		.byte	0xbe
 885 01b4 19       		.byte	0x19
 886 01b5 D7000000 		.4byte	0xd7
 887 01b9 22       		.byte	0x22
 888 01ba 09       		.uleb128 0x9
 889 01bb 7500     		.ascii	"u\000"
 890 01bd 0D       		.byte	0xd
 891 01be 0F01     		.2byte	0x10f
 892 01c0 19       		.byte	0x19
 893 01c1 91060000 		.4byte	0x691
 894 01c5 24       		.byte	0x24
 895 01c6 0A       		.uleb128 0xa
 896 01c7 C0010000 		.4byte	.LASF34
 897 01cb 0D       		.byte	0xd
 898 01cc 1401     		.2byte	0x114
ARM GAS  /tmp/ccItyVqU.s 			page 17


 899 01ce 19       		.byte	0x19
 900 01cf 2D020000 		.4byte	0x22d
 901 01d3 28       		.byte	0x28
 902 01d4 0A       		.uleb128 0xa
 903 01d5 41010000 		.4byte	.LASF35
 904 01d9 0D       		.byte	0xd
 905 01da 1A01     		.2byte	0x11a
 906 01dc 19       		.byte	0x19
 907 01dd 54020000 		.4byte	0x254
 908 01e1 2C       		.byte	0x2c
 909 01e2 0A       		.uleb128 0xa
 910 01e3 32020000 		.4byte	.LASF36
 911 01e7 0D       		.byte	0xd
 912 01e8 2001     		.2byte	0x120
 913 01ea 19       		.byte	0x19
 914 01eb FB000000 		.4byte	0xfb
 915 01ef 34       		.byte	0x34
 916 01f0 0A       		.uleb128 0xa
 917 01f1 A0060000 		.4byte	.LASF37
 918 01f5 0D       		.byte	0xd
 919 01f6 2701     		.2byte	0x127
 920 01f8 1A       		.byte	0x1a
 921 01f9 66070000 		.4byte	0x766
 922 01fd 38       		.byte	0x38
 923 01fe 0A       		.uleb128 0xa
 924 01ff 95020000 		.4byte	.LASF38
 925 0203 0D       		.byte	0xd
 926 0204 2B01     		.2byte	0x12b
 927 0206 19       		.byte	0x19
 928 0207 E3000000 		.4byte	0xe3
 929 020b 3C       		.byte	0x3c
 930 020c 0A       		.uleb128 0xa
 931 020d 17020000 		.4byte	.LASF39
 932 0211 0D       		.byte	0xd
 933 0212 3201     		.2byte	0x132
 934 0214 1A       		.byte	0x1a
 935 0215 14030000 		.4byte	0x314
 936 0219 40       		.byte	0x40
 937 021a 00       		.byte	0
 938 021b 03       		.uleb128 0x3
 939 021c BB020000 		.4byte	.LASF40
 940 0220 0C       		.byte	0xc
 941 0221 44       		.byte	0x44
 942 0222 14       		.byte	0x14
 943 0223 27020000 		.4byte	0x227
 944 0227 0B       		.uleb128 0xb
 945 0228 04       		.byte	0x4
 946 0229 1F010000 		.4byte	0x11f
 947 022d 03       		.uleb128 0x3
 948 022e 7D060000 		.4byte	.LASF41
 949 0232 0C       		.byte	0xc
 950 0233 49       		.byte	0x49
 951 0234 20       		.byte	0x20
 952 0235 39020000 		.4byte	0x239
 953 0239 06       		.uleb128 0x6
 954 023a 75050000 		.4byte	.LASF43
 955 023e 04       		.byte	0x4
ARM GAS  /tmp/ccItyVqU.s 			page 18


 956 023f 0D       		.byte	0xd
 957 0240 88       		.byte	0x88
 958 0241 08       		.byte	0x8
 959 0242 54020000 		.4byte	0x254
 960 0246 07       		.uleb128 0x7
 961 0247 5C000000 		.4byte	.LASF44
 962 024b 0D       		.byte	0xd
 963 024c 89       		.byte	0x89
 964 024d 1A       		.byte	0x1a
 965 024e 27020000 		.4byte	0x227
 966 0252 00       		.byte	0
 967 0253 00       		.byte	0
 968 0254 03       		.uleb128 0x3
 969 0255 12060000 		.4byte	.LASF45
 970 0259 0C       		.byte	0xc
 971 025a 50       		.byte	0x50
 972 025b 21       		.byte	0x21
 973 025c 60020000 		.4byte	0x260
 974 0260 06       		.uleb128 0x6
 975 0261 EF000000 		.4byte	.LASF46
 976 0265 08       		.byte	0x8
 977 0266 0D       		.byte	0xd
 978 0267 8F       		.byte	0x8f
 979 0268 08       		.byte	0x8
 980 0269 88020000 		.4byte	0x288
 981 026d 07       		.uleb128 0x7
 982 026e 5C000000 		.4byte	.LASF44
 983 0272 0D       		.byte	0xd
 984 0273 90       		.byte	0x90
 985 0274 1A       		.byte	0x1a
 986 0275 27020000 		.4byte	0x227
 987 0279 00       		.byte	0
 988 027a 07       		.uleb128 0x7
 989 027b 77000000 		.4byte	.LASF47
 990 027f 0D       		.byte	0xd
 991 0280 91       		.byte	0x91
 992 0281 1A       		.byte	0x1a
 993 0282 27020000 		.4byte	0x227
 994 0286 04       		.byte	0x4
 995 0287 00       		.byte	0
 996 0288 03       		.uleb128 0x3
 997 0289 43000000 		.4byte	.LASF48
 998 028d 0C       		.byte	0xc
 999 028e 57       		.byte	0x57
 1000 028f 1E       		.byte	0x1e
 1001 0290 94020000 		.4byte	0x294
 1002 0294 0C       		.uleb128 0xc
 1003 0295 53020000 		.4byte	.LASF49
 1004 0299 1C       		.byte	0x1c
 1005 029a 0D       		.byte	0xd
 1006 029b 6A01     		.2byte	0x16a
 1007 029d 08       		.byte	0x8
 1008 029e F7020000 		.4byte	0x2f7
 1009 02a2 0A       		.uleb128 0xa
 1010 02a3 93010000 		.4byte	.LASF25
 1011 02a7 0D       		.byte	0xd
 1012 02a8 6B01     		.2byte	0x16b
ARM GAS  /tmp/ccItyVqU.s 			page 19


 1013 02aa 19       		.byte	0x19
 1014 02ab 54020000 		.4byte	0x254
 1015 02af 00       		.byte	0
 1016 02b0 0A       		.uleb128 0xa
 1017 02b1 24040000 		.4byte	.LASF26
 1018 02b5 0D       		.byte	0xd
 1019 02b6 6C01     		.2byte	0x16c
 1020 02b8 19       		.byte	0x19
 1021 02b9 E3000000 		.4byte	0xe3
 1022 02bd 08       		.byte	0x8
 1023 02be 09       		.uleb128 0x9
 1024 02bf 63747800 		.ascii	"ctx\000"
 1025 02c3 0D       		.byte	0xd
 1026 02c4 6E01     		.2byte	0x16e
 1027 02c6 19       		.byte	0x19
 1028 02c7 9A040000 		.4byte	0x49a
 1029 02cb 0C       		.byte	0xc
 1030 02cc 0A       		.uleb128 0xa
 1031 02cd 0C060000 		.4byte	.LASF27
 1032 02d1 0D       		.byte	0xd
 1033 02d2 7101     		.2byte	0x171
 1034 02d4 1A       		.byte	0x1a
 1035 02d5 27020000 		.4byte	0x227
 1036 02d9 10       		.byte	0x10
 1037 02da 0A       		.uleb128 0xa
 1038 02db A9050000 		.4byte	.LASF28
 1039 02df 0D       		.byte	0xd
 1040 02e0 7201     		.2byte	0x172
 1041 02e2 1A       		.byte	0x1a
 1042 02e3 27020000 		.4byte	0x227
 1043 02e7 14       		.byte	0x14
 1044 02e8 0A       		.uleb128 0xa
 1045 02e9 29040000 		.4byte	.LASF50
 1046 02ed 0D       		.byte	0xd
 1047 02ee 7501     		.2byte	0x175
 1048 02f0 1A       		.byte	0x1a
 1049 02f1 27020000 		.4byte	0x227
 1050 02f5 18       		.byte	0x18
 1051 02f6 00       		.byte	0
 1052 02f7 03       		.uleb128 0x3
 1053 02f8 C7050000 		.4byte	.LASF51
 1054 02fc 0C       		.byte	0xc
 1055 02fd 5C       		.byte	0x5c
 1056 02fe 10       		.byte	0x10
 1057 02ff 03030000 		.4byte	0x303
 1058 0303 0B       		.uleb128 0xb
 1059 0304 04       		.byte	0x4
 1060 0305 09030000 		.4byte	0x309
 1061 0309 0D       		.uleb128 0xd
 1062 030a 14030000 		.4byte	0x314
 1063 030e 0E       		.uleb128 0xe
 1064 030f 14030000 		.4byte	0x314
 1065 0313 00       		.byte	0
 1066 0314 0F       		.uleb128 0xf
 1067 0315 04       		.byte	0x4
 1068 0316 10       		.uleb128 0x10
 1069 0317 14030000 		.4byte	0x314
ARM GAS  /tmp/ccItyVqU.s 			page 20


 1070 031b 03       		.uleb128 0x3
 1071 031c 3E040000 		.4byte	.LASF52
 1072 0320 0C       		.byte	0xc
 1073 0321 61       		.byte	0x61
 1074 0322 21       		.byte	0x21
 1075 0323 27030000 		.4byte	0x327
 1076 0327 0C       		.uleb128 0xc
 1077 0328 E3040000 		.4byte	.LASF53
 1078 032c 14       		.byte	0x14
 1079 032d 0D       		.byte	0xd
 1080 032e 4501     		.2byte	0x145
 1081 0330 08       		.byte	0x8
 1082 0331 7C030000 		.4byte	0x37c
 1083 0335 0A       		.uleb128 0xa
 1084 0336 5C000000 		.4byte	.LASF44
 1085 033a 0D       		.byte	0xd
 1086 033b 4601     		.2byte	0x146
 1087 033d 1A       		.byte	0x1a
 1088 033e 89070000 		.4byte	0x789
 1089 0342 00       		.byte	0
 1090 0343 0A       		.uleb128 0xa
 1091 0344 77000000 		.4byte	.LASF47
 1092 0348 0D       		.byte	0xd
 1093 0349 4701     		.2byte	0x147
 1094 034b 1A       		.byte	0x1a
 1095 034c 89070000 		.4byte	0x789
 1096 0350 04       		.byte	0x4
 1097 0351 0A       		.uleb128 0xa
 1098 0352 61000000 		.4byte	.LASF54
 1099 0356 0D       		.byte	0xd
 1100 0357 4801     		.2byte	0x148
 1101 0359 19       		.byte	0x19
 1102 035a 13010000 		.4byte	0x113
 1103 035e 08       		.byte	0x8
 1104 035f 0A       		.uleb128 0xa
 1105 0360 7B010000 		.4byte	.LASF55
 1106 0364 0D       		.byte	0xd
 1107 0365 4901     		.2byte	0x149
 1108 0367 19       		.byte	0x19
 1109 0368 F7020000 		.4byte	0x2f7
 1110 036c 0C       		.byte	0xc
 1111 036d 09       		.uleb128 0x9
 1112 036e 70617200 		.ascii	"par\000"
 1113 0372 0D       		.byte	0xd
 1114 0373 4B01     		.2byte	0x14b
 1115 0375 1A       		.byte	0x1a
 1116 0376 14030000 		.4byte	0x314
 1117 037a 10       		.byte	0x10
 1118 037b 00       		.byte	0
 1119 037c 03       		.uleb128 0x3
 1120 037d D4000000 		.4byte	.LASF56
 1121 0381 0C       		.byte	0xc
 1122 0382 66       		.byte	0x66
 1123 0383 28       		.byte	0x28
 1124 0384 88030000 		.4byte	0x388
 1125 0388 0C       		.uleb128 0xc
 1126 0389 CE020000 		.4byte	.LASF57
ARM GAS  /tmp/ccItyVqU.s 			page 21


 1127 038d 10       		.byte	0x10
 1128 038e 0D       		.byte	0xd
 1129 038f 5501     		.2byte	0x155
 1130 0391 08       		.byte	0x8
 1131 0392 CF030000 		.4byte	0x3cf
 1132 0396 0A       		.uleb128 0xa
 1133 0397 5C000000 		.4byte	.LASF44
 1134 039b 0D       		.byte	0xd
 1135 039c 5601     		.2byte	0x156
 1136 039e 1A       		.byte	0x1a
 1137 039f 89070000 		.4byte	0x789
 1138 03a3 00       		.byte	0
 1139 03a4 0A       		.uleb128 0xa
 1140 03a5 77000000 		.4byte	.LASF47
 1141 03a9 0D       		.byte	0xd
 1142 03aa 5801     		.2byte	0x158
 1143 03ac 1A       		.byte	0x1a
 1144 03ad 89070000 		.4byte	0x789
 1145 03b1 04       		.byte	0x4
 1146 03b2 0A       		.uleb128 0xa
 1147 03b3 61000000 		.4byte	.LASF54
 1148 03b7 0D       		.byte	0xd
 1149 03b8 5A01     		.2byte	0x15a
 1150 03ba 19       		.byte	0x19
 1151 03bb 13010000 		.4byte	0x113
 1152 03bf 08       		.byte	0x8
 1153 03c0 0A       		.uleb128 0xa
 1154 03c1 AE040000 		.4byte	.LASF58
 1155 03c5 0D       		.byte	0xd
 1156 03c6 6201     		.2byte	0x162
 1157 03c8 19       		.byte	0x19
 1158 03c9 13010000 		.4byte	0x113
 1159 03cd 0C       		.byte	0xc
 1160 03ce 00       		.byte	0
 1161 03cf 03       		.uleb128 0x3
 1162 03d0 88000000 		.4byte	.LASF59
 1163 03d4 0C       		.byte	0xc
 1164 03d5 6B       		.byte	0x6b
 1165 03d6 20       		.byte	0x20
 1166 03d7 DB030000 		.4byte	0x3db
 1167 03db 0C       		.uleb128 0xc
 1168 03dc 63040000 		.4byte	.LASF60
 1169 03e0 04       		.byte	0x4
 1170 03e1 0D       		.byte	0xd
 1171 03e2 7C01     		.2byte	0x17c
 1172 03e4 08       		.byte	0x8
 1173 03e5 F8030000 		.4byte	0x3f8
 1174 03e9 0A       		.uleb128 0xa
 1175 03ea 5F060000 		.4byte	.LASF61
 1176 03ee 0D       		.byte	0xd
 1177 03ef 8401     		.2byte	0x184
 1178 03f1 24       		.byte	0x24
 1179 03f2 72070000 		.4byte	0x772
 1180 03f6 00       		.byte	0
 1181 03f7 00       		.byte	0
 1182 03f8 03       		.uleb128 0x3
 1183 03f9 3B020000 		.4byte	.LASF62
ARM GAS  /tmp/ccItyVqU.s 			page 22


 1184 03fd 0C       		.byte	0xc
 1185 03fe 70       		.byte	0x70
 1186 03ff 1A       		.byte	0x1a
 1187 0400 04040000 		.4byte	0x404
 1188 0404 0C       		.uleb128 0xc
 1189 0405 C6040000 		.4byte	.LASF63
 1190 0409 78       		.byte	0x78
 1191 040a 0D       		.byte	0xd
 1192 040b 9C01     		.2byte	0x19c
 1193 040d 08       		.byte	0x8
 1194 040e 58040000 		.4byte	0x458
 1195 0412 0A       		.uleb128 0xa
 1196 0413 2B060000 		.4byte	.LASF64
 1197 0417 0D       		.byte	0xd
 1198 0418 A001     		.2byte	0x1a0
 1199 041a 19       		.byte	0x19
 1200 041b 88020000 		.4byte	0x288
 1201 041f 00       		.byte	0
 1202 0420 0A       		.uleb128 0xa
 1203 0421 2E010000 		.4byte	.LASF65
 1204 0425 0D       		.byte	0xd
 1205 0426 A401     		.2byte	0x1a4
 1206 0428 19       		.byte	0x19
 1207 0429 7C030000 		.4byte	0x37c
 1208 042d 1C       		.byte	0x1c
 1209 042e 09       		.uleb128 0x9
 1210 042f 64626700 		.ascii	"dbg\000"
 1211 0433 0D       		.byte	0xd
 1212 0434 A801     		.2byte	0x1a8
 1213 0436 19       		.byte	0x19
 1214 0437 CF030000 		.4byte	0x3cf
 1215 043b 2C       		.byte	0x2c
 1216 043c 0A       		.uleb128 0xa
 1217 043d C1000000 		.4byte	.LASF66
 1218 0441 0D       		.byte	0xd
 1219 0442 AC01     		.2byte	0x1ac
 1220 0444 19       		.byte	0x19
 1221 0445 1F010000 		.4byte	0x11f
 1222 0449 30       		.byte	0x30
 1223 044a 09       		.uleb128 0x9
 1224 044b 746D00   		.ascii	"tm\000"
 1225 044e 0D       		.byte	0xd
 1226 044f B101     		.2byte	0x1b1
 1227 0451 19       		.byte	0x19
 1228 0452 85060000 		.4byte	0x685
 1229 0456 74       		.byte	0x74
 1230 0457 00       		.byte	0
 1231 0458 11       		.uleb128 0x11
 1232 0459 94000000 		.4byte	0x94
 1233 045d 68040000 		.4byte	0x468
 1234 0461 12       		.uleb128 0x12
 1235 0462 38000000 		.4byte	0x38
 1236 0466 01       		.byte	0x1
 1237 0467 00       		.byte	0
 1238 0468 05       		.uleb128 0x5
 1239 0469 58040000 		.4byte	0x458
 1240 046d 11       		.uleb128 0x11
ARM GAS  /tmp/ccItyVqU.s 			page 23


 1241 046e 94000000 		.4byte	0x94
 1242 0472 7D040000 		.4byte	0x47d
 1243 0476 12       		.uleb128 0x12
 1244 0477 38000000 		.4byte	0x38
 1245 047b 03       		.byte	0x3
 1246 047c 00       		.byte	0
 1247 047d 05       		.uleb128 0x5
 1248 047e 6D040000 		.4byte	0x46d
 1249 0482 03       		.uleb128 0x3
 1250 0483 B7010000 		.4byte	.LASF67
 1251 0487 0E       		.byte	0xe
 1252 0488 65       		.byte	0x65
 1253 0489 0F       		.byte	0xf
 1254 048a 14030000 		.4byte	0x314
 1255 048e 03       		.uleb128 0x3
 1256 048f 6D020000 		.4byte	.LASF68
 1257 0493 0E       		.byte	0xe
 1258 0494 6D       		.byte	0x6d
 1259 0495 12       		.byte	0x12
 1260 0496 A0000000 		.4byte	0xa0
 1261 049a 06       		.uleb128 0x6
 1262 049b FA030000 		.4byte	.LASF69
 1263 049f 04       		.byte	0x4
 1264 04a0 0E       		.byte	0xe
 1265 04a1 89       		.byte	0x89
 1266 04a2 08       		.byte	0x8
 1267 04a3 B4040000 		.4byte	0x4b4
 1268 04a7 08       		.uleb128 0x8
 1269 04a8 737000   		.ascii	"sp\000"
 1270 04ab 0E       		.byte	0xe
 1271 04ac 8A       		.byte	0x8a
 1272 04ad 17       		.byte	0x17
 1273 04ae 3A050000 		.4byte	0x53a
 1274 04b2 00       		.byte	0
 1275 04b3 00       		.byte	0
 1276 04b4 0C       		.uleb128 0xc
 1277 04b5 7C000000 		.4byte	.LASF70
 1278 04b9 24       		.byte	0x24
 1279 04ba 05       		.byte	0x5
 1280 04bb 5901     		.2byte	0x159
 1281 04bd 08       		.byte	0x8
 1282 04be 3A050000 		.4byte	0x53a
 1283 04c2 09       		.uleb128 0x9
 1284 04c3 723400   		.ascii	"r4\000"
 1285 04c6 05       		.byte	0x5
 1286 04c7 6C01     		.2byte	0x16c
 1287 04c9 11       		.byte	0x11
 1288 04ca 82040000 		.4byte	0x482
 1289 04ce 00       		.byte	0
 1290 04cf 09       		.uleb128 0x9
 1291 04d0 723500   		.ascii	"r5\000"
 1292 04d3 05       		.byte	0x5
 1293 04d4 6D01     		.2byte	0x16d
 1294 04d6 11       		.byte	0x11
 1295 04d7 82040000 		.4byte	0x482
 1296 04db 04       		.byte	0x4
 1297 04dc 09       		.uleb128 0x9
ARM GAS  /tmp/ccItyVqU.s 			page 24


 1298 04dd 723600   		.ascii	"r6\000"
 1299 04e0 05       		.byte	0x5
 1300 04e1 6E01     		.2byte	0x16e
 1301 04e3 11       		.byte	0x11
 1302 04e4 82040000 		.4byte	0x482
 1303 04e8 08       		.byte	0x8
 1304 04e9 09       		.uleb128 0x9
 1305 04ea 723700   		.ascii	"r7\000"
 1306 04ed 05       		.byte	0x5
 1307 04ee 6F01     		.2byte	0x16f
 1308 04f0 11       		.byte	0x11
 1309 04f1 82040000 		.4byte	0x482
 1310 04f5 0C       		.byte	0xc
 1311 04f6 09       		.uleb128 0x9
 1312 04f7 723800   		.ascii	"r8\000"
 1313 04fa 05       		.byte	0x5
 1314 04fb 7001     		.2byte	0x170
 1315 04fd 11       		.byte	0x11
 1316 04fe 82040000 		.4byte	0x482
 1317 0502 10       		.byte	0x10
 1318 0503 09       		.uleb128 0x9
 1319 0504 723900   		.ascii	"r9\000"
 1320 0507 05       		.byte	0x5
 1321 0508 7101     		.2byte	0x171
 1322 050a 11       		.byte	0x11
 1323 050b 82040000 		.4byte	0x482
 1324 050f 14       		.byte	0x14
 1325 0510 09       		.uleb128 0x9
 1326 0511 72313000 		.ascii	"r10\000"
 1327 0515 05       		.byte	0x5
 1328 0516 7201     		.2byte	0x172
 1329 0518 11       		.byte	0x11
 1330 0519 82040000 		.4byte	0x482
 1331 051d 18       		.byte	0x18
 1332 051e 09       		.uleb128 0x9
 1333 051f 72313100 		.ascii	"r11\000"
 1334 0523 05       		.byte	0x5
 1335 0524 7301     		.2byte	0x173
 1336 0526 11       		.byte	0x11
 1337 0527 82040000 		.4byte	0x482
 1338 052b 1C       		.byte	0x1c
 1339 052c 09       		.uleb128 0x9
 1340 052d 6C7200   		.ascii	"lr\000"
 1341 0530 05       		.byte	0x5
 1342 0531 7401     		.2byte	0x174
 1343 0533 11       		.byte	0x11
 1344 0534 82040000 		.4byte	0x482
 1345 0538 20       		.byte	0x20
 1346 0539 00       		.byte	0
 1347 053a 0B       		.uleb128 0xb
 1348 053b 04       		.byte	0x4
 1349 053c B4040000 		.4byte	0x4b4
 1350 0540 13       		.uleb128 0x13
 1351 0541 60       		.byte	0x60
 1352 0542 0F       		.byte	0xf
 1353 0543 A101     		.2byte	0x1a1
 1354 0545 09       		.byte	0x9
ARM GAS  /tmp/ccItyVqU.s 			page 25


 1355 0546 61060000 		.4byte	0x661
 1356 054a 09       		.uleb128 0x9
 1357 054b 43523100 		.ascii	"CR1\000"
 1358 054f 0F       		.byte	0xf
 1359 0550 A201     		.2byte	0x1a2
 1360 0552 19       		.byte	0x19
 1361 0553 94000000 		.4byte	0x94
 1362 0557 00       		.byte	0
 1363 0558 09       		.uleb128 0x9
 1364 0559 43523200 		.ascii	"CR2\000"
 1365 055d 0F       		.byte	0xf
 1366 055e A301     		.2byte	0x1a3
 1367 0560 19       		.byte	0x19
 1368 0561 94000000 		.4byte	0x94
 1369 0565 04       		.byte	0x4
 1370 0566 0A       		.uleb128 0xa
 1371 0567 1D020000 		.4byte	.LASF71
 1372 056b 0F       		.byte	0xf
 1373 056c A401     		.2byte	0x1a4
 1374 056e 19       		.byte	0x19
 1375 056f 94000000 		.4byte	0x94
 1376 0573 08       		.byte	0x8
 1377 0574 0A       		.uleb128 0xa
 1378 0575 50000000 		.4byte	.LASF72
 1379 0579 0F       		.byte	0xf
 1380 057a A501     		.2byte	0x1a5
 1381 057c 19       		.byte	0x19
 1382 057d 94000000 		.4byte	0x94
 1383 0581 0C       		.byte	0xc
 1384 0582 09       		.uleb128 0x9
 1385 0583 535200   		.ascii	"SR\000"
 1386 0586 0F       		.byte	0xf
 1387 0587 A601     		.2byte	0x1a6
 1388 0589 19       		.byte	0x19
 1389 058a 94000000 		.4byte	0x94
 1390 058e 10       		.byte	0x10
 1391 058f 09       		.uleb128 0x9
 1392 0590 45475200 		.ascii	"EGR\000"
 1393 0594 0F       		.byte	0xf
 1394 0595 A701     		.2byte	0x1a7
 1395 0597 19       		.byte	0x19
 1396 0598 94000000 		.4byte	0x94
 1397 059c 14       		.byte	0x14
 1398 059d 0A       		.uleb128 0xa
 1399 059e 00010000 		.4byte	.LASF73
 1400 05a2 0F       		.byte	0xf
 1401 05a3 A801     		.2byte	0x1a8
 1402 05a5 19       		.byte	0x19
 1403 05a6 94000000 		.4byte	0x94
 1404 05aa 18       		.byte	0x18
 1405 05ab 0A       		.uleb128 0xa
 1406 05ac 06010000 		.4byte	.LASF74
 1407 05b0 0F       		.byte	0xf
 1408 05b1 A901     		.2byte	0x1a9
 1409 05b3 19       		.byte	0x19
 1410 05b4 94000000 		.4byte	0x94
 1411 05b8 1C       		.byte	0x1c
ARM GAS  /tmp/ccItyVqU.s 			page 26


 1412 05b9 0A       		.uleb128 0xa
 1413 05ba 80010000 		.4byte	.LASF75
 1414 05be 0F       		.byte	0xf
 1415 05bf AA01     		.2byte	0x1aa
 1416 05c1 19       		.byte	0x19
 1417 05c2 94000000 		.4byte	0x94
 1418 05c6 20       		.byte	0x20
 1419 05c7 09       		.uleb128 0x9
 1420 05c8 434E5400 		.ascii	"CNT\000"
 1421 05cc 0F       		.byte	0xf
 1422 05cd AB01     		.2byte	0x1ab
 1423 05cf 19       		.byte	0x19
 1424 05d0 94000000 		.4byte	0x94
 1425 05d4 24       		.byte	0x24
 1426 05d5 09       		.uleb128 0x9
 1427 05d6 50534300 		.ascii	"PSC\000"
 1428 05da 0F       		.byte	0xf
 1429 05db AC01     		.2byte	0x1ac
 1430 05dd 19       		.byte	0x19
 1431 05de 94000000 		.4byte	0x94
 1432 05e2 28       		.byte	0x28
 1433 05e3 09       		.uleb128 0x9
 1434 05e4 41525200 		.ascii	"ARR\000"
 1435 05e8 0F       		.byte	0xf
 1436 05e9 AD01     		.2byte	0x1ad
 1437 05eb 19       		.byte	0x19
 1438 05ec 94000000 		.4byte	0x94
 1439 05f0 2C       		.byte	0x2c
 1440 05f1 09       		.uleb128 0x9
 1441 05f2 52435200 		.ascii	"RCR\000"
 1442 05f6 0F       		.byte	0xf
 1443 05f7 AE01     		.2byte	0x1ae
 1444 05f9 19       		.byte	0x19
 1445 05fa 94000000 		.4byte	0x94
 1446 05fe 30       		.byte	0x30
 1447 05ff 09       		.uleb128 0x9
 1448 0600 43435200 		.ascii	"CCR\000"
 1449 0604 0F       		.byte	0xf
 1450 0605 AF01     		.2byte	0x1af
 1451 0607 19       		.byte	0x19
 1452 0608 7D040000 		.4byte	0x47d
 1453 060c 34       		.byte	0x34
 1454 060d 0A       		.uleb128 0xa
 1455 060e EA000000 		.4byte	.LASF76
 1456 0612 0F       		.byte	0xf
 1457 0613 B001     		.2byte	0x1b0
 1458 0615 19       		.byte	0x19
 1459 0616 94000000 		.4byte	0x94
 1460 061a 44       		.byte	0x44
 1461 061b 09       		.uleb128 0x9
 1462 061c 44435200 		.ascii	"DCR\000"
 1463 0620 0F       		.byte	0xf
 1464 0621 B101     		.2byte	0x1b1
 1465 0623 19       		.byte	0x19
 1466 0624 94000000 		.4byte	0x94
 1467 0628 48       		.byte	0x48
 1468 0629 0A       		.uleb128 0xa
ARM GAS  /tmp/ccItyVqU.s 			page 27


 1469 062a AF050000 		.4byte	.LASF77
 1470 062e 0F       		.byte	0xf
 1471 062f B201     		.2byte	0x1b2
 1472 0631 19       		.byte	0x19
 1473 0632 94000000 		.4byte	0x94
 1474 0636 4C       		.byte	0x4c
 1475 0637 09       		.uleb128 0x9
 1476 0638 4F5200   		.ascii	"OR\000"
 1477 063b 0F       		.byte	0xf
 1478 063c B301     		.2byte	0x1b3
 1479 063e 19       		.byte	0x19
 1480 063f 94000000 		.4byte	0x94
 1481 0643 50       		.byte	0x50
 1482 0644 0A       		.uleb128 0xa
 1483 0645 0C010000 		.4byte	.LASF78
 1484 0649 0F       		.byte	0xf
 1485 064a B401     		.2byte	0x1b4
 1486 064c 19       		.byte	0x19
 1487 064d 94000000 		.4byte	0x94
 1488 0651 54       		.byte	0x54
 1489 0652 0A       		.uleb128 0xa
 1490 0653 01050000 		.4byte	.LASF79
 1491 0657 0F       		.byte	0xf
 1492 0658 B501     		.2byte	0x1b5
 1493 065a 19       		.byte	0x19
 1494 065b 68040000 		.4byte	0x468
 1495 065f 58       		.byte	0x58
 1496 0660 00       		.byte	0
 1497 0661 14       		.uleb128 0x14
 1498 0662 47020000 		.4byte	.LASF80
 1499 0666 0F       		.byte	0xf
 1500 0667 B601     		.2byte	0x1b6
 1501 0669 03       		.byte	0x3
 1502 066a 40050000 		.4byte	0x540
 1503 066e 15       		.uleb128 0x15
 1504 066f 04       		.byte	0x4
 1505 0670 10       		.byte	0x10
 1506 0671 38       		.byte	0x38
 1507 0672 09       		.byte	0x9
 1508 0673 85060000 		.4byte	0x685
 1509 0677 07       		.uleb128 0x7
 1510 0678 DE050000 		.4byte	.LASF81
 1511 067c 10       		.byte	0x10
 1512 067d 3C       		.byte	0x3c
 1513 067e 19       		.byte	0x19
 1514 067f B3000000 		.4byte	0xb3
 1515 0683 00       		.byte	0
 1516 0684 00       		.byte	0
 1517 0685 03       		.uleb128 0x3
 1518 0686 CF030000 		.4byte	.LASF82
 1519 068a 10       		.byte	0x10
 1520 068b 3D       		.byte	0x3d
 1521 068c 03       		.byte	0x3
 1522 068d 6E060000 		.4byte	0x66e
 1523 0691 16       		.uleb128 0x16
 1524 0692 04       		.byte	0x4
 1525 0693 0D       		.byte	0xd
ARM GAS  /tmp/ccItyVqU.s 			page 28


 1526 0694 D2       		.byte	0xd2
 1527 0695 03       		.byte	0x3
 1528 0696 FD060000 		.4byte	0x6fd
 1529 069a 17       		.uleb128 0x17
 1530 069b 67000000 		.4byte	.LASF83
 1531 069f 0D       		.byte	0xd
 1532 06a0 D9       		.byte	0xd9
 1533 06a1 19       		.byte	0x19
 1534 06a2 EF000000 		.4byte	0xef
 1535 06a6 17       		.uleb128 0x17
 1536 06a7 B8000000 		.4byte	.LASF84
 1537 06ab 0D       		.byte	0xd
 1538 06ac E0       		.byte	0xe0
 1539 06ad 19       		.byte	0x19
 1540 06ae EF000000 		.4byte	0xef
 1541 06b2 17       		.uleb128 0x17
 1542 06b3 69060000 		.4byte	.LASF85
 1543 06b7 0D       		.byte	0xd
 1544 06b8 E7       		.byte	0xe7
 1545 06b9 1A       		.byte	0x1a
 1546 06ba 14030000 		.4byte	0x314
 1547 06be 17       		.uleb128 0x17
 1548 06bf 03020000 		.4byte	.LASF86
 1549 06c3 0D       		.byte	0xd
 1550 06c4 EE       		.byte	0xee
 1551 06c5 1A       		.byte	0x1a
 1552 06c6 FD060000 		.4byte	0x6fd
 1553 06ca 17       		.uleb128 0x17
 1554 06cb CC000000 		.4byte	.LASF87
 1555 06cf 0D       		.byte	0xd
 1556 06d0 F3       		.byte	0xf3
 1557 06d1 19       		.byte	0x19
 1558 06d2 EF000000 		.4byte	0xef
 1559 06d6 17       		.uleb128 0x17
 1560 06d7 FC010000 		.4byte	.LASF88
 1561 06db 0D       		.byte	0xd
 1562 06dc FC       		.byte	0xfc
 1563 06dd 1A       		.byte	0x1a
 1564 06de 2B070000 		.4byte	0x72b
 1565 06e2 18       		.uleb128 0x18
 1566 06e3 2A050000 		.4byte	.LASF89
 1567 06e7 0D       		.byte	0xd
 1568 06e8 0501     		.2byte	0x105
 1569 06ea 1A       		.byte	0x1a
 1570 06eb 66070000 		.4byte	0x766
 1571 06ef 18       		.uleb128 0x18
 1572 06f0 BF040000 		.4byte	.LASF90
 1573 06f4 0D       		.byte	0xd
 1574 06f5 0D01     		.2byte	0x10d
 1575 06f7 19       		.byte	0x19
 1576 06f8 FB000000 		.4byte	0xfb
 1577 06fc 00       		.byte	0
 1578 06fd 0B       		.uleb128 0xb
 1579 06fe 04       		.byte	0x4
 1580 06ff 1B020000 		.4byte	0x21b
 1581 0703 06       		.uleb128 0x6
 1582 0704 F4040000 		.4byte	.LASF91
ARM GAS  /tmp/ccItyVqU.s 			page 29


 1583 0708 0C       		.byte	0xc
 1584 0709 11       		.byte	0x11
 1585 070a 34       		.byte	0x34
 1586 070b 10       		.byte	0x10
 1587 070c 2B070000 		.4byte	0x72b
 1588 0710 07       		.uleb128 0x7
 1589 0711 93010000 		.4byte	.LASF25
 1590 0715 11       		.byte	0x11
 1591 0716 35       		.byte	0x35
 1592 0717 19       		.byte	0x19
 1593 0718 54020000 		.4byte	0x254
 1594 071c 00       		.byte	0
 1595 071d 08       		.uleb128 0x8
 1596 071e 636E7400 		.ascii	"cnt\000"
 1597 0722 11       		.byte	0x11
 1598 0723 37       		.byte	0x37
 1599 0724 19       		.byte	0x19
 1600 0725 07010000 		.4byte	0x107
 1601 0729 08       		.byte	0x8
 1602 072a 00       		.byte	0
 1603 072b 0B       		.uleb128 0xb
 1604 072c 04       		.byte	0x4
 1605 072d 03070000 		.4byte	0x703
 1606 0731 06       		.uleb128 0x6
 1607 0732 22060000 		.4byte	.LASF92
 1608 0736 10       		.byte	0x10
 1609 0737 12       		.byte	0x12
 1610 0738 39       		.byte	0x39
 1611 0739 08       		.byte	0x8
 1612 073a 66070000 		.4byte	0x766
 1613 073e 07       		.uleb128 0x7
 1614 073f 93010000 		.4byte	.LASF25
 1615 0743 12       		.byte	0x12
 1616 0744 3A       		.byte	0x3a
 1617 0745 19       		.byte	0x19
 1618 0746 54020000 		.4byte	0x254
 1619 074a 00       		.byte	0
 1620 074b 07       		.uleb128 0x7
 1621 074c 85050000 		.4byte	.LASF93
 1622 0750 12       		.byte	0x12
 1623 0751 3C       		.byte	0x3c
 1624 0752 1A       		.byte	0x1a
 1625 0753 27020000 		.4byte	0x227
 1626 0757 08       		.byte	0x8
 1627 0758 07       		.uleb128 0x7
 1628 0759 5C000000 		.4byte	.LASF44
 1629 075d 12       		.byte	0x12
 1630 075e 3E       		.byte	0x3e
 1631 075f 1A       		.byte	0x1a
 1632 0760 A7070000 		.4byte	0x7a7
 1633 0764 0C       		.byte	0xc
 1634 0765 00       		.byte	0
 1635 0766 0B       		.uleb128 0xb
 1636 0767 04       		.byte	0x4
 1637 0768 31070000 		.4byte	0x731
 1638 076c 0B       		.uleb128 0xb
 1639 076d 04       		.byte	0x4
ARM GAS  /tmp/ccItyVqU.s 			page 30


 1640 076e 7E070000 		.4byte	0x77e
 1641 0772 05       		.uleb128 0x5
 1642 0773 6C070000 		.4byte	0x76c
 1643 0777 04       		.uleb128 0x4
 1644 0778 01       		.byte	0x1
 1645 0779 08       		.byte	0x8
 1646 077a A4050000 		.4byte	.LASF94
 1647 077e 10       		.uleb128 0x10
 1648 077f 77070000 		.4byte	0x777
 1649 0783 0B       		.uleb128 0xb
 1650 0784 04       		.byte	0x4
 1651 0785 8E040000 		.4byte	0x48e
 1652 0789 0B       		.uleb128 0xb
 1653 078a 04       		.byte	0x4
 1654 078b 1B030000 		.4byte	0x31b
 1655 078f 19       		.uleb128 0x19
 1656 0790 636800   		.ascii	"ch\000"
 1657 0793 0D       		.byte	0xd
 1658 0794 D201     		.2byte	0x1d2
 1659 0796 14       		.byte	0x14
 1660 0797 F8030000 		.4byte	0x3f8
 1661 079b 03       		.uleb128 0x3
 1662 079c C8010000 		.4byte	.LASF95
 1663 07a0 12       		.byte	0x12
 1664 07a1 34       		.byte	0x34
 1665 07a2 19       		.byte	0x19
 1666 07a3 31070000 		.4byte	0x731
 1667 07a7 0B       		.uleb128 0xb
 1668 07a8 04       		.byte	0x4
 1669 07a9 9B070000 		.4byte	0x79b
 1670 07ad 04       		.uleb128 0x4
 1671 07ae 01       		.byte	0x1
 1672 07af 02       		.byte	0x2
 1673 07b0 73040000 		.4byte	.LASF96
 1674 07b4 0B       		.uleb128 0xb
 1675 07b5 04       		.byte	0x4
 1676 07b6 BA070000 		.4byte	0x7ba
 1677 07ba 1A       		.uleb128 0x1a
 1678 07bb 15       		.uleb128 0x15
 1679 07bc 10       		.byte	0x10
 1680 07bd 13       		.byte	0x13
 1681 07be 3D       		.byte	0x3d
 1682 07bf 09       		.byte	0x9
 1683 07c0 F9070000 		.4byte	0x7f9
 1684 07c4 07       		.uleb128 0x7
 1685 07c5 12020000 		.4byte	.LASF29
 1686 07c9 13       		.byte	0x13
 1687 07ca 3E       		.byte	0x3e
 1688 07cb 0F       		.byte	0xf
 1689 07cc 6C070000 		.4byte	0x76c
 1690 07d0 00       		.byte	0
 1691 07d1 07       		.uleb128 0x7
 1692 07d2 19040000 		.4byte	.LASF97
 1693 07d6 13       		.byte	0x13
 1694 07d7 3F       		.byte	0x3f
 1695 07d8 0A       		.byte	0xa
 1696 07d9 B4070000 		.4byte	0x7b4
ARM GAS  /tmp/ccItyVqU.s 			page 31


 1697 07dd 04       		.byte	0x4
 1698 07de 07       		.uleb128 0x7
 1699 07df 09020000 		.4byte	.LASF98
 1700 07e3 13       		.byte	0x13
 1701 07e4 40       		.byte	0x40
 1702 07e5 0A       		.byte	0xa
 1703 07e6 B4070000 		.4byte	0x7b4
 1704 07ea 08       		.byte	0x8
 1705 07eb 07       		.uleb128 0x7
 1706 07ec 19050000 		.4byte	.LASF99
 1707 07f0 13       		.byte	0x13
 1708 07f1 41       		.byte	0x41
 1709 07f2 0A       		.byte	0xa
 1710 07f3 B4070000 		.4byte	0x7b4
 1711 07f7 0C       		.byte	0xc
 1712 07f8 00       		.byte	0
 1713 07f9 03       		.uleb128 0x3
 1714 07fa 78020000 		.4byte	.LASF100
 1715 07fe 13       		.byte	0x13
 1716 07ff 42       		.byte	0x42
 1717 0800 03       		.byte	0x3
 1718 0801 BB070000 		.4byte	0x7bb
 1719 0805 10       		.uleb128 0x10
 1720 0806 F9070000 		.4byte	0x7f9
 1721 080a 1B       		.uleb128 0x1b
 1722 080b E5020000 		.4byte	.LASF101
 1723 080f 13       		.byte	0x13
 1724 0810 9E       		.byte	0x9e
 1725 0811 11       		.byte	0x11
 1726 0812 38000000 		.4byte	0x38
 1727 0816 11       		.uleb128 0x11
 1728 0817 2C080000 		.4byte	0x82c
 1729 081b 21080000 		.4byte	0x821
 1730 081f 1C       		.uleb128 0x1c
 1731 0820 00       		.byte	0
 1732 0821 10       		.uleb128 0x10
 1733 0822 16080000 		.4byte	0x816
 1734 0826 0B       		.uleb128 0xb
 1735 0827 04       		.byte	0x4
 1736 0828 05080000 		.4byte	0x805
 1737 082c 10       		.uleb128 0x10
 1738 082d 26080000 		.4byte	0x826
 1739 0831 1B       		.uleb128 0x1b
 1740 0832 4D060000 		.4byte	.LASF102
 1741 0836 14       		.byte	0x14
 1742 0837 19       		.byte	0x19
 1743 0838 21       		.byte	0x21
 1744 0839 21080000 		.4byte	0x821
 1745 083d 11       		.uleb128 0x11
 1746 083e 27020000 		.4byte	0x227
 1747 0842 4D080000 		.4byte	0x84d
 1748 0846 12       		.uleb128 0x12
 1749 0847 38000000 		.4byte	0x38
 1750 084b 04       		.byte	0x4
 1751 084c 00       		.byte	0
 1752 084d 1B       		.uleb128 0x1b
 1753 084e B7040000 		.4byte	.LASF103
ARM GAS  /tmp/ccItyVqU.s 			page 32


 1754 0852 15       		.byte	0x15
 1755 0853 59       		.byte	0x59
 1756 0854 12       		.byte	0x12
 1757 0855 3D080000 		.4byte	0x83d
 1758 0859 11       		.uleb128 0x11
 1759 085a 16030000 		.4byte	0x316
 1760 085e 69080000 		.4byte	0x869
 1761 0862 12       		.uleb128 0x12
 1762 0863 38000000 		.4byte	0x38
 1763 0867 04       		.byte	0x4
 1764 0868 00       		.byte	0
 1765 0869 10       		.uleb128 0x10
 1766 086a 59080000 		.4byte	0x859
 1767 086e 1D       		.uleb128 0x1d
 1768 086f 776100   		.ascii	"wa\000"
 1769 0872 15       		.byte	0x15
 1770 0873 5A       		.byte	0x5a
 1771 0874 18       		.byte	0x18
 1772 0875 69080000 		.4byte	0x869
 1773 0879 1E       		.uleb128 0x1e
 1774 087a 74723100 		.ascii	"tr1\000"
 1775 087e 01       		.byte	0x1
 1776 087f 2A       		.byte	0x2a
 1777 0880 1B       		.byte	0x1b
 1778 0881 1B020000 		.4byte	0x21b
 1779 0885 05       		.uleb128 0x5
 1780 0886 03       		.byte	0x3
 1781 0887 00000000 		.4byte	tr1
 1782 088b 1F       		.uleb128 0x1f
 1783 088c 56040000 		.4byte	.LASF104
 1784 0890 01       		.byte	0x1
 1785 0891 71       		.byte	0x71
 1786 0892 19       		.byte	0x19
 1787 0893 05080000 		.4byte	0x805
 1788 0897 05       		.uleb128 0x5
 1789 0898 03       		.byte	0x3
 1790 0899 00000000 		.4byte	test_003_001
 1791 089d 11       		.uleb128 0x11
 1792 089e 2C080000 		.4byte	0x82c
 1793 08a2 AD080000 		.4byte	0x8ad
 1794 08a6 12       		.uleb128 0x12
 1795 08a7 38000000 		.4byte	0x38
 1796 08ab 01       		.byte	0x1
 1797 08ac 00       		.byte	0
 1798 08ad 10       		.uleb128 0x10
 1799 08ae 9D080000 		.4byte	0x89d
 1800 08b2 20       		.uleb128 0x20
 1801 08b3 31080000 		.4byte	0x831
 1802 08b7 01       		.byte	0x1
 1803 08b8 7F       		.byte	0x7f
 1804 08b9 1A       		.byte	0x1a
 1805 08ba AD080000 		.4byte	0x8ad
 1806 08be 05       		.uleb128 0x5
 1807 08bf 03       		.byte	0x3
 1808 08c0 00000000 		.4byte	test_sequence_003
 1809 08c4 21       		.uleb128 0x21
 1810 08c5 8F040000 		.4byte	.LASF106
ARM GAS  /tmp/ccItyVqU.s 			page 33


 1811 08c9 01       		.byte	0x1
 1812 08ca 4E       		.byte	0x4e
 1813 08cb 0D       		.byte	0xd
 1814 08cc 00000000 		.4byte	.LFB279
 1815 08d0 F0000000 		.4byte	.LFE279-.LFB279
 1816 08d4 01       		.uleb128 0x1
 1817 08d5 9C       		.byte	0x9c
 1818 08d6 800B0000 		.4byte	0xb80
 1819 08da 22       		.uleb128 0x22
 1820 08db 1F040000 		.4byte	.LASF105
 1821 08df 01       		.byte	0x1
 1822 08e0 4F       		.byte	0x4f
 1823 08e1 0D       		.byte	0xd
 1824 08e2 13010000 		.4byte	0x113
 1825 08e6 02000000 		.4byte	.LLST0
 1826 08ea 00000000 		.4byte	.LVUS0
 1827 08ee 23       		.uleb128 0x23
 1828 08ef 6D736700 		.ascii	"msg\000"
 1829 08f3 01       		.byte	0x1
 1830 08f4 50       		.byte	0x50
 1831 08f5 09       		.byte	0x9
 1832 08f6 EF000000 		.4byte	0xef
 1833 08fa 1F000000 		.4byte	.LLST1
 1834 08fe 15000000 		.4byte	.LVUS1
 1835 0902 24       		.uleb128 0x24
 1836 0903 850C0000 		.4byte	0xc85
 1837 0907 1C000000 		.4byte	.LBI61
 1838 090b 01       		.byte	.LVU19
 1839 090c 00000000 		.4byte	.Ldebug_ranges0+0
 1840 0910 01       		.byte	0x1
 1841 0911 57       		.byte	0x57
 1842 0912 34       		.byte	0x34
 1843 0913 2A090000 		.4byte	0x92a
 1844 0917 25       		.uleb128 0x25
 1845 0918 930C0000 		.4byte	0xc93
 1846 091c 1C000000 		.4byte	.LBI63
 1847 0920 03       		.byte	.LVU21
 1848 0921 20000000 		.4byte	.Ldebug_ranges0+0x20
 1849 0925 02       		.byte	0x2
 1850 0926 2B01     		.2byte	0x12b
 1851 0928 0A       		.byte	0xa
 1852 0929 00       		.byte	0
 1853 092a 24       		.uleb128 0x24
 1854 092b DC0C0000 		.4byte	0xcdc
 1855 092f 2A000000 		.4byte	.LBI71
 1856 0933 01       		.byte	.LVU28
 1857 0934 38000000 		.4byte	.Ldebug_ranges0+0x38
 1858 0938 01       		.byte	0x1
 1859 0939 58       		.byte	0x58
 1860 093a 05       		.byte	0x5
 1861 093b 73090000 		.4byte	0x973
 1862 093f 26       		.uleb128 0x26
 1863 0940 0A0D0000 		.4byte	0xd0a
 1864 0944 2A000000 		.4byte	.LBI72
 1865 0948 03       		.byte	.LVU30
 1866 0949 60000000 		.4byte	.Ldebug_ranges0+0x60
 1867 094d 04       		.byte	0x4
ARM GAS  /tmp/ccItyVqU.s 			page 34


 1868 094e 7801     		.2byte	0x178
 1869 0950 03       		.byte	0x3
 1870 0951 26       		.uleb128 0x26
 1871 0952 140D0000 		.4byte	0xd14
 1872 0956 2A000000 		.4byte	.LBI73
 1873 095a 05       		.byte	.LVU32
 1874 095b 80000000 		.4byte	.Ldebug_ranges0+0x80
 1875 095f 05       		.byte	0x5
 1876 0960 5A02     		.2byte	0x25a
 1877 0962 03       		.byte	0x3
 1878 0963 27       		.uleb128 0x27
 1879 0964 220D0000 		.4byte	0xd22
 1880 0968 60000000 		.4byte	.LLST2
 1881 096c 5E000000 		.4byte	.LVUS2
 1882 0970 00       		.byte	0
 1883 0971 00       		.byte	0
 1884 0972 00       		.byte	0
 1885 0973 24       		.uleb128 0x24
 1886 0974 AF0C0000 		.4byte	0xcaf
 1887 0978 3E000000 		.4byte	.LBI82
 1888 097c 01       		.byte	.LVU42
 1889 097d 98000000 		.4byte	.Ldebug_ranges0+0x98
 1890 0981 01       		.byte	0x1
 1891 0982 5A       		.byte	0x5a
 1892 0983 05       		.byte	0x5
 1893 0984 C2090000 		.4byte	0x9c2
 1894 0988 28       		.uleb128 0x28
 1895 0989 98000000 		.4byte	.Ldebug_ranges0+0x98
 1896 098d 26       		.uleb128 0x26
 1897 098e 000D0000 		.4byte	0xd00
 1898 0992 3E000000 		.4byte	.LBI84
 1899 0996 08       		.byte	.LVU49
 1900 0997 98000000 		.4byte	.Ldebug_ranges0+0x98
 1901 099b 04       		.byte	0x4
 1902 099c 8F01     		.2byte	0x18f
 1903 099e 03       		.byte	0x3
 1904 099f 26       		.uleb128 0x26
 1905 09a0 140D0000 		.4byte	0xd14
 1906 09a4 3E000000 		.4byte	.LBI85
 1907 09a8 0A       		.byte	.LVU51
 1908 09a9 B8000000 		.4byte	.Ldebug_ranges0+0xb8
 1909 09ad 05       		.byte	0x5
 1910 09ae 6D02     		.2byte	0x26d
 1911 09b0 03       		.byte	0x3
 1912 09b1 27       		.uleb128 0x27
 1913 09b2 220D0000 		.4byte	0xd22
 1914 09b6 77000000 		.4byte	.LLST3
 1915 09ba 75000000 		.4byte	.LVUS3
 1916 09be 00       		.byte	0
 1917 09bf 00       		.byte	0
 1918 09c0 00       		.byte	0
 1919 09c1 00       		.byte	0
 1920 09c2 24       		.uleb128 0x24
 1921 09c3 DC0C0000 		.4byte	0xcdc
 1922 09c7 70000000 		.4byte	.LBI95
 1923 09cb 01       		.byte	.LVU64
 1924 09cc D0000000 		.4byte	.Ldebug_ranges0+0xd0
ARM GAS  /tmp/ccItyVqU.s 			page 35


 1925 09d0 01       		.byte	0x1
 1926 09d1 65       		.byte	0x65
 1927 09d2 05       		.byte	0x5
 1928 09d3 0F0A0000 		.4byte	0xa0f
 1929 09d7 26       		.uleb128 0x26
 1930 09d8 0A0D0000 		.4byte	0xd0a
 1931 09dc 70000000 		.4byte	.LBI96
 1932 09e0 03       		.byte	.LVU66
 1933 09e1 D8000000 		.4byte	.Ldebug_ranges0+0xd8
 1934 09e5 04       		.byte	0x4
 1935 09e6 7801     		.2byte	0x178
 1936 09e8 03       		.byte	0x3
 1937 09e9 29       		.uleb128 0x29
 1938 09ea 140D0000 		.4byte	0xd14
 1939 09ee 70000000 		.4byte	.LBI97
 1940 09f2 05       		.byte	.LVU68
 1941 09f3 70000000 		.4byte	.LBB97
 1942 09f7 04000000 		.4byte	.LBE97-.LBB97
 1943 09fb 05       		.byte	0x5
 1944 09fc 5A02     		.2byte	0x25a
 1945 09fe 03       		.byte	0x3
 1946 09ff 27       		.uleb128 0x27
 1947 0a00 220D0000 		.4byte	0xd22
 1948 0a04 8D000000 		.4byte	.LLST4
 1949 0a08 8B000000 		.4byte	.LVUS4
 1950 0a0c 00       		.byte	0
 1951 0a0d 00       		.byte	0
 1952 0a0e 00       		.byte	0
 1953 0a0f 24       		.uleb128 0x24
 1954 0a10 A10C0000 		.4byte	0xca1
 1955 0a14 74000000 		.4byte	.LBI102
 1956 0a18 04       		.byte	.LVU74
 1957 0a19 F0000000 		.4byte	.Ldebug_ranges0+0xf0
 1958 0a1d 01       		.byte	0x1
 1959 0a1e 66       		.byte	0x66
 1960 0a1f 0C       		.byte	0xc
 1961 0a20 490A0000 		.4byte	0xa49
 1962 0a24 26       		.uleb128 0x26
 1963 0a25 E60C0000 		.4byte	0xce6
 1964 0a29 74000000 		.4byte	.LBI103
 1965 0a2d 06       		.byte	.LVU76
 1966 0a2e F8000000 		.4byte	.Ldebug_ranges0+0xf8
 1967 0a32 06       		.byte	0x6
 1968 0a33 8D01     		.2byte	0x18d
 1969 0a35 0A       		.byte	0xa
 1970 0a36 2A       		.uleb128 0x2a
 1971 0a37 F30C0000 		.4byte	0xcf3
 1972 0a3b 74000000 		.4byte	.LBI104
 1973 0a3f 08       		.byte	.LVU78
 1974 0a40 00010000 		.4byte	.Ldebug_ranges0+0x100
 1975 0a44 07       		.byte	0x7
 1976 0a45 6B       		.byte	0x6b
 1977 0a46 0A       		.byte	0xa
 1978 0a47 00       		.byte	0
 1979 0a48 00       		.byte	0
 1980 0a49 24       		.uleb128 0x24
 1981 0a4a AF0C0000 		.4byte	0xcaf
ARM GAS  /tmp/ccItyVqU.s 			page 36


 1982 0a4e 86000000 		.4byte	.LBI113
 1983 0a52 01       		.byte	.LVU87
 1984 0a53 18010000 		.4byte	.Ldebug_ranges0+0x118
 1985 0a57 01       		.byte	0x1
 1986 0a58 68       		.byte	0x68
 1987 0a59 05       		.byte	0x5
 1988 0a5a 9C0A0000 		.4byte	0xa9c
 1989 0a5e 28       		.uleb128 0x28
 1990 0a5f 18010000 		.4byte	.Ldebug_ranges0+0x118
 1991 0a63 26       		.uleb128 0x26
 1992 0a64 000D0000 		.4byte	0xd00
 1993 0a68 86000000 		.4byte	.LBI115
 1994 0a6c 08       		.byte	.LVU94
 1995 0a6d 18010000 		.4byte	.Ldebug_ranges0+0x118
 1996 0a71 04       		.byte	0x4
 1997 0a72 8F01     		.2byte	0x18f
 1998 0a74 03       		.byte	0x3
 1999 0a75 29       		.uleb128 0x29
 2000 0a76 140D0000 		.4byte	0xd14
 2001 0a7a 86000000 		.4byte	.LBI116
 2002 0a7e 0A       		.byte	.LVU96
 2003 0a7f 86000000 		.4byte	.LBB116
 2004 0a83 04000000 		.4byte	.LBE116-.LBB116
 2005 0a87 05       		.byte	0x5
 2006 0a88 6D02     		.2byte	0x26d
 2007 0a8a 03       		.byte	0x3
 2008 0a8b 27       		.uleb128 0x27
 2009 0a8c 220D0000 		.4byte	0xd22
 2010 0a90 A4000000 		.4byte	.LLST5
 2011 0a94 A2000000 		.4byte	.LVUS5
 2012 0a98 00       		.byte	0
 2013 0a99 00       		.byte	0
 2014 0a9a 00       		.byte	0
 2015 0a9b 00       		.byte	0
 2016 0a9c 2B       		.uleb128 0x2b
 2017 0a9d 24000000 		.4byte	.LVL0
 2018 0aa1 300D0000 		.4byte	0xd30
 2019 0aa5 BA0A0000 		.4byte	0xaba
 2020 0aa9 2C       		.uleb128 0x2c
 2021 0aaa 01       		.uleb128 0x1
 2022 0aab 51       		.byte	0x51
 2023 0aac 03       		.uleb128 0x3
 2024 0aad 0A       		.byte	0xa
 2025 0aae 4801     		.2byte	0x148
 2026 0ab0 2C       		.uleb128 0x2c
 2027 0ab1 01       		.uleb128 0x1
 2028 0ab2 53       		.byte	0x53
 2029 0ab3 05       		.uleb128 0x5
 2030 0ab4 03       		.byte	0x3
 2031 0ab5 00000000 		.4byte	thread1
 2032 0ab9 00       		.byte	0
 2033 0aba 2B       		.uleb128 0x2b
 2034 0abb 3A000000 		.4byte	.LVL3
 2035 0abf 3C0D0000 		.4byte	0xd3c
 2036 0ac3 D40A0000 		.4byte	0xad4
 2037 0ac7 2C       		.uleb128 0x2c
 2038 0ac8 01       		.uleb128 0x1
ARM GAS  /tmp/ccItyVqU.s 			page 37


 2039 0ac9 50       		.byte	0x50
 2040 0aca 02       		.uleb128 0x2
 2041 0acb 75       		.byte	0x75
 2042 0acc 00       		.sleb128 0
 2043 0acd 2C       		.uleb128 0x2c
 2044 0ace 01       		.uleb128 0x1
 2045 0acf 51       		.byte	0x51
 2046 0ad0 02       		.uleb128 0x2
 2047 0ad1 09       		.byte	0x9
 2048 0ad2 FF       		.byte	0xff
 2049 0ad3 00       		.byte	0
 2050 0ad4 2B       		.uleb128 0x2b
 2051 0ad5 50000000 		.4byte	.LVL7
 2052 0ad9 490D0000 		.4byte	0xd49
 2053 0add EB0A0000 		.4byte	0xaeb
 2054 0ae1 2C       		.uleb128 0x2c
 2055 0ae2 01       		.uleb128 0x1
 2056 0ae3 51       		.byte	0x51
 2057 0ae4 05       		.uleb128 0x5
 2058 0ae5 03       		.byte	0x3
 2059 0ae6 04000000 		.4byte	.LC1
 2060 0aea 00       		.byte	0
 2061 0aeb 2B       		.uleb128 0x2b
 2062 0aec 62000000 		.4byte	.LVL10
 2063 0af0 490D0000 		.4byte	0xd49
 2064 0af4 0A0B0000 		.4byte	0xb0a
 2065 0af8 2C       		.uleb128 0x2c
 2066 0af9 01       		.uleb128 0x1
 2067 0afa 50       		.byte	0x50
 2068 0afb 04       		.uleb128 0x4
 2069 0afc 74       		.byte	0x74
 2070 0afd 00       		.sleb128 0
 2071 0afe 30       		.byte	0x30
 2072 0aff 29       		.byte	0x29
 2073 0b00 2C       		.uleb128 0x2c
 2074 0b01 01       		.uleb128 0x1
 2075 0b02 51       		.byte	0x51
 2076 0b03 05       		.uleb128 0x5
 2077 0b04 03       		.byte	0x3
 2078 0b05 10000000 		.4byte	.LC2
 2079 0b09 00       		.byte	0
 2080 0b0a 2D       		.uleb128 0x2d
 2081 0b0b 6C000000 		.4byte	.LVL12
 2082 0b0f 550D0000 		.4byte	0xd55
 2083 0b13 2B       		.uleb128 0x2b
 2084 0b14 84000000 		.4byte	.LVL16
 2085 0b18 3C0D0000 		.4byte	0xd3c
 2086 0b1c 2E0B0000 		.4byte	0xb2e
 2087 0b20 2C       		.uleb128 0x2c
 2088 0b21 01       		.uleb128 0x1
 2089 0b22 50       		.byte	0x50
 2090 0b23 02       		.uleb128 0x2
 2091 0b24 75       		.byte	0x75
 2092 0b25 00       		.sleb128 0
 2093 0b26 2C       		.uleb128 0x2c
 2094 0b27 01       		.uleb128 0x1
 2095 0b28 51       		.byte	0x51
ARM GAS  /tmp/ccItyVqU.s 			page 38


 2096 0b29 03       		.uleb128 0x3
 2097 0b2a 0A       		.byte	0xa
 2098 0b2b 1027     		.2byte	0x2710
 2099 0b2d 00       		.byte	0
 2100 0b2e 2B       		.uleb128 0x2b
 2101 0b2f 9A000000 		.4byte	.LVL20
 2102 0b33 610D0000 		.4byte	0xd61
 2103 0b37 550B0000 		.4byte	0xb55
 2104 0b3b 2C       		.uleb128 0x2c
 2105 0b3c 01       		.uleb128 0x1
 2106 0b3d 50       		.byte	0x50
 2107 0b3e 04       		.uleb128 0x4
 2108 0b3f 77       		.byte	0x77
 2109 0b40 90CE00   		.sleb128 10000
 2110 0b43 2C       		.uleb128 0x2c
 2111 0b44 01       		.uleb128 0x1
 2112 0b45 51       		.byte	0x51
 2113 0b46 04       		.uleb128 0x4
 2114 0b47 77       		.byte	0x77
 2115 0b48 93CE00   		.sleb128 10003
 2116 0b4b 2C       		.uleb128 0x2c
 2117 0b4c 01       		.uleb128 0x1
 2118 0b4d 52       		.byte	0x52
 2119 0b4e 05       		.uleb128 0x5
 2120 0b4f 03       		.byte	0x3
 2121 0b50 28000000 		.4byte	.LC3
 2122 0b54 00       		.byte	0
 2123 0b55 2B       		.uleb128 0x2b
 2124 0b56 AC000000 		.4byte	.LVL21
 2125 0b5a 490D0000 		.4byte	0xd49
 2126 0b5e 6C0B0000 		.4byte	0xb6c
 2127 0b62 2C       		.uleb128 0x2c
 2128 0b63 01       		.uleb128 0x1
 2129 0b64 51       		.byte	0x51
 2130 0b65 05       		.uleb128 0x5
 2131 0b66 03       		.byte	0x3
 2132 0b67 04000000 		.4byte	.LC1
 2133 0b6b 00       		.byte	0
 2134 0b6c 2E       		.uleb128 0x2e
 2135 0b6d C6000000 		.4byte	.LVL23
 2136 0b71 490D0000 		.4byte	0xd49
 2137 0b75 2C       		.uleb128 0x2c
 2138 0b76 01       		.uleb128 0x1
 2139 0b77 51       		.byte	0x51
 2140 0b78 05       		.uleb128 0x5
 2141 0b79 03       		.byte	0x3
 2142 0b7a 10000000 		.4byte	.LC2
 2143 0b7e 00       		.byte	0
 2144 0b7f 00       		.byte	0
 2145 0b80 2F       		.uleb128 0x2f
 2146 0b81 31050000 		.4byte	.LASF129
 2147 0b85 01       		.byte	0x1
 2148 0b86 4A       		.byte	0x4a
 2149 0b87 0D       		.byte	0xd
 2150 0b88 00000000 		.4byte	.LFB278
 2151 0b8c 0C000000 		.4byte	.LFE278-.LFB278
 2152 0b90 01       		.uleb128 0x1
ARM GAS  /tmp/ccItyVqU.s 			page 39


 2153 0b91 9C       		.byte	0x9c
 2154 0b92 21       		.uleb128 0x21
 2155 0b93 F2030000 		.4byte	.LASF107
 2156 0b97 01       		.byte	0x1
 2157 0b98 2C       		.byte	0x2c
 2158 0b99 08       		.byte	0x8
 2159 0b9a 00000000 		.4byte	.LFB277
 2160 0b9e 2C000000 		.4byte	.LFE277-.LFB277
 2161 0ba2 01       		.uleb128 0x1
 2162 0ba3 9C       		.byte	0x9c
 2163 0ba4 850C0000 		.4byte	0xc85
 2164 0ba8 30       		.uleb128 0x30
 2165 0ba9 7000     		.ascii	"p\000"
 2166 0bab 01       		.byte	0x1
 2167 0bac 2C       		.byte	0x2c
 2168 0bad 08       		.byte	0x8
 2169 0bae 14030000 		.4byte	0x314
 2170 0bb2 BE000000 		.4byte	.LLST6
 2171 0bb6 B8000000 		.4byte	.LVUS6
 2172 0bba 24       		.uleb128 0x24
 2173 0bbb DC0C0000 		.4byte	0xcdc
 2174 0bbf 00000000 		.4byte	.LBI121
 2175 0bc3 02       		.byte	.LVU109
 2176 0bc4 30010000 		.4byte	.Ldebug_ranges0+0x130
 2177 0bc8 01       		.byte	0x1
 2178 0bc9 2E       		.byte	0x2e
 2179 0bca 03       		.byte	0x3
 2180 0bcb 030C0000 		.4byte	0xc03
 2181 0bcf 26       		.uleb128 0x26
 2182 0bd0 0A0D0000 		.4byte	0xd0a
 2183 0bd4 00000000 		.4byte	.LBI122
 2184 0bd8 04       		.byte	.LVU111
 2185 0bd9 38010000 		.4byte	.Ldebug_ranges0+0x138
 2186 0bdd 04       		.byte	0x4
 2187 0bde 7801     		.2byte	0x178
 2188 0be0 03       		.byte	0x3
 2189 0be1 26       		.uleb128 0x26
 2190 0be2 140D0000 		.4byte	0xd14
 2191 0be6 00000000 		.4byte	.LBI123
 2192 0bea 06       		.byte	.LVU113
 2193 0beb 40010000 		.4byte	.Ldebug_ranges0+0x140
 2194 0bef 05       		.byte	0x5
 2195 0bf0 5A02     		.2byte	0x25a
 2196 0bf2 03       		.byte	0x3
 2197 0bf3 27       		.uleb128 0x27
 2198 0bf4 220D0000 		.4byte	0xd22
 2199 0bf8 EC000000 		.4byte	.LLST7
 2200 0bfc EA000000 		.4byte	.LVUS7
 2201 0c00 00       		.byte	0
 2202 0c01 00       		.byte	0
 2203 0c02 00       		.byte	0
 2204 0c03 24       		.uleb128 0x24
 2205 0c04 AF0C0000 		.4byte	0xcaf
 2206 0c08 16000000 		.4byte	.LBI136
 2207 0c0c 01       		.byte	.LVU126
 2208 0c0d 60010000 		.4byte	.Ldebug_ranges0+0x160
 2209 0c11 01       		.byte	0x1
ARM GAS  /tmp/ccItyVqU.s 			page 40


 2210 0c12 31       		.byte	0x31
 2211 0c13 03       		.byte	0x3
 2212 0c14 560C0000 		.4byte	0xc56
 2213 0c18 28       		.uleb128 0x28
 2214 0c19 60010000 		.4byte	.Ldebug_ranges0+0x160
 2215 0c1d 26       		.uleb128 0x26
 2216 0c1e 000D0000 		.4byte	0xd00
 2217 0c22 16000000 		.4byte	.LBI138
 2218 0c26 08       		.byte	.LVU133
 2219 0c27 60010000 		.4byte	.Ldebug_ranges0+0x160
 2220 0c2b 04       		.byte	0x4
 2221 0c2c 8F01     		.2byte	0x18f
 2222 0c2e 03       		.byte	0x3
 2223 0c2f 29       		.uleb128 0x29
 2224 0c30 140D0000 		.4byte	0xd14
 2225 0c34 16000000 		.4byte	.LBI139
 2226 0c38 0A       		.byte	.LVU135
 2227 0c39 16000000 		.4byte	.LBB139
 2228 0c3d 06000000 		.4byte	.LBE139-.LBB139
 2229 0c41 05       		.byte	0x5
 2230 0c42 6D02     		.2byte	0x26d
 2231 0c44 03       		.byte	0x3
 2232 0c45 27       		.uleb128 0x27
 2233 0c46 220D0000 		.4byte	0xd22
 2234 0c4a 03010000 		.4byte	.LLST8
 2235 0c4e 01010000 		.4byte	.LVUS8
 2236 0c52 00       		.byte	0
 2237 0c53 00       		.byte	0
 2238 0c54 00       		.byte	0
 2239 0c55 00       		.byte	0
 2240 0c56 2B       		.uleb128 0x2b
 2241 0c57 12000000 		.4byte	.LVL27
 2242 0c5b 6D0D0000 		.4byte	0xd6d
 2243 0c5f 720C0000 		.4byte	0xc72
 2244 0c63 2C       		.uleb128 0x2c
 2245 0c64 01       		.uleb128 0x1
 2246 0c65 50       		.byte	0x50
 2247 0c66 05       		.uleb128 0x5
 2248 0c67 03       		.byte	0x3
 2249 0c68 00000000 		.4byte	.LANCHOR0
 2250 0c6c 2C       		.uleb128 0x2c
 2251 0c6d 01       		.uleb128 0x1
 2252 0c6e 51       		.byte	0x51
 2253 0c6f 01       		.uleb128 0x1
 2254 0c70 30       		.byte	0x30
 2255 0c71 00       		.byte	0
 2256 0c72 2D       		.uleb128 0x2d
 2257 0c73 16000000 		.4byte	.LVL28
 2258 0c77 7A0D0000 		.4byte	0xd7a
 2259 0c7b 31       		.uleb128 0x31
 2260 0c7c 26000000 		.4byte	.LVL31
 2261 0c80 870D0000 		.4byte	0xd87
 2262 0c84 00       		.byte	0
 2263 0c85 32       		.uleb128 0x32
 2264 0c86 07040000 		.4byte	.LASF108
 2265 0c8a 02       		.byte	0x2
 2266 0c8b 2901     		.2byte	0x129
ARM GAS  /tmp/ccItyVqU.s 			page 41


 2267 0c8d 17       		.byte	0x17
 2268 0c8e E3000000 		.4byte	0xe3
 2269 0c92 03       		.byte	0x3
 2270 0c93 32       		.uleb128 0x32
 2271 0c94 31060000 		.4byte	.LASF109
 2272 0c98 02       		.byte	0x2
 2273 0c99 1C01     		.2byte	0x11c
 2274 0c9b 19       		.byte	0x19
 2275 0c9c 27020000 		.4byte	0x227
 2276 0ca0 03       		.byte	0x3
 2277 0ca1 32       		.uleb128 0x32
 2278 0ca2 DC010000 		.4byte	.LASF110
 2279 0ca6 06       		.byte	0x6
 2280 0ca7 8801     		.2byte	0x188
 2281 0ca9 19       		.byte	0x19
 2282 0caa 13010000 		.4byte	0x113
 2283 0cae 03       		.byte	0x3
 2284 0caf 33       		.uleb128 0x33
 2285 0cb0 94060000 		.4byte	.LASF116
 2286 0cb4 04       		.byte	0x4
 2287 0cb5 8201     		.2byte	0x182
 2288 0cb7 14       		.byte	0x14
 2289 0cb8 03       		.byte	0x3
 2290 0cb9 C70C0000 		.4byte	0xcc7
 2291 0cbd 34       		.uleb128 0x34
 2292 0cbe D0040000 		.4byte	.LASF130
 2293 0cc2 D70C0000 		.4byte	0xcd7
 2294 0cc6 00       		.byte	0
 2295 0cc7 11       		.uleb128 0x11
 2296 0cc8 7E070000 		.4byte	0x77e
 2297 0ccc D70C0000 		.4byte	0xcd7
 2298 0cd0 12       		.uleb128 0x12
 2299 0cd1 38000000 		.4byte	0x38
 2300 0cd5 0B       		.byte	0xb
 2301 0cd6 00       		.byte	0
 2302 0cd7 10       		.uleb128 0x10
 2303 0cd8 C70C0000 		.4byte	0xcc7
 2304 0cdc 35       		.uleb128 0x35
 2305 0cdd D9040000 		.4byte	.LASF113
 2306 0ce1 04       		.byte	0x4
 2307 0ce2 7601     		.2byte	0x176
 2308 0ce4 14       		.byte	0x14
 2309 0ce5 03       		.byte	0x3
 2310 0ce6 36       		.uleb128 0x36
 2311 0ce7 F8050000 		.4byte	.LASF111
 2312 0ceb 07       		.byte	0x7
 2313 0cec 69       		.byte	0x69
 2314 0ced 19       		.byte	0x19
 2315 0cee 13010000 		.4byte	0x113
 2316 0cf2 03       		.byte	0x3
 2317 0cf3 36       		.uleb128 0x36
 2318 0cf4 06050000 		.4byte	.LASF112
 2319 0cf8 08       		.byte	0x8
 2320 0cf9 8B       		.byte	0x8b
 2321 0cfa 19       		.byte	0x19
 2322 0cfb 13010000 		.4byte	0x113
 2323 0cff 03       		.byte	0x3
ARM GAS  /tmp/ccItyVqU.s 			page 42


 2324 0d00 35       		.uleb128 0x35
 2325 0d01 35010000 		.4byte	.LASF114
 2326 0d05 05       		.byte	0x5
 2327 0d06 6A02     		.2byte	0x26a
 2328 0d08 14       		.byte	0x14
 2329 0d09 03       		.byte	0x3
 2330 0d0a 35       		.uleb128 0x35
 2331 0d0b 97000000 		.4byte	.LASF115
 2332 0d0f 05       		.byte	0x5
 2333 0d10 5202     		.2byte	0x252
 2334 0d12 14       		.byte	0x14
 2335 0d13 03       		.byte	0x3
 2336 0d14 33       		.uleb128 0x33
 2337 0d15 D0050000 		.4byte	.LASF117
 2338 0d19 03       		.byte	0x3
 2339 0d1a 0601     		.2byte	0x106
 2340 0d1c 39       		.byte	0x39
 2341 0d1d 03       		.byte	0x3
 2342 0d1e 300D0000 		.4byte	0xd30
 2343 0d22 37       		.uleb128 0x37
 2344 0d23 D0010000 		.4byte	.LASF131
 2345 0d27 03       		.byte	0x3
 2346 0d28 0601     		.2byte	0x106
 2347 0d2a 50       		.byte	0x50
 2348 0d2b 88000000 		.4byte	0x88
 2349 0d2f 00       		.byte	0
 2350 0d30 38       		.uleb128 0x38
 2351 0d31 83020000 		.4byte	.LASF118
 2352 0d35 83020000 		.4byte	.LASF118
 2353 0d39 02       		.byte	0x2
 2354 0d3a F3       		.byte	0xf3
 2355 0d3b 0D       		.byte	0xd
 2356 0d3c 39       		.uleb128 0x39
 2357 0d3d 9E020000 		.4byte	.LASF119
 2358 0d41 9E020000 		.4byte	.LASF119
 2359 0d45 02       		.byte	0x2
 2360 0d46 0201     		.2byte	0x102
 2361 0d48 09       		.byte	0x9
 2362 0d49 38       		.uleb128 0x38
 2363 0d4a 70060000 		.4byte	.LASF120
 2364 0d4e 70060000 		.4byte	.LASF120
 2365 0d52 13       		.byte	0x13
 2366 0d53 A6       		.byte	0xa6
 2367 0d54 08       		.byte	0x8
 2368 0d55 38       		.uleb128 0x38
 2369 0d56 E0030000 		.4byte	.LASF121
 2370 0d5a E0030000 		.4byte	.LASF121
 2371 0d5e 15       		.byte	0x15
 2372 0d5f 5D       		.byte	0x5d
 2373 0d60 06       		.byte	0x6
 2374 0d61 38       		.uleb128 0x38
 2375 0d62 62010000 		.4byte	.LASF122
 2376 0d66 62010000 		.4byte	.LASF122
 2377 0d6a 13       		.byte	0x13
 2378 0d6b A8       		.byte	0xa8
 2379 0d6c 08       		.byte	0x8
 2380 0d6d 39       		.uleb128 0x39
ARM GAS  /tmp/ccItyVqU.s 			page 43


 2381 0d6e AA010000 		.4byte	.LASF123
 2382 0d72 AA010000 		.4byte	.LASF123
 2383 0d76 02       		.byte	0x2
 2384 0d77 0301     		.2byte	0x103
 2385 0d79 08       		.byte	0x8
 2386 0d7a 39       		.uleb128 0x39
 2387 0d7b 99010000 		.4byte	.LASF124
 2388 0d7f 99010000 		.4byte	.LASF124
 2389 0d83 0D       		.byte	0xd
 2390 0d84 E101     		.2byte	0x1e1
 2391 0d86 08       		.byte	0x8
 2392 0d87 38       		.uleb128 0x38
 2393 0d88 1E010000 		.4byte	.LASF125
 2394 0d8c 1E010000 		.4byte	.LASF125
 2395 0d90 13       		.byte	0x13
 2396 0d91 AE       		.byte	0xae
 2397 0d92 08       		.byte	0x8
 2398 0d93 00       		.byte	0
 2399              		.section	.debug_abbrev,"",%progbits
 2400              	.Ldebug_abbrev0:
 2401 0000 01       		.uleb128 0x1
 2402 0001 11       		.uleb128 0x11
 2403 0002 01       		.byte	0x1
 2404 0003 25       		.uleb128 0x25
 2405 0004 0E       		.uleb128 0xe
 2406 0005 13       		.uleb128 0x13
 2407 0006 0B       		.uleb128 0xb
 2408 0007 03       		.uleb128 0x3
 2409 0008 0E       		.uleb128 0xe
 2410 0009 1B       		.uleb128 0x1b
 2411 000a 0E       		.uleb128 0xe
 2412 000b 55       		.uleb128 0x55
 2413 000c 17       		.uleb128 0x17
 2414 000d 11       		.uleb128 0x11
 2415 000e 01       		.uleb128 0x1
 2416 000f 10       		.uleb128 0x10
 2417 0010 17       		.uleb128 0x17
 2418 0011 00       		.byte	0
 2419 0012 00       		.byte	0
 2420 0013 02       		.uleb128 0x2
 2421 0014 24       		.uleb128 0x24
 2422 0015 00       		.byte	0
 2423 0016 0B       		.uleb128 0xb
 2424 0017 0B       		.uleb128 0xb
 2425 0018 3E       		.uleb128 0x3e
 2426 0019 0B       		.uleb128 0xb
 2427 001a 03       		.uleb128 0x3
 2428 001b 08       		.uleb128 0x8
 2429 001c 00       		.byte	0
 2430 001d 00       		.byte	0
 2431 001e 03       		.uleb128 0x3
 2432 001f 16       		.uleb128 0x16
 2433 0020 00       		.byte	0
 2434 0021 03       		.uleb128 0x3
 2435 0022 0E       		.uleb128 0xe
 2436 0023 3A       		.uleb128 0x3a
 2437 0024 0B       		.uleb128 0xb
ARM GAS  /tmp/ccItyVqU.s 			page 44


 2438 0025 3B       		.uleb128 0x3b
 2439 0026 0B       		.uleb128 0xb
 2440 0027 39       		.uleb128 0x39
 2441 0028 0B       		.uleb128 0xb
 2442 0029 49       		.uleb128 0x49
 2443 002a 13       		.uleb128 0x13
 2444 002b 00       		.byte	0
 2445 002c 00       		.byte	0
 2446 002d 04       		.uleb128 0x4
 2447 002e 24       		.uleb128 0x24
 2448 002f 00       		.byte	0
 2449 0030 0B       		.uleb128 0xb
 2450 0031 0B       		.uleb128 0xb
 2451 0032 3E       		.uleb128 0x3e
 2452 0033 0B       		.uleb128 0xb
 2453 0034 03       		.uleb128 0x3
 2454 0035 0E       		.uleb128 0xe
 2455 0036 00       		.byte	0
 2456 0037 00       		.byte	0
 2457 0038 05       		.uleb128 0x5
 2458 0039 35       		.uleb128 0x35
 2459 003a 00       		.byte	0
 2460 003b 49       		.uleb128 0x49
 2461 003c 13       		.uleb128 0x13
 2462 003d 00       		.byte	0
 2463 003e 00       		.byte	0
 2464 003f 06       		.uleb128 0x6
 2465 0040 13       		.uleb128 0x13
 2466 0041 01       		.byte	0x1
 2467 0042 03       		.uleb128 0x3
 2468 0043 0E       		.uleb128 0xe
 2469 0044 0B       		.uleb128 0xb
 2470 0045 0B       		.uleb128 0xb
 2471 0046 3A       		.uleb128 0x3a
 2472 0047 0B       		.uleb128 0xb
 2473 0048 3B       		.uleb128 0x3b
 2474 0049 0B       		.uleb128 0xb
 2475 004a 39       		.uleb128 0x39
 2476 004b 0B       		.uleb128 0xb
 2477 004c 01       		.uleb128 0x1
 2478 004d 13       		.uleb128 0x13
 2479 004e 00       		.byte	0
 2480 004f 00       		.byte	0
 2481 0050 07       		.uleb128 0x7
 2482 0051 0D       		.uleb128 0xd
 2483 0052 00       		.byte	0
 2484 0053 03       		.uleb128 0x3
 2485 0054 0E       		.uleb128 0xe
 2486 0055 3A       		.uleb128 0x3a
 2487 0056 0B       		.uleb128 0xb
 2488 0057 3B       		.uleb128 0x3b
 2489 0058 0B       		.uleb128 0xb
 2490 0059 39       		.uleb128 0x39
 2491 005a 0B       		.uleb128 0xb
 2492 005b 49       		.uleb128 0x49
 2493 005c 13       		.uleb128 0x13
 2494 005d 38       		.uleb128 0x38
ARM GAS  /tmp/ccItyVqU.s 			page 45


 2495 005e 0B       		.uleb128 0xb
 2496 005f 00       		.byte	0
 2497 0060 00       		.byte	0
 2498 0061 08       		.uleb128 0x8
 2499 0062 0D       		.uleb128 0xd
 2500 0063 00       		.byte	0
 2501 0064 03       		.uleb128 0x3
 2502 0065 08       		.uleb128 0x8
 2503 0066 3A       		.uleb128 0x3a
 2504 0067 0B       		.uleb128 0xb
 2505 0068 3B       		.uleb128 0x3b
 2506 0069 0B       		.uleb128 0xb
 2507 006a 39       		.uleb128 0x39
 2508 006b 0B       		.uleb128 0xb
 2509 006c 49       		.uleb128 0x49
 2510 006d 13       		.uleb128 0x13
 2511 006e 38       		.uleb128 0x38
 2512 006f 0B       		.uleb128 0xb
 2513 0070 00       		.byte	0
 2514 0071 00       		.byte	0
 2515 0072 09       		.uleb128 0x9
 2516 0073 0D       		.uleb128 0xd
 2517 0074 00       		.byte	0
 2518 0075 03       		.uleb128 0x3
 2519 0076 08       		.uleb128 0x8
 2520 0077 3A       		.uleb128 0x3a
 2521 0078 0B       		.uleb128 0xb
 2522 0079 3B       		.uleb128 0x3b
 2523 007a 05       		.uleb128 0x5
 2524 007b 39       		.uleb128 0x39
 2525 007c 0B       		.uleb128 0xb
 2526 007d 49       		.uleb128 0x49
 2527 007e 13       		.uleb128 0x13
 2528 007f 38       		.uleb128 0x38
 2529 0080 0B       		.uleb128 0xb
 2530 0081 00       		.byte	0
 2531 0082 00       		.byte	0
 2532 0083 0A       		.uleb128 0xa
 2533 0084 0D       		.uleb128 0xd
 2534 0085 00       		.byte	0
 2535 0086 03       		.uleb128 0x3
 2536 0087 0E       		.uleb128 0xe
 2537 0088 3A       		.uleb128 0x3a
 2538 0089 0B       		.uleb128 0xb
 2539 008a 3B       		.uleb128 0x3b
 2540 008b 05       		.uleb128 0x5
 2541 008c 39       		.uleb128 0x39
 2542 008d 0B       		.uleb128 0xb
 2543 008e 49       		.uleb128 0x49
 2544 008f 13       		.uleb128 0x13
 2545 0090 38       		.uleb128 0x38
 2546 0091 0B       		.uleb128 0xb
 2547 0092 00       		.byte	0
 2548 0093 00       		.byte	0
 2549 0094 0B       		.uleb128 0xb
 2550 0095 0F       		.uleb128 0xf
 2551 0096 00       		.byte	0
ARM GAS  /tmp/ccItyVqU.s 			page 46


 2552 0097 0B       		.uleb128 0xb
 2553 0098 0B       		.uleb128 0xb
 2554 0099 49       		.uleb128 0x49
 2555 009a 13       		.uleb128 0x13
 2556 009b 00       		.byte	0
 2557 009c 00       		.byte	0
 2558 009d 0C       		.uleb128 0xc
 2559 009e 13       		.uleb128 0x13
 2560 009f 01       		.byte	0x1
 2561 00a0 03       		.uleb128 0x3
 2562 00a1 0E       		.uleb128 0xe
 2563 00a2 0B       		.uleb128 0xb
 2564 00a3 0B       		.uleb128 0xb
 2565 00a4 3A       		.uleb128 0x3a
 2566 00a5 0B       		.uleb128 0xb
 2567 00a6 3B       		.uleb128 0x3b
 2568 00a7 05       		.uleb128 0x5
 2569 00a8 39       		.uleb128 0x39
 2570 00a9 0B       		.uleb128 0xb
 2571 00aa 01       		.uleb128 0x1
 2572 00ab 13       		.uleb128 0x13
 2573 00ac 00       		.byte	0
 2574 00ad 00       		.byte	0
 2575 00ae 0D       		.uleb128 0xd
 2576 00af 15       		.uleb128 0x15
 2577 00b0 01       		.byte	0x1
 2578 00b1 27       		.uleb128 0x27
 2579 00b2 19       		.uleb128 0x19
 2580 00b3 01       		.uleb128 0x1
 2581 00b4 13       		.uleb128 0x13
 2582 00b5 00       		.byte	0
 2583 00b6 00       		.byte	0
 2584 00b7 0E       		.uleb128 0xe
 2585 00b8 05       		.uleb128 0x5
 2586 00b9 00       		.byte	0
 2587 00ba 49       		.uleb128 0x49
 2588 00bb 13       		.uleb128 0x13
 2589 00bc 00       		.byte	0
 2590 00bd 00       		.byte	0
 2591 00be 0F       		.uleb128 0xf
 2592 00bf 0F       		.uleb128 0xf
 2593 00c0 00       		.byte	0
 2594 00c1 0B       		.uleb128 0xb
 2595 00c2 0B       		.uleb128 0xb
 2596 00c3 00       		.byte	0
 2597 00c4 00       		.byte	0
 2598 00c5 10       		.uleb128 0x10
 2599 00c6 26       		.uleb128 0x26
 2600 00c7 00       		.byte	0
 2601 00c8 49       		.uleb128 0x49
 2602 00c9 13       		.uleb128 0x13
 2603 00ca 00       		.byte	0
 2604 00cb 00       		.byte	0
 2605 00cc 11       		.uleb128 0x11
 2606 00cd 01       		.uleb128 0x1
 2607 00ce 01       		.byte	0x1
 2608 00cf 49       		.uleb128 0x49
ARM GAS  /tmp/ccItyVqU.s 			page 47


 2609 00d0 13       		.uleb128 0x13
 2610 00d1 01       		.uleb128 0x1
 2611 00d2 13       		.uleb128 0x13
 2612 00d3 00       		.byte	0
 2613 00d4 00       		.byte	0
 2614 00d5 12       		.uleb128 0x12
 2615 00d6 21       		.uleb128 0x21
 2616 00d7 00       		.byte	0
 2617 00d8 49       		.uleb128 0x49
 2618 00d9 13       		.uleb128 0x13
 2619 00da 2F       		.uleb128 0x2f
 2620 00db 0B       		.uleb128 0xb
 2621 00dc 00       		.byte	0
 2622 00dd 00       		.byte	0
 2623 00de 13       		.uleb128 0x13
 2624 00df 13       		.uleb128 0x13
 2625 00e0 01       		.byte	0x1
 2626 00e1 0B       		.uleb128 0xb
 2627 00e2 0B       		.uleb128 0xb
 2628 00e3 3A       		.uleb128 0x3a
 2629 00e4 0B       		.uleb128 0xb
 2630 00e5 3B       		.uleb128 0x3b
 2631 00e6 05       		.uleb128 0x5
 2632 00e7 39       		.uleb128 0x39
 2633 00e8 0B       		.uleb128 0xb
 2634 00e9 01       		.uleb128 0x1
 2635 00ea 13       		.uleb128 0x13
 2636 00eb 00       		.byte	0
 2637 00ec 00       		.byte	0
 2638 00ed 14       		.uleb128 0x14
 2639 00ee 16       		.uleb128 0x16
 2640 00ef 00       		.byte	0
 2641 00f0 03       		.uleb128 0x3
 2642 00f1 0E       		.uleb128 0xe
 2643 00f2 3A       		.uleb128 0x3a
 2644 00f3 0B       		.uleb128 0xb
 2645 00f4 3B       		.uleb128 0x3b
 2646 00f5 05       		.uleb128 0x5
 2647 00f6 39       		.uleb128 0x39
 2648 00f7 0B       		.uleb128 0xb
 2649 00f8 49       		.uleb128 0x49
 2650 00f9 13       		.uleb128 0x13
 2651 00fa 00       		.byte	0
 2652 00fb 00       		.byte	0
 2653 00fc 15       		.uleb128 0x15
 2654 00fd 13       		.uleb128 0x13
 2655 00fe 01       		.byte	0x1
 2656 00ff 0B       		.uleb128 0xb
 2657 0100 0B       		.uleb128 0xb
 2658 0101 3A       		.uleb128 0x3a
 2659 0102 0B       		.uleb128 0xb
 2660 0103 3B       		.uleb128 0x3b
 2661 0104 0B       		.uleb128 0xb
 2662 0105 39       		.uleb128 0x39
 2663 0106 0B       		.uleb128 0xb
 2664 0107 01       		.uleb128 0x1
 2665 0108 13       		.uleb128 0x13
ARM GAS  /tmp/ccItyVqU.s 			page 48


 2666 0109 00       		.byte	0
 2667 010a 00       		.byte	0
 2668 010b 16       		.uleb128 0x16
 2669 010c 17       		.uleb128 0x17
 2670 010d 01       		.byte	0x1
 2671 010e 0B       		.uleb128 0xb
 2672 010f 0B       		.uleb128 0xb
 2673 0110 3A       		.uleb128 0x3a
 2674 0111 0B       		.uleb128 0xb
 2675 0112 3B       		.uleb128 0x3b
 2676 0113 0B       		.uleb128 0xb
 2677 0114 39       		.uleb128 0x39
 2678 0115 0B       		.uleb128 0xb
 2679 0116 01       		.uleb128 0x1
 2680 0117 13       		.uleb128 0x13
 2681 0118 00       		.byte	0
 2682 0119 00       		.byte	0
 2683 011a 17       		.uleb128 0x17
 2684 011b 0D       		.uleb128 0xd
 2685 011c 00       		.byte	0
 2686 011d 03       		.uleb128 0x3
 2687 011e 0E       		.uleb128 0xe
 2688 011f 3A       		.uleb128 0x3a
 2689 0120 0B       		.uleb128 0xb
 2690 0121 3B       		.uleb128 0x3b
 2691 0122 0B       		.uleb128 0xb
 2692 0123 39       		.uleb128 0x39
 2693 0124 0B       		.uleb128 0xb
 2694 0125 49       		.uleb128 0x49
 2695 0126 13       		.uleb128 0x13
 2696 0127 00       		.byte	0
 2697 0128 00       		.byte	0
 2698 0129 18       		.uleb128 0x18
 2699 012a 0D       		.uleb128 0xd
 2700 012b 00       		.byte	0
 2701 012c 03       		.uleb128 0x3
 2702 012d 0E       		.uleb128 0xe
 2703 012e 3A       		.uleb128 0x3a
 2704 012f 0B       		.uleb128 0xb
 2705 0130 3B       		.uleb128 0x3b
 2706 0131 05       		.uleb128 0x5
 2707 0132 39       		.uleb128 0x39
 2708 0133 0B       		.uleb128 0xb
 2709 0134 49       		.uleb128 0x49
 2710 0135 13       		.uleb128 0x13
 2711 0136 00       		.byte	0
 2712 0137 00       		.byte	0
 2713 0138 19       		.uleb128 0x19
 2714 0139 34       		.uleb128 0x34
 2715 013a 00       		.byte	0
 2716 013b 03       		.uleb128 0x3
 2717 013c 08       		.uleb128 0x8
 2718 013d 3A       		.uleb128 0x3a
 2719 013e 0B       		.uleb128 0xb
 2720 013f 3B       		.uleb128 0x3b
 2721 0140 05       		.uleb128 0x5
 2722 0141 39       		.uleb128 0x39
ARM GAS  /tmp/ccItyVqU.s 			page 49


 2723 0142 0B       		.uleb128 0xb
 2724 0143 49       		.uleb128 0x49
 2725 0144 13       		.uleb128 0x13
 2726 0145 3F       		.uleb128 0x3f
 2727 0146 19       		.uleb128 0x19
 2728 0147 3C       		.uleb128 0x3c
 2729 0148 19       		.uleb128 0x19
 2730 0149 00       		.byte	0
 2731 014a 00       		.byte	0
 2732 014b 1A       		.uleb128 0x1a
 2733 014c 15       		.uleb128 0x15
 2734 014d 00       		.byte	0
 2735 014e 27       		.uleb128 0x27
 2736 014f 19       		.uleb128 0x19
 2737 0150 00       		.byte	0
 2738 0151 00       		.byte	0
 2739 0152 1B       		.uleb128 0x1b
 2740 0153 34       		.uleb128 0x34
 2741 0154 00       		.byte	0
 2742 0155 03       		.uleb128 0x3
 2743 0156 0E       		.uleb128 0xe
 2744 0157 3A       		.uleb128 0x3a
 2745 0158 0B       		.uleb128 0xb
 2746 0159 3B       		.uleb128 0x3b
 2747 015a 0B       		.uleb128 0xb
 2748 015b 39       		.uleb128 0x39
 2749 015c 0B       		.uleb128 0xb
 2750 015d 49       		.uleb128 0x49
 2751 015e 13       		.uleb128 0x13
 2752 015f 3F       		.uleb128 0x3f
 2753 0160 19       		.uleb128 0x19
 2754 0161 3C       		.uleb128 0x3c
 2755 0162 19       		.uleb128 0x19
 2756 0163 00       		.byte	0
 2757 0164 00       		.byte	0
 2758 0165 1C       		.uleb128 0x1c
 2759 0166 21       		.uleb128 0x21
 2760 0167 00       		.byte	0
 2761 0168 00       		.byte	0
 2762 0169 00       		.byte	0
 2763 016a 1D       		.uleb128 0x1d
 2764 016b 34       		.uleb128 0x34
 2765 016c 00       		.byte	0
 2766 016d 03       		.uleb128 0x3
 2767 016e 08       		.uleb128 0x8
 2768 016f 3A       		.uleb128 0x3a
 2769 0170 0B       		.uleb128 0xb
 2770 0171 3B       		.uleb128 0x3b
 2771 0172 0B       		.uleb128 0xb
 2772 0173 39       		.uleb128 0x39
 2773 0174 0B       		.uleb128 0xb
 2774 0175 49       		.uleb128 0x49
 2775 0176 13       		.uleb128 0x13
 2776 0177 3F       		.uleb128 0x3f
 2777 0178 19       		.uleb128 0x19
 2778 0179 3C       		.uleb128 0x3c
 2779 017a 19       		.uleb128 0x19
ARM GAS  /tmp/ccItyVqU.s 			page 50


 2780 017b 00       		.byte	0
 2781 017c 00       		.byte	0
 2782 017d 1E       		.uleb128 0x1e
 2783 017e 34       		.uleb128 0x34
 2784 017f 00       		.byte	0
 2785 0180 03       		.uleb128 0x3
 2786 0181 08       		.uleb128 0x8
 2787 0182 3A       		.uleb128 0x3a
 2788 0183 0B       		.uleb128 0xb
 2789 0184 3B       		.uleb128 0x3b
 2790 0185 0B       		.uleb128 0xb
 2791 0186 39       		.uleb128 0x39
 2792 0187 0B       		.uleb128 0xb
 2793 0188 49       		.uleb128 0x49
 2794 0189 13       		.uleb128 0x13
 2795 018a 02       		.uleb128 0x2
 2796 018b 18       		.uleb128 0x18
 2797 018c 00       		.byte	0
 2798 018d 00       		.byte	0
 2799 018e 1F       		.uleb128 0x1f
 2800 018f 34       		.uleb128 0x34
 2801 0190 00       		.byte	0
 2802 0191 03       		.uleb128 0x3
 2803 0192 0E       		.uleb128 0xe
 2804 0193 3A       		.uleb128 0x3a
 2805 0194 0B       		.uleb128 0xb
 2806 0195 3B       		.uleb128 0x3b
 2807 0196 0B       		.uleb128 0xb
 2808 0197 39       		.uleb128 0x39
 2809 0198 0B       		.uleb128 0xb
 2810 0199 49       		.uleb128 0x49
 2811 019a 13       		.uleb128 0x13
 2812 019b 02       		.uleb128 0x2
 2813 019c 18       		.uleb128 0x18
 2814 019d 00       		.byte	0
 2815 019e 00       		.byte	0
 2816 019f 20       		.uleb128 0x20
 2817 01a0 34       		.uleb128 0x34
 2818 01a1 00       		.byte	0
 2819 01a2 47       		.uleb128 0x47
 2820 01a3 13       		.uleb128 0x13
 2821 01a4 3A       		.uleb128 0x3a
 2822 01a5 0B       		.uleb128 0xb
 2823 01a6 3B       		.uleb128 0x3b
 2824 01a7 0B       		.uleb128 0xb
 2825 01a8 39       		.uleb128 0x39
 2826 01a9 0B       		.uleb128 0xb
 2827 01aa 49       		.uleb128 0x49
 2828 01ab 13       		.uleb128 0x13
 2829 01ac 02       		.uleb128 0x2
 2830 01ad 18       		.uleb128 0x18
 2831 01ae 00       		.byte	0
 2832 01af 00       		.byte	0
 2833 01b0 21       		.uleb128 0x21
 2834 01b1 2E       		.uleb128 0x2e
 2835 01b2 01       		.byte	0x1
 2836 01b3 03       		.uleb128 0x3
ARM GAS  /tmp/ccItyVqU.s 			page 51


 2837 01b4 0E       		.uleb128 0xe
 2838 01b5 3A       		.uleb128 0x3a
 2839 01b6 0B       		.uleb128 0xb
 2840 01b7 3B       		.uleb128 0x3b
 2841 01b8 0B       		.uleb128 0xb
 2842 01b9 39       		.uleb128 0x39
 2843 01ba 0B       		.uleb128 0xb
 2844 01bb 27       		.uleb128 0x27
 2845 01bc 19       		.uleb128 0x19
 2846 01bd 11       		.uleb128 0x11
 2847 01be 01       		.uleb128 0x1
 2848 01bf 12       		.uleb128 0x12
 2849 01c0 06       		.uleb128 0x6
 2850 01c1 40       		.uleb128 0x40
 2851 01c2 18       		.uleb128 0x18
 2852 01c3 9742     		.uleb128 0x2117
 2853 01c5 19       		.uleb128 0x19
 2854 01c6 01       		.uleb128 0x1
 2855 01c7 13       		.uleb128 0x13
 2856 01c8 00       		.byte	0
 2857 01c9 00       		.byte	0
 2858 01ca 22       		.uleb128 0x22
 2859 01cb 34       		.uleb128 0x34
 2860 01cc 00       		.byte	0
 2861 01cd 03       		.uleb128 0x3
 2862 01ce 0E       		.uleb128 0xe
 2863 01cf 3A       		.uleb128 0x3a
 2864 01d0 0B       		.uleb128 0xb
 2865 01d1 3B       		.uleb128 0x3b
 2866 01d2 0B       		.uleb128 0xb
 2867 01d3 39       		.uleb128 0x39
 2868 01d4 0B       		.uleb128 0xb
 2869 01d5 49       		.uleb128 0x49
 2870 01d6 13       		.uleb128 0x13
 2871 01d7 02       		.uleb128 0x2
 2872 01d8 17       		.uleb128 0x17
 2873 01d9 B742     		.uleb128 0x2137
 2874 01db 17       		.uleb128 0x17
 2875 01dc 00       		.byte	0
 2876 01dd 00       		.byte	0
 2877 01de 23       		.uleb128 0x23
 2878 01df 34       		.uleb128 0x34
 2879 01e0 00       		.byte	0
 2880 01e1 03       		.uleb128 0x3
 2881 01e2 08       		.uleb128 0x8
 2882 01e3 3A       		.uleb128 0x3a
 2883 01e4 0B       		.uleb128 0xb
 2884 01e5 3B       		.uleb128 0x3b
 2885 01e6 0B       		.uleb128 0xb
 2886 01e7 39       		.uleb128 0x39
 2887 01e8 0B       		.uleb128 0xb
 2888 01e9 49       		.uleb128 0x49
 2889 01ea 13       		.uleb128 0x13
 2890 01eb 02       		.uleb128 0x2
 2891 01ec 17       		.uleb128 0x17
 2892 01ed B742     		.uleb128 0x2137
 2893 01ef 17       		.uleb128 0x17
ARM GAS  /tmp/ccItyVqU.s 			page 52


 2894 01f0 00       		.byte	0
 2895 01f1 00       		.byte	0
 2896 01f2 24       		.uleb128 0x24
 2897 01f3 1D       		.uleb128 0x1d
 2898 01f4 01       		.byte	0x1
 2899 01f5 31       		.uleb128 0x31
 2900 01f6 13       		.uleb128 0x13
 2901 01f7 52       		.uleb128 0x52
 2902 01f8 01       		.uleb128 0x1
 2903 01f9 B842     		.uleb128 0x2138
 2904 01fb 0B       		.uleb128 0xb
 2905 01fc 55       		.uleb128 0x55
 2906 01fd 17       		.uleb128 0x17
 2907 01fe 58       		.uleb128 0x58
 2908 01ff 0B       		.uleb128 0xb
 2909 0200 59       		.uleb128 0x59
 2910 0201 0B       		.uleb128 0xb
 2911 0202 57       		.uleb128 0x57
 2912 0203 0B       		.uleb128 0xb
 2913 0204 01       		.uleb128 0x1
 2914 0205 13       		.uleb128 0x13
 2915 0206 00       		.byte	0
 2916 0207 00       		.byte	0
 2917 0208 25       		.uleb128 0x25
 2918 0209 1D       		.uleb128 0x1d
 2919 020a 00       		.byte	0
 2920 020b 31       		.uleb128 0x31
 2921 020c 13       		.uleb128 0x13
 2922 020d 52       		.uleb128 0x52
 2923 020e 01       		.uleb128 0x1
 2924 020f B842     		.uleb128 0x2138
 2925 0211 0B       		.uleb128 0xb
 2926 0212 55       		.uleb128 0x55
 2927 0213 17       		.uleb128 0x17
 2928 0214 58       		.uleb128 0x58
 2929 0215 0B       		.uleb128 0xb
 2930 0216 59       		.uleb128 0x59
 2931 0217 05       		.uleb128 0x5
 2932 0218 57       		.uleb128 0x57
 2933 0219 0B       		.uleb128 0xb
 2934 021a 00       		.byte	0
 2935 021b 00       		.byte	0
 2936 021c 26       		.uleb128 0x26
 2937 021d 1D       		.uleb128 0x1d
 2938 021e 01       		.byte	0x1
 2939 021f 31       		.uleb128 0x31
 2940 0220 13       		.uleb128 0x13
 2941 0221 52       		.uleb128 0x52
 2942 0222 01       		.uleb128 0x1
 2943 0223 B842     		.uleb128 0x2138
 2944 0225 0B       		.uleb128 0xb
 2945 0226 55       		.uleb128 0x55
 2946 0227 17       		.uleb128 0x17
 2947 0228 58       		.uleb128 0x58
 2948 0229 0B       		.uleb128 0xb
 2949 022a 59       		.uleb128 0x59
 2950 022b 05       		.uleb128 0x5
ARM GAS  /tmp/ccItyVqU.s 			page 53


 2951 022c 57       		.uleb128 0x57
 2952 022d 0B       		.uleb128 0xb
 2953 022e 00       		.byte	0
 2954 022f 00       		.byte	0
 2955 0230 27       		.uleb128 0x27
 2956 0231 05       		.uleb128 0x5
 2957 0232 00       		.byte	0
 2958 0233 31       		.uleb128 0x31
 2959 0234 13       		.uleb128 0x13
 2960 0235 02       		.uleb128 0x2
 2961 0236 17       		.uleb128 0x17
 2962 0237 B742     		.uleb128 0x2137
 2963 0239 17       		.uleb128 0x17
 2964 023a 00       		.byte	0
 2965 023b 00       		.byte	0
 2966 023c 28       		.uleb128 0x28
 2967 023d 0B       		.uleb128 0xb
 2968 023e 01       		.byte	0x1
 2969 023f 55       		.uleb128 0x55
 2970 0240 17       		.uleb128 0x17
 2971 0241 00       		.byte	0
 2972 0242 00       		.byte	0
 2973 0243 29       		.uleb128 0x29
 2974 0244 1D       		.uleb128 0x1d
 2975 0245 01       		.byte	0x1
 2976 0246 31       		.uleb128 0x31
 2977 0247 13       		.uleb128 0x13
 2978 0248 52       		.uleb128 0x52
 2979 0249 01       		.uleb128 0x1
 2980 024a B842     		.uleb128 0x2138
 2981 024c 0B       		.uleb128 0xb
 2982 024d 11       		.uleb128 0x11
 2983 024e 01       		.uleb128 0x1
 2984 024f 12       		.uleb128 0x12
 2985 0250 06       		.uleb128 0x6
 2986 0251 58       		.uleb128 0x58
 2987 0252 0B       		.uleb128 0xb
 2988 0253 59       		.uleb128 0x59
 2989 0254 05       		.uleb128 0x5
 2990 0255 57       		.uleb128 0x57
 2991 0256 0B       		.uleb128 0xb
 2992 0257 00       		.byte	0
 2993 0258 00       		.byte	0
 2994 0259 2A       		.uleb128 0x2a
 2995 025a 1D       		.uleb128 0x1d
 2996 025b 00       		.byte	0
 2997 025c 31       		.uleb128 0x31
 2998 025d 13       		.uleb128 0x13
 2999 025e 52       		.uleb128 0x52
 3000 025f 01       		.uleb128 0x1
 3001 0260 B842     		.uleb128 0x2138
 3002 0262 0B       		.uleb128 0xb
 3003 0263 55       		.uleb128 0x55
 3004 0264 17       		.uleb128 0x17
 3005 0265 58       		.uleb128 0x58
 3006 0266 0B       		.uleb128 0xb
 3007 0267 59       		.uleb128 0x59
ARM GAS  /tmp/ccItyVqU.s 			page 54


 3008 0268 0B       		.uleb128 0xb
 3009 0269 57       		.uleb128 0x57
 3010 026a 0B       		.uleb128 0xb
 3011 026b 00       		.byte	0
 3012 026c 00       		.byte	0
 3013 026d 2B       		.uleb128 0x2b
 3014 026e 898201   		.uleb128 0x4109
 3015 0271 01       		.byte	0x1
 3016 0272 11       		.uleb128 0x11
 3017 0273 01       		.uleb128 0x1
 3018 0274 31       		.uleb128 0x31
 3019 0275 13       		.uleb128 0x13
 3020 0276 01       		.uleb128 0x1
 3021 0277 13       		.uleb128 0x13
 3022 0278 00       		.byte	0
 3023 0279 00       		.byte	0
 3024 027a 2C       		.uleb128 0x2c
 3025 027b 8A8201   		.uleb128 0x410a
 3026 027e 00       		.byte	0
 3027 027f 02       		.uleb128 0x2
 3028 0280 18       		.uleb128 0x18
 3029 0281 9142     		.uleb128 0x2111
 3030 0283 18       		.uleb128 0x18
 3031 0284 00       		.byte	0
 3032 0285 00       		.byte	0
 3033 0286 2D       		.uleb128 0x2d
 3034 0287 898201   		.uleb128 0x4109
 3035 028a 00       		.byte	0
 3036 028b 11       		.uleb128 0x11
 3037 028c 01       		.uleb128 0x1
 3038 028d 31       		.uleb128 0x31
 3039 028e 13       		.uleb128 0x13
 3040 028f 00       		.byte	0
 3041 0290 00       		.byte	0
 3042 0291 2E       		.uleb128 0x2e
 3043 0292 898201   		.uleb128 0x4109
 3044 0295 01       		.byte	0x1
 3045 0296 11       		.uleb128 0x11
 3046 0297 01       		.uleb128 0x1
 3047 0298 9542     		.uleb128 0x2115
 3048 029a 19       		.uleb128 0x19
 3049 029b 31       		.uleb128 0x31
 3050 029c 13       		.uleb128 0x13
 3051 029d 00       		.byte	0
 3052 029e 00       		.byte	0
 3053 029f 2F       		.uleb128 0x2f
 3054 02a0 2E       		.uleb128 0x2e
 3055 02a1 00       		.byte	0
 3056 02a2 03       		.uleb128 0x3
 3057 02a3 0E       		.uleb128 0xe
 3058 02a4 3A       		.uleb128 0x3a
 3059 02a5 0B       		.uleb128 0xb
 3060 02a6 3B       		.uleb128 0x3b
 3061 02a7 0B       		.uleb128 0xb
 3062 02a8 39       		.uleb128 0x39
 3063 02a9 0B       		.uleb128 0xb
 3064 02aa 27       		.uleb128 0x27
ARM GAS  /tmp/ccItyVqU.s 			page 55


 3065 02ab 19       		.uleb128 0x19
 3066 02ac 11       		.uleb128 0x11
 3067 02ad 01       		.uleb128 0x1
 3068 02ae 12       		.uleb128 0x12
 3069 02af 06       		.uleb128 0x6
 3070 02b0 40       		.uleb128 0x40
 3071 02b1 18       		.uleb128 0x18
 3072 02b2 9742     		.uleb128 0x2117
 3073 02b4 19       		.uleb128 0x19
 3074 02b5 00       		.byte	0
 3075 02b6 00       		.byte	0
 3076 02b7 30       		.uleb128 0x30
 3077 02b8 05       		.uleb128 0x5
 3078 02b9 00       		.byte	0
 3079 02ba 03       		.uleb128 0x3
 3080 02bb 08       		.uleb128 0x8
 3081 02bc 3A       		.uleb128 0x3a
 3082 02bd 0B       		.uleb128 0xb
 3083 02be 3B       		.uleb128 0x3b
 3084 02bf 0B       		.uleb128 0xb
 3085 02c0 39       		.uleb128 0x39
 3086 02c1 0B       		.uleb128 0xb
 3087 02c2 49       		.uleb128 0x49
 3088 02c3 13       		.uleb128 0x13
 3089 02c4 02       		.uleb128 0x2
 3090 02c5 17       		.uleb128 0x17
 3091 02c6 B742     		.uleb128 0x2137
 3092 02c8 17       		.uleb128 0x17
 3093 02c9 00       		.byte	0
 3094 02ca 00       		.byte	0
 3095 02cb 31       		.uleb128 0x31
 3096 02cc 898201   		.uleb128 0x4109
 3097 02cf 00       		.byte	0
 3098 02d0 11       		.uleb128 0x11
 3099 02d1 01       		.uleb128 0x1
 3100 02d2 9542     		.uleb128 0x2115
 3101 02d4 19       		.uleb128 0x19
 3102 02d5 31       		.uleb128 0x31
 3103 02d6 13       		.uleb128 0x13
 3104 02d7 00       		.byte	0
 3105 02d8 00       		.byte	0
 3106 02d9 32       		.uleb128 0x32
 3107 02da 2E       		.uleb128 0x2e
 3108 02db 00       		.byte	0
 3109 02dc 03       		.uleb128 0x3
 3110 02dd 0E       		.uleb128 0xe
 3111 02de 3A       		.uleb128 0x3a
 3112 02df 0B       		.uleb128 0xb
 3113 02e0 3B       		.uleb128 0x3b
 3114 02e1 05       		.uleb128 0x5
 3115 02e2 39       		.uleb128 0x39
 3116 02e3 0B       		.uleb128 0xb
 3117 02e4 27       		.uleb128 0x27
 3118 02e5 19       		.uleb128 0x19
 3119 02e6 49       		.uleb128 0x49
 3120 02e7 13       		.uleb128 0x13
 3121 02e8 20       		.uleb128 0x20
ARM GAS  /tmp/ccItyVqU.s 			page 56


 3122 02e9 0B       		.uleb128 0xb
 3123 02ea 00       		.byte	0
 3124 02eb 00       		.byte	0
 3125 02ec 33       		.uleb128 0x33
 3126 02ed 2E       		.uleb128 0x2e
 3127 02ee 01       		.byte	0x1
 3128 02ef 03       		.uleb128 0x3
 3129 02f0 0E       		.uleb128 0xe
 3130 02f1 3A       		.uleb128 0x3a
 3131 02f2 0B       		.uleb128 0xb
 3132 02f3 3B       		.uleb128 0x3b
 3133 02f4 05       		.uleb128 0x5
 3134 02f5 39       		.uleb128 0x39
 3135 02f6 0B       		.uleb128 0xb
 3136 02f7 27       		.uleb128 0x27
 3137 02f8 19       		.uleb128 0x19
 3138 02f9 20       		.uleb128 0x20
 3139 02fa 0B       		.uleb128 0xb
 3140 02fb 01       		.uleb128 0x1
 3141 02fc 13       		.uleb128 0x13
 3142 02fd 00       		.byte	0
 3143 02fe 00       		.byte	0
 3144 02ff 34       		.uleb128 0x34
 3145 0300 34       		.uleb128 0x34
 3146 0301 00       		.byte	0
 3147 0302 03       		.uleb128 0x3
 3148 0303 0E       		.uleb128 0xe
 3149 0304 49       		.uleb128 0x49
 3150 0305 13       		.uleb128 0x13
 3151 0306 34       		.uleb128 0x34
 3152 0307 19       		.uleb128 0x19
 3153 0308 00       		.byte	0
 3154 0309 00       		.byte	0
 3155 030a 35       		.uleb128 0x35
 3156 030b 2E       		.uleb128 0x2e
 3157 030c 00       		.byte	0
 3158 030d 03       		.uleb128 0x3
 3159 030e 0E       		.uleb128 0xe
 3160 030f 3A       		.uleb128 0x3a
 3161 0310 0B       		.uleb128 0xb
 3162 0311 3B       		.uleb128 0x3b
 3163 0312 05       		.uleb128 0x5
 3164 0313 39       		.uleb128 0x39
 3165 0314 0B       		.uleb128 0xb
 3166 0315 27       		.uleb128 0x27
 3167 0316 19       		.uleb128 0x19
 3168 0317 20       		.uleb128 0x20
 3169 0318 0B       		.uleb128 0xb
 3170 0319 00       		.byte	0
 3171 031a 00       		.byte	0
 3172 031b 36       		.uleb128 0x36
 3173 031c 2E       		.uleb128 0x2e
 3174 031d 00       		.byte	0
 3175 031e 03       		.uleb128 0x3
 3176 031f 0E       		.uleb128 0xe
 3177 0320 3A       		.uleb128 0x3a
 3178 0321 0B       		.uleb128 0xb
ARM GAS  /tmp/ccItyVqU.s 			page 57


 3179 0322 3B       		.uleb128 0x3b
 3180 0323 0B       		.uleb128 0xb
 3181 0324 39       		.uleb128 0x39
 3182 0325 0B       		.uleb128 0xb
 3183 0326 27       		.uleb128 0x27
 3184 0327 19       		.uleb128 0x19
 3185 0328 49       		.uleb128 0x49
 3186 0329 13       		.uleb128 0x13
 3187 032a 20       		.uleb128 0x20
 3188 032b 0B       		.uleb128 0xb
 3189 032c 00       		.byte	0
 3190 032d 00       		.byte	0
 3191 032e 37       		.uleb128 0x37
 3192 032f 05       		.uleb128 0x5
 3193 0330 00       		.byte	0
 3194 0331 03       		.uleb128 0x3
 3195 0332 0E       		.uleb128 0xe
 3196 0333 3A       		.uleb128 0x3a
 3197 0334 0B       		.uleb128 0xb
 3198 0335 3B       		.uleb128 0x3b
 3199 0336 05       		.uleb128 0x5
 3200 0337 39       		.uleb128 0x39
 3201 0338 0B       		.uleb128 0xb
 3202 0339 49       		.uleb128 0x49
 3203 033a 13       		.uleb128 0x13
 3204 033b 00       		.byte	0
 3205 033c 00       		.byte	0
 3206 033d 38       		.uleb128 0x38
 3207 033e 2E       		.uleb128 0x2e
 3208 033f 00       		.byte	0
 3209 0340 3F       		.uleb128 0x3f
 3210 0341 19       		.uleb128 0x19
 3211 0342 3C       		.uleb128 0x3c
 3212 0343 19       		.uleb128 0x19
 3213 0344 6E       		.uleb128 0x6e
 3214 0345 0E       		.uleb128 0xe
 3215 0346 03       		.uleb128 0x3
 3216 0347 0E       		.uleb128 0xe
 3217 0348 3A       		.uleb128 0x3a
 3218 0349 0B       		.uleb128 0xb
 3219 034a 3B       		.uleb128 0x3b
 3220 034b 0B       		.uleb128 0xb
 3221 034c 39       		.uleb128 0x39
 3222 034d 0B       		.uleb128 0xb
 3223 034e 00       		.byte	0
 3224 034f 00       		.byte	0
 3225 0350 39       		.uleb128 0x39
 3226 0351 2E       		.uleb128 0x2e
 3227 0352 00       		.byte	0
 3228 0353 3F       		.uleb128 0x3f
 3229 0354 19       		.uleb128 0x19
 3230 0355 3C       		.uleb128 0x3c
 3231 0356 19       		.uleb128 0x19
 3232 0357 6E       		.uleb128 0x6e
 3233 0358 0E       		.uleb128 0xe
 3234 0359 03       		.uleb128 0x3
 3235 035a 0E       		.uleb128 0xe
ARM GAS  /tmp/ccItyVqU.s 			page 58


 3236 035b 3A       		.uleb128 0x3a
 3237 035c 0B       		.uleb128 0xb
 3238 035d 3B       		.uleb128 0x3b
 3239 035e 05       		.uleb128 0x5
 3240 035f 39       		.uleb128 0x39
 3241 0360 0B       		.uleb128 0xb
 3242 0361 00       		.byte	0
 3243 0362 00       		.byte	0
 3244 0363 00       		.byte	0
 3245              		.section	.debug_loc,"",%progbits
 3246              	.Ldebug_loc0:
 3247              	.LVUS0:
 3248 0000 00       		.uleb128 .LVU83
 3249 0001 00       		.uleb128 .LVU106
 3250              	.LLST0:
 3251 0002 80000000 		.4byte	.LVL15
 3252 0006 C2000000 		.4byte	.LVL22
 3253 000a 0100     		.2byte	0x1
 3254 000c 57       		.byte	0x57
 3255 000d 00000000 		.4byte	0
 3256 0011 00000000 		.4byte	0
 3257              	.LVUS1:
 3258 0015 00       		.uleb128 .LVU41
 3259 0016 00       		.uleb128 .LVU55
 3260 0017 00       		.uleb128 .LVU55
 3261 0018 00       		.uleb128 .LVU56
 3262 0019 00       		.uleb128 .LVU57
 3263 001a 00       		.uleb128 .LVU59
 3264 001b 00       		.uleb128 .LVU86
 3265 001c 00       		.uleb128 .LVU100
 3266 001d 00       		.uleb128 .LVU100
 3267 001e 00       		.uleb128 .LVU106
 3268              	.LLST1:
 3269 001f 3E000000 		.4byte	.LVL4
 3270 0023 44000000 		.4byte	.LVL6
 3271 0027 0100     		.2byte	0x1
 3272 0029 50       		.byte	0x50
 3273 002a 44000000 		.4byte	.LVL6
 3274 002e 52000000 		.4byte	.LVL8
 3275 0032 0100     		.2byte	0x1
 3276 0034 54       		.byte	0x54
 3277 0035 56000000 		.4byte	.LVL9
 3278 0039 64000000 		.4byte	.LVL11
 3279 003d 0100     		.2byte	0x1
 3280 003f 54       		.byte	0x54
 3281 0040 86000000 		.4byte	.LVL17
 3282 0044 90000000 		.4byte	.LVL19
 3283 0048 0100     		.2byte	0x1
 3284 004a 50       		.byte	0x50
 3285 004b 90000000 		.4byte	.LVL19
 3286 004f C2000000 		.4byte	.LVL22
 3287 0053 0100     		.2byte	0x1
 3288 0055 56       		.byte	0x56
 3289 0056 00000000 		.4byte	0
 3290 005a 00000000 		.4byte	0
 3291              	.LVUS2:
 3292 005e 05       		.uleb128 .LVU32
ARM GAS  /tmp/ccItyVqU.s 			page 59


 3293 005f 00       		.uleb128 .LVU34
 3294              	.LLST2:
 3295 0060 2A000000 		.4byte	.LVL1
 3296 0064 2E000000 		.4byte	.LVL2
 3297 0068 0300     		.2byte	0x3
 3298 006a 08       		.byte	0x8
 3299 006b 20       		.byte	0x20
 3300 006c 9F       		.byte	0x9f
 3301 006d 00000000 		.4byte	0
 3302 0071 00000000 		.4byte	0
 3303              	.LVUS3:
 3304 0075 0A       		.uleb128 .LVU51
 3305 0076 00       		.uleb128 .LVU53
 3306              	.LLST3:
 3307 0077 3E000000 		.4byte	.LVL4
 3308 007b 42000000 		.4byte	.LVL5
 3309 007f 0200     		.2byte	0x2
 3310 0081 30       		.byte	0x30
 3311 0082 9F       		.byte	0x9f
 3312 0083 00000000 		.4byte	0
 3313 0087 00000000 		.4byte	0
 3314              	.LVUS4:
 3315 008b 05       		.uleb128 .LVU68
 3316 008c 00       		.uleb128 .LVU70
 3317              	.LLST4:
 3318 008d 70000000 		.4byte	.LVL13
 3319 0091 74000000 		.4byte	.LVL14
 3320 0095 0300     		.2byte	0x3
 3321 0097 08       		.byte	0x8
 3322 0098 20       		.byte	0x20
 3323 0099 9F       		.byte	0x9f
 3324 009a 00000000 		.4byte	0
 3325 009e 00000000 		.4byte	0
 3326              	.LVUS5:
 3327 00a2 0A       		.uleb128 .LVU96
 3328 00a3 00       		.uleb128 .LVU98
 3329              	.LLST5:
 3330 00a4 86000000 		.4byte	.LVL17
 3331 00a8 8A000000 		.4byte	.LVL18
 3332 00ac 0200     		.2byte	0x2
 3333 00ae 30       		.byte	0x30
 3334 00af 9F       		.byte	0x9f
 3335 00b0 00000000 		.4byte	0
 3336 00b4 00000000 		.4byte	0
 3337              	.LVUS6:
 3338 00b8 00       		.uleb128 0
 3339 00b9 00       		.uleb128 .LVU123
 3340 00ba 00       		.uleb128 .LVU123
 3341 00bb 00       		.uleb128 .LVU140
 3342 00bc 00       		.uleb128 .LVU140
 3343 00bd 00       		.uleb128 0
 3344              	.LLST6:
 3345 00be 00000000 		.4byte	.LVL24
 3346 00c2 0C000000 		.4byte	.LVL26
 3347 00c6 0100     		.2byte	0x1
 3348 00c8 50       		.byte	0x50
 3349 00c9 0C000000 		.4byte	.LVL26
ARM GAS  /tmp/ccItyVqU.s 			page 60


 3350 00cd 22000000 		.4byte	.LVL30
 3351 00d1 0100     		.2byte	0x1
 3352 00d3 54       		.byte	0x54
 3353 00d4 22000000 		.4byte	.LVL30
 3354 00d8 2C000000 		.4byte	.LFE277
 3355 00dc 0400     		.2byte	0x4
 3356 00de F3       		.byte	0xf3
 3357 00df 01       		.uleb128 0x1
 3358 00e0 50       		.byte	0x50
 3359 00e1 9F       		.byte	0x9f
 3360 00e2 00000000 		.4byte	0
 3361 00e6 00000000 		.4byte	0
 3362              	.LVUS7:
 3363 00ea 06       		.uleb128 .LVU113
 3364 00eb 00       		.uleb128 .LVU119
 3365              	.LLST7:
 3366 00ec 00000000 		.4byte	.LVL24
 3367 00f0 0A000000 		.4byte	.LVL25
 3368 00f4 0300     		.2byte	0x3
 3369 00f6 08       		.byte	0x8
 3370 00f7 20       		.byte	0x20
 3371 00f8 9F       		.byte	0x9f
 3372 00f9 00000000 		.4byte	0
 3373 00fd 00000000 		.4byte	0
 3374              	.LVUS8:
 3375 0101 0A       		.uleb128 .LVU135
 3376 0102 00       		.uleb128 .LVU137
 3377              	.LLST8:
 3378 0103 16000000 		.4byte	.LVL28
 3379 0107 1C000000 		.4byte	.LVL29
 3380 010b 0200     		.2byte	0x2
 3381 010d 30       		.byte	0x30
 3382 010e 9F       		.byte	0x9f
 3383 010f 00000000 		.4byte	0
 3384 0113 00000000 		.4byte	0
 3385              		.section	.debug_aranges,"",%progbits
 3386 0000 2C000000 		.4byte	0x2c
 3387 0004 0200     		.2byte	0x2
 3388 0006 00000000 		.4byte	.Ldebug_info0
 3389 000a 04       		.byte	0x4
 3390 000b 00       		.byte	0
 3391 000c 0000     		.2byte	0
 3392 000e 0000     		.2byte	0
 3393 0010 00000000 		.4byte	.LFB278
 3394 0014 0C000000 		.4byte	.LFE278-.LFB278
 3395 0018 00000000 		.4byte	.LFB279
 3396 001c F0000000 		.4byte	.LFE279-.LFB279
 3397 0020 00000000 		.4byte	.LFB277
 3398 0024 2C000000 		.4byte	.LFE277-.LFB277
 3399 0028 00000000 		.4byte	0
 3400 002c 00000000 		.4byte	0
 3401              		.section	.debug_ranges,"",%progbits
 3402              	.Ldebug_ranges0:
 3403 0000 02000000 		.4byte	.LBB61
 3404 0004 04000000 		.4byte	.LBE61
 3405 0008 06000000 		.4byte	.LBB69
 3406 000c 08000000 		.4byte	.LBE69
ARM GAS  /tmp/ccItyVqU.s 			page 61


 3407 0010 1C000000 		.4byte	.LBB70
 3408 0014 1C000000 		.4byte	.LBE70
 3409 0018 00000000 		.4byte	0
 3410 001c 00000000 		.4byte	0
 3411 0020 02000000 		.4byte	.LBB63
 3412 0024 04000000 		.4byte	.LBE63
 3413 0028 1C000000 		.4byte	.LBB66
 3414 002c 1C000000 		.4byte	.LBE66
 3415 0030 00000000 		.4byte	0
 3416 0034 00000000 		.4byte	0
 3417 0038 26000000 		.4byte	.LBB71
 3418 003c 28000000 		.4byte	.LBE71
 3419 0040 2A000000 		.4byte	.LBB79
 3420 0044 2A000000 		.4byte	.LBE79
 3421 0048 2A000000 		.4byte	.LBB80
 3422 004c 2A000000 		.4byte	.LBE80
 3423 0050 2A000000 		.4byte	.LBB81
 3424 0054 2E000000 		.4byte	.LBE81
 3425 0058 00000000 		.4byte	0
 3426 005c 00000000 		.4byte	0
 3427 0060 26000000 		.4byte	.LBB72
 3428 0064 28000000 		.4byte	.LBE72
 3429 0068 2A000000 		.4byte	.LBB77
 3430 006c 2A000000 		.4byte	.LBE77
 3431 0070 2A000000 		.4byte	.LBB78
 3432 0074 2E000000 		.4byte	.LBE78
 3433 0078 00000000 		.4byte	0
 3434 007c 00000000 		.4byte	0
 3435 0080 26000000 		.4byte	.LBB73
 3436 0084 28000000 		.4byte	.LBE73
 3437 0088 2A000000 		.4byte	.LBB76
 3438 008c 2E000000 		.4byte	.LBE76
 3439 0090 00000000 		.4byte	0
 3440 0094 00000000 		.4byte	0
 3441 0098 3A000000 		.4byte	.LBB82
 3442 009c 3C000000 		.4byte	.LBE82
 3443 00a0 3E000000 		.4byte	.LBB93
 3444 00a4 3E000000 		.4byte	.LBE93
 3445 00a8 3E000000 		.4byte	.LBB94
 3446 00ac 42000000 		.4byte	.LBE94
 3447 00b0 00000000 		.4byte	0
 3448 00b4 00000000 		.4byte	0
 3449 00b8 3A000000 		.4byte	.LBB85
 3450 00bc 3C000000 		.4byte	.LBE85
 3451 00c0 3E000000 		.4byte	.LBB88
 3452 00c4 42000000 		.4byte	.LBE88
 3453 00c8 00000000 		.4byte	0
 3454 00cc 00000000 		.4byte	0
 3455 00d0 70000000 		.4byte	.LBB95
 3456 00d4 70000000 		.4byte	.LBE95
 3457 00d8 70000000 		.4byte	.LBB100
 3458 00dc 70000000 		.4byte	.LBE100
 3459 00e0 70000000 		.4byte	.LBB101
 3460 00e4 74000000 		.4byte	.LBE101
 3461 00e8 00000000 		.4byte	0
 3462 00ec 00000000 		.4byte	0
 3463 00f0 74000000 		.4byte	.LBB102
ARM GAS  /tmp/ccItyVqU.s 			page 62


 3464 00f4 74000000 		.4byte	.LBE102
 3465 00f8 74000000 		.4byte	.LBB110
 3466 00fc 74000000 		.4byte	.LBE110
 3467 0100 74000000 		.4byte	.LBB111
 3468 0104 78000000 		.4byte	.LBE111
 3469 0108 7E000000 		.4byte	.LBB112
 3470 010c 80000000 		.4byte	.LBE112
 3471 0110 00000000 		.4byte	0
 3472 0114 00000000 		.4byte	0
 3473 0118 86000000 		.4byte	.LBB113
 3474 011c 86000000 		.4byte	.LBE113
 3475 0120 86000000 		.4byte	.LBB120
 3476 0124 8A000000 		.4byte	.LBE120
 3477 0128 00000000 		.4byte	0
 3478 012c 00000000 		.4byte	0
 3479 0130 00000000 		.4byte	.LBB121
 3480 0134 00000000 		.4byte	.LBE121
 3481 0138 00000000 		.4byte	.LBB132
 3482 013c 00000000 		.4byte	.LBE132
 3483 0140 00000000 		.4byte	.LBB133
 3484 0144 00000000 		.4byte	.LBE133
 3485 0148 02000000 		.4byte	.LBB134
 3486 014c 04000000 		.4byte	.LBE134
 3487 0150 06000000 		.4byte	.LBB135
 3488 0154 0A000000 		.4byte	.LBE135
 3489 0158 00000000 		.4byte	0
 3490 015c 00000000 		.4byte	0
 3491 0160 16000000 		.4byte	.LBB136
 3492 0164 16000000 		.4byte	.LBE136
 3493 0168 16000000 		.4byte	.LBB143
 3494 016c 1C000000 		.4byte	.LBE143
 3495 0170 00000000 		.4byte	0
 3496 0174 00000000 		.4byte	0
 3497 0178 00000000 		.4byte	.LFB278
 3498 017c 0C000000 		.4byte	.LFE278
 3499 0180 00000000 		.4byte	.LFB279
 3500 0184 F0000000 		.4byte	.LFE279
 3501 0188 00000000 		.4byte	.LFB277
 3502 018c 2C000000 		.4byte	.LFE277
 3503 0190 00000000 		.4byte	0
 3504 0194 00000000 		.4byte	0
 3505              		.section	.debug_line,"",%progbits
 3506              	.Ldebug_line0:
 3507 0000 BE050000 		.section	.debug_str,"MS",%progbits,1
 3507      03004702 
 3507      00000201 
 3507      FB0E0D00 
 3507      01010101 
 3508              	.LASF128:
 3509 0000 2F686F6D 		.ascii	"/home/tfateba/nlab/ip/trunk/demos/STM32/RT-STM32F40"
 3509      652F7466 
 3509      61746562 
 3509      612F6E6C 
 3509      61622F69 
 3510 0033 372D4449 		.ascii	"7-DISCOVERY-G++\000"
 3510      53434F56 
 3510      4552592D 
ARM GAS  /tmp/ccItyVqU.s 			page 63


 3510      472B2B00 
 3511              	.LASF48:
 3512 0043 72656164 		.ascii	"ready_list_t\000"
 3512      795F6C69 
 3512      73745F74 
 3512      00
 3513              	.LASF72:
 3514 0050 44494552 		.ascii	"DIER\000"
 3514      00
 3515              	.LASF5:
 3516 0055 73697A65 		.ascii	"size_t\000"
 3516      5F7400
 3517              	.LASF44:
 3518 005c 6E657874 		.ascii	"next\000"
 3518      00
 3519              	.LASF54:
 3520 0061 64656C74 		.ascii	"delta\000"
 3520      6100
 3521              	.LASF83:
 3522 0067 7264796D 		.ascii	"rdymsg\000"
 3522      736700
 3523              	.LASF13:
 3524 006e 75696E74 		.ascii	"uint64_t\000"
 3524      36345F74 
 3524      00
 3525              	.LASF47:
 3526 0077 70726576 		.ascii	"prev\000"
 3526      00
 3527              	.LASF70:
 3528 007c 706F7274 		.ascii	"port_intctx\000"
 3528      5F696E74 
 3528      63747800 
 3529              	.LASF59:
 3530 0088 73797374 		.ascii	"system_debug_t\000"
 3530      656D5F64 
 3530      65627567 
 3530      5F7400
 3531              	.LASF115:
 3532 0097 706F7274 		.ascii	"port_lock\000"
 3532      5F6C6F63 
 3532      6B00
 3533              	.LASF14:
 3534 00a1 6C6F6E67 		.ascii	"long long unsigned int\000"
 3534      206C6F6E 
 3534      6720756E 
 3534      7369676E 
 3534      65642069 
 3535              	.LASF84:
 3536 00b8 65786974 		.ascii	"exitcode\000"
 3536      636F6465 
 3536      00
 3537              	.LASF66:
 3538 00c1 6D61696E 		.ascii	"mainthread\000"
 3538      74687265 
 3538      616400
 3539              	.LASF87:
 3540 00cc 73656E74 		.ascii	"sentmsg\000"
ARM GAS  /tmp/ccItyVqU.s 			page 64


 3540      6D736700 
 3541              	.LASF56:
 3542 00d4 76697274 		.ascii	"virtual_timers_list_t\000"
 3542      75616C5F 
 3542      74696D65 
 3542      72735F6C 
 3542      6973745F 
 3543              	.LASF76:
 3544 00ea 42445452 		.ascii	"BDTR\000"
 3544      00
 3545              	.LASF46:
 3546 00ef 63685F74 		.ascii	"ch_threads_queue\000"
 3546      68726561 
 3546      64735F71 
 3546      75657565 
 3546      00
 3547              	.LASF73:
 3548 0100 43434D52 		.ascii	"CCMR1\000"
 3548      3100
 3549              	.LASF74:
 3550 0106 43434D52 		.ascii	"CCMR2\000"
 3550      3200
 3551              	.LASF78:
 3552 010c 43434D52 		.ascii	"CCMR3\000"
 3552      3300
 3553              	.LASF3:
 3554 0112 7369676E 		.ascii	"signed char\000"
 3554      65642063 
 3554      68617200 
 3555              	.LASF125:
 3556 011e 74657374 		.ascii	"test_emit_token\000"
 3556      5F656D69 
 3556      745F746F 
 3556      6B656E00 
 3557              	.LASF65:
 3558 012e 76746C69 		.ascii	"vtlist\000"
 3558      737400
 3559              	.LASF114:
 3560 0135 706F7274 		.ascii	"port_unlock\000"
 3560      5F756E6C 
 3560      6F636B00 
 3561              	.LASF35:
 3562 0141 6D736771 		.ascii	"msgqueue\000"
 3562      75657565 
 3562      00
 3563              	.LASF31:
 3564 014a 73746174 		.ascii	"state\000"
 3564      6500
 3565              	.LASF7:
 3566 0150 6C6F6E67 		.ascii	"long int\000"
 3566      20696E74 
 3566      00
 3567              	.LASF17:
 3568 0159 74737461 		.ascii	"tstate_t\000"
 3568      74655F74 
 3568      00
 3569              	.LASF122:
ARM GAS  /tmp/ccItyVqU.s 			page 65


 3570 0162 5F746573 		.ascii	"_test_assert_time_window\000"
 3570      745F6173 
 3570      73657274 
 3570      5F74696D 
 3570      655F7769 
 3571              	.LASF55:
 3572 017b 66756E63 		.ascii	"func\000"
 3572      00
 3573              	.LASF75:
 3574 0180 43434552 		.ascii	"CCER\000"
 3574      00
 3575              	.LASF1:
 3576 0185 6C6F6E67 		.ascii	"long long int\000"
 3576      206C6F6E 
 3576      6720696E 
 3576      7400
 3577              	.LASF25:
 3578 0193 71756575 		.ascii	"queue\000"
 3578      6500
 3579              	.LASF124:
 3580 0199 63685363 		.ascii	"chSchRescheduleS\000"
 3580      68526573 
 3580      63686564 
 3580      756C6553 
 3580      00
 3581              	.LASF123:
 3582 01aa 63685468 		.ascii	"chThdResumeI\000"
 3582      64526573 
 3582      756D6549 
 3582      00
 3583              	.LASF67:
 3584 01b7 72656761 		.ascii	"regarm_t\000"
 3584      726D5F74 
 3584      00
 3585              	.LASF34:
 3586 01c0 77616974 		.ascii	"waiting\000"
 3586      696E6700 
 3587              	.LASF95:
 3588 01c8 6D757465 		.ascii	"mutex_t\000"
 3588      785F7400 
 3589              	.LASF131:
 3590 01d0 76616C75 		.ascii	"value\000"
 3590      6500
 3591              	.LASF22:
 3592 01d6 636E745F 		.ascii	"cnt_t\000"
 3592      7400
 3593              	.LASF110:
 3594 01dc 63685654 		.ascii	"chVTGetSystemTimeX\000"
 3594      47657453 
 3594      79737465 
 3594      6D54696D 
 3594      655800
 3595              	.LASF0:
 3596 01ef 756E7369 		.ascii	"unsigned int\000"
 3596      676E6564 
 3596      20696E74 
 3596      00
ARM GAS  /tmp/ccItyVqU.s 			page 66


 3597              	.LASF88:
 3598 01fc 77747365 		.ascii	"wtsemp\000"
 3598      6D7000
 3599              	.LASF86:
 3600 0203 77747472 		.ascii	"wttrp\000"
 3600      7000
 3601              	.LASF98:
 3602 0209 74656172 		.ascii	"teardown\000"
 3602      646F776E 
 3602      00
 3603              	.LASF29:
 3604 0212 6E616D65 		.ascii	"name\000"
 3604      00
 3605              	.LASF39:
 3606 0217 6D706F6F 		.ascii	"mpool\000"
 3606      6C00
 3607              	.LASF71:
 3608 021d 534D4352 		.ascii	"SMCR\000"
 3608      00
 3609              	.LASF42:
 3610 0222 63685F74 		.ascii	"ch_thread\000"
 3610      68726561 
 3610      6400
 3611              	.LASF20:
 3612 022c 6D73675F 		.ascii	"msg_t\000"
 3612      7400
 3613              	.LASF36:
 3614 0232 6570656E 		.ascii	"epending\000"
 3614      64696E67 
 3614      00
 3615              	.LASF62:
 3616 023b 63685F73 		.ascii	"ch_system_t\000"
 3616      79737465 
 3616      6D5F7400 
 3617              	.LASF80:
 3618 0247 73746D33 		.ascii	"stm32_tim_t\000"
 3618      325F7469 
 3618      6D5F7400 
 3619              	.LASF49:
 3620 0253 63685F72 		.ascii	"ch_ready_list\000"
 3620      65616479 
 3620      5F6C6973 
 3620      7400
 3621              	.LASF21:
 3622 0261 6576656E 		.ascii	"eventmask_t\000"
 3622      746D6173 
 3622      6B5F7400 
 3623              	.LASF68:
 3624 026d 73746B61 		.ascii	"stkalign_t\000"
 3624      6C69676E 
 3624      5F7400
 3625              	.LASF100:
 3626 0278 74657374 		.ascii	"testcase_t\000"
 3626      63617365 
 3626      5F7400
 3627              	.LASF118:
 3628 0283 63685468 		.ascii	"chThdCreateStatic\000"
ARM GAS  /tmp/ccItyVqU.s 			page 67


 3628      64437265 
 3628      61746553 
 3628      74617469 
 3628      6300
 3629              	.LASF38:
 3630 0295 7265616C 		.ascii	"realprio\000"
 3630      7072696F 
 3630      00
 3631              	.LASF119:
 3632 029e 63685468 		.ascii	"chThdSuspendTimeoutS\000"
 3632      64537573 
 3632      70656E64 
 3632      54696D65 
 3632      6F757453 
 3633              	.LASF15:
 3634 02b3 7274636E 		.ascii	"rtcnt_t\000"
 3634      745F7400 
 3635              	.LASF40:
 3636 02bb 74687265 		.ascii	"thread_reference_t\000"
 3636      61645F72 
 3636      65666572 
 3636      656E6365 
 3636      5F7400
 3637              	.LASF57:
 3638 02ce 63685F76 		.ascii	"ch_virtual_timers_list\000"
 3638      69727475 
 3638      616C5F74 
 3638      696D6572 
 3638      735F6C69 
 3639              	.LASF101:
 3640 02e5 74657374 		.ascii	"test_step\000"
 3640      5F737465 
 3640      7000
 3641              	.LASF2:
 3642 02ef 6C6F6E67 		.ascii	"long double\000"
 3642      20646F75 
 3642      626C6500 
 3643              	.LASF126:
 3644 02fb 474E5520 		.ascii	"GNU C17 10.3.1 20210621 (release) -mcpu=cortex-m4 -"
 3644      43313720 
 3644      31302E33 
 3644      2E312032 
 3644      30323130 
 3645 032e 6D6E6F2D 		.ascii	"mno-thumb-interwork -mthumb -mfloat-abi=soft -march"
 3645      7468756D 
 3645      622D696E 
 3645      74657277 
 3645      6F726B20 
 3646 0361 3D61726D 		.ascii	"=armv7e-m -ggdb -O2 -fomit-frame-pointer -falign-fu"
 3646      7637652D 
 3646      6D202D67 
 3646      67646220 
 3646      2D4F3220 
 3647 0394 6E637469 		.ascii	"nctions=16 -ffunction-sections -fdata-sections -fno"
 3647      6F6E733D 
 3647      3136202D 
 3647      6666756E 
ARM GAS  /tmp/ccItyVqU.s 			page 68


 3647      6374696F 
 3648 03c7 2D636F6D 		.ascii	"-common\000"
 3648      6D6F6E00 
 3649              	.LASF82:
 3650 03cf 746D5F63 		.ascii	"tm_calibration_t\000"
 3650      616C6962 
 3650      72617469 
 3650      6F6E5F74 
 3650      00
 3651              	.LASF121:
 3652 03e0 74657374 		.ascii	"test_wait_threads\000"
 3652      5F776169 
 3652      745F7468 
 3652      72656164 
 3652      7300
 3653              	.LASF107:
 3654 03f2 74687265 		.ascii	"thread1\000"
 3654      61643100 
 3655              	.LASF69:
 3656 03fa 706F7274 		.ascii	"port_context\000"
 3656      5F636F6E 
 3656      74657874 
 3656      00
 3657              	.LASF108:
 3658 0407 63685468 		.ascii	"chThdGetPriorityX\000"
 3658      64476574 
 3658      5072696F 
 3658      72697479 
 3658      5800
 3659              	.LASF97:
 3660 0419 73657475 		.ascii	"setup\000"
 3660      7000
 3661              	.LASF105:
 3662 041f 74696D65 		.ascii	"time\000"
 3662      00
 3663              	.LASF26:
 3664 0424 7072696F 		.ascii	"prio\000"
 3664      00
 3665              	.LASF50:
 3666 0429 63757272 		.ascii	"current\000"
 3666      656E7400 
 3667              	.LASF18:
 3668 0431 74726566 		.ascii	"trefs_t\000"
 3668      735F7400 
 3669              	.LASF33:
 3670 0439 72656673 		.ascii	"refs\000"
 3670      00
 3671              	.LASF52:
 3672 043e 76697274 		.ascii	"virtual_timer_t\000"
 3672      75616C5F 
 3672      74696D65 
 3672      725F7400 
 3673              	.LASF19:
 3674 044e 74707269 		.ascii	"tprio_t\000"
 3674      6F5F7400 
 3675              	.LASF104:
 3676 0456 74657374 		.ascii	"test_003_001\000"
ARM GAS  /tmp/ccItyVqU.s 			page 69


 3676      5F303033 
 3676      5F303031 
 3676      00
 3677              	.LASF60:
 3678 0463 63685F73 		.ascii	"ch_system_debug\000"
 3678      79737465 
 3678      6D5F6465 
 3678      62756700 
 3679              	.LASF96:
 3680 0473 5F426F6F 		.ascii	"_Bool\000"
 3680      6C00
 3681              	.LASF6:
 3682 0479 696E7433 		.ascii	"int32_t\000"
 3682      325F7400 
 3683              	.LASF9:
 3684 0481 756E7369 		.ascii	"unsigned char\000"
 3684      676E6564 
 3684      20636861 
 3684      7200
 3685              	.LASF106:
 3686 048f 74657374 		.ascii	"test_003_001_execute\000"
 3686      5F303033 
 3686      5F303031 
 3686      5F657865 
 3686      63757465 
 3687              	.LASF4:
 3688 04a4 73686F72 		.ascii	"short int\000"
 3688      7420696E 
 3688      7400
 3689              	.LASF58:
 3690 04ae 6C617374 		.ascii	"lasttime\000"
 3690      74696D65 
 3690      00
 3691              	.LASF103:
 3692 04b7 74687265 		.ascii	"threads\000"
 3692      61647300 
 3693              	.LASF90:
 3694 04bf 65776D61 		.ascii	"ewmask\000"
 3694      736B00
 3695              	.LASF63:
 3696 04c6 63685F73 		.ascii	"ch_system\000"
 3696      79737465 
 3696      6D00
 3697              	.LASF130:
 3698 04d0 5F5F6675 		.ascii	"__func__\000"
 3698      6E635F5F 
 3698      00
 3699              	.LASF113:
 3700 04d9 63685379 		.ascii	"chSysLock\000"
 3700      734C6F63 
 3700      6B00
 3701              	.LASF53:
 3702 04e3 63685F76 		.ascii	"ch_virtual_timer\000"
 3702      69727475 
 3702      616C5F74 
 3702      696D6572 
 3702      00
ARM GAS  /tmp/ccItyVqU.s 			page 70


 3703              	.LASF91:
 3704 04f4 63685F73 		.ascii	"ch_semaphore\000"
 3704      656D6170 
 3704      686F7265 
 3704      00
 3705              	.LASF79:
 3706 0501 43435852 		.ascii	"CCXR\000"
 3706      00
 3707              	.LASF112:
 3708 0506 73745F6C 		.ascii	"st_lld_get_counter\000"
 3708      6C645F67 
 3708      65745F63 
 3708      6F756E74 
 3708      657200
 3709              	.LASF99:
 3710 0519 65786563 		.ascii	"execute\000"
 3710      75746500 
 3711              	.LASF11:
 3712 0521 75696E74 		.ascii	"uint32_t\000"
 3712      33325F74 
 3712      00
 3713              	.LASF89:
 3714 052a 77746D74 		.ascii	"wtmtxp\000"
 3714      787000
 3715              	.LASF129:
 3716 0531 74657374 		.ascii	"test_003_001_setup\000"
 3716      5F303033 
 3716      5F303031 
 3716      5F736574 
 3716      757000
 3717              	.LASF127:
 3718 0544 2E2E2F2E 		.ascii	"../../../test/rt/source/test/test_sequence_003.c\000"
 3718      2E2F2E2E 
 3718      2F746573 
 3718      742F7274 
 3718      2F736F75 
 3719              	.LASF43:
 3720 0575 63685F74 		.ascii	"ch_threads_list\000"
 3720      68726561 
 3720      64735F6C 
 3720      69737400 
 3721              	.LASF93:
 3722 0585 6F776E65 		.ascii	"owner\000"
 3722      7200
 3723              	.LASF12:
 3724 058b 6C6F6E67 		.ascii	"long unsigned int\000"
 3724      20756E73 
 3724      69676E65 
 3724      6420696E 
 3724      7400
 3725              	.LASF30:
 3726 059d 77616261 		.ascii	"wabase\000"
 3726      736500
 3727              	.LASF94:
 3728 05a4 63686172 		.ascii	"char\000"
 3728      00
 3729              	.LASF28:
ARM GAS  /tmp/ccItyVqU.s 			page 71


 3730 05a9 6F6C6465 		.ascii	"older\000"
 3730      7200
 3731              	.LASF77:
 3732 05af 444D4152 		.ascii	"DMAR\000"
 3732      00
 3733              	.LASF24:
 3734 05b4 74687265 		.ascii	"thread_t\000"
 3734      61645F74 
 3734      00
 3735              	.LASF23:
 3736 05bd 73797374 		.ascii	"systime_t\000"
 3736      696D655F 
 3736      7400
 3737              	.LASF51:
 3738 05c7 76746675 		.ascii	"vtfunc_t\000"
 3738      6E635F74 
 3738      00
 3739              	.LASF117:
 3740 05d0 5F5F7365 		.ascii	"__set_BASEPRI\000"
 3740      745F4241 
 3740      53455052 
 3740      4900
 3741              	.LASF81:
 3742 05de 6F666673 		.ascii	"offset\000"
 3742      657400
 3743              	.LASF10:
 3744 05e5 73686F72 		.ascii	"short unsigned int\000"
 3744      7420756E 
 3744      7369676E 
 3744      65642069 
 3744      6E7400
 3745              	.LASF111:
 3746 05f8 706F7274 		.ascii	"port_timer_get_time\000"
 3746      5F74696D 
 3746      65725F67 
 3746      65745F74 
 3746      696D6500 
 3747              	.LASF27:
 3748 060c 6E657765 		.ascii	"newer\000"
 3748      7200
 3749              	.LASF45:
 3750 0612 74687265 		.ascii	"threads_queue_t\000"
 3750      6164735F 
 3750      71756575 
 3750      655F7400 
 3751              	.LASF92:
 3752 0622 63685F6D 		.ascii	"ch_mutex\000"
 3752      75746578 
 3752      00
 3753              	.LASF64:
 3754 062b 726C6973 		.ascii	"rlist\000"
 3754      7400
 3755              	.LASF109:
 3756 0631 63685468 		.ascii	"chThdGetSelfX\000"
 3756      64476574 
 3756      53656C66 
 3756      5800
ARM GAS  /tmp/ccItyVqU.s 			page 72


 3757              	.LASF8:
 3758 063f 75696E74 		.ascii	"uint8_t\000"
 3758      385F7400 
 3759              	.LASF32:
 3760 0647 666C6167 		.ascii	"flags\000"
 3760      7300
 3761              	.LASF102:
 3762 064d 74657374 		.ascii	"test_sequence_003\000"
 3762      5F736571 
 3762      75656E63 
 3762      655F3030 
 3762      3300
 3763              	.LASF61:
 3764 065f 70616E69 		.ascii	"panic_msg\000"
 3764      635F6D73 
 3764      6700
 3765              	.LASF85:
 3766 0669 77746F62 		.ascii	"wtobjp\000"
 3766      6A7000
 3767              	.LASF120:
 3768 0670 5F746573 		.ascii	"_test_assert\000"
 3768      745F6173 
 3768      73657274 
 3768      00
 3769              	.LASF41:
 3770 067d 74687265 		.ascii	"threads_list_t\000"
 3770      6164735F 
 3770      6C697374 
 3770      5F7400
 3771              	.LASF16:
 3772 068c 746D6F64 		.ascii	"tmode_t\000"
 3772      655F7400 
 3773              	.LASF116:
 3774 0694 63685379 		.ascii	"chSysUnlock\000"
 3774      73556E6C 
 3774      6F636B00 
 3775              	.LASF37:
 3776 06a0 6D74786C 		.ascii	"mtxlist\000"
 3776      69737400 
 3777              		.ident	"GCC: (15:10.3-2021.07-4) 10.3.1 20210621 (release)"
ARM GAS  /tmp/ccItyVqU.s 			page 73


DEFINED SYMBOLS
                            *ABS*:0000000000000000 test_sequence_003.c
     /tmp/ccItyVqU.s:16     .text.test_003_001_setup:0000000000000000 $t
     /tmp/ccItyVqU.s:24     .text.test_003_001_setup:0000000000000000 test_003_001_setup
     /tmp/ccItyVqU.s:42     .text.test_003_001_setup:0000000000000008 $d
     /tmp/ccItyVqU.s:47     .rodata.test_003_001_execute.str1.4:0000000000000000 $d
     /tmp/ccItyVqU.s:60     .text.test_003_001_execute:0000000000000000 $t
     /tmp/ccItyVqU.s:67     .text.test_003_001_execute:0000000000000000 test_003_001_execute
     /tmp/ccItyVqU.s:462    .text.test_003_001_execute:00000000000000c8 $d
     /tmp/ccItyVqU.s:483    .text.thread1:0000000000000000 thread1
     /tmp/ccItyVqU.s:476    .text.thread1:0000000000000000 $t
     /tmp/ccItyVqU.s:614    .text.thread1:0000000000000028 $d
     /tmp/ccItyVqU.s:643    .rodata.test_sequence_003:0000000000000000 test_sequence_003
     /tmp/ccItyVqU.s:620    .rodata.str1.4:0000000000000000 $d
     /tmp/ccItyVqU.s:624    .bss.tr1:0000000000000000 $d
     /tmp/ccItyVqU.s:628    .bss.tr1:0000000000000000 tr1
     /tmp/ccItyVqU.s:631    .rodata.test_003_001:0000000000000000 $d
     /tmp/ccItyVqU.s:634    .rodata.test_003_001:0000000000000000 test_003_001
     /tmp/ccItyVqU.s:640    .rodata.test_sequence_003:0000000000000000 $d

UNDEFINED SYMBOLS
chThdCreateStatic
chThdSuspendTimeoutS
_test_assert
test_wait_threads
_test_assert_time_window
ch
wa
test_step
threads
chThdResumeI
chSchRescheduleS
test_emit_token
