ARM GAS  /tmp/ccItyVqU.s 			page 1


   1              		.cpu cortex-m4
   2              		.eabi_attribute 20, 1
   3              		.eabi_attribute 21, 1
   4              		.eabi_attribute 23, 3
   5              		.eabi_attribute 24, 1
   6              		.eabi_attribute 25, 1
   7              		.eabi_attribute 26, 1
   8              		.eabi_attribute 30, 2
   9              		.eabi_attribute 34, 1
  10              		.eabi_attribute 18, 4
  11              		.file	"test_sequence_003.c"
  12              		.text
  13              	.Ltext0:
  14              		.cfi_sections	.debug_frame
  15              		.section	.text.test_003_001_setup,"ax",%progbits
  16              		.align	1
  17              		.p2align 4,,15
  18              		.arch armv7e-m
  19              		.syntax unified
  20              		.thumb
  21              		.thumb_func
  22              		.fpu softvfp
  23              		.type	test_003_001_setup, %function
  24              	test_003_001_setup:
  25              	.LFB278:
  26              		.file 1 "../../../test/rt/source/test/test_sequence_003.c"
  27              		.loc 1 74 38 view -0
  28              		.cfi_startproc
  29              		@ args = 0, pretend = 0, frame = 0
  30              		@ frame_needed = 0, uses_anonymous_args = 0
  31              		@ link register save eliminated.
  32              		.loc 1 75 3 view .LVU1
  33              		.loc 1 75 7 is_stmt 0 view .LVU2
  34 0000 014B     		ldr	r3, .L3
  35 0002 0022     		movs	r2, #0
  36 0004 1A60     		str	r2, [r3]
  37              		.loc 1 76 1 view .LVU3
  38 0006 7047     		bx	lr
  39              	.L4:
  40              		.align	2
  41              	.L3:
  42 0008 00000000 		.word	.LANCHOR0
  43              		.cfi_endproc
  44              	.LFE278:
  45              		.size	test_003_001_setup, .-test_003_001_setup
  46              		.section	.rodata.test_003_001_execute.str1.4,"aMS",%progbits,1
  47              		.align	2
  48              	.LC0:
  49 0000 4100     		.ascii	"A\000"
  50 0002 0000     		.align	2
  51              	.LC1:
  52 0004 6E6F7420 		.ascii	"not NULL\000"
  52      4E554C4C 
  52      00
  53 000d 000000   		.align	2
  54              	.LC2:
  55 0010 77726F6E 		.ascii	"wrong returned message\000"
ARM GAS  /tmp/ccItyVqU.s 			page 2


  55      67207265 
  55      7475726E 
  55      6564206D 
  55      65737361 
  56 0027 00       		.align	2
  57              	.LC3:
  58 0028 6F757420 		.ascii	"out of time window\000"
  58      6F662074 
  58      696D6520 
  58      77696E64 
  58      6F7700
  59              		.section	.text.test_003_001_execute,"ax",%progbits
  60              		.align	1
  61              		.p2align 4,,15
  62              		.syntax unified
  63              		.thumb
  64              		.thumb_func
  65              		.fpu softvfp
  66              		.type	test_003_001_execute, %function
  67              	test_003_001_execute:
  68              	.LFB279:
  69              		.loc 1 78 40 is_stmt 1 view -0
  70              		.cfi_startproc
  71              		@ args = 0, pretend = 0, frame = 0
  72              		@ frame_needed = 0, uses_anonymous_args = 0
  73              		.loc 1 79 3 view .LVU5
  74              		.loc 1 80 3 view .LVU6
  75              		.loc 1 85 3 view .LVU7
  76              		.loc 1 78 40 is_stmt 0 view .LVU8
  77 0000 F0B5     		push	{r4, r5, r6, r7, lr}
  78              		.cfi_def_cfa_offset 20
  79              		.cfi_offset 4, -20
  80              		.cfi_offset 5, -16
  81              		.cfi_offset 6, -12
  82              		.cfi_offset 7, -8
  83              		.cfi_offset 14, -4
  84              	.LBB61:
  85              	.LBB62:
  86              	.LBB63:
  87              	.LBB64:
  88              		.file 2 "../../../os/rt/include/chthreads.h"
  89              		.loc 2 286 18 view .LVU9
  90 0002 314B     		ldr	r3, .L11
  91              	.LBE64:
  92              	.LBE63:
  93              	.LBE62:
  94              	.LBE61:
  95              		.loc 1 87 18 view .LVU10
  96 0004 3149     		ldr	r1, .L11+4
  97              	.LBB69:
  98              	.LBB67:
  99              		.loc 2 299 25 view .LVU11
 100 0006 9B69     		ldr	r3, [r3, #24]
 101              	.LBE67:
 102              	.LBE69:
 103              		.loc 1 85 3 view .LVU12
 104 0008 314F     		ldr	r7, .L11+8
ARM GAS  /tmp/ccItyVqU.s 			page 3


 105              		.loc 1 87 18 view .LVU13
 106 000a 9A68     		ldr	r2, [r3, #8]
 107 000c 314C     		ldr	r4, .L11+12
 108 000e 0868     		ldr	r0, [r1]
 109 0010 314B     		ldr	r3, .L11+16
 110              		.loc 1 78 40 view .LVU14
 111 0012 83B0     		sub	sp, sp, #12
 112              		.cfi_def_cfa_offset 32
 113              		.loc 1 85 3 view .LVU15
 114 0014 0121     		movs	r1, #1
 115              		.loc 1 87 18 view .LVU16
 116 0016 0094     		str	r4, [sp]
 117 0018 013A     		subs	r2, r2, #1
 118              		.loc 1 85 3 view .LVU17
 119 001a 3960     		str	r1, [r7]
 120              		.loc 1 87 5 is_stmt 1 view .LVU18
 121              	.LBB70:
 122              	.LBI61:
 123              		.loc 2 297 23 view .LVU19
 124              	.LBB68:
 125              		.loc 2 299 3 view .LVU20
 126              	.LBB66:
 127              	.LBI63:
 128              		.loc 2 284 25 view .LVU21
 129              	.LBB65:
 130              		.loc 2 286 3 view .LVU22
 131              	.LBE65:
 132              	.LBE66:
 133              	.LBE68:
 134              	.LBE70:
 135              		.loc 1 87 18 is_stmt 0 view .LVU23
 136 001c 4FF4A471 		mov	r1, #328
 137 0020 FFF7FEFF 		bl	chThdCreateStatic
 138              	.LVL0:
 139              		.loc 1 87 16 view .LVU24
 140 0024 2D4B     		ldr	r3, .L11+20
 141              	.LBB71:
 142              	.LBB72:
 143              	.LBB73:
 144              	.LBB74:
 145              		.file 3 "../../../os/common/ext/CMSIS/include/cmsis_gcc.h"
 146              		.loc 3 264 3 view .LVU25
 147 0026 2026     		movs	r6, #32
 148              	.LBE74:
 149              	.LBE73:
 150              	.LBE72:
 151              	.LBE71:
 152              		.loc 1 87 16 view .LVU26
 153 0028 1860     		str	r0, [r3]
 154              		.loc 1 88 5 is_stmt 1 view .LVU27
 155              	.LBB79:
 156              	.LBI71:
 157              		.file 4 "../../../os/rt/include/chsys.h"
 158              		.loc 4 374 20 view .LVU28
 159              	.LBE79:
 160              		.loc 4 376 3 view .LVU29
 161              	.LBB80:
ARM GAS  /tmp/ccItyVqU.s 			page 4


 162              	.LBB77:
 163              	.LBI72:
 164              		.file 5 "../../../os/common/ports/ARMCMx/chcore_v7m.h"
 165              		.loc 5 594 20 view .LVU30
 166              	.LBE77:
 167              	.LBE80:
 168              		.loc 5 602 3 view .LVU31
 169              	.LVL1:
 170              	.LBB81:
 171              	.LBB78:
 172              	.LBB76:
 173              	.LBI73:
 174              		.loc 3 262 57 view .LVU32
 175              	.LBB75:
 176              		.loc 3 264 3 view .LVU33
 177              		.syntax unified
 178              	@ 264 "../../../os/common/ext/CMSIS/include/cmsis_gcc.h" 1
 179 002a 86F31188 		MSR basepri, r6
 180              	@ 0 "" 2
 181              	.LVL2:
 182              		.loc 3 264 3 is_stmt 0 view .LVU34
 183              		.thumb
 184              		.syntax unified
 185              	.LBE75:
 186              	.LBE76:
 187              	.LBE78:
 188              	.LBE81:
 189              		.loc 4 377 34 is_stmt 1 view .LVU35
 190              		.loc 4 378 20 view .LVU36
 191              		.loc 1 89 5 view .LVU37
 192              		.loc 1 89 11 is_stmt 0 view .LVU38
 193 002e 2C4D     		ldr	r5, .L11+24
 194 0030 4FF0FF31 		mov	r1, #-1
 195 0034 2846     		mov	r0, r5
 196 0036 FFF7FEFF 		bl	chThdSuspendTimeoutS
 197              	.LVL3:
 198              	.LBB82:
 199              	.LBB83:
 200              	.LBB84:
 201              	.LBB85:
 202              	.LBB86:
 203              		.loc 3 264 3 view .LVU39
 204 003a 0023     		movs	r3, #0
 205              	.LBE86:
 206              	.LBE85:
 207              	.LBE84:
 208              	.LBE83:
 209              	.LBE82:
 210              		.loc 1 89 11 view .LVU40
 211 003c 0446     		mov	r4, r0
 212              	.LVL4:
 213              		.loc 1 90 5 is_stmt 1 view .LVU41
 214              	.LBB93:
 215              	.LBI82:
 216              		.loc 4 386 20 view .LVU42
 217              	.LBB91:
 218              		.loc 4 388 22 view .LVU43
ARM GAS  /tmp/ccItyVqU.s 			page 5


 219              		.loc 4 389 33 view .LVU44
 220              		.loc 4 395 3 view .LVU45
 221              		.loc 4 395 3 view .LVU46
 222              		.loc 4 395 3 view .LVU47
 223              		.loc 4 399 3 view .LVU48
 224              	.LBB89:
 225              	.LBI84:
 226              		.loc 5 618 20 view .LVU49
 227              	.LBE89:
 228              	.LBE91:
 229              	.LBE93:
 230              		.loc 5 621 3 view .LVU50
 231              	.LBB94:
 232              	.LBB92:
 233              	.LBB90:
 234              	.LBB88:
 235              	.LBI85:
 236              		.loc 3 262 57 view .LVU51
 237              	.LBB87:
 238              		.loc 3 264 3 view .LVU52
 239              		.syntax unified
 240              	@ 264 "../../../os/common/ext/CMSIS/include/cmsis_gcc.h" 1
 241 003e 83F31188 		MSR basepri, r3
 242              	@ 0 "" 2
 243              	.LVL5:
 244              		.loc 3 264 3 is_stmt 0 view .LVU53
 245              		.thumb
 246              		.syntax unified
 247              	.LBE87:
 248              	.LBE88:
 249              	.LBE90:
 250              	.LBE92:
 251              	.LBE94:
 252              		.loc 1 91 5 is_stmt 1 view .LVU54
 253 0042 2868     		ldr	r0, [r5]
 254              	.LVL6:
 255              		.loc 1 91 5 is_stmt 0 view .LVU55
 256 0044 2749     		ldr	r1, .L11+28
 257 0046 B0FA80F0 		clz	r0, r0
 258 004a 4009     		lsrs	r0, r0, #5
 259 004c FFF7FEFF 		bl	_test_assert
 260              	.LVL7:
 261 0050 08B1     		cbz	r0, .L10
 262              	.LVL8:
 263              	.L5:
 264              		.loc 1 111 1 view .LVU56
 265 0052 03B0     		add	sp, sp, #12
 266              		.cfi_remember_state
 267              		.cfi_def_cfa_offset 20
 268              		@ sp needed
 269 0054 F0BD     		pop	{r4, r5, r6, r7, pc}
 270              	.LVL9:
 271              	.L10:
 272              		.cfi_restore_state
 273              		.loc 1 91 41 is_stmt 1 discriminator 2 view .LVU57
 274              		.loc 1 92 5 discriminator 2 view .LVU58
 275 0056 B4FA84F0 		clz	r0, r4
ARM GAS  /tmp/ccItyVqU.s 			page 6


 276 005a 2349     		ldr	r1, .L11+32
 277 005c 4009     		lsrs	r0, r0, #5
 278 005e FFF7FEFF 		bl	_test_assert
 279              	.LVL10:
 280 0062 0446     		mov	r4, r0
 281              	.LVL11:
 282              		.loc 1 92 5 is_stmt 0 discriminator 2 view .LVU59
 283 0064 0028     		cmp	r0, #0
 284 0066 F4D1     		bne	.L5
 285              		.loc 1 92 56 is_stmt 1 discriminator 2 view .LVU60
 286              		.loc 1 93 5 discriminator 2 view .LVU61
 287 0068 FFF7FEFF 		bl	test_wait_threads
 288              	.LVL12:
 289              		.loc 1 99 3 discriminator 2 view .LVU62
 290 006c 0223     		movs	r3, #2
 291 006e 3B60     		str	r3, [r7]
 292              		.loc 1 101 5 discriminator 2 view .LVU63
 293              	.LBB95:
 294              	.LBI95:
 295              		.loc 4 374 20 discriminator 2 view .LVU64
 296              	.LBE95:
 297              		.loc 4 376 3 discriminator 2 view .LVU65
 298              	.LBB100:
 299              	.LBB96:
 300              	.LBI96:
 301              		.loc 5 594 20 discriminator 2 view .LVU66
 302              	.LBE96:
 303              	.LBE100:
 304              		.loc 5 602 3 discriminator 2 view .LVU67
 305              	.LVL13:
 306              	.LBB101:
 307              	.LBB99:
 308              	.LBB97:
 309              	.LBI97:
 310              		.loc 3 262 57 discriminator 2 view .LVU68
 311              	.LBB98:
 312              		.loc 3 264 3 discriminator 2 view .LVU69
 313              		.syntax unified
 314              	@ 264 "../../../os/common/ext/CMSIS/include/cmsis_gcc.h" 1
 315 0070 86F31188 		MSR basepri, r6
 316              	@ 0 "" 2
 317              	.LVL14:
 318              		.loc 3 264 3 is_stmt 0 discriminator 2 view .LVU70
 319              		.thumb
 320              		.syntax unified
 321              	.LBE98:
 322              	.LBE97:
 323              	.LBE99:
 324              	.LBE101:
 325              		.loc 4 377 34 is_stmt 1 discriminator 2 view .LVU71
 326              		.loc 4 378 20 discriminator 2 view .LVU72
 327              		.loc 1 102 5 discriminator 2 view .LVU73
 328              	.LBB102:
 329              	.LBI102:
 330              		.file 6 "../../../os/rt/include/chvt.h"
 331              		.loc 6 392 25 discriminator 2 view .LVU74
 332              	.LBE102:
ARM GAS  /tmp/ccItyVqU.s 			page 7


 333              		.loc 6 397 3 discriminator 2 view .LVU75
 334              	.LBB110:
 335              	.LBB103:
 336              	.LBI103:
 337              		.file 7 "../../../os/common/ports/ARMCMx/chcore_timer.h"
 338              		.loc 7 105 25 discriminator 2 view .LVU76
 339              	.LBE103:
 340              	.LBE110:
 341              		.loc 7 107 3 discriminator 2 view .LVU77
 342              	.LBB111:
 343              	.LBB108:
 344              	.LBB104:
 345              	.LBI104:
 346              		.file 8 "../../../os/hal/ports/STM32/LLD/TIMv1/hal_st_lld.h"
 347              		.loc 8 139 25 discriminator 2 view .LVU78
 348              	.LBB105:
 349              		.loc 8 141 3 discriminator 2 view .LVU79
 350              		.loc 8 141 10 is_stmt 0 discriminator 2 view .LVU80
 351 0074 4FF08043 		mov	r3, #1073741824
 352              	.LBE105:
 353              	.LBE104:
 354              	.LBE108:
 355              	.LBE111:
 356              		.loc 1 103 11 discriminator 2 view .LVU81
 357 0078 42F21071 		movw	r1, #10000
 358 007c 2846     		mov	r0, r5
 359              	.LBB112:
 360              	.LBB109:
 361              	.LBB107:
 362              	.LBB106:
 363              		.loc 8 141 10 discriminator 2 view .LVU82
 364 007e 5F6A     		ldr	r7, [r3, #36]
 365              	.LVL15:
 366              		.loc 8 141 10 discriminator 2 view .LVU83
 367              	.LBE106:
 368              	.LBE107:
 369              	.LBE109:
 370              	.LBE112:
 371              		.loc 1 103 5 is_stmt 1 discriminator 2 view .LVU84
 372              		.loc 1 103 11 is_stmt 0 discriminator 2 view .LVU85
 373 0080 FFF7FEFF 		bl	chThdSuspendTimeoutS
 374              	.LVL16:
 375 0084 0646     		mov	r6, r0
 376              	.LVL17:
 377              		.loc 1 104 5 is_stmt 1 discriminator 2 view .LVU86
 378              	.LBB113:
 379              	.LBI113:
 380              		.loc 4 386 20 discriminator 2 view .LVU87
 381              	.LBB114:
 382              		.loc 4 388 22 discriminator 2 view .LVU88
 383              		.loc 4 389 33 discriminator 2 view .LVU89
 384              		.loc 4 395 3 discriminator 2 view .LVU90
 385              		.loc 4 395 3 discriminator 2 view .LVU91
 386              		.loc 4 395 3 discriminator 2 view .LVU92
 387              		.loc 4 399 3 discriminator 2 view .LVU93
 388              	.LBB115:
 389              	.LBI115:
ARM GAS  /tmp/ccItyVqU.s 			page 8


 390              		.loc 5 618 20 discriminator 2 view .LVU94
 391              	.LBE115:
 392              	.LBE114:
 393              	.LBE113:
 394              		.loc 5 621 3 discriminator 2 view .LVU95
 395              	.LBB120:
 396              	.LBB119:
 397              	.LBB118:
 398              	.LBB116:
 399              	.LBI116:
 400              		.loc 3 262 57 discriminator 2 view .LVU96
 401              	.LBB117:
 402              		.loc 3 264 3 discriminator 2 view .LVU97
 403              		.syntax unified
 404              	@ 264 "../../../os/common/ext/CMSIS/include/cmsis_gcc.h" 1
 405 0086 84F31188 		MSR basepri, r4
 406              	@ 0 "" 2
 407              	.LVL18:
 408              		.loc 3 264 3 is_stmt 0 discriminator 2 view .LVU98
 409              		.thumb
 410              		.syntax unified
 411              	.LBE117:
 412              	.LBE116:
 413              	.LBE118:
 414              	.LBE119:
 415              	.LBE120:
 416              		.loc 1 105 5 is_stmt 1 discriminator 2 view .LVU99
 417 008a 07F51C51 		add	r1, r7, #9984
 418 008e 0846     		mov	r0, r1
 419              	.LVL19:
 420              		.loc 1 105 5 is_stmt 0 discriminator 2 view .LVU100
 421 0090 164A     		ldr	r2, .L11+36
 422 0092 1331     		adds	r1, r1, #19
 423 0094 1030     		adds	r0, r0, #16
 424 0096 FFF7FEFF 		bl	_test_assert_time_window
 425              	.LVL20:
 426 009a 0028     		cmp	r0, #0
 427 009c D9D1     		bne	.L5
 428              		.loc 1 107 50 is_stmt 1 view .LVU101
 429              		.loc 1 108 5 view .LVU102
 430 009e 2868     		ldr	r0, [r5]
 431 00a0 1049     		ldr	r1, .L11+28
 432 00a2 B0FA80F0 		clz	r0, r0
 433 00a6 4009     		lsrs	r0, r0, #5
 434 00a8 FFF7FEFF 		bl	_test_assert
 435              	.LVL21:
 436 00ac 0028     		cmp	r0, #0
 437 00ae D0D1     		bne	.L5
 438              		.loc 1 108 41 discriminator 2 view .LVU103
 439              		.loc 1 109 5 discriminator 2 view .LVU104
 440 00b0 A6F1FF30 		sub	r0, r6, #-1
 441 00b4 0C49     		ldr	r1, .L11+32
 442 00b6 B0FA80F0 		clz	r0, r0
 443 00ba 4009     		lsrs	r0, r0, #5
 444              		.loc 1 111 1 is_stmt 0 discriminator 2 view .LVU105
 445 00bc 03B0     		add	sp, sp, #12
 446              		.cfi_def_cfa_offset 20
ARM GAS  /tmp/ccItyVqU.s 			page 9


 447              		@ sp needed
 448 00be BDE8F040 		pop	{r4, r5, r6, r7, lr}
 449              		.cfi_restore 14
 450              		.cfi_restore 7
 451              		.cfi_restore 6
 452              		.cfi_restore 5
 453              		.cfi_restore 4
 454              		.cfi_def_cfa_offset 0
 455              	.LVL22:
 456              		.loc 1 109 5 discriminator 2 view .LVU106
 457 00c2 FFF7FEBF 		b	_test_assert
 458              	.LVL23:
 459              	.L12:
 460 00c6 00BF     		.align	2
 461              	.L11:
 462 00c8 00000000 		.word	ch
 463 00cc 00000000 		.word	wa
 464 00d0 00000000 		.word	test_step
 465 00d4 00000000 		.word	.LC0
 466 00d8 00000000 		.word	thread1
 467 00dc 00000000 		.word	threads
 468 00e0 00000000 		.word	.LANCHOR0
 469 00e4 04000000 		.word	.LC1
 470 00e8 10000000 		.word	.LC2
 471 00ec 28000000 		.word	.LC3
 472              		.cfi_endproc
 473              	.LFE279:
 474              		.size	test_003_001_execute, .-test_003_001_execute
 475              		.section	.text.thread1,"ax",%progbits
 476              		.align	1
 477              		.p2align 4,,15
 478              		.syntax unified
 479              		.thumb
 480              		.thumb_func
 481              		.fpu softvfp
 482              		.type	thread1, %function
 483              	thread1:
 484              	.LVL24:
 485              	.LFB277:
 486              		.loc 1 44 33 is_stmt 1 view -0
 487              		.cfi_startproc
 488              		@ args = 0, pretend = 0, frame = 0
 489              		@ frame_needed = 0, uses_anonymous_args = 0
 490              		.loc 1 46 3 view .LVU108
 491              	.LBB121:
 492              	.LBI121:
 493              		.loc 4 374 20 view .LVU109
 494              	.LBE121:
 495              		.loc 4 376 3 view .LVU110
 496              	.LBB132:
 497              	.LBB122:
 498              	.LBI122:
 499              		.loc 5 594 20 view .LVU111
 500              	.LBE122:
 501              	.LBE132:
 502              		.loc 5 602 3 view .LVU112
 503              	.LBB133:
ARM GAS  /tmp/ccItyVqU.s 			page 10


 504              	.LBB129:
 505              	.LBB123:
 506              	.LBI123:
 507              		.loc 3 262 57 view .LVU113
 508              	.LBB124:
 509              		.loc 3 264 3 view .LVU114
 510              	.LBE124:
 511              	.LBE123:
 512              	.LBE129:
 513              	.LBE133:
 514              		.loc 1 44 33 is_stmt 0 view .LVU115
 515 0000 10B5     		push	{r4, lr}
 516              		.cfi_def_cfa_offset 8
 517              		.cfi_offset 4, -8
 518              		.cfi_offset 14, -4
 519              	.LBB134:
 520              	.LBB130:
 521              	.LBB127:
 522              	.LBB125:
 523              		.loc 3 264 3 view .LVU116
 524 0002 2023     		movs	r3, #32
 525              	.LBE125:
 526              	.LBE127:
 527              	.LBE130:
 528              	.LBE134:
 529              		.loc 1 44 33 view .LVU117
 530 0004 0446     		mov	r4, r0
 531              	.LBB135:
 532              	.LBB131:
 533              	.LBB128:
 534              	.LBB126:
 535              		.loc 3 264 3 view .LVU118
 536              		.syntax unified
 537              	@ 264 "../../../os/common/ext/CMSIS/include/cmsis_gcc.h" 1
 538 0006 83F31188 		MSR basepri, r3
 539              	@ 0 "" 2
 540              	.LVL25:
 541              		.loc 3 264 3 view .LVU119
 542              		.thumb
 543              		.syntax unified
 544              	.LBE126:
 545              	.LBE128:
 546              	.LBE131:
 547              	.LBE135:
 548              		.loc 4 377 34 is_stmt 1 view .LVU120
 549              		.loc 4 378 20 view .LVU121
 550              		.loc 1 47 3 view .LVU122
 551 000a 0748     		ldr	r0, .L15
 552              	.LVL26:
 553              		.loc 1 47 3 is_stmt 0 view .LVU123
 554 000c 0021     		movs	r1, #0
 555 000e FFF7FEFF 		bl	chThdResumeI
 556              	.LVL27:
 557              		.loc 1 48 3 is_stmt 1 view .LVU124
 558 0012 FFF7FEFF 		bl	chSchRescheduleS
 559              	.LVL28:
 560              		.loc 1 49 3 view .LVU125
ARM GAS  /tmp/ccItyVqU.s 			page 11


 561              	.LBB136:
 562              	.LBI136:
 563              		.loc 4 386 20 view .LVU126
 564              	.LBB137:
 565              		.loc 4 388 22 view .LVU127
 566              		.loc 4 389 33 view .LVU128
 567              		.loc 4 395 3 view .LVU129
 568              		.loc 4 395 3 view .LVU130
 569              		.loc 4 395 3 view .LVU131
 570              		.loc 4 399 3 view .LVU132
 571              	.LBB138:
 572              	.LBI138:
 573              		.loc 5 618 20 view .LVU133
 574              	.LBE138:
 575              	.LBE137:
 576              	.LBE136:
 577              		.loc 5 621 3 view .LVU134
 578              	.LBB143:
 579              	.LBB142:
 580              	.LBB141:
 581              	.LBB139:
 582              	.LBI139:
 583              		.loc 3 262 57 view .LVU135
 584              	.LBB140:
 585              		.loc 3 264 3 view .LVU136
 586 0016 0023     		movs	r3, #0
 587              		.syntax unified
 588              	@ 264 "../../../os/common/ext/CMSIS/include/cmsis_gcc.h" 1
 589 0018 83F31188 		MSR basepri, r3
 590              	@ 0 "" 2
 591              	.LVL29:
 592              		.loc 3 264 3 is_stmt 0 view .LVU137
 593              		.thumb
 594              		.syntax unified
 595              	.LBE140:
 596              	.LBE139:
 597              	.LBE141:
 598              	.LBE142:
 599              	.LBE143:
 600              		.loc 1 50 3 is_stmt 1 view .LVU138
 601 001c 2078     		ldrb	r0, [r4]	@ zero_extendqisi2
 602              		.loc 1 51 1 is_stmt 0 view .LVU139
 603 001e BDE81040 		pop	{r4, lr}
 604              		.cfi_restore 14
 605              		.cfi_restore 4
 606              		.cfi_def_cfa_offset 0
 607              	.LVL30:
 608              		.loc 1 50 3 view .LVU140
 609 0022 FFF7FEBF 		b	test_emit_token
 610              	.LVL31:
 611              	.L16:
 612 0026 00BF     		.align	2
 613              	.L15:
 614 0028 00000000 		.word	.LANCHOR0
 615              		.cfi_endproc
 616              	.LFE277:
 617              		.size	thread1, .-thread1
ARM GAS  /tmp/ccItyVqU.s 			page 12


 618              		.global	test_sequence_003
 619              		.section	.rodata.str1.4,"aMS",%progbits,1
 620              		.align	2
 621              	.LC4:
 622 0000 53757370 		.ascii	"Suspend and Resume functionality\000"
 622      656E6420 
 622      616E6420 
 622      52657375 
 622      6D652066 
 623              		.section	.bss.tr1,"aw",%nobits
 624              		.align	2
 625              		.set	.LANCHOR0,. + 0
 626              		.type	tr1, %object
 627              		.size	tr1, 4
 628              	tr1:
 629 0000 00000000 		.space	4
 630              		.section	.rodata.test_003_001,"a"
 631              		.align	2
 632              		.type	test_003_001, %object
 633              		.size	test_003_001, 16
 634              	test_003_001:
 635 0000 00000000 		.word	.LC4
 636 0004 00000000 		.word	test_003_001_setup
 637 0008 00000000 		.word	0
 638 000c 00000000 		.word	test_003_001_execute
 639              		.section	.rodata.test_sequence_003,"a"
 640              		.align	2
 641              		.type	test_sequence_003, %object
 642              		.size	test_sequence_003, 8
 643              	test_sequence_003:
 644 0000 00000000 		.word	test_003_001
 645 0004 00000000 		.word	0
 646              		.text
 647              	.Letext0:
 648              		.file 9 "/usr/lib/gcc/arm-none-eabi/10.3.1/include/stddef.h"
 649              		.file 10 "/usr/lib/gcc/arm-none-eabi/10.3.1/include/stdint.h"
 650              		.file 11 "../../../os/common/ports/ARMCMx/compilers/GCC/chtypes.h"
 651              		.file 12 "../../../os/rt/include/chsystypes.h"
 652              		.file 13 "../../../os/rt/include/chschd.h"
 653              		.file 14 "../../../os/common/ports/ARMCMx/chcore.h"
 654              		.file 15 "../../../os/hal/ports/STM32/LLD/TIMv1/stm32_tim.h"
 655              		.file 16 "../../../os/rt/include/chtm.h"
 656              		.file 17 "../../../os/rt/include/chsem.h"
 657              		.file 18 "../../../os/rt/include/chmtx.h"
 658              		.file 19 "../../../test/lib/ch_test.h"
 659              		.file 20 "../../../test/rt/source/test/test_sequence_003.h"
 660              		.file 21 "../../../test/rt/source/test/test_root.h"