ARM GAS  /tmp/ccn1GwuO.s 			page 1


   1              		.cpu cortex-m4
   2              		.eabi_attribute 20, 1
   3              		.eabi_attribute 21, 1
   4              		.eabi_attribute 23, 3
   5              		.eabi_attribute 24, 1
   6              		.eabi_attribute 25, 1
   7              		.eabi_attribute 26, 1
   8              		.eabi_attribute 30, 2
   9              		.eabi_attribute 34, 1
  10              		.eabi_attribute 18, 4
  11              		.file	"test_sequence_007.c"
  12              		.text
  13              	.Ltext0:
  14              		.cfi_sections	.debug_frame
  15              		.section	.text.test_007_007_setup,"ax",%progbits
  16              		.align	1
  17              		.p2align 4,,15
  18              		.arch armv7e-m
  19              		.syntax unified
  20              		.thumb
  21              		.thumb_func
  22              		.fpu softvfp
  23              		.type	test_007_007_setup, %function
  24              	test_007_007_setup:
  25              	.LFB293:
  26              		.file 1 "../../../test/rt/source/test/test_sequence_007.c"
  27              		.loc 1 490 38 view -0
  28              		.cfi_startproc
  29              		@ args = 0, pretend = 0, frame = 0
  30              		@ frame_needed = 0, uses_anonymous_args = 0
  31              		.loc 1 491 3 view .LVU1
  32              		.loc 1 490 38 is_stmt 0 view .LVU2
  33 0000 08B5     		push	{r3, lr}
  34              		.cfi_def_cfa_offset 8
  35              		.cfi_offset 3, -8
  36              		.cfi_offset 14, -4
  37              		.loc 1 491 3 view .LVU3
  38 0002 4FF0FF30 		mov	r0, #-1
  39 0006 FFF7FEFF 		bl	chEvtGetAndClearEvents
  40              	.LVL0:
  41              		.loc 1 492 3 is_stmt 1 view .LVU4
  42              	.LBB154:
  43              	.LBI154:
  44              		.file 2 "../../../os/rt/include/chevents.h"
  45              		.loc 2 170 20 view .LVU5
  46              	.LBB155:
  47              		.loc 2 172 3 view .LVU6
  48              		.loc 2 172 13 is_stmt 0 view .LVU7
  49 000a 024A     		ldr	r2, .L4
  50              	.LBE155:
  51              	.LBE154:
  52              	.LBB157:
  53              	.LBB158:
  54 000c 024B     		ldr	r3, .L4+4
  55              	.LBE158:
  56              	.LBE157:
  57              	.LBB160:
ARM GAS  /tmp/ccn1GwuO.s 			page 2


  58              	.LBB156:
  59 000e 1260     		str	r2, [r2]
  60              	.LVL1:
  61              		.loc 2 172 13 view .LVU8
  62              	.LBE156:
  63              	.LBE160:
  64              		.loc 1 493 3 is_stmt 1 view .LVU9
  65              	.LBB161:
  66              	.LBI157:
  67              		.loc 2 170 20 view .LVU10
  68              	.LBB159:
  69              		.loc 2 172 3 view .LVU11
  70              		.loc 2 172 13 is_stmt 0 view .LVU12
  71 0010 1B60     		str	r3, [r3]
  72              	.LVL2:
  73              		.loc 2 172 13 view .LVU13
  74              	.LBE159:
  75              	.LBE161:
  76              		.loc 1 494 1 view .LVU14
  77 0012 08BD     		pop	{r3, pc}
  78              	.L5:
  79              		.align	2
  80              	.L4:
  81 0014 00000000 		.word	.LANCHOR0
  82 0018 00000000 		.word	.LANCHOR1
  83              		.cfi_endproc
  84              	.LFE293:
  85              		.size	test_007_007_setup, .-test_007_007_setup
  86              		.section	.text.test_007_002_setup,"ax",%progbits
  87              		.align	1
  88              		.p2align 4,,15
  89              		.syntax unified
  90              		.thumb
  91              		.thumb_func
  92              		.fpu softvfp
  93              		.type	test_007_002_setup, %function
  94              	test_007_002_setup:
  95              	.LFB283:
  96              		.loc 1 157 38 is_stmt 1 view -0
  97              		.cfi_startproc
  98              		@ args = 0, pretend = 0, frame = 0
  99              		@ frame_needed = 0, uses_anonymous_args = 0
 100              		@ link register save eliminated.
 101              		.loc 1 158 3 view .LVU16
 102 0000 4FF0FF30 		mov	r0, #-1
 103 0004 FFF7FEBF 		b	chEvtGetAndClearEvents
 104              	.LVL3:
 105              		.cfi_endproc
 106              	.LFE283:
 107              		.size	test_007_002_setup, .-test_007_002_setup
 108              		.section	.text.evt_thread7,"ax",%progbits
 109              		.align	1
 110              		.p2align 4,,15
 111              		.syntax unified
 112              		.thumb
 113              		.thumb_func
 114              		.fpu softvfp
ARM GAS  /tmp/ccn1GwuO.s 			page 3


 115              		.type	evt_thread7, %function
 116              	evt_thread7:
 117              	.LVL4:
 118              	.LFB281:
 119              		.loc 1 69 37 view -0
 120              		.cfi_startproc
 121              		@ args = 0, pretend = 0, frame = 0
 122              		@ frame_needed = 0, uses_anonymous_args = 0
 123              		.loc 1 71 3 view .LVU18
 124              		.loc 1 72 3 view .LVU19
 125              	.LBB162:
 126              	.LBI162:
 127              		.loc 2 237 20 view .LVU20
 128              	.LBB163:
 129              		.loc 2 239 3 view .LVU21
 130              	.LBE163:
 131              	.LBE162:
 132              		.loc 1 69 37 is_stmt 0 view .LVU22
 133 0000 08B5     		push	{r3, lr}
 134              		.cfi_def_cfa_offset 8
 135              		.cfi_offset 3, -8
 136              		.cfi_offset 14, -4
 137              	.LBB165:
 138              	.LBB164:
 139              		.loc 2 239 3 view .LVU23
 140 0002 0021     		movs	r1, #0
 141 0004 0648     		ldr	r0, .L9
 142              	.LVL5:
 143              		.loc 2 239 3 view .LVU24
 144 0006 FFF7FEFF 		bl	chEvtBroadcastFlags
 145              	.LVL6:
 146              		.loc 2 239 3 view .LVU25
 147              	.LBE164:
 148              	.LBE165:
 149              		.loc 1 73 3 is_stmt 1 view .LVU26
 150 000a 4FF4FA70 		mov	r0, #500
 151 000e FFF7FEFF 		bl	chThdSleep
 152              	.LVL7:
 153              		.loc 1 74 3 view .LVU27
 154              	.LBB166:
 155              	.LBI166:
 156              		.loc 2 237 20 view .LVU28
 157              	.LBB167:
 158              		.loc 2 239 3 view .LVU29
 159              	.LBE167:
 160              	.LBE166:
 161              		.loc 1 75 1 is_stmt 0 view .LVU30
 162 0012 BDE80840 		pop	{r3, lr}
 163              		.cfi_restore 14
 164              		.cfi_restore 3
 165              		.cfi_def_cfa_offset 0
 166              	.LBB169:
 167              	.LBB168:
 168              		.loc 2 239 3 view .LVU31
 169 0016 0348     		ldr	r0, .L9+4
 170 0018 0021     		movs	r1, #0
 171 001a FFF7FEBF 		b	chEvtBroadcastFlags
ARM GAS  /tmp/ccn1GwuO.s 			page 4


 172              	.LVL8:
 173              	.L10:
 174 001e 00BF     		.align	2
 175              	.L9:
 176 0020 00000000 		.word	.LANCHOR0
 177 0024 00000000 		.word	.LANCHOR1
 178              	.LBE168:
 179              	.LBE169:
 180              		.cfi_endproc
 181              	.LFE281:
 182              		.size	evt_thread7, .-evt_thread7
 183              		.section	.rodata.test_007_007_execute.str1.4,"aMS",%progbits,1
 184              		.align	2
 185              	.LC0:
 186 0000 4100     		.ascii	"A\000"
 187 0002 0000     		.align	2
 188              	.LC1:
 189 0004 6F757420 		.ascii	"out of time window\000"
 189      6F662074 
 189      696D6520 
 189      77696E64 
 189      6F7700
 190 0017 00       		.align	2
 191              	.LC2:
 192 0018 73747563 		.ascii	"stuck event\000"
 192      6B206576 
 192      656E7400 
 193              		.align	2
 194              	.LC3:
 195 0024 73747563 		.ascii	"stuck listener\000"
 195      6B206C69 
 195      7374656E 
 195      657200
 196              		.section	.text.test_007_007_execute,"ax",%progbits
 197              		.align	1
 198              		.p2align 4,,15
 199              		.syntax unified
 200              		.thumb
 201              		.thumb_func
 202              		.fpu softvfp
 203              		.type	test_007_007_execute, %function
 204              	test_007_007_execute:
 205              	.LFB294:
 206              		.loc 1 496 40 is_stmt 1 view -0
 207              		.cfi_startproc
 208              		@ args = 0, pretend = 0, frame = 40
 209              		@ frame_needed = 0, uses_anonymous_args = 0
 210              		.loc 1 497 3 view .LVU33
 211              		.loc 1 498 3 view .LVU34
 212              		.loc 1 499 3 view .LVU35
 213              		.loc 1 503 3 view .LVU36
 214              		.loc 1 496 40 is_stmt 0 view .LVU37
 215 0000 F0B5     		push	{r4, r5, r6, r7, lr}
 216              		.cfi_def_cfa_offset 20
 217              		.cfi_offset 4, -20
 218              		.cfi_offset 5, -16
 219              		.cfi_offset 6, -12
ARM GAS  /tmp/ccn1GwuO.s 			page 5


 220              		.cfi_offset 7, -8
 221              		.cfi_offset 14, -4
 222              	.LBB170:
 223              	.LBB171:
 224              		.loc 2 193 3 view .LVU38
 225 0002 304E     		ldr	r6, .L17
 226              	.LBE171:
 227              	.LBE170:
 228              		.loc 1 503 3 view .LVU39
 229 0004 304D     		ldr	r5, .L17+4
 230              	.LBB174:
 231              	.LBB175:
 232              		.loc 2 193 3 view .LVU40
 233 0006 314F     		ldr	r7, .L17+8
 234              	.LBE175:
 235              	.LBE174:
 236              		.loc 1 496 40 view .LVU41
 237 0008 8DB0     		sub	sp, sp, #52
 238              		.cfi_def_cfa_offset 72
 239              		.loc 1 503 3 view .LVU42
 240 000a 0122     		movs	r2, #1
 241              	.LBB177:
 242              	.LBB172:
 243              		.loc 2 193 3 view .LVU43
 244 000c 4FF0FF33 		mov	r3, #-1
 245 0010 02A9     		add	r1, sp, #8
 246 0012 3046     		mov	r0, r6
 247              	.LBE172:
 248              	.LBE177:
 249              		.loc 1 503 3 view .LVU44
 250 0014 2A60     		str	r2, [r5]
 251              		.loc 1 505 5 is_stmt 1 view .LVU45
 252              	.LVL9:
 253              	.LBB178:
 254              	.LBI170:
 255              		.loc 2 189 20 view .LVU46
 256              	.LBB173:
 257              		.loc 2 193 3 view .LVU47
 258 0016 FFF7FEFF 		bl	chEvtRegisterMaskWithFlags
 259              	.LVL10:
 260              		.loc 2 193 3 is_stmt 0 view .LVU48
 261              	.LBE173:
 262              	.LBE178:
 263              		.loc 1 506 5 is_stmt 1 view .LVU49
 264              	.LBB179:
 265              	.LBI174:
 266              		.loc 2 189 20 view .LVU50
 267              	.LBB176:
 268              		.loc 2 193 3 view .LVU51
 269 001a 0422     		movs	r2, #4
 270 001c 07A9     		add	r1, sp, #28
 271              	.LVL11:
 272              		.loc 2 193 3 is_stmt 0 view .LVU52
 273 001e 4FF0FF33 		mov	r3, #-1
 274 0022 3846     		mov	r0, r7
 275 0024 FFF7FEFF 		bl	chEvtRegisterMaskWithFlags
 276              	.LVL12:
ARM GAS  /tmp/ccn1GwuO.s 			page 6


 277              		.loc 2 193 3 view .LVU53
 278              	.LBE176:
 279              	.LBE179:
 280              		.loc 1 512 3 is_stmt 1 view .LVU54
 281 0028 0223     		movs	r3, #2
 282 002a 2B60     		str	r3, [r5]
 283              		.loc 1 514 5 view .LVU55
 284              		.loc 1 514 19 is_stmt 0 view .LVU56
 285 002c FFF7FEFF 		bl	test_wait_tick
 286              	.LVL13:
 287              	.LBB180:
 288              	.LBB181:
 289              	.LBB182:
 290              	.LBB183:
 291              		.file 3 "../../../os/rt/include/chthreads.h"
 292              		.loc 3 286 18 view .LVU57
 293 0030 274B     		ldr	r3, .L17+12
 294              	.LBE183:
 295              	.LBE182:
 296              		.loc 3 299 25 view .LVU58
 297 0032 9B69     		ldr	r3, [r3, #24]
 298              	.LBE181:
 299              	.LBE180:
 300              		.loc 1 515 18 view .LVU59
 301 0034 9A68     		ldr	r2, [r3, #8]
 302 0036 274B     		ldr	r3, .L17+16
 303              		.loc 1 514 19 view .LVU60
 304 0038 0446     		mov	r4, r0
 305              	.LVL14:
 306              		.loc 1 515 5 is_stmt 1 view .LVU61
 307              	.LBB187:
 308              	.LBI180:
 309              		.loc 3 297 23 view .LVU62
 310              	.LBB186:
 311              		.loc 3 299 3 view .LVU63
 312              	.LBB185:
 313              	.LBI182:
 314              		.loc 3 284 25 view .LVU64
 315              	.LBB184:
 316              		.loc 3 286 3 view .LVU65
 317              	.LBE184:
 318              	.LBE185:
 319              	.LBE186:
 320              	.LBE187:
 321              		.loc 1 515 18 is_stmt 0 view .LVU66
 322 003a 1868     		ldr	r0, [r3]
 323              	.LVL15:
 324              		.loc 1 515 18 view .LVU67
 325 003c 264B     		ldr	r3, .L17+20
 326 003e 0093     		str	r3, [sp]
 327 0040 013A     		subs	r2, r2, #1
 328 0042 4FF4A471 		mov	r1, #328
 329 0046 254B     		ldr	r3, .L17+24
 330 0048 FFF7FEFF 		bl	chThdCreateStatic
 331              	.LVL16:
 332              		.loc 1 515 16 view .LVU68
 333 004c 244B     		ldr	r3, .L17+28
ARM GAS  /tmp/ccn1GwuO.s 			page 7


 334 004e 1860     		str	r0, [r3]
 335              		.loc 1 522 3 is_stmt 1 view .LVU69
 336 0050 0323     		movs	r3, #3
 337              		.loc 1 524 9 is_stmt 0 view .LVU70
 338 0052 0520     		movs	r0, #5
 339              		.loc 1 522 3 view .LVU71
 340 0054 2B60     		str	r3, [r5]
 341              		.loc 1 524 5 is_stmt 1 view .LVU72
 342              		.loc 1 524 9 is_stmt 0 view .LVU73
 343 0056 FFF7FEFF 		bl	chEvtWaitAll
 344              	.LVL17:
 345              		.loc 1 525 5 is_stmt 1 view .LVU74
 346 005a 224A     		ldr	r2, .L17+32
 347 005c 04F50271 		add	r1, r4, #520
 348 0060 04F5FA70 		add	r0, r4, #500
 349              	.LVL18:
 350              		.loc 1 525 5 is_stmt 0 view .LVU75
 351 0064 FFF7FEFF 		bl	_test_assert_time_window
 352              	.LVL19:
 353              		.loc 1 525 5 view .LVU76
 354 0068 08B1     		cbz	r0, .L16
 355              	.L11:
 356              		.loc 1 540 1 view .LVU77
 357 006a 0DB0     		add	sp, sp, #52
 358              		.cfi_remember_state
 359              		.cfi_def_cfa_offset 20
 360              		@ sp needed
 361 006c F0BD     		pop	{r4, r5, r6, r7, pc}
 362              	.LVL20:
 363              	.L16:
 364              		.cfi_restore_state
 365              		.loc 1 526 50 is_stmt 1 view .LVU78
 366              		.loc 1 527 5 view .LVU79
 367              		.loc 1 527 9 is_stmt 0 view .LVU80
 368 006e 4FF0FF30 		mov	r0, #-1
 369 0072 FFF7FEFF 		bl	chEvtGetAndClearEvents
 370              	.LVL21:
 371              		.loc 1 528 5 is_stmt 1 view .LVU81
 372 0076 B0FA80F0 		clz	r0, r0
 373              	.LVL22:
 374              		.loc 1 528 5 is_stmt 0 view .LVU82
 375 007a 1B49     		ldr	r1, .L17+36
 376 007c 4009     		lsrs	r0, r0, #5
 377 007e FFF7FEFF 		bl	_test_assert
 378              	.LVL23:
 379 0082 0028     		cmp	r0, #0
 380 0084 F1D1     		bne	.L11
 381              		.loc 1 528 39 is_stmt 1 discriminator 2 view .LVU83
 382              		.loc 1 529 5 discriminator 2 view .LVU84
 383 0086 FFF7FEFF 		bl	test_wait_threads
 384              	.LVL24:
 385              		.loc 1 533 3 discriminator 2 view .LVU85
 386 008a 0423     		movs	r3, #4
 387              		.loc 1 535 5 is_stmt 0 discriminator 2 view .LVU86
 388 008c 02A9     		add	r1, sp, #8
 389 008e 3046     		mov	r0, r6
 390              		.loc 1 533 3 discriminator 2 view .LVU87
ARM GAS  /tmp/ccn1GwuO.s 			page 8


 391 0090 2B60     		str	r3, [r5]
 392              		.loc 1 535 5 is_stmt 1 discriminator 2 view .LVU88
 393 0092 FFF7FEFF 		bl	chEvtUnregister
 394              	.LVL25:
 395              		.loc 1 536 5 discriminator 2 view .LVU89
 396 0096 07A9     		add	r1, sp, #28
 397 0098 3846     		mov	r0, r7
 398 009a FFF7FEFF 		bl	chEvtUnregister
 399              	.LVL26:
 400              		.loc 1 537 5 discriminator 2 view .LVU90
 401              	.LBB188:
 402              	.LBI188:
 403              		.loc 2 224 20 discriminator 2 view .LVU91
 404              	.LBB189:
 405              		.loc 2 226 3 discriminator 2 view .LVU92
 406              		.loc 2 226 3 is_stmt 0 discriminator 2 view .LVU93
 407              	.LBE189:
 408              	.LBE188:
 409              		.loc 1 537 5 discriminator 2 view .LVU94
 410 009e 3068     		ldr	r0, [r6]
 411 00a0 1249     		ldr	r1, .L17+40
 412 00a2 801B     		subs	r0, r0, r6
 413 00a4 B0FA80F0 		clz	r0, r0
 414 00a8 4009     		lsrs	r0, r0, #5
 415 00aa FFF7FEFF 		bl	_test_assert
 416              	.LVL27:
 417 00ae 0028     		cmp	r0, #0
 418 00b0 DBD1     		bne	.L11
 419              		.loc 1 537 60 is_stmt 1 view .LVU95
 420              		.loc 1 538 5 view .LVU96
 421              	.LVL28:
 422              	.LBB190:
 423              	.LBI190:
 424              		.loc 2 224 20 view .LVU97
 425              	.LBB191:
 426              		.loc 2 226 3 view .LVU98
 427              		.loc 2 226 3 is_stmt 0 view .LVU99
 428              	.LBE191:
 429              	.LBE190:
 430              		.loc 1 538 5 view .LVU100
 431 00b2 3868     		ldr	r0, [r7]
 432 00b4 0D49     		ldr	r1, .L17+40
 433 00b6 C01B     		subs	r0, r0, r7
 434 00b8 B0FA80F0 		clz	r0, r0
 435 00bc 4009     		lsrs	r0, r0, #5
 436 00be FFF7FEFF 		bl	_test_assert
 437              	.LVL29:
 438              		.loc 1 538 5 is_stmt 1 view .LVU101
 439 00c2 D2E7     		b	.L11
 440              	.L18:
 441              		.align	2
 442              	.L17:
 443 00c4 00000000 		.word	.LANCHOR0
 444 00c8 00000000 		.word	test_step
 445 00cc 00000000 		.word	.LANCHOR1
 446 00d0 00000000 		.word	ch
 447 00d4 00000000 		.word	wa
ARM GAS  /tmp/ccn1GwuO.s 			page 9


 448 00d8 00000000 		.word	.LC0
 449 00dc 00000000 		.word	evt_thread7
 450 00e0 00000000 		.word	threads
 451 00e4 04000000 		.word	.LC1
 452 00e8 18000000 		.word	.LC2
 453 00ec 24000000 		.word	.LC3
 454              		.cfi_endproc
 455              	.LFE294:
 456              		.size	test_007_007_execute, .-test_007_007_execute
 457              		.section	.rodata.test_007_001_execute.str1.4,"aMS",%progbits,1
 458              		.align	2
 459              	.LC4:
 460 0000 6E6F206C 		.ascii	"no listener\000"
 460      69737465 
 460      6E657200 
 461              		.section	.text.test_007_001_execute,"ax",%progbits
 462              		.align	1
 463              		.p2align 4,,15
 464              		.syntax unified
 465              		.thumb
 466              		.thumb_func
 467              		.fpu softvfp
 468              		.type	test_007_001_execute, %function
 469              	test_007_001_execute:
 470              	.LFB282:
 471              		.loc 1 102 40 view -0
 472              		.cfi_startproc
 473              		@ args = 0, pretend = 0, frame = 40
 474              		@ frame_needed = 0, uses_anonymous_args = 0
 475              		.loc 1 103 3 view .LVU103
 476              		.loc 1 106 3 view .LVU104
 477              		.loc 1 108 5 view .LVU105
 478              	.LVL30:
 479              	.LBB192:
 480              	.LBI192:
 481              		.loc 2 170 20 view .LVU106
 482              	.LBB193:
 483              		.loc 2 172 3 view .LVU107
 484              	.LBE193:
 485              	.LBE192:
 486              		.loc 1 102 40 is_stmt 0 view .LVU108
 487 0000 2DE9F041 		push	{r4, r5, r6, r7, r8, lr}
 488              		.cfi_def_cfa_offset 24
 489              		.cfi_offset 4, -24
 490              		.cfi_offset 5, -20
 491              		.cfi_offset 6, -16
 492              		.cfi_offset 7, -12
 493              		.cfi_offset 8, -8
 494              		.cfi_offset 14, -4
 495              	.LBB196:
 496              	.LBB194:
 497              		.loc 2 172 13 view .LVU109
 498 0004 2C4C     		ldr	r4, .L27
 499              	.LBE194:
 500              	.LBE196:
 501              		.loc 1 113 3 view .LVU110
 502 0006 2D4F     		ldr	r7, .L27+4
ARM GAS  /tmp/ccn1GwuO.s 			page 10


 503              	.LBB197:
 504              	.LBB195:
 505              		.loc 2 172 13 view .LVU111
 506 0008 2460     		str	r4, [r4]
 507              	.LVL31:
 508              		.loc 2 172 13 view .LVU112
 509              	.LBE195:
 510              	.LBE197:
 511              		.loc 1 113 3 is_stmt 1 view .LVU113
 512              		.loc 1 102 40 is_stmt 0 view .LVU114
 513 000a 8AB0     		sub	sp, sp, #40
 514              		.cfi_def_cfa_offset 64
 515              		.loc 1 113 3 view .LVU115
 516 000c 0225     		movs	r5, #2
 517              	.LBB198:
 518              	.LBB199:
 519              		.loc 2 193 3 view .LVU116
 520 000e 6946     		mov	r1, sp
 521 0010 2046     		mov	r0, r4
 522 0012 4FF0FF33 		mov	r3, #-1
 523 0016 0122     		movs	r2, #1
 524              	.LBE199:
 525              	.LBE198:
 526              		.loc 1 113 3 view .LVU117
 527 0018 3D60     		str	r5, [r7]
 528              		.loc 1 115 5 is_stmt 1 view .LVU118
 529              	.LVL32:
 530              	.LBB201:
 531              	.LBI198:
 532              		.loc 2 189 20 view .LVU119
 533              	.LBB200:
 534              		.loc 2 193 3 view .LVU120
 535 001a FFF7FEFF 		bl	chEvtRegisterMaskWithFlags
 536              	.LVL33:
 537              		.loc 2 193 3 is_stmt 0 view .LVU121
 538              	.LBE200:
 539              	.LBE201:
 540              		.loc 1 116 5 is_stmt 1 view .LVU122
 541              	.LBB202:
 542              	.LBI202:
 543              		.loc 2 189 20 view .LVU123
 544              	.LBB203:
 545              		.loc 2 193 3 view .LVU124
 546 001e 2A46     		mov	r2, r5
 547 0020 4FF0FF33 		mov	r3, #-1
 548 0024 05A9     		add	r1, sp, #20
 549              	.LVL34:
 550              		.loc 2 193 3 is_stmt 0 view .LVU125
 551 0026 2046     		mov	r0, r4
 552 0028 FFF7FEFF 		bl	chEvtRegisterMaskWithFlags
 553              	.LVL35:
 554              		.loc 2 193 3 view .LVU126
 555              	.LBE203:
 556              	.LBE202:
 557              		.loc 1 117 5 is_stmt 1 view .LVU127
 558              	.LBB204:
 559              	.LBI204:
ARM GAS  /tmp/ccn1GwuO.s 			page 11


 560              		.file 4 "../../../os/hal/osal/rt/osal.h"
 561              		.loc 4 491 20 view .LVU128
 562              	.LBE204:
 563              		.loc 4 493 3 view .LVU129
 564              	.LBB212:
 565              	.LBB205:
 566              	.LBI205:
 567              		.file 5 "../../../os/rt/include/chsys.h"
 568              		.loc 5 374 20 view .LVU130
 569              	.LBE205:
 570              	.LBE212:
 571              		.loc 5 376 3 view .LVU131
 572              	.LBB213:
 573              	.LBB210:
 574              	.LBB206:
 575              	.LBI206:
 576              		.file 6 "../../../os/common/ports/ARMCMx/chcore_v7m.h"
 577              		.loc 6 594 20 view .LVU132
 578              	.LBE206:
 579              	.LBE210:
 580              	.LBE213:
 581              		.loc 6 602 3 view .LVU133
 582              	.LBB214:
 583              	.LBB211:
 584              	.LBB209:
 585              	.LBB207:
 586              	.LBI207:
 587              		.file 7 "../../../os/common/ext/CMSIS/include/cmsis_gcc.h"
 588              		.loc 7 262 57 view .LVU134
 589              	.LBB208:
 590              		.loc 7 264 3 view .LVU135
 591 002c 2026     		movs	r6, #32
 592              		.syntax unified
 593              	@ 264 "../../../os/common/ext/CMSIS/include/cmsis_gcc.h" 1
 594 002e 86F31188 		MSR basepri, r6
 595              	@ 0 "" 2
 596              	.LVL36:
 597              		.loc 7 264 3 is_stmt 0 view .LVU136
 598              		.thumb
 599              		.syntax unified
 600              	.LBE208:
 601              	.LBE207:
 602              	.LBE209:
 603              	.LBE211:
 604              	.LBE214:
 605              		.loc 5 377 34 is_stmt 1 view .LVU137
 606              		.loc 5 378 20 view .LVU138
 607              		.loc 1 117 5 view .LVU139
 608              	.LBB215:
 609              	.LBI215:
 610              		.loc 2 224 20 view .LVU140
 611              	.LBB216:
 612              		.loc 2 226 3 view .LVU141
 613              		.loc 2 226 10 is_stmt 0 view .LVU142
 614 0032 2068     		ldr	r0, [r4]
 615              	.LBE216:
 616              	.LBE215:
ARM GAS  /tmp/ccn1GwuO.s 			page 12


 617              		.loc 1 117 5 view .LVU143
 618 0034 2249     		ldr	r1, .L27+8
 619 0036 001B     		subs	r0, r0, r4
 620 0038 18BF     		it	ne
 621 003a 0120     		movne	r0, #1
 622 003c FFF7FEFF 		bl	_test_assert
 623              	.LVL37:
 624 0040 28B1     		cbz	r0, .L20
 625              		.loc 1 117 5 is_stmt 1 view .LVU144
 626              	.LBB217:
 627              	.LBI217:
 628              		.loc 4 502 20 view .LVU145
 629              	.LBE217:
 630              		.loc 4 504 3 view .LVU146
 631              	.LBB226:
 632              	.LBB218:
 633              	.LBI218:
 634              		.loc 5 386 20 view .LVU147
 635              	.LBB219:
 636              		.loc 5 388 22 view .LVU148
 637              		.loc 5 389 33 view .LVU149
 638              		.loc 5 395 3 view .LVU150
 639              		.loc 5 395 3 view .LVU151
 640              		.loc 5 395 3 view .LVU152
 641              		.loc 5 399 3 view .LVU153
 642              	.LBB220:
 643              	.LBI220:
 644              		.loc 6 618 20 view .LVU154
 645              	.LBE220:
 646              	.LBE219:
 647              	.LBE218:
 648              	.LBE226:
 649              		.loc 6 621 3 view .LVU155
 650              	.LVL38:
 651              	.LBB227:
 652              	.LBB225:
 653              	.LBB224:
 654              	.LBB223:
 655              	.LBB221:
 656              	.LBI221:
 657              		.loc 7 262 57 view .LVU156
 658              	.LBB222:
 659              		.loc 7 264 3 view .LVU157
 660 0042 0023     		movs	r3, #0
 661              		.syntax unified
 662              	@ 264 "../../../os/common/ext/CMSIS/include/cmsis_gcc.h" 1
 663 0044 83F31188 		MSR basepri, r3
 664              	@ 0 "" 2
 665              	.LVL39:
 666              		.loc 7 264 3 is_stmt 0 view .LVU158
 667              		.thumb
 668              		.syntax unified
 669              	.LBE222:
 670              	.LBE221:
 671              	.LBE223:
 672              	.LBE224:
 673              	.LBE225:
ARM GAS  /tmp/ccn1GwuO.s 			page 13


 674              	.LBE227:
 675              		.loc 1 117 5 is_stmt 1 view .LVU159
 676              	.L19:
 677              		.loc 1 135 1 is_stmt 0 view .LVU160
 678 0048 0AB0     		add	sp, sp, #40
 679              		.cfi_remember_state
 680              		.cfi_def_cfa_offset 24
 681              		@ sp needed
 682 004a BDE8F081 		pop	{r4, r5, r6, r7, r8, pc}
 683              	.L20:
 684              		.cfi_restore_state
 685              		.loc 1 117 5 is_stmt 1 view .LVU161
 686              	.LBB228:
 687              	.LBI228:
 688              		.loc 4 502 20 view .LVU162
 689              	.LBE228:
 690              		.loc 4 504 3 view .LVU163
 691              	.LBB237:
 692              	.LBB229:
 693              	.LBI229:
 694              		.loc 5 386 20 view .LVU164
 695              	.LBB230:
 696              		.loc 5 388 22 view .LVU165
 697              		.loc 5 389 33 view .LVU166
 698              		.loc 5 395 3 view .LVU167
 699              		.loc 5 395 3 view .LVU168
 700              		.loc 5 395 3 view .LVU169
 701              		.loc 5 399 3 view .LVU170
 702              	.LBB231:
 703              	.LBI231:
 704              		.loc 6 618 20 view .LVU171
 705              	.LBE231:
 706              	.LBE230:
 707              	.LBE229:
 708              	.LBE237:
 709              		.loc 6 621 3 view .LVU172
 710              	.LVL40:
 711              	.LBB238:
 712              	.LBB236:
 713              	.LBB235:
 714              	.LBB234:
 715              	.LBB232:
 716              	.LBI232:
 717              		.loc 7 262 57 view .LVU173
 718              	.LBB233:
 719              		.loc 7 264 3 view .LVU174
 720 004e 0546     		mov	r5, r0
 721              		.syntax unified
 722              	@ 264 "../../../os/common/ext/CMSIS/include/cmsis_gcc.h" 1
 723 0050 80F31188 		MSR basepri, r0
 724              	@ 0 "" 2
 725              	.LVL41:
 726              		.loc 7 264 3 is_stmt 0 view .LVU175
 727              		.thumb
 728              		.syntax unified
 729              	.LBE233:
 730              	.LBE232:
ARM GAS  /tmp/ccn1GwuO.s 			page 14


 731              	.LBE234:
 732              	.LBE235:
 733              	.LBE236:
 734              	.LBE238:
 735              		.loc 1 117 61 is_stmt 1 view .LVU176
 736              		.loc 1 122 3 view .LVU177
 737 0054 0323     		movs	r3, #3
 738              		.loc 1 124 5 is_stmt 0 view .LVU178
 739 0056 6946     		mov	r1, sp
 740 0058 2046     		mov	r0, r4
 741              		.loc 1 122 3 view .LVU179
 742 005a 3B60     		str	r3, [r7]
 743              		.loc 1 124 5 is_stmt 1 view .LVU180
 744 005c FFF7FEFF 		bl	chEvtUnregister
 745              	.LVL42:
 746              		.loc 1 125 5 view .LVU181
 747              	.LBB239:
 748              	.LBI239:
 749              		.loc 4 491 20 view .LVU182
 750              	.LBE239:
 751              		.loc 4 493 3 view .LVU183
 752              	.LBB247:
 753              	.LBB240:
 754              	.LBI240:
 755              		.loc 5 374 20 view .LVU184
 756              	.LBE240:
 757              	.LBE247:
 758              		.loc 5 376 3 view .LVU185
 759              	.LBB248:
 760              	.LBB245:
 761              	.LBB241:
 762              	.LBI241:
 763              		.loc 6 594 20 view .LVU186
 764              	.LBE241:
 765              	.LBE245:
 766              	.LBE248:
 767              		.loc 6 602 3 view .LVU187
 768              	.LBB249:
 769              	.LBB246:
 770              	.LBB244:
 771              	.LBB242:
 772              	.LBI242:
 773              		.loc 7 262 57 view .LVU188
 774              	.LBB243:
 775              		.loc 7 264 3 view .LVU189
 776              		.syntax unified
 777              	@ 264 "../../../os/common/ext/CMSIS/include/cmsis_gcc.h" 1
 778 0060 86F31188 		MSR basepri, r6
 779              	@ 0 "" 2
 780              	.LVL43:
 781              		.loc 7 264 3 is_stmt 0 view .LVU190
 782              		.thumb
 783              		.syntax unified
 784              	.LBE243:
 785              	.LBE242:
 786              	.LBE244:
 787              	.LBE246:
ARM GAS  /tmp/ccn1GwuO.s 			page 15


 788              	.LBE249:
 789              		.loc 5 377 34 is_stmt 1 view .LVU191
 790              		.loc 5 378 20 view .LVU192
 791              		.loc 1 125 5 view .LVU193
 792              	.LBB250:
 793              	.LBI250:
 794              		.loc 2 224 20 view .LVU194
 795              	.LBB251:
 796              		.loc 2 226 3 view .LVU195
 797              		.loc 2 226 10 is_stmt 0 view .LVU196
 798 0064 2068     		ldr	r0, [r4]
 799              	.LBE251:
 800              	.LBE250:
 801              		.loc 1 125 5 view .LVU197
 802 0066 1649     		ldr	r1, .L27+8
 803 0068 001B     		subs	r0, r0, r4
 804 006a 18BF     		it	ne
 805 006c 0120     		movne	r0, #1
 806 006e FFF7FEFF 		bl	_test_assert
 807              	.LVL44:
 808 0072 8046     		mov	r8, r0
 809 0074 20B1     		cbz	r0, .L22
 810              		.loc 1 125 5 is_stmt 1 view .LVU198
 811              	.LBB252:
 812              	.LBI252:
 813              		.loc 4 502 20 view .LVU199
 814              	.LBE252:
 815              		.loc 4 504 3 view .LVU200
 816              	.LBB261:
 817              	.LBB253:
 818              	.LBI253:
 819              		.loc 5 386 20 view .LVU201
 820              	.LBB254:
 821              		.loc 5 388 22 view .LVU202
 822              		.loc 5 389 33 view .LVU203
 823              		.loc 5 395 3 view .LVU204
 824              		.loc 5 395 3 view .LVU205
 825              		.loc 5 395 3 view .LVU206
 826              		.loc 5 399 3 view .LVU207
 827              	.LBB255:
 828              	.LBI255:
 829              		.loc 6 618 20 view .LVU208
 830              	.LBE255:
 831              	.LBE254:
 832              	.LBE253:
 833              	.LBE261:
 834              		.loc 6 621 3 view .LVU209
 835              	.LVL45:
 836              	.LBB262:
 837              	.LBB260:
 838              	.LBB259:
 839              	.LBB258:
 840              	.LBB256:
 841              	.LBI256:
 842              		.loc 7 262 57 view .LVU210
 843              	.LBB257:
 844              		.loc 7 264 3 view .LVU211
ARM GAS  /tmp/ccn1GwuO.s 			page 16


 845              		.syntax unified
 846              	@ 264 "../../../os/common/ext/CMSIS/include/cmsis_gcc.h" 1
 847 0076 85F31188 		MSR basepri, r5
 848              	@ 0 "" 2
 849              	.LVL46:
 850              		.loc 7 264 3 is_stmt 0 view .LVU212
 851              		.thumb
 852              		.syntax unified
 853              	.LBE257:
 854              	.LBE256:
 855              	.LBE258:
 856              	.LBE259:
 857              	.LBE260:
 858              	.LBE262:
 859              		.loc 1 125 5 is_stmt 1 view .LVU213
 860              		.loc 1 135 1 is_stmt 0 view .LVU214
 861 007a 0AB0     		add	sp, sp, #40
 862              		.cfi_remember_state
 863              		.cfi_def_cfa_offset 24
 864              		@ sp needed
 865 007c BDE8F081 		pop	{r4, r5, r6, r7, r8, pc}
 866              	.L22:
 867              		.cfi_restore_state
 868              		.loc 1 125 5 is_stmt 1 view .LVU215
 869              	.LBB263:
 870              	.LBI263:
 871              		.loc 4 502 20 view .LVU216
 872              	.LBE263:
 873              		.loc 4 504 3 view .LVU217
 874              	.LBB272:
 875              	.LBB264:
 876              	.LBI264:
 877              		.loc 5 386 20 view .LVU218
 878              	.LBB265:
 879              		.loc 5 388 22 view .LVU219
 880              		.loc 5 389 33 view .LVU220
 881              		.loc 5 395 3 view .LVU221
 882              		.loc 5 395 3 view .LVU222
 883              		.loc 5 395 3 view .LVU223
 884              		.loc 5 399 3 view .LVU224
 885              	.LBB266:
 886              	.LBI266:
 887              		.loc 6 618 20 view .LVU225
 888              	.LBE266:
 889              	.LBE265:
 890              	.LBE264:
 891              	.LBE272:
 892              		.loc 6 621 3 view .LVU226
 893              	.LVL47:
 894              	.LBB273:
 895              	.LBB271:
 896              	.LBB270:
 897              	.LBB269:
 898              	.LBB267:
 899              	.LBI267:
 900              		.loc 7 262 57 view .LVU227
 901              	.LBB268:
ARM GAS  /tmp/ccn1GwuO.s 			page 17


 902              		.loc 7 264 3 view .LVU228
 903              		.syntax unified
 904              	@ 264 "../../../os/common/ext/CMSIS/include/cmsis_gcc.h" 1
 905 0080 80F31188 		MSR basepri, r0
 906              	@ 0 "" 2
 907              	.LVL48:
 908              		.loc 7 264 3 is_stmt 0 view .LVU229
 909              		.thumb
 910              		.syntax unified
 911              	.LBE268:
 912              	.LBE267:
 913              	.LBE269:
 914              	.LBE270:
 915              	.LBE271:
 916              	.LBE273:
 917              		.loc 1 125 61 is_stmt 1 view .LVU230
 918              		.loc 1 130 3 view .LVU231
 919 0084 0423     		movs	r3, #4
 920              		.loc 1 132 5 is_stmt 0 view .LVU232
 921 0086 05A9     		add	r1, sp, #20
 922 0088 2046     		mov	r0, r4
 923              		.loc 1 130 3 view .LVU233
 924 008a 3B60     		str	r3, [r7]
 925              		.loc 1 132 5 is_stmt 1 view .LVU234
 926 008c FFF7FEFF 		bl	chEvtUnregister
 927              	.LVL49:
 928              		.loc 1 133 5 view .LVU235
 929              	.LBB274:
 930              	.LBI274:
 931              		.loc 4 491 20 view .LVU236
 932              	.LBE274:
 933              		.loc 4 493 3 view .LVU237
 934              	.LBB282:
 935              	.LBB275:
 936              	.LBI275:
 937              		.loc 5 374 20 view .LVU238
 938              	.LBE275:
 939              	.LBE282:
 940              		.loc 5 376 3 view .LVU239
 941              	.LBB283:
 942              	.LBB280:
 943              	.LBB276:
 944              	.LBI276:
 945              		.loc 6 594 20 view .LVU240
 946              	.LBE276:
 947              	.LBE280:
 948              	.LBE283:
 949              		.loc 6 602 3 view .LVU241
 950              	.LBB284:
 951              	.LBB281:
 952              	.LBB279:
 953              	.LBB277:
 954              	.LBI277:
 955              		.loc 7 262 57 view .LVU242
 956              	.LBB278:
 957              		.loc 7 264 3 view .LVU243
 958              		.syntax unified
ARM GAS  /tmp/ccn1GwuO.s 			page 18


 959              	@ 264 "../../../os/common/ext/CMSIS/include/cmsis_gcc.h" 1
 960 0090 86F31188 		MSR basepri, r6
 961              	@ 0 "" 2
 962              	.LVL50:
 963              		.loc 7 264 3 is_stmt 0 view .LVU244
 964              		.thumb
 965              		.syntax unified
 966              	.LBE278:
 967              	.LBE277:
 968              	.LBE279:
 969              	.LBE281:
 970              	.LBE284:
 971              		.loc 5 377 34 is_stmt 1 view .LVU245
 972              		.loc 5 378 20 view .LVU246
 973              		.loc 1 133 5 view .LVU247
 974              	.LBB285:
 975              	.LBI285:
 976              		.loc 2 224 20 view .LVU248
 977              	.LBB286:
 978              		.loc 2 226 3 view .LVU249
 979              		.loc 2 226 3 is_stmt 0 view .LVU250
 980              	.LBE286:
 981              	.LBE285:
 982              		.loc 1 133 5 view .LVU251
 983 0094 2068     		ldr	r0, [r4]
 984 0096 0B49     		ldr	r1, .L27+12
 985 0098 001B     		subs	r0, r0, r4
 986 009a B0FA80F0 		clz	r0, r0
 987 009e 4009     		lsrs	r0, r0, #5
 988 00a0 FFF7FEFF 		bl	_test_assert
 989              	.LVL51:
 990 00a4 20B9     		cbnz	r0, .L26
 991              		.loc 1 133 5 is_stmt 1 view .LVU252
 992              	.LBB287:
 993              	.LBI287:
 994              		.loc 4 502 20 view .LVU253
 995              	.LBE287:
 996              		.loc 4 504 3 view .LVU254
 997              	.LBB296:
 998              	.LBB288:
 999              	.LBI288:
 1000              		.loc 5 386 20 view .LVU255
 1001              	.LBB289:
 1002              		.loc 5 388 22 view .LVU256
 1003              		.loc 5 389 33 view .LVU257
 1004              		.loc 5 395 3 view .LVU258
 1005              		.loc 5 395 3 view .LVU259
 1006              		.loc 5 395 3 view .LVU260
 1007              		.loc 5 399 3 view .LVU261
 1008              	.LBB290:
 1009              	.LBI290:
 1010              		.loc 6 618 20 view .LVU262
 1011              	.LBE290:
 1012              	.LBE289:
 1013              	.LBE288:
 1014              	.LBE296:
 1015              		.loc 6 621 3 view .LVU263
ARM GAS  /tmp/ccn1GwuO.s 			page 19


 1016              	.LVL52:
 1017              	.LBB297:
 1018              	.LBB295:
 1019              	.LBB294:
 1020              	.LBB293:
 1021              	.LBB291:
 1022              	.LBI291:
 1023              		.loc 7 262 57 view .LVU264
 1024              	.LBB292:
 1025              		.loc 7 264 3 view .LVU265
 1026              		.syntax unified
 1027              	@ 264 "../../../os/common/ext/CMSIS/include/cmsis_gcc.h" 1
 1028 00a6 80F31188 		MSR basepri, r0
 1029              	@ 0 "" 2
 1030              	.LVL53:
 1031              		.loc 7 264 3 is_stmt 0 view .LVU266
 1032              		.thumb
 1033              		.syntax unified
 1034              	.LBE292:
 1035              	.LBE291:
 1036              	.LBE293:
 1037              	.LBE294:
 1038              	.LBE295:
 1039              	.LBE297:
 1040              		.loc 1 133 65 is_stmt 1 view .LVU267
 1041              		.loc 1 135 1 is_stmt 0 view .LVU268
 1042 00aa 0AB0     		add	sp, sp, #40
 1043              		.cfi_remember_state
 1044              		.cfi_def_cfa_offset 24
 1045              		@ sp needed
 1046 00ac BDE8F081 		pop	{r4, r5, r6, r7, r8, pc}
 1047              	.L26:
 1048              		.cfi_restore_state
 1049              		.loc 1 133 5 is_stmt 1 view .LVU269
 1050              	.LBB298:
 1051              	.LBI298:
 1052              		.loc 4 502 20 view .LVU270
 1053              	.LBE298:
 1054              		.loc 4 504 3 view .LVU271
 1055              	.LBB307:
 1056              	.LBB299:
 1057              	.LBI299:
 1058              		.loc 5 386 20 view .LVU272
 1059              	.LBB300:
 1060              		.loc 5 388 22 view .LVU273
 1061              		.loc 5 389 33 view .LVU274
 1062              		.loc 5 395 3 view .LVU275
 1063              		.loc 5 395 3 view .LVU276
 1064              		.loc 5 395 3 view .LVU277
 1065              		.loc 5 399 3 view .LVU278
 1066              	.LBB301:
 1067              	.LBI301:
 1068              		.loc 6 618 20 view .LVU279
 1069              	.LBE301:
 1070              	.LBE300:
 1071              	.LBE299:
 1072              	.LBE307:
ARM GAS  /tmp/ccn1GwuO.s 			page 20


 1073              		.loc 6 621 3 view .LVU280
 1074              	.LVL54:
 1075              	.LBB308:
 1076              	.LBB306:
 1077              	.LBB305:
 1078              	.LBB304:
 1079              	.LBB302:
 1080              	.LBI302:
 1081              		.loc 7 262 57 view .LVU281
 1082              	.LBB303:
 1083              		.loc 7 264 3 view .LVU282
 1084              		.syntax unified
 1085              	@ 264 "../../../os/common/ext/CMSIS/include/cmsis_gcc.h" 1
 1086 00b0 88F31188 		MSR basepri, r8
 1087              	@ 0 "" 2
 1088              	.LVL55:
 1089              		.loc 7 264 3 is_stmt 0 view .LVU283
 1090              		.thumb
 1091              		.syntax unified
 1092              	.LBE303:
 1093              	.LBE302:
 1094              	.LBE304:
 1095              	.LBE305:
 1096              	.LBE306:
 1097              	.LBE308:
 1098              		.loc 1 133 5 is_stmt 1 view .LVU284
 1099 00b4 C8E7     		b	.L19
 1100              	.L28:
 1101 00b6 00BF     		.align	2
 1102              	.L27:
 1103 00b8 00000000 		.word	.LANCHOR0
 1104 00bc 00000000 		.word	test_step
 1105 00c0 00000000 		.word	.LC4
 1106 00c4 24000000 		.word	.LC3
 1107              		.cfi_endproc
 1108              	.LFE282:
 1109              		.size	test_007_001_execute, .-test_007_001_execute
 1110              		.section	.text.evt_thread3,"ax",%progbits
 1111              		.align	1
 1112              		.p2align 4,,15
 1113              		.syntax unified
 1114              		.thumb
 1115              		.thumb_func
 1116              		.fpu softvfp
 1117              		.type	evt_thread3, %function
 1118              	evt_thread3:
 1119              	.LVL56:
 1120              	.LFB280:
 1121              		.loc 1 63 37 view -0
 1122              		.cfi_startproc
 1123              		@ args = 0, pretend = 0, frame = 0
 1124              		@ frame_needed = 0, uses_anonymous_args = 0
 1125              		.loc 1 65 3 view .LVU286
 1126              		.loc 1 63 37 is_stmt 0 view .LVU287
 1127 0000 10B5     		push	{r4, lr}
 1128              		.cfi_def_cfa_offset 8
 1129              		.cfi_offset 4, -8
ARM GAS  /tmp/ccn1GwuO.s 			page 21


 1130              		.cfi_offset 14, -4
 1131              		.loc 1 63 37 view .LVU288
 1132 0002 0446     		mov	r4, r0
 1133              		.loc 1 65 3 view .LVU289
 1134 0004 4FF4FA70 		mov	r0, #500
 1135              	.LVL57:
 1136              		.loc 1 65 3 view .LVU290
 1137 0008 FFF7FEFF 		bl	chThdSleep
 1138              	.LVL58:
 1139              		.loc 1 66 3 is_stmt 1 view .LVU291
 1140 000c 2046     		mov	r0, r4
 1141 000e 0121     		movs	r1, #1
 1142              		.loc 1 67 1 is_stmt 0 view .LVU292
 1143 0010 BDE81040 		pop	{r4, lr}
 1144              		.cfi_restore 14
 1145              		.cfi_restore 4
 1146              		.cfi_def_cfa_offset 0
 1147              	.LVL59:
 1148              		.loc 1 66 3 view .LVU293
 1149 0014 FFF7FEBF 		b	chEvtSignal
 1150              	.LVL60:
 1151              		.loc 1 66 3 view .LVU294
 1152              		.cfi_endproc
 1153              	.LFE280:
 1154              		.size	evt_thread3, .-evt_thread3
 1155              		.section	.rodata.test_007_002_execute.str1.4,"aMS",%progbits,1
 1156              		.align	2
 1157              	.LC5:
 1158 0000 696E7661 		.ascii	"invalid sequence\000"
 1158      6C696420 
 1158      73657175 
 1158      656E6365 
 1158      00
 1159 0011 000000   		.align	2
 1160              	.LC6:
 1161 0014 41424300 		.ascii	"ABC\000"
 1162              		.section	.text.test_007_002_execute,"ax",%progbits
 1163              		.align	1
 1164              		.p2align 4,,15
 1165              		.syntax unified
 1166              		.thumb
 1167              		.thumb_func
 1168              		.fpu softvfp
 1169              		.type	test_007_002_execute, %function
 1170              	test_007_002_execute:
 1171              	.LFB284:
 1172              		.loc 1 161 40 is_stmt 1 view -0
 1173              		.cfi_startproc
 1174              		@ args = 0, pretend = 0, frame = 0
 1175              		@ frame_needed = 0, uses_anonymous_args = 0
 1176              		.loc 1 165 3 view .LVU296
 1177              		.loc 1 161 40 is_stmt 0 view .LVU297
 1178 0000 08B5     		push	{r3, lr}
 1179              		.cfi_def_cfa_offset 8
 1180              		.cfi_offset 3, -8
 1181              		.cfi_offset 14, -4
 1182              		.loc 1 165 3 view .LVU298
ARM GAS  /tmp/ccn1GwuO.s 			page 22


 1183 0002 064B     		ldr	r3, .L33
 1184              		.loc 1 167 5 view .LVU299
 1185 0004 0648     		ldr	r0, .L33+4
 1186 0006 0721     		movs	r1, #7
 1187              		.loc 1 165 3 view .LVU300
 1188 0008 0122     		movs	r2, #1
 1189 000a 1A60     		str	r2, [r3]
 1190              		.loc 1 167 5 is_stmt 1 view .LVU301
 1191 000c FFF7FEFF 		bl	chEvtDispatch
 1192              	.LVL61:
 1193              		.loc 1 168 5 view .LVU302
 1194              		.loc 1 170 1 is_stmt 0 view .LVU303
 1195 0010 BDE80840 		pop	{r3, lr}
 1196              		.cfi_restore 14
 1197              		.cfi_restore 3
 1198              		.cfi_def_cfa_offset 0
 1199              		.loc 1 168 5 view .LVU304
 1200 0014 0349     		ldr	r1, .L33+8
 1201 0016 0448     		ldr	r0, .L33+12
 1202 0018 FFF7FEBF 		b	_test_assert_sequence
 1203              	.LVL62:
 1204              	.L34:
 1205              		.align	2
 1206              	.L33:
 1207 001c 00000000 		.word	test_step
 1208 0020 00000000 		.word	.LANCHOR2
 1209 0024 00000000 		.word	.LC5
 1210 0028 14000000 		.word	.LC6
 1211              		.cfi_endproc
 1212              	.LFE284:
 1213              		.size	test_007_002_execute, .-test_007_002_execute
 1214              		.section	.text.h3,"ax",%progbits
 1215              		.align	1
 1216              		.p2align 4,,15
 1217              		.syntax unified
 1218              		.thumb
 1219              		.thumb_func
 1220              		.fpu softvfp
 1221              		.type	h3, %function
 1222              	h3:
 1223              	.LVL63:
 1224              	.LFB279:
 1225              		.loc 1 60 30 is_stmt 1 view -0
 1226              		.cfi_startproc
 1227              		@ args = 0, pretend = 0, frame = 0
 1228              		@ frame_needed = 0, uses_anonymous_args = 0
 1229              		@ link register save eliminated.
 1230              		.loc 1 60 31 view .LVU306
 1231              		.loc 1 60 40 view .LVU307
 1232 0000 4320     		movs	r0, #67
 1233              	.LVL64:
 1234              		.loc 1 60 40 is_stmt 0 view .LVU308
 1235 0002 FFF7FEBF 		b	test_emit_token
 1236              	.LVL65:
 1237              		.cfi_endproc
 1238              	.LFE279:
 1239              		.size	h3, .-h3
ARM GAS  /tmp/ccn1GwuO.s 			page 23


 1240 0006 00BF     		.section	.text.h2,"ax",%progbits
 1241              		.align	1
 1242              		.p2align 4,,15
 1243              		.syntax unified
 1244              		.thumb
 1245              		.thumb_func
 1246              		.fpu softvfp
 1247              		.type	h2, %function
 1248              	h2:
 1249              	.LVL66:
 1250              	.LFB278:
 1251              		.loc 1 59 30 is_stmt 1 view -0
 1252              		.cfi_startproc
 1253              		@ args = 0, pretend = 0, frame = 0
 1254              		@ frame_needed = 0, uses_anonymous_args = 0
 1255              		@ link register save eliminated.
 1256              		.loc 1 59 31 view .LVU310
 1257              		.loc 1 59 40 view .LVU311
 1258 0000 4220     		movs	r0, #66
 1259              	.LVL67:
 1260              		.loc 1 59 40 is_stmt 0 view .LVU312
 1261 0002 FFF7FEBF 		b	test_emit_token
 1262              	.LVL68:
 1263              		.cfi_endproc
 1264              	.LFE278:
 1265              		.size	h2, .-h2
 1266 0006 00BF     		.section	.text.h1,"ax",%progbits
 1267              		.align	1
 1268              		.p2align 4,,15
 1269              		.syntax unified
 1270              		.thumb
 1271              		.thumb_func
 1272              		.fpu softvfp
 1273              		.type	h1, %function
 1274              	h1:
 1275              	.LVL69:
 1276              	.LFB277:
 1277              		.loc 1 58 30 is_stmt 1 view -0
 1278              		.cfi_startproc
 1279              		@ args = 0, pretend = 0, frame = 0
 1280              		@ frame_needed = 0, uses_anonymous_args = 0
 1281              		@ link register save eliminated.
 1282              		.loc 1 58 31 view .LVU314
 1283              		.loc 1 58 40 view .LVU315
 1284 0000 4120     		movs	r0, #65
 1285              	.LVL70:
 1286              		.loc 1 58 40 is_stmt 0 view .LVU316
 1287 0002 FFF7FEBF 		b	test_emit_token
 1288              	.LVL71:
 1289              		.cfi_endproc
 1290              	.LFE277:
 1291              		.size	h1, .-h1
 1292 0006 00BF     		.section	.rodata.test_007_006_execute.str1.4,"aMS",%progbits,1
 1293              		.align	2
 1294              	.LC7:
 1295 0000 73707572 		.ascii	"spurious event\000"
 1295      696F7573 
ARM GAS  /tmp/ccn1GwuO.s 			page 24


 1295      20657665 
 1295      6E7400
 1296              		.section	.text.test_007_006_execute,"ax",%progbits
 1297              		.align	1
 1298              		.p2align 4,,15
 1299              		.syntax unified
 1300              		.thumb
 1301              		.thumb_func
 1302              		.fpu softvfp
 1303              		.type	test_007_006_execute, %function
 1304              	test_007_006_execute:
 1305              	.LFB292:
 1306              		.loc 1 435 40 is_stmt 1 view -0
 1307              		.cfi_startproc
 1308              		@ args = 0, pretend = 0, frame = 0
 1309              		@ frame_needed = 0, uses_anonymous_args = 0
 1310              		.loc 1 436 3 view .LVU318
 1311              		.loc 1 440 3 view .LVU319
 1312              		.loc 1 435 40 is_stmt 0 view .LVU320
 1313 0000 10B5     		push	{r4, lr}
 1314              		.cfi_def_cfa_offset 8
 1315              		.cfi_offset 4, -8
 1316              		.cfi_offset 14, -4
 1317              		.loc 1 440 3 view .LVU321
 1318 0002 2B4C     		ldr	r4, .L44
 1319              		.loc 1 442 9 view .LVU322
 1320 0004 0021     		movs	r1, #0
 1321              		.loc 1 440 3 view .LVU323
 1322 0006 0123     		movs	r3, #1
 1323              		.loc 1 442 9 view .LVU324
 1324 0008 4FF0FF30 		mov	r0, #-1
 1325              		.loc 1 440 3 view .LVU325
 1326 000c 2360     		str	r3, [r4]
 1327              		.loc 1 442 5 is_stmt 1 view .LVU326
 1328              		.loc 1 442 9 is_stmt 0 view .LVU327
 1329 000e FFF7FEFF 		bl	chEvtWaitOneTimeout
 1330              	.LVL72:
 1331              		.loc 1 443 5 is_stmt 1 view .LVU328
 1332 0012 B0FA80F0 		clz	r0, r0
 1333              	.LVL73:
 1334              		.loc 1 443 5 is_stmt 0 view .LVU329
 1335 0016 2749     		ldr	r1, .L44+4
 1336 0018 4009     		lsrs	r0, r0, #5
 1337 001a FFF7FEFF 		bl	_test_assert
 1338              	.LVL74:
 1339 001e 00B1     		cbz	r0, .L43
 1340              	.L38:
 1341              		.loc 1 461 1 view .LVU330
 1342 0020 10BD     		pop	{r4, pc}
 1343              	.L43:
 1344              	.LBB311:
 1345              	.LBI311:
 1346              		.loc 1 435 13 is_stmt 1 view .LVU331
 1347              	.LBB312:
 1348              		.loc 1 443 42 view .LVU332
 1349              		.loc 1 444 5 view .LVU333
 1350              		.loc 1 444 9 is_stmt 0 view .LVU334
ARM GAS  /tmp/ccn1GwuO.s 			page 25


 1351 0022 0146     		mov	r1, r0
 1352 0024 4FF0FF30 		mov	r0, #-1
 1353 0028 FFF7FEFF 		bl	chEvtWaitAnyTimeout
 1354              	.LVL75:
 1355              		.loc 1 445 5 is_stmt 1 view .LVU335
 1356 002c B0FA80F0 		clz	r0, r0
 1357              	.LVL76:
 1358              		.loc 1 445 5 is_stmt 0 view .LVU336
 1359 0030 2049     		ldr	r1, .L44+4
 1360 0032 4009     		lsrs	r0, r0, #5
 1361 0034 FFF7FEFF 		bl	_test_assert
 1362              	.LVL77:
 1363 0038 0028     		cmp	r0, #0
 1364 003a F1D1     		bne	.L38
 1365              		.loc 1 445 42 is_stmt 1 view .LVU337
 1366              		.loc 1 446 5 view .LVU338
 1367              		.loc 1 446 9 is_stmt 0 view .LVU339
 1368 003c 0146     		mov	r1, r0
 1369 003e 4FF0FF30 		mov	r0, #-1
 1370 0042 FFF7FEFF 		bl	chEvtWaitAllTimeout
 1371              	.LVL78:
 1372              		.loc 1 447 5 is_stmt 1 view .LVU340
 1373 0046 B0FA80F0 		clz	r0, r0
 1374              	.LVL79:
 1375              		.loc 1 447 5 is_stmt 0 view .LVU341
 1376 004a 1A49     		ldr	r1, .L44+4
 1377 004c 4009     		lsrs	r0, r0, #5
 1378 004e FFF7FEFF 		bl	_test_assert
 1379              	.LVL80:
 1380 0052 0028     		cmp	r0, #0
 1381 0054 E4D1     		bne	.L38
 1382              		.loc 1 447 42 is_stmt 1 view .LVU342
 1383              		.loc 1 452 3 view .LVU343
 1384              		.loc 1 454 9 is_stmt 0 view .LVU344
 1385 0056 4FF4FA71 		mov	r1, #500
 1386              		.loc 1 452 3 view .LVU345
 1387 005a 0223     		movs	r3, #2
 1388              		.loc 1 454 9 view .LVU346
 1389 005c 4FF0FF30 		mov	r0, #-1
 1390              		.loc 1 452 3 view .LVU347
 1391 0060 2360     		str	r3, [r4]
 1392              		.loc 1 454 5 is_stmt 1 view .LVU348
 1393              		.loc 1 454 9 is_stmt 0 view .LVU349
 1394 0062 FFF7FEFF 		bl	chEvtWaitOneTimeout
 1395              	.LVL81:
 1396              		.loc 1 455 5 is_stmt 1 view .LVU350
 1397 0066 B0FA80F0 		clz	r0, r0
 1398              	.LVL82:
 1399              		.loc 1 455 5 is_stmt 0 view .LVU351
 1400 006a 1249     		ldr	r1, .L44+4
 1401 006c 4009     		lsrs	r0, r0, #5
 1402 006e FFF7FEFF 		bl	_test_assert
 1403              	.LVL83:
 1404 0072 0028     		cmp	r0, #0
 1405 0074 D4D1     		bne	.L38
 1406              		.loc 1 455 42 is_stmt 1 view .LVU352
 1407              		.loc 1 456 5 view .LVU353
ARM GAS  /tmp/ccn1GwuO.s 			page 26


 1408              		.loc 1 456 9 is_stmt 0 view .LVU354
 1409 0076 4FF4FA71 		mov	r1, #500
 1410 007a 4FF0FF30 		mov	r0, #-1
 1411 007e FFF7FEFF 		bl	chEvtWaitAnyTimeout
 1412              	.LVL84:
 1413              		.loc 1 457 5 is_stmt 1 view .LVU355
 1414 0082 B0FA80F0 		clz	r0, r0
 1415              	.LVL85:
 1416              		.loc 1 457 5 is_stmt 0 view .LVU356
 1417 0086 0B49     		ldr	r1, .L44+4
 1418 0088 4009     		lsrs	r0, r0, #5
 1419 008a FFF7FEFF 		bl	_test_assert
 1420              	.LVL86:
 1421 008e 0028     		cmp	r0, #0
 1422 0090 C6D1     		bne	.L38
 1423              		.loc 1 457 42 is_stmt 1 view .LVU357
 1424              		.loc 1 458 5 view .LVU358
 1425              		.loc 1 458 9 is_stmt 0 view .LVU359
 1426 0092 4FF4FA71 		mov	r1, #500
 1427 0096 4FF0FF30 		mov	r0, #-1
 1428 009a FFF7FEFF 		bl	chEvtWaitAllTimeout
 1429              	.LVL87:
 1430              		.loc 1 459 5 is_stmt 1 view .LVU360
 1431 009e B0FA80F0 		clz	r0, r0
 1432              	.LVL88:
 1433              		.loc 1 459 5 is_stmt 0 view .LVU361
 1434              	.LBE312:
 1435              	.LBE311:
 1436              		.loc 1 461 1 view .LVU362
 1437 00a2 BDE81040 		pop	{r4, lr}
 1438              		.cfi_restore 14
 1439              		.cfi_restore 4
 1440              		.cfi_def_cfa_offset 0
 1441              	.LBB314:
 1442              	.LBB313:
 1443              		.loc 1 459 5 view .LVU363
 1444 00a6 0349     		ldr	r1, .L44+4
 1445 00a8 4009     		lsrs	r0, r0, #5
 1446 00aa FFF7FEBF 		b	_test_assert
 1447              	.LVL89:
 1448              	.L45:
 1449 00ae 00BF     		.align	2
 1450              	.L44:
 1451 00b0 00000000 		.word	test_step
 1452 00b4 00000000 		.word	.LC7
 1453              	.LBE313:
 1454              	.LBE314:
 1455              		.cfi_endproc
 1456              	.LFE292:
 1457              		.size	test_007_006_execute, .-test_007_006_execute
 1458              		.section	.rodata.test_007_005_execute.str1.4,"aMS",%progbits,1
 1459              		.align	2
 1460              	.LC8:
 1461 0000 756E6578 		.ascii	"unexpected pending bit\000"
 1461      70656374 
 1461      65642070 
 1461      656E6469 
ARM GAS  /tmp/ccn1GwuO.s 			page 27


 1461      6E672062 
 1462 0017 00       		.align	2
 1463              	.LC9:
 1464 0018 6576656E 		.ascii	"event flags error\000"
 1464      7420666C 
 1464      61677320 
 1464      6572726F 
 1464      7200
 1465              		.section	.text.test_007_005_execute,"ax",%progbits
 1466              		.align	1
 1467              		.p2align 4,,15
 1468              		.syntax unified
 1469              		.thumb
 1470              		.thumb_func
 1471              		.fpu softvfp
 1472              		.type	test_007_005_execute, %function
 1473              	test_007_005_execute:
 1474              	.LFB290:
 1475              		.loc 1 352 40 is_stmt 1 view -0
 1476              		.cfi_startproc
 1477              		@ args = 0, pretend = 0, frame = 0
 1478              		@ frame_needed = 0, uses_anonymous_args = 0
 1479              		.loc 1 353 3 view .LVU365
 1480              		.loc 1 354 3 view .LVU366
 1481              		.loc 1 357 3 view .LVU367
 1482              		.loc 1 352 40 is_stmt 0 view .LVU368
 1483 0000 30B5     		push	{r4, r5, lr}
 1484              		.cfi_def_cfa_offset 12
 1485              		.cfi_offset 4, -12
 1486              		.cfi_offset 5, -8
 1487              		.cfi_offset 14, -4
 1488              		.loc 1 357 3 view .LVU369
 1489 0002 324C     		ldr	r4, .L52
 1490              		.loc 1 352 40 view .LVU370
 1491 0004 83B0     		sub	sp, sp, #12
 1492              		.cfi_def_cfa_offset 24
 1493              		.loc 1 357 3 view .LVU371
 1494 0006 0123     		movs	r3, #1
 1495              		.loc 1 359 5 view .LVU372
 1496 0008 0520     		movs	r0, #5
 1497              		.loc 1 357 3 view .LVU373
 1498 000a 2360     		str	r3, [r4]
 1499              		.loc 1 359 5 is_stmt 1 view .LVU374
 1500 000c FFF7FEFF 		bl	chEvtAddEvents
 1501              	.LVL90:
 1502              		.loc 1 364 3 view .LVU375
 1503 0010 0223     		movs	r3, #2
 1504              		.loc 1 366 9 is_stmt 0 view .LVU376
 1505 0012 0520     		movs	r0, #5
 1506              		.loc 1 364 3 view .LVU377
 1507 0014 2360     		str	r3, [r4]
 1508              		.loc 1 366 5 is_stmt 1 view .LVU378
 1509              		.loc 1 366 9 is_stmt 0 view .LVU379
 1510 0016 FFF7FEFF 		bl	chEvtWaitAll
 1511              	.LVL91:
 1512              		.loc 1 367 5 is_stmt 1 view .LVU380
 1513 001a A0F10500 		sub	r0, #5
ARM GAS  /tmp/ccn1GwuO.s 			page 28


 1514              	.LVL92:
 1515              		.loc 1 367 5 is_stmt 0 view .LVU381
 1516 001e B0FA80F0 		clz	r0, r0
 1517              	.LVL93:
 1518              		.loc 1 367 5 view .LVU382
 1519 0022 2B49     		ldr	r1, .L52+4
 1520 0024 4009     		lsrs	r0, r0, #5
 1521 0026 FFF7FEFF 		bl	_test_assert
 1522              	.LVL94:
 1523 002a 08B1     		cbz	r0, .L51
 1524              	.L46:
 1525              		.loc 1 400 1 view .LVU383
 1526 002c 03B0     		add	sp, sp, #12
 1527              		.cfi_remember_state
 1528              		.cfi_def_cfa_offset 12
 1529              		@ sp needed
 1530 002e 30BD     		pop	{r4, r5, pc}
 1531              	.L51:
 1532              		.cfi_restore_state
 1533              	.LBB323:
 1534              	.LBI323:
 1535              		.loc 1 352 13 is_stmt 1 view .LVU384
 1536              	.LBB324:
 1537              		.loc 1 367 50 view .LVU385
 1538              		.loc 1 368 5 view .LVU386
 1539              		.loc 1 368 9 is_stmt 0 view .LVU387
 1540 0030 4FF0FF30 		mov	r0, #-1
 1541 0034 FFF7FEFF 		bl	chEvtGetAndClearEvents
 1542              	.LVL95:
 1543              		.loc 1 369 5 is_stmt 1 view .LVU388
 1544 0038 B0FA80F0 		clz	r0, r0
 1545              	.LVL96:
 1546              		.loc 1 369 5 is_stmt 0 view .LVU389
 1547 003c 2549     		ldr	r1, .L52+8
 1548 003e 4009     		lsrs	r0, r0, #5
 1549 0040 FFF7FEFF 		bl	_test_assert
 1550              	.LVL97:
 1551 0044 0028     		cmp	r0, #0
 1552 0046 F1D1     		bne	.L46
 1553              		.loc 1 369 39 is_stmt 1 view .LVU390
 1554              		.loc 1 373 3 view .LVU391
 1555 0048 0323     		movs	r3, #3
 1556              		.loc 1 375 5 is_stmt 0 view .LVU392
 1557 004a 0420     		movs	r0, #4
 1558              		.loc 1 373 3 view .LVU393
 1559 004c 2360     		str	r3, [r4]
 1560              		.loc 1 375 5 is_stmt 1 view .LVU394
 1561 004e FFF7FEFF 		bl	chEvtAddEvents
 1562              	.LVL98:
 1563              		.loc 1 380 3 view .LVU395
 1564 0052 0423     		movs	r3, #4
 1565 0054 2360     		str	r3, [r4]
 1566              		.loc 1 382 5 view .LVU396
 1567              		.loc 1 382 19 is_stmt 0 view .LVU397
 1568 0056 FFF7FEFF 		bl	test_wait_tick
 1569              	.LVL99:
 1570              	.LBB325:
ARM GAS  /tmp/ccn1GwuO.s 			page 29


 1571              	.LBB326:
 1572              	.LBB327:
 1573              	.LBB328:
 1574              		.loc 3 286 18 view .LVU398
 1575 005a 1F4B     		ldr	r3, .L52+12
 1576 005c 9969     		ldr	r1, [r3, #24]
 1577              	.LBE328:
 1578              	.LBE327:
 1579              	.LBE326:
 1580              	.LBE325:
 1581              		.loc 1 383 18 view .LVU399
 1582 005e 1F4B     		ldr	r3, .L52+16
 1583 0060 8A68     		ldr	r2, [r1, #8]
 1584 0062 0091     		str	r1, [sp]
 1585              		.loc 1 382 19 view .LVU400
 1586 0064 0546     		mov	r5, r0
 1587              		.loc 1 383 18 view .LVU401
 1588 0066 1E48     		ldr	r0, .L52+20
 1589 0068 4FF4A471 		mov	r1, #328
 1590 006c 013A     		subs	r2, r2, #1
 1591 006e 0068     		ldr	r0, [r0]
 1592              	.LVL100:
 1593              		.loc 1 383 5 is_stmt 1 view .LVU402
 1594              	.LBB332:
 1595              	.LBI325:
 1596              		.loc 3 297 23 view .LVU403
 1597              	.LBB331:
 1598              		.loc 3 299 3 view .LVU404
 1599              	.LBB330:
 1600              	.LBI327:
 1601              		.loc 3 284 25 view .LVU405
 1602              	.LBB329:
 1603              		.loc 3 286 3 view .LVU406
 1604              	.LBE329:
 1605              	.LBE330:
 1606              	.LBE331:
 1607              	.LBE332:
 1608              	.LBE324:
 1609              	.LBE323:
 1610              		.loc 3 286 3 view .LVU407
 1611              	.LBB335:
 1612              	.LBB333:
 1613              		.loc 1 383 18 is_stmt 0 view .LVU408
 1614 0070 FFF7FEFF 		bl	chThdCreateStatic
 1615              	.LVL101:
 1616              		.loc 1 383 16 view .LVU409
 1617 0074 1B4B     		ldr	r3, .L52+24
 1618              		.loc 1 383 18 view .LVU410
 1619 0076 0246     		mov	r2, r0
 1620              		.loc 1 383 16 view .LVU411
 1621 0078 1A60     		str	r2, [r3]
 1622              		.loc 1 390 3 is_stmt 1 view .LVU412
 1623              		.loc 1 392 5 view .LVU413
 1624              		.loc 1 390 3 is_stmt 0 view .LVU414
 1625 007a 0520     		movs	r0, #5
 1626 007c 2060     		str	r0, [r4]
 1627              		.loc 1 392 9 view .LVU415
ARM GAS  /tmp/ccn1GwuO.s 			page 30


 1628 007e FFF7FEFF 		bl	chEvtWaitAll
 1629              	.LVL102:
 1630              		.loc 1 393 5 view .LVU416
 1631 0082 194A     		ldr	r2, .L52+28
 1632              		.loc 1 392 9 view .LVU417
 1633 0084 0446     		mov	r4, r0
 1634              		.loc 1 393 5 view .LVU418
 1635 0086 05F50271 		add	r1, r5, #520
 1636 008a 05F5FA70 		add	r0, r5, #500
 1637              	.LVL103:
 1638              		.loc 1 393 5 is_stmt 1 view .LVU419
 1639 008e FFF7FEFF 		bl	_test_assert_time_window
 1640              	.LVL104:
 1641              		.loc 1 393 5 is_stmt 0 view .LVU420
 1642 0092 0028     		cmp	r0, #0
 1643 0094 CAD1     		bne	.L46
 1644              		.loc 1 394 50 is_stmt 1 view .LVU421
 1645              		.loc 1 395 5 view .LVU422
 1646 0096 A4F10500 		sub	r0, r4, #5
 1647 009a B0FA80F0 		clz	r0, r0
 1648 009e 1349     		ldr	r1, .L52+32
 1649 00a0 4009     		lsrs	r0, r0, #5
 1650 00a2 FFF7FEFF 		bl	_test_assert
 1651              	.LVL105:
 1652 00a6 0028     		cmp	r0, #0
 1653 00a8 C0D1     		bne	.L46
 1654              		.loc 1 395 45 view .LVU423
 1655              		.loc 1 396 5 view .LVU424
 1656              		.loc 1 396 9 is_stmt 0 view .LVU425
 1657 00aa 4FF0FF30 		mov	r0, #-1
 1658 00ae FFF7FEFF 		bl	chEvtGetAndClearEvents
 1659              	.LVL106:
 1660              		.loc 1 397 5 is_stmt 1 view .LVU426
 1661 00b2 B0FA80F0 		clz	r0, r0
 1662              	.LVL107:
 1663              		.loc 1 397 5 is_stmt 0 view .LVU427
 1664 00b6 0749     		ldr	r1, .L52+8
 1665 00b8 4009     		lsrs	r0, r0, #5
 1666 00ba FFF7FEFF 		bl	_test_assert
 1667              	.LVL108:
 1668 00be 0028     		cmp	r0, #0
 1669 00c0 B4D1     		bne	.L46
 1670              		.loc 1 397 39 is_stmt 1 view .LVU428
 1671              		.loc 1 398 5 view .LVU429
 1672              	.LBE333:
 1673              	.LBE335:
 1674              		.loc 1 400 1 is_stmt 0 view .LVU430
 1675 00c2 03B0     		add	sp, sp, #12
 1676              		.cfi_def_cfa_offset 12
 1677              		@ sp needed
 1678 00c4 BDE83040 		pop	{r4, r5, lr}
 1679              		.cfi_restore 14
 1680              		.cfi_restore 5
 1681              		.cfi_restore 4
 1682              		.cfi_def_cfa_offset 0
 1683              	.LVL109:
 1684              	.LBB336:
ARM GAS  /tmp/ccn1GwuO.s 			page 31


 1685              	.LBB334:
 1686              		.loc 1 398 5 view .LVU431
 1687 00c8 FFF7FEBF 		b	test_wait_threads
 1688              	.LVL110:
 1689              	.L53:
 1690              		.align	2
 1691              	.L52:
 1692 00cc 00000000 		.word	test_step
 1693 00d0 00000000 		.word	.LC8
 1694 00d4 18000000 		.word	.LC2
 1695 00d8 00000000 		.word	ch
 1696 00dc 00000000 		.word	evt_thread3
 1697 00e0 00000000 		.word	wa
 1698 00e4 00000000 		.word	threads
 1699 00e8 04000000 		.word	.LC1
 1700 00ec 18000000 		.word	.LC9
 1701              	.LBE334:
 1702              	.LBE336:
 1703              		.cfi_endproc
 1704              	.LFE290:
 1705              		.size	test_007_005_execute, .-test_007_005_execute
 1706              		.section	.rodata.test_007_004_execute.str1.4,"aMS",%progbits,1
 1707              		.align	2
 1708              	.LC10:
 1709 0000 6576656E 		.ascii	"event flag error\000"
 1709      7420666C 
 1709      61672065 
 1709      72726F72 
 1709      00
 1710              		.section	.text.test_007_004_execute,"ax",%progbits
 1711              		.align	1
 1712              		.p2align 4,,15
 1713              		.syntax unified
 1714              		.thumb
 1715              		.thumb_func
 1716              		.fpu softvfp
 1717              		.type	test_007_004_execute, %function
 1718              	test_007_004_execute:
 1719              	.LFB288:
 1720              		.loc 1 278 40 is_stmt 1 view -0
 1721              		.cfi_startproc
 1722              		@ args = 0, pretend = 0, frame = 0
 1723              		@ frame_needed = 0, uses_anonymous_args = 0
 1724              		.loc 1 279 3 view .LVU433
 1725              		.loc 1 280 3 view .LVU434
 1726              		.loc 1 283 3 view .LVU435
 1727              		.loc 1 278 40 is_stmt 0 view .LVU436
 1728 0000 30B5     		push	{r4, r5, lr}
 1729              		.cfi_def_cfa_offset 12
 1730              		.cfi_offset 4, -12
 1731              		.cfi_offset 5, -8
 1732              		.cfi_offset 14, -4
 1733              		.loc 1 283 3 view .LVU437
 1734 0002 314C     		ldr	r4, .L60
 1735              		.loc 1 278 40 view .LVU438
 1736 0004 83B0     		sub	sp, sp, #12
 1737              		.cfi_def_cfa_offset 24
ARM GAS  /tmp/ccn1GwuO.s 			page 32


 1738              		.loc 1 283 3 view .LVU439
 1739 0006 0123     		movs	r3, #1
 1740              		.loc 1 285 5 view .LVU440
 1741 0008 0520     		movs	r0, #5
 1742              		.loc 1 283 3 view .LVU441
 1743 000a 2360     		str	r3, [r4]
 1744              		.loc 1 285 5 is_stmt 1 view .LVU442
 1745 000c FFF7FEFF 		bl	chEvtAddEvents
 1746              	.LVL111:
 1747              		.loc 1 290 3 view .LVU443
 1748 0010 0223     		movs	r3, #2
 1749              		.loc 1 292 9 is_stmt 0 view .LVU444
 1750 0012 4FF0FF30 		mov	r0, #-1
 1751              		.loc 1 290 3 view .LVU445
 1752 0016 2360     		str	r3, [r4]
 1753              		.loc 1 292 5 is_stmt 1 view .LVU446
 1754              		.loc 1 292 9 is_stmt 0 view .LVU447
 1755 0018 FFF7FEFF 		bl	chEvtWaitAny
 1756              	.LVL112:
 1757              		.loc 1 293 5 is_stmt 1 view .LVU448
 1758 001c A0F10500 		sub	r0, #5
 1759              	.LVL113:
 1760              		.loc 1 293 5 is_stmt 0 view .LVU449
 1761 0020 B0FA80F0 		clz	r0, r0
 1762              	.LVL114:
 1763              		.loc 1 293 5 view .LVU450
 1764 0024 2949     		ldr	r1, .L60+4
 1765 0026 4009     		lsrs	r0, r0, #5
 1766 0028 FFF7FEFF 		bl	_test_assert
 1767              	.LVL115:
 1768 002c 08B1     		cbz	r0, .L59
 1769              	.L54:
 1770              		.loc 1 320 1 view .LVU451
 1771 002e 03B0     		add	sp, sp, #12
 1772              		.cfi_remember_state
 1773              		.cfi_def_cfa_offset 12
 1774              		@ sp needed
 1775 0030 30BD     		pop	{r4, r5, pc}
 1776              	.L59:
 1777              		.cfi_restore_state
 1778              	.LBB345:
 1779              	.LBI345:
 1780              		.loc 1 278 13 is_stmt 1 view .LVU452
 1781              	.LBB346:
 1782              		.loc 1 293 50 view .LVU453
 1783              		.loc 1 294 5 view .LVU454
 1784              		.loc 1 294 9 is_stmt 0 view .LVU455
 1785 0032 4FF0FF30 		mov	r0, #-1
 1786 0036 FFF7FEFF 		bl	chEvtGetAndClearEvents
 1787              	.LVL116:
 1788              		.loc 1 295 5 is_stmt 1 view .LVU456
 1789 003a B0FA80F0 		clz	r0, r0
 1790              	.LVL117:
 1791              		.loc 1 295 5 is_stmt 0 view .LVU457
 1792 003e 2449     		ldr	r1, .L60+8
 1793 0040 4009     		lsrs	r0, r0, #5
 1794 0042 FFF7FEFF 		bl	_test_assert
ARM GAS  /tmp/ccn1GwuO.s 			page 33


 1795              	.LVL118:
 1796 0046 0028     		cmp	r0, #0
 1797 0048 F1D1     		bne	.L54
 1798              		.loc 1 295 39 is_stmt 1 view .LVU458
 1799              		.loc 1 300 3 view .LVU459
 1800 004a 0323     		movs	r3, #3
 1801 004c 2360     		str	r3, [r4]
 1802              		.loc 1 302 5 view .LVU460
 1803              		.loc 1 302 19 is_stmt 0 view .LVU461
 1804 004e FFF7FEFF 		bl	test_wait_tick
 1805              	.LVL119:
 1806              	.LBB347:
 1807              	.LBB348:
 1808              	.LBB349:
 1809              	.LBB350:
 1810              		.loc 3 286 18 view .LVU462
 1811 0052 204B     		ldr	r3, .L60+12
 1812 0054 9969     		ldr	r1, [r3, #24]
 1813              	.LBE350:
 1814              	.LBE349:
 1815              	.LBE348:
 1816              	.LBE347:
 1817              		.loc 1 303 18 view .LVU463
 1818 0056 204B     		ldr	r3, .L60+16
 1819 0058 8A68     		ldr	r2, [r1, #8]
 1820 005a 0091     		str	r1, [sp]
 1821              		.loc 1 302 19 view .LVU464
 1822 005c 0546     		mov	r5, r0
 1823              		.loc 1 303 18 view .LVU465
 1824 005e 1F48     		ldr	r0, .L60+20
 1825 0060 4FF4A471 		mov	r1, #328
 1826 0064 013A     		subs	r2, r2, #1
 1827 0066 0068     		ldr	r0, [r0]
 1828              	.LVL120:
 1829              		.loc 1 303 5 is_stmt 1 view .LVU466
 1830              	.LBB354:
 1831              	.LBI347:
 1832              		.loc 3 297 23 view .LVU467
 1833              	.LBB353:
 1834              		.loc 3 299 3 view .LVU468
 1835              	.LBB352:
 1836              	.LBI349:
 1837              		.loc 3 284 25 view .LVU469
 1838              	.LBB351:
 1839              		.loc 3 286 3 view .LVU470
 1840              	.LBE351:
 1841              	.LBE352:
 1842              	.LBE353:
 1843              	.LBE354:
 1844              	.LBE346:
 1845              	.LBE345:
 1846              		.loc 3 286 3 view .LVU471
 1847              	.LBB357:
 1848              	.LBB355:
 1849              		.loc 1 303 18 is_stmt 0 view .LVU472
 1850 0068 FFF7FEFF 		bl	chThdCreateStatic
 1851              	.LVL121:
ARM GAS  /tmp/ccn1GwuO.s 			page 34


 1852              		.loc 1 303 16 view .LVU473
 1853 006c 1C4A     		ldr	r2, .L60+24
 1854              		.loc 1 310 3 view .LVU474
 1855 006e 0423     		movs	r3, #4
 1856              		.loc 1 303 16 view .LVU475
 1857 0070 1060     		str	r0, [r2]
 1858              		.loc 1 310 3 is_stmt 1 view .LVU476
 1859              		.loc 1 312 9 is_stmt 0 view .LVU477
 1860 0072 4FF0FF30 		mov	r0, #-1
 1861              		.loc 1 310 3 view .LVU478
 1862 0076 2360     		str	r3, [r4]
 1863              		.loc 1 312 5 is_stmt 1 view .LVU479
 1864              		.loc 1 312 9 is_stmt 0 view .LVU480
 1865 0078 FFF7FEFF 		bl	chEvtWaitAny
 1866              	.LVL122:
 1867              		.loc 1 313 5 view .LVU481
 1868 007c 194A     		ldr	r2, .L60+28
 1869              		.loc 1 312 9 view .LVU482
 1870 007e 0446     		mov	r4, r0
 1871              		.loc 1 313 5 view .LVU483
 1872 0080 05F50271 		add	r1, r5, #520
 1873 0084 05F5FA70 		add	r0, r5, #500
 1874              	.LVL123:
 1875              		.loc 1 313 5 is_stmt 1 view .LVU484
 1876 0088 FFF7FEFF 		bl	_test_assert_time_window
 1877              	.LVL124:
 1878              		.loc 1 313 5 is_stmt 0 view .LVU485
 1879 008c 0028     		cmp	r0, #0
 1880 008e CED1     		bne	.L54
 1881              		.loc 1 314 50 is_stmt 1 view .LVU486
 1882              		.loc 1 315 5 view .LVU487
 1883 0090 A4F10100 		sub	r0, r4, #1
 1884 0094 B0FA80F0 		clz	r0, r0
 1885 0098 1349     		ldr	r1, .L60+32
 1886 009a 4009     		lsrs	r0, r0, #5
 1887 009c FFF7FEFF 		bl	_test_assert
 1888              	.LVL125:
 1889 00a0 0028     		cmp	r0, #0
 1890 00a2 C4D1     		bne	.L54
 1891              		.loc 1 315 44 view .LVU488
 1892              		.loc 1 316 5 view .LVU489
 1893              		.loc 1 316 9 is_stmt 0 view .LVU490
 1894 00a4 4FF0FF30 		mov	r0, #-1
 1895 00a8 FFF7FEFF 		bl	chEvtGetAndClearEvents
 1896              	.LVL126:
 1897              		.loc 1 317 5 is_stmt 1 view .LVU491
 1898 00ac B0FA80F0 		clz	r0, r0
 1899              	.LVL127:
 1900              		.loc 1 317 5 is_stmt 0 view .LVU492
 1901 00b0 0749     		ldr	r1, .L60+8
 1902 00b2 4009     		lsrs	r0, r0, #5
 1903 00b4 FFF7FEFF 		bl	_test_assert
 1904              	.LVL128:
 1905 00b8 0028     		cmp	r0, #0
 1906 00ba B8D1     		bne	.L54
 1907              		.loc 1 317 39 is_stmt 1 view .LVU493
 1908              		.loc 1 318 5 view .LVU494
ARM GAS  /tmp/ccn1GwuO.s 			page 35


 1909              	.LBE355:
 1910              	.LBE357:
 1911              		.loc 1 320 1 is_stmt 0 view .LVU495
 1912 00bc 03B0     		add	sp, sp, #12
 1913              		.cfi_def_cfa_offset 12
 1914              		@ sp needed
 1915 00be BDE83040 		pop	{r4, r5, lr}
 1916              		.cfi_restore 14
 1917              		.cfi_restore 5
 1918              		.cfi_restore 4
 1919              		.cfi_def_cfa_offset 0
 1920              	.LVL129:
 1921              	.LBB358:
 1922              	.LBB356:
 1923              		.loc 1 318 5 view .LVU496
 1924 00c2 FFF7FEBF 		b	test_wait_threads
 1925              	.LVL130:
 1926              	.L61:
 1927 00c6 00BF     		.align	2
 1928              	.L60:
 1929 00c8 00000000 		.word	test_step
 1930 00cc 00000000 		.word	.LC8
 1931 00d0 18000000 		.word	.LC2
 1932 00d4 00000000 		.word	ch
 1933 00d8 00000000 		.word	evt_thread3
 1934 00dc 00000000 		.word	wa
 1935 00e0 00000000 		.word	threads
 1936 00e4 04000000 		.word	.LC1
 1937 00e8 00000000 		.word	.LC10
 1938              	.LBE356:
 1939              	.LBE358:
 1940              		.cfi_endproc
 1941              	.LFE288:
 1942              		.size	test_007_004_execute, .-test_007_004_execute
 1943              		.section	.rodata.test_007_003_execute.str1.4,"aMS",%progbits,1
 1944              		.align	2
 1945              	.LC11:
 1946 0000 73696E67 		.ascii	"single event error\000"
 1946      6C652065 
 1946      76656E74 
 1946      20657272 
 1946      6F7200
 1947              		.section	.text.test_007_003_execute,"ax",%progbits
 1948              		.align	1
 1949              		.p2align 4,,15
 1950              		.syntax unified
 1951              		.thumb
 1952              		.thumb_func
 1953              		.fpu softvfp
 1954              		.type	test_007_003_execute, %function
 1955              	test_007_003_execute:
 1956              	.LFB286:
 1957              		.loc 1 201 40 is_stmt 1 view -0
 1958              		.cfi_startproc
 1959              		@ args = 0, pretend = 0, frame = 0
 1960              		@ frame_needed = 0, uses_anonymous_args = 0
 1961              		.loc 1 202 3 view .LVU498
ARM GAS  /tmp/ccn1GwuO.s 			page 36


 1962              		.loc 1 203 3 view .LVU499
 1963              		.loc 1 206 3 view .LVU500
 1964              		.loc 1 201 40 is_stmt 0 view .LVU501
 1965 0000 30B5     		push	{r4, r5, lr}
 1966              		.cfi_def_cfa_offset 12
 1967              		.cfi_offset 4, -12
 1968              		.cfi_offset 5, -8
 1969              		.cfi_offset 14, -4
 1970              		.loc 1 206 3 view .LVU502
 1971 0002 3F4C     		ldr	r4, .L68
 1972              		.loc 1 201 40 view .LVU503
 1973 0004 83B0     		sub	sp, sp, #12
 1974              		.cfi_def_cfa_offset 24
 1975              		.loc 1 206 3 view .LVU504
 1976 0006 0123     		movs	r3, #1
 1977              		.loc 1 208 5 view .LVU505
 1978 0008 0720     		movs	r0, #7
 1979              		.loc 1 206 3 view .LVU506
 1980 000a 2360     		str	r3, [r4]
 1981              		.loc 1 208 5 is_stmt 1 view .LVU507
 1982 000c FFF7FEFF 		bl	chEvtAddEvents
 1983              	.LVL131:
 1984              		.loc 1 213 3 view .LVU508
 1985 0010 0223     		movs	r3, #2
 1986              		.loc 1 215 9 is_stmt 0 view .LVU509
 1987 0012 4FF0FF30 		mov	r0, #-1
 1988              		.loc 1 213 3 view .LVU510
 1989 0016 2360     		str	r3, [r4]
 1990              		.loc 1 215 5 is_stmt 1 view .LVU511
 1991              		.loc 1 215 9 is_stmt 0 view .LVU512
 1992 0018 FFF7FEFF 		bl	chEvtWaitOne
 1993              	.LVL132:
 1994              		.loc 1 216 5 is_stmt 1 view .LVU513
 1995 001c A0F10100 		sub	r0, #1
 1996              	.LVL133:
 1997              		.loc 1 216 5 is_stmt 0 view .LVU514
 1998 0020 B0FA80F0 		clz	r0, r0
 1999              	.LVL134:
 2000              		.loc 1 216 5 view .LVU515
 2001 0024 3749     		ldr	r1, .L68+4
 2002 0026 4009     		lsrs	r0, r0, #5
 2003 0028 FFF7FEFF 		bl	_test_assert
 2004              	.LVL135:
 2005 002c 08B1     		cbz	r0, .L67
 2006              	.L62:
 2007              		.loc 1 247 1 view .LVU516
 2008 002e 03B0     		add	sp, sp, #12
 2009              		.cfi_remember_state
 2010              		.cfi_def_cfa_offset 12
 2011              		@ sp needed
 2012 0030 30BD     		pop	{r4, r5, pc}
 2013              	.L67:
 2014              		.cfi_restore_state
 2015              	.LBB367:
 2016              	.LBI367:
 2017              		.loc 1 201 13 is_stmt 1 view .LVU517
 2018              	.LBB368:
ARM GAS  /tmp/ccn1GwuO.s 			page 37


 2019              		.loc 1 216 46 view .LVU518
 2020              		.loc 1 217 5 view .LVU519
 2021              		.loc 1 217 9 is_stmt 0 view .LVU520
 2022 0032 4FF0FF30 		mov	r0, #-1
 2023 0036 FFF7FEFF 		bl	chEvtWaitOne
 2024              	.LVL136:
 2025              		.loc 1 218 5 is_stmt 1 view .LVU521
 2026 003a A0F10200 		sub	r0, #2
 2027              	.LVL137:
 2028              		.loc 1 218 5 is_stmt 0 view .LVU522
 2029 003e B0FA80F0 		clz	r0, r0
 2030              	.LVL138:
 2031              		.loc 1 218 5 view .LVU523
 2032 0042 3049     		ldr	r1, .L68+4
 2033 0044 4009     		lsrs	r0, r0, #5
 2034 0046 FFF7FEFF 		bl	_test_assert
 2035              	.LVL139:
 2036 004a 0028     		cmp	r0, #0
 2037 004c EFD1     		bne	.L62
 2038              		.loc 1 218 46 is_stmt 1 view .LVU524
 2039              		.loc 1 219 5 view .LVU525
 2040              		.loc 1 219 9 is_stmt 0 view .LVU526
 2041 004e 4FF0FF30 		mov	r0, #-1
 2042 0052 FFF7FEFF 		bl	chEvtWaitOne
 2043              	.LVL140:
 2044              		.loc 1 220 5 is_stmt 1 view .LVU527
 2045 0056 A0F10400 		sub	r0, #4
 2046              	.LVL141:
 2047              		.loc 1 220 5 is_stmt 0 view .LVU528
 2048 005a B0FA80F0 		clz	r0, r0
 2049              	.LVL142:
 2050              		.loc 1 220 5 view .LVU529
 2051 005e 2949     		ldr	r1, .L68+4
 2052 0060 4009     		lsrs	r0, r0, #5
 2053 0062 FFF7FEFF 		bl	_test_assert
 2054              	.LVL143:
 2055 0066 0028     		cmp	r0, #0
 2056 0068 E1D1     		bne	.L62
 2057              		.loc 1 220 46 is_stmt 1 view .LVU530
 2058              		.loc 1 221 5 view .LVU531
 2059              		.loc 1 221 9 is_stmt 0 view .LVU532
 2060 006a 4FF0FF30 		mov	r0, #-1
 2061 006e FFF7FEFF 		bl	chEvtGetAndClearEvents
 2062              	.LVL144:
 2063              		.loc 1 222 5 is_stmt 1 view .LVU533
 2064 0072 B0FA80F0 		clz	r0, r0
 2065              	.LVL145:
 2066              		.loc 1 222 5 is_stmt 0 view .LVU534
 2067 0076 2449     		ldr	r1, .L68+8
 2068 0078 4009     		lsrs	r0, r0, #5
 2069 007a FFF7FEFF 		bl	_test_assert
 2070              	.LVL146:
 2071 007e 0028     		cmp	r0, #0
 2072 0080 D5D1     		bne	.L62
 2073              		.loc 1 222 39 is_stmt 1 view .LVU535
 2074              		.loc 1 227 3 view .LVU536
 2075 0082 0323     		movs	r3, #3
ARM GAS  /tmp/ccn1GwuO.s 			page 38


 2076 0084 2360     		str	r3, [r4]
 2077              		.loc 1 229 5 view .LVU537
 2078              		.loc 1 229 19 is_stmt 0 view .LVU538
 2079 0086 FFF7FEFF 		bl	test_wait_tick
 2080              	.LVL147:
 2081              	.LBB369:
 2082              	.LBB370:
 2083              	.LBB371:
 2084              	.LBB372:
 2085              		.loc 3 286 18 view .LVU539
 2086 008a 204B     		ldr	r3, .L68+12
 2087 008c 9969     		ldr	r1, [r3, #24]
 2088              	.LBE372:
 2089              	.LBE371:
 2090              	.LBE370:
 2091              	.LBE369:
 2092              		.loc 1 230 18 view .LVU540
 2093 008e 204B     		ldr	r3, .L68+16
 2094 0090 8A68     		ldr	r2, [r1, #8]
 2095 0092 0091     		str	r1, [sp]
 2096              		.loc 1 229 19 view .LVU541
 2097 0094 0546     		mov	r5, r0
 2098              		.loc 1 230 18 view .LVU542
 2099 0096 1F48     		ldr	r0, .L68+20
 2100 0098 4FF4A471 		mov	r1, #328
 2101 009c 013A     		subs	r2, r2, #1
 2102 009e 0068     		ldr	r0, [r0]
 2103              	.LVL148:
 2104              		.loc 1 230 5 is_stmt 1 view .LVU543
 2105              	.LBB376:
 2106              	.LBI369:
 2107              		.loc 3 297 23 view .LVU544
 2108              	.LBB375:
 2109              		.loc 3 299 3 view .LVU545
 2110              	.LBB374:
 2111              	.LBI371:
 2112              		.loc 3 284 25 view .LVU546
 2113              	.LBB373:
 2114              		.loc 3 286 3 view .LVU547
 2115              	.LBE373:
 2116              	.LBE374:
 2117              	.LBE375:
 2118              	.LBE376:
 2119              	.LBE368:
 2120              	.LBE367:
 2121              		.loc 3 286 3 view .LVU548
 2122              	.LBB379:
 2123              	.LBB377:
 2124              		.loc 1 230 18 is_stmt 0 view .LVU549
 2125 00a0 FFF7FEFF 		bl	chThdCreateStatic
 2126              	.LVL149:
 2127              		.loc 1 230 16 view .LVU550
 2128 00a4 1C4A     		ldr	r2, .L68+24
 2129              		.loc 1 237 3 view .LVU551
 2130 00a6 0423     		movs	r3, #4
 2131              		.loc 1 230 16 view .LVU552
 2132 00a8 1060     		str	r0, [r2]
ARM GAS  /tmp/ccn1GwuO.s 			page 39


 2133              		.loc 1 237 3 is_stmt 1 view .LVU553
 2134              		.loc 1 239 9 is_stmt 0 view .LVU554
 2135 00aa 4FF0FF30 		mov	r0, #-1
 2136              		.loc 1 237 3 view .LVU555
 2137 00ae 2360     		str	r3, [r4]
 2138              		.loc 1 239 5 is_stmt 1 view .LVU556
 2139              		.loc 1 239 9 is_stmt 0 view .LVU557
 2140 00b0 FFF7FEFF 		bl	chEvtWaitOne
 2141              	.LVL150:
 2142              		.loc 1 240 5 view .LVU558
 2143 00b4 194A     		ldr	r2, .L68+28
 2144              		.loc 1 239 9 view .LVU559
 2145 00b6 0446     		mov	r4, r0
 2146              		.loc 1 240 5 view .LVU560
 2147 00b8 05F50271 		add	r1, r5, #520
 2148 00bc 05F5FA70 		add	r0, r5, #500
 2149              	.LVL151:
 2150              		.loc 1 240 5 is_stmt 1 view .LVU561
 2151 00c0 FFF7FEFF 		bl	_test_assert_time_window
 2152              	.LVL152:
 2153              		.loc 1 240 5 is_stmt 0 view .LVU562
 2154 00c4 0028     		cmp	r0, #0
 2155 00c6 B2D1     		bne	.L62
 2156              		.loc 1 241 50 is_stmt 1 view .LVU563
 2157              		.loc 1 242 5 view .LVU564
 2158 00c8 A4F10100 		sub	r0, r4, #1
 2159 00cc B0FA80F0 		clz	r0, r0
 2160 00d0 1349     		ldr	r1, .L68+32
 2161 00d2 4009     		lsrs	r0, r0, #5
 2162 00d4 FFF7FEFF 		bl	_test_assert
 2163              	.LVL153:
 2164 00d8 0028     		cmp	r0, #0
 2165 00da A8D1     		bne	.L62
 2166              		.loc 1 242 44 view .LVU565
 2167              		.loc 1 243 5 view .LVU566
 2168              		.loc 1 243 9 is_stmt 0 view .LVU567
 2169 00dc 4FF0FF30 		mov	r0, #-1
 2170 00e0 FFF7FEFF 		bl	chEvtGetAndClearEvents
 2171              	.LVL154:
 2172              		.loc 1 244 5 is_stmt 1 view .LVU568
 2173 00e4 B0FA80F0 		clz	r0, r0
 2174              	.LVL155:
 2175              		.loc 1 244 5 is_stmt 0 view .LVU569
 2176 00e8 0749     		ldr	r1, .L68+8
 2177 00ea 4009     		lsrs	r0, r0, #5
 2178 00ec FFF7FEFF 		bl	_test_assert
 2179              	.LVL156:
 2180 00f0 0028     		cmp	r0, #0
 2181 00f2 9CD1     		bne	.L62
 2182              		.loc 1 244 39 is_stmt 1 view .LVU570
 2183              		.loc 1 245 5 view .LVU571
 2184              	.LBE377:
 2185              	.LBE379:
 2186              		.loc 1 247 1 is_stmt 0 view .LVU572
 2187 00f4 03B0     		add	sp, sp, #12
 2188              		.cfi_def_cfa_offset 12
 2189              		@ sp needed
ARM GAS  /tmp/ccn1GwuO.s 			page 40


 2190 00f6 BDE83040 		pop	{r4, r5, lr}
 2191              		.cfi_restore 14
 2192              		.cfi_restore 5
 2193              		.cfi_restore 4
 2194              		.cfi_def_cfa_offset 0
 2195              	.LVL157:
 2196              	.LBB380:
 2197              	.LBB378:
 2198              		.loc 1 245 5 view .LVU573
 2199 00fa FFF7FEBF 		b	test_wait_threads
 2200              	.LVL158:
 2201              	.L69:
 2202 00fe 00BF     		.align	2
 2203              	.L68:
 2204 0100 00000000 		.word	test_step
 2205 0104 00000000 		.word	.LC11
 2206 0108 18000000 		.word	.LC2
 2207 010c 00000000 		.word	ch
 2208 0110 00000000 		.word	evt_thread3
 2209 0114 00000000 		.word	wa
 2210 0118 00000000 		.word	threads
 2211 011c 04000000 		.word	.LC1
 2212 0120 00000000 		.word	.LC10
 2213              	.LBE378:
 2214              	.LBE380:
 2215              		.cfi_endproc
 2216              	.LFE286:
 2217              		.size	test_007_003_execute, .-test_007_003_execute
 2218              		.section	.text.test_007_006_setup,"ax",%progbits
 2219              		.align	1
 2220              		.p2align 4,,15
 2221              		.syntax unified
 2222              		.thumb
 2223              		.thumb_func
 2224              		.fpu softvfp
 2225              		.type	test_007_006_setup, %function
 2226              	test_007_006_setup:
 2227              	.LFB306:
 2228              		.cfi_startproc
 2229              		@ args = 0, pretend = 0, frame = 0
 2230              		@ frame_needed = 0, uses_anonymous_args = 0
 2231              		@ link register save eliminated.
 2232 0000 4FF0FF30 		mov	r0, #-1
 2233 0004 FFF7FEBF 		b	chEvtGetAndClearEvents
 2234              		.cfi_endproc
 2235              	.LFE306:
 2236              		.size	test_007_006_setup, .-test_007_006_setup
 2237              		.section	.text.test_007_003_setup,"ax",%progbits
 2238              		.align	1
 2239              		.p2align 4,,15
 2240              		.syntax unified
 2241              		.thumb
 2242              		.thumb_func
 2243              		.fpu softvfp
 2244              		.type	test_007_003_setup, %function
 2245              	test_007_003_setup:
 2246              	.LFB300:
ARM GAS  /tmp/ccn1GwuO.s 			page 41


 2247              		.cfi_startproc
 2248              		@ args = 0, pretend = 0, frame = 0
 2249              		@ frame_needed = 0, uses_anonymous_args = 0
 2250              		@ link register save eliminated.
 2251 0000 4FF0FF30 		mov	r0, #-1
 2252 0004 FFF7FEBF 		b	chEvtGetAndClearEvents
 2253              		.cfi_endproc
 2254              	.LFE300:
 2255              		.size	test_007_003_setup, .-test_007_003_setup
 2256              		.section	.text.test_007_004_setup,"ax",%progbits
 2257              		.align	1
 2258              		.p2align 4,,15
 2259              		.syntax unified
 2260              		.thumb
 2261              		.thumb_func
 2262              		.fpu softvfp
 2263              		.type	test_007_004_setup, %function
 2264              	test_007_004_setup:
 2265              	.LFB302:
 2266              		.cfi_startproc
 2267              		@ args = 0, pretend = 0, frame = 0
 2268              		@ frame_needed = 0, uses_anonymous_args = 0
 2269              		@ link register save eliminated.
 2270 0000 4FF0FF30 		mov	r0, #-1
 2271 0004 FFF7FEBF 		b	chEvtGetAndClearEvents
 2272              		.cfi_endproc
 2273              	.LFE302:
 2274              		.size	test_007_004_setup, .-test_007_004_setup
 2275              		.section	.text.test_007_005_setup,"ax",%progbits
 2276              		.align	1
 2277              		.p2align 4,,15
 2278              		.syntax unified
 2279              		.thumb
 2280              		.thumb_func
 2281              		.fpu softvfp
 2282              		.type	test_007_005_setup, %function
 2283              	test_007_005_setup:
 2284              	.LFB304:
 2285              		.cfi_startproc
 2286              		@ args = 0, pretend = 0, frame = 0
 2287              		@ frame_needed = 0, uses_anonymous_args = 0
 2288              		@ link register save eliminated.
 2289 0000 4FF0FF30 		mov	r0, #-1
 2290 0004 FFF7FEBF 		b	chEvtGetAndClearEvents
 2291              		.cfi_endproc
 2292              	.LFE304:
 2293              		.size	test_007_005_setup, .-test_007_005_setup
 2294              		.global	test_sequence_007
 2295              		.section	.rodata.str1.4,"aMS",%progbits,1
 2296              		.align	2
 2297              	.LC12:
 2298 0000 42726F61 		.ascii	"Broadcasting using chEvtBroadcast()\000"
 2298      64636173 
 2298      74696E67 
 2298      20757369 
 2298      6E672063 
 2299              		.align	2
ARM GAS  /tmp/ccn1GwuO.s 			page 42


 2300              	.LC13:
 2301 0024 4576656E 		.ascii	"Events Flags wait timeouts\000"
 2301      74732046 
 2301      6C616773 
 2301      20776169 
 2301      74207469 
 2302 003f 00       		.align	2
 2303              	.LC14:
 2304 0040 4576656E 		.ascii	"Events Flags wait using chEvtWaitAll()\000"
 2304      74732046 
 2304      6C616773 
 2304      20776169 
 2304      74207573 
 2305 0067 00       		.align	2
 2306              	.LC15:
 2307 0068 4576656E 		.ascii	"Events Flags wait using chEvtWaitAny()\000"
 2307      74732046 
 2307      6C616773 
 2307      20776169 
 2307      74207573 
 2308 008f 00       		.align	2
 2309              	.LC16:
 2310 0090 4576656E 		.ascii	"Events Flags wait using chEvtWaitOne()\000"
 2310      74732046 
 2310      6C616773 
 2310      20776169 
 2310      74207573 
 2311 00b7 00       		.align	2
 2312              	.LC17:
 2313 00b8 4576656E 		.ascii	"Event Flags dispatching\000"
 2313      7420466C 
 2313      61677320 
 2313      64697370 
 2313      61746368 
 2314              		.align	2
 2315              	.LC18:
 2316 00d0 4576656E 		.ascii	"Events registration\000"
 2316      74732072 
 2316      65676973 
 2316      74726174 
 2316      696F6E00 
 2317              		.section	.data.es1,"aw"
 2318              		.align	2
 2319              		.set	.LANCHOR0,. + 0
 2320              		.type	es1, %object
 2321              		.size	es1, 4
 2322              	es1:
 2323 0000 00000000 		.word	es1
 2324              		.section	.data.es2,"aw"
 2325              		.align	2
 2326              		.set	.LANCHOR1,. + 0
 2327              		.type	es2, %object
 2328              		.size	es2, 4
 2329              	es2:
 2330 0000 00000000 		.word	es2
 2331              		.section	.rodata.evhndl,"a"
 2332              		.align	2
ARM GAS  /tmp/ccn1GwuO.s 			page 43


 2333              		.set	.LANCHOR2,. + 0
 2334              		.type	evhndl, %object
 2335              		.size	evhndl, 12
 2336              	evhndl:
 2337 0000 00000000 		.word	h1
 2338 0004 00000000 		.word	h2
 2339 0008 00000000 		.word	h3
 2340              		.section	.rodata.test_007_001,"a"
 2341              		.align	2
 2342              		.type	test_007_001, %object
 2343              		.size	test_007_001, 16
 2344              	test_007_001:
 2345 0000 D0000000 		.word	.LC18
 2346 0004 00000000 		.word	0
 2347 0008 00000000 		.word	0
 2348 000c 00000000 		.word	test_007_001_execute
 2349              		.section	.rodata.test_007_002,"a"
 2350              		.align	2
 2351              		.type	test_007_002, %object
 2352              		.size	test_007_002, 16
 2353              	test_007_002:
 2354 0000 B8000000 		.word	.LC17
 2355 0004 00000000 		.word	test_007_002_setup
 2356 0008 00000000 		.word	0
 2357 000c 00000000 		.word	test_007_002_execute
 2358              		.section	.rodata.test_007_003,"a"
 2359              		.align	2
 2360              		.type	test_007_003, %object
 2361              		.size	test_007_003, 16
 2362              	test_007_003:
 2363 0000 90000000 		.word	.LC16
 2364 0004 00000000 		.word	test_007_003_setup
 2365 0008 00000000 		.word	0
 2366 000c 00000000 		.word	test_007_003_execute
 2367              		.section	.rodata.test_007_004,"a"
 2368              		.align	2
 2369              		.type	test_007_004, %object
 2370              		.size	test_007_004, 16
 2371              	test_007_004:
 2372 0000 68000000 		.word	.LC15
 2373 0004 00000000 		.word	test_007_004_setup
 2374 0008 00000000 		.word	0
 2375 000c 00000000 		.word	test_007_004_execute
 2376              		.section	.rodata.test_007_005,"a"
 2377              		.align	2
 2378              		.type	test_007_005, %object
 2379              		.size	test_007_005, 16
 2380              	test_007_005:
 2381 0000 40000000 		.word	.LC14
 2382 0004 00000000 		.word	test_007_005_setup
 2383 0008 00000000 		.word	0
 2384 000c 00000000 		.word	test_007_005_execute
 2385              		.section	.rodata.test_007_006,"a"
 2386              		.align	2
 2387              		.type	test_007_006, %object
 2388              		.size	test_007_006, 16
 2389              	test_007_006:
ARM GAS  /tmp/ccn1GwuO.s 			page 44


 2390 0000 24000000 		.word	.LC13
 2391 0004 00000000 		.word	test_007_006_setup
 2392 0008 00000000 		.word	0
 2393 000c 00000000 		.word	test_007_006_execute
 2394              		.section	.rodata.test_007_007,"a"
 2395              		.align	2
 2396              		.type	test_007_007, %object
 2397              		.size	test_007_007, 16
 2398              	test_007_007:
 2399 0000 00000000 		.word	.LC12
 2400 0004 00000000 		.word	test_007_007_setup
 2401 0008 00000000 		.word	0
 2402 000c 00000000 		.word	test_007_007_execute
 2403              		.section	.rodata.test_sequence_007,"a"
 2404              		.align	2
 2405              		.type	test_sequence_007, %object
 2406              		.size	test_sequence_007, 32
 2407              	test_sequence_007:
 2408 0000 00000000 		.word	test_007_001
 2409 0004 00000000 		.word	test_007_002
 2410 0008 00000000 		.word	test_007_003
 2411 000c 00000000 		.word	test_007_004
 2412 0010 00000000 		.word	test_007_005
 2413 0014 00000000 		.word	test_007_006
 2414 0018 00000000 		.word	test_007_007
 2415 001c 00000000 		.word	0
 2416              		.text
 2417              	.Letext0:
 2418              		.file 8 "/usr/lib/gcc/arm-none-eabi/10.3.1/include/stddef.h"
 2419              		.file 9 "/usr/lib/gcc/arm-none-eabi/10.3.1/include/stdint.h"
 2420              		.file 10 "../../../os/common/ports/ARMCMx/compilers/GCC/chtypes.h"
 2421              		.file 11 "../../../os/rt/include/chsystypes.h"
 2422              		.file 12 "../../../os/rt/include/chschd.h"
 2423              		.file 13 "../../../os/common/ports/ARMCMx/chcore.h"
 2424              		.file 14 "../../../os/rt/include/chtm.h"
 2425              		.file 15 "../../../os/rt/include/chsem.h"
 2426              		.file 16 "../../../os/rt/include/chmtx.h"
 2427              		.file 17 "../../../test/lib/ch_test.h"
 2428              		.file 18 "../../../test/rt/source/test/test_sequence_007.h"
 2429              		.file 19 "../../../test/rt/source/test/test_root.h"