ARM GAS  /tmp/ccXsMVKs.s 			page 1


   1              		.cpu cortex-m4
   2              		.eabi_attribute 20, 1
   3              		.eabi_attribute 21, 1
   4              		.eabi_attribute 23, 3
   5              		.eabi_attribute 24, 1
   6              		.eabi_attribute 25, 1
   7              		.eabi_attribute 26, 1
   8              		.eabi_attribute 30, 2
   9              		.eabi_attribute 34, 1
  10              		.eabi_attribute 18, 4
  11              		.file	"test_sequence_010.c"
  12              		.text
  13              	.Ltext0:
  14              		.cfi_sections	.debug_frame
  15              		.section	.rodata.test_010_002_execute.str1.4,"aMS",%progbits,1
  16              		.align	2
  17              	.LC0:
  18 0000 616C6C6F 		.ascii	"allocation failed\000"
  18      63617469 
  18      6F6E2066 
  18      61696C65 
  18      6400
  19 0012 0000     		.align	2
  20              	.LC1:
  21 0014 616C6C6F 		.ascii	"allocation not failed\000"
  21      63617469 
  21      6F6E206E 
  21      6F742066 
  21      61696C65 
  22              		.section	.text.test_010_002_execute,"ax",%progbits
  23              		.align	1
  24              		.p2align 4,,15
  25              		.arch armv7e-m
  26              		.syntax unified
  27              		.thumb
  28              		.thumb_func
  29              		.fpu softvfp
  30              		.type	test_010_002_execute, %function
  31              	test_010_002_execute:
  32              	.LFB279:
  33              		.file 1 "../../../test/rt/source/test/test_sequence_010.c"
  34              		.loc 1 230 40 view -0
  35              		.cfi_startproc
  36              		@ args = 0, pretend = 0, frame = 8
  37              		@ frame_needed = 0, uses_anonymous_args = 0
  38              		.loc 1 231 3 view .LVU1
  39              		.loc 1 232 3 view .LVU2
  40              		.loc 1 236 3 view .LVU3
  41              		.loc 1 230 40 is_stmt 0 view .LVU4
  42 0000 70B5     		push	{r4, r5, r6, lr}
  43              		.cfi_def_cfa_offset 16
  44              		.cfi_offset 4, -16
  45              		.cfi_offset 5, -12
  46              		.cfi_offset 6, -8
  47              		.cfi_offset 14, -4
  48              		.loc 1 236 3 view .LVU5
  49 0002 164E     		ldr	r6, .L6
ARM GAS  /tmp/ccXsMVKs.s 			page 2


  50              		.loc 1 230 40 view .LVU6
  51 0004 82B0     		sub	sp, sp, #8
  52              		.cfi_def_cfa_offset 24
  53              		.loc 1 236 3 view .LVU7
  54 0006 0123     		movs	r3, #1
  55              		.loc 1 238 11 view .LVU8
  56 0008 01AA     		add	r2, sp, #4
  57 000a 6946     		mov	r1, sp
  58 000c 0020     		movs	r0, #0
  59              		.loc 1 236 3 view .LVU9
  60 000e 3360     		str	r3, [r6]
  61              		.loc 1 238 5 is_stmt 1 view .LVU10
  62              		.loc 1 238 11 is_stmt 0 view .LVU11
  63 0010 FFF7FEFF 		bl	chHeapStatus
  64              	.LVL0:
  65              		.loc 1 239 5 is_stmt 1 view .LVU12
  66              	.LBB37:
  67              	.LBI37:
  68              		.file 2 "../../../os/common/oslib/include/chheap.h"
  69              		.loc 2 155 21 view .LVU13
  70              	.LBB38:
  71              		.loc 2 157 3 view .LVU14
  72              		.loc 2 157 10 is_stmt 0 view .LVU15
  73 0014 1021     		movs	r1, #16
  74 0016 1248     		ldr	r0, .L6+4
  75 0018 0822     		movs	r2, #8
  76 001a FFF7FEFF 		bl	chHeapAllocAligned
  77              	.LVL1:
  78              		.loc 2 157 10 view .LVU16
  79 001e 0546     		mov	r5, r0
  80              	.LVL2:
  81              		.loc 2 157 10 view .LVU17
  82              	.LBE38:
  83              	.LBE37:
  84              		.loc 1 240 5 is_stmt 1 view .LVU18
  85 0020 0038     		subs	r0, r0, #0
  86              	.LVL3:
  87              		.loc 1 240 5 is_stmt 0 view .LVU19
  88 0022 18BF     		it	ne
  89 0024 0120     		movne	r0, #1
  90 0026 0F49     		ldr	r1, .L6+8
  91 0028 FFF7FEFF 		bl	_test_assert
  92              	.LVL4:
  93 002c 08B1     		cbz	r0, .L5
  94              		.loc 1 250 1 view .LVU20
  95 002e 02B0     		add	sp, sp, #8
  96              		.cfi_remember_state
  97              		.cfi_def_cfa_offset 16
  98              		@ sp needed
  99 0030 70BD     		pop	{r4, r5, r6, pc}
 100              	.LVL5:
 101              	.L5:
 102              		.cfi_restore_state
 103              		.loc 1 240 49 is_stmt 1 discriminator 2 view .LVU21
 104              		.loc 1 241 5 discriminator 2 view .LVU22
 105 0032 0446     		mov	r4, r0
 106 0034 2846     		mov	r0, r5
ARM GAS  /tmp/ccXsMVKs.s 			page 3


 107 0036 FFF7FEFF 		bl	chHeapFree
 108              	.LVL6:
 109              		.loc 1 245 3 discriminator 2 view .LVU23
 110 003a 0223     		movs	r3, #2
 111              	.LBB39:
 112              	.LBB40:
 113              		.loc 2 157 10 is_stmt 0 discriminator 2 view .LVU24
 114 003c 0822     		movs	r2, #8
 115 003e 6FF0FF01 		mvn	r1, #255
 116 0042 2046     		mov	r0, r4
 117              	.LBE40:
 118              	.LBE39:
 119              		.loc 1 245 3 discriminator 2 view .LVU25
 120 0044 3360     		str	r3, [r6]
 121              		.loc 1 247 5 is_stmt 1 discriminator 2 view .LVU26
 122              	.LVL7:
 123              	.LBB42:
 124              	.LBI39:
 125              		.loc 2 155 21 discriminator 2 view .LVU27
 126              	.LBB41:
 127              		.loc 2 157 3 discriminator 2 view .LVU28
 128              		.loc 2 157 10 is_stmt 0 discriminator 2 view .LVU29
 129 0046 FFF7FEFF 		bl	chHeapAllocAligned
 130              	.LVL8:
 131              		.loc 2 157 10 discriminator 2 view .LVU30
 132              	.LBE41:
 133              	.LBE42:
 134              		.loc 1 248 5 is_stmt 1 discriminator 2 view .LVU31
 135 004a B0FA80F0 		clz	r0, r0
 136              	.LVL9:
 137              		.loc 1 248 5 is_stmt 0 discriminator 2 view .LVU32
 138 004e 0649     		ldr	r1, .L6+12
 139 0050 4009     		lsrs	r0, r0, #5
 140 0052 FFF7FEFF 		bl	_test_assert
 141              	.LVL10:
 142              		.loc 1 248 5 is_stmt 1 discriminator 2 view .LVU33
 143              		.loc 1 250 1 is_stmt 0 discriminator 2 view .LVU34
 144 0056 02B0     		add	sp, sp, #8
 145              		.cfi_def_cfa_offset 16
 146              		@ sp needed
 147 0058 70BD     		pop	{r4, r5, r6, pc}
 148              	.L7:
 149 005a 00BF     		.align	2
 150              	.L6:
 151 005c 00000000 		.word	test_step
 152 0060 00000000 		.word	.LANCHOR0
 153 0064 00000000 		.word	.LC0
 154 0068 14000000 		.word	.LC1
 155              		.cfi_endproc
 156              	.LFE279:
 157              		.size	test_010_002_execute, .-test_010_002_execute
 158              		.section	.rodata.test_010_001_execute.str1.4,"aMS",%progbits,1
 159              		.align	2
 160              	.LC2:
 161 0000 68656170 		.ascii	"heap fragmented\000"
 161      20667261 
 161      676D656E 
ARM GAS  /tmp/ccXsMVKs.s 			page 4


 161      74656400 
 162              		.align	2
 163              	.LC3:
 164 0010 6D697373 		.ascii	"missing free block\000"
 164      696E6720 
 164      66726565 
 164      20626C6F 
 164      636B00
 165 0023 00       		.align	2
 166              	.LC4:
 167 0024 756E6578 		.ascii	"unexpected heap state\000"
 167      70656374 
 167      65642068 
 167      65617020 
 167      73746174 
 168 003a 0000     		.align	2
 169              	.LC5:
 170 003c 696E7661 		.ascii	"invalid state\000"
 170      6C696420 
 170      73746174 
 170      6500
 171 004a 0000     		.align	2
 172              	.LC6:
 173 004c 6E6F7420 		.ascii	"not empty\000"
 173      656D7074 
 173      7900
 174 0056 0000     		.align	2
 175              	.LC7:
 176 0058 73697A65 		.ascii	"size changed\000"
 176      20636861 
 176      6E676564 
 176      00
 177              		.section	.text.test_010_001_execute,"ax",%progbits
 178              		.align	1
 179              		.p2align 4,,15
 180              		.syntax unified
 181              		.thumb
 182              		.thumb_func
 183              		.fpu softvfp
 184              		.type	test_010_001_execute, %function
 185              	test_010_001_execute:
 186              	.LFB278:
 187              		.loc 1 94 40 is_stmt 1 view -0
 188              		.cfi_startproc
 189              		@ args = 0, pretend = 0, frame = 16
 190              		@ frame_needed = 0, uses_anonymous_args = 0
 191              		.loc 1 95 3 view .LVU36
 192              		.loc 1 96 3 view .LVU37
 193              		.loc 1 100 3 view .LVU38
 194              		.loc 1 94 40 is_stmt 0 view .LVU39
 195 0000 2DE9F041 		push	{r4, r5, r6, r7, r8, lr}
 196              		.cfi_def_cfa_offset 24
 197              		.cfi_offset 4, -24
 198              		.cfi_offset 5, -20
 199              		.cfi_offset 6, -16
 200              		.cfi_offset 7, -12
 201              		.cfi_offset 8, -8
ARM GAS  /tmp/ccXsMVKs.s 			page 5


 202              		.cfi_offset 14, -4
 203              		.loc 1 100 3 view .LVU40
 204 0004 C94C     		ldr	r4, .L18
 205              		.loc 1 102 5 view .LVU41
 206 0006 CA48     		ldr	r0, .L18+4
 207              		.loc 1 94 40 view .LVU42
 208 0008 84B0     		sub	sp, sp, #16
 209              		.cfi_def_cfa_offset 40
 210              		.loc 1 102 5 view .LVU43
 211 000a 01A9     		add	r1, sp, #4
 212              		.loc 1 100 3 view .LVU44
 213 000c 0123     		movs	r3, #1
 214              		.loc 1 102 5 view .LVU45
 215 000e 0022     		movs	r2, #0
 216              		.loc 1 100 3 view .LVU46
 217 0010 2360     		str	r3, [r4]
 218              		.loc 1 102 5 is_stmt 1 view .LVU47
 219 0012 FFF7FEFF 		bl	chHeapStatus
 220              	.LVL11:
 221 0016 A0F10100 		sub	r0, #1
 222 001a B0FA80F0 		clz	r0, r0
 223 001e C549     		ldr	r1, .L18+8
 224 0020 4009     		lsrs	r0, r0, #5
 225 0022 FFF7FEFF 		bl	_test_assert
 226              	.LVL12:
 227 0026 10B1     		cbz	r0, .L17
 228              	.L8:
 229              		.loc 1 207 1 is_stmt 0 view .LVU48
 230 0028 04B0     		add	sp, sp, #16
 231              		.cfi_remember_state
 232              		.cfi_def_cfa_offset 24
 233              		@ sp needed
 234 002a BDE8F081 		pop	{r4, r5, r6, r7, r8, pc}
 235              	.L17:
 236              		.cfi_restore_state
 237              		.loc 1 102 77 is_stmt 1 discriminator 2 view .LVU49
 238              		.loc 1 107 3 discriminator 2 view .LVU50
 239              	.LBB43:
 240              	.LBB44:
 241              		.loc 2 157 10 is_stmt 0 discriminator 2 view .LVU51
 242 002e 4FF44D61 		mov	r1, #3280
 243              	.LBE44:
 244              	.LBE43:
 245              		.loc 1 107 3 discriminator 2 view .LVU52
 246 0032 0223     		movs	r3, #2
 247              	.LBB47:
 248              	.LBB45:
 249              		.loc 2 157 10 discriminator 2 view .LVU53
 250 0034 BE48     		ldr	r0, .L18+4
 251              	.LBE45:
 252              	.LBE47:
 253              		.loc 1 107 3 discriminator 2 view .LVU54
 254 0036 2360     		str	r3, [r4]
 255              		.loc 1 109 5 is_stmt 1 discriminator 2 view .LVU55
 256              	.LVL13:
 257              	.LBB48:
 258              	.LBI43:
ARM GAS  /tmp/ccXsMVKs.s 			page 6


 259              		.loc 2 155 21 discriminator 2 view .LVU56
 260              	.LBB46:
 261              		.loc 2 157 3 discriminator 2 view .LVU57
 262              		.loc 2 157 10 is_stmt 0 discriminator 2 view .LVU58
 263 0038 0822     		movs	r2, #8
 264 003a FFF7FEFF 		bl	chHeapAllocAligned
 265              	.LVL14:
 266              		.loc 2 157 10 discriminator 2 view .LVU59
 267              	.LBE46:
 268              	.LBE48:
 269              		.loc 1 110 5 is_stmt 1 discriminator 2 view .LVU60
 270 003e B0FA80F0 		clz	r0, r0
 271              	.LVL15:
 272              		.loc 1 110 5 is_stmt 0 discriminator 2 view .LVU61
 273 0042 BD49     		ldr	r1, .L18+12
 274 0044 4009     		lsrs	r0, r0, #5
 275 0046 FFF7FEFF 		bl	_test_assert
 276              	.LVL16:
 277 004a 0028     		cmp	r0, #0
 278 004c ECD1     		bne	.L8
 279              		.loc 1 110 53 is_stmt 1 discriminator 2 view .LVU62
 280              		.loc 1 115 3 discriminator 2 view .LVU63
 281              	.LBB49:
 282              	.LBB50:
 283              		.loc 2 157 10 is_stmt 0 discriminator 2 view .LVU64
 284 004e 1021     		movs	r1, #16
 285              	.LBE50:
 286              	.LBE49:
 287              		.loc 1 115 3 discriminator 2 view .LVU65
 288 0050 0323     		movs	r3, #3
 289              	.LBB53:
 290              	.LBB51:
 291              		.loc 2 157 10 discriminator 2 view .LVU66
 292 0052 B748     		ldr	r0, .L18+4
 293              	.LBE51:
 294              	.LBE53:
 295              		.loc 1 115 3 discriminator 2 view .LVU67
 296 0054 2360     		str	r3, [r4]
 297              		.loc 1 117 5 is_stmt 1 discriminator 2 view .LVU68
 298              	.LVL17:
 299              	.LBB54:
 300              	.LBI49:
 301              		.loc 2 155 21 discriminator 2 view .LVU69
 302              	.LBB52:
 303              		.loc 2 157 3 discriminator 2 view .LVU70
 304              		.loc 2 157 10 is_stmt 0 discriminator 2 view .LVU71
 305 0056 0822     		movs	r2, #8
 306 0058 FFF7FEFF 		bl	chHeapAllocAligned
 307              	.LVL18:
 308              		.loc 2 157 10 discriminator 2 view .LVU72
 309 005c 0546     		mov	r5, r0
 310              	.LVL19:
 311              		.loc 2 157 10 discriminator 2 view .LVU73
 312              	.LBE52:
 313              	.LBE54:
 314              		.loc 1 118 5 is_stmt 1 discriminator 2 view .LVU74
 315 005e 0038     		subs	r0, r0, #0
ARM GAS  /tmp/ccXsMVKs.s 			page 7


 316              	.LVL20:
 317              		.loc 1 118 5 is_stmt 0 discriminator 2 view .LVU75
 318 0060 18BF     		it	ne
 319 0062 0120     		movne	r0, #1
 320 0064 B549     		ldr	r1, .L18+16
 321 0066 FFF7FEFF 		bl	_test_assert
 322              	.LVL21:
 323 006a 0028     		cmp	r0, #0
 324 006c DCD1     		bne	.L8
 325              		.loc 1 118 49 is_stmt 1 discriminator 2 view .LVU76
 326              		.loc 1 119 5 discriminator 2 view .LVU77
 327 006e 2846     		mov	r0, r5
 328 0070 FFF7FEFF 		bl	chHeapFree
 329              	.LVL22:
 330              		.loc 1 124 3 discriminator 2 view .LVU78
 331 0074 0423     		movs	r3, #4
 332              	.LBB55:
 333              		.loc 1 128 9 is_stmt 0 discriminator 2 view .LVU79
 334 0076 02A9     		add	r1, sp, #8
 335 0078 AD48     		ldr	r0, .L18+4
 336              	.LBE55:
 337              		.loc 1 124 3 discriminator 2 view .LVU80
 338 007a 2360     		str	r3, [r4]
 339              	.LBB56:
 340              		.loc 1 126 5 is_stmt 1 discriminator 2 view .LVU81
 341              		.loc 1 128 5 discriminator 2 view .LVU82
 342              		.loc 1 128 9 is_stmt 0 discriminator 2 view .LVU83
 343 007c 03AA     		add	r2, sp, #12
 344 007e FFF7FEFF 		bl	chHeapStatus
 345              	.LVL23:
 346 0082 0346     		mov	r3, r0
 347              		.loc 1 129 5 discriminator 2 view .LVU84
 348 0084 A0F10100 		sub	r0, #1
 349 0088 B0FA80F0 		clz	r0, r0
 350 008c AC49     		ldr	r1, .L18+20
 351              		.loc 1 128 7 discriminator 2 view .LVU85
 352 008e 0093     		str	r3, [sp]
 353              		.loc 1 129 5 is_stmt 1 discriminator 2 view .LVU86
 354 0090 4009     		lsrs	r0, r0, #5
 355 0092 FFF7FEFF 		bl	_test_assert
 356              	.LVL24:
 357 0096 0028     		cmp	r0, #0
 358 0098 C6D1     		bne	.L8
 359              		.loc 1 129 46 discriminator 2 view .LVU87
 360              		.loc 1 130 5 discriminator 2 view .LVU88
 361 009a 0298     		ldr	r0, [sp, #8]
 362 009c A949     		ldr	r1, .L18+24
 363 009e 0F28     		cmp	r0, #15
 364 00a0 94BF     		ite	ls
 365 00a2 0020     		movls	r0, #0
 366 00a4 0120     		movhi	r0, #1
 367 00a6 FFF7FEFF 		bl	_test_assert
 368              	.LVL25:
 369 00aa 0028     		cmp	r0, #0
 370 00ac BCD1     		bne	.L8
 371              		.loc 1 130 67 discriminator 2 view .LVU89
 372              		.loc 1 131 5 discriminator 2 view .LVU90
ARM GAS  /tmp/ccXsMVKs.s 			page 8


 373 00ae DDE90203 		ldrd	r0, r3, [sp, #8]
 374 00b2 C01A     		subs	r0, r0, r3
 375 00b4 B0FA80F0 		clz	r0, r0
 376 00b8 A249     		ldr	r1, .L18+24
 377 00ba 4009     		lsrs	r0, r0, #5
 378 00bc FFF7FEFF 		bl	_test_assert
 379              	.LVL26:
 380 00c0 0546     		mov	r5, r0
 381              	.LVL27:
 382              		.loc 1 131 5 is_stmt 0 discriminator 2 view .LVU91
 383 00c2 0028     		cmp	r0, #0
 384 00c4 B0D1     		bne	.L8
 385              		.loc 1 131 69 is_stmt 1 discriminator 2 view .LVU92
 386              	.LBE56:
 387              		.loc 1 135 3 discriminator 2 view .LVU93
 388 00c6 0523     		movs	r3, #5
 389              	.LBB57:
 390              	.LBB58:
 391              		.loc 2 157 10 is_stmt 0 discriminator 2 view .LVU94
 392 00c8 0822     		movs	r2, #8
 393 00ca 1021     		movs	r1, #16
 394 00cc 9848     		ldr	r0, .L18+4
 395              	.LBE58:
 396              	.LBE57:
 397              		.loc 1 135 3 discriminator 2 view .LVU95
 398 00ce 2360     		str	r3, [r4]
 399              		.loc 1 137 5 is_stmt 1 discriminator 2 view .LVU96
 400              	.LVL28:
 401              	.LBB61:
 402              	.LBI57:
 403              		.loc 2 155 21 discriminator 2 view .LVU97
 404              	.LBB59:
 405              		.loc 2 157 3 discriminator 2 view .LVU98
 406              		.loc 2 157 10 is_stmt 0 discriminator 2 view .LVU99
 407 00d0 FFF7FEFF 		bl	chHeapAllocAligned
 408              	.LVL29:
 409              	.LBE59:
 410              	.LBE61:
 411              	.LBB62:
 412              	.LBB63:
 413 00d4 0822     		movs	r2, #8
 414 00d6 1021     		movs	r1, #16
 415              	.LBE63:
 416              	.LBE62:
 417              	.LBB66:
 418              	.LBB60:
 419 00d8 8046     		mov	r8, r0
 420              	.LVL30:
 421              		.loc 2 157 10 discriminator 2 view .LVU100
 422              	.LBE60:
 423              	.LBE66:
 424              		.loc 1 138 5 is_stmt 1 discriminator 2 view .LVU101
 425              	.LBB67:
 426              	.LBI62:
 427              		.loc 2 155 21 discriminator 2 view .LVU102
 428              	.LBB64:
 429              		.loc 2 157 3 discriminator 2 view .LVU103
ARM GAS  /tmp/ccXsMVKs.s 			page 9


 430              		.loc 2 157 10 is_stmt 0 discriminator 2 view .LVU104
 431 00da 9548     		ldr	r0, .L18+4
 432              	.LVL31:
 433              		.loc 2 157 10 discriminator 2 view .LVU105
 434 00dc FFF7FEFF 		bl	chHeapAllocAligned
 435              	.LVL32:
 436              	.LBE64:
 437              	.LBE67:
 438              	.LBB68:
 439              	.LBB69:
 440 00e0 0822     		movs	r2, #8
 441 00e2 1021     		movs	r1, #16
 442              	.LBE69:
 443              	.LBE68:
 444              	.LBB71:
 445              	.LBB65:
 446 00e4 0746     		mov	r7, r0
 447              	.LVL33:
 448              		.loc 2 157 10 discriminator 2 view .LVU106
 449              	.LBE65:
 450              	.LBE71:
 451              		.loc 1 139 5 is_stmt 1 discriminator 2 view .LVU107
 452              	.LBB72:
 453              	.LBI68:
 454              		.loc 2 155 21 discriminator 2 view .LVU108
 455              	.LBB70:
 456              		.loc 2 157 3 discriminator 2 view .LVU109
 457              		.loc 2 157 10 is_stmt 0 discriminator 2 view .LVU110
 458 00e6 9248     		ldr	r0, .L18+4
 459              	.LVL34:
 460              		.loc 2 157 10 discriminator 2 view .LVU111
 461 00e8 FFF7FEFF 		bl	chHeapAllocAligned
 462              	.LVL35:
 463 00ec 0646     		mov	r6, r0
 464              	.LBE70:
 465              	.LBE72:
 466              		.loc 1 140 5 discriminator 2 view .LVU112
 467 00ee 4046     		mov	r0, r8
 468              	.LVL36:
 469              		.loc 1 140 5 is_stmt 1 discriminator 2 view .LVU113
 470 00f0 FFF7FEFF 		bl	chHeapFree
 471              	.LVL37:
 472              		.loc 1 141 5 discriminator 2 view .LVU114
 473 00f4 3846     		mov	r0, r7
 474 00f6 FFF7FEFF 		bl	chHeapFree
 475              	.LVL38:
 476              		.loc 1 142 5 discriminator 2 view .LVU115
 477 00fa 3046     		mov	r0, r6
 478 00fc FFF7FEFF 		bl	chHeapFree
 479              	.LVL39:
 480              		.loc 1 143 5 discriminator 2 view .LVU116
 481 0100 2A46     		mov	r2, r5
 482 0102 6946     		mov	r1, sp
 483 0104 8A48     		ldr	r0, .L18+4
 484 0106 FFF7FEFF 		bl	chHeapStatus
 485              	.LVL40:
 486 010a A0F10100 		sub	r0, #1
ARM GAS  /tmp/ccXsMVKs.s 			page 10


 487 010e B0FA80F0 		clz	r0, r0
 488 0112 8849     		ldr	r1, .L18+8
 489 0114 4009     		lsrs	r0, r0, #5
 490 0116 FFF7FEFF 		bl	_test_assert
 491              	.LVL41:
 492 011a 0546     		mov	r5, r0
 493 011c 0028     		cmp	r0, #0
 494 011e 83D1     		bne	.L8
 495              		.loc 1 143 76 view .LVU117
 496              		.loc 1 147 3 view .LVU118
 497 0120 0623     		movs	r3, #6
 498              	.LBB73:
 499              	.LBB74:
 500              		.loc 2 157 10 is_stmt 0 view .LVU119
 501 0122 0822     		movs	r2, #8
 502 0124 1021     		movs	r1, #16
 503 0126 8248     		ldr	r0, .L18+4
 504              	.LBE74:
 505              	.LBE73:
 506              		.loc 1 147 3 view .LVU120
 507 0128 2360     		str	r3, [r4]
 508              		.loc 1 149 5 is_stmt 1 view .LVU121
 509              	.LVL42:
 510              	.LBB77:
 511              	.LBI73:
 512              		.loc 2 155 21 view .LVU122
 513              	.LBB75:
 514              		.loc 2 157 3 view .LVU123
 515              		.loc 2 157 10 is_stmt 0 view .LVU124
 516 012a FFF7FEFF 		bl	chHeapAllocAligned
 517              	.LVL43:
 518              	.LBE75:
 519              	.LBE77:
 520              	.LBB78:
 521              	.LBB79:
 522 012e 0822     		movs	r2, #8
 523              	.LBE79:
 524              	.LBE78:
 525              	.LBB82:
 526              	.LBB76:
 527 0130 0646     		mov	r6, r0
 528              	.LVL44:
 529              		.loc 2 157 10 view .LVU125
 530              	.LBE76:
 531              	.LBE82:
 532              		.loc 1 150 5 is_stmt 1 view .LVU126
 533              	.LBB83:
 534              	.LBI78:
 535              		.loc 2 155 21 view .LVU127
 536              	.LBB80:
 537              		.loc 2 157 3 view .LVU128
 538              		.loc 2 157 10 is_stmt 0 view .LVU129
 539 0132 1021     		movs	r1, #16
 540 0134 7E48     		ldr	r0, .L18+4
 541              	.LVL45:
 542              		.loc 2 157 10 view .LVU130
 543 0136 FFF7FEFF 		bl	chHeapAllocAligned
ARM GAS  /tmp/ccXsMVKs.s 			page 11


 544              	.LVL46:
 545              	.LBE80:
 546              	.LBE83:
 547              	.LBB84:
 548              	.LBB85:
 549 013a 0822     		movs	r2, #8
 550 013c 1021     		movs	r1, #16
 551              	.LBE85:
 552              	.LBE84:
 553              	.LBB87:
 554              	.LBB81:
 555 013e 0746     		mov	r7, r0
 556              	.LVL47:
 557              		.loc 2 157 10 view .LVU131
 558              	.LBE81:
 559              	.LBE87:
 560              		.loc 1 151 5 is_stmt 1 view .LVU132
 561              	.LBB88:
 562              	.LBI84:
 563              		.loc 2 155 21 view .LVU133
 564              	.LBB86:
 565              		.loc 2 157 3 view .LVU134
 566              		.loc 2 157 10 is_stmt 0 view .LVU135
 567 0140 7B48     		ldr	r0, .L18+4
 568              	.LVL48:
 569              		.loc 2 157 10 view .LVU136
 570 0142 FFF7FEFF 		bl	chHeapAllocAligned
 571              	.LVL49:
 572              		.loc 2 157 10 view .LVU137
 573              	.LBE86:
 574              	.LBE88:
 575              		.loc 1 152 5 is_stmt 1 view .LVU138
 576 0146 FFF7FEFF 		bl	chHeapFree
 577              	.LVL50:
 578              		.loc 1 153 5 view .LVU139
 579 014a 3846     		mov	r0, r7
 580 014c FFF7FEFF 		bl	chHeapFree
 581              	.LVL51:
 582              		.loc 1 154 5 view .LVU140
 583 0150 3046     		mov	r0, r6
 584 0152 FFF7FEFF 		bl	chHeapFree
 585              	.LVL52:
 586              		.loc 1 155 5 view .LVU141
 587 0156 2A46     		mov	r2, r5
 588 0158 6946     		mov	r1, sp
 589 015a 7548     		ldr	r0, .L18+4
 590 015c FFF7FEFF 		bl	chHeapStatus
 591              	.LVL53:
 592 0160 A0F10100 		sub	r0, #1
 593 0164 B0FA80F0 		clz	r0, r0
 594 0168 7249     		ldr	r1, .L18+8
 595 016a 4009     		lsrs	r0, r0, #5
 596 016c FFF7FEFF 		bl	_test_assert
 597              	.LVL54:
 598 0170 0546     		mov	r5, r0
 599 0172 0028     		cmp	r0, #0
 600 0174 7FF458AF 		bne	.L8
ARM GAS  /tmp/ccXsMVKs.s 			page 12


 601              		.loc 1 155 76 discriminator 2 view .LVU142
 602              		.loc 1 160 3 discriminator 2 view .LVU143
 603 0178 0723     		movs	r3, #7
 604              	.LBB89:
 605              	.LBB90:
 606              		.loc 2 157 10 is_stmt 0 discriminator 2 view .LVU144
 607 017a 0822     		movs	r2, #8
 608 017c 1121     		movs	r1, #17
 609 017e 6C48     		ldr	r0, .L18+4
 610              	.LBE90:
 611              	.LBE89:
 612              		.loc 1 160 3 discriminator 2 view .LVU145
 613 0180 2360     		str	r3, [r4]
 614              		.loc 1 162 5 is_stmt 1 discriminator 2 view .LVU146
 615              	.LVL55:
 616              	.LBB93:
 617              	.LBI89:
 618              		.loc 2 155 21 discriminator 2 view .LVU147
 619              	.LBB91:
 620              		.loc 2 157 3 discriminator 2 view .LVU148
 621              		.loc 2 157 10 is_stmt 0 discriminator 2 view .LVU149
 622 0182 FFF7FEFF 		bl	chHeapAllocAligned
 623              	.LVL56:
 624              	.LBE91:
 625              	.LBE93:
 626              	.LBB94:
 627              	.LBB95:
 628 0186 0822     		movs	r2, #8
 629              	.LBE95:
 630              	.LBE94:
 631              	.LBB98:
 632              	.LBB92:
 633 0188 0646     		mov	r6, r0
 634              	.LVL57:
 635              		.loc 2 157 10 discriminator 2 view .LVU150
 636              	.LBE92:
 637              	.LBE98:
 638              		.loc 1 163 5 is_stmt 1 discriminator 2 view .LVU151
 639              	.LBB99:
 640              	.LBI94:
 641              		.loc 2 155 21 discriminator 2 view .LVU152
 642              	.LBB96:
 643              		.loc 2 157 3 discriminator 2 view .LVU153
 644              		.loc 2 157 10 is_stmt 0 discriminator 2 view .LVU154
 645 018a 1021     		movs	r1, #16
 646 018c 6848     		ldr	r0, .L18+4
 647              	.LVL58:
 648              		.loc 2 157 10 discriminator 2 view .LVU155
 649 018e FFF7FEFF 		bl	chHeapAllocAligned
 650              	.LVL59:
 651 0192 0346     		mov	r3, r0
 652              	.LBE96:
 653              	.LBE99:
 654              		.loc 1 164 5 discriminator 2 view .LVU156
 655 0194 3046     		mov	r0, r6
 656              	.LBB100:
 657              	.LBB97:
ARM GAS  /tmp/ccXsMVKs.s 			page 13


 658              		.loc 2 157 10 discriminator 2 view .LVU157
 659 0196 1E46     		mov	r6, r3
 660              	.LVL60:
 661              		.loc 2 157 10 discriminator 2 view .LVU158
 662              	.LBE97:
 663              	.LBE100:
 664              		.loc 1 164 5 is_stmt 1 discriminator 2 view .LVU159
 665 0198 FFF7FEFF 		bl	chHeapFree
 666              	.LVL61:
 667              		.loc 1 165 5 discriminator 2 view .LVU160
 668 019c 2A46     		mov	r2, r5
 669 019e 6946     		mov	r1, sp
 670 01a0 6348     		ldr	r0, .L18+4
 671 01a2 FFF7FEFF 		bl	chHeapStatus
 672              	.LVL62:
 673 01a6 A0F10200 		sub	r0, #2
 674 01aa B0FA80F0 		clz	r0, r0
 675 01ae 6649     		ldr	r1, .L18+28
 676 01b0 4009     		lsrs	r0, r0, #5
 677 01b2 FFF7FEFF 		bl	_test_assert
 678              	.LVL63:
 679 01b6 0546     		mov	r5, r0
 680 01b8 0028     		cmp	r0, #0
 681 01ba 7FF435AF 		bne	.L8
 682              		.loc 1 165 74 view .LVU161
 683              		.loc 1 166 5 view .LVU162
 684              	.LVL64:
 685              	.LBB101:
 686              	.LBI101:
 687              		.loc 2 155 21 view .LVU163
 688              	.LBB102:
 689              		.loc 2 157 3 view .LVU164
 690              		.loc 2 157 10 is_stmt 0 view .LVU165
 691 01be 0822     		movs	r2, #8
 692 01c0 1021     		movs	r1, #16
 693 01c2 5B48     		ldr	r0, .L18+4
 694 01c4 FFF7FEFF 		bl	chHeapAllocAligned
 695              	.LVL65:
 696              	.LBE102:
 697              	.LBE101:
 698              		.loc 1 169 5 view .LVU166
 699 01c8 2A46     		mov	r2, r5
 700              	.LBB104:
 701              	.LBB103:
 702              		.loc 2 157 10 view .LVU167
 703 01ca 0746     		mov	r7, r0
 704              	.LVL66:
 705              		.loc 2 157 10 view .LVU168
 706              	.LBE103:
 707              	.LBE104:
 708              		.loc 1 169 5 is_stmt 1 view .LVU169
 709 01cc 6946     		mov	r1, sp
 710 01ce 5848     		ldr	r0, .L18+4
 711              	.LVL67:
 712              		.loc 1 169 5 is_stmt 0 view .LVU170
 713 01d0 FFF7FEFF 		bl	chHeapStatus
 714              	.LVL68:
ARM GAS  /tmp/ccXsMVKs.s 			page 14


 715 01d4 0128     		cmp	r0, #1
 716 01d6 00F0A680 		beq	.L15
 717              		.loc 1 169 5 discriminator 2 view .LVU171
 718 01da 5548     		ldr	r0, .L18+4
 719 01dc 0022     		movs	r2, #0
 720 01de 6946     		mov	r1, sp
 721 01e0 FFF7FEFF 		bl	chHeapStatus
 722              	.LVL69:
 723 01e4 A0F10208 		sub	r8, r0, #2
 724 01e8 D8F10000 		rsbs	r0, r8, #0
 725 01ec 40EB0800 		adc	r0, r0, r8
 726              	.L14:
 727              		.loc 1 169 5 discriminator 6 view .LVU172
 728 01f0 5049     		ldr	r1, .L18+8
 729 01f2 FFF7FEFF 		bl	_test_assert
 730              	.LVL70:
 731 01f6 0546     		mov	r5, r0
 732 01f8 0028     		cmp	r0, #0
 733 01fa 7FF415AF 		bne	.L8
 734              		.loc 1 170 78 is_stmt 1 view .LVU173
 735              		.loc 1 171 5 view .LVU174
 736 01fe 3046     		mov	r0, r6
 737 0200 FFF7FEFF 		bl	chHeapFree
 738              	.LVL71:
 739              		.loc 1 172 5 view .LVU175
 740 0204 3846     		mov	r0, r7
 741 0206 FFF7FEFF 		bl	chHeapFree
 742              	.LVL72:
 743              		.loc 1 173 5 view .LVU176
 744 020a 2A46     		mov	r2, r5
 745 020c 6946     		mov	r1, sp
 746 020e 4848     		ldr	r0, .L18+4
 747 0210 FFF7FEFF 		bl	chHeapStatus
 748              	.LVL73:
 749 0214 00F1FF3E 		add	lr, r0, #-1
 750 0218 DEF10000 		rsbs	r0, lr, #0
 751 021c 4549     		ldr	r1, .L18+8
 752 021e 40EB0E00 		adc	r0, r0, lr
 753 0222 FFF7FEFF 		bl	_test_assert
 754              	.LVL74:
 755 0226 0646     		mov	r6, r0
 756              	.LVL75:
 757              		.loc 1 173 5 is_stmt 0 view .LVU177
 758 0228 0028     		cmp	r0, #0
 759 022a 7FF4FDAE 		bne	.L8
 760              		.loc 1 173 76 is_stmt 1 discriminator 2 view .LVU178
 761              		.loc 1 178 3 discriminator 2 view .LVU179
 762 022e 0825     		movs	r5, #8
 763              	.LBB105:
 764              	.LBB106:
 765              		.loc 2 157 10 is_stmt 0 discriminator 2 view .LVU180
 766 0230 2A46     		mov	r2, r5
 767 0232 1021     		movs	r1, #16
 768 0234 3E48     		ldr	r0, .L18+4
 769              	.LBE106:
 770              	.LBE105:
 771              		.loc 1 178 3 discriminator 2 view .LVU181
ARM GAS  /tmp/ccXsMVKs.s 			page 15


 772 0236 2560     		str	r5, [r4]
 773              		.loc 1 180 5 is_stmt 1 discriminator 2 view .LVU182
 774              	.LVL76:
 775              	.LBB109:
 776              	.LBI105:
 777              		.loc 2 155 21 discriminator 2 view .LVU183
 778              	.LBB107:
 779              		.loc 2 157 3 discriminator 2 view .LVU184
 780              		.loc 2 157 10 is_stmt 0 discriminator 2 view .LVU185
 781 0238 FFF7FEFF 		bl	chHeapAllocAligned
 782              	.LVL77:
 783              	.LBE107:
 784              	.LBE109:
 785              	.LBB110:
 786              	.LBB111:
 787 023c 2A46     		mov	r2, r5
 788 023e 1021     		movs	r1, #16
 789              	.LBE111:
 790              	.LBE110:
 791              	.LBB113:
 792              	.LBB108:
 793 0240 8046     		mov	r8, r0
 794              	.LVL78:
 795              		.loc 2 157 10 discriminator 2 view .LVU186
 796              	.LBE108:
 797              	.LBE113:
 798              		.loc 1 181 5 is_stmt 1 discriminator 2 view .LVU187
 799              	.LBB114:
 800              	.LBI110:
 801              		.loc 2 155 21 discriminator 2 view .LVU188
 802              	.LBB112:
 803              		.loc 2 157 3 discriminator 2 view .LVU189
 804              		.loc 2 157 10 is_stmt 0 discriminator 2 view .LVU190
 805 0242 3B48     		ldr	r0, .L18+4
 806              	.LVL79:
 807              		.loc 2 157 10 discriminator 2 view .LVU191
 808 0244 FFF7FEFF 		bl	chHeapAllocAligned
 809              	.LVL80:
 810 0248 0746     		mov	r7, r0
 811              	.LBE112:
 812              	.LBE114:
 813              		.loc 1 182 5 discriminator 2 view .LVU192
 814 024a 4046     		mov	r0, r8
 815              	.LVL81:
 816              		.loc 1 182 5 is_stmt 1 discriminator 2 view .LVU193
 817 024c FFF7FEFF 		bl	chHeapFree
 818              	.LVL82:
 819              		.loc 1 183 5 discriminator 2 view .LVU194
 820 0250 3246     		mov	r2, r6
 821 0252 6946     		mov	r1, sp
 822 0254 3648     		ldr	r0, .L18+4
 823 0256 FFF7FEFF 		bl	chHeapStatus
 824              	.LVL83:
 825 025a A0F1020C 		sub	ip, r0, #2
 826 025e DCF10000 		rsbs	r0, ip, #0
 827 0262 3949     		ldr	r1, .L18+28
 828 0264 40EB0C00 		adc	r0, r0, ip
ARM GAS  /tmp/ccXsMVKs.s 			page 16


 829 0268 FFF7FEFF 		bl	_test_assert
 830              	.LVL84:
 831 026c 0646     		mov	r6, r0
 832 026e 0028     		cmp	r0, #0
 833 0270 7FF4DAAE 		bne	.L8
 834              		.loc 1 183 75 view .LVU195
 835              		.loc 1 184 5 view .LVU196
 836              	.LVL85:
 837              	.LBB115:
 838              	.LBI115:
 839              		.loc 2 155 21 view .LVU197
 840              	.LBB116:
 841              		.loc 2 157 3 view .LVU198
 842              		.loc 2 157 10 is_stmt 0 view .LVU199
 843 0274 2A46     		mov	r2, r5
 844 0276 2021     		movs	r1, #32
 845 0278 2D48     		ldr	r0, .L18+4
 846 027a FFF7FEFF 		bl	chHeapAllocAligned
 847              	.LVL86:
 848              		.loc 2 157 10 view .LVU200
 849              	.LBE116:
 850              	.LBE115:
 851              		.loc 1 185 5 is_stmt 1 view .LVU201
 852 027e FFF7FEFF 		bl	chHeapFree
 853              	.LVL87:
 854              		.loc 1 186 5 view .LVU202
 855 0282 3846     		mov	r0, r7
 856 0284 FFF7FEFF 		bl	chHeapFree
 857              	.LVL88:
 858              		.loc 1 187 5 view .LVU203
 859 0288 3246     		mov	r2, r6
 860 028a 6946     		mov	r1, sp
 861 028c 2848     		ldr	r0, .L18+4
 862 028e FFF7FEFF 		bl	chHeapStatus
 863              	.LVL89:
 864 0292 461E     		subs	r6, r0, #1
 865 0294 7042     		rsbs	r0, r6, #0
 866 0296 2749     		ldr	r1, .L18+8
 867 0298 7041     		adcs	r0, r0, r6
 868 029a FFF7FEFF 		bl	_test_assert
 869              	.LVL90:
 870 029e 0246     		mov	r2, r0
 871 02a0 0028     		cmp	r0, #0
 872 02a2 7FF4C1AE 		bne	.L8
 873              		.loc 1 187 76 discriminator 2 view .LVU204
 874              		.loc 1 191 3 discriminator 2 view .LVU205
 875 02a6 0923     		movs	r3, #9
 876              		.loc 1 193 11 is_stmt 0 discriminator 2 view .LVU206
 877 02a8 6946     		mov	r1, sp
 878 02aa 2148     		ldr	r0, .L18+4
 879              		.loc 1 191 3 discriminator 2 view .LVU207
 880 02ac 2360     		str	r3, [r4]
 881              		.loc 1 193 5 is_stmt 1 discriminator 2 view .LVU208
 882              		.loc 1 193 11 is_stmt 0 discriminator 2 view .LVU209
 883 02ae FFF7FEFF 		bl	chHeapStatus
 884              	.LVL91:
 885              		.loc 1 194 5 is_stmt 1 discriminator 2 view .LVU210
ARM GAS  /tmp/ccXsMVKs.s 			page 17


 886              	.LBB117:
 887              	.LBI117:
 888              		.loc 2 155 21 discriminator 2 view .LVU211
 889              	.LBB118:
 890              		.loc 2 157 3 discriminator 2 view .LVU212
 891              		.loc 2 157 10 is_stmt 0 discriminator 2 view .LVU213
 892 02b2 2A46     		mov	r2, r5
 893 02b4 0099     		ldr	r1, [sp]
 894 02b6 1E48     		ldr	r0, .L18+4
 895 02b8 FFF7FEFF 		bl	chHeapAllocAligned
 896              	.LVL92:
 897              		.loc 2 157 10 discriminator 2 view .LVU214
 898 02bc 0646     		mov	r6, r0
 899              	.LVL93:
 900              		.loc 2 157 10 discriminator 2 view .LVU215
 901              	.LBE118:
 902              	.LBE117:
 903              		.loc 1 195 5 is_stmt 1 discriminator 2 view .LVU216
 904 02be 0038     		subs	r0, r0, #0
 905              	.LVL94:
 906              		.loc 1 195 5 is_stmt 0 discriminator 2 view .LVU217
 907 02c0 1E49     		ldr	r1, .L18+16
 908 02c2 18BF     		it	ne
 909 02c4 0120     		movne	r0, #1
 910 02c6 FFF7FEFF 		bl	_test_assert
 911              	.LVL95:
 912 02ca 0246     		mov	r2, r0
 913 02cc 0028     		cmp	r0, #0
 914 02ce 7FF4ABAE 		bne	.L8
 915              		.loc 1 195 49 is_stmt 1 discriminator 2 view .LVU218
 916              		.loc 1 196 5 discriminator 2 view .LVU219
 917 02d2 0146     		mov	r1, r0
 918 02d4 1648     		ldr	r0, .L18+4
 919 02d6 FFF7FEFF 		bl	chHeapStatus
 920              	.LVL96:
 921 02da B0FA80F0 		clz	r0, r0
 922 02de 1B49     		ldr	r1, .L18+32
 923 02e0 4009     		lsrs	r0, r0, #5
 924 02e2 FFF7FEFF 		bl	_test_assert
 925              	.LVL97:
 926 02e6 0546     		mov	r5, r0
 927 02e8 0028     		cmp	r0, #0
 928 02ea 7FF49DAE 		bne	.L8
 929              		.loc 1 196 72 discriminator 2 view .LVU220
 930              		.loc 1 197 5 discriminator 2 view .LVU221
 931 02ee 3046     		mov	r0, r6
 932 02f0 FFF7FEFF 		bl	chHeapFree
 933              	.LVL98:
 934              		.loc 1 202 3 discriminator 2 view .LVU222
 935              		.loc 1 204 5 is_stmt 0 discriminator 2 view .LVU223
 936 02f4 2A46     		mov	r2, r5
 937 02f6 6946     		mov	r1, sp
 938              		.loc 1 202 3 discriminator 2 view .LVU224
 939 02f8 0A23     		movs	r3, #10
 940              		.loc 1 204 5 discriminator 2 view .LVU225
 941 02fa 0D48     		ldr	r0, .L18+4
 942              		.loc 1 202 3 discriminator 2 view .LVU226
ARM GAS  /tmp/ccXsMVKs.s 			page 18


 943 02fc 2360     		str	r3, [r4]
 944              		.loc 1 204 5 is_stmt 1 discriminator 2 view .LVU227
 945 02fe FFF7FEFF 		bl	chHeapStatus
 946              	.LVL99:
 947 0302 421E     		subs	r2, r0, #1
 948 0304 5042     		rsbs	r0, r2, #0
 949 0306 5041     		adcs	r0, r0, r2
 950 0308 0A49     		ldr	r1, .L18+8
 951 030a FFF7FEFF 		bl	_test_assert
 952              	.LVL100:
 953 030e 0028     		cmp	r0, #0
 954 0310 7FF48AAE 		bne	.L8
 955              		.loc 1 204 76 discriminator 2 view .LVU228
 956              		.loc 1 205 5 discriminator 2 view .LVU229
 957 0314 DDE90003 		ldrd	r0, r3, [sp]
 958 0318 C31A     		subs	r3, r0, r3
 959 031a 5842     		rsbs	r0, r3, #0
 960 031c 0C49     		ldr	r1, .L18+36
 961 031e 5841     		adcs	r0, r0, r3
 962 0320 FFF7FEFF 		bl	_test_assert
 963              	.LVL101:
 964              		.loc 1 205 5 discriminator 2 view .LVU230
 965 0324 80E6     		b	.L8
 966              	.LVL102:
 967              	.L15:
 968              		.loc 1 169 5 is_stmt 0 view .LVU231
 969 0326 0120     		movs	r0, #1
 970 0328 62E7     		b	.L14
 971              	.L19:
 972 032a 00BF     		.align	2
 973              	.L18:
 974 032c 00000000 		.word	test_step
 975 0330 00000000 		.word	.LANCHOR0
 976 0334 00000000 		.word	.LC2
 977 0338 14000000 		.word	.LC1
 978 033c 00000000 		.word	.LC0
 979 0340 10000000 		.word	.LC3
 980 0344 24000000 		.word	.LC4
 981 0348 3C000000 		.word	.LC5
 982 034c 4C000000 		.word	.LC6
 983 0350 58000000 		.word	.LC7
 984              		.cfi_endproc
 985              	.LFE278:
 986              		.size	test_010_001_execute, .-test_010_001_execute
 987              		.section	.text.test_010_001_setup,"ax",%progbits
 988              		.align	1
 989              		.p2align 4,,15
 990              		.syntax unified
 991              		.thumb
 992              		.thumb_func
 993              		.fpu softvfp
 994              		.type	test_010_001_setup, %function
 995              	test_010_001_setup:
 996              	.LFB277:
 997              		.loc 1 90 38 is_stmt 1 view -0
 998              		.cfi_startproc
 999              		@ args = 0, pretend = 0, frame = 0
ARM GAS  /tmp/ccXsMVKs.s 			page 19


 1000              		@ frame_needed = 0, uses_anonymous_args = 0
 1001              		@ link register save eliminated.
 1002              		.loc 1 91 3 view .LVU233
 1003 0000 0249     		ldr	r1, .L21
 1004 0002 0348     		ldr	r0, .L21+4
 1005 0004 4FF4CD62 		mov	r2, #1640
 1006 0008 FFF7FEBF 		b	chHeapObjectInit
 1007              	.LVL103:
 1008              	.L22:
 1009              		.align	2
 1010              	.L21:
 1011 000c 00000000 		.word	test_buffer
 1012 0010 00000000 		.word	.LANCHOR0
 1013              		.cfi_endproc
 1014              	.LFE277:
 1015              		.size	test_010_001_setup, .-test_010_001_setup
 1016              		.global	test_sequence_010
 1017              		.section	.rodata.str1.4,"aMS",%progbits,1
 1018              		.align	2
 1019              	.LC8:
 1020 0000 44656661 		.ascii	"Default Heap\000"
 1020      756C7420 
 1020      48656170 
 1020      00
 1021 000d 000000   		.align	2
 1022              	.LC9:
 1023 0010 416C6C6F 		.ascii	"Allocation and fragmentation\000"
 1023      63617469 
 1023      6F6E2061 
 1023      6E642066 
 1023      7261676D 
 1024              		.global	test_heap
 1025              		.section	.bss.test_heap,"aw",%nobits
 1026              		.align	3
 1027              		.set	.LANCHOR0,. + 0
 1028              		.type	test_heap, %object
 1029              		.size	test_heap, 32
 1030              	test_heap:
 1031 0000 00000000 		.space	32
 1031      00000000 
 1031      00000000 
 1031      00000000 
 1031      00000000 
 1032              		.section	.rodata.test_010_001,"a"
 1033              		.align	2
 1034              		.type	test_010_001, %object
 1035              		.size	test_010_001, 16
 1036              	test_010_001:
 1037 0000 10000000 		.word	.LC9
 1038 0004 00000000 		.word	test_010_001_setup
 1039 0008 00000000 		.word	0
 1040 000c 00000000 		.word	test_010_001_execute
 1041              		.section	.rodata.test_010_002,"a"
 1042              		.align	2
 1043              		.type	test_010_002, %object
 1044              		.size	test_010_002, 16
 1045              	test_010_002:
ARM GAS  /tmp/ccXsMVKs.s 			page 20


 1046 0000 00000000 		.word	.LC8
 1047 0004 00000000 		.word	0
 1048 0008 00000000 		.word	0
 1049 000c 00000000 		.word	test_010_002_execute
 1050              		.section	.rodata.test_sequence_010,"a"
 1051              		.align	2
 1052              		.type	test_sequence_010, %object
 1053              		.size	test_sequence_010, 12
 1054              	test_sequence_010:
 1055 0000 00000000 		.word	test_010_001
 1056 0004 00000000 		.word	test_010_002
 1057 0008 00000000 		.word	0
 1058              		.text
 1059              	.Letext0:
 1060              		.file 3 "/usr/lib/gcc/arm-none-eabi/10.3.1/include/stddef.h"
 1061              		.file 4 "/usr/lib/gcc/arm-none-eabi/10.3.1/include/stdint.h"
 1062              		.file 5 "../../../os/common/ports/ARMCMx/compilers/GCC/chtypes.h"
 1063              		.file 6 "../../../os/rt/include/chsystypes.h"
 1064              		.file 7 "../../../os/rt/include/chschd.h"
 1065              		.file 8 "../../../os/common/ports/ARMCMx/chcore.h"
 1066              		.file 9 "../../../os/common/ports/ARMCMx/chcore_v7m.h"
 1067              		.file 10 "../../../os/rt/include/chsem.h"
 1068              		.file 11 "../../../os/rt/include/chmtx.h"
 1069              		.file 12 "../../../os/common/oslib/include/chmemcore.h"
 1070              		.file 13 "../../../test/lib/ch_test.h"
 1071              		.file 14 "../../../test/rt/source/test/test_sequence_010.h"
 1072              		.file 15 "../../../test/rt/source/test/test_root.h"
 1073              		.section	.debug_info,"",%progbits
 1074              	.Ldebug_info0:
 1075 0000 8B110000 		.4byte	0x118b
 1076 0004 0400     		.2byte	0x4
 1077 0006 00000000 		.4byte	.Ldebug_abbrev0
 1078 000a 04       		.byte	0x4
 1079 000b 01       		.uleb128 0x1
 1080 000c DE020000 		.4byte	.LASF97
 1081 0010 0C       		.byte	0xc
 1082 0011 1B000000 		.4byte	.LASF98
 1083 0015 93010000 		.4byte	.LASF99
 1084 0019 B0010000 		.4byte	.Ldebug_ranges0+0x1b0
 1085 001d 00000000 		.4byte	0
 1086 0021 00000000 		.4byte	.Ldebug_line0
 1087 0025 02       		.uleb128 0x2
 1088 0026 04       		.byte	0x4
 1089 0027 05       		.byte	0x5
 1090 0028 696E7400 		.ascii	"int\000"
 1091 002c 03       		.uleb128 0x3
 1092 002d 69000000 		.4byte	.LASF5
 1093 0031 03       		.byte	0x3
 1094 0032 D1       		.byte	0xd1
 1095 0033 17       		.byte	0x17
 1096 0034 38000000 		.4byte	0x38
 1097 0038 04       		.uleb128 0x4
 1098 0039 04       		.byte	0x4
 1099 003a 07       		.byte	0x7
 1100 003b 7B020000 		.4byte	.LASF0
 1101 003f 04       		.uleb128 0x4
 1102 0040 08       		.byte	0x8
ARM GAS  /tmp/ccXsMVKs.s 			page 21


 1103 0041 05       		.byte	0x5
 1104 0042 6D010000 		.4byte	.LASF1
 1105 0046 04       		.uleb128 0x4
 1106 0047 08       		.byte	0x8
 1107 0048 04       		.byte	0x4
 1108 0049 A2000000 		.4byte	.LASF2
 1109 004d 04       		.uleb128 0x4
 1110 004e 01       		.byte	0x1
 1111 004f 06       		.byte	0x6
 1112 0050 57020000 		.4byte	.LASF3
 1113 0054 04       		.uleb128 0x4
 1114 0055 02       		.byte	0x2
 1115 0056 05       		.byte	0x5
 1116 0057 E0000000 		.4byte	.LASF4
 1117 005b 03       		.uleb128 0x3
 1118 005c BF030000 		.4byte	.LASF6
 1119 0060 04       		.byte	0x4
 1120 0061 28       		.byte	0x28
 1121 0062 18       		.byte	0x18
 1122 0063 67000000 		.4byte	0x67
 1123 0067 04       		.uleb128 0x4
 1124 0068 04       		.byte	0x4
 1125 0069 05       		.byte	0x5
 1126 006a 8A010000 		.4byte	.LASF7
 1127 006e 03       		.uleb128 0x3
 1128 006f 06010000 		.4byte	.LASF8
 1129 0073 04       		.byte	0x4
 1130 0074 2E       		.byte	0x2e
 1131 0075 18       		.byte	0x18
 1132 0076 7A000000 		.4byte	0x7a
 1133 007a 04       		.uleb128 0x4
 1134 007b 01       		.byte	0x1
 1135 007c 08       		.byte	0x8
 1136 007d 23020000 		.4byte	.LASF9
 1137 0081 04       		.uleb128 0x4
 1138 0082 02       		.byte	0x2
 1139 0083 07       		.byte	0x7
 1140 0084 CB020000 		.4byte	.LASF10
 1141 0088 03       		.uleb128 0x3
 1142 0089 0B000000 		.4byte	.LASF11
 1143 008d 04       		.byte	0x4
 1144 008e 34       		.byte	0x34
 1145 008f 19       		.byte	0x19
 1146 0090 94000000 		.4byte	0x94
 1147 0094 04       		.uleb128 0x4
 1148 0095 04       		.byte	0x4
 1149 0096 07       		.byte	0x7
 1150 0097 1C040000 		.4byte	.LASF12
 1151 009b 03       		.uleb128 0x3
 1152 009c 5B000000 		.4byte	.LASF13
 1153 00a0 04       		.byte	0x4
 1154 00a1 37       		.byte	0x37
 1155 00a2 19       		.byte	0x19
 1156 00a3 A7000000 		.4byte	0xa7
 1157 00a7 04       		.uleb128 0x4
 1158 00a8 08       		.byte	0x8
 1159 00a9 07       		.byte	0x7
ARM GAS  /tmp/ccXsMVKs.s 			page 22


 1160 00aa 8B000000 		.4byte	.LASF14
 1161 00ae 03       		.uleb128 0x3
 1162 00af 53010000 		.4byte	.LASF15
 1163 00b3 05       		.byte	0x5
 1164 00b4 3C       		.byte	0x3c
 1165 00b5 1D       		.byte	0x1d
 1166 00b6 6E000000 		.4byte	0x6e
 1167 00ba 03       		.uleb128 0x3
 1168 00bb A8040000 		.4byte	.LASF16
 1169 00bf 05       		.byte	0x5
 1170 00c0 3D       		.byte	0x3d
 1171 00c1 1D       		.byte	0x1d
 1172 00c2 6E000000 		.4byte	0x6e
 1173 00c6 03       		.uleb128 0x3
 1174 00c7 07050000 		.4byte	.LASF17
 1175 00cb 05       		.byte	0x5
 1176 00cc 3E       		.byte	0x3e
 1177 00cd 1D       		.byte	0x1d
 1178 00ce 6E000000 		.4byte	0x6e
 1179 00d2 03       		.uleb128 0x3
 1180 00d3 82010000 		.4byte	.LASF18
 1181 00d7 05       		.byte	0x5
 1182 00d8 40       		.byte	0x40
 1183 00d9 1D       		.byte	0x1d
 1184 00da 88000000 		.4byte	0x88
 1185 00de 03       		.uleb128 0x3
 1186 00df 20050000 		.4byte	.LASF19
 1187 00e3 05       		.byte	0x5
 1188 00e4 41       		.byte	0x41
 1189 00e5 1D       		.byte	0x1d
 1190 00e6 5B000000 		.4byte	0x5b
 1191 00ea 03       		.uleb128 0x3
 1192 00eb BF000000 		.4byte	.LASF20
 1193 00ef 05       		.byte	0x5
 1194 00f0 43       		.byte	0x43
 1195 00f1 1D       		.byte	0x1d
 1196 00f2 88000000 		.4byte	0x88
 1197 00f6 03       		.uleb128 0x3
 1198 00f7 C7030000 		.4byte	.LASF21
 1199 00fb 05       		.byte	0x5
 1200 00fc 45       		.byte	0x45
 1201 00fd 1D       		.byte	0x1d
 1202 00fe 5B000000 		.4byte	0x5b
 1203 0102 03       		.uleb128 0x3
 1204 0103 EB010000 		.4byte	.LASF22
 1205 0107 06       		.byte	0x6
 1206 0108 3F       		.byte	0x3f
 1207 0109 1A       		.byte	0x1a
 1208 010a 0E010000 		.4byte	0x10e
 1209 010e 05       		.uleb128 0x5
 1210 010f 29010000 		.4byte	.LASF40
 1211 0113 44       		.byte	0x44
 1212 0114 07       		.byte	0x7
 1213 0115 9A       		.byte	0x9a
 1214 0116 08       		.byte	0x8
 1215 0117 FE010000 		.4byte	0x1fe
 1216 011b 06       		.uleb128 0x6
ARM GAS  /tmp/ccXsMVKs.s 			page 23


 1217 011c 0C020000 		.4byte	.LASF23
 1218 0120 07       		.byte	0x7
 1219 0121 9B       		.byte	0x9b
 1220 0122 19       		.byte	0x19
 1221 0123 37020000 		.4byte	0x237
 1222 0127 00       		.byte	0
 1223 0128 06       		.uleb128 0x6
 1224 0129 0F050000 		.4byte	.LASF24
 1225 012d 07       		.byte	0x7
 1226 012e 9C       		.byte	0x9c
 1227 012f 19       		.byte	0x19
 1228 0130 D2000000 		.4byte	0xd2
 1229 0134 08       		.byte	0x8
 1230 0135 07       		.uleb128 0x7
 1231 0136 63747800 		.ascii	"ctx\000"
 1232 013a 07       		.byte	0x7
 1233 013b 9D       		.byte	0x9d
 1234 013c 19       		.byte	0x19
 1235 013d 85020000 		.4byte	0x285
 1236 0141 0C       		.byte	0xc
 1237 0142 06       		.uleb128 0x6
 1238 0143 06020000 		.4byte	.LASF25
 1239 0147 07       		.byte	0x7
 1240 0148 9F       		.byte	0x9f
 1241 0149 1A       		.byte	0x1a
 1242 014a 0A020000 		.4byte	0x20a
 1243 014e 10       		.byte	0x10
 1244 014f 06       		.uleb128 0x6
 1245 0150 33010000 		.4byte	.LASF26
 1246 0154 07       		.byte	0x7
 1247 0155 A0       		.byte	0xa0
 1248 0156 1A       		.byte	0x1a
 1249 0157 0A020000 		.4byte	0x20a
 1250 015b 14       		.byte	0x14
 1251 015c 06       		.uleb128 0x6
 1252 015d 12020000 		.4byte	.LASF27
 1253 0161 07       		.byte	0x7
 1254 0162 A7       		.byte	0xa7
 1255 0163 1A       		.byte	0x1a
 1256 0164 06040000 		.4byte	0x406
 1257 0168 18       		.byte	0x18
 1258 0169 06       		.uleb128 0x6
 1259 016a 39010000 		.4byte	.LASF28
 1260 016e 07       		.byte	0x7
 1261 016f B0       		.byte	0xb0
 1262 0170 1A       		.byte	0x1a
 1263 0171 18040000 		.4byte	0x418
 1264 0175 1C       		.byte	0x1c
 1265 0176 06       		.uleb128 0x6
 1266 0177 55000000 		.4byte	.LASF29
 1267 017b 07       		.byte	0x7
 1268 017c B5       		.byte	0xb5
 1269 017d 19       		.byte	0x19
 1270 017e BA000000 		.4byte	0xba
 1271 0182 20       		.byte	0x20
 1272 0183 06       		.uleb128 0x6
 1273 0184 63020000 		.4byte	.LASF30
ARM GAS  /tmp/ccXsMVKs.s 			page 24


 1274 0188 07       		.byte	0x7
 1275 0189 B9       		.byte	0xb9
 1276 018a 19       		.byte	0x19
 1277 018b AE000000 		.4byte	0xae
 1278 018f 21       		.byte	0x21
 1279 0190 06       		.uleb128 0x6
 1280 0191 F8030000 		.4byte	.LASF31
 1281 0195 07       		.byte	0x7
 1282 0196 BE       		.byte	0xbe
 1283 0197 19       		.byte	0x19
 1284 0198 C6000000 		.4byte	0xc6
 1285 019c 22       		.byte	0x22
 1286 019d 08       		.uleb128 0x8
 1287 019e 7500     		.ascii	"u\000"
 1288 01a0 07       		.byte	0x7
 1289 01a1 0F01     		.2byte	0x10f
 1290 01a3 19       		.byte	0x19
 1291 01a4 2B030000 		.4byte	0x32b
 1292 01a8 24       		.byte	0x24
 1293 01a9 09       		.uleb128 0x9
 1294 01aa EA040000 		.4byte	.LASF32
 1295 01ae 07       		.byte	0x7
 1296 01af 1401     		.2byte	0x114
 1297 01b1 19       		.byte	0x19
 1298 01b2 10020000 		.4byte	0x210
 1299 01b6 28       		.byte	0x28
 1300 01b7 09       		.uleb128 0x9
 1301 01b8 F4010000 		.4byte	.LASF33
 1302 01bc 07       		.byte	0x7
 1303 01bd 1A01     		.2byte	0x11a
 1304 01bf 19       		.byte	0x19
 1305 01c0 37020000 		.4byte	0x237
 1306 01c4 2C       		.byte	0x2c
 1307 01c5 09       		.uleb128 0x9
 1308 01c6 4C000000 		.4byte	.LASF34
 1309 01ca 07       		.byte	0x7
 1310 01cb 2001     		.2byte	0x120
 1311 01cd 19       		.byte	0x19
 1312 01ce EA000000 		.4byte	0xea
 1313 01d2 34       		.byte	0x34
 1314 01d3 09       		.uleb128 0x9
 1315 01d4 F2040000 		.4byte	.LASF35
 1316 01d8 07       		.byte	0x7
 1317 01d9 2701     		.2byte	0x127
 1318 01db 1A       		.byte	0x1a
 1319 01dc 00040000 		.4byte	0x400
 1320 01e0 38       		.byte	0x38
 1321 01e1 09       		.uleb128 0x9
 1322 01e2 CD030000 		.4byte	.LASF36
 1323 01e6 07       		.byte	0x7
 1324 01e7 2B01     		.2byte	0x12b
 1325 01e9 19       		.byte	0x19
 1326 01ea D2000000 		.4byte	0xd2
 1327 01ee 3C       		.byte	0x3c
 1328 01ef 09       		.uleb128 0x9
 1329 01f0 C5040000 		.4byte	.LASF37
 1330 01f4 07       		.byte	0x7
ARM GAS  /tmp/ccXsMVKs.s 			page 25


 1331 01f5 3201     		.2byte	0x132
 1332 01f7 1A       		.byte	0x1a
 1333 01f8 6B020000 		.4byte	0x26b
 1334 01fc 40       		.byte	0x40
 1335 01fd 00       		.byte	0
 1336 01fe 03       		.uleb128 0x3
 1337 01ff 8E040000 		.4byte	.LASF38
 1338 0203 06       		.byte	0x6
 1339 0204 44       		.byte	0x44
 1340 0205 14       		.byte	0x14
 1341 0206 0A020000 		.4byte	0x20a
 1342 020a 0A       		.uleb128 0xa
 1343 020b 04       		.byte	0x4
 1344 020c 02010000 		.4byte	0x102
 1345 0210 03       		.uleb128 0x3
 1346 0211 37020000 		.4byte	.LASF39
 1347 0215 06       		.byte	0x6
 1348 0216 49       		.byte	0x49
 1349 0217 20       		.byte	0x20
 1350 0218 1C020000 		.4byte	0x21c
 1351 021c 05       		.uleb128 0x5
 1352 021d D0000000 		.4byte	.LASF41
 1353 0221 04       		.byte	0x4
 1354 0222 07       		.byte	0x7
 1355 0223 88       		.byte	0x88
 1356 0224 08       		.byte	0x8
 1357 0225 37020000 		.4byte	0x237
 1358 0229 06       		.uleb128 0x6
 1359 022a 14050000 		.4byte	.LASF42
 1360 022e 07       		.byte	0x7
 1361 022f 89       		.byte	0x89
 1362 0230 1A       		.byte	0x1a
 1363 0231 0A020000 		.4byte	0x20a
 1364 0235 00       		.byte	0
 1365 0236 00       		.byte	0
 1366 0237 03       		.uleb128 0x3
 1367 0238 A1020000 		.4byte	.LASF43
 1368 023c 06       		.byte	0x6
 1369 023d 50       		.byte	0x50
 1370 023e 21       		.byte	0x21
 1371 023f 43020000 		.4byte	0x243
 1372 0243 05       		.uleb128 0x5
 1373 0244 0E010000 		.4byte	.LASF44
 1374 0248 08       		.byte	0x8
 1375 0249 07       		.byte	0x7
 1376 024a 8F       		.byte	0x8f
 1377 024b 08       		.byte	0x8
 1378 024c 6B020000 		.4byte	0x26b
 1379 0250 06       		.uleb128 0x6
 1380 0251 14050000 		.4byte	.LASF42
 1381 0255 07       		.byte	0x7
 1382 0256 90       		.byte	0x90
 1383 0257 1A       		.byte	0x1a
 1384 0258 0A020000 		.4byte	0x20a
 1385 025c 00       		.byte	0
 1386 025d 06       		.uleb128 0x6
 1387 025e 64000000 		.4byte	.LASF45
ARM GAS  /tmp/ccXsMVKs.s 			page 26


 1388 0262 07       		.byte	0x7
 1389 0263 91       		.byte	0x91
 1390 0264 1A       		.byte	0x1a
 1391 0265 0A020000 		.4byte	0x20a
 1392 0269 04       		.byte	0x4
 1393 026a 00       		.byte	0
 1394 026b 0B       		.uleb128 0xb
 1395 026c 04       		.byte	0x4
 1396 026d 03       		.uleb128 0x3
 1397 026e FD000000 		.4byte	.LASF46
 1398 0272 08       		.byte	0x8
 1399 0273 65       		.byte	0x65
 1400 0274 0F       		.byte	0xf
 1401 0275 6B020000 		.4byte	0x26b
 1402 0279 03       		.uleb128 0x3
 1403 027a B1040000 		.4byte	.LASF47
 1404 027e 08       		.byte	0x8
 1405 027f 6D       		.byte	0x6d
 1406 0280 12       		.byte	0x12
 1407 0281 9B000000 		.4byte	0x9b
 1408 0285 05       		.uleb128 0x5
 1409 0286 D6010000 		.4byte	.LASF48
 1410 028a 04       		.byte	0x4
 1411 028b 08       		.byte	0x8
 1412 028c 89       		.byte	0x89
 1413 028d 08       		.byte	0x8
 1414 028e 9F020000 		.4byte	0x29f
 1415 0292 07       		.uleb128 0x7
 1416 0293 737000   		.ascii	"sp\000"
 1417 0296 08       		.byte	0x8
 1418 0297 8A       		.byte	0x8a
 1419 0298 17       		.byte	0x17
 1420 0299 25030000 		.4byte	0x325
 1421 029d 00       		.byte	0
 1422 029e 00       		.byte	0
 1423 029f 0C       		.uleb128 0xc
 1424 02a0 6F040000 		.4byte	.LASF49
 1425 02a4 24       		.byte	0x24
 1426 02a5 09       		.byte	0x9
 1427 02a6 5901     		.2byte	0x159
 1428 02a8 08       		.byte	0x8
 1429 02a9 25030000 		.4byte	0x325
 1430 02ad 08       		.uleb128 0x8
 1431 02ae 723400   		.ascii	"r4\000"
 1432 02b1 09       		.byte	0x9
 1433 02b2 6C01     		.2byte	0x16c
 1434 02b4 11       		.byte	0x11
 1435 02b5 6D020000 		.4byte	0x26d
 1436 02b9 00       		.byte	0
 1437 02ba 08       		.uleb128 0x8
 1438 02bb 723500   		.ascii	"r5\000"
 1439 02be 09       		.byte	0x9
 1440 02bf 6D01     		.2byte	0x16d
 1441 02c1 11       		.byte	0x11
 1442 02c2 6D020000 		.4byte	0x26d
 1443 02c6 04       		.byte	0x4
 1444 02c7 08       		.uleb128 0x8
ARM GAS  /tmp/ccXsMVKs.s 			page 27


 1445 02c8 723600   		.ascii	"r6\000"
 1446 02cb 09       		.byte	0x9
 1447 02cc 6E01     		.2byte	0x16e
 1448 02ce 11       		.byte	0x11
 1449 02cf 6D020000 		.4byte	0x26d
 1450 02d3 08       		.byte	0x8
 1451 02d4 08       		.uleb128 0x8
 1452 02d5 723700   		.ascii	"r7\000"
 1453 02d8 09       		.byte	0x9
 1454 02d9 6F01     		.2byte	0x16f
 1455 02db 11       		.byte	0x11
 1456 02dc 6D020000 		.4byte	0x26d
 1457 02e0 0C       		.byte	0xc
 1458 02e1 08       		.uleb128 0x8
 1459 02e2 723800   		.ascii	"r8\000"
 1460 02e5 09       		.byte	0x9
 1461 02e6 7001     		.2byte	0x170
 1462 02e8 11       		.byte	0x11
 1463 02e9 6D020000 		.4byte	0x26d
 1464 02ed 10       		.byte	0x10
 1465 02ee 08       		.uleb128 0x8
 1466 02ef 723900   		.ascii	"r9\000"
 1467 02f2 09       		.byte	0x9
 1468 02f3 7101     		.2byte	0x171
 1469 02f5 11       		.byte	0x11
 1470 02f6 6D020000 		.4byte	0x26d
 1471 02fa 14       		.byte	0x14
 1472 02fb 08       		.uleb128 0x8
 1473 02fc 72313000 		.ascii	"r10\000"
 1474 0300 09       		.byte	0x9
 1475 0301 7201     		.2byte	0x172
 1476 0303 11       		.byte	0x11
 1477 0304 6D020000 		.4byte	0x26d
 1478 0308 18       		.byte	0x18
 1479 0309 08       		.uleb128 0x8
 1480 030a 72313100 		.ascii	"r11\000"
 1481 030e 09       		.byte	0x9
 1482 030f 7301     		.2byte	0x173
 1483 0311 11       		.byte	0x11
 1484 0312 6D020000 		.4byte	0x26d
 1485 0316 1C       		.byte	0x1c
 1486 0317 08       		.uleb128 0x8
 1487 0318 6C7200   		.ascii	"lr\000"
 1488 031b 09       		.byte	0x9
 1489 031c 7401     		.2byte	0x174
 1490 031e 11       		.byte	0x11
 1491 031f 6D020000 		.4byte	0x26d
 1492 0323 20       		.byte	0x20
 1493 0324 00       		.byte	0
 1494 0325 0A       		.uleb128 0xa
 1495 0326 04       		.byte	0x4
 1496 0327 9F020000 		.4byte	0x29f
 1497 032b 0D       		.uleb128 0xd
 1498 032c 04       		.byte	0x4
 1499 032d 07       		.byte	0x7
 1500 032e D2       		.byte	0xd2
 1501 032f 03       		.byte	0x3
ARM GAS  /tmp/ccXsMVKs.s 			page 28


 1502 0330 97030000 		.4byte	0x397
 1503 0334 0E       		.uleb128 0xe
 1504 0335 00050000 		.4byte	.LASF50
 1505 0339 07       		.byte	0x7
 1506 033a D9       		.byte	0xd9
 1507 033b 19       		.byte	0x19
 1508 033c DE000000 		.4byte	0xde
 1509 0340 0E       		.uleb128 0xe
 1510 0341 BC040000 		.4byte	.LASF51
 1511 0345 07       		.byte	0x7
 1512 0346 E0       		.byte	0xe0
 1513 0347 19       		.byte	0x19
 1514 0348 DE000000 		.4byte	0xde
 1515 034c 0E       		.uleb128 0xe
 1516 034d A1040000 		.4byte	.LASF52
 1517 0351 07       		.byte	0x7
 1518 0352 E7       		.byte	0xe7
 1519 0353 1A       		.byte	0x1a
 1520 0354 6B020000 		.4byte	0x26b
 1521 0358 0E       		.uleb128 0xe
 1522 0359 56040000 		.4byte	.LASF53
 1523 035d 07       		.byte	0x7
 1524 035e EE       		.byte	0xee
 1525 035f 1A       		.byte	0x1a
 1526 0360 97030000 		.4byte	0x397
 1527 0364 0E       		.uleb128 0xe
 1528 0365 E3010000 		.4byte	.LASF54
 1529 0369 07       		.byte	0x7
 1530 036a F3       		.byte	0xf3
 1531 036b 19       		.byte	0x19
 1532 036c DE000000 		.4byte	0xde
 1533 0370 0E       		.uleb128 0xe
 1534 0371 7B010000 		.4byte	.LASF55
 1535 0375 07       		.byte	0x7
 1536 0376 FC       		.byte	0xfc
 1537 0377 1A       		.byte	0x1a
 1538 0378 C5030000 		.4byte	0x3c5
 1539 037c 0F       		.uleb128 0xf
 1540 037d 19050000 		.4byte	.LASF56
 1541 0381 07       		.byte	0x7
 1542 0382 0501     		.2byte	0x105
 1543 0384 1A       		.byte	0x1a
 1544 0385 00040000 		.4byte	0x400
 1545 0389 0F       		.uleb128 0xf
 1546 038a 46020000 		.4byte	.LASF57
 1547 038e 07       		.byte	0x7
 1548 038f 0D01     		.2byte	0x10d
 1549 0391 19       		.byte	0x19
 1550 0392 EA000000 		.4byte	0xea
 1551 0396 00       		.byte	0
 1552 0397 0A       		.uleb128 0xa
 1553 0398 04       		.byte	0x4
 1554 0399 FE010000 		.4byte	0x1fe
 1555 039d 05       		.uleb128 0x5
 1556 039e 62040000 		.4byte	.LASF58
 1557 03a2 0C       		.byte	0xc
 1558 03a3 0A       		.byte	0xa
ARM GAS  /tmp/ccXsMVKs.s 			page 29


 1559 03a4 34       		.byte	0x34
 1560 03a5 10       		.byte	0x10
 1561 03a6 C5030000 		.4byte	0x3c5
 1562 03aa 06       		.uleb128 0x6
 1563 03ab 0C020000 		.4byte	.LASF23
 1564 03af 0A       		.byte	0xa
 1565 03b0 35       		.byte	0x35
 1566 03b1 19       		.byte	0x19
 1567 03b2 37020000 		.4byte	0x237
 1568 03b6 00       		.byte	0
 1569 03b7 07       		.uleb128 0x7
 1570 03b8 636E7400 		.ascii	"cnt\000"
 1571 03bc 0A       		.byte	0xa
 1572 03bd 37       		.byte	0x37
 1573 03be 19       		.byte	0x19
 1574 03bf F6000000 		.4byte	0xf6
 1575 03c3 08       		.byte	0x8
 1576 03c4 00       		.byte	0
 1577 03c5 0A       		.uleb128 0xa
 1578 03c6 04       		.byte	0x4
 1579 03c7 9D030000 		.4byte	0x39d
 1580 03cb 05       		.uleb128 0x5
 1581 03cc 69020000 		.4byte	.LASF59
 1582 03d0 10       		.byte	0x10
 1583 03d1 0B       		.byte	0xb
 1584 03d2 39       		.byte	0x39
 1585 03d3 08       		.byte	0x8
 1586 03d4 00040000 		.4byte	0x400
 1587 03d8 06       		.uleb128 0x6
 1588 03d9 0C020000 		.4byte	.LASF23
 1589 03dd 0B       		.byte	0xb
 1590 03de 3A       		.byte	0x3a
 1591 03df 19       		.byte	0x19
 1592 03e0 37020000 		.4byte	0x237
 1593 03e4 00       		.byte	0
 1594 03e5 06       		.uleb128 0x6
 1595 03e6 31020000 		.4byte	.LASF60
 1596 03ea 0B       		.byte	0xb
 1597 03eb 3C       		.byte	0x3c
 1598 03ec 1A       		.byte	0x1a
 1599 03ed 0A020000 		.4byte	0x20a
 1600 03f1 08       		.byte	0x8
 1601 03f2 06       		.uleb128 0x6
 1602 03f3 14050000 		.4byte	.LASF42
 1603 03f7 0B       		.byte	0xb
 1604 03f8 3E       		.byte	0x3e
 1605 03f9 1A       		.byte	0x1a
 1606 03fa 2A040000 		.4byte	0x42a
 1607 03fe 0C       		.byte	0xc
 1608 03ff 00       		.byte	0
 1609 0400 0A       		.uleb128 0xa
 1610 0401 04       		.byte	0x4
 1611 0402 CB030000 		.4byte	0x3cb
 1612 0406 0A       		.uleb128 0xa
 1613 0407 04       		.byte	0x4
 1614 0408 13040000 		.4byte	0x413
 1615 040c 04       		.uleb128 0x4
ARM GAS  /tmp/ccXsMVKs.s 			page 30


 1616 040d 01       		.byte	0x1
 1617 040e 08       		.byte	0x8
 1618 040f B2030000 		.4byte	.LASF61
 1619 0413 10       		.uleb128 0x10
 1620 0414 0C040000 		.4byte	0x40c
 1621 0418 0A       		.uleb128 0xa
 1622 0419 04       		.byte	0x4
 1623 041a 79020000 		.4byte	0x279
 1624 041e 03       		.uleb128 0x3
 1625 041f B7030000 		.4byte	.LASF62
 1626 0423 0B       		.byte	0xb
 1627 0424 34       		.byte	0x34
 1628 0425 19       		.byte	0x19
 1629 0426 CB030000 		.4byte	0x3cb
 1630 042a 0A       		.uleb128 0xa
 1631 042b 04       		.byte	0x4
 1632 042c 1E040000 		.4byte	0x41e
 1633 0430 04       		.uleb128 0x4
 1634 0431 01       		.byte	0x1
 1635 0432 02       		.byte	0x2
 1636 0433 D6030000 		.4byte	.LASF63
 1637 0437 03       		.uleb128 0x3
 1638 0438 88020000 		.4byte	.LASF64
 1639 043c 0C       		.byte	0xc
 1640 043d 47       		.byte	0x47
 1641 043e 11       		.byte	0x11
 1642 043f 43040000 		.4byte	0x443
 1643 0443 0A       		.uleb128 0xa
 1644 0444 04       		.byte	0x4
 1645 0445 49040000 		.4byte	0x449
 1646 0449 11       		.uleb128 0x11
 1647 044a 6B020000 		.4byte	0x26b
 1648 044e 5D040000 		.4byte	0x45d
 1649 0452 12       		.uleb128 0x12
 1650 0453 2C000000 		.4byte	0x2c
 1651 0457 12       		.uleb128 0x12
 1652 0458 38000000 		.4byte	0x38
 1653 045c 00       		.byte	0
 1654 045d 03       		.uleb128 0x3
 1655 045e 26050000 		.4byte	.LASF65
 1656 0462 02       		.byte	0x2
 1657 0463 48       		.byte	0x48
 1658 0464 1C       		.byte	0x1c
 1659 0465 69040000 		.4byte	0x469
 1660 0469 05       		.uleb128 0x5
 1661 046a DC030000 		.4byte	.LASF66
 1662 046e 20       		.byte	0x20
 1663 046f 02       		.byte	0x2
 1664 0470 61       		.byte	0x61
 1665 0471 08       		.byte	0x8
 1666 0472 9E040000 		.4byte	0x49e
 1667 0476 06       		.uleb128 0x6
 1668 0477 72020000 		.4byte	.LASF67
 1669 047b 02       		.byte	0x2
 1670 047c 62       		.byte	0x62
 1671 047d 19       		.byte	0x19
 1672 047e 37040000 		.4byte	0x437
ARM GAS  /tmp/ccXsMVKs.s 			page 31


 1673 0482 00       		.byte	0
 1674 0483 06       		.uleb128 0x6
 1675 0484 14000000 		.4byte	.LASF68
 1676 0488 02       		.byte	0x2
 1677 0489 64       		.byte	0x64
 1678 048a 19       		.byte	0x19
 1679 048b 9E040000 		.4byte	0x49e
 1680 048f 08       		.byte	0x8
 1681 0490 07       		.uleb128 0x7
 1682 0491 6D747800 		.ascii	"mtx\000"
 1683 0495 02       		.byte	0x2
 1684 0496 66       		.byte	0x66
 1685 0497 19       		.byte	0x19
 1686 0498 1E040000 		.4byte	0x41e
 1687 049c 10       		.byte	0x10
 1688 049d 00       		.byte	0
 1689 049e 03       		.uleb128 0x3
 1690 049f 7D000000 		.4byte	.LASF69
 1691 04a3 02       		.byte	0x2
 1692 04a4 4D       		.byte	0x4d
 1693 04a5 1B       		.byte	0x1b
 1694 04a6 AA040000 		.4byte	0x4aa
 1695 04aa 13       		.uleb128 0x13
 1696 04ab CB040000 		.4byte	.LASF100
 1697 04af 08       		.byte	0x8
 1698 04b0 02       		.byte	0x2
 1699 04b1 52       		.byte	0x52
 1700 04b2 07       		.byte	0x7
 1701 04b3 DC040000 		.4byte	0x4dc
 1702 04b7 0E       		.uleb128 0xe
 1703 04b8 7B040000 		.4byte	.LASF70
 1704 04bc 02       		.byte	0x2
 1705 04bd 53       		.byte	0x53
 1706 04be 0E       		.byte	0xe
 1707 04bf 79020000 		.4byte	0x279
 1708 04c3 0E       		.uleb128 0xe
 1709 04c4 24010000 		.4byte	.LASF71
 1710 04c8 02       		.byte	0x2
 1711 04c9 57       		.byte	0x57
 1712 04ca 05       		.byte	0x5
 1713 04cb DC040000 		.4byte	0x4dc
 1714 04cf 0E       		.uleb128 0xe
 1715 04d0 CB000000 		.4byte	.LASF72
 1716 04d4 02       		.byte	0x2
 1717 04d5 5B       		.byte	0x5b
 1718 04d6 05       		.byte	0x5
 1719 04d7 06050000 		.4byte	0x506
 1720 04db 00       		.byte	0
 1721 04dc 14       		.uleb128 0x14
 1722 04dd 08       		.byte	0x8
 1723 04de 02       		.byte	0x2
 1724 04df 54       		.byte	0x54
 1725 04e0 03       		.byte	0x3
 1726 04e1 00050000 		.4byte	0x500
 1727 04e5 06       		.uleb128 0x6
 1728 04e6 14050000 		.4byte	.LASF42
 1729 04ea 02       		.byte	0x2
ARM GAS  /tmp/ccXsMVKs.s 			page 32


 1730 04eb 55       		.byte	0x55
 1731 04ec 1A       		.byte	0x1a
 1732 04ed 00050000 		.4byte	0x500
 1733 04f1 00       		.byte	0
 1734 04f2 06       		.uleb128 0x6
 1735 04f3 FA040000 		.4byte	.LASF73
 1736 04f7 02       		.byte	0x2
 1737 04f8 56       		.byte	0x56
 1738 04f9 19       		.byte	0x19
 1739 04fa 2C000000 		.4byte	0x2c
 1740 04fe 04       		.byte	0x4
 1741 04ff 00       		.byte	0
 1742 0500 0A       		.uleb128 0xa
 1743 0501 04       		.byte	0x4
 1744 0502 9E040000 		.4byte	0x49e
 1745 0506 14       		.uleb128 0x14
 1746 0507 08       		.byte	0x8
 1747 0508 02       		.byte	0x2
 1748 0509 58       		.byte	0x58
 1749 050a 03       		.byte	0x3
 1750 050b 2A050000 		.4byte	0x52a
 1751 050f 06       		.uleb128 0x6
 1752 0510 1F010000 		.4byte	.LASF74
 1753 0514 02       		.byte	0x2
 1754 0515 59       		.byte	0x59
 1755 0516 1A       		.byte	0x1a
 1756 0517 2A050000 		.4byte	0x52a
 1757 051b 00       		.byte	0
 1758 051c 06       		.uleb128 0x6
 1759 051d F3030000 		.4byte	.LASF75
 1760 0521 02       		.byte	0x2
 1761 0522 5A       		.byte	0x5a
 1762 0523 19       		.byte	0x19
 1763 0524 2C000000 		.4byte	0x2c
 1764 0528 04       		.byte	0x4
 1765 0529 00       		.byte	0
 1766 052a 0A       		.uleb128 0xa
 1767 052b 04       		.byte	0x4
 1768 052c 5D040000 		.4byte	0x45d
 1769 0530 0A       		.uleb128 0xa
 1770 0531 04       		.byte	0x4
 1771 0532 36050000 		.4byte	0x536
 1772 0536 15       		.uleb128 0x15
 1773 0537 14       		.uleb128 0x14
 1774 0538 10       		.byte	0x10
 1775 0539 0D       		.byte	0xd
 1776 053a 3D       		.byte	0x3d
 1777 053b 09       		.byte	0x9
 1778 053c 75050000 		.4byte	0x575
 1779 0540 06       		.uleb128 0x6
 1780 0541 12020000 		.4byte	.LASF27
 1781 0545 0D       		.byte	0xd
 1782 0546 3E       		.byte	0x3e
 1783 0547 0F       		.byte	0xf
 1784 0548 06040000 		.4byte	0x406
 1785 054c 00       		.byte	0
 1786 054d 06       		.uleb128 0x6
ARM GAS  /tmp/ccXsMVKs.s 			page 33


 1787 054e 4D010000 		.4byte	.LASF76
 1788 0552 0D       		.byte	0xd
 1789 0553 3F       		.byte	0x3f
 1790 0554 0A       		.byte	0xa
 1791 0555 30050000 		.4byte	0x530
 1792 0559 04       		.byte	0x4
 1793 055a 06       		.uleb128 0x6
 1794 055b FD010000 		.4byte	.LASF77
 1795 055f 0D       		.byte	0xd
 1796 0560 40       		.byte	0x40
 1797 0561 0A       		.byte	0xa
 1798 0562 30050000 		.4byte	0x530
 1799 0566 08       		.byte	0x8
 1800 0567 06       		.uleb128 0x6
 1801 0568 E2040000 		.4byte	.LASF78
 1802 056c 0D       		.byte	0xd
 1803 056d 41       		.byte	0x41
 1804 056e 0A       		.byte	0xa
 1805 056f 30050000 		.4byte	0x530
 1806 0573 0C       		.byte	0xc
 1807 0574 00       		.byte	0
 1808 0575 03       		.uleb128 0x3
 1809 0576 D7040000 		.4byte	.LASF79
 1810 057a 0D       		.byte	0xd
 1811 057b 42       		.byte	0x42
 1812 057c 03       		.byte	0x3
 1813 057d 37050000 		.4byte	0x537
 1814 0581 10       		.uleb128 0x10
 1815 0582 75050000 		.4byte	0x575
 1816 0586 16       		.uleb128 0x16
 1817 0587 FD030000 		.4byte	.LASF80
 1818 058b 0D       		.byte	0xd
 1819 058c 9E       		.byte	0x9e
 1820 058d 11       		.byte	0x11
 1821 058e 38000000 		.4byte	0x38
 1822 0592 17       		.uleb128 0x17
 1823 0593 A8050000 		.4byte	0x5a8
 1824 0597 9D050000 		.4byte	0x59d
 1825 059b 18       		.uleb128 0x18
 1826 059c 00       		.byte	0
 1827 059d 10       		.uleb128 0x10
 1828 059e 92050000 		.4byte	0x592
 1829 05a2 0A       		.uleb128 0xa
 1830 05a3 04       		.byte	0x4
 1831 05a4 81050000 		.4byte	0x581
 1832 05a8 10       		.uleb128 0x10
 1833 05a9 A2050000 		.4byte	0x5a2
 1834 05ad 16       		.uleb128 0x16
 1835 05ae 5B010000 		.4byte	.LASF81
 1836 05b2 0E       		.byte	0xe
 1837 05b3 19       		.byte	0x19
 1838 05b4 21       		.byte	0x21
 1839 05b5 9D050000 		.4byte	0x59d
 1840 05b9 17       		.uleb128 0x17
 1841 05ba 6E000000 		.4byte	0x6e
 1842 05be CA050000 		.4byte	0x5ca
 1843 05c2 19       		.uleb128 0x19
ARM GAS  /tmp/ccXsMVKs.s 			page 34


 1844 05c3 38000000 		.4byte	0x38
 1845 05c7 6706     		.2byte	0x667
 1846 05c9 00       		.byte	0
 1847 05ca 16       		.uleb128 0x16
 1848 05cb 17020000 		.4byte	.LASF82
 1849 05cf 0F       		.byte	0xf
 1850 05d0 58       		.byte	0x58
 1851 05d1 10       		.byte	0x10
 1852 05d2 B9050000 		.4byte	0x5b9
 1853 05d6 1A       		.uleb128 0x1a
 1854 05d7 4D020000 		.4byte	.LASF83
 1855 05db 01       		.byte	0x1
 1856 05dc 36       		.byte	0x36
 1857 05dd 0F       		.byte	0xf
 1858 05de 5D040000 		.4byte	0x45d
 1859 05e2 05       		.uleb128 0x5
 1860 05e3 03       		.byte	0x3
 1861 05e4 00000000 		.4byte	test_heap
 1862 05e8 1B       		.uleb128 0x1b
 1863 05e9 B1020000 		.4byte	.LASF84
 1864 05ed 01       		.byte	0x1
 1865 05ee D1       		.byte	0xd1
 1866 05ef 19       		.byte	0x19
 1867 05f0 81050000 		.4byte	0x581
 1868 05f4 05       		.uleb128 0x5
 1869 05f5 03       		.byte	0x3
 1870 05f6 00000000 		.4byte	test_010_001
 1871 05fa 1B       		.uleb128 0x1b
 1872 05fb BE020000 		.4byte	.LASF85
 1873 05ff 01       		.byte	0x1
 1874 0600 FC       		.byte	0xfc
 1875 0601 19       		.byte	0x19
 1876 0602 81050000 		.4byte	0x581
 1877 0606 05       		.uleb128 0x5
 1878 0607 03       		.byte	0x3
 1879 0608 00000000 		.4byte	test_010_002
 1880 060c 17       		.uleb128 0x17
 1881 060d A8050000 		.4byte	0x5a8
 1882 0611 1C060000 		.4byte	0x61c
 1883 0615 1C       		.uleb128 0x1c
 1884 0616 38000000 		.4byte	0x38
 1885 061a 02       		.byte	0x2
 1886 061b 00       		.byte	0
 1887 061c 10       		.uleb128 0x10
 1888 061d 0C060000 		.4byte	0x60c
 1889 0621 1D       		.uleb128 0x1d
 1890 0622 AD050000 		.4byte	0x5ad
 1891 0626 01       		.byte	0x1
 1892 0627 0A01     		.2byte	0x10a
 1893 0629 1A       		.byte	0x1a
 1894 062a 1C060000 		.4byte	0x61c
 1895 062e 05       		.uleb128 0x5
 1896 062f 03       		.byte	0x3
 1897 0630 00000000 		.4byte	test_sequence_010
 1898 0634 1E       		.uleb128 0x1e
 1899 0635 41040000 		.4byte	.LASF88
 1900 0639 01       		.byte	0x1
ARM GAS  /tmp/ccXsMVKs.s 			page 35


 1901 063a E6       		.byte	0xe6
 1902 063b 0D       		.byte	0xd
 1903 063c 00000000 		.4byte	.LFB279
 1904 0640 6C000000 		.4byte	.LFE279-.LFB279
 1905 0644 01       		.uleb128 0x1
 1906 0645 9C       		.byte	0x9c
 1907 0646 86070000 		.4byte	0x786
 1908 064a 1F       		.uleb128 0x1f
 1909 064b 703100   		.ascii	"p1\000"
 1910 064e 01       		.byte	0x1
 1911 064f E7       		.byte	0xe7
 1912 0650 09       		.byte	0x9
 1913 0651 6B020000 		.4byte	0x26b
 1914 0655 06000000 		.4byte	.LLST0
 1915 0659 00000000 		.4byte	.LVUS0
 1916 065d 1B       		.uleb128 0x1b
 1917 065e 00000000 		.4byte	.LASF86
 1918 0662 01       		.byte	0x1
 1919 0663 E8       		.byte	0xe8
 1920 0664 0A       		.byte	0xa
 1921 0665 2C000000 		.4byte	0x2c
 1922 0669 02       		.uleb128 0x2
 1923 066a 91       		.byte	0x91
 1924 066b 68       		.sleb128 -24
 1925 066c 1B       		.uleb128 0x1b
 1926 066d 81040000 		.4byte	.LASF87
 1927 0671 01       		.byte	0x1
 1928 0672 E8       		.byte	0xe8
 1929 0673 16       		.byte	0x16
 1930 0674 2C000000 		.4byte	0x2c
 1931 0678 02       		.uleb128 0x2
 1932 0679 91       		.byte	0x91
 1933 067a 6C       		.sleb128 -20
 1934 067b 20       		.uleb128 0x20
 1935 067c 28110000 		.4byte	0x1128
 1936 0680 14000000 		.4byte	.LBI37
 1937 0684 01       		.byte	.LVU13
 1938 0685 14000000 		.4byte	.LBB37
 1939 0689 0C000000 		.4byte	.LBE37-.LBB37
 1940 068d 01       		.byte	0x1
 1941 068e EF       		.byte	0xef
 1942 068f 0A       		.byte	0xa
 1943 0690 CC060000 		.4byte	0x6cc
 1944 0694 21       		.uleb128 0x21
 1945 0695 45110000 		.4byte	0x1145
 1946 0699 31000000 		.4byte	.LLST1
 1947 069d 2F000000 		.4byte	.LVUS1
 1948 06a1 21       		.uleb128 0x21
 1949 06a2 39110000 		.4byte	0x1139
 1950 06a6 47000000 		.4byte	.LLST2
 1951 06aa 45000000 		.4byte	.LVUS2
 1952 06ae 22       		.uleb128 0x22
 1953 06af 1E000000 		.4byte	.LVL1
 1954 06b3 52110000 		.4byte	0x1152
 1955 06b7 23       		.uleb128 0x23
 1956 06b8 01       		.uleb128 0x1
 1957 06b9 50       		.byte	0x50
ARM GAS  /tmp/ccXsMVKs.s 			page 36


 1958 06ba 05       		.uleb128 0x5
 1959 06bb 03       		.byte	0x3
 1960 06bc 00000000 		.4byte	.LANCHOR0
 1961 06c0 23       		.uleb128 0x23
 1962 06c1 01       		.uleb128 0x1
 1963 06c2 51       		.byte	0x51
 1964 06c3 01       		.uleb128 0x1
 1965 06c4 40       		.byte	0x40
 1966 06c5 23       		.uleb128 0x23
 1967 06c6 01       		.uleb128 0x1
 1968 06c7 52       		.byte	0x52
 1969 06c8 01       		.uleb128 0x1
 1970 06c9 38       		.byte	0x38
 1971 06ca 00       		.byte	0
 1972 06cb 00       		.byte	0
 1973 06cc 24       		.uleb128 0x24
 1974 06cd 28110000 		.4byte	0x1128
 1975 06d1 46000000 		.4byte	.LBI39
 1976 06d5 01       		.byte	.LVU27
 1977 06d6 00000000 		.4byte	.Ldebug_ranges0+0
 1978 06da 01       		.byte	0x1
 1979 06db F7       		.byte	0xf7
 1980 06dc 0A       		.byte	0xa
 1981 06dd 18070000 		.4byte	0x718
 1982 06e1 21       		.uleb128 0x21
 1983 06e2 45110000 		.4byte	0x1145
 1984 06e6 61000000 		.4byte	.LLST3
 1985 06ea 5F000000 		.4byte	.LVUS3
 1986 06ee 21       		.uleb128 0x21
 1987 06ef 39110000 		.4byte	0x1139
 1988 06f3 79000000 		.4byte	.LLST4
 1989 06f7 77000000 		.4byte	.LVUS4
 1990 06fb 22       		.uleb128 0x22
 1991 06fc 4A000000 		.4byte	.LVL8
 1992 0700 52110000 		.4byte	0x1152
 1993 0704 23       		.uleb128 0x23
 1994 0705 01       		.uleb128 0x1
 1995 0706 50       		.byte	0x50
 1996 0707 02       		.uleb128 0x2
 1997 0708 74       		.byte	0x74
 1998 0709 00       		.sleb128 0
 1999 070a 23       		.uleb128 0x23
 2000 070b 01       		.uleb128 0x1
 2001 070c 51       		.byte	0x51
 2002 070d 03       		.uleb128 0x3
 2003 070e 0B       		.byte	0xb
 2004 070f 00FF     		.2byte	0xff00
 2005 0711 23       		.uleb128 0x23
 2006 0712 01       		.uleb128 0x1
 2007 0713 52       		.byte	0x52
 2008 0714 01       		.uleb128 0x1
 2009 0715 38       		.byte	0x38
 2010 0716 00       		.byte	0
 2011 0717 00       		.byte	0
 2012 0718 25       		.uleb128 0x25
 2013 0719 14000000 		.4byte	.LVL0
 2014 071d 5E110000 		.4byte	0x115e
ARM GAS  /tmp/ccXsMVKs.s 			page 37


 2015 0721 37070000 		.4byte	0x737
 2016 0725 23       		.uleb128 0x23
 2017 0726 01       		.uleb128 0x1
 2018 0727 50       		.byte	0x50
 2019 0728 01       		.uleb128 0x1
 2020 0729 30       		.byte	0x30
 2021 072a 23       		.uleb128 0x23
 2022 072b 01       		.uleb128 0x1
 2023 072c 51       		.byte	0x51
 2024 072d 02       		.uleb128 0x2
 2025 072e 7D       		.byte	0x7d
 2026 072f 00       		.sleb128 0
 2027 0730 23       		.uleb128 0x23
 2028 0731 01       		.uleb128 0x1
 2029 0732 52       		.byte	0x52
 2030 0733 02       		.uleb128 0x2
 2031 0734 91       		.byte	0x91
 2032 0735 6C       		.sleb128 -20
 2033 0736 00       		.byte	0
 2034 0737 25       		.uleb128 0x25
 2035 0738 2C000000 		.4byte	.LVL4
 2036 073c 6A110000 		.4byte	0x116a
 2037 0740 5E070000 		.4byte	0x75e
 2038 0744 23       		.uleb128 0x23
 2039 0745 01       		.uleb128 0x1
 2040 0746 50       		.byte	0x50
 2041 0747 0C       		.uleb128 0xc
 2042 0748 31       		.byte	0x31
 2043 0749 75       		.byte	0x75
 2044 074a 00       		.sleb128 0
 2045 074b 75       		.byte	0x75
 2046 074c 00       		.sleb128 0
 2047 074d 30       		.byte	0x30
 2048 074e 2E       		.byte	0x2e
 2049 074f 28       		.byte	0x28
 2050 0750 0100     		.2byte	0x1
 2051 0752 16       		.byte	0x16
 2052 0753 13       		.byte	0x13
 2053 0754 23       		.uleb128 0x23
 2054 0755 01       		.uleb128 0x1
 2055 0756 51       		.byte	0x51
 2056 0757 05       		.uleb128 0x5
 2057 0758 03       		.byte	0x3
 2058 0759 00000000 		.4byte	.LC0
 2059 075d 00       		.byte	0
 2060 075e 25       		.uleb128 0x25
 2061 075f 3A000000 		.4byte	.LVL6
 2062 0763 76110000 		.4byte	0x1176
 2063 0767 72070000 		.4byte	0x772
 2064 076b 23       		.uleb128 0x23
 2065 076c 01       		.uleb128 0x1
 2066 076d 50       		.byte	0x50
 2067 076e 02       		.uleb128 0x2
 2068 076f 75       		.byte	0x75
 2069 0770 00       		.sleb128 0
 2070 0771 00       		.byte	0
 2071 0772 22       		.uleb128 0x22
ARM GAS  /tmp/ccXsMVKs.s 			page 38


 2072 0773 56000000 		.4byte	.LVL10
 2073 0777 6A110000 		.4byte	0x116a
 2074 077b 23       		.uleb128 0x23
 2075 077c 01       		.uleb128 0x1
 2076 077d 51       		.byte	0x51
 2077 077e 05       		.uleb128 0x5
 2078 077f 03       		.byte	0x3
 2079 0780 14000000 		.4byte	.LC1
 2080 0784 00       		.byte	0
 2081 0785 00       		.byte	0
 2082 0786 1E       		.uleb128 0x1e
 2083 0787 07040000 		.4byte	.LASF89
 2084 078b 01       		.byte	0x1
 2085 078c 5E       		.byte	0x5e
 2086 078d 0D       		.byte	0xd
 2087 078e 00000000 		.4byte	.LFB278
 2088 0792 54030000 		.4byte	.LFE278-.LFB278
 2089 0796 01       		.uleb128 0x1
 2090 0797 9C       		.byte	0x9c
 2091 0798 F7100000 		.4byte	0x10f7
 2092 079c 1F       		.uleb128 0x1f
 2093 079d 703100   		.ascii	"p1\000"
 2094 07a0 01       		.byte	0x1
 2095 07a1 5F       		.byte	0x5f
 2096 07a2 09       		.byte	0x9
 2097 07a3 6B020000 		.4byte	0x26b
 2098 07a7 B1000000 		.4byte	.LLST5
 2099 07ab 8D000000 		.4byte	.LVUS5
 2100 07af 1F       		.uleb128 0x1f
 2101 07b0 703200   		.ascii	"p2\000"
 2102 07b3 01       		.byte	0x1
 2103 07b4 5F       		.byte	0x5f
 2104 07b5 0E       		.byte	0xe
 2105 07b6 6B020000 		.4byte	0x26b
 2106 07ba 8F010000 		.4byte	.LLST6
 2107 07be 7F010000 		.4byte	.LVUS6
 2108 07c2 1F       		.uleb128 0x1f
 2109 07c3 703300   		.ascii	"p3\000"
 2110 07c6 01       		.byte	0x1
 2111 07c7 5F       		.byte	0x5f
 2112 07c8 13       		.byte	0x13
 2113 07c9 6B020000 		.4byte	0x26b
 2114 07cd F3010000 		.4byte	.LLST7
 2115 07d1 EF010000 		.4byte	.LVUS7
 2116 07d5 26       		.uleb128 0x26
 2117 07d6 6E00     		.ascii	"n\000"
 2118 07d8 01       		.byte	0x1
 2119 07d9 60       		.byte	0x60
 2120 07da 0A       		.byte	0xa
 2121 07db 2C000000 		.4byte	0x2c
 2122 07df 02       		.uleb128 0x2
 2123 07e0 91       		.byte	0x91
 2124 07e1 58       		.sleb128 -40
 2125 07e2 26       		.uleb128 0x26
 2126 07e3 737A00   		.ascii	"sz\000"
 2127 07e6 01       		.byte	0x1
 2128 07e7 60       		.byte	0x60
ARM GAS  /tmp/ccXsMVKs.s 			page 39


 2129 07e8 0D       		.byte	0xd
 2130 07e9 2C000000 		.4byte	0x2c
 2131 07ed 02       		.uleb128 0x2
 2132 07ee 91       		.byte	0x91
 2133 07ef 5C       		.sleb128 -36
 2134 07f0 27       		.uleb128 0x27
 2135 07f1 58000000 		.4byte	.Ldebug_ranges0+0x58
 2136 07f5 7C080000 		.4byte	0x87c
 2137 07f9 1B       		.uleb128 0x1b
 2138 07fa 00000000 		.4byte	.LASF86
 2139 07fe 01       		.byte	0x1
 2140 07ff 7E       		.byte	0x7e
 2141 0800 0C       		.byte	0xc
 2142 0801 2C000000 		.4byte	0x2c
 2143 0805 02       		.uleb128 0x2
 2144 0806 91       		.byte	0x91
 2145 0807 60       		.sleb128 -32
 2146 0808 1B       		.uleb128 0x1b
 2147 0809 81040000 		.4byte	.LASF87
 2148 080d 01       		.byte	0x1
 2149 080e 7E       		.byte	0x7e
 2150 080f 18       		.byte	0x18
 2151 0810 2C000000 		.4byte	0x2c
 2152 0814 02       		.uleb128 0x2
 2153 0815 91       		.byte	0x91
 2154 0816 64       		.sleb128 -28
 2155 0817 25       		.uleb128 0x25
 2156 0818 82000000 		.4byte	.LVL23
 2157 081c 5E110000 		.4byte	0x115e
 2158 0820 3A080000 		.4byte	0x83a
 2159 0824 23       		.uleb128 0x23
 2160 0825 01       		.uleb128 0x1
 2161 0826 50       		.byte	0x50
 2162 0827 05       		.uleb128 0x5
 2163 0828 03       		.byte	0x3
 2164 0829 00000000 		.4byte	.LANCHOR0
 2165 082d 23       		.uleb128 0x23
 2166 082e 01       		.uleb128 0x1
 2167 082f 51       		.byte	0x51
 2168 0830 02       		.uleb128 0x2
 2169 0831 91       		.byte	0x91
 2170 0832 60       		.sleb128 -32
 2171 0833 23       		.uleb128 0x23
 2172 0834 01       		.uleb128 0x1
 2173 0835 52       		.byte	0x52
 2174 0836 02       		.uleb128 0x2
 2175 0837 91       		.byte	0x91
 2176 0838 64       		.sleb128 -28
 2177 0839 00       		.byte	0
 2178 083a 25       		.uleb128 0x25
 2179 083b 96000000 		.4byte	.LVL24
 2180 083f 6A110000 		.4byte	0x116a
 2181 0843 51080000 		.4byte	0x851
 2182 0847 23       		.uleb128 0x23
 2183 0848 01       		.uleb128 0x1
 2184 0849 51       		.byte	0x51
 2185 084a 05       		.uleb128 0x5
ARM GAS  /tmp/ccXsMVKs.s 			page 40


 2186 084b 03       		.byte	0x3
 2187 084c 10000000 		.4byte	.LC3
 2188 0850 00       		.byte	0
 2189 0851 25       		.uleb128 0x25
 2190 0852 AA000000 		.4byte	.LVL25
 2191 0856 6A110000 		.4byte	0x116a
 2192 085a 68080000 		.4byte	0x868
 2193 085e 23       		.uleb128 0x23
 2194 085f 01       		.uleb128 0x1
 2195 0860 51       		.byte	0x51
 2196 0861 05       		.uleb128 0x5
 2197 0862 03       		.byte	0x3
 2198 0863 24000000 		.4byte	.LC4
 2199 0867 00       		.byte	0
 2200 0868 22       		.uleb128 0x22
 2201 0869 C0000000 		.4byte	.LVL26
 2202 086d 6A110000 		.4byte	0x116a
 2203 0871 23       		.uleb128 0x23
 2204 0872 01       		.uleb128 0x1
 2205 0873 51       		.byte	0x51
 2206 0874 05       		.uleb128 0x5
 2207 0875 03       		.byte	0x3
 2208 0876 24000000 		.4byte	.LC4
 2209 087a 00       		.byte	0
 2210 087b 00       		.byte	0
 2211 087c 24       		.uleb128 0x24
 2212 087d 28110000 		.4byte	0x1128
 2213 0881 38000000 		.4byte	.LBI43
 2214 0885 01       		.byte	.LVU56
 2215 0886 18000000 		.4byte	.Ldebug_ranges0+0x18
 2216 088a 01       		.byte	0x1
 2217 088b 6D       		.byte	0x6d
 2218 088c 0A       		.byte	0xa
 2219 088d CB080000 		.4byte	0x8cb
 2220 0891 21       		.uleb128 0x21
 2221 0892 45110000 		.4byte	0x1145
 2222 0896 13020000 		.4byte	.LLST8
 2223 089a 11020000 		.4byte	.LVUS8
 2224 089e 21       		.uleb128 0x21
 2225 089f 39110000 		.4byte	0x1139
 2226 08a3 2B020000 		.4byte	.LLST9
 2227 08a7 29020000 		.4byte	.LVUS9
 2228 08ab 22       		.uleb128 0x22
 2229 08ac 3E000000 		.4byte	.LVL14
 2230 08b0 52110000 		.4byte	0x1152
 2231 08b4 23       		.uleb128 0x23
 2232 08b5 01       		.uleb128 0x1
 2233 08b6 50       		.byte	0x50
 2234 08b7 05       		.uleb128 0x5
 2235 08b8 03       		.byte	0x3
 2236 08b9 00000000 		.4byte	.LANCHOR0
 2237 08bd 23       		.uleb128 0x23
 2238 08be 01       		.uleb128 0x1
 2239 08bf 51       		.byte	0x51
 2240 08c0 03       		.uleb128 0x3
 2241 08c1 0A       		.byte	0xa
 2242 08c2 D00C     		.2byte	0xcd0
ARM GAS  /tmp/ccXsMVKs.s 			page 41


 2243 08c4 23       		.uleb128 0x23
 2244 08c5 01       		.uleb128 0x1
 2245 08c6 52       		.byte	0x52
 2246 08c7 01       		.uleb128 0x1
 2247 08c8 38       		.byte	0x38
 2248 08c9 00       		.byte	0
 2249 08ca 00       		.byte	0
 2250 08cb 24       		.uleb128 0x24
 2251 08cc 28110000 		.4byte	0x1128
 2252 08d0 56000000 		.4byte	.LBI49
 2253 08d4 01       		.byte	.LVU69
 2254 08d5 38000000 		.4byte	.Ldebug_ranges0+0x38
 2255 08d9 01       		.byte	0x1
 2256 08da 75       		.byte	0x75
 2257 08db 0A       		.byte	0xa
 2258 08dc 18090000 		.4byte	0x918
 2259 08e0 21       		.uleb128 0x21
 2260 08e1 45110000 		.4byte	0x1145
 2261 08e5 45020000 		.4byte	.LLST10
 2262 08e9 43020000 		.4byte	.LVUS10
 2263 08ed 21       		.uleb128 0x21
 2264 08ee 39110000 		.4byte	0x1139
 2265 08f2 5B020000 		.4byte	.LLST11
 2266 08f6 59020000 		.4byte	.LVUS11
 2267 08fa 22       		.uleb128 0x22
 2268 08fb 5C000000 		.4byte	.LVL18
 2269 08ff 52110000 		.4byte	0x1152
 2270 0903 23       		.uleb128 0x23
 2271 0904 01       		.uleb128 0x1
 2272 0905 50       		.byte	0x50
 2273 0906 05       		.uleb128 0x5
 2274 0907 03       		.byte	0x3
 2275 0908 00000000 		.4byte	.LANCHOR0
 2276 090c 23       		.uleb128 0x23
 2277 090d 01       		.uleb128 0x1
 2278 090e 51       		.byte	0x51
 2279 090f 01       		.uleb128 0x1
 2280 0910 40       		.byte	0x40
 2281 0911 23       		.uleb128 0x23
 2282 0912 01       		.uleb128 0x1
 2283 0913 52       		.byte	0x52
 2284 0914 01       		.uleb128 0x1
 2285 0915 38       		.byte	0x38
 2286 0916 00       		.byte	0
 2287 0917 00       		.byte	0
 2288 0918 24       		.uleb128 0x24
 2289 0919 28110000 		.4byte	0x1128
 2290 091d D0000000 		.4byte	.LBI57
 2291 0921 01       		.byte	.LVU97
 2292 0922 70000000 		.4byte	.Ldebug_ranges0+0x70
 2293 0926 01       		.byte	0x1
 2294 0927 89       		.byte	0x89
 2295 0928 0A       		.byte	0xa
 2296 0929 65090000 		.4byte	0x965
 2297 092d 21       		.uleb128 0x21
 2298 092e 45110000 		.4byte	0x1145
 2299 0932 75020000 		.4byte	.LLST12
ARM GAS  /tmp/ccXsMVKs.s 			page 42


 2300 0936 73020000 		.4byte	.LVUS12
 2301 093a 21       		.uleb128 0x21
 2302 093b 39110000 		.4byte	0x1139
 2303 093f 8B020000 		.4byte	.LLST13
 2304 0943 89020000 		.4byte	.LVUS13
 2305 0947 22       		.uleb128 0x22
 2306 0948 D4000000 		.4byte	.LVL29
 2307 094c 52110000 		.4byte	0x1152
 2308 0950 23       		.uleb128 0x23
 2309 0951 01       		.uleb128 0x1
 2310 0952 50       		.byte	0x50
 2311 0953 05       		.uleb128 0x5
 2312 0954 03       		.byte	0x3
 2313 0955 00000000 		.4byte	.LANCHOR0
 2314 0959 23       		.uleb128 0x23
 2315 095a 01       		.uleb128 0x1
 2316 095b 51       		.byte	0x51
 2317 095c 01       		.uleb128 0x1
 2318 095d 40       		.byte	0x40
 2319 095e 23       		.uleb128 0x23
 2320 095f 01       		.uleb128 0x1
 2321 0960 52       		.byte	0x52
 2322 0961 01       		.uleb128 0x1
 2323 0962 38       		.byte	0x38
 2324 0963 00       		.byte	0
 2325 0964 00       		.byte	0
 2326 0965 24       		.uleb128 0x24
 2327 0966 28110000 		.4byte	0x1128
 2328 096a DA000000 		.4byte	.LBI62
 2329 096e 02       		.byte	.LVU102
 2330 096f 90000000 		.4byte	.Ldebug_ranges0+0x90
 2331 0973 01       		.byte	0x1
 2332 0974 8A       		.byte	0x8a
 2333 0975 0A       		.byte	0xa
 2334 0976 B2090000 		.4byte	0x9b2
 2335 097a 21       		.uleb128 0x21
 2336 097b 45110000 		.4byte	0x1145
 2337 097f A5020000 		.4byte	.LLST14
 2338 0983 A3020000 		.4byte	.LVUS14
 2339 0987 21       		.uleb128 0x21
 2340 0988 39110000 		.4byte	0x1139
 2341 098c BB020000 		.4byte	.LLST15
 2342 0990 B9020000 		.4byte	.LVUS15
 2343 0994 22       		.uleb128 0x22
 2344 0995 E0000000 		.4byte	.LVL32
 2345 0999 52110000 		.4byte	0x1152
 2346 099d 23       		.uleb128 0x23
 2347 099e 01       		.uleb128 0x1
 2348 099f 50       		.byte	0x50
 2349 09a0 05       		.uleb128 0x5
 2350 09a1 03       		.byte	0x3
 2351 09a2 00000000 		.4byte	.LANCHOR0
 2352 09a6 23       		.uleb128 0x23
 2353 09a7 01       		.uleb128 0x1
 2354 09a8 51       		.byte	0x51
 2355 09a9 01       		.uleb128 0x1
 2356 09aa 40       		.byte	0x40
ARM GAS  /tmp/ccXsMVKs.s 			page 43


 2357 09ab 23       		.uleb128 0x23
 2358 09ac 01       		.uleb128 0x1
 2359 09ad 52       		.byte	0x52
 2360 09ae 01       		.uleb128 0x1
 2361 09af 38       		.byte	0x38
 2362 09b0 00       		.byte	0
 2363 09b1 00       		.byte	0
 2364 09b2 24       		.uleb128 0x24
 2365 09b3 28110000 		.4byte	0x1128
 2366 09b7 E6000000 		.4byte	.LBI68
 2367 09bb 02       		.byte	.LVU108
 2368 09bc B0000000 		.4byte	.Ldebug_ranges0+0xb0
 2369 09c0 01       		.byte	0x1
 2370 09c1 8B       		.byte	0x8b
 2371 09c2 0A       		.byte	0xa
 2372 09c3 FF090000 		.4byte	0x9ff
 2373 09c7 21       		.uleb128 0x21
 2374 09c8 45110000 		.4byte	0x1145
 2375 09cc D5020000 		.4byte	.LLST16
 2376 09d0 D3020000 		.4byte	.LVUS16
 2377 09d4 21       		.uleb128 0x21
 2378 09d5 39110000 		.4byte	0x1139
 2379 09d9 EB020000 		.4byte	.LLST17
 2380 09dd E9020000 		.4byte	.LVUS17
 2381 09e1 22       		.uleb128 0x22
 2382 09e2 EC000000 		.4byte	.LVL35
 2383 09e6 52110000 		.4byte	0x1152
 2384 09ea 23       		.uleb128 0x23
 2385 09eb 01       		.uleb128 0x1
 2386 09ec 50       		.byte	0x50
 2387 09ed 05       		.uleb128 0x5
 2388 09ee 03       		.byte	0x3
 2389 09ef 00000000 		.4byte	.LANCHOR0
 2390 09f3 23       		.uleb128 0x23
 2391 09f4 01       		.uleb128 0x1
 2392 09f5 51       		.byte	0x51
 2393 09f6 01       		.uleb128 0x1
 2394 09f7 40       		.byte	0x40
 2395 09f8 23       		.uleb128 0x23
 2396 09f9 01       		.uleb128 0x1
 2397 09fa 52       		.byte	0x52
 2398 09fb 01       		.uleb128 0x1
 2399 09fc 38       		.byte	0x38
 2400 09fd 00       		.byte	0
 2401 09fe 00       		.byte	0
 2402 09ff 24       		.uleb128 0x24
 2403 0a00 28110000 		.4byte	0x1128
 2404 0a04 2A010000 		.4byte	.LBI73
 2405 0a08 01       		.byte	.LVU122
 2406 0a09 C8000000 		.4byte	.Ldebug_ranges0+0xc8
 2407 0a0d 01       		.byte	0x1
 2408 0a0e 95       		.byte	0x95
 2409 0a0f 0A       		.byte	0xa
 2410 0a10 4C0A0000 		.4byte	0xa4c
 2411 0a14 21       		.uleb128 0x21
 2412 0a15 45110000 		.4byte	0x1145
 2413 0a19 05030000 		.4byte	.LLST18
ARM GAS  /tmp/ccXsMVKs.s 			page 44


 2414 0a1d 03030000 		.4byte	.LVUS18
 2415 0a21 21       		.uleb128 0x21
 2416 0a22 39110000 		.4byte	0x1139
 2417 0a26 1B030000 		.4byte	.LLST19
 2418 0a2a 19030000 		.4byte	.LVUS19
 2419 0a2e 22       		.uleb128 0x22
 2420 0a2f 2E010000 		.4byte	.LVL43
 2421 0a33 52110000 		.4byte	0x1152
 2422 0a37 23       		.uleb128 0x23
 2423 0a38 01       		.uleb128 0x1
 2424 0a39 50       		.byte	0x50
 2425 0a3a 05       		.uleb128 0x5
 2426 0a3b 03       		.byte	0x3
 2427 0a3c 00000000 		.4byte	.LANCHOR0
 2428 0a40 23       		.uleb128 0x23
 2429 0a41 01       		.uleb128 0x1
 2430 0a42 51       		.byte	0x51
 2431 0a43 01       		.uleb128 0x1
 2432 0a44 40       		.byte	0x40
 2433 0a45 23       		.uleb128 0x23
 2434 0a46 01       		.uleb128 0x1
 2435 0a47 52       		.byte	0x52
 2436 0a48 01       		.uleb128 0x1
 2437 0a49 38       		.byte	0x38
 2438 0a4a 00       		.byte	0
 2439 0a4b 00       		.byte	0
 2440 0a4c 24       		.uleb128 0x24
 2441 0a4d 28110000 		.4byte	0x1128
 2442 0a51 32010000 		.4byte	.LBI78
 2443 0a55 02       		.byte	.LVU127
 2444 0a56 E8000000 		.4byte	.Ldebug_ranges0+0xe8
 2445 0a5a 01       		.byte	0x1
 2446 0a5b 96       		.byte	0x96
 2447 0a5c 0A       		.byte	0xa
 2448 0a5d 990A0000 		.4byte	0xa99
 2449 0a61 21       		.uleb128 0x21
 2450 0a62 45110000 		.4byte	0x1145
 2451 0a66 35030000 		.4byte	.LLST20
 2452 0a6a 33030000 		.4byte	.LVUS20
 2453 0a6e 21       		.uleb128 0x21
 2454 0a6f 39110000 		.4byte	0x1139
 2455 0a73 4B030000 		.4byte	.LLST21
 2456 0a77 49030000 		.4byte	.LVUS21
 2457 0a7b 22       		.uleb128 0x22
 2458 0a7c 3A010000 		.4byte	.LVL46
 2459 0a80 52110000 		.4byte	0x1152
 2460 0a84 23       		.uleb128 0x23
 2461 0a85 01       		.uleb128 0x1
 2462 0a86 50       		.byte	0x50
 2463 0a87 05       		.uleb128 0x5
 2464 0a88 03       		.byte	0x3
 2465 0a89 00000000 		.4byte	.LANCHOR0
 2466 0a8d 23       		.uleb128 0x23
 2467 0a8e 01       		.uleb128 0x1
 2468 0a8f 51       		.byte	0x51
 2469 0a90 01       		.uleb128 0x1
 2470 0a91 40       		.byte	0x40
ARM GAS  /tmp/ccXsMVKs.s 			page 45


 2471 0a92 23       		.uleb128 0x23
 2472 0a93 01       		.uleb128 0x1
 2473 0a94 52       		.byte	0x52
 2474 0a95 01       		.uleb128 0x1
 2475 0a96 38       		.byte	0x38
 2476 0a97 00       		.byte	0
 2477 0a98 00       		.byte	0
 2478 0a99 24       		.uleb128 0x24
 2479 0a9a 28110000 		.4byte	0x1128
 2480 0a9e 40010000 		.4byte	.LBI84
 2481 0aa2 02       		.byte	.LVU133
 2482 0aa3 08010000 		.4byte	.Ldebug_ranges0+0x108
 2483 0aa7 01       		.byte	0x1
 2484 0aa8 97       		.byte	0x97
 2485 0aa9 0A       		.byte	0xa
 2486 0aaa E60A0000 		.4byte	0xae6
 2487 0aae 21       		.uleb128 0x21
 2488 0aaf 45110000 		.4byte	0x1145
 2489 0ab3 65030000 		.4byte	.LLST22
 2490 0ab7 63030000 		.4byte	.LVUS22
 2491 0abb 21       		.uleb128 0x21
 2492 0abc 39110000 		.4byte	0x1139
 2493 0ac0 7B030000 		.4byte	.LLST23
 2494 0ac4 79030000 		.4byte	.LVUS23
 2495 0ac8 22       		.uleb128 0x22
 2496 0ac9 46010000 		.4byte	.LVL49
 2497 0acd 52110000 		.4byte	0x1152
 2498 0ad1 23       		.uleb128 0x23
 2499 0ad2 01       		.uleb128 0x1
 2500 0ad3 50       		.byte	0x50
 2501 0ad4 05       		.uleb128 0x5
 2502 0ad5 03       		.byte	0x3
 2503 0ad6 00000000 		.4byte	.LANCHOR0
 2504 0ada 23       		.uleb128 0x23
 2505 0adb 01       		.uleb128 0x1
 2506 0adc 51       		.byte	0x51
 2507 0add 01       		.uleb128 0x1
 2508 0ade 40       		.byte	0x40
 2509 0adf 23       		.uleb128 0x23
 2510 0ae0 01       		.uleb128 0x1
 2511 0ae1 52       		.byte	0x52
 2512 0ae2 01       		.uleb128 0x1
 2513 0ae3 38       		.byte	0x38
 2514 0ae4 00       		.byte	0
 2515 0ae5 00       		.byte	0
 2516 0ae6 24       		.uleb128 0x24
 2517 0ae7 28110000 		.4byte	0x1128
 2518 0aeb 82010000 		.4byte	.LBI89
 2519 0aef 01       		.byte	.LVU147
 2520 0af0 20010000 		.4byte	.Ldebug_ranges0+0x120
 2521 0af4 01       		.byte	0x1
 2522 0af5 A2       		.byte	0xa2
 2523 0af6 0A       		.byte	0xa
 2524 0af7 330B0000 		.4byte	0xb33
 2525 0afb 21       		.uleb128 0x21
 2526 0afc 45110000 		.4byte	0x1145
 2527 0b00 95030000 		.4byte	.LLST24
ARM GAS  /tmp/ccXsMVKs.s 			page 46


 2528 0b04 93030000 		.4byte	.LVUS24
 2529 0b08 21       		.uleb128 0x21
 2530 0b09 39110000 		.4byte	0x1139
 2531 0b0d AB030000 		.4byte	.LLST25
 2532 0b11 A9030000 		.4byte	.LVUS25
 2533 0b15 22       		.uleb128 0x22
 2534 0b16 86010000 		.4byte	.LVL56
 2535 0b1a 52110000 		.4byte	0x1152
 2536 0b1e 23       		.uleb128 0x23
 2537 0b1f 01       		.uleb128 0x1
 2538 0b20 50       		.byte	0x50
 2539 0b21 05       		.uleb128 0x5
 2540 0b22 03       		.byte	0x3
 2541 0b23 00000000 		.4byte	.LANCHOR0
 2542 0b27 23       		.uleb128 0x23
 2543 0b28 01       		.uleb128 0x1
 2544 0b29 51       		.byte	0x51
 2545 0b2a 01       		.uleb128 0x1
 2546 0b2b 41       		.byte	0x41
 2547 0b2c 23       		.uleb128 0x23
 2548 0b2d 01       		.uleb128 0x1
 2549 0b2e 52       		.byte	0x52
 2550 0b2f 01       		.uleb128 0x1
 2551 0b30 38       		.byte	0x38
 2552 0b31 00       		.byte	0
 2553 0b32 00       		.byte	0
 2554 0b33 24       		.uleb128 0x24
 2555 0b34 28110000 		.4byte	0x1128
 2556 0b38 8A010000 		.4byte	.LBI94
 2557 0b3c 02       		.byte	.LVU152
 2558 0b3d 40010000 		.4byte	.Ldebug_ranges0+0x140
 2559 0b41 01       		.byte	0x1
 2560 0b42 A3       		.byte	0xa3
 2561 0b43 0A       		.byte	0xa
 2562 0b44 800B0000 		.4byte	0xb80
 2563 0b48 21       		.uleb128 0x21
 2564 0b49 45110000 		.4byte	0x1145
 2565 0b4d C5030000 		.4byte	.LLST26
 2566 0b51 C3030000 		.4byte	.LVUS26
 2567 0b55 21       		.uleb128 0x21
 2568 0b56 39110000 		.4byte	0x1139
 2569 0b5a DB030000 		.4byte	.LLST27
 2570 0b5e D9030000 		.4byte	.LVUS27
 2571 0b62 22       		.uleb128 0x22
 2572 0b63 92010000 		.4byte	.LVL59
 2573 0b67 52110000 		.4byte	0x1152
 2574 0b6b 23       		.uleb128 0x23
 2575 0b6c 01       		.uleb128 0x1
 2576 0b6d 50       		.byte	0x50
 2577 0b6e 05       		.uleb128 0x5
 2578 0b6f 03       		.byte	0x3
 2579 0b70 00000000 		.4byte	.LANCHOR0
 2580 0b74 23       		.uleb128 0x23
 2581 0b75 01       		.uleb128 0x1
 2582 0b76 51       		.byte	0x51
 2583 0b77 01       		.uleb128 0x1
 2584 0b78 40       		.byte	0x40
ARM GAS  /tmp/ccXsMVKs.s 			page 47


 2585 0b79 23       		.uleb128 0x23
 2586 0b7a 01       		.uleb128 0x1
 2587 0b7b 52       		.byte	0x52
 2588 0b7c 01       		.uleb128 0x1
 2589 0b7d 38       		.byte	0x38
 2590 0b7e 00       		.byte	0
 2591 0b7f 00       		.byte	0
 2592 0b80 24       		.uleb128 0x24
 2593 0b81 28110000 		.4byte	0x1128
 2594 0b85 BE010000 		.4byte	.LBI101
 2595 0b89 02       		.byte	.LVU163
 2596 0b8a 60010000 		.4byte	.Ldebug_ranges0+0x160
 2597 0b8e 01       		.byte	0x1
 2598 0b8f A6       		.byte	0xa6
 2599 0b90 0A       		.byte	0xa
 2600 0b91 CD0B0000 		.4byte	0xbcd
 2601 0b95 21       		.uleb128 0x21
 2602 0b96 45110000 		.4byte	0x1145
 2603 0b9a F5030000 		.4byte	.LLST28
 2604 0b9e F3030000 		.4byte	.LVUS28
 2605 0ba2 21       		.uleb128 0x21
 2606 0ba3 39110000 		.4byte	0x1139
 2607 0ba7 0B040000 		.4byte	.LLST29
 2608 0bab 09040000 		.4byte	.LVUS29
 2609 0baf 22       		.uleb128 0x22
 2610 0bb0 C8010000 		.4byte	.LVL65
 2611 0bb4 52110000 		.4byte	0x1152
 2612 0bb8 23       		.uleb128 0x23
 2613 0bb9 01       		.uleb128 0x1
 2614 0bba 50       		.byte	0x50
 2615 0bbb 05       		.uleb128 0x5
 2616 0bbc 03       		.byte	0x3
 2617 0bbd 00000000 		.4byte	.LANCHOR0
 2618 0bc1 23       		.uleb128 0x23
 2619 0bc2 01       		.uleb128 0x1
 2620 0bc3 51       		.byte	0x51
 2621 0bc4 01       		.uleb128 0x1
 2622 0bc5 40       		.byte	0x40
 2623 0bc6 23       		.uleb128 0x23
 2624 0bc7 01       		.uleb128 0x1
 2625 0bc8 52       		.byte	0x52
 2626 0bc9 01       		.uleb128 0x1
 2627 0bca 38       		.byte	0x38
 2628 0bcb 00       		.byte	0
 2629 0bcc 00       		.byte	0
 2630 0bcd 24       		.uleb128 0x24
 2631 0bce 28110000 		.4byte	0x1128
 2632 0bd2 38020000 		.4byte	.LBI105
 2633 0bd6 01       		.byte	.LVU183
 2634 0bd7 78010000 		.4byte	.Ldebug_ranges0+0x178
 2635 0bdb 01       		.byte	0x1
 2636 0bdc B4       		.byte	0xb4
 2637 0bdd 0A       		.byte	0xa
 2638 0bde 1B0C0000 		.4byte	0xc1b
 2639 0be2 21       		.uleb128 0x21
 2640 0be3 45110000 		.4byte	0x1145
 2641 0be7 25040000 		.4byte	.LLST30
ARM GAS  /tmp/ccXsMVKs.s 			page 48


 2642 0beb 23040000 		.4byte	.LVUS30
 2643 0bef 21       		.uleb128 0x21
 2644 0bf0 39110000 		.4byte	0x1139
 2645 0bf4 3B040000 		.4byte	.LLST31
 2646 0bf8 39040000 		.4byte	.LVUS31
 2647 0bfc 22       		.uleb128 0x22
 2648 0bfd 3C020000 		.4byte	.LVL77
 2649 0c01 52110000 		.4byte	0x1152
 2650 0c05 23       		.uleb128 0x23
 2651 0c06 01       		.uleb128 0x1
 2652 0c07 50       		.byte	0x50
 2653 0c08 05       		.uleb128 0x5
 2654 0c09 03       		.byte	0x3
 2655 0c0a 00000000 		.4byte	.LANCHOR0
 2656 0c0e 23       		.uleb128 0x23
 2657 0c0f 01       		.uleb128 0x1
 2658 0c10 51       		.byte	0x51
 2659 0c11 01       		.uleb128 0x1
 2660 0c12 40       		.byte	0x40
 2661 0c13 23       		.uleb128 0x23
 2662 0c14 01       		.uleb128 0x1
 2663 0c15 52       		.byte	0x52
 2664 0c16 02       		.uleb128 0x2
 2665 0c17 75       		.byte	0x75
 2666 0c18 00       		.sleb128 0
 2667 0c19 00       		.byte	0
 2668 0c1a 00       		.byte	0
 2669 0c1b 24       		.uleb128 0x24
 2670 0c1c 28110000 		.4byte	0x1128
 2671 0c20 42020000 		.4byte	.LBI110
 2672 0c24 02       		.byte	.LVU188
 2673 0c25 98010000 		.4byte	.Ldebug_ranges0+0x198
 2674 0c29 01       		.byte	0x1
 2675 0c2a B5       		.byte	0xb5
 2676 0c2b 0A       		.byte	0xa
 2677 0c2c 690C0000 		.4byte	0xc69
 2678 0c30 21       		.uleb128 0x21
 2679 0c31 45110000 		.4byte	0x1145
 2680 0c35 55040000 		.4byte	.LLST32
 2681 0c39 53040000 		.4byte	.LVUS32
 2682 0c3d 21       		.uleb128 0x21
 2683 0c3e 39110000 		.4byte	0x1139
 2684 0c42 6B040000 		.4byte	.LLST33
 2685 0c46 69040000 		.4byte	.LVUS33
 2686 0c4a 22       		.uleb128 0x22
 2687 0c4b 48020000 		.4byte	.LVL80
 2688 0c4f 52110000 		.4byte	0x1152
 2689 0c53 23       		.uleb128 0x23
 2690 0c54 01       		.uleb128 0x1
 2691 0c55 50       		.byte	0x50
 2692 0c56 05       		.uleb128 0x5
 2693 0c57 03       		.byte	0x3
 2694 0c58 00000000 		.4byte	.LANCHOR0
 2695 0c5c 23       		.uleb128 0x23
 2696 0c5d 01       		.uleb128 0x1
 2697 0c5e 51       		.byte	0x51
 2698 0c5f 01       		.uleb128 0x1
ARM GAS  /tmp/ccXsMVKs.s 			page 49


 2699 0c60 40       		.byte	0x40
 2700 0c61 23       		.uleb128 0x23
 2701 0c62 01       		.uleb128 0x1
 2702 0c63 52       		.byte	0x52
 2703 0c64 02       		.uleb128 0x2
 2704 0c65 75       		.byte	0x75
 2705 0c66 00       		.sleb128 0
 2706 0c67 00       		.byte	0
 2707 0c68 00       		.byte	0
 2708 0c69 20       		.uleb128 0x20
 2709 0c6a 28110000 		.4byte	0x1128
 2710 0c6e 74020000 		.4byte	.LBI115
 2711 0c72 02       		.byte	.LVU197
 2712 0c73 74020000 		.4byte	.LBB115
 2713 0c77 0A000000 		.4byte	.LBE115-.LBB115
 2714 0c7b 01       		.byte	0x1
 2715 0c7c B8       		.byte	0xb8
 2716 0c7d 0A       		.byte	0xa
 2717 0c7e BC0C0000 		.4byte	0xcbc
 2718 0c82 21       		.uleb128 0x21
 2719 0c83 45110000 		.4byte	0x1145
 2720 0c87 85040000 		.4byte	.LLST34
 2721 0c8b 83040000 		.4byte	.LVUS34
 2722 0c8f 21       		.uleb128 0x21
 2723 0c90 39110000 		.4byte	0x1139
 2724 0c94 9C040000 		.4byte	.LLST35
 2725 0c98 9A040000 		.4byte	.LVUS35
 2726 0c9c 22       		.uleb128 0x22
 2727 0c9d 7E020000 		.4byte	.LVL86
 2728 0ca1 52110000 		.4byte	0x1152
 2729 0ca5 23       		.uleb128 0x23
 2730 0ca6 01       		.uleb128 0x1
 2731 0ca7 50       		.byte	0x50
 2732 0ca8 05       		.uleb128 0x5
 2733 0ca9 03       		.byte	0x3
 2734 0caa 00000000 		.4byte	.LANCHOR0
 2735 0cae 23       		.uleb128 0x23
 2736 0caf 01       		.uleb128 0x1
 2737 0cb0 51       		.byte	0x51
 2738 0cb1 02       		.uleb128 0x2
 2739 0cb2 08       		.byte	0x8
 2740 0cb3 20       		.byte	0x20
 2741 0cb4 23       		.uleb128 0x23
 2742 0cb5 01       		.uleb128 0x1
 2743 0cb6 52       		.byte	0x52
 2744 0cb7 02       		.uleb128 0x2
 2745 0cb8 75       		.byte	0x75
 2746 0cb9 00       		.sleb128 0
 2747 0cba 00       		.byte	0
 2748 0cbb 00       		.byte	0
 2749 0cbc 20       		.uleb128 0x20
 2750 0cbd 28110000 		.4byte	0x1128
 2751 0cc1 B2020000 		.4byte	.LBI117
 2752 0cc5 01       		.byte	.LVU211
 2753 0cc6 B2020000 		.4byte	.LBB117
 2754 0cca 0C000000 		.4byte	.LBE117-.LBB117
 2755 0cce 01       		.byte	0x1
ARM GAS  /tmp/ccXsMVKs.s 			page 50


 2756 0ccf C2       		.byte	0xc2
 2757 0cd0 0A       		.byte	0xa
 2758 0cd1 090D0000 		.4byte	0xd09
 2759 0cd5 21       		.uleb128 0x21
 2760 0cd6 45110000 		.4byte	0x1145
 2761 0cda B6040000 		.4byte	.LLST36
 2762 0cde B4040000 		.4byte	.LVUS36
 2763 0ce2 21       		.uleb128 0x21
 2764 0ce3 39110000 		.4byte	0x1139
 2765 0ce7 CC040000 		.4byte	.LLST37
 2766 0ceb CA040000 		.4byte	.LVUS37
 2767 0cef 22       		.uleb128 0x22
 2768 0cf0 BC020000 		.4byte	.LVL92
 2769 0cf4 52110000 		.4byte	0x1152
 2770 0cf8 23       		.uleb128 0x23
 2771 0cf9 01       		.uleb128 0x1
 2772 0cfa 50       		.byte	0x50
 2773 0cfb 05       		.uleb128 0x5
 2774 0cfc 03       		.byte	0x3
 2775 0cfd 00000000 		.4byte	.LANCHOR0
 2776 0d01 23       		.uleb128 0x23
 2777 0d02 01       		.uleb128 0x1
 2778 0d03 52       		.byte	0x52
 2779 0d04 02       		.uleb128 0x2
 2780 0d05 75       		.byte	0x75
 2781 0d06 00       		.sleb128 0
 2782 0d07 00       		.byte	0
 2783 0d08 00       		.byte	0
 2784 0d09 25       		.uleb128 0x25
 2785 0d0a 16000000 		.4byte	.LVL11
 2786 0d0e 5E110000 		.4byte	0x115e
 2787 0d12 2B0D0000 		.4byte	0xd2b
 2788 0d16 23       		.uleb128 0x23
 2789 0d17 01       		.uleb128 0x1
 2790 0d18 50       		.byte	0x50
 2791 0d19 05       		.uleb128 0x5
 2792 0d1a 03       		.byte	0x3
 2793 0d1b 00000000 		.4byte	.LANCHOR0
 2794 0d1f 23       		.uleb128 0x23
 2795 0d20 01       		.uleb128 0x1
 2796 0d21 51       		.byte	0x51
 2797 0d22 02       		.uleb128 0x2
 2798 0d23 91       		.byte	0x91
 2799 0d24 5C       		.sleb128 -36
 2800 0d25 23       		.uleb128 0x23
 2801 0d26 01       		.uleb128 0x1
 2802 0d27 52       		.byte	0x52
 2803 0d28 01       		.uleb128 0x1
 2804 0d29 30       		.byte	0x30
 2805 0d2a 00       		.byte	0
 2806 0d2b 25       		.uleb128 0x25
 2807 0d2c 26000000 		.4byte	.LVL12
 2808 0d30 6A110000 		.4byte	0x116a
 2809 0d34 420D0000 		.4byte	0xd42
 2810 0d38 23       		.uleb128 0x23
 2811 0d39 01       		.uleb128 0x1
 2812 0d3a 51       		.byte	0x51
ARM GAS  /tmp/ccXsMVKs.s 			page 51


 2813 0d3b 05       		.uleb128 0x5
 2814 0d3c 03       		.byte	0x3
 2815 0d3d 00000000 		.4byte	.LC2
 2816 0d41 00       		.byte	0
 2817 0d42 25       		.uleb128 0x25
 2818 0d43 4A000000 		.4byte	.LVL16
 2819 0d47 6A110000 		.4byte	0x116a
 2820 0d4b 590D0000 		.4byte	0xd59
 2821 0d4f 23       		.uleb128 0x23
 2822 0d50 01       		.uleb128 0x1
 2823 0d51 51       		.byte	0x51
 2824 0d52 05       		.uleb128 0x5
 2825 0d53 03       		.byte	0x3
 2826 0d54 14000000 		.4byte	.LC1
 2827 0d58 00       		.byte	0
 2828 0d59 25       		.uleb128 0x25
 2829 0d5a 6A000000 		.4byte	.LVL21
 2830 0d5e 6A110000 		.4byte	0x116a
 2831 0d62 800D0000 		.4byte	0xd80
 2832 0d66 23       		.uleb128 0x23
 2833 0d67 01       		.uleb128 0x1
 2834 0d68 50       		.byte	0x50
 2835 0d69 0C       		.uleb128 0xc
 2836 0d6a 31       		.byte	0x31
 2837 0d6b 75       		.byte	0x75
 2838 0d6c 00       		.sleb128 0
 2839 0d6d 75       		.byte	0x75
 2840 0d6e 00       		.sleb128 0
 2841 0d6f 30       		.byte	0x30
 2842 0d70 2E       		.byte	0x2e
 2843 0d71 28       		.byte	0x28
 2844 0d72 0100     		.2byte	0x1
 2845 0d74 16       		.byte	0x16
 2846 0d75 13       		.byte	0x13
 2847 0d76 23       		.uleb128 0x23
 2848 0d77 01       		.uleb128 0x1
 2849 0d78 51       		.byte	0x51
 2850 0d79 05       		.uleb128 0x5
 2851 0d7a 03       		.byte	0x3
 2852 0d7b 00000000 		.4byte	.LC0
 2853 0d7f 00       		.byte	0
 2854 0d80 25       		.uleb128 0x25
 2855 0d81 74000000 		.4byte	.LVL22
 2856 0d85 76110000 		.4byte	0x1176
 2857 0d89 940D0000 		.4byte	0xd94
 2858 0d8d 23       		.uleb128 0x23
 2859 0d8e 01       		.uleb128 0x1
 2860 0d8f 50       		.byte	0x50
 2861 0d90 02       		.uleb128 0x2
 2862 0d91 75       		.byte	0x75
 2863 0d92 00       		.sleb128 0
 2864 0d93 00       		.byte	0
 2865 0d94 25       		.uleb128 0x25
 2866 0d95 F4000000 		.4byte	.LVL37
 2867 0d99 76110000 		.4byte	0x1176
 2868 0d9d A80D0000 		.4byte	0xda8
 2869 0da1 23       		.uleb128 0x23
ARM GAS  /tmp/ccXsMVKs.s 			page 52


 2870 0da2 01       		.uleb128 0x1
 2871 0da3 50       		.byte	0x50
 2872 0da4 02       		.uleb128 0x2
 2873 0da5 78       		.byte	0x78
 2874 0da6 00       		.sleb128 0
 2875 0da7 00       		.byte	0
 2876 0da8 25       		.uleb128 0x25
 2877 0da9 FA000000 		.4byte	.LVL38
 2878 0dad 76110000 		.4byte	0x1176
 2879 0db1 BC0D0000 		.4byte	0xdbc
 2880 0db5 23       		.uleb128 0x23
 2881 0db6 01       		.uleb128 0x1
 2882 0db7 50       		.byte	0x50
 2883 0db8 02       		.uleb128 0x2
 2884 0db9 77       		.byte	0x77
 2885 0dba 00       		.sleb128 0
 2886 0dbb 00       		.byte	0
 2887 0dbc 25       		.uleb128 0x25
 2888 0dbd 00010000 		.4byte	.LVL39
 2889 0dc1 76110000 		.4byte	0x1176
 2890 0dc5 D00D0000 		.4byte	0xdd0
 2891 0dc9 23       		.uleb128 0x23
 2892 0dca 01       		.uleb128 0x1
 2893 0dcb 50       		.byte	0x50
 2894 0dcc 02       		.uleb128 0x2
 2895 0dcd 76       		.byte	0x76
 2896 0dce 00       		.sleb128 0
 2897 0dcf 00       		.byte	0
 2898 0dd0 25       		.uleb128 0x25
 2899 0dd1 0A010000 		.4byte	.LVL40
 2900 0dd5 5E110000 		.4byte	0x115e
 2901 0dd9 F30D0000 		.4byte	0xdf3
 2902 0ddd 23       		.uleb128 0x23
 2903 0dde 01       		.uleb128 0x1
 2904 0ddf 50       		.byte	0x50
 2905 0de0 05       		.uleb128 0x5
 2906 0de1 03       		.byte	0x3
 2907 0de2 00000000 		.4byte	.LANCHOR0
 2908 0de6 23       		.uleb128 0x23
 2909 0de7 01       		.uleb128 0x1
 2910 0de8 51       		.byte	0x51
 2911 0de9 02       		.uleb128 0x2
 2912 0dea 7D       		.byte	0x7d
 2913 0deb 00       		.sleb128 0
 2914 0dec 23       		.uleb128 0x23
 2915 0ded 01       		.uleb128 0x1
 2916 0dee 52       		.byte	0x52
 2917 0def 02       		.uleb128 0x2
 2918 0df0 75       		.byte	0x75
 2919 0df1 00       		.sleb128 0
 2920 0df2 00       		.byte	0
 2921 0df3 25       		.uleb128 0x25
 2922 0df4 1A010000 		.4byte	.LVL41
 2923 0df8 6A110000 		.4byte	0x116a
 2924 0dfc 0A0E0000 		.4byte	0xe0a
 2925 0e00 23       		.uleb128 0x23
 2926 0e01 01       		.uleb128 0x1
ARM GAS  /tmp/ccXsMVKs.s 			page 53


 2927 0e02 51       		.byte	0x51
 2928 0e03 05       		.uleb128 0x5
 2929 0e04 03       		.byte	0x3
 2930 0e05 00000000 		.4byte	.LC2
 2931 0e09 00       		.byte	0
 2932 0e0a 28       		.uleb128 0x28
 2933 0e0b 4A010000 		.4byte	.LVL50
 2934 0e0f 76110000 		.4byte	0x1176
 2935 0e13 25       		.uleb128 0x25
 2936 0e14 50010000 		.4byte	.LVL51
 2937 0e18 76110000 		.4byte	0x1176
 2938 0e1c 270E0000 		.4byte	0xe27
 2939 0e20 23       		.uleb128 0x23
 2940 0e21 01       		.uleb128 0x1
 2941 0e22 50       		.byte	0x50
 2942 0e23 02       		.uleb128 0x2
 2943 0e24 77       		.byte	0x77
 2944 0e25 00       		.sleb128 0
 2945 0e26 00       		.byte	0
 2946 0e27 25       		.uleb128 0x25
 2947 0e28 56010000 		.4byte	.LVL52
 2948 0e2c 76110000 		.4byte	0x1176
 2949 0e30 3B0E0000 		.4byte	0xe3b
 2950 0e34 23       		.uleb128 0x23
 2951 0e35 01       		.uleb128 0x1
 2952 0e36 50       		.byte	0x50
 2953 0e37 02       		.uleb128 0x2
 2954 0e38 76       		.byte	0x76
 2955 0e39 00       		.sleb128 0
 2956 0e3a 00       		.byte	0
 2957 0e3b 25       		.uleb128 0x25
 2958 0e3c 60010000 		.4byte	.LVL53
 2959 0e40 5E110000 		.4byte	0x115e
 2960 0e44 5E0E0000 		.4byte	0xe5e
 2961 0e48 23       		.uleb128 0x23
 2962 0e49 01       		.uleb128 0x1
 2963 0e4a 50       		.byte	0x50
 2964 0e4b 05       		.uleb128 0x5
 2965 0e4c 03       		.byte	0x3
 2966 0e4d 00000000 		.4byte	.LANCHOR0
 2967 0e51 23       		.uleb128 0x23
 2968 0e52 01       		.uleb128 0x1
 2969 0e53 51       		.byte	0x51
 2970 0e54 02       		.uleb128 0x2
 2971 0e55 7D       		.byte	0x7d
 2972 0e56 00       		.sleb128 0
 2973 0e57 23       		.uleb128 0x23
 2974 0e58 01       		.uleb128 0x1
 2975 0e59 52       		.byte	0x52
 2976 0e5a 02       		.uleb128 0x2
 2977 0e5b 75       		.byte	0x75
 2978 0e5c 00       		.sleb128 0
 2979 0e5d 00       		.byte	0
 2980 0e5e 25       		.uleb128 0x25
 2981 0e5f 70010000 		.4byte	.LVL54
 2982 0e63 6A110000 		.4byte	0x116a
 2983 0e67 750E0000 		.4byte	0xe75
ARM GAS  /tmp/ccXsMVKs.s 			page 54


 2984 0e6b 23       		.uleb128 0x23
 2985 0e6c 01       		.uleb128 0x1
 2986 0e6d 51       		.byte	0x51
 2987 0e6e 05       		.uleb128 0x5
 2988 0e6f 03       		.byte	0x3
 2989 0e70 00000000 		.4byte	.LC2
 2990 0e74 00       		.byte	0
 2991 0e75 28       		.uleb128 0x28
 2992 0e76 9C010000 		.4byte	.LVL61
 2993 0e7a 76110000 		.4byte	0x1176
 2994 0e7e 25       		.uleb128 0x25
 2995 0e7f A6010000 		.4byte	.LVL62
 2996 0e83 5E110000 		.4byte	0x115e
 2997 0e87 A10E0000 		.4byte	0xea1
 2998 0e8b 23       		.uleb128 0x23
 2999 0e8c 01       		.uleb128 0x1
 3000 0e8d 50       		.byte	0x50
 3001 0e8e 05       		.uleb128 0x5
 3002 0e8f 03       		.byte	0x3
 3003 0e90 00000000 		.4byte	.LANCHOR0
 3004 0e94 23       		.uleb128 0x23
 3005 0e95 01       		.uleb128 0x1
 3006 0e96 51       		.byte	0x51
 3007 0e97 02       		.uleb128 0x2
 3008 0e98 7D       		.byte	0x7d
 3009 0e99 00       		.sleb128 0
 3010 0e9a 23       		.uleb128 0x23
 3011 0e9b 01       		.uleb128 0x1
 3012 0e9c 52       		.byte	0x52
 3013 0e9d 02       		.uleb128 0x2
 3014 0e9e 75       		.byte	0x75
 3015 0e9f 00       		.sleb128 0
 3016 0ea0 00       		.byte	0
 3017 0ea1 25       		.uleb128 0x25
 3018 0ea2 B6010000 		.4byte	.LVL63
 3019 0ea6 6A110000 		.4byte	0x116a
 3020 0eaa B80E0000 		.4byte	0xeb8
 3021 0eae 23       		.uleb128 0x23
 3022 0eaf 01       		.uleb128 0x1
 3023 0eb0 51       		.byte	0x51
 3024 0eb1 05       		.uleb128 0x5
 3025 0eb2 03       		.byte	0x3
 3026 0eb3 3C000000 		.4byte	.LC5
 3027 0eb7 00       		.byte	0
 3028 0eb8 25       		.uleb128 0x25
 3029 0eb9 D4010000 		.4byte	.LVL68
 3030 0ebd 5E110000 		.4byte	0x115e
 3031 0ec1 DB0E0000 		.4byte	0xedb
 3032 0ec5 23       		.uleb128 0x23
 3033 0ec6 01       		.uleb128 0x1
 3034 0ec7 50       		.byte	0x50
 3035 0ec8 05       		.uleb128 0x5
 3036 0ec9 03       		.byte	0x3
 3037 0eca 00000000 		.4byte	.LANCHOR0
 3038 0ece 23       		.uleb128 0x23
 3039 0ecf 01       		.uleb128 0x1
 3040 0ed0 51       		.byte	0x51
ARM GAS  /tmp/ccXsMVKs.s 			page 55


 3041 0ed1 02       		.uleb128 0x2
 3042 0ed2 7D       		.byte	0x7d
 3043 0ed3 00       		.sleb128 0
 3044 0ed4 23       		.uleb128 0x23
 3045 0ed5 01       		.uleb128 0x1
 3046 0ed6 52       		.byte	0x52
 3047 0ed7 02       		.uleb128 0x2
 3048 0ed8 75       		.byte	0x75
 3049 0ed9 00       		.sleb128 0
 3050 0eda 00       		.byte	0
 3051 0edb 25       		.uleb128 0x25
 3052 0edc E4010000 		.4byte	.LVL69
 3053 0ee0 5E110000 		.4byte	0x115e
 3054 0ee4 FD0E0000 		.4byte	0xefd
 3055 0ee8 23       		.uleb128 0x23
 3056 0ee9 01       		.uleb128 0x1
 3057 0eea 50       		.byte	0x50
 3058 0eeb 05       		.uleb128 0x5
 3059 0eec 03       		.byte	0x3
 3060 0eed 00000000 		.4byte	.LANCHOR0
 3061 0ef1 23       		.uleb128 0x23
 3062 0ef2 01       		.uleb128 0x1
 3063 0ef3 51       		.byte	0x51
 3064 0ef4 02       		.uleb128 0x2
 3065 0ef5 7D       		.byte	0x7d
 3066 0ef6 00       		.sleb128 0
 3067 0ef7 23       		.uleb128 0x23
 3068 0ef8 01       		.uleb128 0x1
 3069 0ef9 52       		.byte	0x52
 3070 0efa 01       		.uleb128 0x1
 3071 0efb 30       		.byte	0x30
 3072 0efc 00       		.byte	0
 3073 0efd 25       		.uleb128 0x25
 3074 0efe F6010000 		.4byte	.LVL70
 3075 0f02 6A110000 		.4byte	0x116a
 3076 0f06 140F0000 		.4byte	0xf14
 3077 0f0a 23       		.uleb128 0x23
 3078 0f0b 01       		.uleb128 0x1
 3079 0f0c 51       		.byte	0x51
 3080 0f0d 05       		.uleb128 0x5
 3081 0f0e 03       		.byte	0x3
 3082 0f0f 00000000 		.4byte	.LC2
 3083 0f13 00       		.byte	0
 3084 0f14 25       		.uleb128 0x25
 3085 0f15 04020000 		.4byte	.LVL71
 3086 0f19 76110000 		.4byte	0x1176
 3087 0f1d 280F0000 		.4byte	0xf28
 3088 0f21 23       		.uleb128 0x23
 3089 0f22 01       		.uleb128 0x1
 3090 0f23 50       		.byte	0x50
 3091 0f24 02       		.uleb128 0x2
 3092 0f25 76       		.byte	0x76
 3093 0f26 00       		.sleb128 0
 3094 0f27 00       		.byte	0
 3095 0f28 25       		.uleb128 0x25
 3096 0f29 0A020000 		.4byte	.LVL72
 3097 0f2d 76110000 		.4byte	0x1176
ARM GAS  /tmp/ccXsMVKs.s 			page 56


 3098 0f31 3C0F0000 		.4byte	0xf3c
 3099 0f35 23       		.uleb128 0x23
 3100 0f36 01       		.uleb128 0x1
 3101 0f37 50       		.byte	0x50
 3102 0f38 02       		.uleb128 0x2
 3103 0f39 77       		.byte	0x77
 3104 0f3a 00       		.sleb128 0
 3105 0f3b 00       		.byte	0
 3106 0f3c 25       		.uleb128 0x25
 3107 0f3d 14020000 		.4byte	.LVL73
 3108 0f41 5E110000 		.4byte	0x115e
 3109 0f45 5F0F0000 		.4byte	0xf5f
 3110 0f49 23       		.uleb128 0x23
 3111 0f4a 01       		.uleb128 0x1
 3112 0f4b 50       		.byte	0x50
 3113 0f4c 05       		.uleb128 0x5
 3114 0f4d 03       		.byte	0x3
 3115 0f4e 00000000 		.4byte	.LANCHOR0
 3116 0f52 23       		.uleb128 0x23
 3117 0f53 01       		.uleb128 0x1
 3118 0f54 51       		.byte	0x51
 3119 0f55 02       		.uleb128 0x2
 3120 0f56 7D       		.byte	0x7d
 3121 0f57 00       		.sleb128 0
 3122 0f58 23       		.uleb128 0x23
 3123 0f59 01       		.uleb128 0x1
 3124 0f5a 52       		.byte	0x52
 3125 0f5b 02       		.uleb128 0x2
 3126 0f5c 75       		.byte	0x75
 3127 0f5d 00       		.sleb128 0
 3128 0f5e 00       		.byte	0
 3129 0f5f 25       		.uleb128 0x25
 3130 0f60 26020000 		.4byte	.LVL74
 3131 0f64 6A110000 		.4byte	0x116a
 3132 0f68 760F0000 		.4byte	0xf76
 3133 0f6c 23       		.uleb128 0x23
 3134 0f6d 01       		.uleb128 0x1
 3135 0f6e 51       		.byte	0x51
 3136 0f6f 05       		.uleb128 0x5
 3137 0f70 03       		.byte	0x3
 3138 0f71 00000000 		.4byte	.LC2
 3139 0f75 00       		.byte	0
 3140 0f76 25       		.uleb128 0x25
 3141 0f77 50020000 		.4byte	.LVL82
 3142 0f7b 76110000 		.4byte	0x1176
 3143 0f7f 8A0F0000 		.4byte	0xf8a
 3144 0f83 23       		.uleb128 0x23
 3145 0f84 01       		.uleb128 0x1
 3146 0f85 50       		.byte	0x50
 3147 0f86 02       		.uleb128 0x2
 3148 0f87 78       		.byte	0x78
 3149 0f88 00       		.sleb128 0
 3150 0f89 00       		.byte	0
 3151 0f8a 25       		.uleb128 0x25
 3152 0f8b 5A020000 		.4byte	.LVL83
 3153 0f8f 5E110000 		.4byte	0x115e
 3154 0f93 AD0F0000 		.4byte	0xfad
ARM GAS  /tmp/ccXsMVKs.s 			page 57


 3155 0f97 23       		.uleb128 0x23
 3156 0f98 01       		.uleb128 0x1
 3157 0f99 50       		.byte	0x50
 3158 0f9a 05       		.uleb128 0x5
 3159 0f9b 03       		.byte	0x3
 3160 0f9c 00000000 		.4byte	.LANCHOR0
 3161 0fa0 23       		.uleb128 0x23
 3162 0fa1 01       		.uleb128 0x1
 3163 0fa2 51       		.byte	0x51
 3164 0fa3 02       		.uleb128 0x2
 3165 0fa4 7D       		.byte	0x7d
 3166 0fa5 00       		.sleb128 0
 3167 0fa6 23       		.uleb128 0x23
 3168 0fa7 01       		.uleb128 0x1
 3169 0fa8 52       		.byte	0x52
 3170 0fa9 02       		.uleb128 0x2
 3171 0faa 76       		.byte	0x76
 3172 0fab 00       		.sleb128 0
 3173 0fac 00       		.byte	0
 3174 0fad 25       		.uleb128 0x25
 3175 0fae 6C020000 		.4byte	.LVL84
 3176 0fb2 6A110000 		.4byte	0x116a
 3177 0fb6 C40F0000 		.4byte	0xfc4
 3178 0fba 23       		.uleb128 0x23
 3179 0fbb 01       		.uleb128 0x1
 3180 0fbc 51       		.byte	0x51
 3181 0fbd 05       		.uleb128 0x5
 3182 0fbe 03       		.byte	0x3
 3183 0fbf 3C000000 		.4byte	.LC5
 3184 0fc3 00       		.byte	0
 3185 0fc4 28       		.uleb128 0x28
 3186 0fc5 82020000 		.4byte	.LVL87
 3187 0fc9 76110000 		.4byte	0x1176
 3188 0fcd 25       		.uleb128 0x25
 3189 0fce 88020000 		.4byte	.LVL88
 3190 0fd2 76110000 		.4byte	0x1176
 3191 0fd6 E10F0000 		.4byte	0xfe1
 3192 0fda 23       		.uleb128 0x23
 3193 0fdb 01       		.uleb128 0x1
 3194 0fdc 50       		.byte	0x50
 3195 0fdd 02       		.uleb128 0x2
 3196 0fde 77       		.byte	0x77
 3197 0fdf 00       		.sleb128 0
 3198 0fe0 00       		.byte	0
 3199 0fe1 25       		.uleb128 0x25
 3200 0fe2 92020000 		.4byte	.LVL89
 3201 0fe6 5E110000 		.4byte	0x115e
 3202 0fea 04100000 		.4byte	0x1004
 3203 0fee 23       		.uleb128 0x23
 3204 0fef 01       		.uleb128 0x1
 3205 0ff0 50       		.byte	0x50
 3206 0ff1 05       		.uleb128 0x5
 3207 0ff2 03       		.byte	0x3
 3208 0ff3 00000000 		.4byte	.LANCHOR0
 3209 0ff7 23       		.uleb128 0x23
 3210 0ff8 01       		.uleb128 0x1
 3211 0ff9 51       		.byte	0x51
ARM GAS  /tmp/ccXsMVKs.s 			page 58


 3212 0ffa 02       		.uleb128 0x2
 3213 0ffb 7D       		.byte	0x7d
 3214 0ffc 00       		.sleb128 0
 3215 0ffd 23       		.uleb128 0x23
 3216 0ffe 01       		.uleb128 0x1
 3217 0fff 52       		.byte	0x52
 3218 1000 02       		.uleb128 0x2
 3219 1001 76       		.byte	0x76
 3220 1002 00       		.sleb128 0
 3221 1003 00       		.byte	0
 3222 1004 25       		.uleb128 0x25
 3223 1005 9E020000 		.4byte	.LVL90
 3224 1009 6A110000 		.4byte	0x116a
 3225 100d 23100000 		.4byte	0x1023
 3226 1011 23       		.uleb128 0x23
 3227 1012 01       		.uleb128 0x1
 3228 1013 50       		.byte	0x50
 3229 1014 04       		.uleb128 0x4
 3230 1015 76       		.byte	0x76
 3231 1016 00       		.sleb128 0
 3232 1017 30       		.byte	0x30
 3233 1018 29       		.byte	0x29
 3234 1019 23       		.uleb128 0x23
 3235 101a 01       		.uleb128 0x1
 3236 101b 51       		.byte	0x51
 3237 101c 05       		.uleb128 0x5
 3238 101d 03       		.byte	0x3
 3239 101e 00000000 		.4byte	.LC2
 3240 1022 00       		.byte	0
 3241 1023 25       		.uleb128 0x25
 3242 1024 B2020000 		.4byte	.LVL91
 3243 1028 5E110000 		.4byte	0x115e
 3244 102c 40100000 		.4byte	0x1040
 3245 1030 23       		.uleb128 0x23
 3246 1031 01       		.uleb128 0x1
 3247 1032 50       		.byte	0x50
 3248 1033 05       		.uleb128 0x5
 3249 1034 03       		.byte	0x3
 3250 1035 00000000 		.4byte	.LANCHOR0
 3251 1039 23       		.uleb128 0x23
 3252 103a 01       		.uleb128 0x1
 3253 103b 51       		.byte	0x51
 3254 103c 02       		.uleb128 0x2
 3255 103d 7D       		.byte	0x7d
 3256 103e 00       		.sleb128 0
 3257 103f 00       		.byte	0
 3258 1040 25       		.uleb128 0x25
 3259 1041 CA020000 		.4byte	.LVL95
 3260 1045 6A110000 		.4byte	0x116a
 3261 1049 67100000 		.4byte	0x1067
 3262 104d 23       		.uleb128 0x23
 3263 104e 01       		.uleb128 0x1
 3264 104f 50       		.byte	0x50
 3265 1050 0C       		.uleb128 0xc
 3266 1051 31       		.byte	0x31
 3267 1052 76       		.byte	0x76
 3268 1053 00       		.sleb128 0
ARM GAS  /tmp/ccXsMVKs.s 			page 59


 3269 1054 76       		.byte	0x76
 3270 1055 00       		.sleb128 0
 3271 1056 30       		.byte	0x30
 3272 1057 2E       		.byte	0x2e
 3273 1058 28       		.byte	0x28
 3274 1059 0100     		.2byte	0x1
 3275 105b 16       		.byte	0x16
 3276 105c 13       		.byte	0x13
 3277 105d 23       		.uleb128 0x23
 3278 105e 01       		.uleb128 0x1
 3279 105f 51       		.byte	0x51
 3280 1060 05       		.uleb128 0x5
 3281 1061 03       		.byte	0x3
 3282 1062 00000000 		.4byte	.LC0
 3283 1066 00       		.byte	0
 3284 1067 25       		.uleb128 0x25
 3285 1068 DA020000 		.4byte	.LVL96
 3286 106c 5E110000 		.4byte	0x115e
 3287 1070 7E100000 		.4byte	0x107e
 3288 1074 23       		.uleb128 0x23
 3289 1075 01       		.uleb128 0x1
 3290 1076 50       		.byte	0x50
 3291 1077 05       		.uleb128 0x5
 3292 1078 03       		.byte	0x3
 3293 1079 00000000 		.4byte	.LANCHOR0
 3294 107d 00       		.byte	0
 3295 107e 25       		.uleb128 0x25
 3296 107f E6020000 		.4byte	.LVL97
 3297 1083 6A110000 		.4byte	0x116a
 3298 1087 95100000 		.4byte	0x1095
 3299 108b 23       		.uleb128 0x23
 3300 108c 01       		.uleb128 0x1
 3301 108d 51       		.byte	0x51
 3302 108e 05       		.uleb128 0x5
 3303 108f 03       		.byte	0x3
 3304 1090 4C000000 		.4byte	.LC6
 3305 1094 00       		.byte	0
 3306 1095 25       		.uleb128 0x25
 3307 1096 F4020000 		.4byte	.LVL98
 3308 109a 76110000 		.4byte	0x1176
 3309 109e A9100000 		.4byte	0x10a9
 3310 10a2 23       		.uleb128 0x23
 3311 10a3 01       		.uleb128 0x1
 3312 10a4 50       		.byte	0x50
 3313 10a5 02       		.uleb128 0x2
 3314 10a6 76       		.byte	0x76
 3315 10a7 00       		.sleb128 0
 3316 10a8 00       		.byte	0
 3317 10a9 25       		.uleb128 0x25
 3318 10aa 02030000 		.4byte	.LVL99
 3319 10ae 5E110000 		.4byte	0x115e
 3320 10b2 CC100000 		.4byte	0x10cc
 3321 10b6 23       		.uleb128 0x23
 3322 10b7 01       		.uleb128 0x1
 3323 10b8 50       		.byte	0x50
 3324 10b9 05       		.uleb128 0x5
 3325 10ba 03       		.byte	0x3
ARM GAS  /tmp/ccXsMVKs.s 			page 60


 3326 10bb 00000000 		.4byte	.LANCHOR0
 3327 10bf 23       		.uleb128 0x23
 3328 10c0 01       		.uleb128 0x1
 3329 10c1 51       		.byte	0x51
 3330 10c2 02       		.uleb128 0x2
 3331 10c3 7D       		.byte	0x7d
 3332 10c4 00       		.sleb128 0
 3333 10c5 23       		.uleb128 0x23
 3334 10c6 01       		.uleb128 0x1
 3335 10c7 52       		.byte	0x52
 3336 10c8 02       		.uleb128 0x2
 3337 10c9 75       		.byte	0x75
 3338 10ca 00       		.sleb128 0
 3339 10cb 00       		.byte	0
 3340 10cc 25       		.uleb128 0x25
 3341 10cd 0E030000 		.4byte	.LVL100
 3342 10d1 6A110000 		.4byte	0x116a
 3343 10d5 E3100000 		.4byte	0x10e3
 3344 10d9 23       		.uleb128 0x23
 3345 10da 01       		.uleb128 0x1
 3346 10db 51       		.byte	0x51
 3347 10dc 05       		.uleb128 0x5
 3348 10dd 03       		.byte	0x3
 3349 10de 00000000 		.4byte	.LC2
 3350 10e2 00       		.byte	0
 3351 10e3 22       		.uleb128 0x22
 3352 10e4 24030000 		.4byte	.LVL101
 3353 10e8 6A110000 		.4byte	0x116a
 3354 10ec 23       		.uleb128 0x23
 3355 10ed 01       		.uleb128 0x1
 3356 10ee 51       		.byte	0x51
 3357 10ef 05       		.uleb128 0x5
 3358 10f0 03       		.byte	0x3
 3359 10f1 58000000 		.4byte	.LC7
 3360 10f5 00       		.byte	0
 3361 10f6 00       		.byte	0
 3362 10f7 1E       		.uleb128 0x1e
 3363 10f8 EA000000 		.4byte	.LASF90
 3364 10fc 01       		.byte	0x1
 3365 10fd 5A       		.byte	0x5a
 3366 10fe 0D       		.byte	0xd
 3367 10ff 00000000 		.4byte	.LFB277
 3368 1103 14000000 		.4byte	.LFE277-.LFB277
 3369 1107 01       		.uleb128 0x1
 3370 1108 9C       		.byte	0x9c
 3371 1109 28110000 		.4byte	0x1128
 3372 110d 29       		.uleb128 0x29
 3373 110e 0C000000 		.4byte	.LVL103
 3374 1112 82110000 		.4byte	0x1182
 3375 1116 23       		.uleb128 0x23
 3376 1117 01       		.uleb128 0x1
 3377 1118 50       		.byte	0x50
 3378 1119 05       		.uleb128 0x5
 3379 111a 03       		.byte	0x3
 3380 111b 00000000 		.4byte	.LANCHOR0
 3381 111f 23       		.uleb128 0x23
 3382 1120 01       		.uleb128 0x1
ARM GAS  /tmp/ccXsMVKs.s 			page 61


 3383 1121 52       		.byte	0x52
 3384 1122 03       		.uleb128 0x3
 3385 1123 0A       		.byte	0xa
 3386 1124 6806     		.2byte	0x668
 3387 1126 00       		.byte	0
 3388 1127 00       		.byte	0
 3389 1128 2A       		.uleb128 0x2a
 3390 1129 95020000 		.4byte	.LASF101
 3391 112d 02       		.byte	0x2
 3392 112e 9B       		.byte	0x9b
 3393 112f 15       		.byte	0x15
 3394 1130 6B020000 		.4byte	0x26b
 3395 1134 03       		.byte	0x3
 3396 1135 52110000 		.4byte	0x1152
 3397 1139 2B       		.uleb128 0x2b
 3398 113a 5C040000 		.4byte	.LASF91
 3399 113e 02       		.byte	0x2
 3400 113f 9B       		.byte	0x9b
 3401 1140 30       		.byte	0x30
 3402 1141 2A050000 		.4byte	0x52a
 3403 1145 2B       		.uleb128 0x2b
 3404 1146 F3030000 		.4byte	.LASF75
 3405 114a 02       		.byte	0x2
 3406 114b 9B       		.byte	0x9b
 3407 114c 3E       		.byte	0x3e
 3408 114d 2C000000 		.4byte	0x2c
 3409 1151 00       		.byte	0
 3410 1152 2C       		.uleb128 0x2c
 3411 1153 2E040000 		.4byte	.LASF92
 3412 1157 2E040000 		.4byte	.LASF92
 3413 115b 02       		.byte	0x2
 3414 115c 80       		.byte	0x80
 3415 115d 09       		.byte	0x9
 3416 115e 2C       		.uleb128 0x2c
 3417 115f 40010000 		.4byte	.LASF93
 3418 1163 40010000 		.4byte	.LASF93
 3419 1167 02       		.byte	0x2
 3420 1168 82       		.byte	0x82
 3421 1169 0A       		.byte	0xa
 3422 116a 2C       		.uleb128 0x2c
 3423 116b 70000000 		.4byte	.LASF94
 3424 116f 70000000 		.4byte	.LASF94
 3425 1173 0D       		.byte	0xd
 3426 1174 A6       		.byte	0xa6
 3427 1175 08       		.byte	0x8
 3428 1176 2C       		.uleb128 0x2c
 3429 1177 E8030000 		.4byte	.LASF95
 3430 117b E8030000 		.4byte	.LASF95
 3431 117f 02       		.byte	0x2
 3432 1180 81       		.byte	0x81
 3433 1181 08       		.byte	0x8
 3434 1182 2C       		.uleb128 0x2c
 3435 1183 AE000000 		.4byte	.LASF96
 3436 1187 AE000000 		.4byte	.LASF96
 3437 118b 02       		.byte	0x2
 3438 118c 7F       		.byte	0x7f
 3439 118d 08       		.byte	0x8
ARM GAS  /tmp/ccXsMVKs.s 			page 62


 3440 118e 00       		.byte	0
 3441              		.section	.debug_abbrev,"",%progbits
 3442              	.Ldebug_abbrev0:
 3443 0000 01       		.uleb128 0x1
 3444 0001 11       		.uleb128 0x11
 3445 0002 01       		.byte	0x1
 3446 0003 25       		.uleb128 0x25
 3447 0004 0E       		.uleb128 0xe
 3448 0005 13       		.uleb128 0x13
 3449 0006 0B       		.uleb128 0xb
 3450 0007 03       		.uleb128 0x3
 3451 0008 0E       		.uleb128 0xe
 3452 0009 1B       		.uleb128 0x1b
 3453 000a 0E       		.uleb128 0xe
 3454 000b 55       		.uleb128 0x55
 3455 000c 17       		.uleb128 0x17
 3456 000d 11       		.uleb128 0x11
 3457 000e 01       		.uleb128 0x1
 3458 000f 10       		.uleb128 0x10
 3459 0010 17       		.uleb128 0x17
 3460 0011 00       		.byte	0
 3461 0012 00       		.byte	0
 3462 0013 02       		.uleb128 0x2
 3463 0014 24       		.uleb128 0x24
 3464 0015 00       		.byte	0
 3465 0016 0B       		.uleb128 0xb
 3466 0017 0B       		.uleb128 0xb
 3467 0018 3E       		.uleb128 0x3e
 3468 0019 0B       		.uleb128 0xb
 3469 001a 03       		.uleb128 0x3
 3470 001b 08       		.uleb128 0x8
 3471 001c 00       		.byte	0
 3472 001d 00       		.byte	0
 3473 001e 03       		.uleb128 0x3
 3474 001f 16       		.uleb128 0x16
 3475 0020 00       		.byte	0
 3476 0021 03       		.uleb128 0x3
 3477 0022 0E       		.uleb128 0xe
 3478 0023 3A       		.uleb128 0x3a
 3479 0024 0B       		.uleb128 0xb
 3480 0025 3B       		.uleb128 0x3b
 3481 0026 0B       		.uleb128 0xb
 3482 0027 39       		.uleb128 0x39
 3483 0028 0B       		.uleb128 0xb
 3484 0029 49       		.uleb128 0x49
 3485 002a 13       		.uleb128 0x13
 3486 002b 00       		.byte	0
 3487 002c 00       		.byte	0
 3488 002d 04       		.uleb128 0x4
 3489 002e 24       		.uleb128 0x24
 3490 002f 00       		.byte	0
 3491 0030 0B       		.uleb128 0xb
 3492 0031 0B       		.uleb128 0xb
 3493 0032 3E       		.uleb128 0x3e
 3494 0033 0B       		.uleb128 0xb
 3495 0034 03       		.uleb128 0x3
 3496 0035 0E       		.uleb128 0xe
ARM GAS  /tmp/ccXsMVKs.s 			page 63


 3497 0036 00       		.byte	0
 3498 0037 00       		.byte	0
 3499 0038 05       		.uleb128 0x5
 3500 0039 13       		.uleb128 0x13
 3501 003a 01       		.byte	0x1
 3502 003b 03       		.uleb128 0x3
 3503 003c 0E       		.uleb128 0xe
 3504 003d 0B       		.uleb128 0xb
 3505 003e 0B       		.uleb128 0xb
 3506 003f 3A       		.uleb128 0x3a
 3507 0040 0B       		.uleb128 0xb
 3508 0041 3B       		.uleb128 0x3b
 3509 0042 0B       		.uleb128 0xb
 3510 0043 39       		.uleb128 0x39
 3511 0044 0B       		.uleb128 0xb
 3512 0045 01       		.uleb128 0x1
 3513 0046 13       		.uleb128 0x13
 3514 0047 00       		.byte	0
 3515 0048 00       		.byte	0
 3516 0049 06       		.uleb128 0x6
 3517 004a 0D       		.uleb128 0xd
 3518 004b 00       		.byte	0
 3519 004c 03       		.uleb128 0x3
 3520 004d 0E       		.uleb128 0xe
 3521 004e 3A       		.uleb128 0x3a
 3522 004f 0B       		.uleb128 0xb
 3523 0050 3B       		.uleb128 0x3b
 3524 0051 0B       		.uleb128 0xb
 3525 0052 39       		.uleb128 0x39
 3526 0053 0B       		.uleb128 0xb
 3527 0054 49       		.uleb128 0x49
 3528 0055 13       		.uleb128 0x13
 3529 0056 38       		.uleb128 0x38
 3530 0057 0B       		.uleb128 0xb
 3531 0058 00       		.byte	0
 3532 0059 00       		.byte	0
 3533 005a 07       		.uleb128 0x7
 3534 005b 0D       		.uleb128 0xd
 3535 005c 00       		.byte	0
 3536 005d 03       		.uleb128 0x3
 3537 005e 08       		.uleb128 0x8
 3538 005f 3A       		.uleb128 0x3a
 3539 0060 0B       		.uleb128 0xb
 3540 0061 3B       		.uleb128 0x3b
 3541 0062 0B       		.uleb128 0xb
 3542 0063 39       		.uleb128 0x39
 3543 0064 0B       		.uleb128 0xb
 3544 0065 49       		.uleb128 0x49
 3545 0066 13       		.uleb128 0x13
 3546 0067 38       		.uleb128 0x38
 3547 0068 0B       		.uleb128 0xb
 3548 0069 00       		.byte	0
 3549 006a 00       		.byte	0
 3550 006b 08       		.uleb128 0x8
 3551 006c 0D       		.uleb128 0xd
 3552 006d 00       		.byte	0
 3553 006e 03       		.uleb128 0x3
ARM GAS  /tmp/ccXsMVKs.s 			page 64


 3554 006f 08       		.uleb128 0x8
 3555 0070 3A       		.uleb128 0x3a
 3556 0071 0B       		.uleb128 0xb
 3557 0072 3B       		.uleb128 0x3b
 3558 0073 05       		.uleb128 0x5
 3559 0074 39       		.uleb128 0x39
 3560 0075 0B       		.uleb128 0xb
 3561 0076 49       		.uleb128 0x49
 3562 0077 13       		.uleb128 0x13
 3563 0078 38       		.uleb128 0x38
 3564 0079 0B       		.uleb128 0xb
 3565 007a 00       		.byte	0
 3566 007b 00       		.byte	0
 3567 007c 09       		.uleb128 0x9
 3568 007d 0D       		.uleb128 0xd
 3569 007e 00       		.byte	0
 3570 007f 03       		.uleb128 0x3
 3571 0080 0E       		.uleb128 0xe
 3572 0081 3A       		.uleb128 0x3a
 3573 0082 0B       		.uleb128 0xb
 3574 0083 3B       		.uleb128 0x3b
 3575 0084 05       		.uleb128 0x5
 3576 0085 39       		.uleb128 0x39
 3577 0086 0B       		.uleb128 0xb
 3578 0087 49       		.uleb128 0x49
 3579 0088 13       		.uleb128 0x13
 3580 0089 38       		.uleb128 0x38
 3581 008a 0B       		.uleb128 0xb
 3582 008b 00       		.byte	0
 3583 008c 00       		.byte	0
 3584 008d 0A       		.uleb128 0xa
 3585 008e 0F       		.uleb128 0xf
 3586 008f 00       		.byte	0
 3587 0090 0B       		.uleb128 0xb
 3588 0091 0B       		.uleb128 0xb
 3589 0092 49       		.uleb128 0x49
 3590 0093 13       		.uleb128 0x13
 3591 0094 00       		.byte	0
 3592 0095 00       		.byte	0
 3593 0096 0B       		.uleb128 0xb
 3594 0097 0F       		.uleb128 0xf
 3595 0098 00       		.byte	0
 3596 0099 0B       		.uleb128 0xb
 3597 009a 0B       		.uleb128 0xb
 3598 009b 00       		.byte	0
 3599 009c 00       		.byte	0
 3600 009d 0C       		.uleb128 0xc
 3601 009e 13       		.uleb128 0x13
 3602 009f 01       		.byte	0x1
 3603 00a0 03       		.uleb128 0x3
 3604 00a1 0E       		.uleb128 0xe
 3605 00a2 0B       		.uleb128 0xb
 3606 00a3 0B       		.uleb128 0xb
 3607 00a4 3A       		.uleb128 0x3a
 3608 00a5 0B       		.uleb128 0xb
 3609 00a6 3B       		.uleb128 0x3b
 3610 00a7 05       		.uleb128 0x5
ARM GAS  /tmp/ccXsMVKs.s 			page 65


 3611 00a8 39       		.uleb128 0x39
 3612 00a9 0B       		.uleb128 0xb
 3613 00aa 01       		.uleb128 0x1
 3614 00ab 13       		.uleb128 0x13
 3615 00ac 00       		.byte	0
 3616 00ad 00       		.byte	0
 3617 00ae 0D       		.uleb128 0xd
 3618 00af 17       		.uleb128 0x17
 3619 00b0 01       		.byte	0x1
 3620 00b1 0B       		.uleb128 0xb
 3621 00b2 0B       		.uleb128 0xb
 3622 00b3 3A       		.uleb128 0x3a
 3623 00b4 0B       		.uleb128 0xb
 3624 00b5 3B       		.uleb128 0x3b
 3625 00b6 0B       		.uleb128 0xb
 3626 00b7 39       		.uleb128 0x39
 3627 00b8 0B       		.uleb128 0xb
 3628 00b9 01       		.uleb128 0x1
 3629 00ba 13       		.uleb128 0x13
 3630 00bb 00       		.byte	0
 3631 00bc 00       		.byte	0
 3632 00bd 0E       		.uleb128 0xe
 3633 00be 0D       		.uleb128 0xd
 3634 00bf 00       		.byte	0
 3635 00c0 03       		.uleb128 0x3
 3636 00c1 0E       		.uleb128 0xe
 3637 00c2 3A       		.uleb128 0x3a
 3638 00c3 0B       		.uleb128 0xb
 3639 00c4 3B       		.uleb128 0x3b
 3640 00c5 0B       		.uleb128 0xb
 3641 00c6 39       		.uleb128 0x39
 3642 00c7 0B       		.uleb128 0xb
 3643 00c8 49       		.uleb128 0x49
 3644 00c9 13       		.uleb128 0x13
 3645 00ca 00       		.byte	0
 3646 00cb 00       		.byte	0
 3647 00cc 0F       		.uleb128 0xf
 3648 00cd 0D       		.uleb128 0xd
 3649 00ce 00       		.byte	0
 3650 00cf 03       		.uleb128 0x3
 3651 00d0 0E       		.uleb128 0xe
 3652 00d1 3A       		.uleb128 0x3a
 3653 00d2 0B       		.uleb128 0xb
 3654 00d3 3B       		.uleb128 0x3b
 3655 00d4 05       		.uleb128 0x5
 3656 00d5 39       		.uleb128 0x39
 3657 00d6 0B       		.uleb128 0xb
 3658 00d7 49       		.uleb128 0x49
 3659 00d8 13       		.uleb128 0x13
 3660 00d9 00       		.byte	0
 3661 00da 00       		.byte	0
 3662 00db 10       		.uleb128 0x10
 3663 00dc 26       		.uleb128 0x26
 3664 00dd 00       		.byte	0
 3665 00de 49       		.uleb128 0x49
 3666 00df 13       		.uleb128 0x13
 3667 00e0 00       		.byte	0
ARM GAS  /tmp/ccXsMVKs.s 			page 66


 3668 00e1 00       		.byte	0
 3669 00e2 11       		.uleb128 0x11
 3670 00e3 15       		.uleb128 0x15
 3671 00e4 01       		.byte	0x1
 3672 00e5 27       		.uleb128 0x27
 3673 00e6 19       		.uleb128 0x19
 3674 00e7 49       		.uleb128 0x49
 3675 00e8 13       		.uleb128 0x13
 3676 00e9 01       		.uleb128 0x1
 3677 00ea 13       		.uleb128 0x13
 3678 00eb 00       		.byte	0
 3679 00ec 00       		.byte	0
 3680 00ed 12       		.uleb128 0x12
 3681 00ee 05       		.uleb128 0x5
 3682 00ef 00       		.byte	0
 3683 00f0 49       		.uleb128 0x49
 3684 00f1 13       		.uleb128 0x13
 3685 00f2 00       		.byte	0
 3686 00f3 00       		.byte	0
 3687 00f4 13       		.uleb128 0x13
 3688 00f5 17       		.uleb128 0x17
 3689 00f6 01       		.byte	0x1
 3690 00f7 03       		.uleb128 0x3
 3691 00f8 0E       		.uleb128 0xe
 3692 00f9 0B       		.uleb128 0xb
 3693 00fa 0B       		.uleb128 0xb
 3694 00fb 3A       		.uleb128 0x3a
 3695 00fc 0B       		.uleb128 0xb
 3696 00fd 3B       		.uleb128 0x3b
 3697 00fe 0B       		.uleb128 0xb
 3698 00ff 39       		.uleb128 0x39
 3699 0100 0B       		.uleb128 0xb
 3700 0101 01       		.uleb128 0x1
 3701 0102 13       		.uleb128 0x13
 3702 0103 00       		.byte	0
 3703 0104 00       		.byte	0
 3704 0105 14       		.uleb128 0x14
 3705 0106 13       		.uleb128 0x13
 3706 0107 01       		.byte	0x1
 3707 0108 0B       		.uleb128 0xb
 3708 0109 0B       		.uleb128 0xb
 3709 010a 3A       		.uleb128 0x3a
 3710 010b 0B       		.uleb128 0xb
 3711 010c 3B       		.uleb128 0x3b
 3712 010d 0B       		.uleb128 0xb
 3713 010e 39       		.uleb128 0x39
 3714 010f 0B       		.uleb128 0xb
 3715 0110 01       		.uleb128 0x1
 3716 0111 13       		.uleb128 0x13
 3717 0112 00       		.byte	0
 3718 0113 00       		.byte	0
 3719 0114 15       		.uleb128 0x15
 3720 0115 15       		.uleb128 0x15
 3721 0116 00       		.byte	0
 3722 0117 27       		.uleb128 0x27
 3723 0118 19       		.uleb128 0x19
 3724 0119 00       		.byte	0
ARM GAS  /tmp/ccXsMVKs.s 			page 67


 3725 011a 00       		.byte	0
 3726 011b 16       		.uleb128 0x16
 3727 011c 34       		.uleb128 0x34
 3728 011d 00       		.byte	0
 3729 011e 03       		.uleb128 0x3
 3730 011f 0E       		.uleb128 0xe
 3731 0120 3A       		.uleb128 0x3a
 3732 0121 0B       		.uleb128 0xb
 3733 0122 3B       		.uleb128 0x3b
 3734 0123 0B       		.uleb128 0xb
 3735 0124 39       		.uleb128 0x39
 3736 0125 0B       		.uleb128 0xb
 3737 0126 49       		.uleb128 0x49
 3738 0127 13       		.uleb128 0x13
 3739 0128 3F       		.uleb128 0x3f
 3740 0129 19       		.uleb128 0x19
 3741 012a 3C       		.uleb128 0x3c
 3742 012b 19       		.uleb128 0x19
 3743 012c 00       		.byte	0
 3744 012d 00       		.byte	0
 3745 012e 17       		.uleb128 0x17
 3746 012f 01       		.uleb128 0x1
 3747 0130 01       		.byte	0x1
 3748 0131 49       		.uleb128 0x49
 3749 0132 13       		.uleb128 0x13
 3750 0133 01       		.uleb128 0x1
 3751 0134 13       		.uleb128 0x13
 3752 0135 00       		.byte	0
 3753 0136 00       		.byte	0
 3754 0137 18       		.uleb128 0x18
 3755 0138 21       		.uleb128 0x21
 3756 0139 00       		.byte	0
 3757 013a 00       		.byte	0
 3758 013b 00       		.byte	0
 3759 013c 19       		.uleb128 0x19
 3760 013d 21       		.uleb128 0x21
 3761 013e 00       		.byte	0
 3762 013f 49       		.uleb128 0x49
 3763 0140 13       		.uleb128 0x13
 3764 0141 2F       		.uleb128 0x2f
 3765 0142 05       		.uleb128 0x5
 3766 0143 00       		.byte	0
 3767 0144 00       		.byte	0
 3768 0145 1A       		.uleb128 0x1a
 3769 0146 34       		.uleb128 0x34
 3770 0147 00       		.byte	0
 3771 0148 03       		.uleb128 0x3
 3772 0149 0E       		.uleb128 0xe
 3773 014a 3A       		.uleb128 0x3a
 3774 014b 0B       		.uleb128 0xb
 3775 014c 3B       		.uleb128 0x3b
 3776 014d 0B       		.uleb128 0xb
 3777 014e 39       		.uleb128 0x39
 3778 014f 0B       		.uleb128 0xb
 3779 0150 49       		.uleb128 0x49
 3780 0151 13       		.uleb128 0x13
 3781 0152 3F       		.uleb128 0x3f
ARM GAS  /tmp/ccXsMVKs.s 			page 68


 3782 0153 19       		.uleb128 0x19
 3783 0154 02       		.uleb128 0x2
 3784 0155 18       		.uleb128 0x18
 3785 0156 00       		.byte	0
 3786 0157 00       		.byte	0
 3787 0158 1B       		.uleb128 0x1b
 3788 0159 34       		.uleb128 0x34
 3789 015a 00       		.byte	0
 3790 015b 03       		.uleb128 0x3
 3791 015c 0E       		.uleb128 0xe
 3792 015d 3A       		.uleb128 0x3a
 3793 015e 0B       		.uleb128 0xb
 3794 015f 3B       		.uleb128 0x3b
 3795 0160 0B       		.uleb128 0xb
 3796 0161 39       		.uleb128 0x39
 3797 0162 0B       		.uleb128 0xb
 3798 0163 49       		.uleb128 0x49
 3799 0164 13       		.uleb128 0x13
 3800 0165 02       		.uleb128 0x2
 3801 0166 18       		.uleb128 0x18
 3802 0167 00       		.byte	0
 3803 0168 00       		.byte	0
 3804 0169 1C       		.uleb128 0x1c
 3805 016a 21       		.uleb128 0x21
 3806 016b 00       		.byte	0
 3807 016c 49       		.uleb128 0x49
 3808 016d 13       		.uleb128 0x13
 3809 016e 2F       		.uleb128 0x2f
 3810 016f 0B       		.uleb128 0xb
 3811 0170 00       		.byte	0
 3812 0171 00       		.byte	0
 3813 0172 1D       		.uleb128 0x1d
 3814 0173 34       		.uleb128 0x34
 3815 0174 00       		.byte	0
 3816 0175 47       		.uleb128 0x47
 3817 0176 13       		.uleb128 0x13
 3818 0177 3A       		.uleb128 0x3a
 3819 0178 0B       		.uleb128 0xb
 3820 0179 3B       		.uleb128 0x3b
 3821 017a 05       		.uleb128 0x5
 3822 017b 39       		.uleb128 0x39
 3823 017c 0B       		.uleb128 0xb
 3824 017d 49       		.uleb128 0x49
 3825 017e 13       		.uleb128 0x13
 3826 017f 02       		.uleb128 0x2
 3827 0180 18       		.uleb128 0x18
 3828 0181 00       		.byte	0
 3829 0182 00       		.byte	0
 3830 0183 1E       		.uleb128 0x1e
 3831 0184 2E       		.uleb128 0x2e
 3832 0185 01       		.byte	0x1
 3833 0186 03       		.uleb128 0x3
 3834 0187 0E       		.uleb128 0xe
 3835 0188 3A       		.uleb128 0x3a
 3836 0189 0B       		.uleb128 0xb
 3837 018a 3B       		.uleb128 0x3b
 3838 018b 0B       		.uleb128 0xb
ARM GAS  /tmp/ccXsMVKs.s 			page 69


 3839 018c 39       		.uleb128 0x39
 3840 018d 0B       		.uleb128 0xb
 3841 018e 27       		.uleb128 0x27
 3842 018f 19       		.uleb128 0x19
 3843 0190 11       		.uleb128 0x11
 3844 0191 01       		.uleb128 0x1
 3845 0192 12       		.uleb128 0x12
 3846 0193 06       		.uleb128 0x6
 3847 0194 40       		.uleb128 0x40
 3848 0195 18       		.uleb128 0x18
 3849 0196 9742     		.uleb128 0x2117
 3850 0198 19       		.uleb128 0x19
 3851 0199 01       		.uleb128 0x1
 3852 019a 13       		.uleb128 0x13
 3853 019b 00       		.byte	0
 3854 019c 00       		.byte	0
 3855 019d 1F       		.uleb128 0x1f
 3856 019e 34       		.uleb128 0x34
 3857 019f 00       		.byte	0
 3858 01a0 03       		.uleb128 0x3
 3859 01a1 08       		.uleb128 0x8
 3860 01a2 3A       		.uleb128 0x3a
 3861 01a3 0B       		.uleb128 0xb
 3862 01a4 3B       		.uleb128 0x3b
 3863 01a5 0B       		.uleb128 0xb
 3864 01a6 39       		.uleb128 0x39
 3865 01a7 0B       		.uleb128 0xb
 3866 01a8 49       		.uleb128 0x49
 3867 01a9 13       		.uleb128 0x13
 3868 01aa 02       		.uleb128 0x2
 3869 01ab 17       		.uleb128 0x17
 3870 01ac B742     		.uleb128 0x2137
 3871 01ae 17       		.uleb128 0x17
 3872 01af 00       		.byte	0
 3873 01b0 00       		.byte	0
 3874 01b1 20       		.uleb128 0x20
 3875 01b2 1D       		.uleb128 0x1d
 3876 01b3 01       		.byte	0x1
 3877 01b4 31       		.uleb128 0x31
 3878 01b5 13       		.uleb128 0x13
 3879 01b6 52       		.uleb128 0x52
 3880 01b7 01       		.uleb128 0x1
 3881 01b8 B842     		.uleb128 0x2138
 3882 01ba 0B       		.uleb128 0xb
 3883 01bb 11       		.uleb128 0x11
 3884 01bc 01       		.uleb128 0x1
 3885 01bd 12       		.uleb128 0x12
 3886 01be 06       		.uleb128 0x6
 3887 01bf 58       		.uleb128 0x58
 3888 01c0 0B       		.uleb128 0xb
 3889 01c1 59       		.uleb128 0x59
 3890 01c2 0B       		.uleb128 0xb
 3891 01c3 57       		.uleb128 0x57
 3892 01c4 0B       		.uleb128 0xb
 3893 01c5 01       		.uleb128 0x1
 3894 01c6 13       		.uleb128 0x13
 3895 01c7 00       		.byte	0
ARM GAS  /tmp/ccXsMVKs.s 			page 70


 3896 01c8 00       		.byte	0
 3897 01c9 21       		.uleb128 0x21
 3898 01ca 05       		.uleb128 0x5
 3899 01cb 00       		.byte	0
 3900 01cc 31       		.uleb128 0x31
 3901 01cd 13       		.uleb128 0x13
 3902 01ce 02       		.uleb128 0x2
 3903 01cf 17       		.uleb128 0x17
 3904 01d0 B742     		.uleb128 0x2137
 3905 01d2 17       		.uleb128 0x17
 3906 01d3 00       		.byte	0
 3907 01d4 00       		.byte	0
 3908 01d5 22       		.uleb128 0x22
 3909 01d6 898201   		.uleb128 0x4109
 3910 01d9 01       		.byte	0x1
 3911 01da 11       		.uleb128 0x11
 3912 01db 01       		.uleb128 0x1
 3913 01dc 31       		.uleb128 0x31
 3914 01dd 13       		.uleb128 0x13
 3915 01de 00       		.byte	0
 3916 01df 00       		.byte	0
 3917 01e0 23       		.uleb128 0x23
 3918 01e1 8A8201   		.uleb128 0x410a
 3919 01e4 00       		.byte	0
 3920 01e5 02       		.uleb128 0x2
 3921 01e6 18       		.uleb128 0x18
 3922 01e7 9142     		.uleb128 0x2111
 3923 01e9 18       		.uleb128 0x18
 3924 01ea 00       		.byte	0
 3925 01eb 00       		.byte	0
 3926 01ec 24       		.uleb128 0x24
 3927 01ed 1D       		.uleb128 0x1d
 3928 01ee 01       		.byte	0x1
 3929 01ef 31       		.uleb128 0x31
 3930 01f0 13       		.uleb128 0x13
 3931 01f1 52       		.uleb128 0x52
 3932 01f2 01       		.uleb128 0x1
 3933 01f3 B842     		.uleb128 0x2138
 3934 01f5 0B       		.uleb128 0xb
 3935 01f6 55       		.uleb128 0x55
 3936 01f7 17       		.uleb128 0x17
 3937 01f8 58       		.uleb128 0x58
 3938 01f9 0B       		.uleb128 0xb
 3939 01fa 59       		.uleb128 0x59
 3940 01fb 0B       		.uleb128 0xb
 3941 01fc 57       		.uleb128 0x57
 3942 01fd 0B       		.uleb128 0xb
 3943 01fe 01       		.uleb128 0x1
 3944 01ff 13       		.uleb128 0x13
 3945 0200 00       		.byte	0
 3946 0201 00       		.byte	0
 3947 0202 25       		.uleb128 0x25
 3948 0203 898201   		.uleb128 0x4109
 3949 0206 01       		.byte	0x1
 3950 0207 11       		.uleb128 0x11
 3951 0208 01       		.uleb128 0x1
 3952 0209 31       		.uleb128 0x31
ARM GAS  /tmp/ccXsMVKs.s 			page 71


 3953 020a 13       		.uleb128 0x13
 3954 020b 01       		.uleb128 0x1
 3955 020c 13       		.uleb128 0x13
 3956 020d 00       		.byte	0
 3957 020e 00       		.byte	0
 3958 020f 26       		.uleb128 0x26
 3959 0210 34       		.uleb128 0x34
 3960 0211 00       		.byte	0
 3961 0212 03       		.uleb128 0x3
 3962 0213 08       		.uleb128 0x8
 3963 0214 3A       		.uleb128 0x3a
 3964 0215 0B       		.uleb128 0xb
 3965 0216 3B       		.uleb128 0x3b
 3966 0217 0B       		.uleb128 0xb
 3967 0218 39       		.uleb128 0x39
 3968 0219 0B       		.uleb128 0xb
 3969 021a 49       		.uleb128 0x49
 3970 021b 13       		.uleb128 0x13
 3971 021c 02       		.uleb128 0x2
 3972 021d 18       		.uleb128 0x18
 3973 021e 00       		.byte	0
 3974 021f 00       		.byte	0
 3975 0220 27       		.uleb128 0x27
 3976 0221 0B       		.uleb128 0xb
 3977 0222 01       		.byte	0x1
 3978 0223 55       		.uleb128 0x55
 3979 0224 17       		.uleb128 0x17
 3980 0225 01       		.uleb128 0x1
 3981 0226 13       		.uleb128 0x13
 3982 0227 00       		.byte	0
 3983 0228 00       		.byte	0
 3984 0229 28       		.uleb128 0x28
 3985 022a 898201   		.uleb128 0x4109
 3986 022d 00       		.byte	0
 3987 022e 11       		.uleb128 0x11
 3988 022f 01       		.uleb128 0x1
 3989 0230 31       		.uleb128 0x31
 3990 0231 13       		.uleb128 0x13
 3991 0232 00       		.byte	0
 3992 0233 00       		.byte	0
 3993 0234 29       		.uleb128 0x29
 3994 0235 898201   		.uleb128 0x4109
 3995 0238 01       		.byte	0x1
 3996 0239 11       		.uleb128 0x11
 3997 023a 01       		.uleb128 0x1
 3998 023b 9542     		.uleb128 0x2115
 3999 023d 19       		.uleb128 0x19
 4000 023e 31       		.uleb128 0x31
 4001 023f 13       		.uleb128 0x13
 4002 0240 00       		.byte	0
 4003 0241 00       		.byte	0
 4004 0242 2A       		.uleb128 0x2a
 4005 0243 2E       		.uleb128 0x2e
 4006 0244 01       		.byte	0x1
 4007 0245 03       		.uleb128 0x3
 4008 0246 0E       		.uleb128 0xe
 4009 0247 3A       		.uleb128 0x3a
ARM GAS  /tmp/ccXsMVKs.s 			page 72


 4010 0248 0B       		.uleb128 0xb
 4011 0249 3B       		.uleb128 0x3b
 4012 024a 0B       		.uleb128 0xb
 4013 024b 39       		.uleb128 0x39
 4014 024c 0B       		.uleb128 0xb
 4015 024d 27       		.uleb128 0x27
 4016 024e 19       		.uleb128 0x19
 4017 024f 49       		.uleb128 0x49
 4018 0250 13       		.uleb128 0x13
 4019 0251 20       		.uleb128 0x20
 4020 0252 0B       		.uleb128 0xb
 4021 0253 01       		.uleb128 0x1
 4022 0254 13       		.uleb128 0x13
 4023 0255 00       		.byte	0
 4024 0256 00       		.byte	0
 4025 0257 2B       		.uleb128 0x2b
 4026 0258 05       		.uleb128 0x5
 4027 0259 00       		.byte	0
 4028 025a 03       		.uleb128 0x3
 4029 025b 0E       		.uleb128 0xe
 4030 025c 3A       		.uleb128 0x3a
 4031 025d 0B       		.uleb128 0xb
 4032 025e 3B       		.uleb128 0x3b
 4033 025f 0B       		.uleb128 0xb
 4034 0260 39       		.uleb128 0x39
 4035 0261 0B       		.uleb128 0xb
 4036 0262 49       		.uleb128 0x49
 4037 0263 13       		.uleb128 0x13
 4038 0264 00       		.byte	0
 4039 0265 00       		.byte	0
 4040 0266 2C       		.uleb128 0x2c
 4041 0267 2E       		.uleb128 0x2e
 4042 0268 00       		.byte	0
 4043 0269 3F       		.uleb128 0x3f
 4044 026a 19       		.uleb128 0x19
 4045 026b 3C       		.uleb128 0x3c
 4046 026c 19       		.uleb128 0x19
 4047 026d 6E       		.uleb128 0x6e
 4048 026e 0E       		.uleb128 0xe
 4049 026f 03       		.uleb128 0x3
 4050 0270 0E       		.uleb128 0xe
 4051 0271 3A       		.uleb128 0x3a
 4052 0272 0B       		.uleb128 0xb
 4053 0273 3B       		.uleb128 0x3b
 4054 0274 0B       		.uleb128 0xb
 4055 0275 39       		.uleb128 0x39
 4056 0276 0B       		.uleb128 0xb
 4057 0277 00       		.byte	0
 4058 0278 00       		.byte	0
 4059 0279 00       		.byte	0
 4060              		.section	.debug_loc,"",%progbits
 4061              	.Ldebug_loc0:
 4062              	.LVUS0:
 4063 0000 00       		.uleb128 .LVU17
 4064 0001 00       		.uleb128 .LVU19
 4065 0002 00       		.uleb128 .LVU19
 4066 0003 00       		.uleb128 .LVU30
ARM GAS  /tmp/ccXsMVKs.s 			page 73


 4067 0004 00       		.uleb128 .LVU30
 4068 0005 00       		.uleb128 .LVU32
 4069              	.LLST0:
 4070 0006 20000000 		.4byte	.LVL2
 4071 000a 22000000 		.4byte	.LVL3
 4072 000e 0100     		.2byte	0x1
 4073 0010 50       		.byte	0x50
 4074 0011 22000000 		.4byte	.LVL3
 4075 0015 4A000000 		.4byte	.LVL8
 4076 0019 0100     		.2byte	0x1
 4077 001b 55       		.byte	0x55
 4078 001c 4A000000 		.4byte	.LVL8
 4079 0020 4E000000 		.4byte	.LVL9
 4080 0024 0100     		.2byte	0x1
 4081 0026 50       		.byte	0x50
 4082 0027 00000000 		.4byte	0
 4083 002b 00000000 		.4byte	0
 4084              	.LVUS1:
 4085 002f 01       		.uleb128 .LVU13
 4086 0030 00       		.uleb128 .LVU16
 4087              	.LLST1:
 4088 0031 14000000 		.4byte	.LVL0
 4089 0035 1E000000 		.4byte	.LVL1
 4090 0039 0200     		.2byte	0x2
 4091 003b 40       		.byte	0x40
 4092 003c 9F       		.byte	0x9f
 4093 003d 00000000 		.4byte	0
 4094 0041 00000000 		.4byte	0
 4095              	.LVUS2:
 4096 0045 01       		.uleb128 .LVU13
 4097 0046 00       		.uleb128 .LVU16
 4098              	.LLST2:
 4099 0047 14000000 		.4byte	.LVL0
 4100 004b 1E000000 		.4byte	.LVL1
 4101 004f 0600     		.2byte	0x6
 4102 0051 03       		.byte	0x3
 4103 0052 00000000 		.4byte	test_heap
 4104 0056 9F       		.byte	0x9f
 4105 0057 00000000 		.4byte	0
 4106 005b 00000000 		.4byte	0
 4107              	.LVUS3:
 4108 005f 01       		.uleb128 .LVU27
 4109 0060 00       		.uleb128 .LVU30
 4110              	.LLST3:
 4111 0061 46000000 		.4byte	.LVL7
 4112 0065 4A000000 		.4byte	.LVL8
 4113 0069 0400     		.2byte	0x4
 4114 006b 0B       		.byte	0xb
 4115 006c 00FF     		.2byte	0xff00
 4116 006e 9F       		.byte	0x9f
 4117 006f 00000000 		.4byte	0
 4118 0073 00000000 		.4byte	0
 4119              	.LVUS4:
 4120 0077 01       		.uleb128 .LVU27
 4121 0078 00       		.uleb128 .LVU30
 4122              	.LLST4:
 4123 0079 46000000 		.4byte	.LVL7
ARM GAS  /tmp/ccXsMVKs.s 			page 74


 4124 007d 4A000000 		.4byte	.LVL8
 4125 0081 0200     		.2byte	0x2
 4126 0083 30       		.byte	0x30
 4127 0084 9F       		.byte	0x9f
 4128 0085 00000000 		.4byte	0
 4129 0089 00000000 		.4byte	0
 4130              	.LVUS5:
 4131 008d 00       		.uleb128 .LVU59
 4132 008e 00       		.uleb128 .LVU61
 4133 008f 00       		.uleb128 .LVU73
 4134 0090 00       		.uleb128 .LVU75
 4135 0091 00       		.uleb128 .LVU75
 4136 0092 00       		.uleb128 .LVU91
 4137 0093 00       		.uleb128 .LVU100
 4138 0094 00       		.uleb128 .LVU105
 4139 0095 00       		.uleb128 .LVU105
 4140 0096 00       		.uleb128 .LVU125
 4141 0097 00       		.uleb128 .LVU125
 4142 0098 00       		.uleb128 .LVU130
 4143 0099 00       		.uleb128 .LVU130
 4144 009a 00       		.uleb128 .LVU150
 4145 009b 00       		.uleb128 .LVU150
 4146 009c 00       		.uleb128 .LVU155
 4147 009d 00       		.uleb128 .LVU155
 4148 009e 00       		.uleb128 .LVU158
 4149 009f 00       		.uleb128 .LVU158
 4150 00a0 00       		.uleb128 .LVU160
 4151 00a1 00       		.uleb128 .LVU168
 4152 00a2 00       		.uleb128 .LVU170
 4153 00a3 00       		.uleb128 .LVU170
 4154 00a4 00       		.uleb128 .LVU186
 4155 00a5 00       		.uleb128 .LVU186
 4156 00a6 00       		.uleb128 .LVU191
 4157 00a7 00       		.uleb128 .LVU191
 4158 00a8 00       		.uleb128 .LVU200
 4159 00a9 00       		.uleb128 .LVU200
 4160 00aa 00       		.uleb128 .LVU202
 4161 00ab 00       		.uleb128 .LVU215
 4162 00ac 00       		.uleb128 .LVU217
 4163 00ad 00       		.uleb128 .LVU217
 4164 00ae 00       		.uleb128 .LVU231
 4165 00af 00       		.uleb128 .LVU231
 4166 00b0 00       		.uleb128 0
 4167              	.LLST5:
 4168 00b1 3E000000 		.4byte	.LVL14
 4169 00b5 42000000 		.4byte	.LVL15
 4170 00b9 0100     		.2byte	0x1
 4171 00bb 50       		.byte	0x50
 4172 00bc 5E000000 		.4byte	.LVL19
 4173 00c0 60000000 		.4byte	.LVL20
 4174 00c4 0100     		.2byte	0x1
 4175 00c6 50       		.byte	0x50
 4176 00c7 60000000 		.4byte	.LVL20
 4177 00cb C2000000 		.4byte	.LVL27
 4178 00cf 0100     		.2byte	0x1
 4179 00d1 55       		.byte	0x55
 4180 00d2 DA000000 		.4byte	.LVL30
ARM GAS  /tmp/ccXsMVKs.s 			page 75


 4181 00d6 DC000000 		.4byte	.LVL31
 4182 00da 0100     		.2byte	0x1
 4183 00dc 50       		.byte	0x50
 4184 00dd DC000000 		.4byte	.LVL31
 4185 00e1 32010000 		.4byte	.LVL44
 4186 00e5 0100     		.2byte	0x1
 4187 00e7 58       		.byte	0x58
 4188 00e8 32010000 		.4byte	.LVL44
 4189 00ec 36010000 		.4byte	.LVL45
 4190 00f0 0100     		.2byte	0x1
 4191 00f2 50       		.byte	0x50
 4192 00f3 36010000 		.4byte	.LVL45
 4193 00f7 8A010000 		.4byte	.LVL57
 4194 00fb 0100     		.2byte	0x1
 4195 00fd 56       		.byte	0x56
 4196 00fe 8A010000 		.4byte	.LVL57
 4197 0102 8E010000 		.4byte	.LVL58
 4198 0106 0100     		.2byte	0x1
 4199 0108 50       		.byte	0x50
 4200 0109 8E010000 		.4byte	.LVL58
 4201 010d 98010000 		.4byte	.LVL60
 4202 0111 0100     		.2byte	0x1
 4203 0113 56       		.byte	0x56
 4204 0114 98010000 		.4byte	.LVL60
 4205 0118 9B010000 		.4byte	.LVL61-1
 4206 011c 0100     		.2byte	0x1
 4207 011e 50       		.byte	0x50
 4208 011f CC010000 		.4byte	.LVL66
 4209 0123 D0010000 		.4byte	.LVL67
 4210 0127 0100     		.2byte	0x1
 4211 0129 50       		.byte	0x50
 4212 012a D0010000 		.4byte	.LVL67
 4213 012e 42020000 		.4byte	.LVL78
 4214 0132 0100     		.2byte	0x1
 4215 0134 57       		.byte	0x57
 4216 0135 42020000 		.4byte	.LVL78
 4217 0139 44020000 		.4byte	.LVL79
 4218 013d 0100     		.2byte	0x1
 4219 013f 50       		.byte	0x50
 4220 0140 44020000 		.4byte	.LVL79
 4221 0144 7E020000 		.4byte	.LVL86
 4222 0148 0100     		.2byte	0x1
 4223 014a 58       		.byte	0x58
 4224 014b 7E020000 		.4byte	.LVL86
 4225 014f 81020000 		.4byte	.LVL87-1
 4226 0153 0100     		.2byte	0x1
 4227 0155 50       		.byte	0x50
 4228 0156 BE020000 		.4byte	.LVL93
 4229 015a C0020000 		.4byte	.LVL94
 4230 015e 0100     		.2byte	0x1
 4231 0160 50       		.byte	0x50
 4232 0161 C0020000 		.4byte	.LVL94
 4233 0165 26030000 		.4byte	.LVL102
 4234 0169 0100     		.2byte	0x1
 4235 016b 56       		.byte	0x56
 4236 016c 26030000 		.4byte	.LVL102
 4237 0170 54030000 		.4byte	.LFE278
ARM GAS  /tmp/ccXsMVKs.s 			page 76


 4238 0174 0100     		.2byte	0x1
 4239 0176 57       		.byte	0x57
 4240 0177 00000000 		.4byte	0
 4241 017b 00000000 		.4byte	0
 4242              	.LVUS6:
 4243 017f 00       		.uleb128 .LVU106
 4244 0180 00       		.uleb128 .LVU111
 4245 0181 00       		.uleb128 .LVU111
 4246 0182 00       		.uleb128 .LVU131
 4247 0183 00       		.uleb128 .LVU131
 4248 0184 00       		.uleb128 .LVU136
 4249 0185 00       		.uleb128 .LVU136
 4250 0186 00       		.uleb128 .LVU158
 4251 0187 00       		.uleb128 .LVU158
 4252 0188 00       		.uleb128 .LVU160
 4253 0189 00       		.uleb128 .LVU160
 4254 018a 00       		.uleb128 .LVU177
 4255 018b 00       		.uleb128 .LVU193
 4256 018c 00       		.uleb128 .LVU231
 4257 018d 00       		.uleb128 .LVU231
 4258 018e 00       		.uleb128 0
 4259              	.LLST6:
 4260 018f E6000000 		.4byte	.LVL33
 4261 0193 E8000000 		.4byte	.LVL34
 4262 0197 0100     		.2byte	0x1
 4263 0199 50       		.byte	0x50
 4264 019a E8000000 		.4byte	.LVL34
 4265 019e 40010000 		.4byte	.LVL47
 4266 01a2 0100     		.2byte	0x1
 4267 01a4 57       		.byte	0x57
 4268 01a5 40010000 		.4byte	.LVL47
 4269 01a9 42010000 		.4byte	.LVL48
 4270 01ad 0100     		.2byte	0x1
 4271 01af 50       		.byte	0x50
 4272 01b0 42010000 		.4byte	.LVL48
 4273 01b4 98010000 		.4byte	.LVL60
 4274 01b8 0100     		.2byte	0x1
 4275 01ba 57       		.byte	0x57
 4276 01bb 98010000 		.4byte	.LVL60
 4277 01bf 9B010000 		.4byte	.LVL61-1
 4278 01c3 0100     		.2byte	0x1
 4279 01c5 53       		.byte	0x53
 4280 01c6 9B010000 		.4byte	.LVL61-1
 4281 01ca 28020000 		.4byte	.LVL75
 4282 01ce 0100     		.2byte	0x1
 4283 01d0 56       		.byte	0x56
 4284 01d1 4C020000 		.4byte	.LVL81
 4285 01d5 26030000 		.4byte	.LVL102
 4286 01d9 0100     		.2byte	0x1
 4287 01db 57       		.byte	0x57
 4288 01dc 26030000 		.4byte	.LVL102
 4289 01e0 54030000 		.4byte	.LFE278
 4290 01e4 0100     		.2byte	0x1
 4291 01e6 56       		.byte	0x56
 4292 01e7 00000000 		.4byte	0
 4293 01eb 00000000 		.4byte	0
 4294              	.LVUS7:
ARM GAS  /tmp/ccXsMVKs.s 			page 77


 4295 01ef 00       		.uleb128 .LVU113
 4296 01f0 00       		.uleb128 .LVU125
 4297 01f1 00       		.uleb128 .LVU137
 4298 01f2 00       		.uleb128 .LVU139
 4299              	.LLST7:
 4300 01f3 F0000000 		.4byte	.LVL36
 4301 01f7 32010000 		.4byte	.LVL44
 4302 01fb 0100     		.2byte	0x1
 4303 01fd 56       		.byte	0x56
 4304 01fe 46010000 		.4byte	.LVL49
 4305 0202 49010000 		.4byte	.LVL50-1
 4306 0206 0100     		.2byte	0x1
 4307 0208 50       		.byte	0x50
 4308 0209 00000000 		.4byte	0
 4309 020d 00000000 		.4byte	0
 4310              	.LVUS8:
 4311 0211 01       		.uleb128 .LVU56
 4312 0212 00       		.uleb128 .LVU59
 4313              	.LLST8:
 4314 0213 38000000 		.4byte	.LVL13
 4315 0217 3E000000 		.4byte	.LVL14
 4316 021b 0400     		.2byte	0x4
 4317 021d 0A       		.byte	0xa
 4318 021e D00C     		.2byte	0xcd0
 4319 0220 9F       		.byte	0x9f
 4320 0221 00000000 		.4byte	0
 4321 0225 00000000 		.4byte	0
 4322              	.LVUS9:
 4323 0229 01       		.uleb128 .LVU56
 4324 022a 00       		.uleb128 .LVU59
 4325              	.LLST9:
 4326 022b 38000000 		.4byte	.LVL13
 4327 022f 3E000000 		.4byte	.LVL14
 4328 0233 0600     		.2byte	0x6
 4329 0235 03       		.byte	0x3
 4330 0236 00000000 		.4byte	test_heap
 4331 023a 9F       		.byte	0x9f
 4332 023b 00000000 		.4byte	0
 4333 023f 00000000 		.4byte	0
 4334              	.LVUS10:
 4335 0243 01       		.uleb128 .LVU69
 4336 0244 00       		.uleb128 .LVU72
 4337              	.LLST10:
 4338 0245 56000000 		.4byte	.LVL17
 4339 0249 5C000000 		.4byte	.LVL18
 4340 024d 0200     		.2byte	0x2
 4341 024f 40       		.byte	0x40
 4342 0250 9F       		.byte	0x9f
 4343 0251 00000000 		.4byte	0
 4344 0255 00000000 		.4byte	0
 4345              	.LVUS11:
 4346 0259 01       		.uleb128 .LVU69
 4347 025a 00       		.uleb128 .LVU72
 4348              	.LLST11:
 4349 025b 56000000 		.4byte	.LVL17
 4350 025f 5C000000 		.4byte	.LVL18
 4351 0263 0600     		.2byte	0x6
ARM GAS  /tmp/ccXsMVKs.s 			page 78


 4352 0265 03       		.byte	0x3
 4353 0266 00000000 		.4byte	test_heap
 4354 026a 9F       		.byte	0x9f
 4355 026b 00000000 		.4byte	0
 4356 026f 00000000 		.4byte	0
 4357              	.LVUS12:
 4358 0273 01       		.uleb128 .LVU97
 4359 0274 00       		.uleb128 .LVU100
 4360              	.LLST12:
 4361 0275 D0000000 		.4byte	.LVL28
 4362 0279 DA000000 		.4byte	.LVL30
 4363 027d 0200     		.2byte	0x2
 4364 027f 40       		.byte	0x40
 4365 0280 9F       		.byte	0x9f
 4366 0281 00000000 		.4byte	0
 4367 0285 00000000 		.4byte	0
 4368              	.LVUS13:
 4369 0289 01       		.uleb128 .LVU97
 4370 028a 00       		.uleb128 .LVU100
 4371              	.LLST13:
 4372 028b D0000000 		.4byte	.LVL28
 4373 028f DA000000 		.4byte	.LVL30
 4374 0293 0600     		.2byte	0x6
 4375 0295 03       		.byte	0x3
 4376 0296 00000000 		.4byte	test_heap
 4377 029a 9F       		.byte	0x9f
 4378 029b 00000000 		.4byte	0
 4379 029f 00000000 		.4byte	0
 4380              	.LVUS14:
 4381 02a3 02       		.uleb128 .LVU102
 4382 02a4 00       		.uleb128 .LVU106
 4383              	.LLST14:
 4384 02a5 DA000000 		.4byte	.LVL30
 4385 02a9 E6000000 		.4byte	.LVL33
 4386 02ad 0200     		.2byte	0x2
 4387 02af 40       		.byte	0x40
 4388 02b0 9F       		.byte	0x9f
 4389 02b1 00000000 		.4byte	0
 4390 02b5 00000000 		.4byte	0
 4391              	.LVUS15:
 4392 02b9 02       		.uleb128 .LVU102
 4393 02ba 00       		.uleb128 .LVU106
 4394              	.LLST15:
 4395 02bb DA000000 		.4byte	.LVL30
 4396 02bf E6000000 		.4byte	.LVL33
 4397 02c3 0600     		.2byte	0x6
 4398 02c5 03       		.byte	0x3
 4399 02c6 00000000 		.4byte	test_heap
 4400 02ca 9F       		.byte	0x9f
 4401 02cb 00000000 		.4byte	0
 4402 02cf 00000000 		.4byte	0
 4403              	.LVUS16:
 4404 02d3 02       		.uleb128 .LVU108
 4405 02d4 00       		.uleb128 .LVU113
 4406              	.LLST16:
 4407 02d5 E6000000 		.4byte	.LVL33
 4408 02d9 F0000000 		.4byte	.LVL36
ARM GAS  /tmp/ccXsMVKs.s 			page 79


 4409 02dd 0200     		.2byte	0x2
 4410 02df 40       		.byte	0x40
 4411 02e0 9F       		.byte	0x9f
 4412 02e1 00000000 		.4byte	0
 4413 02e5 00000000 		.4byte	0
 4414              	.LVUS17:
 4415 02e9 02       		.uleb128 .LVU108
 4416 02ea 00       		.uleb128 .LVU113
 4417              	.LLST17:
 4418 02eb E6000000 		.4byte	.LVL33
 4419 02ef F0000000 		.4byte	.LVL36
 4420 02f3 0600     		.2byte	0x6
 4421 02f5 03       		.byte	0x3
 4422 02f6 00000000 		.4byte	test_heap
 4423 02fa 9F       		.byte	0x9f
 4424 02fb 00000000 		.4byte	0
 4425 02ff 00000000 		.4byte	0
 4426              	.LVUS18:
 4427 0303 01       		.uleb128 .LVU122
 4428 0304 00       		.uleb128 .LVU125
 4429              	.LLST18:
 4430 0305 2A010000 		.4byte	.LVL42
 4431 0309 32010000 		.4byte	.LVL44
 4432 030d 0200     		.2byte	0x2
 4433 030f 40       		.byte	0x40
 4434 0310 9F       		.byte	0x9f
 4435 0311 00000000 		.4byte	0
 4436 0315 00000000 		.4byte	0
 4437              	.LVUS19:
 4438 0319 01       		.uleb128 .LVU122
 4439 031a 00       		.uleb128 .LVU125
 4440              	.LLST19:
 4441 031b 2A010000 		.4byte	.LVL42
 4442 031f 32010000 		.4byte	.LVL44
 4443 0323 0600     		.2byte	0x6
 4444 0325 03       		.byte	0x3
 4445 0326 00000000 		.4byte	test_heap
 4446 032a 9F       		.byte	0x9f
 4447 032b 00000000 		.4byte	0
 4448 032f 00000000 		.4byte	0
 4449              	.LVUS20:
 4450 0333 02       		.uleb128 .LVU127
 4451 0334 00       		.uleb128 .LVU131
 4452              	.LLST20:
 4453 0335 32010000 		.4byte	.LVL44
 4454 0339 40010000 		.4byte	.LVL47
 4455 033d 0200     		.2byte	0x2
 4456 033f 40       		.byte	0x40
 4457 0340 9F       		.byte	0x9f
 4458 0341 00000000 		.4byte	0
 4459 0345 00000000 		.4byte	0
 4460              	.LVUS21:
 4461 0349 02       		.uleb128 .LVU127
 4462 034a 00       		.uleb128 .LVU131
 4463              	.LLST21:
 4464 034b 32010000 		.4byte	.LVL44
 4465 034f 40010000 		.4byte	.LVL47
ARM GAS  /tmp/ccXsMVKs.s 			page 80


 4466 0353 0600     		.2byte	0x6
 4467 0355 03       		.byte	0x3
 4468 0356 00000000 		.4byte	test_heap
 4469 035a 9F       		.byte	0x9f
 4470 035b 00000000 		.4byte	0
 4471 035f 00000000 		.4byte	0
 4472              	.LVUS22:
 4473 0363 02       		.uleb128 .LVU133
 4474 0364 00       		.uleb128 .LVU137
 4475              	.LLST22:
 4476 0365 40010000 		.4byte	.LVL47
 4477 0369 46010000 		.4byte	.LVL49
 4478 036d 0200     		.2byte	0x2
 4479 036f 40       		.byte	0x40
 4480 0370 9F       		.byte	0x9f
 4481 0371 00000000 		.4byte	0
 4482 0375 00000000 		.4byte	0
 4483              	.LVUS23:
 4484 0379 02       		.uleb128 .LVU133
 4485 037a 00       		.uleb128 .LVU137
 4486              	.LLST23:
 4487 037b 40010000 		.4byte	.LVL47
 4488 037f 46010000 		.4byte	.LVL49
 4489 0383 0600     		.2byte	0x6
 4490 0385 03       		.byte	0x3
 4491 0386 00000000 		.4byte	test_heap
 4492 038a 9F       		.byte	0x9f
 4493 038b 00000000 		.4byte	0
 4494 038f 00000000 		.4byte	0
 4495              	.LVUS24:
 4496 0393 01       		.uleb128 .LVU147
 4497 0394 00       		.uleb128 .LVU150
 4498              	.LLST24:
 4499 0395 82010000 		.4byte	.LVL55
 4500 0399 8A010000 		.4byte	.LVL57
 4501 039d 0200     		.2byte	0x2
 4502 039f 41       		.byte	0x41
 4503 03a0 9F       		.byte	0x9f
 4504 03a1 00000000 		.4byte	0
 4505 03a5 00000000 		.4byte	0
 4506              	.LVUS25:
 4507 03a9 01       		.uleb128 .LVU147
 4508 03aa 00       		.uleb128 .LVU150
 4509              	.LLST25:
 4510 03ab 82010000 		.4byte	.LVL55
 4511 03af 8A010000 		.4byte	.LVL57
 4512 03b3 0600     		.2byte	0x6
 4513 03b5 03       		.byte	0x3
 4514 03b6 00000000 		.4byte	test_heap
 4515 03ba 9F       		.byte	0x9f
 4516 03bb 00000000 		.4byte	0
 4517 03bf 00000000 		.4byte	0
 4518              	.LVUS26:
 4519 03c3 02       		.uleb128 .LVU152
 4520 03c4 00       		.uleb128 .LVU158
 4521              	.LLST26:
 4522 03c5 8A010000 		.4byte	.LVL57
ARM GAS  /tmp/ccXsMVKs.s 			page 81


 4523 03c9 98010000 		.4byte	.LVL60
 4524 03cd 0200     		.2byte	0x2
 4525 03cf 40       		.byte	0x40
 4526 03d0 9F       		.byte	0x9f
 4527 03d1 00000000 		.4byte	0
 4528 03d5 00000000 		.4byte	0
 4529              	.LVUS27:
 4530 03d9 02       		.uleb128 .LVU152
 4531 03da 00       		.uleb128 .LVU158
 4532              	.LLST27:
 4533 03db 8A010000 		.4byte	.LVL57
 4534 03df 98010000 		.4byte	.LVL60
 4535 03e3 0600     		.2byte	0x6
 4536 03e5 03       		.byte	0x3
 4537 03e6 00000000 		.4byte	test_heap
 4538 03ea 9F       		.byte	0x9f
 4539 03eb 00000000 		.4byte	0
 4540 03ef 00000000 		.4byte	0
 4541              	.LVUS28:
 4542 03f3 02       		.uleb128 .LVU163
 4543 03f4 00       		.uleb128 .LVU168
 4544              	.LLST28:
 4545 03f5 BE010000 		.4byte	.LVL64
 4546 03f9 CC010000 		.4byte	.LVL66
 4547 03fd 0200     		.2byte	0x2
 4548 03ff 40       		.byte	0x40
 4549 0400 9F       		.byte	0x9f
 4550 0401 00000000 		.4byte	0
 4551 0405 00000000 		.4byte	0
 4552              	.LVUS29:
 4553 0409 02       		.uleb128 .LVU163
 4554 040a 00       		.uleb128 .LVU168
 4555              	.LLST29:
 4556 040b BE010000 		.4byte	.LVL64
 4557 040f CC010000 		.4byte	.LVL66
 4558 0413 0600     		.2byte	0x6
 4559 0415 03       		.byte	0x3
 4560 0416 00000000 		.4byte	test_heap
 4561 041a 9F       		.byte	0x9f
 4562 041b 00000000 		.4byte	0
 4563 041f 00000000 		.4byte	0
 4564              	.LVUS30:
 4565 0423 01       		.uleb128 .LVU183
 4566 0424 00       		.uleb128 .LVU186
 4567              	.LLST30:
 4568 0425 38020000 		.4byte	.LVL76
 4569 0429 42020000 		.4byte	.LVL78
 4570 042d 0200     		.2byte	0x2
 4571 042f 40       		.byte	0x40
 4572 0430 9F       		.byte	0x9f
 4573 0431 00000000 		.4byte	0
 4574 0435 00000000 		.4byte	0
 4575              	.LVUS31:
 4576 0439 01       		.uleb128 .LVU183
 4577 043a 00       		.uleb128 .LVU186
 4578              	.LLST31:
 4579 043b 38020000 		.4byte	.LVL76
ARM GAS  /tmp/ccXsMVKs.s 			page 82


 4580 043f 42020000 		.4byte	.LVL78
 4581 0443 0600     		.2byte	0x6
 4582 0445 03       		.byte	0x3
 4583 0446 00000000 		.4byte	test_heap
 4584 044a 9F       		.byte	0x9f
 4585 044b 00000000 		.4byte	0
 4586 044f 00000000 		.4byte	0
 4587              	.LVUS32:
 4588 0453 02       		.uleb128 .LVU188
 4589 0454 00       		.uleb128 .LVU193
 4590              	.LLST32:
 4591 0455 42020000 		.4byte	.LVL78
 4592 0459 4C020000 		.4byte	.LVL81
 4593 045d 0200     		.2byte	0x2
 4594 045f 40       		.byte	0x40
 4595 0460 9F       		.byte	0x9f
 4596 0461 00000000 		.4byte	0
 4597 0465 00000000 		.4byte	0
 4598              	.LVUS33:
 4599 0469 02       		.uleb128 .LVU188
 4600 046a 00       		.uleb128 .LVU193
 4601              	.LLST33:
 4602 046b 42020000 		.4byte	.LVL78
 4603 046f 4C020000 		.4byte	.LVL81
 4604 0473 0600     		.2byte	0x6
 4605 0475 03       		.byte	0x3
 4606 0476 00000000 		.4byte	test_heap
 4607 047a 9F       		.byte	0x9f
 4608 047b 00000000 		.4byte	0
 4609 047f 00000000 		.4byte	0
 4610              	.LVUS34:
 4611 0483 02       		.uleb128 .LVU197
 4612 0484 00       		.uleb128 .LVU200
 4613              	.LLST34:
 4614 0485 74020000 		.4byte	.LVL85
 4615 0489 7E020000 		.4byte	.LVL86
 4616 048d 0300     		.2byte	0x3
 4617 048f 08       		.byte	0x8
 4618 0490 20       		.byte	0x20
 4619 0491 9F       		.byte	0x9f
 4620 0492 00000000 		.4byte	0
 4621 0496 00000000 		.4byte	0
 4622              	.LVUS35:
 4623 049a 02       		.uleb128 .LVU197
 4624 049b 00       		.uleb128 .LVU200
 4625              	.LLST35:
 4626 049c 74020000 		.4byte	.LVL85
 4627 04a0 7E020000 		.4byte	.LVL86
 4628 04a4 0600     		.2byte	0x6
 4629 04a6 03       		.byte	0x3
 4630 04a7 00000000 		.4byte	test_heap
 4631 04ab 9F       		.byte	0x9f
 4632 04ac 00000000 		.4byte	0
 4633 04b0 00000000 		.4byte	0
 4634              	.LVUS36:
 4635 04b4 01       		.uleb128 .LVU211
 4636 04b5 00       		.uleb128 .LVU214
ARM GAS  /tmp/ccXsMVKs.s 			page 83


 4637              	.LLST36:
 4638 04b6 B2020000 		.4byte	.LVL91
 4639 04ba BB020000 		.4byte	.LVL92-1
 4640 04be 0200     		.2byte	0x2
 4641 04c0 7D       		.byte	0x7d
 4642 04c1 00       		.sleb128 0
 4643 04c2 00000000 		.4byte	0
 4644 04c6 00000000 		.4byte	0
 4645              	.LVUS37:
 4646 04ca 01       		.uleb128 .LVU211
 4647 04cb 00       		.uleb128 .LVU214
 4648              	.LLST37:
 4649 04cc B2020000 		.4byte	.LVL91
 4650 04d0 BC020000 		.4byte	.LVL92
 4651 04d4 0600     		.2byte	0x6
 4652 04d6 03       		.byte	0x3
 4653 04d7 00000000 		.4byte	test_heap
 4654 04db 9F       		.byte	0x9f
 4655 04dc 00000000 		.4byte	0
 4656 04e0 00000000 		.4byte	0
 4657              		.section	.debug_aranges,"",%progbits
 4658 0000 2C000000 		.4byte	0x2c
 4659 0004 0200     		.2byte	0x2
 4660 0006 00000000 		.4byte	.Ldebug_info0
 4661 000a 04       		.byte	0x4
 4662 000b 00       		.byte	0
 4663 000c 0000     		.2byte	0
 4664 000e 0000     		.2byte	0
 4665 0010 00000000 		.4byte	.LFB279
 4666 0014 6C000000 		.4byte	.LFE279-.LFB279
 4667 0018 00000000 		.4byte	.LFB278
 4668 001c 54030000 		.4byte	.LFE278-.LFB278
 4669 0020 00000000 		.4byte	.LFB277
 4670 0024 14000000 		.4byte	.LFE277-.LFB277
 4671 0028 00000000 		.4byte	0
 4672 002c 00000000 		.4byte	0
 4673              		.section	.debug_ranges,"",%progbits
 4674              	.Ldebug_ranges0:
 4675 0000 3C000000 		.4byte	.LBB39
 4676 0004 44000000 		.4byte	.LBE39
 4677 0008 46000000 		.4byte	.LBB42
 4678 000c 4A000000 		.4byte	.LBE42
 4679 0010 00000000 		.4byte	0
 4680 0014 00000000 		.4byte	0
 4681 0018 2E000000 		.4byte	.LBB43
 4682 001c 32000000 		.4byte	.LBE43
 4683 0020 34000000 		.4byte	.LBB47
 4684 0024 36000000 		.4byte	.LBE47
 4685 0028 38000000 		.4byte	.LBB48
 4686 002c 3E000000 		.4byte	.LBE48
 4687 0030 00000000 		.4byte	0
 4688 0034 00000000 		.4byte	0
 4689 0038 4E000000 		.4byte	.LBB49
 4690 003c 50000000 		.4byte	.LBE49
 4691 0040 52000000 		.4byte	.LBB53
 4692 0044 54000000 		.4byte	.LBE53
 4693 0048 56000000 		.4byte	.LBB54
ARM GAS  /tmp/ccXsMVKs.s 			page 84


 4694 004c 5E000000 		.4byte	.LBE54
 4695 0050 00000000 		.4byte	0
 4696 0054 00000000 		.4byte	0
 4697 0058 76000000 		.4byte	.LBB55
 4698 005c 7A000000 		.4byte	.LBE55
 4699 0060 7C000000 		.4byte	.LBB56
 4700 0064 C6000000 		.4byte	.LBE56
 4701 0068 00000000 		.4byte	0
 4702 006c 00000000 		.4byte	0
 4703 0070 C8000000 		.4byte	.LBB57
 4704 0074 CE000000 		.4byte	.LBE57
 4705 0078 D0000000 		.4byte	.LBB61
 4706 007c D4000000 		.4byte	.LBE61
 4707 0080 D8000000 		.4byte	.LBB66
 4708 0084 DA000000 		.4byte	.LBE66
 4709 0088 00000000 		.4byte	0
 4710 008c 00000000 		.4byte	0
 4711 0090 D4000000 		.4byte	.LBB62
 4712 0094 D8000000 		.4byte	.LBE62
 4713 0098 DA000000 		.4byte	.LBB67
 4714 009c E0000000 		.4byte	.LBE67
 4715 00a0 E4000000 		.4byte	.LBB71
 4716 00a4 E6000000 		.4byte	.LBE71
 4717 00a8 00000000 		.4byte	0
 4718 00ac 00000000 		.4byte	0
 4719 00b0 E0000000 		.4byte	.LBB68
 4720 00b4 E4000000 		.4byte	.LBE68
 4721 00b8 E6000000 		.4byte	.LBB72
 4722 00bc EE000000 		.4byte	.LBE72
 4723 00c0 00000000 		.4byte	0
 4724 00c4 00000000 		.4byte	0
 4725 00c8 22010000 		.4byte	.LBB73
 4726 00cc 28010000 		.4byte	.LBE73
 4727 00d0 2A010000 		.4byte	.LBB77
 4728 00d4 2E010000 		.4byte	.LBE77
 4729 00d8 30010000 		.4byte	.LBB82
 4730 00dc 32010000 		.4byte	.LBE82
 4731 00e0 00000000 		.4byte	0
 4732 00e4 00000000 		.4byte	0
 4733 00e8 2E010000 		.4byte	.LBB78
 4734 00ec 30010000 		.4byte	.LBE78
 4735 00f0 32010000 		.4byte	.LBB83
 4736 00f4 3A010000 		.4byte	.LBE83
 4737 00f8 3E010000 		.4byte	.LBB87
 4738 00fc 40010000 		.4byte	.LBE87
 4739 0100 00000000 		.4byte	0
 4740 0104 00000000 		.4byte	0
 4741 0108 3A010000 		.4byte	.LBB84
 4742 010c 3E010000 		.4byte	.LBE84
 4743 0110 40010000 		.4byte	.LBB88
 4744 0114 46010000 		.4byte	.LBE88
 4745 0118 00000000 		.4byte	0
 4746 011c 00000000 		.4byte	0
 4747 0120 7A010000 		.4byte	.LBB89
 4748 0124 80010000 		.4byte	.LBE89
 4749 0128 82010000 		.4byte	.LBB93
 4750 012c 86010000 		.4byte	.LBE93
ARM GAS  /tmp/ccXsMVKs.s 			page 85


 4751 0130 88010000 		.4byte	.LBB98
 4752 0134 8A010000 		.4byte	.LBE98
 4753 0138 00000000 		.4byte	0
 4754 013c 00000000 		.4byte	0
 4755 0140 86010000 		.4byte	.LBB94
 4756 0144 88010000 		.4byte	.LBE94
 4757 0148 8A010000 		.4byte	.LBB99
 4758 014c 94010000 		.4byte	.LBE99
 4759 0150 96010000 		.4byte	.LBB100
 4760 0154 98010000 		.4byte	.LBE100
 4761 0158 00000000 		.4byte	0
 4762 015c 00000000 		.4byte	0
 4763 0160 BE010000 		.4byte	.LBB101
 4764 0164 C8010000 		.4byte	.LBE101
 4765 0168 CA010000 		.4byte	.LBB104
 4766 016c CC010000 		.4byte	.LBE104
 4767 0170 00000000 		.4byte	0
 4768 0174 00000000 		.4byte	0
 4769 0178 30020000 		.4byte	.LBB105
 4770 017c 36020000 		.4byte	.LBE105
 4771 0180 38020000 		.4byte	.LBB109
 4772 0184 3C020000 		.4byte	.LBE109
 4773 0188 40020000 		.4byte	.LBB113
 4774 018c 42020000 		.4byte	.LBE113
 4775 0190 00000000 		.4byte	0
 4776 0194 00000000 		.4byte	0
 4777 0198 3C020000 		.4byte	.LBB110
 4778 019c 40020000 		.4byte	.LBE110
 4779 01a0 42020000 		.4byte	.LBB114
 4780 01a4 4A020000 		.4byte	.LBE114
 4781 01a8 00000000 		.4byte	0
 4782 01ac 00000000 		.4byte	0
 4783 01b0 00000000 		.4byte	.LFB279
 4784 01b4 6C000000 		.4byte	.LFE279
 4785 01b8 00000000 		.4byte	.LFB278
 4786 01bc 54030000 		.4byte	.LFE278
 4787 01c0 00000000 		.4byte	.LFB277
 4788 01c4 14000000 		.4byte	.LFE277
 4789 01c8 00000000 		.4byte	0
 4790 01cc 00000000 		.4byte	0
 4791              		.section	.debug_line,"",%progbits
 4792              	.Ldebug_line0:
 4793 0000 D6070000 		.section	.debug_str,"MS",%progbits,1
 4793      0300CA01 
 4793      00000201 
 4793      FB0E0D00 
 4793      01010101 
 4794              	.LASF86:
 4795 0000 746F7461 		.ascii	"total_size\000"
 4795      6C5F7369 
 4795      7A6500
 4796              	.LASF11:
 4797 000b 75696E74 		.ascii	"uint32_t\000"
 4797      33325F74 
 4797      00
 4798              	.LASF68:
 4799 0014 68656164 		.ascii	"header\000"
ARM GAS  /tmp/ccXsMVKs.s 			page 86


 4799      657200
 4800              	.LASF98:
 4801 001b 2E2E2F2E 		.ascii	"../../../test/rt/source/test/test_sequence_010.c\000"
 4801      2E2F2E2E 
 4801      2F746573 
 4801      742F7274 
 4801      2F736F75 
 4802              	.LASF34:
 4803 004c 6570656E 		.ascii	"epending\000"
 4803      64696E67 
 4803      00
 4804              	.LASF29:
 4805 0055 73746174 		.ascii	"state\000"
 4805      6500
 4806              	.LASF13:
 4807 005b 75696E74 		.ascii	"uint64_t\000"
 4807      36345F74 
 4807      00
 4808              	.LASF45:
 4809 0064 70726576 		.ascii	"prev\000"
 4809      00
 4810              	.LASF5:
 4811 0069 73697A65 		.ascii	"size_t\000"
 4811      5F7400
 4812              	.LASF94:
 4813 0070 5F746573 		.ascii	"_test_assert\000"
 4813      745F6173 
 4813      73657274 
 4813      00
 4814              	.LASF69:
 4815 007d 68656170 		.ascii	"heap_header_t\000"
 4815      5F686561 
 4815      6465725F 
 4815      7400
 4816              	.LASF14:
 4817 008b 6C6F6E67 		.ascii	"long long unsigned int\000"
 4817      206C6F6E 
 4817      6720756E 
 4817      7369676E 
 4817      65642069 
 4818              	.LASF2:
 4819 00a2 6C6F6E67 		.ascii	"long double\000"
 4819      20646F75 
 4819      626C6500 
 4820              	.LASF96:
 4821 00ae 63684865 		.ascii	"chHeapObjectInit\000"
 4821      61704F62 
 4821      6A656374 
 4821      496E6974 
 4821      00
 4822              	.LASF20:
 4823 00bf 6576656E 		.ascii	"eventmask_t\000"
 4823      746D6173 
 4823      6B5F7400 
 4824              	.LASF72:
 4825 00cb 75736564 		.ascii	"used\000"
 4825      00
ARM GAS  /tmp/ccXsMVKs.s 			page 87


 4826              	.LASF41:
 4827 00d0 63685F74 		.ascii	"ch_threads_list\000"
 4827      68726561 
 4827      64735F6C 
 4827      69737400 
 4828              	.LASF4:
 4829 00e0 73686F72 		.ascii	"short int\000"
 4829      7420696E 
 4829      7400
 4830              	.LASF90:
 4831 00ea 74657374 		.ascii	"test_010_001_setup\000"
 4831      5F303130 
 4831      5F303031 
 4831      5F736574 
 4831      757000
 4832              	.LASF46:
 4833 00fd 72656761 		.ascii	"regarm_t\000"
 4833      726D5F74 
 4833      00
 4834              	.LASF8:
 4835 0106 75696E74 		.ascii	"uint8_t\000"
 4835      385F7400 
 4836              	.LASF44:
 4837 010e 63685F74 		.ascii	"ch_threads_queue\000"
 4837      68726561 
 4837      64735F71 
 4837      75657565 
 4837      00
 4838              	.LASF74:
 4839 011f 68656170 		.ascii	"heap\000"
 4839      00
 4840              	.LASF71:
 4841 0124 66726565 		.ascii	"free\000"
 4841      00
 4842              	.LASF40:
 4843 0129 63685F74 		.ascii	"ch_thread\000"
 4843      68726561 
 4843      6400
 4844              	.LASF26:
 4845 0133 6F6C6465 		.ascii	"older\000"
 4845      7200
 4846              	.LASF28:
 4847 0139 77616261 		.ascii	"wabase\000"
 4847      736500
 4848              	.LASF93:
 4849 0140 63684865 		.ascii	"chHeapStatus\000"
 4849      61705374 
 4849      61747573 
 4849      00
 4850              	.LASF76:
 4851 014d 73657475 		.ascii	"setup\000"
 4851      7000
 4852              	.LASF15:
 4853 0153 746D6F64 		.ascii	"tmode_t\000"
 4853      655F7400 
 4854              	.LASF81:
 4855 015b 74657374 		.ascii	"test_sequence_010\000"
ARM GAS  /tmp/ccXsMVKs.s 			page 88


 4855      5F736571 
 4855      75656E63 
 4855      655F3031 
 4855      3000
 4856              	.LASF1:
 4857 016d 6C6F6E67 		.ascii	"long long int\000"
 4857      206C6F6E 
 4857      6720696E 
 4857      7400
 4858              	.LASF55:
 4859 017b 77747365 		.ascii	"wtsemp\000"
 4859      6D7000
 4860              	.LASF18:
 4861 0182 74707269 		.ascii	"tprio_t\000"
 4861      6F5F7400 
 4862              	.LASF7:
 4863 018a 6C6F6E67 		.ascii	"long int\000"
 4863      20696E74 
 4863      00
 4864              	.LASF99:
 4865 0193 2F686F6D 		.ascii	"/home/tfateba/nlab/ip/trunk/demos/STM32/RT-STM32F40"
 4865      652F7466 
 4865      61746562 
 4865      612F6E6C 
 4865      61622F69 
 4866 01c6 372D4449 		.ascii	"7-DISCOVERY-G++\000"
 4866      53434F56 
 4866      4552592D 
 4866      472B2B00 
 4867              	.LASF48:
 4868 01d6 706F7274 		.ascii	"port_context\000"
 4868      5F636F6E 
 4868      74657874 
 4868      00
 4869              	.LASF54:
 4870 01e3 73656E74 		.ascii	"sentmsg\000"
 4870      6D736700 
 4871              	.LASF22:
 4872 01eb 74687265 		.ascii	"thread_t\000"
 4872      61645F74 
 4872      00
 4873              	.LASF33:
 4874 01f4 6D736771 		.ascii	"msgqueue\000"
 4874      75657565 
 4874      00
 4875              	.LASF77:
 4876 01fd 74656172 		.ascii	"teardown\000"
 4876      646F776E 
 4876      00
 4877              	.LASF25:
 4878 0206 6E657765 		.ascii	"newer\000"
 4878      7200
 4879              	.LASF23:
 4880 020c 71756575 		.ascii	"queue\000"
 4880      6500
 4881              	.LASF27:
 4882 0212 6E616D65 		.ascii	"name\000"
ARM GAS  /tmp/ccXsMVKs.s 			page 89


 4882      00
 4883              	.LASF82:
 4884 0217 74657374 		.ascii	"test_buffer\000"
 4884      5F627566 
 4884      66657200 
 4885              	.LASF9:
 4886 0223 756E7369 		.ascii	"unsigned char\000"
 4886      676E6564 
 4886      20636861 
 4886      7200
 4887              	.LASF60:
 4888 0231 6F776E65 		.ascii	"owner\000"
 4888      7200
 4889              	.LASF39:
 4890 0237 74687265 		.ascii	"threads_list_t\000"
 4890      6164735F 
 4890      6C697374 
 4890      5F7400
 4891              	.LASF57:
 4892 0246 65776D61 		.ascii	"ewmask\000"
 4892      736B00
 4893              	.LASF83:
 4894 024d 74657374 		.ascii	"test_heap\000"
 4894      5F686561 
 4894      7000
 4895              	.LASF3:
 4896 0257 7369676E 		.ascii	"signed char\000"
 4896      65642063 
 4896      68617200 
 4897              	.LASF30:
 4898 0263 666C6167 		.ascii	"flags\000"
 4898      7300
 4899              	.LASF59:
 4900 0269 63685F6D 		.ascii	"ch_mutex\000"
 4900      75746578 
 4900      00
 4901              	.LASF67:
 4902 0272 70726F76 		.ascii	"provider\000"
 4902      69646572 
 4902      00
 4903              	.LASF0:
 4904 027b 756E7369 		.ascii	"unsigned int\000"
 4904      676E6564 
 4904      20696E74 
 4904      00
 4905              	.LASF64:
 4906 0288 6D656D67 		.ascii	"memgetfunc_t\000"
 4906      65746675 
 4906      6E635F74 
 4906      00
 4907              	.LASF101:
 4908 0295 63684865 		.ascii	"chHeapAlloc\000"
 4908      6170416C 
 4908      6C6F6300 
 4909              	.LASF43:
 4910 02a1 74687265 		.ascii	"threads_queue_t\000"
 4910      6164735F 
ARM GAS  /tmp/ccXsMVKs.s 			page 90


 4910      71756575 
 4910      655F7400 
 4911              	.LASF84:
 4912 02b1 74657374 		.ascii	"test_010_001\000"
 4912      5F303130 
 4912      5F303031 
 4912      00
 4913              	.LASF85:
 4914 02be 74657374 		.ascii	"test_010_002\000"
 4914      5F303130 
 4914      5F303032 
 4914      00
 4915              	.LASF10:
 4916 02cb 73686F72 		.ascii	"short unsigned int\000"
 4916      7420756E 
 4916      7369676E 
 4916      65642069 
 4916      6E7400
 4917              	.LASF97:
 4918 02de 474E5520 		.ascii	"GNU C17 10.3.1 20210621 (release) -mcpu=cortex-m4 -"
 4918      43313720 
 4918      31302E33 
 4918      2E312032 
 4918      30323130 
 4919 0311 6D6E6F2D 		.ascii	"mno-thumb-interwork -mthumb -mfloat-abi=soft -march"
 4919      7468756D 
 4919      622D696E 
 4919      74657277 
 4919      6F726B20 
 4920 0344 3D61726D 		.ascii	"=armv7e-m -ggdb -O2 -fomit-frame-pointer -falign-fu"
 4920      7637652D 
 4920      6D202D67 
 4920      67646220 
 4920      2D4F3220 
 4921 0377 6E637469 		.ascii	"nctions=16 -ffunction-sections -fdata-sections -fno"
 4921      6F6E733D 
 4921      3136202D 
 4921      6666756E 
 4921      6374696F 
 4922 03aa 2D636F6D 		.ascii	"-common\000"
 4922      6D6F6E00 
 4923              	.LASF61:
 4924 03b2 63686172 		.ascii	"char\000"
 4924      00
 4925              	.LASF62:
 4926 03b7 6D757465 		.ascii	"mutex_t\000"
 4926      785F7400 
 4927              	.LASF6:
 4928 03bf 696E7433 		.ascii	"int32_t\000"
 4928      325F7400 
 4929              	.LASF21:
 4930 03c7 636E745F 		.ascii	"cnt_t\000"
 4930      7400
 4931              	.LASF36:
 4932 03cd 7265616C 		.ascii	"realprio\000"
 4932      7072696F 
 4932      00
ARM GAS  /tmp/ccXsMVKs.s 			page 91


 4933              	.LASF63:
 4934 03d6 5F426F6F 		.ascii	"_Bool\000"
 4934      6C00
 4935              	.LASF66:
 4936 03dc 6D656D6F 		.ascii	"memory_heap\000"
 4936      72795F68 
 4936      65617000 
 4937              	.LASF95:
 4938 03e8 63684865 		.ascii	"chHeapFree\000"
 4938      61704672 
 4938      656500
 4939              	.LASF75:
 4940 03f3 73697A65 		.ascii	"size\000"
 4940      00
 4941              	.LASF31:
 4942 03f8 72656673 		.ascii	"refs\000"
 4942      00
 4943              	.LASF80:
 4944 03fd 74657374 		.ascii	"test_step\000"
 4944      5F737465 
 4944      7000
 4945              	.LASF89:
 4946 0407 74657374 		.ascii	"test_010_001_execute\000"
 4946      5F303130 
 4946      5F303031 
 4946      5F657865 
 4946      63757465 
 4947              	.LASF12:
 4948 041c 6C6F6E67 		.ascii	"long unsigned int\000"
 4948      20756E73 
 4948      69676E65 
 4948      6420696E 
 4948      7400
 4949              	.LASF92:
 4950 042e 63684865 		.ascii	"chHeapAllocAligned\000"
 4950      6170416C 
 4950      6C6F6341 
 4950      6C69676E 
 4950      656400
 4951              	.LASF88:
 4952 0441 74657374 		.ascii	"test_010_002_execute\000"
 4952      5F303130 
 4952      5F303032 
 4952      5F657865 
 4952      63757465 
 4953              	.LASF53:
 4954 0456 77747472 		.ascii	"wttrp\000"
 4954      7000
 4955              	.LASF91:
 4956 045c 68656170 		.ascii	"heapp\000"
 4956      7000
 4957              	.LASF58:
 4958 0462 63685F73 		.ascii	"ch_semaphore\000"
 4958      656D6170 
 4958      686F7265 
 4958      00
 4959              	.LASF49:
ARM GAS  /tmp/ccXsMVKs.s 			page 92


 4960 046f 706F7274 		.ascii	"port_intctx\000"
 4960      5F696E74 
 4960      63747800 
 4961              	.LASF70:
 4962 047b 616C6967 		.ascii	"align\000"
 4962      6E00
 4963              	.LASF87:
 4964 0481 6C617267 		.ascii	"largest_size\000"
 4964      6573745F 
 4964      73697A65 
 4964      00
 4965              	.LASF38:
 4966 048e 74687265 		.ascii	"thread_reference_t\000"
 4966      61645F72 
 4966      65666572 
 4966      656E6365 
 4966      5F7400
 4967              	.LASF52:
 4968 04a1 77746F62 		.ascii	"wtobjp\000"
 4968      6A7000
 4969              	.LASF16:
 4970 04a8 74737461 		.ascii	"tstate_t\000"
 4970      74655F74 
 4970      00
 4971              	.LASF47:
 4972 04b1 73746B61 		.ascii	"stkalign_t\000"
 4972      6C69676E 
 4972      5F7400
 4973              	.LASF51:
 4974 04bc 65786974 		.ascii	"exitcode\000"
 4974      636F6465 
 4974      00
 4975              	.LASF37:
 4976 04c5 6D706F6F 		.ascii	"mpool\000"
 4976      6C00
 4977              	.LASF100:
 4978 04cb 68656170 		.ascii	"heap_header\000"
 4978      5F686561 
 4978      64657200 
 4979              	.LASF79:
 4980 04d7 74657374 		.ascii	"testcase_t\000"
 4980      63617365 
 4980      5F7400
 4981              	.LASF78:
 4982 04e2 65786563 		.ascii	"execute\000"
 4982      75746500 
 4983              	.LASF32:
 4984 04ea 77616974 		.ascii	"waiting\000"
 4984      696E6700 
 4985              	.LASF35:
 4986 04f2 6D74786C 		.ascii	"mtxlist\000"
 4986      69737400 
 4987              	.LASF73:
 4988 04fa 70616765 		.ascii	"pages\000"
 4988      7300
 4989              	.LASF50:
 4990 0500 7264796D 		.ascii	"rdymsg\000"
ARM GAS  /tmp/ccXsMVKs.s 			page 93


 4990      736700
 4991              	.LASF17:
 4992 0507 74726566 		.ascii	"trefs_t\000"
 4992      735F7400 
 4993              	.LASF24:
 4994 050f 7072696F 		.ascii	"prio\000"
 4994      00
 4995              	.LASF42:
 4996 0514 6E657874 		.ascii	"next\000"
 4996      00
 4997              	.LASF56:
 4998 0519 77746D74 		.ascii	"wtmtxp\000"
 4998      787000
 4999              	.LASF19:
 5000 0520 6D73675F 		.ascii	"msg_t\000"
 5000      7400
 5001              	.LASF65:
 5002 0526 6D656D6F 		.ascii	"memory_heap_t\000"
 5002      72795F68 
 5002      6561705F 
 5002      7400
 5003              		.ident	"GCC: (15:10.3-2021.07-4) 10.3.1 20210621 (release)"
ARM GAS  /tmp/ccXsMVKs.s 			page 94


DEFINED SYMBOLS
                            *ABS*:0000000000000000 test_sequence_010.c
     /tmp/ccXsMVKs.s:16     .rodata.test_010_002_execute.str1.4:0000000000000000 $d
     /tmp/ccXsMVKs.s:23     .text.test_010_002_execute:0000000000000000 $t
     /tmp/ccXsMVKs.s:31     .text.test_010_002_execute:0000000000000000 test_010_002_execute
     /tmp/ccXsMVKs.s:151    .text.test_010_002_execute:000000000000005c $d
     /tmp/ccXsMVKs.s:159    .rodata.test_010_001_execute.str1.4:0000000000000000 $d
     /tmp/ccXsMVKs.s:178    .text.test_010_001_execute:0000000000000000 $t
     /tmp/ccXsMVKs.s:185    .text.test_010_001_execute:0000000000000000 test_010_001_execute
     /tmp/ccXsMVKs.s:974    .text.test_010_001_execute:000000000000032c $d
     /tmp/ccXsMVKs.s:988    .text.test_010_001_setup:0000000000000000 $t
     /tmp/ccXsMVKs.s:995    .text.test_010_001_setup:0000000000000000 test_010_001_setup
     /tmp/ccXsMVKs.s:1011   .text.test_010_001_setup:000000000000000c $d
     /tmp/ccXsMVKs.s:1054   .rodata.test_sequence_010:0000000000000000 test_sequence_010
     /tmp/ccXsMVKs.s:1018   .rodata.str1.4:0000000000000000 $d
     /tmp/ccXsMVKs.s:1030   .bss.test_heap:0000000000000000 test_heap
     /tmp/ccXsMVKs.s:1026   .bss.test_heap:0000000000000000 $d
     /tmp/ccXsMVKs.s:1033   .rodata.test_010_001:0000000000000000 $d
     /tmp/ccXsMVKs.s:1036   .rodata.test_010_001:0000000000000000 test_010_001
     /tmp/ccXsMVKs.s:1042   .rodata.test_010_002:0000000000000000 $d
     /tmp/ccXsMVKs.s:1045   .rodata.test_010_002:0000000000000000 test_010_002
     /tmp/ccXsMVKs.s:1051   .rodata.test_sequence_010:0000000000000000 $d

UNDEFINED SYMBOLS
chHeapStatus
chHeapAllocAligned
_test_assert
chHeapFree
test_step
chHeapObjectInit
test_buffer
