ARM GAS  /tmp/cclVvPTE.s 			page 1


   1              		.cpu cortex-m4
   2              		.eabi_attribute 20, 1
   3              		.eabi_attribute 21, 1
   4              		.eabi_attribute 23, 3
   5              		.eabi_attribute 24, 1
   6              		.eabi_attribute 25, 1
   7              		.eabi_attribute 26, 1
   8              		.eabi_attribute 30, 2
   9              		.eabi_attribute 34, 1
  10              		.eabi_attribute 18, 4
  11              		.file	"test_sequence_011.c"
  12              		.text
  13              	.Ltext0:
  14              		.cfi_sections	.debug_frame
  15              		.section	.rodata.test_011_002_execute.str1.4,"aMS",%progbits,1
  16              		.align	2
  17              	.LC0:
  18 0000 64796E31 		.ascii	"dyn1\000"
  18      00
  19 0005 000000   		.align	2
  20              	.LC1:
  21 0008 4100     		.ascii	"A\000"
  22 000a 0000     		.align	2
  23              	.LC2:
  24 000c 64796E32 		.ascii	"dyn2\000"
  24      00
  25 0011 000000   		.align	2
  26              	.LC3:
  27 0014 4200     		.ascii	"B\000"
  28 0016 0000     		.align	2
  29              	.LC4:
  30 0018 64796E33 		.ascii	"dyn3\000"
  30      00
  31 001d 000000   		.align	2
  32              	.LC5:
  33 0020 4300     		.ascii	"C\000"
  34 0022 0000     		.align	2
  35              	.LC6:
  36 0024 64796E34 		.ascii	"dyn4\000"
  36      00
  37 0029 000000   		.align	2
  38              	.LC7:
  39 002c 4400     		.ascii	"D\000"
  40 002e 0000     		.align	2
  41              	.LC8:
  42 0030 64796E35 		.ascii	"dyn5\000"
  42      00
  43 0035 000000   		.align	2
  44              	.LC9:
  45 0038 4500     		.ascii	"E\000"
  46 003a 0000     		.align	2
  47              	.LC10:
  48 003c 74687265 		.ascii	"thread creation failed\000"
  48      61642063 
  48      72656174 
  48      696F6E20 
  48      6661696C 
ARM GAS  /tmp/cclVvPTE.s 			page 2


  49 0053 00       		.align	2
  50              	.LC11:
  51 0054 74687265 		.ascii	"thread creation not failed\000"
  51      61642063 
  51      72656174 
  51      696F6E20 
  51      6E6F7420 
  52 006f 00       		.align	2
  53              	.LC12:
  54 0070 696E7661 		.ascii	"invalid sequence\000"
  54      6C696420 
  54      73657175 
  54      656E6365 
  54      00
  55 0081 000000   		.align	2
  56              	.LC13:
  57 0084 41424344 		.ascii	"ABCD\000"
  57      00
  58 0089 000000   		.align	2
  59              	.LC14:
  60 008c 706F6F6C 		.ascii	"pool list empty\000"
  60      206C6973 
  60      7420656D 
  60      70747900 
  61              		.align	2
  62              	.LC15:
  63 009c 706F6F6C 		.ascii	"pool list not empty\000"
  63      206C6973 
  63      74206E6F 
  63      7420656D 
  63      70747900 
  64              		.section	.text.test_011_002_execute,"ax",%progbits
  65              		.align	1
  66              		.p2align 4,,15
  67              		.arch armv7e-m
  68              		.syntax unified
  69              		.thumb
  70              		.thumb_func
  71              		.fpu softvfp
  72              		.type	test_011_002_execute, %function
  73              	test_011_002_execute:
  74              	.LFB281:
  75              		.file 1 "../../../test/rt/source/test/test_sequence_011.c"
  76              		.loc 1 203 40 view -0
  77              		.cfi_startproc
  78              		@ args = 0, pretend = 0, frame = 0
  79              		@ frame_needed = 0, uses_anonymous_args = 0
  80              		.loc 1 204 3 view .LVU1
  81              		.loc 1 205 3 view .LVU2
  82              		.loc 1 208 3 view .LVU3
  83              		.loc 1 203 40 is_stmt 0 view .LVU4
  84 0000 F0B5     		push	{r4, r5, r6, r7, lr}
  85              		.cfi_def_cfa_offset 20
  86              		.cfi_offset 4, -20
  87              		.cfi_offset 5, -16
  88              		.cfi_offset 6, -12
  89              		.cfi_offset 7, -8
ARM GAS  /tmp/cclVvPTE.s 			page 3


  90              		.cfi_offset 14, -4
  91              		.loc 1 208 3 view .LVU5
  92 0002 444D     		ldr	r5, .L16
  93 0004 444C     		ldr	r4, .L16+4
  94              		.loc 1 211 7 view .LVU6
  95 0006 454F     		ldr	r7, .L16+8
  96              		.loc 1 208 3 view .LVU7
  97 0008 0123     		movs	r3, #1
  98              		.loc 1 203 40 view .LVU8
  99 000a 83B0     		sub	sp, sp, #12
 100              		.cfi_def_cfa_offset 32
 101              		.loc 1 208 3 view .LVU9
 102 000c 2B60     		str	r3, [r5]
 103              		.loc 1 210 5 is_stmt 1 view .LVU10
 104              	.LVL0:
 105              		.loc 1 210 17 view .LVU11
 106 000e 04F11006 		add	r6, r4, #16
 107              	.LVL1:
 108              	.L2:
 109              		.loc 1 211 7 discriminator 3 view .LVU12
 110 0012 54F8041B 		ldr	r1, [r4], #4
 111 0016 3846     		mov	r0, r7
 112 0018 FFF7FEFF 		bl	chPoolFree
 113              	.LVL2:
 114              		.loc 1 210 24 discriminator 3 view .LVU13
 115              		.loc 1 210 17 discriminator 3 view .LVU14
 116              		.loc 1 210 5 is_stmt 0 discriminator 3 view .LVU15
 117 001c A642     		cmp	r6, r4
 118 001e F8D1     		bne	.L2
 119              		.loc 1 215 3 is_stmt 1 view .LVU16
 120              		.loc 1 217 5 view .LVU17
 121              	.LBB12:
 122              	.LBI12:
 123              		.file 2 "../../../os/rt/include/chthreads.h"
 124              		.loc 2 297 23 view .LVU18
 125              	.LBB13:
 126              		.loc 2 299 3 view .LVU19
 127              	.LBB14:
 128              	.LBI14:
 129              		.loc 2 284 25 view .LVU20
 130              	.LBB15:
 131              		.loc 2 286 3 view .LVU21
 132              		.loc 2 286 18 is_stmt 0 view .LVU22
 133 0020 3F4B     		ldr	r3, .L16+12
 134              	.LBE15:
 135              	.LBE14:
 136              	.LBE13:
 137              	.LBE12:
 138              		.loc 1 223 18 view .LVU23
 139 0022 404A     		ldr	r2, .L16+16
 140              	.LBB18:
 141              	.LBB16:
 142              		.loc 2 299 25 view .LVU24
 143 0024 9969     		ldr	r1, [r3, #24]
 144              	.LBE16:
 145              	.LBE18:
 146              		.loc 1 223 18 view .LVU25
ARM GAS  /tmp/cclVvPTE.s 			page 4


 147 0026 3D48     		ldr	r0, .L16+8
 148              	.LBB19:
 149              	.LBB17:
 150              		.loc 2 299 25 view .LVU26
 151 0028 8E68     		ldr	r6, [r1, #8]
 152              	.LVL3:
 153              		.loc 2 299 25 view .LVU27
 154              	.LBE17:
 155              	.LBE19:
 156              		.loc 1 221 3 is_stmt 1 view .LVU28
 157              		.loc 1 223 18 is_stmt 0 view .LVU29
 158 002a 3F4B     		ldr	r3, .L16+20
 159 002c 0092     		str	r2, [sp]
 160              		.loc 1 221 3 view .LVU30
 161 002e 0321     		movs	r1, #3
 162              		.loc 1 223 18 view .LVU31
 163 0030 721E     		subs	r2, r6, #1
 164              		.loc 1 221 3 view .LVU32
 165 0032 2960     		str	r1, [r5]
 166              		.loc 1 223 5 is_stmt 1 view .LVU33
 167              		.loc 1 223 18 is_stmt 0 view .LVU34
 168 0034 3D49     		ldr	r1, .L16+24
 169              		.loc 1 223 16 view .LVU35
 170 0036 3E4C     		ldr	r4, .L16+28
 171              		.loc 1 223 18 view .LVU36
 172 0038 FFF7FEFF 		bl	chThdCreateFromMemoryPool
 173              	.LVL4:
 174              		.loc 1 224 18 view .LVU37
 175 003c 3D4B     		ldr	r3, .L16+32
 176 003e 0093     		str	r3, [sp]
 177 0040 3D49     		ldr	r1, .L16+36
 178 0042 394B     		ldr	r3, .L16+20
 179              		.loc 1 223 16 view .LVU38
 180 0044 2060     		str	r0, [r4]
 181              		.loc 1 224 5 is_stmt 1 view .LVU39
 182              		.loc 1 224 18 is_stmt 0 view .LVU40
 183 0046 B21E     		subs	r2, r6, #2
 184 0048 3448     		ldr	r0, .L16+8
 185 004a FFF7FEFF 		bl	chThdCreateFromMemoryPool
 186              	.LVL5:
 187              		.loc 1 225 18 view .LVU41
 188 004e 3B4B     		ldr	r3, .L16+40
 189 0050 0093     		str	r3, [sp]
 190 0052 3B49     		ldr	r1, .L16+44
 191 0054 344B     		ldr	r3, .L16+20
 192              		.loc 1 224 16 view .LVU42
 193 0056 6060     		str	r0, [r4, #4]
 194              		.loc 1 225 5 is_stmt 1 view .LVU43
 195              		.loc 1 225 18 is_stmt 0 view .LVU44
 196 0058 F21E     		subs	r2, r6, #3
 197 005a 3048     		ldr	r0, .L16+8
 198 005c FFF7FEFF 		bl	chThdCreateFromMemoryPool
 199              	.LVL6:
 200              		.loc 1 226 18 view .LVU45
 201 0060 384B     		ldr	r3, .L16+48
 202 0062 0093     		str	r3, [sp]
 203 0064 3849     		ldr	r1, .L16+52
ARM GAS  /tmp/cclVvPTE.s 			page 5


 204 0066 304B     		ldr	r3, .L16+20
 205              		.loc 1 225 16 view .LVU46
 206 0068 A060     		str	r0, [r4, #8]
 207              		.loc 1 226 5 is_stmt 1 view .LVU47
 208              		.loc 1 226 18 is_stmt 0 view .LVU48
 209 006a 321F     		subs	r2, r6, #4
 210 006c 2B48     		ldr	r0, .L16+8
 211 006e FFF7FEFF 		bl	chThdCreateFromMemoryPool
 212              	.LVL7:
 213              		.loc 1 227 18 view .LVU49
 214 0072 364B     		ldr	r3, .L16+56
 215 0074 0093     		str	r3, [sp]
 216 0076 721F     		subs	r2, r6, #5
 217 0078 2B4B     		ldr	r3, .L16+20
 218              		.loc 1 226 16 view .LVU50
 219 007a E060     		str	r0, [r4, #12]
 220              		.loc 1 227 5 is_stmt 1 view .LVU51
 221              		.loc 1 227 18 is_stmt 0 view .LVU52
 222 007c 3449     		ldr	r1, .L16+60
 223 007e 2748     		ldr	r0, .L16+8
 224 0080 FFF7FEFF 		bl	chThdCreateFromMemoryPool
 225              	.LVL8:
 226              		.loc 1 233 5 view .LVU53
 227 0084 2368     		ldr	r3, [r4]
 228              		.loc 1 227 16 view .LVU54
 229 0086 2061     		str	r0, [r4, #16]
 230              		.loc 1 231 3 is_stmt 1 view .LVU55
 231 0088 0422     		movs	r2, #4
 232 008a 2A60     		str	r2, [r5]
 233              		.loc 1 233 5 view .LVU56
 234 008c 002B     		cmp	r3, #0
 235 008e 3ED0     		beq	.L8
 236              		.loc 1 233 5 is_stmt 0 discriminator 1 view .LVU57
 237 0090 6068     		ldr	r0, [r4, #4]
 238 0092 28B1     		cbz	r0, .L3
 239              		.loc 1 233 5 discriminator 3 view .LVU58
 240 0094 A068     		ldr	r0, [r4, #8]
 241 0096 18B1     		cbz	r0, .L3
 242              		.loc 1 233 5 discriminator 5 view .LVU59
 243 0098 E068     		ldr	r0, [r4, #12]
 244 009a 0038     		subs	r0, r0, #0
 245 009c 18BF     		it	ne
 246 009e 0120     		movne	r0, #1
 247              	.L3:
 248              		.loc 1 233 5 discriminator 10 view .LVU60
 249 00a0 2C49     		ldr	r1, .L16+64
 250 00a2 FFF7FEFF 		bl	_test_assert
 251              	.LVL9:
 252 00a6 08B1     		cbz	r0, .L15
 253              	.LVL10:
 254              	.L1:
 255              		.loc 1 257 1 view .LVU61
 256 00a8 03B0     		add	sp, sp, #12
 257              		.cfi_remember_state
 258              		.cfi_def_cfa_offset 20
 259              		@ sp needed
 260 00aa F0BD     		pop	{r4, r5, r6, r7, pc}
ARM GAS  /tmp/cclVvPTE.s 			page 6


 261              	.LVL11:
 262              	.L15:
 263              		.cfi_restore_state
 264              		.loc 1 237 42 is_stmt 1 view .LVU62
 265              		.loc 1 238 5 view .LVU63
 266 00ac 2069     		ldr	r0, [r4, #16]
 267 00ae 2A49     		ldr	r1, .L16+68
 268 00b0 B0FA80F0 		clz	r0, r0
 269 00b4 4009     		lsrs	r0, r0, #5
 270 00b6 FFF7FEFF 		bl	_test_assert
 271              	.LVL12:
 272 00ba 0028     		cmp	r0, #0
 273 00bc F4D1     		bne	.L1
 274              		.loc 1 239 46 view .LVU64
 275              		.loc 1 244 3 view .LVU65
 276 00be 0523     		movs	r3, #5
 277 00c0 2B60     		str	r3, [r5]
 278              		.loc 1 246 5 view .LVU66
 279 00c2 FFF7FEFF 		bl	test_wait_threads
 280              	.LVL13:
 281              		.loc 1 247 5 view .LVU67
 282 00c6 2549     		ldr	r1, .L16+72
 283 00c8 2548     		ldr	r0, .L16+76
 284 00ca FFF7FEFF 		bl	_test_assert_sequence
 285              	.LVL14:
 286 00ce 0028     		cmp	r0, #0
 287 00d0 EAD1     		bne	.L1
 288              		.loc 1 247 53 discriminator 2 view .LVU68
 289              		.loc 1 251 3 discriminator 2 view .LVU69
 290 00d2 0623     		movs	r3, #6
 291              		.loc 1 254 7 is_stmt 0 discriminator 2 view .LVU70
 292 00d4 114F     		ldr	r7, .L16+8
 293 00d6 234E     		ldr	r6, .L16+80
 294              	.LVL15:
 295              		.loc 1 251 3 discriminator 2 view .LVU71
 296 00d8 2B60     		str	r3, [r5]
 297              		.loc 1 253 5 is_stmt 1 discriminator 2 view .LVU72
 298              	.LVL16:
 299              		.loc 1 253 17 discriminator 2 view .LVU73
 300              		.loc 1 251 3 is_stmt 0 discriminator 2 view .LVU74
 301 00da 0424     		movs	r4, #4
 302              	.LVL17:
 303              	.L7:
 304              		.loc 1 254 7 is_stmt 1 view .LVU75
 305 00dc 3846     		mov	r0, r7
 306 00de FFF7FEFF 		bl	chPoolAlloc
 307              	.LVL18:
 308 00e2 0038     		subs	r0, r0, #0
 309 00e4 18BF     		it	ne
 310 00e6 0120     		movne	r0, #1
 311 00e8 3146     		mov	r1, r6
 312 00ea FFF7FEFF 		bl	_test_assert
 313              	.LVL19:
 314              		.loc 1 253 24 view .LVU76
 315              		.loc 1 253 17 view .LVU77
 316              		.loc 1 254 7 is_stmt 0 view .LVU78
 317 00ee 0028     		cmp	r0, #0
ARM GAS  /tmp/cclVvPTE.s 			page 7


 318 00f0 DAD1     		bne	.L1
 319              		.loc 1 253 5 discriminator 2 view .LVU79
 320 00f2 013C     		subs	r4, r4, #1
 321              	.LVL20:
 322              		.loc 1 253 5 discriminator 2 view .LVU80
 323 00f4 F2D1     		bne	.L7
 324              		.loc 1 254 64 is_stmt 1 view .LVU81
 325              		.loc 1 255 5 view .LVU82
 326 00f6 0948     		ldr	r0, .L16+8
 327 00f8 FFF7FEFF 		bl	chPoolAlloc
 328              	.LVL21:
 329 00fc 1A49     		ldr	r1, .L16+84
 330 00fe B0FA80F0 		clz	r0, r0
 331 0102 4009     		lsrs	r0, r0, #5
 332              		.loc 1 257 1 is_stmt 0 view .LVU83
 333 0104 03B0     		add	sp, sp, #12
 334              		.cfi_remember_state
 335              		.cfi_def_cfa_offset 20
 336              		@ sp needed
 337 0106 BDE8F040 		pop	{r4, r5, r6, r7, lr}
 338              		.cfi_restore 14
 339              		.cfi_restore 7
 340              		.cfi_restore 6
 341              		.cfi_restore 5
 342              		.cfi_restore 4
 343              		.cfi_def_cfa_offset 0
 344              	.LVL22:
 345              		.loc 1 255 5 view .LVU84
 346 010a FFF7FEBF 		b	_test_assert
 347              	.LVL23:
 348              	.L8:
 349              		.cfi_restore_state
 350              		.loc 1 255 5 view .LVU85
 351 010e 1846     		mov	r0, r3
 352 0110 C6E7     		b	.L3
 353              	.L17:
 354 0112 00BF     		.align	2
 355              	.L16:
 356 0114 00000000 		.word	test_step
 357 0118 00000000 		.word	wa
 358 011c 00000000 		.word	.LANCHOR0
 359 0120 00000000 		.word	ch
 360 0124 08000000 		.word	.LC1
 361 0128 00000000 		.word	dyn_thread1
 362 012c 00000000 		.word	.LC0
 363 0130 00000000 		.word	threads
 364 0134 14000000 		.word	.LC3
 365 0138 0C000000 		.word	.LC2
 366 013c 20000000 		.word	.LC5
 367 0140 18000000 		.word	.LC4
 368 0144 2C000000 		.word	.LC7
 369 0148 24000000 		.word	.LC6
 370 014c 38000000 		.word	.LC9
 371 0150 30000000 		.word	.LC8
 372 0154 3C000000 		.word	.LC10
 373 0158 54000000 		.word	.LC11
 374 015c 70000000 		.word	.LC12
ARM GAS  /tmp/cclVvPTE.s 			page 8


 375 0160 84000000 		.word	.LC13
 376 0164 8C000000 		.word	.LC14
 377 0168 9C000000 		.word	.LC15
 378              		.cfi_endproc
 379              	.LFE281:
 380              		.size	test_011_002_execute, .-test_011_002_execute
 381              		.section	.text.dyn_thread1,"ax",%progbits
 382              		.align	1
 383              		.p2align 4,,15
 384              		.syntax unified
 385              		.thumb
 386              		.thumb_func
 387              		.fpu softvfp
 388              		.type	dyn_thread1, %function
 389              	dyn_thread1:
 390              	.LVL24:
 391              	.LFB277:
 392              		.loc 1 58 37 is_stmt 1 view -0
 393              		.cfi_startproc
 394              		@ args = 0, pretend = 0, frame = 0
 395              		@ frame_needed = 0, uses_anonymous_args = 0
 396              		@ link register save eliminated.
 397              		.loc 1 60 3 view .LVU87
 398 0000 0078     		ldrb	r0, [r0]	@ zero_extendqisi2
 399              	.LVL25:
 400              		.loc 1 60 3 is_stmt 0 view .LVU88
 401 0002 FFF7FEBF 		b	test_emit_token
 402              	.LVL26:
 403              		.cfi_endproc
 404              	.LFE277:
 405              		.size	dyn_thread1, .-dyn_thread1
 406 0006 00BF     		.section	.text.test_011_002_setup,"ax",%progbits
 407              		.align	1
 408              		.p2align 4,,15
 409              		.syntax unified
 410              		.thumb
 411              		.thumb_func
 412              		.fpu softvfp
 413              		.type	test_011_002_setup, %function
 414              	test_011_002_setup:
 415              	.LFB280:
 416              		.loc 1 199 38 is_stmt 1 view -0
 417              		.cfi_startproc
 418              		@ args = 0, pretend = 0, frame = 0
 419              		@ frame_needed = 0, uses_anonymous_args = 0
 420              		@ link register save eliminated.
 421              		.loc 1 200 3 view .LVU90
 422 0000 0248     		ldr	r0, .L20
 423 0002 0022     		movs	r2, #0
 424 0004 4FF4A471 		mov	r1, #328
 425 0008 FFF7FEBF 		b	chPoolObjectInit
 426              	.LVL27:
 427              	.L21:
 428              		.align	2
 429              	.L20:
 430 000c 00000000 		.word	.LANCHOR0
 431              		.cfi_endproc
ARM GAS  /tmp/cclVvPTE.s 			page 9


 432              	.LFE280:
 433              		.size	test_011_002_setup, .-test_011_002_setup
 434              		.section	.rodata.test_011_001_execute.str1.4,"aMS",%progbits,1
 435              		.align	2
 436              	.LC16:
 437 0000 68656170 		.ascii	"heap fragmented\000"
 437      20667261 
 437      676D656E 
 437      74656400 
 438              		.align	2
 439              	.LC17:
 440 0010 414200   		.ascii	"AB\000"
 441 0013 00       		.align	2
 442              	.LC18:
 443 0014 66726167 		.ascii	"fragmentation changed\000"
 443      6D656E74 
 443      6174696F 
 443      6E206368 
 443      616E6765 
 444 002a 0000     		.align	2
 445              	.LC19:
 446 002c 746F7461 		.ascii	"total free space changed\000"
 446      6C206672 
 446      65652073 
 446      70616365 
 446      20636861 
 447 0045 000000   		.align	2
 448              	.LC20:
 449 0048 6C617267 		.ascii	"largest fragment size changed\000"
 449      65737420 
 449      66726167 
 449      6D656E74 
 449      2073697A 
 450              		.section	.text.test_011_001_execute,"ax",%progbits
 451              		.align	1
 452              		.p2align 4,,15
 453              		.syntax unified
 454              		.thumb
 455              		.thumb_func
 456              		.fpu softvfp
 457              		.type	test_011_001_execute, %function
 458              	test_011_001_execute:
 459              	.LFB279:
 460              		.loc 1 99 40 view -0
 461              		.cfi_startproc
 462              		@ args = 0, pretend = 0, frame = 16
 463              		@ frame_needed = 0, uses_anonymous_args = 0
 464              		.loc 1 100 3 view .LVU92
 465              		.loc 1 101 3 view .LVU93
 466              		.loc 1 102 3 view .LVU94
 467              		.loc 1 105 3 view .LVU95
 468              		.loc 1 107 5 view .LVU96
 469              	.LBB20:
 470              	.LBI20:
 471              		.loc 2 297 23 view .LVU97
 472              	.LBB21:
 473              		.loc 2 299 3 view .LVU98
ARM GAS  /tmp/cclVvPTE.s 			page 10


 474              	.LBB22:
 475              	.LBI22:
 476              		.loc 2 284 25 view .LVU99
 477              	.LBB23:
 478              		.loc 2 286 3 view .LVU100
 479              	.LBE23:
 480              	.LBE22:
 481              	.LBE21:
 482              	.LBE20:
 483              		.loc 1 99 40 is_stmt 0 view .LVU101
 484 0000 2DE9F041 		push	{r4, r5, r6, r7, r8, lr}
 485              		.cfi_def_cfa_offset 24
 486              		.cfi_offset 4, -24
 487              		.cfi_offset 5, -20
 488              		.cfi_offset 6, -16
 489              		.cfi_offset 7, -12
 490              		.cfi_offset 8, -8
 491              		.cfi_offset 14, -4
 492              	.LBB29:
 493              	.LBB26:
 494              	.LBB25:
 495              	.LBB24:
 496              		.loc 2 286 18 view .LVU102
 497 0004 474B     		ldr	r3, .L28
 498              	.LBE24:
 499              	.LBE25:
 500              	.LBE26:
 501              	.LBE29:
 502              		.loc 1 111 3 view .LVU103
 503 0006 484D     		ldr	r5, .L28+4
 504              	.LBB30:
 505              	.LBB27:
 506              		.loc 2 299 25 view .LVU104
 507 0008 9B69     		ldr	r3, [r3, #24]
 508              	.LBE27:
 509              	.LBE30:
 510              		.loc 1 113 10 view .LVU105
 511 000a 4848     		ldr	r0, .L28+8
 512              	.LBB31:
 513              	.LBB28:
 514              		.loc 2 299 25 view .LVU106
 515 000c 9E68     		ldr	r6, [r3, #8]
 516              	.LVL28:
 517              		.loc 2 299 25 view .LVU107
 518              	.LBE28:
 519              	.LBE31:
 520              		.loc 1 111 3 is_stmt 1 view .LVU108
 521              		.loc 1 113 5 view .LVU109
 522              		.loc 1 99 40 is_stmt 0 view .LVU110
 523 000e 86B0     		sub	sp, sp, #24
 524              		.cfi_def_cfa_offset 48
 525              		.loc 1 113 10 view .LVU111
 526 0010 02A9     		add	r1, sp, #8
 527              		.loc 1 111 3 view .LVU112
 528 0012 0224     		movs	r4, #2
 529              		.loc 1 113 10 view .LVU113
 530 0014 03AA     		add	r2, sp, #12
ARM GAS  /tmp/cclVvPTE.s 			page 11


 531              		.loc 1 111 3 view .LVU114
 532 0016 2C60     		str	r4, [r5]
 533              		.loc 1 113 10 view .LVU115
 534 0018 FFF7FEFF 		bl	chHeapStatus
 535              	.LVL29:
 536 001c 0446     		mov	r4, r0
 537              	.LVL30:
 538              		.loc 1 114 5 is_stmt 1 view .LVU116
 539 001e A0F10100 		sub	r0, #1
 540              	.LVL31:
 541              		.loc 1 114 5 is_stmt 0 view .LVU117
 542 0022 B0FA80F0 		clz	r0, r0
 543 0026 4249     		ldr	r1, .L28+12
 544 0028 4009     		lsrs	r0, r0, #5
 545 002a FFF7FEFF 		bl	_test_assert
 546              	.LVL32:
 547 002e 10B1     		cbz	r0, .L27
 548              	.LVL33:
 549              	.L22:
 550              		.loc 1 163 1 view .LVU118
 551 0030 06B0     		add	sp, sp, #24
 552              		.cfi_remember_state
 553              		.cfi_def_cfa_offset 24
 554              		@ sp needed
 555 0032 BDE8F081 		pop	{r4, r5, r6, r7, r8, pc}
 556              	.LVL34:
 557              	.L27:
 558              		.cfi_restore_state
 559              		.loc 1 114 44 is_stmt 1 discriminator 2 view .LVU119
 560              		.loc 1 118 3 discriminator 2 view .LVU120
 561              		.loc 1 120 18 is_stmt 0 discriminator 2 view .LVU121
 562 0036 3F4A     		ldr	r2, .L28+16
 563 0038 DFF8FC80 		ldr	r8, .L28+20
 564 003c 0192     		str	r2, [sp, #4]
 565              		.loc 1 118 3 discriminator 2 view .LVU122
 566 003e 0323     		movs	r3, #3
 567 0040 2B60     		str	r3, [r5]
 568              		.loc 1 120 5 is_stmt 1 discriminator 2 view .LVU123
 569              		.loc 1 120 18 is_stmt 0 discriminator 2 view .LVU124
 570 0042 4FF4A471 		mov	r1, #328
 571 0046 3D4A     		ldr	r2, .L28+24
 572 0048 3848     		ldr	r0, .L28+8
 573 004a CDF80080 		str	r8, [sp]
 574 004e 731E     		subs	r3, r6, #1
 575 0050 FFF7FEFF 		bl	chThdCreateFromHeap
 576              	.LVL35:
 577              		.loc 1 120 16 discriminator 2 view .LVU125
 578 0054 3A4F     		ldr	r7, .L28+28
 579              		.loc 1 124 5 discriminator 2 view .LVU126
 580 0056 3B49     		ldr	r1, .L28+32
 581              		.loc 1 120 16 discriminator 2 view .LVU127
 582 0058 3860     		str	r0, [r7]
 583              		.loc 1 124 5 is_stmt 1 discriminator 2 view .LVU128
 584 005a 0038     		subs	r0, r0, #0
 585 005c 18BF     		it	ne
 586 005e 0120     		movne	r0, #1
 587 0060 FFF7FEFF 		bl	_test_assert
ARM GAS  /tmp/cclVvPTE.s 			page 12


 588              	.LVL36:
 589 0064 0028     		cmp	r0, #0
 590 0066 E3D1     		bne	.L22
 591              		.loc 1 124 62 discriminator 2 view .LVU129
 592              		.loc 1 128 3 discriminator 2 view .LVU130
 593              		.loc 1 130 18 is_stmt 0 discriminator 2 view .LVU131
 594 0068 374B     		ldr	r3, .L28+36
 595 006a 0193     		str	r3, [sp, #4]
 596 006c 4FF4A471 		mov	r1, #328
 597              		.loc 1 128 3 discriminator 2 view .LVU132
 598 0070 4FF0040C 		mov	ip, #4
 599              		.loc 1 130 18 discriminator 2 view .LVU133
 600 0074 354A     		ldr	r2, .L28+40
 601 0076 2D48     		ldr	r0, .L28+8
 602 0078 CDF80080 		str	r8, [sp]
 603 007c B31E     		subs	r3, r6, #2
 604              		.loc 1 128 3 discriminator 2 view .LVU134
 605 007e C5F800C0 		str	ip, [r5]
 606              		.loc 1 130 5 is_stmt 1 discriminator 2 view .LVU135
 607              		.loc 1 130 18 is_stmt 0 discriminator 2 view .LVU136
 608 0082 FFF7FEFF 		bl	chThdCreateFromHeap
 609              	.LVL37:
 610              		.loc 1 130 16 discriminator 2 view .LVU137
 611 0086 7860     		str	r0, [r7, #4]
 612              		.loc 1 134 5 is_stmt 1 discriminator 2 view .LVU138
 613 0088 0038     		subs	r0, r0, #0
 614 008a 18BF     		it	ne
 615 008c 0120     		movne	r0, #1
 616 008e 2D49     		ldr	r1, .L28+32
 617 0090 FFF7FEFF 		bl	_test_assert
 618              	.LVL38:
 619 0094 0028     		cmp	r0, #0
 620 0096 CBD1     		bne	.L22
 621              		.loc 1 134 62 discriminator 2 view .LVU139
 622              		.loc 1 138 3 discriminator 2 view .LVU140
 623              		.loc 1 140 18 is_stmt 0 discriminator 2 view .LVU141
 624 0098 2D49     		ldr	r1, .L28+44
 625 009a 0191     		str	r1, [sp, #4]
 626 009c F31E     		subs	r3, r6, #3
 627 009e 2D49     		ldr	r1, .L28+48
 628 00a0 2D4A     		ldr	r2, .L28+52
 629 00a2 2248     		ldr	r0, .L28+8
 630 00a4 CDF80080 		str	r8, [sp]
 631              		.loc 1 138 3 discriminator 2 view .LVU142
 632 00a8 0526     		movs	r6, #5
 633              	.LVL39:
 634              		.loc 1 138 3 discriminator 2 view .LVU143
 635 00aa 2E60     		str	r6, [r5]
 636              		.loc 1 140 5 is_stmt 1 discriminator 2 view .LVU144
 637              		.loc 1 140 18 is_stmt 0 discriminator 2 view .LVU145
 638 00ac FFF7FEFF 		bl	chThdCreateFromHeap
 639              	.LVL40:
 640              		.loc 1 140 18 discriminator 2 view .LVU146
 641 00b0 0346     		mov	r3, r0
 642              		.loc 1 144 5 discriminator 2 view .LVU147
 643 00b2 B0FA80F0 		clz	r0, r0
 644 00b6 2949     		ldr	r1, .L28+56
ARM GAS  /tmp/cclVvPTE.s 			page 13


 645              		.loc 1 140 16 discriminator 2 view .LVU148
 646 00b8 BB60     		str	r3, [r7, #8]
 647              		.loc 1 144 5 is_stmt 1 discriminator 2 view .LVU149
 648 00ba F040     		lsrs	r0, r0, r6
 649 00bc FFF7FEFF 		bl	_test_assert
 650              	.LVL41:
 651 00c0 0028     		cmp	r0, #0
 652 00c2 B5D1     		bne	.L22
 653              		.loc 1 144 66 discriminator 2 view .LVU150
 654              		.loc 1 149 3 discriminator 2 view .LVU151
 655 00c4 0623     		movs	r3, #6
 656 00c6 2B60     		str	r3, [r5]
 657              		.loc 1 151 5 discriminator 2 view .LVU152
 658 00c8 FFF7FEFF 		bl	test_wait_threads
 659              	.LVL42:
 660              		.loc 1 152 5 discriminator 2 view .LVU153
 661 00cc 2449     		ldr	r1, .L28+60
 662 00ce 2548     		ldr	r0, .L28+64
 663 00d0 FFF7FEFF 		bl	_test_assert_sequence
 664              	.LVL43:
 665 00d4 0028     		cmp	r0, #0
 666 00d6 ABD1     		bne	.L22
 667              		.loc 1 152 51 discriminator 2 view .LVU154
 668              		.loc 1 156 3 discriminator 2 view .LVU155
 669              		.loc 1 158 10 is_stmt 0 discriminator 2 view .LVU156
 670 00d8 04A9     		add	r1, sp, #16
 671              		.loc 1 156 3 discriminator 2 view .LVU157
 672 00da 0723     		movs	r3, #7
 673              		.loc 1 158 10 discriminator 2 view .LVU158
 674 00dc 1348     		ldr	r0, .L28+8
 675              		.loc 1 156 3 discriminator 2 view .LVU159
 676 00de 2B60     		str	r3, [r5]
 677              		.loc 1 158 5 is_stmt 1 discriminator 2 view .LVU160
 678              		.loc 1 158 10 is_stmt 0 discriminator 2 view .LVU161
 679 00e0 05AA     		add	r2, sp, #20
 680 00e2 FFF7FEFF 		bl	chHeapStatus
 681              	.LVL44:
 682              		.loc 1 159 5 is_stmt 1 discriminator 2 view .LVU162
 683 00e6 201A     		subs	r0, r4, r0
 684              	.LVL45:
 685              		.loc 1 159 5 is_stmt 0 discriminator 2 view .LVU163
 686 00e8 B0FA80F0 		clz	r0, r0
 687 00ec 1E49     		ldr	r1, .L28+68
 688 00ee 4009     		lsrs	r0, r0, #5
 689 00f0 FFF7FEFF 		bl	_test_assert
 690              	.LVL46:
 691 00f4 0028     		cmp	r0, #0
 692 00f6 9BD1     		bne	.L22
 693              		.loc 1 159 51 is_stmt 1 discriminator 2 view .LVU164
 694              		.loc 1 160 5 discriminator 2 view .LVU165
 695 00f8 0298     		ldr	r0, [sp, #8]
 696 00fa 049B     		ldr	r3, [sp, #16]
 697 00fc 1B49     		ldr	r1, .L28+72
 698 00fe C01A     		subs	r0, r0, r3
 699 0100 B0FA80F0 		clz	r0, r0
 700 0104 4009     		lsrs	r0, r0, #5
 701 0106 FFF7FEFF 		bl	_test_assert
ARM GAS  /tmp/cclVvPTE.s 			page 14


 702              	.LVL47:
 703 010a 0028     		cmp	r0, #0
 704 010c 90D1     		bne	.L22
 705              		.loc 1 160 62 discriminator 2 view .LVU166
 706              		.loc 1 161 5 discriminator 2 view .LVU167
 707 010e 0398     		ldr	r0, [sp, #12]
 708 0110 059B     		ldr	r3, [sp, #20]
 709 0112 1749     		ldr	r1, .L28+76
 710 0114 C01A     		subs	r0, r0, r3
 711 0116 B0FA80F0 		clz	r0, r0
 712 011a 4009     		lsrs	r0, r0, #5
 713 011c FFF7FEFF 		bl	_test_assert
 714              	.LVL48:
 715              		.loc 1 161 5 discriminator 2 view .LVU168
 716 0120 86E7     		b	.L22
 717              	.L29:
 718 0122 00BF     		.align	2
 719              	.L28:
 720 0124 00000000 		.word	ch
 721 0128 00000000 		.word	test_step
 722 012c 00000000 		.word	.LANCHOR1
 723 0130 00000000 		.word	.LC16
 724 0134 08000000 		.word	.LC1
 725 0138 00000000 		.word	dyn_thread1
 726 013c 00000000 		.word	.LC0
 727 0140 00000000 		.word	threads
 728 0144 3C000000 		.word	.LC10
 729 0148 14000000 		.word	.LC3
 730 014c 0C000000 		.word	.LC2
 731 0150 20000000 		.word	.LC5
 732 0154 C8000200 		.word	131272
 733 0158 18000000 		.word	.LC4
 734 015c 54000000 		.word	.LC11
 735 0160 70000000 		.word	.LC12
 736 0164 10000000 		.word	.LC17
 737 0168 14000000 		.word	.LC18
 738 016c 2C000000 		.word	.LC19
 739 0170 48000000 		.word	.LC20
 740              		.cfi_endproc
 741              	.LFE279:
 742              		.size	test_011_001_execute, .-test_011_001_execute
 743              		.section	.text.test_011_001_setup,"ax",%progbits
 744              		.align	1
 745              		.p2align 4,,15
 746              		.syntax unified
 747              		.thumb
 748              		.thumb_func
 749              		.fpu softvfp
 750              		.type	test_011_001_setup, %function
 751              	test_011_001_setup:
 752              	.LFB278:
 753              		.loc 1 95 38 view -0
 754              		.cfi_startproc
 755              		@ args = 0, pretend = 0, frame = 0
 756              		@ frame_needed = 0, uses_anonymous_args = 0
 757              		@ link register save eliminated.
 758              		.loc 1 96 3 view .LVU170
ARM GAS  /tmp/cclVvPTE.s 			page 15


 759 0000 0249     		ldr	r1, .L31
 760 0002 0348     		ldr	r0, .L31+4
 761 0004 4FF4CD62 		mov	r2, #1640
 762 0008 FFF7FEBF 		b	chHeapObjectInit
 763              	.LVL49:
 764              	.L32:
 765              		.align	2
 766              	.L31:
 767 000c 00000000 		.word	test_buffer
 768 0010 00000000 		.word	.LANCHOR1
 769              		.cfi_endproc
 770              	.LFE278:
 771              		.size	test_011_001_setup, .-test_011_001_setup
 772              		.global	test_sequence_011
 773              		.section	.rodata.str1.4,"aMS",%progbits,1
 774              		.align	2
 775              	.LC21:
 776 0000 54687265 		.ascii	"Threads creation from Memory Pool\000"
 776      61647320 
 776      63726561 
 776      74696F6E 
 776      2066726F 
 777 0022 0000     		.align	2
 778              	.LC22:
 779 0024 54687265 		.ascii	"Threads creation from Memory Heap\000"
 779      61647320 
 779      63726561 
 779      74696F6E 
 779      2066726F 
 780              		.section	.bss.heap1,"aw",%nobits
 781              		.align	3
 782              		.set	.LANCHOR1,. + 0
 783              		.type	heap1, %object
 784              		.size	heap1, 32
 785              	heap1:
 786 0000 00000000 		.space	32
 786      00000000 
 786      00000000 
 786      00000000 
 786      00000000 
 787              		.section	.bss.mp1,"aw",%nobits
 788              		.align	2
 789              		.set	.LANCHOR0,. + 0
 790              		.type	mp1, %object
 791              		.size	mp1, 12
 792              	mp1:
 793 0000 00000000 		.space	12
 793      00000000 
 793      00000000 
 794              		.section	.rodata.test_011_001,"a"
 795              		.align	2
 796              		.type	test_011_001, %object
 797              		.size	test_011_001, 16
 798              	test_011_001:
 799 0000 24000000 		.word	.LC22
 800 0004 00000000 		.word	test_011_001_setup
 801 0008 00000000 		.word	0
ARM GAS  /tmp/cclVvPTE.s 			page 16


 802 000c 00000000 		.word	test_011_001_execute
 803              		.section	.rodata.test_011_002,"a"
 804              		.align	2
 805              		.type	test_011_002, %object
 806              		.size	test_011_002, 16
 807              	test_011_002:
 808 0000 00000000 		.word	.LC21
 809 0004 00000000 		.word	test_011_002_setup
 810 0008 00000000 		.word	0
 811 000c 00000000 		.word	test_011_002_execute
 812              		.section	.rodata.test_sequence_011,"a"
 813              		.align	2
 814              		.type	test_sequence_011, %object
 815              		.size	test_sequence_011, 12
 816              	test_sequence_011:
 817 0000 00000000 		.word	test_011_001
 818 0004 00000000 		.word	test_011_002
 819 0008 00000000 		.word	0
 820              		.text
 821              	.Letext0:
 822              		.file 3 "/usr/lib/gcc/arm-none-eabi/10.3.1/include/stddef.h"
 823              		.file 4 "/usr/lib/gcc/arm-none-eabi/10.3.1/include/stdint.h"
 824              		.file 5 "../../../os/common/ports/ARMCMx/compilers/GCC/chtypes.h"
 825              		.file 6 "../../../os/rt/include/chsystypes.h"
 826              		.file 7 "../../../os/rt/include/chschd.h"
 827              		.file 8 "../../../os/common/ports/ARMCMx/chcore.h"
 828              		.file 9 "../../../os/common/ports/ARMCMx/chcore_v7m.h"
 829              		.file 10 "../../../os/rt/include/chtm.h"
 830              		.file 11 "../../../os/rt/include/chsem.h"
 831              		.file 12 "../../../os/rt/include/chmtx.h"
 832              		.file 13 "../../../os/common/oslib/include/chmemcore.h"
 833              		.file 14 "../../../os/common/oslib/include/chheap.h"
 834              		.file 15 "../../../os/common/oslib/include/chmempools.h"
 835              		.file 16 "../../../test/lib/ch_test.h"
 836              		.file 17 "../../../test/rt/source/test/test_sequence_011.h"
 837              		.file 18 "../../../test/rt/source/test/test_root.h"
 838              		.file 19 "../../../os/rt/include/chdynamic.h"