ARM GAS  /tmp/ccCget5K.s 			page 1


   1              		.cpu cortex-m4
   2              		.eabi_attribute 20, 1
   3              		.eabi_attribute 21, 1
   4              		.eabi_attribute 23, 3
   5              		.eabi_attribute 24, 1
   6              		.eabi_attribute 25, 1
   7              		.eabi_attribute 26, 1
   8              		.eabi_attribute 30, 2
   9              		.eabi_attribute 34, 1
  10              		.eabi_attribute 18, 4
  11              		.file	"test_sequence_008.c"
  12              		.text
  13              	.Ltext0:
  14              		.cfi_sections	.debug_frame
  15              		.section	.text.test_008_001_teardown,"ax",%progbits
  16              		.align	1
  17              		.p2align 4,,15
  18              		.arch armv7e-m
  19              		.syntax unified
  20              		.thumb
  21              		.thumb_func
  22              		.fpu softvfp
  23              		.type	test_008_001_teardown, %function
  24              	test_008_001_teardown:
  25              	.LFB278:
  26              		.file 1 "../../../test/rt/source/test/test_sequence_008.c"
  27              		.loc 1 91 41 view -0
  28              		.cfi_startproc
  29              		@ args = 0, pretend = 0, frame = 0
  30              		@ frame_needed = 0, uses_anonymous_args = 0
  31              		@ link register save eliminated.
  32              		.loc 1 92 3 view .LVU1
  33 0000 0148     		ldr	r0, .L3
  34 0002 FFF7FEBF 		b	chMBReset
  35              	.LVL0:
  36              	.L4:
  37 0006 00BF     		.align	2
  38              	.L3:
  39 0008 00000000 		.word	.LANCHOR0
  40              		.cfi_endproc
  41              	.LFE278:
  42              		.size	test_008_001_teardown, .-test_008_001_teardown
  43              		.section	.rodata.test_008_003_execute.str1.4,"aMS",%progbits,1
  44              		.align	2
  45              	.LC0:
  46 0000 77726F6E 		.ascii	"wrong wake-up message\000"
  46      67207761 
  46      6B652D75 
  46      70206D65 
  46      73736167 
  47              		.section	.text.test_008_003_execute,"ax",%progbits
  48              		.align	1
  49              		.p2align 4,,15
  50              		.syntax unified
  51              		.thumb
  52              		.thumb_func
  53              		.fpu softvfp
ARM GAS  /tmp/ccCget5K.s 			page 2


  54              		.type	test_008_003_execute, %function
  55              	test_008_003_execute:
  56              	.LFB285:
  57              		.loc 1 337 40 view -0
  58              		.cfi_startproc
  59              		@ args = 0, pretend = 0, frame = 8
  60              		@ frame_needed = 0, uses_anonymous_args = 0
  61              		.loc 1 338 3 view .LVU3
  62              		.loc 1 339 3 view .LVU4
  63              		.loc 1 342 3 view .LVU5
  64              		.loc 1 337 40 is_stmt 0 view .LVU6
  65 0000 F0B5     		push	{r4, r5, r6, r7, lr}
  66              		.cfi_def_cfa_offset 20
  67              		.cfi_offset 4, -20
  68              		.cfi_offset 5, -16
  69              		.cfi_offset 6, -12
  70              		.cfi_offset 7, -8
  71              		.cfi_offset 14, -4
  72              		.loc 1 342 3 view .LVU7
  73 0002 454F     		ldr	r7, .L13
  74 0004 454D     		ldr	r5, .L13+4
  75              		.loc 1 346 7 view .LVU8
  76 0006 464E     		ldr	r6, .L13+8
  77              		.loc 1 342 3 view .LVU9
  78 0008 0123     		movs	r3, #1
  79              		.loc 1 337 40 view .LVU10
  80 000a 83B0     		sub	sp, sp, #12
  81              		.cfi_def_cfa_offset 32
  82              		.loc 1 342 3 view .LVU11
  83 000c 3B60     		str	r3, [r7]
  84              		.loc 1 344 5 is_stmt 1 view .LVU12
  85              	.LVL1:
  86              		.loc 1 344 17 view .LVU13
  87              		.loc 1 342 3 is_stmt 0 view .LVU14
  88 000e 4224     		movs	r4, #66
  89              	.LVL2:
  90              	.L8:
  91              		.loc 1 345 7 is_stmt 1 view .LVU15
  92              		.loc 1 345 14 is_stmt 0 view .LVU16
  93 0010 2146     		mov	r1, r4
  94 0012 4FF0FF32 		mov	r2, #-1
  95 0016 2846     		mov	r0, r5
  96 0018 FFF7FEFF 		bl	chMBPost
  97              	.LVL3:
  98              		.loc 1 346 7 is_stmt 1 view .LVU17
  99 001c B0FA80F0 		clz	r0, r0
 100              	.LVL4:
 101              		.loc 1 346 7 is_stmt 0 view .LVU18
 102 0020 3146     		mov	r1, r6
 103 0022 4009     		lsrs	r0, r0, #5
 104              		.loc 1 344 5 view .LVU19
 105 0024 0134     		adds	r4, r4, #1
 106              	.LVL5:
 107              		.loc 1 346 7 view .LVU20
 108 0026 FFF7FEFF 		bl	_test_assert
 109              	.LVL6:
 110              		.loc 1 346 59 is_stmt 1 view .LVU21
ARM GAS  /tmp/ccCget5K.s 			page 3


 111              		.loc 1 344 30 view .LVU22
 112              		.loc 1 344 17 view .LVU23
 113              		.loc 1 346 7 is_stmt 0 view .LVU24
 114 002a 90B9     		cbnz	r0, .L5
 115              		.loc 1 344 5 discriminator 2 view .LVU25
 116 002c 462C     		cmp	r4, #70
 117 002e EFD1     		bne	.L8
 118              		.loc 1 352 3 is_stmt 1 view .LVU26
 119 0030 0223     		movs	r3, #2
 120              		.loc 1 354 12 is_stmt 0 view .LVU27
 121 0032 0122     		movs	r2, #1
 122 0034 5821     		movs	r1, #88
 123 0036 3948     		ldr	r0, .L13+4
 124              		.loc 1 352 3 view .LVU28
 125 0038 3B60     		str	r3, [r7]
 126              		.loc 1 354 5 is_stmt 1 view .LVU29
 127              		.loc 1 354 12 is_stmt 0 view .LVU30
 128 003a FFF7FEFF 		bl	chMBPost
 129              	.LVL7:
 130              		.loc 1 355 5 is_stmt 1 view .LVU31
 131 003e A0F1FF30 		sub	r0, r0, #-1
 132              	.LVL8:
 133              		.loc 1 355 5 is_stmt 0 view .LVU32
 134 0042 B0FA80F0 		clz	r0, r0
 135              	.LVL9:
 136              		.loc 1 355 5 view .LVU33
 137 0046 3649     		ldr	r1, .L13+8
 138 0048 4009     		lsrs	r0, r0, #5
 139 004a FFF7FEFF 		bl	_test_assert
 140              	.LVL10:
 141 004e 0446     		mov	r4, r0
 142 0050 08B1     		cbz	r0, .L12
 143              	.L5:
 144              		.loc 1 386 1 view .LVU34
 145 0052 03B0     		add	sp, sp, #12
 146              		.cfi_remember_state
 147              		.cfi_def_cfa_offset 20
 148              		@ sp needed
 149 0054 F0BD     		pop	{r4, r5, r6, r7, pc}
 150              	.L12:
 151              		.cfi_restore_state
 152              		.loc 1 355 62 is_stmt 1 view .LVU35
 153              		.loc 1 356 5 view .LVU36
 154              	.LBB1004:
 155              	.LBI1004:
 156              		.file 2 "../../../os/rt/include/chsys.h"
 157              		.loc 2 374 20 view .LVU37
 158              	.LBE1004:
 159              		.loc 2 376 3 view .LVU38
 160              	.LBB1009:
 161              	.LBB1005:
 162              	.LBI1005:
 163              		.file 3 "../../../os/common/ports/ARMCMx/chcore_v7m.h"
 164              		.loc 3 594 20 view .LVU39
 165              	.LBE1005:
 166              	.LBE1009:
 167              		.loc 3 602 3 view .LVU40
ARM GAS  /tmp/ccCget5K.s 			page 4


 168              	.LVL11:
 169              	.LBB1010:
 170              	.LBB1008:
 171              	.LBB1006:
 172              	.LBI1006:
 173              		.file 4 "../../../os/common/ext/CMSIS/include/cmsis_gcc.h"
 174              		.loc 4 262 57 view .LVU41
 175              	.LBB1007:
 176              		.loc 4 264 3 view .LVU42
 177 0056 2026     		movs	r6, #32
 178              		.syntax unified
 179              	@ 264 "../../../os/common/ext/CMSIS/include/cmsis_gcc.h" 1
 180 0058 86F31188 		MSR basepri, r6
 181              	@ 0 "" 2
 182              	.LVL12:
 183              		.loc 4 264 3 is_stmt 0 view .LVU43
 184              		.thumb
 185              		.syntax unified
 186              	.LBE1007:
 187              	.LBE1006:
 188              	.LBE1008:
 189              	.LBE1010:
 190              		.loc 2 377 34 is_stmt 1 view .LVU44
 191              		.loc 2 378 20 view .LVU45
 192              		.loc 1 357 5 view .LVU46
 193              		.loc 1 357 12 is_stmt 0 view .LVU47
 194 005c 5821     		movs	r1, #88
 195 005e 2F48     		ldr	r0, .L13+4
 196 0060 FFF7FEFF 		bl	chMBPostI
 197              	.LVL13:
 198              		.loc 1 358 5 is_stmt 1 view .LVU48
 199              	.LBB1011:
 200              	.LBI1011:
 201              		.loc 2 386 20 view .LVU49
 202              	.LBB1012:
 203              		.loc 2 388 22 view .LVU50
 204              		.loc 2 389 33 view .LVU51
 205              		.loc 2 395 3 view .LVU52
 206              		.loc 2 395 3 view .LVU53
 207              		.loc 2 395 3 view .LVU54
 208              		.loc 2 399 3 view .LVU55
 209              	.LBB1013:
 210              	.LBI1013:
 211              		.loc 3 618 20 view .LVU56
 212              	.LBE1013:
 213              	.LBE1012:
 214              	.LBE1011:
 215              		.loc 3 621 3 view .LVU57
 216              	.LBB1018:
 217              	.LBB1017:
 218              	.LBB1016:
 219              	.LBB1014:
 220              	.LBI1014:
 221              		.loc 4 262 57 view .LVU58
 222              	.LBB1015:
 223              		.loc 4 264 3 view .LVU59
 224              		.syntax unified
ARM GAS  /tmp/ccCget5K.s 			page 5


 225              	@ 264 "../../../os/common/ext/CMSIS/include/cmsis_gcc.h" 1
 226 0064 84F31188 		MSR basepri, r4
 227              	@ 0 "" 2
 228              	.LVL14:
 229              		.loc 4 264 3 is_stmt 0 view .LVU60
 230              		.thumb
 231              		.syntax unified
 232              	.LBE1015:
 233              	.LBE1014:
 234              	.LBE1016:
 235              	.LBE1017:
 236              	.LBE1018:
 237              		.loc 1 359 5 is_stmt 1 view .LVU61
 238 0068 A0F1FF30 		sub	r0, r0, #-1
 239              	.LVL15:
 240              		.loc 1 359 5 is_stmt 0 view .LVU62
 241 006c B0FA80F0 		clz	r0, r0
 242              	.LVL16:
 243              		.loc 1 359 5 view .LVU63
 244 0070 2B49     		ldr	r1, .L13+8
 245 0072 4009     		lsrs	r0, r0, #5
 246 0074 FFF7FEFF 		bl	_test_assert
 247              	.LVL17:
 248 0078 0028     		cmp	r0, #0
 249 007a EAD1     		bne	.L5
 250              		.loc 1 359 62 is_stmt 1 discriminator 2 view .LVU64
 251              		.loc 1 360 5 discriminator 2 view .LVU65
 252              		.loc 1 360 12 is_stmt 0 discriminator 2 view .LVU66
 253 007c 0122     		movs	r2, #1
 254 007e 5821     		movs	r1, #88
 255 0080 2648     		ldr	r0, .L13+4
 256 0082 FFF7FEFF 		bl	chMBPostAhead
 257              	.LVL18:
 258              		.loc 1 361 5 is_stmt 1 discriminator 2 view .LVU67
 259 0086 A0F1FF30 		sub	r0, r0, #-1
 260              	.LVL19:
 261              		.loc 1 361 5 is_stmt 0 discriminator 2 view .LVU68
 262 008a B0FA80F0 		clz	r0, r0
 263              	.LVL20:
 264              		.loc 1 361 5 discriminator 2 view .LVU69
 265 008e 2449     		ldr	r1, .L13+8
 266 0090 4009     		lsrs	r0, r0, #5
 267 0092 FFF7FEFF 		bl	_test_assert
 268              	.LVL21:
 269 0096 0446     		mov	r4, r0
 270 0098 0028     		cmp	r0, #0
 271 009a DAD1     		bne	.L5
 272              		.loc 1 361 62 is_stmt 1 view .LVU70
 273              		.loc 1 362 5 view .LVU71
 274              	.LBB1019:
 275              	.LBI1019:
 276              		.loc 2 374 20 view .LVU72
 277              	.LBE1019:
 278              		.loc 2 376 3 view .LVU73
 279              	.LBB1024:
 280              	.LBB1020:
 281              	.LBI1020:
ARM GAS  /tmp/ccCget5K.s 			page 6


 282              		.loc 3 594 20 view .LVU74
 283              	.LBE1020:
 284              	.LBE1024:
 285              		.loc 3 602 3 view .LVU75
 286              	.LVL22:
 287              	.LBB1025:
 288              	.LBB1023:
 289              	.LBB1021:
 290              	.LBI1021:
 291              		.loc 4 262 57 view .LVU76
 292              	.LBB1022:
 293              		.loc 4 264 3 view .LVU77
 294              		.syntax unified
 295              	@ 264 "../../../os/common/ext/CMSIS/include/cmsis_gcc.h" 1
 296 009c 86F31188 		MSR basepri, r6
 297              	@ 0 "" 2
 298              	.LVL23:
 299              		.loc 4 264 3 is_stmt 0 view .LVU78
 300              		.thumb
 301              		.syntax unified
 302              	.LBE1022:
 303              	.LBE1021:
 304              	.LBE1023:
 305              	.LBE1025:
 306              		.loc 2 377 34 is_stmt 1 view .LVU79
 307              		.loc 2 378 20 view .LVU80
 308              		.loc 1 363 5 view .LVU81
 309              		.loc 1 363 12 is_stmt 0 view .LVU82
 310 00a0 5821     		movs	r1, #88
 311 00a2 1E48     		ldr	r0, .L13+4
 312 00a4 FFF7FEFF 		bl	chMBPostAheadI
 313              	.LVL24:
 314              		.loc 1 364 5 is_stmt 1 view .LVU83
 315              	.LBB1026:
 316              	.LBI1026:
 317              		.loc 2 386 20 view .LVU84
 318              	.LBB1027:
 319              		.loc 2 388 22 view .LVU85
 320              		.loc 2 389 33 view .LVU86
 321              		.loc 2 395 3 view .LVU87
 322              		.loc 2 395 3 view .LVU88
 323              		.loc 2 395 3 view .LVU89
 324              		.loc 2 399 3 view .LVU90
 325              	.LBB1028:
 326              	.LBI1028:
 327              		.loc 3 618 20 view .LVU91
 328              	.LBE1028:
 329              	.LBE1027:
 330              	.LBE1026:
 331              		.loc 3 621 3 view .LVU92
 332              	.LBB1033:
 333              	.LBB1032:
 334              	.LBB1031:
 335              	.LBB1029:
 336              	.LBI1029:
 337              		.loc 4 262 57 view .LVU93
 338              	.LBB1030:
ARM GAS  /tmp/ccCget5K.s 			page 7


 339              		.loc 4 264 3 view .LVU94
 340              		.syntax unified
 341              	@ 264 "../../../os/common/ext/CMSIS/include/cmsis_gcc.h" 1
 342 00a8 84F31188 		MSR basepri, r4
 343              	@ 0 "" 2
 344              	.LVL25:
 345              		.loc 4 264 3 is_stmt 0 view .LVU95
 346              		.thumb
 347              		.syntax unified
 348              	.LBE1030:
 349              	.LBE1029:
 350              	.LBE1031:
 351              	.LBE1032:
 352              	.LBE1033:
 353              		.loc 1 365 5 is_stmt 1 view .LVU96
 354 00ac A0F1FF30 		sub	r0, r0, #-1
 355              	.LVL26:
 356              		.loc 1 365 5 is_stmt 0 view .LVU97
 357 00b0 B0FA80F0 		clz	r0, r0
 358              	.LVL27:
 359              		.loc 1 365 5 view .LVU98
 360 00b4 1A49     		ldr	r1, .L13+8
 361 00b6 4009     		lsrs	r0, r0, #5
 362 00b8 FFF7FEFF 		bl	_test_assert
 363              	.LVL28:
 364 00bc 0446     		mov	r4, r0
 365 00be 0028     		cmp	r0, #0
 366 00c0 C7D1     		bne	.L5
 367              		.loc 1 365 62 is_stmt 1 discriminator 2 view .LVU99
 368              		.loc 1 370 3 discriminator 2 view .LVU100
 369 00c2 0323     		movs	r3, #3
 370              		.loc 1 372 5 is_stmt 0 discriminator 2 view .LVU101
 371 00c4 1548     		ldr	r0, .L13+4
 372              		.loc 1 370 3 discriminator 2 view .LVU102
 373 00c6 3B60     		str	r3, [r7]
 374              		.loc 1 372 5 is_stmt 1 discriminator 2 view .LVU103
 375 00c8 FFF7FEFF 		bl	chMBReset
 376              	.LVL29:
 377              		.loc 1 373 5 discriminator 2 view .LVU104
 378              	.LBB1034:
 379              	.LBI1034:
 380              		.file 5 "../../../os/common/oslib/include/chmboxes.h"
 381              		.loc 5 201 20 discriminator 2 view .LVU105
 382              	.LBB1035:
 383              		.loc 5 203 3 discriminator 2 view .LVU106
 384              	.LBE1035:
 385              	.LBE1034:
 386              		.loc 1 377 3 is_stmt 0 discriminator 2 view .LVU107
 387 00cc 0423     		movs	r3, #4
 388              		.loc 1 379 12 discriminator 2 view .LVU108
 389 00ce 0DEB0301 		add	r1, sp, r3
 390 00d2 0122     		movs	r2, #1
 391 00d4 1148     		ldr	r0, .L13+4
 392              		.loc 1 377 3 discriminator 2 view .LVU109
 393 00d6 3B60     		str	r3, [r7]
 394              	.LBB1037:
 395              	.LBB1036:
ARM GAS  /tmp/ccCget5K.s 			page 8


 396              		.loc 5 203 14 discriminator 2 view .LVU110
 397 00d8 2C75     		strb	r4, [r5, #20]
 398              	.LVL30:
 399              		.loc 5 203 14 discriminator 2 view .LVU111
 400              	.LBE1036:
 401              	.LBE1037:
 402              		.loc 1 377 3 is_stmt 1 discriminator 2 view .LVU112
 403              		.loc 1 379 5 discriminator 2 view .LVU113
 404              		.loc 1 379 12 is_stmt 0 discriminator 2 view .LVU114
 405 00da FFF7FEFF 		bl	chMBFetch
 406              	.LVL31:
 407              		.loc 1 380 5 is_stmt 1 discriminator 2 view .LVU115
 408 00de A0F1FF30 		sub	r0, r0, #-1
 409              	.LVL32:
 410              		.loc 1 380 5 is_stmt 0 discriminator 2 view .LVU116
 411 00e2 B0FA80F0 		clz	r0, r0
 412              	.LVL33:
 413              		.loc 1 380 5 discriminator 2 view .LVU117
 414 00e6 0E49     		ldr	r1, .L13+8
 415 00e8 4009     		lsrs	r0, r0, #5
 416 00ea FFF7FEFF 		bl	_test_assert
 417              	.LVL34:
 418 00ee 0446     		mov	r4, r0
 419 00f0 0028     		cmp	r0, #0
 420 00f2 AED1     		bne	.L5
 421              		.loc 1 380 62 is_stmt 1 view .LVU118
 422              		.loc 1 381 5 view .LVU119
 423              	.LBB1038:
 424              	.LBI1038:
 425              		.loc 2 374 20 view .LVU120
 426              	.LBE1038:
 427              		.loc 2 376 3 view .LVU121
 428              	.LBB1043:
 429              	.LBB1039:
 430              	.LBI1039:
 431              		.loc 3 594 20 view .LVU122
 432              	.LBE1039:
 433              	.LBE1043:
 434              		.loc 3 602 3 view .LVU123
 435              	.LVL35:
 436              	.LBB1044:
 437              	.LBB1042:
 438              	.LBB1040:
 439              	.LBI1040:
 440              		.loc 4 262 57 view .LVU124
 441              	.LBB1041:
 442              		.loc 4 264 3 view .LVU125
 443              		.syntax unified
 444              	@ 264 "../../../os/common/ext/CMSIS/include/cmsis_gcc.h" 1
 445 00f4 86F31188 		MSR basepri, r6
 446              	@ 0 "" 2
 447              	.LVL36:
 448              		.loc 4 264 3 is_stmt 0 view .LVU126
 449              		.thumb
 450              		.syntax unified
 451              	.LBE1041:
 452              	.LBE1040:
ARM GAS  /tmp/ccCget5K.s 			page 9


 453              	.LBE1042:
 454              	.LBE1044:
 455              		.loc 2 377 34 is_stmt 1 view .LVU127
 456              		.loc 2 378 20 view .LVU128
 457              		.loc 1 382 5 view .LVU129
 458              		.loc 1 382 12 is_stmt 0 view .LVU130
 459 00f8 0848     		ldr	r0, .L13+4
 460 00fa 01A9     		add	r1, sp, #4
 461 00fc FFF7FEFF 		bl	chMBFetchI
 462              	.LVL37:
 463              		.loc 1 383 5 is_stmt 1 view .LVU131
 464              	.LBB1045:
 465              	.LBI1045:
 466              		.loc 2 386 20 view .LVU132
 467              	.LBB1046:
 468              		.loc 2 388 22 view .LVU133
 469              		.loc 2 389 33 view .LVU134
 470              		.loc 2 395 3 view .LVU135
 471              		.loc 2 395 3 view .LVU136
 472              		.loc 2 395 3 view .LVU137
 473              		.loc 2 399 3 view .LVU138
 474              	.LBB1047:
 475              	.LBI1047:
 476              		.loc 3 618 20 view .LVU139
 477              	.LBE1047:
 478              	.LBE1046:
 479              	.LBE1045:
 480              		.loc 3 621 3 view .LVU140
 481              	.LBB1052:
 482              	.LBB1051:
 483              	.LBB1050:
 484              	.LBB1048:
 485              	.LBI1048:
 486              		.loc 4 262 57 view .LVU141
 487              	.LBB1049:
 488              		.loc 4 264 3 view .LVU142
 489              		.syntax unified
 490              	@ 264 "../../../os/common/ext/CMSIS/include/cmsis_gcc.h" 1
 491 0100 84F31188 		MSR basepri, r4
 492              	@ 0 "" 2
 493              	.LVL38:
 494              		.loc 4 264 3 is_stmt 0 view .LVU143
 495              		.thumb
 496              		.syntax unified
 497              	.LBE1049:
 498              	.LBE1048:
 499              	.LBE1050:
 500              	.LBE1051:
 501              	.LBE1052:
 502              		.loc 1 384 5 is_stmt 1 view .LVU144
 503 0104 A0F1FF30 		sub	r0, r0, #-1
 504              	.LVL39:
 505              		.loc 1 384 5 is_stmt 0 view .LVU145
 506 0108 B0FA80F0 		clz	r0, r0
 507              	.LVL40:
 508              		.loc 1 384 5 view .LVU146
 509 010c 0449     		ldr	r1, .L13+8
ARM GAS  /tmp/ccCget5K.s 			page 10


 510 010e 4009     		lsrs	r0, r0, #5
 511 0110 FFF7FEFF 		bl	_test_assert
 512              	.LVL41:
 513              		.loc 1 384 5 is_stmt 1 view .LVU147
 514 0114 9DE7     		b	.L5
 515              	.L14:
 516 0116 00BF     		.align	2
 517              	.L13:
 518 0118 00000000 		.word	test_step
 519 011c 00000000 		.word	.LANCHOR0
 520 0120 00000000 		.word	.LC0
 521              		.cfi_endproc
 522              	.LFE285:
 523              		.size	test_008_003_execute, .-test_008_003_execute
 524              		.section	.text.test_008_001_setup,"ax",%progbits
 525              		.align	1
 526              		.p2align 4,,15
 527              		.syntax unified
 528              		.thumb
 529              		.thumb_func
 530              		.fpu softvfp
 531              		.type	test_008_001_setup, %function
 532              	test_008_001_setup:
 533              	.LFB277:
 534              		.loc 1 87 38 view -0
 535              		.cfi_startproc
 536              		@ args = 0, pretend = 0, frame = 0
 537              		@ frame_needed = 0, uses_anonymous_args = 0
 538              		@ link register save eliminated.
 539              		.loc 1 88 3 view .LVU149
 540 0000 0249     		ldr	r1, .L16
 541 0002 0348     		ldr	r0, .L16+4
 542 0004 0422     		movs	r2, #4
 543 0006 FFF7FEBF 		b	chMBObjectInit
 544              	.LVL42:
 545              	.L17:
 546 000a 00BF     		.align	2
 547              	.L16:
 548 000c 00000000 		.word	.LANCHOR1
 549 0010 00000000 		.word	.LANCHOR0
 550              		.cfi_endproc
 551              	.LFE277:
 552              		.size	test_008_001_setup, .-test_008_001_setup
 553              		.section	.rodata.test_008_002_execute.str1.4,"aMS",%progbits,1
 554              		.align	2
 555              	.LC1:
 556 0000 77726F6E 		.ascii	"wrong size\000"
 556      67207369 
 556      7A6500
 557 000b 00       		.align	2
 558              	.LC2:
 559 000c 6E6F7420 		.ascii	"not empty\000"
 559      656D7074 
 559      7900
 560 0016 0000     		.align	2
 561              	.LC3:
 562 0018 7374696C 		.ascii	"still full\000"
ARM GAS  /tmp/ccCget5K.s 			page 11


 562      6C206675 
 562      6C6C00
 563 0023 00       		.align	2
 564              	.LC4:
 565 0024 77726974 		.ascii	"write pointer not aligned to base\000"
 565      6520706F 
 565      696E7465 
 565      72206E6F 
 565      7420616C 
 566 0046 0000     		.align	2
 567              	.LC5:
 568 0048 72656164 		.ascii	"read pointer not aligned to base\000"
 568      20706F69 
 568      6E746572 
 568      206E6F74 
 568      20616C69 
 569 0069 000000   		.align	2
 570              	.LC6:
 571 006c 7374696C 		.ascii	"still empty\000"
 571      6C20656D 
 571      70747900 
 572              		.align	2
 573              	.LC7:
 574 0078 6E6F7420 		.ascii	"not full\000"
 574      66756C6C 
 574      00
 575 0081 000000   		.align	2
 576              	.LC8:
 577 0084 706F696E 		.ascii	"pointers not aligned\000"
 577      74657273 
 577      206E6F74 
 577      20616C69 
 577      676E6564 
 578 0099 000000   		.align	2
 579              	.LC9:
 580 009c 77726F6E 		.ascii	"wrong get sequence\000"
 580      67206765 
 580      74207365 
 580      7175656E 
 580      636500
 581 00af 00       		.align	2
 582              	.LC10:
 583 00b0 41424344 		.ascii	"ABCD\000"
 583      00
 584              		.section	.text.test_008_002_execute,"ax",%progbits
 585              		.align	1
 586              		.p2align 4,,15
 587              		.syntax unified
 588              		.thumb
 589              		.thumb_func
 590              		.fpu softvfp
 591              		.type	test_008_002_execute, %function
 592              	test_008_002_execute:
 593              	.LFB282:
 594              		.loc 1 222 40 view -0
 595              		.cfi_startproc
 596              		@ args = 0, pretend = 0, frame = 8
ARM GAS  /tmp/ccCget5K.s 			page 12


 597              		@ frame_needed = 0, uses_anonymous_args = 0
 598              		.loc 1 223 3 view .LVU151
 599              		.loc 1 224 3 view .LVU152
 600              		.loc 1 227 3 view .LVU153
 601              		.loc 1 222 40 is_stmt 0 view .LVU154
 602 0000 2DE9F043 		push	{r4, r5, r6, r7, r8, r9, lr}
 603              		.cfi_def_cfa_offset 28
 604              		.cfi_offset 4, -28
 605              		.cfi_offset 5, -24
 606              		.cfi_offset 6, -20
 607              		.cfi_offset 7, -16
 608              		.cfi_offset 8, -12
 609              		.cfi_offset 9, -8
 610              		.cfi_offset 14, -4
 611              		.loc 1 227 3 view .LVU155
 612 0004 AB4F     		ldr	r7, .L43
 613 0006 0123     		movs	r3, #1
 614              		.loc 1 222 40 view .LVU156
 615 0008 83B0     		sub	sp, sp, #12
 616              		.cfi_def_cfa_offset 40
 617              		.loc 1 227 3 view .LVU157
 618 000a 3B60     		str	r3, [r7]
 619              		.loc 1 229 5 is_stmt 1 view .LVU158
 620              	.LBB1310:
 621              	.LBI1310:
 622              		.file 6 "../../../os/hal/osal/rt/osal.h"
 623              		.loc 6 491 20 view .LVU159
 624              	.LBE1310:
 625              		.loc 6 493 3 view .LVU160
 626              	.LBB1318:
 627              	.LBB1311:
 628              	.LBI1311:
 629              		.loc 2 374 20 view .LVU161
 630              	.LBE1311:
 631              	.LBE1318:
 632              		.loc 2 376 3 view .LVU162
 633              	.LBB1319:
 634              	.LBB1316:
 635              	.LBB1312:
 636              	.LBI1312:
 637              		.loc 3 594 20 view .LVU163
 638              	.LBE1312:
 639              	.LBE1316:
 640              	.LBE1319:
 641              		.loc 3 602 3 view .LVU164
 642              	.LVL43:
 643              	.LBB1320:
 644              	.LBB1317:
 645              	.LBB1315:
 646              	.LBB1313:
 647              	.LBI1313:
 648              		.loc 4 262 57 view .LVU165
 649              	.LBB1314:
 650              		.loc 4 264 3 view .LVU166
 651 000c 2026     		movs	r6, #32
 652              		.syntax unified
 653              	@ 264 "../../../os/common/ext/CMSIS/include/cmsis_gcc.h" 1
ARM GAS  /tmp/ccCget5K.s 			page 13


 654 000e 86F31188 		MSR basepri, r6
 655              	@ 0 "" 2
 656              	.LVL44:
 657              		.loc 4 264 3 is_stmt 0 view .LVU167
 658              		.thumb
 659              		.syntax unified
 660              	.LBE1314:
 661              	.LBE1313:
 662              	.LBE1315:
 663              	.LBE1317:
 664              	.LBE1320:
 665              		.loc 2 377 34 is_stmt 1 view .LVU168
 666              		.loc 2 378 20 view .LVU169
 667              		.loc 1 229 5 view .LVU170
 668              	.LBB1321:
 669              	.LBI1321:
 670              		.loc 5 168 21 view .LVU171
 671              	.LBB1322:
 672              		.loc 5 170 21 view .LVU172
 673              		.loc 5 172 3 view .LVU173
 674              	.LBB1323:
 675              	.LBI1323:
 676              		.loc 5 136 21 view .LVU174
 677              	.LBB1324:
 678              		.loc 5 140 3 view .LVU175
 679              		.loc 5 140 3 is_stmt 0 view .LVU176
 680              	.LBE1324:
 681              	.LBE1323:
 682              	.LBB1327:
 683              	.LBI1327:
 684              		.loc 5 153 21 is_stmt 1 view .LVU177
 685              	.LBB1328:
 686              		.loc 5 155 21 view .LVU178
 687              		.loc 5 157 3 view .LVU179
 688              		.loc 5 157 3 is_stmt 0 view .LVU180
 689              	.LBE1328:
 690              	.LBE1327:
 691              	.LBB1329:
 692              	.LBB1325:
 693              		.loc 5 140 21 view .LVU181
 694 0012 A94C     		ldr	r4, .L43+4
 695              	.LBE1325:
 696              	.LBE1329:
 697              	.LBE1322:
 698              	.LBE1321:
 699              		.loc 1 229 5 view .LVU182
 700 0014 A949     		ldr	r1, .L43+8
 701              	.LBB1332:
 702              	.LBB1331:
 703              	.LBB1330:
 704              	.LBB1326:
 705              		.loc 5 140 27 view .LVU183
 706 0016 D4E90030 		ldrd	r3, r0, [r4]
 707 001a C31A     		subs	r3, r0, r3
 708              	.LBE1326:
 709              	.LBE1330:
 710              		.loc 5 172 28 view .LVU184
ARM GAS  /tmp/ccCget5K.s 			page 14


 711 001c 2069     		ldr	r0, [r4, #16]
 712 001e C0EBA300 		rsb	r0, r0, r3, asr #2
 713              	.LBE1331:
 714              	.LBE1332:
 715              		.loc 1 229 5 view .LVU185
 716 0022 A0F10400 		sub	r0, #4
 717 0026 B0FA80F0 		clz	r0, r0
 718 002a 4009     		lsrs	r0, r0, #5
 719 002c FFF7FEFF 		bl	_test_assert
 720              	.LVL45:
 721 0030 28B1     		cbz	r0, .L19
 722              		.loc 1 229 5 is_stmt 1 view .LVU186
 723              	.LBB1333:
 724              	.LBI1333:
 725              		.loc 6 502 20 view .LVU187
 726              	.LBE1333:
 727              		.loc 6 504 3 view .LVU188
 728              	.LBB1342:
 729              	.LBB1334:
 730              	.LBI1334:
 731              		.loc 2 386 20 view .LVU189
 732              	.LBB1335:
 733              		.loc 2 388 22 view .LVU190
 734              		.loc 2 389 33 view .LVU191
 735              		.loc 2 395 3 view .LVU192
 736              		.loc 2 395 3 view .LVU193
 737              		.loc 2 395 3 view .LVU194
 738              		.loc 2 399 3 view .LVU195
 739              	.LBB1336:
 740              	.LBI1336:
 741              		.loc 3 618 20 view .LVU196
 742              	.LBE1336:
 743              	.LBE1335:
 744              	.LBE1334:
 745              	.LBE1342:
 746              		.loc 3 621 3 view .LVU197
 747              	.LVL46:
 748              	.LBB1343:
 749              	.LBB1341:
 750              	.LBB1340:
 751              	.LBB1339:
 752              	.LBB1337:
 753              	.LBI1337:
 754              		.loc 4 262 57 view .LVU198
 755              	.LBB1338:
 756              		.loc 4 264 3 view .LVU199
 757 0032 0023     		movs	r3, #0
 758              		.syntax unified
 759              	@ 264 "../../../os/common/ext/CMSIS/include/cmsis_gcc.h" 1
 760 0034 83F31188 		MSR basepri, r3
 761              	@ 0 "" 2
 762              	.LVL47:
 763              		.loc 4 264 3 is_stmt 0 view .LVU200
 764              		.thumb
 765              		.syntax unified
 766              	.LBE1338:
 767              	.LBE1337:
ARM GAS  /tmp/ccCget5K.s 			page 15


 768              	.LBE1339:
 769              	.LBE1340:
 770              	.LBE1341:
 771              	.LBE1343:
 772              		.loc 1 229 5 is_stmt 1 view .LVU201
 773              	.L18:
 774              		.loc 1 304 1 is_stmt 0 view .LVU202
 775 0038 03B0     		add	sp, sp, #12
 776              		.cfi_remember_state
 777              		.cfi_def_cfa_offset 28
 778              		@ sp needed
 779 003a BDE8F083 		pop	{r4, r5, r6, r7, r8, r9, pc}
 780              	.L19:
 781              		.cfi_restore_state
 782              	.LBB1344:
 783              	.LBI1344:
 784              		.loc 1 222 13 is_stmt 1 view .LVU203
 785              	.LBB1345:
 786              		.loc 1 229 5 view .LVU204
 787              	.LBB1346:
 788              	.LBI1346:
 789              		.loc 6 502 20 view .LVU205
 790              	.LBE1346:
 791              	.LBE1345:
 792              	.LBE1344:
 793              		.loc 6 504 3 view .LVU206
 794              	.LBB1771:
 795              	.LBB1690:
 796              	.LBB1355:
 797              	.LBB1347:
 798              	.LBI1347:
 799              		.loc 2 386 20 view .LVU207
 800              	.LBB1348:
 801              		.loc 2 388 22 view .LVU208
 802              		.loc 2 389 33 view .LVU209
 803              		.loc 2 395 3 view .LVU210
 804              		.loc 2 395 3 view .LVU211
 805              		.loc 2 395 3 view .LVU212
 806              		.loc 2 399 3 view .LVU213
 807              	.LBB1349:
 808              	.LBI1349:
 809              		.loc 3 618 20 view .LVU214
 810              	.LBE1349:
 811              	.LBE1348:
 812              	.LBE1347:
 813              	.LBE1355:
 814              	.LBE1690:
 815              	.LBE1771:
 816              		.loc 3 621 3 view .LVU215
 817              	.LVL48:
 818              	.LBB1772:
 819              	.LBB1691:
 820              	.LBB1356:
 821              	.LBB1354:
 822              	.LBB1353:
 823              	.LBB1352:
 824              	.LBB1350:
ARM GAS  /tmp/ccCget5K.s 			page 16


 825              	.LBI1350:
 826              		.loc 4 262 57 view .LVU216
 827              	.LBB1351:
 828              		.loc 4 264 3 view .LVU217
 829 003e 0546     		mov	r5, r0
 830              		.syntax unified
 831              	@ 264 "../../../os/common/ext/CMSIS/include/cmsis_gcc.h" 1
 832 0040 80F31188 		MSR basepri, r0
 833              	@ 0 "" 2
 834              	.LVL49:
 835              		.loc 4 264 3 is_stmt 0 view .LVU218
 836              		.thumb
 837              		.syntax unified
 838              	.LBE1351:
 839              	.LBE1350:
 840              	.LBE1352:
 841              	.LBE1353:
 842              	.LBE1354:
 843              	.LBE1356:
 844              		.loc 1 229 71 is_stmt 1 view .LVU219
 845              		.loc 1 234 3 view .LVU220
 846 0044 0223     		movs	r3, #2
 847 0046 3B60     		str	r3, [r7]
 848              		.loc 1 236 5 view .LVU221
 849              	.LBB1357:
 850              	.LBI1357:
 851              		.loc 2 374 20 view .LVU222
 852              	.LBE1357:
 853              	.LBE1691:
 854              	.LBE1772:
 855              		.loc 2 376 3 view .LVU223
 856              	.LBB1773:
 857              	.LBB1692:
 858              	.LBB1362:
 859              	.LBB1358:
 860              	.LBI1358:
 861              		.loc 3 594 20 view .LVU224
 862              	.LBE1358:
 863              	.LBE1362:
 864              	.LBE1692:
 865              	.LBE1773:
 866              		.loc 3 602 3 view .LVU225
 867              	.LVL50:
 868              	.LBB1774:
 869              	.LBB1693:
 870              	.LBB1363:
 871              	.LBB1361:
 872              	.LBB1359:
 873              	.LBI1359:
 874              		.loc 4 262 57 view .LVU226
 875              	.LBB1360:
 876              		.loc 4 264 3 view .LVU227
 877              		.syntax unified
 878              	@ 264 "../../../os/common/ext/CMSIS/include/cmsis_gcc.h" 1
 879 0048 86F31188 		MSR basepri, r6
 880              	@ 0 "" 2
 881              	.LVL51:
ARM GAS  /tmp/ccCget5K.s 			page 17


 882              		.loc 4 264 3 is_stmt 0 view .LVU228
 883              		.thumb
 884              		.syntax unified
 885              	.LBE1360:
 886              	.LBE1359:
 887              	.LBE1361:
 888              	.LBE1363:
 889              	.LBE1693:
 890              	.LBE1774:
 891              		.loc 2 377 34 is_stmt 1 view .LVU229
 892              		.loc 2 378 20 view .LVU230
 893              	.LBB1775:
 894              	.LBB1694:
 895              		.loc 1 237 5 view .LVU231
 896 004c 2046     		mov	r0, r4
 897 004e FFF7FEFF 		bl	chMBResetI
 898              	.LVL52:
 899              		.loc 1 238 5 view .LVU232
 900              	.LBB1364:
 901              	.LBI1364:
 902              		.loc 2 386 20 view .LVU233
 903              	.LBB1365:
 904              		.loc 2 388 22 view .LVU234
 905              		.loc 2 389 33 view .LVU235
 906              		.loc 2 395 3 view .LVU236
 907              		.loc 2 395 3 view .LVU237
 908              		.loc 2 395 3 view .LVU238
 909              		.loc 2 399 3 view .LVU239
 910              	.LBB1366:
 911              	.LBI1366:
 912              		.loc 3 618 20 view .LVU240
 913              	.LBE1366:
 914              	.LBE1365:
 915              	.LBE1364:
 916              	.LBE1694:
 917              	.LBE1775:
 918              		.loc 3 621 3 view .LVU241
 919              	.LBB1776:
 920              	.LBB1695:
 921              	.LBB1371:
 922              	.LBB1370:
 923              	.LBB1369:
 924              	.LBB1367:
 925              	.LBI1367:
 926              		.loc 4 262 57 view .LVU242
 927              	.LBB1368:
 928              		.loc 4 264 3 view .LVU243
 929              		.syntax unified
 930              	@ 264 "../../../os/common/ext/CMSIS/include/cmsis_gcc.h" 1
 931 0052 85F31188 		MSR basepri, r5
 932              	@ 0 "" 2
 933              	.LVL53:
 934              		.loc 4 264 3 is_stmt 0 view .LVU244
 935              		.thumb
 936              		.syntax unified
 937              	.LBE1368:
 938              	.LBE1367:
ARM GAS  /tmp/ccCget5K.s 			page 18


 939              	.LBE1369:
 940              	.LBE1370:
 941              	.LBE1371:
 942              		.loc 1 239 5 is_stmt 1 view .LVU245
 943              	.LBB1372:
 944              	.LBI1372:
 945              		.loc 6 491 20 view .LVU246
 946              	.LBE1372:
 947              	.LBE1695:
 948              	.LBE1776:
 949              		.loc 6 493 3 view .LVU247
 950              	.LBB1777:
 951              	.LBB1696:
 952              	.LBB1380:
 953              	.LBB1373:
 954              	.LBI1373:
 955              		.loc 2 374 20 view .LVU248
 956              	.LBE1373:
 957              	.LBE1380:
 958              	.LBE1696:
 959              	.LBE1777:
 960              		.loc 2 376 3 view .LVU249
 961              	.LBB1778:
 962              	.LBB1697:
 963              	.LBB1381:
 964              	.LBB1378:
 965              	.LBB1374:
 966              	.LBI1374:
 967              		.loc 3 594 20 view .LVU250
 968              	.LBE1374:
 969              	.LBE1378:
 970              	.LBE1381:
 971              	.LBE1697:
 972              	.LBE1778:
 973              		.loc 3 602 3 view .LVU251
 974              	.LBB1779:
 975              	.LBB1698:
 976              	.LBB1382:
 977              	.LBB1379:
 978              	.LBB1377:
 979              	.LBB1375:
 980              	.LBI1375:
 981              		.loc 4 262 57 view .LVU252
 982              	.LBB1376:
 983              		.loc 4 264 3 view .LVU253
 984              		.syntax unified
 985              	@ 264 "../../../os/common/ext/CMSIS/include/cmsis_gcc.h" 1
 986 0056 86F31188 		MSR basepri, r6
 987              	@ 0 "" 2
 988              	.LVL54:
 989              		.loc 4 264 3 is_stmt 0 view .LVU254
 990              		.thumb
 991              		.syntax unified
 992              	.LBE1376:
 993              	.LBE1375:
 994              	.LBE1377:
 995              	.LBE1379:
ARM GAS  /tmp/ccCget5K.s 			page 19


 996              	.LBE1382:
 997              	.LBE1698:
 998              	.LBE1779:
 999              		.loc 2 377 34 is_stmt 1 view .LVU255
 1000              		.loc 2 378 20 view .LVU256
 1001              	.LBB1780:
 1002              	.LBB1699:
 1003              		.loc 1 239 5 view .LVU257
 1004              	.LBB1383:
 1005              	.LBI1383:
 1006              		.loc 5 168 21 view .LVU258
 1007              	.LBB1384:
 1008              		.loc 5 170 21 view .LVU259
 1009              		.loc 5 172 3 view .LVU260
 1010              	.LBB1385:
 1011              	.LBI1385:
 1012              		.loc 5 136 21 view .LVU261
 1013              	.LBB1386:
 1014              		.loc 5 140 3 view .LVU262
 1015              		.loc 5 140 3 is_stmt 0 view .LVU263
 1016              	.LBE1386:
 1017              	.LBE1385:
 1018              	.LBB1388:
 1019              	.LBI1388:
 1020              		.loc 5 153 21 is_stmt 1 view .LVU264
 1021              	.LBB1389:
 1022              		.loc 5 155 21 view .LVU265
 1023              		.loc 5 157 3 view .LVU266
 1024              		.loc 5 157 3 is_stmt 0 view .LVU267
 1025              	.LBE1389:
 1026              	.LBE1388:
 1027              	.LBB1390:
 1028              	.LBB1387:
 1029              		.loc 5 140 27 view .LVU268
 1030 005a D4E90030 		ldrd	r3, r0, [r4]
 1031 005e C31A     		subs	r3, r0, r3
 1032              	.LBE1387:
 1033              	.LBE1390:
 1034              		.loc 5 172 28 view .LVU269
 1035 0060 2069     		ldr	r0, [r4, #16]
 1036              	.LBE1384:
 1037              	.LBE1383:
 1038              		.loc 1 239 5 view .LVU270
 1039 0062 9749     		ldr	r1, .L43+12
 1040              	.LBB1392:
 1041              	.LBB1391:
 1042              		.loc 5 172 28 view .LVU271
 1043 0064 C0EBA300 		rsb	r0, r0, r3, asr #2
 1044              	.LBE1391:
 1045              	.LBE1392:
 1046              		.loc 1 239 5 view .LVU272
 1047 0068 A0F10400 		sub	r0, #4
 1048 006c B0FA80F0 		clz	r0, r0
 1049 0070 4009     		lsrs	r0, r0, #5
 1050 0072 FFF7FEFF 		bl	_test_assert
 1051              	.LVL55:
 1052 0076 8046     		mov	r8, r0
ARM GAS  /tmp/ccCget5K.s 			page 20


 1053 0078 88B9     		cbnz	r0, .L41
 1054              		.loc 1 239 5 is_stmt 1 view .LVU273
 1055              	.LBB1393:
 1056              	.LBI1393:
 1057              		.loc 6 502 20 view .LVU274
 1058              	.LBE1393:
 1059              	.LBE1699:
 1060              	.LBE1780:
 1061              		.loc 6 504 3 view .LVU275
 1062              	.LBB1781:
 1063              	.LBB1700:
 1064              	.LBB1402:
 1065              	.LBB1394:
 1066              	.LBI1394:
 1067              		.loc 2 386 20 view .LVU276
 1068              	.LBB1395:
 1069              		.loc 2 388 22 view .LVU277
 1070              		.loc 2 389 33 view .LVU278
 1071              		.loc 2 395 3 view .LVU279
 1072              		.loc 2 395 3 view .LVU280
 1073              		.loc 2 395 3 view .LVU281
 1074              		.loc 2 399 3 view .LVU282
 1075              	.LBB1396:
 1076              	.LBI1396:
 1077              		.loc 3 618 20 view .LVU283
 1078              	.LBE1396:
 1079              	.LBE1395:
 1080              	.LBE1394:
 1081              	.LBE1402:
 1082              	.LBE1700:
 1083              	.LBE1781:
 1084              		.loc 3 621 3 view .LVU284
 1085              	.LVL56:
 1086              	.LBB1782:
 1087              	.LBB1701:
 1088              	.LBB1403:
 1089              	.LBB1401:
 1090              	.LBB1400:
 1091              	.LBB1399:
 1092              	.LBB1397:
 1093              	.LBI1397:
 1094              		.loc 4 262 57 view .LVU285
 1095              	.LBB1398:
 1096              		.loc 4 264 3 view .LVU286
 1097              		.syntax unified
 1098              	@ 264 "../../../os/common/ext/CMSIS/include/cmsis_gcc.h" 1
 1099 007a 80F31188 		MSR basepri, r0
 1100              	@ 0 "" 2
 1101              	.LVL57:
 1102              		.loc 4 264 3 is_stmt 0 view .LVU287
 1103              		.thumb
 1104              		.syntax unified
 1105              	.LBE1398:
 1106              	.LBE1397:
 1107              	.LBE1399:
 1108              	.LBE1400:
 1109              	.LBE1401:
ARM GAS  /tmp/ccCget5K.s 			page 21


 1110              	.LBE1403:
 1111              		.loc 1 239 70 is_stmt 1 view .LVU288
 1112              		.loc 1 240 5 view .LVU289
 1113              	.LBB1404:
 1114              	.LBI1404:
 1115              		.loc 6 491 20 view .LVU290
 1116              	.LBE1404:
 1117              	.LBE1701:
 1118              	.LBE1782:
 1119              		.loc 6 493 3 view .LVU291
 1120              	.LBB1783:
 1121              	.LBB1702:
 1122              	.LBB1412:
 1123              	.LBB1405:
 1124              	.LBI1405:
 1125              		.loc 2 374 20 view .LVU292
 1126              	.LBE1405:
 1127              	.LBE1412:
 1128              	.LBE1702:
 1129              	.LBE1783:
 1130              		.loc 2 376 3 view .LVU293
 1131              	.LBB1784:
 1132              	.LBB1703:
 1133              	.LBB1413:
 1134              	.LBB1410:
 1135              	.LBB1406:
 1136              	.LBI1406:
 1137              		.loc 3 594 20 view .LVU294
 1138              	.LBE1406:
 1139              	.LBE1410:
 1140              	.LBE1413:
 1141              	.LBE1703:
 1142              	.LBE1784:
 1143              		.loc 3 602 3 view .LVU295
 1144              	.LBB1785:
 1145              	.LBB1704:
 1146              	.LBB1414:
 1147              	.LBB1411:
 1148              	.LBB1409:
 1149              	.LBB1407:
 1150              	.LBI1407:
 1151              		.loc 4 262 57 view .LVU296
 1152              	.LBB1408:
 1153              		.loc 4 264 3 view .LVU297
 1154              		.syntax unified
 1155              	@ 264 "../../../os/common/ext/CMSIS/include/cmsis_gcc.h" 1
 1156 007e 86F31188 		MSR basepri, r6
 1157              	@ 0 "" 2
 1158              	.LVL58:
 1159              		.loc 4 264 3 is_stmt 0 view .LVU298
 1160              		.thumb
 1161              		.syntax unified
 1162              	.LBE1408:
 1163              	.LBE1407:
 1164              	.LBE1409:
 1165              	.LBE1411:
 1166              	.LBE1414:
ARM GAS  /tmp/ccCget5K.s 			page 22


 1167              	.LBE1704:
 1168              	.LBE1785:
 1169              		.loc 2 377 34 is_stmt 1 view .LVU299
 1170              		.loc 2 378 20 view .LVU300
 1171              	.LBB1786:
 1172              	.LBB1705:
 1173              		.loc 1 240 5 view .LVU301
 1174              	.LBB1415:
 1175              	.LBI1415:
 1176              		.loc 5 153 21 view .LVU302
 1177              	.LBB1416:
 1178              		.loc 5 155 21 view .LVU303
 1179              		.loc 5 157 3 view .LVU304
 1180              		.loc 5 157 3 is_stmt 0 view .LVU305
 1181              	.LBE1416:
 1182              	.LBE1415:
 1183              		.loc 1 240 5 view .LVU306
 1184 0082 2069     		ldr	r0, [r4, #16]
 1185 0084 8F49     		ldr	r1, .L43+16
 1186 0086 B0FA80F0 		clz	r0, r0
 1187 008a 4009     		lsrs	r0, r0, #5
 1188 008c FFF7FEFF 		bl	_test_assert
 1189              	.LVL59:
 1190 0090 0546     		mov	r5, r0
 1191 0092 48B1     		cbz	r0, .L23
 1192              	.L42:
 1193              		.loc 1 267 5 is_stmt 1 view .LVU307
 1194              	.LBB1417:
 1195              	.LBI1417:
 1196              		.loc 6 502 20 view .LVU308
 1197              	.LBE1417:
 1198              	.LBE1705:
 1199              	.LBE1786:
 1200              		.loc 6 504 3 view .LVU309
 1201              	.LBB1787:
 1202              	.LBB1706:
 1203              	.LBB1426:
 1204              	.LBB1418:
 1205              	.LBI1418:
 1206              		.loc 2 386 20 view .LVU310
 1207              	.LBB1419:
 1208              		.loc 2 388 22 view .LVU311
 1209              		.loc 2 389 33 view .LVU312
 1210              		.loc 2 395 3 view .LVU313
 1211              		.loc 2 395 3 view .LVU314
 1212              		.loc 2 395 3 view .LVU315
 1213              		.loc 2 399 3 view .LVU316
 1214              	.LBB1420:
 1215              	.LBI1420:
 1216              		.loc 3 618 20 view .LVU317
 1217              	.LBE1420:
 1218              	.LBE1419:
 1219              	.LBE1418:
 1220              	.LBE1426:
 1221              	.LBE1706:
 1222              	.LBE1787:
 1223              		.loc 3 621 3 view .LVU318
ARM GAS  /tmp/ccCget5K.s 			page 23


 1224              	.LVL60:
 1225              	.LBB1788:
 1226              	.LBB1707:
 1227              	.LBB1427:
 1228              	.LBB1425:
 1229              	.LBB1424:
 1230              	.LBB1423:
 1231              	.LBB1421:
 1232              	.LBI1421:
 1233              		.loc 4 262 57 view .LVU319
 1234              	.LBB1422:
 1235              		.loc 4 264 3 view .LVU320
 1236              		.syntax unified
 1237              	@ 264 "../../../os/common/ext/CMSIS/include/cmsis_gcc.h" 1
 1238 0094 88F31188 		MSR basepri, r8
 1239              	@ 0 "" 2
 1240              	.LVL61:
 1241              		.loc 4 264 3 is_stmt 0 view .LVU321
 1242              		.thumb
 1243              		.syntax unified
 1244              	.LBE1422:
 1245              	.LBE1421:
 1246              	.LBE1423:
 1247              	.LBE1424:
 1248              	.LBE1425:
 1249              	.LBE1427:
 1250              		.loc 1 267 5 is_stmt 1 view .LVU322
 1251              	.LBE1707:
 1252              	.LBE1788:
 1253              		.loc 1 304 1 is_stmt 0 view .LVU323
 1254 0098 03B0     		add	sp, sp, #12
 1255              		.cfi_remember_state
 1256              		.cfi_def_cfa_offset 28
 1257              		@ sp needed
 1258 009a BDE8F083 		pop	{r4, r5, r6, r7, r8, r9, pc}
 1259              	.L41:
 1260              		.cfi_restore_state
 1261              	.LBB1789:
 1262              	.LBB1708:
 1263              		.loc 1 268 5 is_stmt 1 view .LVU324
 1264              	.LBB1428:
 1265              	.LBI1428:
 1266              		.loc 6 502 20 view .LVU325
 1267              	.LBE1428:
 1268              	.LBE1708:
 1269              	.LBE1789:
 1270              		.loc 6 504 3 view .LVU326
 1271              	.LBB1790:
 1272              	.LBB1709:
 1273              	.LBB1437:
 1274              	.LBB1429:
 1275              	.LBI1429:
 1276              		.loc 2 386 20 view .LVU327
 1277              	.LBB1430:
 1278              		.loc 2 388 22 view .LVU328
 1279              		.loc 2 389 33 view .LVU329
 1280              		.loc 2 395 3 view .LVU330
ARM GAS  /tmp/ccCget5K.s 			page 24


 1281              		.loc 2 395 3 view .LVU331
 1282              		.loc 2 395 3 view .LVU332
 1283              		.loc 2 399 3 view .LVU333
 1284              	.LBB1431:
 1285              	.LBI1431:
 1286              		.loc 3 618 20 view .LVU334
 1287              	.LBE1431:
 1288              	.LBE1430:
 1289              	.LBE1429:
 1290              	.LBE1437:
 1291              	.LBE1709:
 1292              	.LBE1790:
 1293              		.loc 3 621 3 view .LVU335
 1294              	.LVL62:
 1295              	.LBB1791:
 1296              	.LBB1710:
 1297              	.LBB1438:
 1298              	.LBB1436:
 1299              	.LBB1435:
 1300              	.LBB1434:
 1301              	.LBB1432:
 1302              	.LBI1432:
 1303              		.loc 4 262 57 view .LVU336
 1304              	.LBB1433:
 1305              		.loc 4 264 3 view .LVU337
 1306              		.syntax unified
 1307              	@ 264 "../../../os/common/ext/CMSIS/include/cmsis_gcc.h" 1
 1308 009e 85F31188 		MSR basepri, r5
 1309              	@ 0 "" 2
 1310              	.LVL63:
 1311              		.loc 4 264 3 is_stmt 0 view .LVU338
 1312              		.thumb
 1313              		.syntax unified
 1314              	.LBE1433:
 1315              	.LBE1432:
 1316              	.LBE1434:
 1317              	.LBE1435:
 1318              	.LBE1436:
 1319              	.LBE1438:
 1320              		.loc 1 268 5 is_stmt 1 view .LVU339
 1321              	.LBE1710:
 1322              	.LBE1791:
 1323              		.loc 1 304 1 is_stmt 0 view .LVU340
 1324 00a2 03B0     		add	sp, sp, #12
 1325              		.cfi_remember_state
 1326              		.cfi_def_cfa_offset 28
 1327              		@ sp needed
 1328 00a4 BDE8F083 		pop	{r4, r5, r6, r7, r8, r9, pc}
 1329              	.L23:
 1330              		.cfi_restore_state
 1331              	.LBB1792:
 1332              	.LBB1711:
 1333              		.loc 1 240 5 is_stmt 1 view .LVU341
 1334              	.LBB1439:
 1335              	.LBI1439:
 1336              		.loc 6 502 20 view .LVU342
 1337              	.LBE1439:
ARM GAS  /tmp/ccCget5K.s 			page 25


 1338              	.LBE1711:
 1339              	.LBE1792:
 1340              		.loc 6 504 3 view .LVU343
 1341              	.LBB1793:
 1342              	.LBB1712:
 1343              	.LBB1448:
 1344              	.LBB1440:
 1345              	.LBI1440:
 1346              		.loc 2 386 20 view .LVU344
 1347              	.LBB1441:
 1348              		.loc 2 388 22 view .LVU345
 1349              		.loc 2 389 33 view .LVU346
 1350              		.loc 2 395 3 view .LVU347
 1351              		.loc 2 395 3 view .LVU348
 1352              		.loc 2 395 3 view .LVU349
 1353              		.loc 2 399 3 view .LVU350
 1354              	.LBB1442:
 1355              	.LBI1442:
 1356              		.loc 3 618 20 view .LVU351
 1357              	.LBE1442:
 1358              	.LBE1441:
 1359              	.LBE1440:
 1360              	.LBE1448:
 1361              	.LBE1712:
 1362              	.LBE1793:
 1363              		.loc 3 621 3 view .LVU352
 1364              	.LVL64:
 1365              	.LBB1794:
 1366              	.LBB1713:
 1367              	.LBB1449:
 1368              	.LBB1447:
 1369              	.LBB1446:
 1370              	.LBB1445:
 1371              	.LBB1443:
 1372              	.LBI1443:
 1373              		.loc 4 262 57 view .LVU353
 1374              	.LBB1444:
 1375              		.loc 4 264 3 view .LVU354
 1376              		.syntax unified
 1377              	@ 264 "../../../os/common/ext/CMSIS/include/cmsis_gcc.h" 1
 1378 00a8 80F31188 		MSR basepri, r0
 1379              	@ 0 "" 2
 1380              	.LVL65:
 1381              		.loc 4 264 3 is_stmt 0 view .LVU355
 1382              		.thumb
 1383              		.syntax unified
 1384              	.LBE1444:
 1385              	.LBE1443:
 1386              	.LBE1445:
 1387              	.LBE1446:
 1388              	.LBE1447:
 1389              	.LBE1449:
 1390              		.loc 1 240 65 is_stmt 1 view .LVU356
 1391              		.loc 1 241 5 view .LVU357
 1392              	.LBB1450:
 1393              	.LBI1450:
 1394              		.loc 6 491 20 view .LVU358
ARM GAS  /tmp/ccCget5K.s 			page 26


 1395              	.LBE1450:
 1396              	.LBE1713:
 1397              	.LBE1794:
 1398              		.loc 6 493 3 view .LVU359
 1399              	.LBB1795:
 1400              	.LBB1714:
 1401              	.LBB1458:
 1402              	.LBB1451:
 1403              	.LBI1451:
 1404              		.loc 2 374 20 view .LVU360
 1405              	.LBE1451:
 1406              	.LBE1458:
 1407              	.LBE1714:
 1408              	.LBE1795:
 1409              		.loc 2 376 3 view .LVU361
 1410              	.LBB1796:
 1411              	.LBB1715:
 1412              	.LBB1459:
 1413              	.LBB1456:
 1414              	.LBB1452:
 1415              	.LBI1452:
 1416              		.loc 3 594 20 view .LVU362
 1417              	.LBE1452:
 1418              	.LBE1456:
 1419              	.LBE1459:
 1420              	.LBE1715:
 1421              	.LBE1796:
 1422              		.loc 3 602 3 view .LVU363
 1423              	.LBB1797:
 1424              	.LBB1716:
 1425              	.LBB1460:
 1426              	.LBB1457:
 1427              	.LBB1455:
 1428              	.LBB1453:
 1429              	.LBI1453:
 1430              		.loc 4 262 57 view .LVU364
 1431              	.LBB1454:
 1432              		.loc 4 264 3 view .LVU365
 1433              		.syntax unified
 1434              	@ 264 "../../../os/common/ext/CMSIS/include/cmsis_gcc.h" 1
 1435 00ac 86F31188 		MSR basepri, r6
 1436              	@ 0 "" 2
 1437              	.LVL66:
 1438              		.loc 4 264 3 is_stmt 0 view .LVU366
 1439              		.thumb
 1440              		.syntax unified
 1441              	.LBE1454:
 1442              	.LBE1453:
 1443              	.LBE1455:
 1444              	.LBE1457:
 1445              	.LBE1460:
 1446              	.LBE1716:
 1447              	.LBE1797:
 1448              		.loc 2 377 34 is_stmt 1 view .LVU367
 1449              		.loc 2 378 20 view .LVU368
 1450              	.LBB1798:
 1451              	.LBB1717:
ARM GAS  /tmp/ccCget5K.s 			page 27


 1452              		.loc 1 241 5 view .LVU369
 1453 00b0 2068     		ldr	r0, [r4]
 1454 00b2 A368     		ldr	r3, [r4, #8]
 1455 00b4 8449     		ldr	r1, .L43+20
 1456 00b6 C01A     		subs	r0, r0, r3
 1457 00b8 B0FA80F0 		clz	r0, r0
 1458 00bc 4009     		lsrs	r0, r0, #5
 1459 00be FFF7FEFF 		bl	_test_assert
 1460              	.LVL67:
 1461 00c2 8046     		mov	r8, r0
 1462 00c4 0028     		cmp	r0, #0
 1463 00c6 EAD1     		bne	.L41
 1464              		.loc 1 241 5 view .LVU370
 1465              	.LBB1461:
 1466              	.LBI1461:
 1467              		.loc 6 502 20 view .LVU371
 1468              	.LBE1461:
 1469              	.LBE1717:
 1470              	.LBE1798:
 1471              		.loc 6 504 3 view .LVU372
 1472              	.LBB1799:
 1473              	.LBB1718:
 1474              	.LBB1470:
 1475              	.LBB1462:
 1476              	.LBI1462:
 1477              		.loc 2 386 20 view .LVU373
 1478              	.LBB1463:
 1479              		.loc 2 388 22 view .LVU374
 1480              		.loc 2 389 33 view .LVU375
 1481              		.loc 2 395 3 view .LVU376
 1482              		.loc 2 395 3 view .LVU377
 1483              		.loc 2 395 3 view .LVU378
 1484              		.loc 2 399 3 view .LVU379
 1485              	.LBB1464:
 1486              	.LBI1464:
 1487              		.loc 3 618 20 view .LVU380
 1488              	.LBE1464:
 1489              	.LBE1463:
 1490              	.LBE1462:
 1491              	.LBE1470:
 1492              	.LBE1718:
 1493              	.LBE1799:
 1494              		.loc 3 621 3 view .LVU381
 1495              	.LVL68:
 1496              	.LBB1800:
 1497              	.LBB1719:
 1498              	.LBB1471:
 1499              	.LBB1469:
 1500              	.LBB1468:
 1501              	.LBB1467:
 1502              	.LBB1465:
 1503              	.LBI1465:
 1504              		.loc 4 262 57 view .LVU382
 1505              	.LBB1466:
 1506              		.loc 4 264 3 view .LVU383
 1507              		.syntax unified
 1508              	@ 264 "../../../os/common/ext/CMSIS/include/cmsis_gcc.h" 1
ARM GAS  /tmp/ccCget5K.s 			page 28


 1509 00c8 80F31188 		MSR basepri, r0
 1510              	@ 0 "" 2
 1511              	.LVL69:
 1512              		.loc 4 264 3 is_stmt 0 view .LVU384
 1513              		.thumb
 1514              		.syntax unified
 1515              	.LBE1466:
 1516              	.LBE1465:
 1517              	.LBE1467:
 1518              	.LBE1468:
 1519              	.LBE1469:
 1520              	.LBE1471:
 1521              		.loc 1 241 83 is_stmt 1 view .LVU385
 1522              		.loc 1 242 5 view .LVU386
 1523              	.LBB1472:
 1524              	.LBI1472:
 1525              		.loc 6 491 20 view .LVU387
 1526              	.LBE1472:
 1527              	.LBE1719:
 1528              	.LBE1800:
 1529              		.loc 6 493 3 view .LVU388
 1530              	.LBB1801:
 1531              	.LBB1720:
 1532              	.LBB1480:
 1533              	.LBB1473:
 1534              	.LBI1473:
 1535              		.loc 2 374 20 view .LVU389
 1536              	.LBE1473:
 1537              	.LBE1480:
 1538              	.LBE1720:
 1539              	.LBE1801:
 1540              		.loc 2 376 3 view .LVU390
 1541              	.LBB1802:
 1542              	.LBB1721:
 1543              	.LBB1481:
 1544              	.LBB1478:
 1545              	.LBB1474:
 1546              	.LBI1474:
 1547              		.loc 3 594 20 view .LVU391
 1548              	.LBE1474:
 1549              	.LBE1478:
 1550              	.LBE1481:
 1551              	.LBE1721:
 1552              	.LBE1802:
 1553              		.loc 3 602 3 view .LVU392
 1554              	.LBB1803:
 1555              	.LBB1722:
 1556              	.LBB1482:
 1557              	.LBB1479:
 1558              	.LBB1477:
 1559              	.LBB1475:
 1560              	.LBI1475:
 1561              		.loc 4 262 57 view .LVU393
 1562              	.LBB1476:
 1563              		.loc 4 264 3 view .LVU394
 1564              		.syntax unified
 1565              	@ 264 "../../../os/common/ext/CMSIS/include/cmsis_gcc.h" 1
ARM GAS  /tmp/ccCget5K.s 			page 29


 1566 00cc 86F31188 		MSR basepri, r6
 1567              	@ 0 "" 2
 1568              	.LVL70:
 1569              		.loc 4 264 3 is_stmt 0 view .LVU395
 1570              		.thumb
 1571              		.syntax unified
 1572              	.LBE1476:
 1573              	.LBE1475:
 1574              	.LBE1477:
 1575              	.LBE1479:
 1576              	.LBE1482:
 1577              	.LBE1722:
 1578              	.LBE1803:
 1579              		.loc 2 377 34 is_stmt 1 view .LVU396
 1580              		.loc 2 378 20 view .LVU397
 1581              	.LBB1804:
 1582              	.LBB1723:
 1583              		.loc 1 242 5 view .LVU398
 1584 00d0 2068     		ldr	r0, [r4]
 1585 00d2 E368     		ldr	r3, [r4, #12]
 1586 00d4 7D49     		ldr	r1, .L43+24
 1587 00d6 C01A     		subs	r0, r0, r3
 1588 00d8 B0FA80F0 		clz	r0, r0
 1589 00dc 4009     		lsrs	r0, r0, #5
 1590 00de FFF7FEFF 		bl	_test_assert
 1591              	.LVL71:
 1592 00e2 0028     		cmp	r0, #0
 1593 00e4 D6D1     		bne	.L42
 1594              		.loc 1 242 5 view .LVU399
 1595              	.LBB1483:
 1596              	.LBI1483:
 1597              		.loc 6 502 20 view .LVU400
 1598              	.LBE1483:
 1599              	.LBE1723:
 1600              	.LBE1804:
 1601              		.loc 6 504 3 view .LVU401
 1602              	.LBB1805:
 1603              	.LBB1724:
 1604              	.LBB1492:
 1605              	.LBB1484:
 1606              	.LBI1484:
 1607              		.loc 2 386 20 view .LVU402
 1608              	.LBB1485:
 1609              		.loc 2 388 22 view .LVU403
 1610              		.loc 2 389 33 view .LVU404
 1611              		.loc 2 395 3 view .LVU405
 1612              		.loc 2 395 3 view .LVU406
 1613              		.loc 2 395 3 view .LVU407
 1614              		.loc 2 399 3 view .LVU408
 1615              	.LBB1486:
 1616              	.LBI1486:
 1617              		.loc 3 618 20 view .LVU409
 1618              	.LBE1486:
 1619              	.LBE1485:
 1620              	.LBE1484:
 1621              	.LBE1492:
 1622              	.LBE1724:
ARM GAS  /tmp/ccCget5K.s 			page 30


 1623              	.LBE1805:
 1624              		.loc 3 621 3 view .LVU410
 1625              	.LVL72:
 1626              	.LBB1806:
 1627              	.LBB1725:
 1628              	.LBB1493:
 1629              	.LBB1491:
 1630              	.LBB1490:
 1631              	.LBB1489:
 1632              	.LBB1487:
 1633              	.LBI1487:
 1634              		.loc 4 262 57 view .LVU411
 1635              	.LBB1488:
 1636              		.loc 4 264 3 view .LVU412
 1637              		.syntax unified
 1638              	@ 264 "../../../os/common/ext/CMSIS/include/cmsis_gcc.h" 1
 1639 00e6 80F31188 		MSR basepri, r0
 1640              	@ 0 "" 2
 1641              	.LVL73:
 1642              		.loc 4 264 3 is_stmt 0 view .LVU413
 1643              		.thumb
 1644              		.syntax unified
 1645              	.LBE1488:
 1646              	.LBE1487:
 1647              	.LBE1489:
 1648              	.LBE1490:
 1649              	.LBE1491:
 1650              	.LBE1493:
 1651              		.loc 1 242 82 is_stmt 1 view .LVU414
 1652              		.loc 1 243 5 view .LVU415
 1653              	.LBB1494:
 1654              	.LBI1494:
 1655              		.loc 5 201 20 view .LVU416
 1656              	.LBB1495:
 1657              		.loc 5 203 3 view .LVU417
 1658              	.LBE1495:
 1659              	.LBE1494:
 1660              		.loc 1 248 3 is_stmt 0 view .LVU418
 1661 00ea 0323     		movs	r3, #3
 1662              		.loc 1 254 7 view .LVU419
 1663 00ec DFF8E091 		ldr	r9, .L43+28
 1664              	.LBB1497:
 1665              	.LBB1496:
 1666              		.loc 5 203 14 view .LVU420
 1667 00f0 2075     		strb	r0, [r4, #20]
 1668              	.LVL74:
 1669              		.loc 5 203 14 view .LVU421
 1670              	.LBE1496:
 1671              	.LBE1497:
 1672              		.loc 1 248 3 is_stmt 1 view .LVU422
 1673 00f2 3B60     		str	r3, [r7]
 1674              		.loc 1 250 5 view .LVU423
 1675              	.LVL75:
 1676              		.loc 1 250 17 view .LVU424
 1677              		.loc 1 248 3 is_stmt 0 view .LVU425
 1678 00f4 4FF04208 		mov	r8, #66
 1679              	.LVL76:
ARM GAS  /tmp/ccCget5K.s 			page 31


 1680              	.L27:
 1681              		.loc 1 251 7 is_stmt 1 view .LVU426
 1682              	.LBB1498:
 1683              	.LBI1498:
 1684              		.loc 2 374 20 view .LVU427
 1685              	.LBE1498:
 1686              	.LBE1725:
 1687              	.LBE1806:
 1688              		.loc 2 376 3 view .LVU428
 1689              	.LBB1807:
 1690              	.LBB1726:
 1691              	.LBB1503:
 1692              	.LBB1499:
 1693              	.LBI1499:
 1694              		.loc 3 594 20 view .LVU429
 1695              	.LBE1499:
 1696              	.LBE1503:
 1697              	.LBE1726:
 1698              	.LBE1807:
 1699              		.loc 3 602 3 view .LVU430
 1700              	.LBB1808:
 1701              	.LBB1727:
 1702              	.LBB1504:
 1703              	.LBB1502:
 1704              	.LBB1500:
 1705              	.LBI1500:
 1706              		.loc 4 262 57 view .LVU431
 1707              	.LBB1501:
 1708              		.loc 4 264 3 view .LVU432
 1709              		.syntax unified
 1710              	@ 264 "../../../os/common/ext/CMSIS/include/cmsis_gcc.h" 1
 1711 00f8 86F31188 		MSR basepri, r6
 1712              	@ 0 "" 2
 1713              	.LVL77:
 1714              		.loc 4 264 3 is_stmt 0 view .LVU433
 1715              		.thumb
 1716              		.syntax unified
 1717              	.LBE1501:
 1718              	.LBE1500:
 1719              	.LBE1502:
 1720              	.LBE1504:
 1721              	.LBE1727:
 1722              	.LBE1808:
 1723              		.loc 2 377 34 is_stmt 1 view .LVU434
 1724              		.loc 2 378 20 view .LVU435
 1725              	.LBB1809:
 1726              	.LBB1728:
 1727              		.loc 1 252 7 view .LVU436
 1728              		.loc 1 252 14 is_stmt 0 view .LVU437
 1729 00fc 4146     		mov	r1, r8
 1730 00fe 2046     		mov	r0, r4
 1731 0100 FFF7FEFF 		bl	chMBPostI
 1732              	.LVL78:
 1733              		.loc 1 253 7 is_stmt 1 view .LVU438
 1734              	.LBB1505:
 1735              	.LBI1505:
 1736              		.loc 2 386 20 view .LVU439
ARM GAS  /tmp/ccCget5K.s 			page 32


 1737              	.LBB1506:
 1738              		.loc 2 388 22 view .LVU440
 1739              		.loc 2 389 33 view .LVU441
 1740              		.loc 2 395 3 view .LVU442
 1741              		.loc 2 395 3 view .LVU443
 1742              		.loc 2 395 3 view .LVU444
 1743              		.loc 2 399 3 view .LVU445
 1744              	.LBB1507:
 1745              	.LBI1507:
 1746              		.loc 3 618 20 view .LVU446
 1747              	.LBE1507:
 1748              	.LBE1506:
 1749              	.LBE1505:
 1750              	.LBE1728:
 1751              	.LBE1809:
 1752              		.loc 3 621 3 view .LVU447
 1753              	.LBB1810:
 1754              	.LBB1729:
 1755              	.LBB1512:
 1756              	.LBB1511:
 1757              	.LBB1510:
 1758              	.LBB1508:
 1759              	.LBI1508:
 1760              		.loc 4 262 57 view .LVU448
 1761              	.LBB1509:
 1762              		.loc 4 264 3 view .LVU449
 1763 0104 0023     		movs	r3, #0
 1764              		.syntax unified
 1765              	@ 264 "../../../os/common/ext/CMSIS/include/cmsis_gcc.h" 1
 1766 0106 83F31188 		MSR basepri, r3
 1767              	@ 0 "" 2
 1768              	.LVL79:
 1769              		.loc 4 264 3 is_stmt 0 view .LVU450
 1770              		.thumb
 1771              		.syntax unified
 1772              	.LBE1509:
 1773              	.LBE1508:
 1774              	.LBE1510:
 1775              	.LBE1511:
 1776              	.LBE1512:
 1777              		.loc 1 254 7 is_stmt 1 view .LVU451
 1778 010a B0FA80F0 		clz	r0, r0
 1779              	.LVL80:
 1780              		.loc 1 254 7 is_stmt 0 view .LVU452
 1781 010e 4009     		lsrs	r0, r0, #5
 1782 0110 4946     		mov	r1, r9
 1783 0112 FFF7FEFF 		bl	_test_assert
 1784              	.LVL81:
 1785              		.loc 1 254 59 is_stmt 1 view .LVU453
 1786              		.loc 1 250 34 view .LVU454
 1787              		.loc 1 250 17 view .LVU455
 1788              		.loc 1 250 5 is_stmt 0 view .LVU456
 1789 0116 08F10108 		add	r8, r8, #1
 1790              		.loc 1 254 7 view .LVU457
 1791 011a 0546     		mov	r5, r0
 1792 011c 0028     		cmp	r0, #0
 1793 011e 8BD1     		bne	.L18
ARM GAS  /tmp/ccCget5K.s 			page 33


 1794              		.loc 1 250 5 view .LVU458
 1795 0120 B8F1450F 		cmp	r8, #69
 1796 0124 E8D1     		bne	.L27
 1797              		.loc 1 256 5 is_stmt 1 view .LVU459
 1798              	.LBB1513:
 1799              	.LBI1513:
 1800              		.loc 2 374 20 view .LVU460
 1801              	.LBE1513:
 1802              	.LBE1729:
 1803              	.LBE1810:
 1804              		.loc 2 376 3 view .LVU461
 1805              	.LBB1811:
 1806              	.LBB1730:
 1807              	.LBB1518:
 1808              	.LBB1514:
 1809              	.LBI1514:
 1810              		.loc 3 594 20 view .LVU462
 1811              	.LBE1514:
 1812              	.LBE1518:
 1813              	.LBE1730:
 1814              	.LBE1811:
 1815              		.loc 3 602 3 view .LVU463
 1816              	.LVL82:
 1817              	.LBB1812:
 1818              	.LBB1731:
 1819              	.LBB1519:
 1820              	.LBB1517:
 1821              	.LBB1515:
 1822              	.LBI1515:
 1823              		.loc 4 262 57 view .LVU464
 1824              	.LBB1516:
 1825              		.loc 4 264 3 view .LVU465
 1826              		.syntax unified
 1827              	@ 264 "../../../os/common/ext/CMSIS/include/cmsis_gcc.h" 1
 1828 0126 86F31188 		MSR basepri, r6
 1829              	@ 0 "" 2
 1830              	.LVL83:
 1831              		.loc 4 264 3 is_stmt 0 view .LVU466
 1832              		.thumb
 1833              		.syntax unified
 1834              	.LBE1516:
 1835              	.LBE1515:
 1836              	.LBE1517:
 1837              	.LBE1519:
 1838              	.LBE1731:
 1839              	.LBE1812:
 1840              		.loc 2 377 34 is_stmt 1 view .LVU467
 1841              		.loc 2 378 20 view .LVU468
 1842              	.LBB1813:
 1843              	.LBB1732:
 1844              		.loc 1 257 5 view .LVU469
 1845              		.loc 1 257 12 is_stmt 0 view .LVU470
 1846 012a 4121     		movs	r1, #65
 1847 012c 6248     		ldr	r0, .L43+4
 1848 012e FFF7FEFF 		bl	chMBPostAheadI
 1849              	.LVL84:
 1850              		.loc 1 258 5 is_stmt 1 view .LVU471
ARM GAS  /tmp/ccCget5K.s 			page 34


 1851              	.LBB1520:
 1852              	.LBI1520:
 1853              		.loc 2 386 20 view .LVU472
 1854              	.LBB1521:
 1855              		.loc 2 388 22 view .LVU473
 1856              		.loc 2 389 33 view .LVU474
 1857              		.loc 2 395 3 view .LVU475
 1858              		.loc 2 395 3 view .LVU476
 1859              		.loc 2 395 3 view .LVU477
 1860              		.loc 2 399 3 view .LVU478
 1861              	.LBB1522:
 1862              	.LBI1522:
 1863              		.loc 3 618 20 view .LVU479
 1864              	.LBE1522:
 1865              	.LBE1521:
 1866              	.LBE1520:
 1867              	.LBE1732:
 1868              	.LBE1813:
 1869              		.loc 3 621 3 view .LVU480
 1870              	.LBB1814:
 1871              	.LBB1733:
 1872              	.LBB1527:
 1873              	.LBB1526:
 1874              	.LBB1525:
 1875              	.LBB1523:
 1876              	.LBI1523:
 1877              		.loc 4 262 57 view .LVU481
 1878              	.LBB1524:
 1879              		.loc 4 264 3 view .LVU482
 1880              		.syntax unified
 1881              	@ 264 "../../../os/common/ext/CMSIS/include/cmsis_gcc.h" 1
 1882 0132 85F31188 		MSR basepri, r5
 1883              	@ 0 "" 2
 1884              	.LVL85:
 1885              		.loc 4 264 3 is_stmt 0 view .LVU483
 1886              		.thumb
 1887              		.syntax unified
 1888              	.LBE1524:
 1889              	.LBE1523:
 1890              	.LBE1525:
 1891              	.LBE1526:
 1892              	.LBE1527:
 1893              		.loc 1 259 5 is_stmt 1 view .LVU484
 1894 0136 B0FA80F0 		clz	r0, r0
 1895              	.LVL86:
 1896              		.loc 1 259 5 is_stmt 0 view .LVU485
 1897 013a 6549     		ldr	r1, .L43+28
 1898 013c 4009     		lsrs	r0, r0, #5
 1899 013e FFF7FEFF 		bl	_test_assert
 1900              	.LVL87:
 1901 0142 0546     		mov	r5, r0
 1902 0144 0028     		cmp	r0, #0
 1903 0146 7FF477AF 		bne	.L18
 1904              		.loc 1 259 57 is_stmt 1 view .LVU486
 1905              		.loc 1 264 3 view .LVU487
 1906 014a 4FF00409 		mov	r9, #4
 1907 014e C7F80090 		str	r9, [r7]
ARM GAS  /tmp/ccCget5K.s 			page 35


 1908              		.loc 1 266 5 view .LVU488
 1909              	.LBB1528:
 1910              	.LBI1528:
 1911              		.loc 6 491 20 view .LVU489
 1912              	.LBE1528:
 1913              	.LBE1733:
 1914              	.LBE1814:
 1915              		.loc 6 493 3 view .LVU490
 1916              	.LBB1815:
 1917              	.LBB1734:
 1918              	.LBB1536:
 1919              	.LBB1529:
 1920              	.LBI1529:
 1921              		.loc 2 374 20 view .LVU491
 1922              	.LBE1529:
 1923              	.LBE1536:
 1924              	.LBE1734:
 1925              	.LBE1815:
 1926              		.loc 2 376 3 view .LVU492
 1927              	.LBB1816:
 1928              	.LBB1735:
 1929              	.LBB1537:
 1930              	.LBB1534:
 1931              	.LBB1530:
 1932              	.LBI1530:
 1933              		.loc 3 594 20 view .LVU493
 1934              	.LBE1530:
 1935              	.LBE1534:
 1936              	.LBE1537:
 1937              	.LBE1735:
 1938              	.LBE1816:
 1939              		.loc 3 602 3 view .LVU494
 1940              	.LVL88:
 1941              	.LBB1817:
 1942              	.LBB1736:
 1943              	.LBB1538:
 1944              	.LBB1535:
 1945              	.LBB1533:
 1946              	.LBB1531:
 1947              	.LBI1531:
 1948              		.loc 4 262 57 view .LVU495
 1949              	.LBB1532:
 1950              		.loc 4 264 3 view .LVU496
 1951              		.syntax unified
 1952              	@ 264 "../../../os/common/ext/CMSIS/include/cmsis_gcc.h" 1
 1953 0152 86F31188 		MSR basepri, r6
 1954              	@ 0 "" 2
 1955              	.LVL89:
 1956              		.loc 4 264 3 is_stmt 0 view .LVU497
 1957              		.thumb
 1958              		.syntax unified
 1959              	.LBE1532:
 1960              	.LBE1531:
 1961              	.LBE1533:
 1962              	.LBE1535:
 1963              	.LBE1538:
 1964              	.LBE1736:
ARM GAS  /tmp/ccCget5K.s 			page 36


 1965              	.LBE1817:
 1966              		.loc 2 377 34 is_stmt 1 view .LVU498
 1967              		.loc 2 378 20 view .LVU499
 1968              	.LBB1818:
 1969              	.LBB1737:
 1970              		.loc 1 266 5 view .LVU500
 1971              	.LBB1539:
 1972              	.LBI1539:
 1973              		.loc 5 168 21 view .LVU501
 1974              	.LBE1539:
 1975              	.LBE1737:
 1976              	.LBE1818:
 1977              		.loc 5 170 21 view .LVU502
 1978              		.loc 5 172 3 view .LVU503
 1979              	.LBB1819:
 1980              	.LBB1738:
 1981              	.LBB1546:
 1982              	.LBB1540:
 1983              	.LBI1540:
 1984              		.loc 5 136 21 view .LVU504
 1985              	.LBB1541:
 1986              		.loc 5 140 3 view .LVU505
 1987              		.loc 5 140 3 is_stmt 0 view .LVU506
 1988              	.LBE1541:
 1989              	.LBE1540:
 1990              	.LBB1543:
 1991              	.LBI1543:
 1992              		.loc 5 153 21 is_stmt 1 view .LVU507
 1993              	.LBB1544:
 1994              		.loc 5 155 21 view .LVU508
 1995              		.loc 5 157 3 view .LVU509
 1996              		.loc 5 157 3 is_stmt 0 view .LVU510
 1997              	.LBE1544:
 1998              	.LBE1543:
 1999              	.LBB1545:
 2000              	.LBB1542:
 2001              		.loc 5 140 27 view .LVU511
 2002 0156 D4E90023 		ldrd	r2, r3, [r4]
 2003 015a 9B1A     		subs	r3, r3, r2
 2004              	.LBE1542:
 2005              	.LBE1545:
 2006              	.LBE1546:
 2007              		.loc 1 266 5 view .LVU512
 2008 015c 2269     		ldr	r2, [r4, #16]
 2009 015e 5D49     		ldr	r1, .L43+32
 2010 0160 B2EBA30F 		cmp	r2, r3, asr #2
 2011 0164 0CBF     		ite	eq
 2012 0166 0120     		moveq	r0, #1
 2013 0168 0020     		movne	r0, #0
 2014 016a FFF7FEFF 		bl	_test_assert
 2015              	.LVL90:
 2016 016e 8046     		mov	r8, r0
 2017 0170 0028     		cmp	r0, #0
 2018 0172 94D1     		bne	.L41
 2019              		.loc 1 266 5 is_stmt 1 view .LVU513
 2020              	.LBB1547:
 2021              	.LBI1547:
ARM GAS  /tmp/ccCget5K.s 			page 37


 2022              		.loc 6 502 20 view .LVU514
 2023              	.LBE1547:
 2024              	.LBE1738:
 2025              	.LBE1819:
 2026              		.loc 6 504 3 view .LVU515
 2027              	.LBB1820:
 2028              	.LBB1739:
 2029              	.LBB1556:
 2030              	.LBB1548:
 2031              	.LBI1548:
 2032              		.loc 2 386 20 view .LVU516
 2033              	.LBB1549:
 2034              		.loc 2 388 22 view .LVU517
 2035              		.loc 2 389 33 view .LVU518
 2036              		.loc 2 395 3 view .LVU519
 2037              		.loc 2 395 3 view .LVU520
 2038              		.loc 2 395 3 view .LVU521
 2039              		.loc 2 399 3 view .LVU522
 2040              	.LBB1550:
 2041              	.LBI1550:
 2042              		.loc 3 618 20 view .LVU523
 2043              	.LBE1550:
 2044              	.LBE1549:
 2045              	.LBE1548:
 2046              	.LBE1556:
 2047              	.LBE1739:
 2048              	.LBE1820:
 2049              		.loc 3 621 3 view .LVU524
 2050              	.LVL91:
 2051              	.LBB1821:
 2052              	.LBB1740:
 2053              	.LBB1557:
 2054              	.LBB1555:
 2055              	.LBB1554:
 2056              	.LBB1553:
 2057              	.LBB1551:
 2058              	.LBI1551:
 2059              		.loc 4 262 57 view .LVU525
 2060              	.LBB1552:
 2061              		.loc 4 264 3 view .LVU526
 2062              		.syntax unified
 2063              	@ 264 "../../../os/common/ext/CMSIS/include/cmsis_gcc.h" 1
 2064 0174 80F31188 		MSR basepri, r0
 2065              	@ 0 "" 2
 2066              	.LVL92:
 2067              		.loc 4 264 3 is_stmt 0 view .LVU527
 2068              		.thumb
 2069              		.syntax unified
 2070              	.LBE1552:
 2071              	.LBE1551:
 2072              	.LBE1553:
 2073              	.LBE1554:
 2074              	.LBE1555:
 2075              	.LBE1557:
 2076              		.loc 1 266 66 is_stmt 1 view .LVU528
 2077              		.loc 1 267 5 view .LVU529
 2078              	.LBB1558:
ARM GAS  /tmp/ccCget5K.s 			page 38


 2079              	.LBI1558:
 2080              		.loc 6 491 20 view .LVU530
 2081              	.LBE1558:
 2082              	.LBE1740:
 2083              	.LBE1821:
 2084              		.loc 6 493 3 view .LVU531
 2085              	.LBB1822:
 2086              	.LBB1741:
 2087              	.LBB1566:
 2088              	.LBB1559:
 2089              	.LBI1559:
 2090              		.loc 2 374 20 view .LVU532
 2091              	.LBE1559:
 2092              	.LBE1566:
 2093              	.LBE1741:
 2094              	.LBE1822:
 2095              		.loc 2 376 3 view .LVU533
 2096              	.LBB1823:
 2097              	.LBB1742:
 2098              	.LBB1567:
 2099              	.LBB1564:
 2100              	.LBB1560:
 2101              	.LBI1560:
 2102              		.loc 3 594 20 view .LVU534
 2103              	.LBE1560:
 2104              	.LBE1564:
 2105              	.LBE1567:
 2106              	.LBE1742:
 2107              	.LBE1823:
 2108              		.loc 3 602 3 view .LVU535
 2109              	.LBB1824:
 2110              	.LBB1743:
 2111              	.LBB1568:
 2112              	.LBB1565:
 2113              	.LBB1563:
 2114              	.LBB1561:
 2115              	.LBI1561:
 2116              		.loc 4 262 57 view .LVU536
 2117              	.LBB1562:
 2118              		.loc 4 264 3 view .LVU537
 2119              		.syntax unified
 2120              	@ 264 "../../../os/common/ext/CMSIS/include/cmsis_gcc.h" 1
 2121 0178 86F31188 		MSR basepri, r6
 2122              	@ 0 "" 2
 2123              	.LVL93:
 2124              		.loc 4 264 3 is_stmt 0 view .LVU538
 2125              		.thumb
 2126              		.syntax unified
 2127              	.LBE1562:
 2128              	.LBE1561:
 2129              	.LBE1563:
 2130              	.LBE1565:
 2131              	.LBE1568:
 2132              	.LBE1743:
 2133              	.LBE1824:
 2134              		.loc 2 377 34 is_stmt 1 view .LVU539
 2135              		.loc 2 378 20 view .LVU540
ARM GAS  /tmp/ccCget5K.s 			page 39


 2136              	.LBB1825:
 2137              	.LBB1744:
 2138              		.loc 1 267 5 view .LVU541
 2139              	.LBB1569:
 2140              	.LBI1569:
 2141              		.loc 5 153 21 view .LVU542
 2142              	.LBB1570:
 2143              		.loc 5 155 21 view .LVU543
 2144              		.loc 5 157 3 view .LVU544
 2145              		.loc 5 157 3 is_stmt 0 view .LVU545
 2146              	.LBE1570:
 2147              	.LBE1569:
 2148              		.loc 1 267 5 view .LVU546
 2149 017c 2069     		ldr	r0, [r4, #16]
 2150 017e 5649     		ldr	r1, .L43+36
 2151 0180 A0F10400 		sub	r0, #4
 2152 0184 B0FA80F0 		clz	r0, r0
 2153 0188 4009     		lsrs	r0, r0, #5
 2154 018a FFF7FEFF 		bl	_test_assert
 2155              	.LVL94:
 2156 018e 0546     		mov	r5, r0
 2157 0190 0028     		cmp	r0, #0
 2158 0192 7FF47FAF 		bne	.L42
 2159              		.loc 1 267 5 is_stmt 1 view .LVU547
 2160              	.LBB1571:
 2161              	.LBI1571:
 2162              		.loc 6 502 20 view .LVU548
 2163              	.LBE1571:
 2164              	.LBE1744:
 2165              	.LBE1825:
 2166              		.loc 6 504 3 view .LVU549
 2167              	.LBB1826:
 2168              	.LBB1745:
 2169              	.LBB1580:
 2170              	.LBB1572:
 2171              	.LBI1572:
 2172              		.loc 2 386 20 view .LVU550
 2173              	.LBB1573:
 2174              		.loc 2 388 22 view .LVU551
 2175              		.loc 2 389 33 view .LVU552
 2176              		.loc 2 395 3 view .LVU553
 2177              		.loc 2 395 3 view .LVU554
 2178              		.loc 2 395 3 view .LVU555
 2179              		.loc 2 399 3 view .LVU556
 2180              	.LBB1574:
 2181              	.LBI1574:
 2182              		.loc 3 618 20 view .LVU557
 2183              	.LBE1574:
 2184              	.LBE1573:
 2185              	.LBE1572:
 2186              	.LBE1580:
 2187              	.LBE1745:
 2188              	.LBE1826:
 2189              		.loc 3 621 3 view .LVU558
 2190              	.LVL95:
 2191              	.LBB1827:
 2192              	.LBB1746:
ARM GAS  /tmp/ccCget5K.s 			page 40


 2193              	.LBB1581:
 2194              	.LBB1579:
 2195              	.LBB1578:
 2196              	.LBB1577:
 2197              	.LBB1575:
 2198              	.LBI1575:
 2199              		.loc 4 262 57 view .LVU559
 2200              	.LBB1576:
 2201              		.loc 4 264 3 view .LVU560
 2202              		.syntax unified
 2203              	@ 264 "../../../os/common/ext/CMSIS/include/cmsis_gcc.h" 1
 2204 0196 80F31188 		MSR basepri, r0
 2205              	@ 0 "" 2
 2206              	.LVL96:
 2207              		.loc 4 264 3 is_stmt 0 view .LVU561
 2208              		.thumb
 2209              		.syntax unified
 2210              	.LBE1576:
 2211              	.LBE1575:
 2212              	.LBE1577:
 2213              	.LBE1578:
 2214              	.LBE1579:
 2215              	.LBE1581:
 2216              		.loc 1 267 69 is_stmt 1 view .LVU562
 2217              		.loc 1 268 5 view .LVU563
 2218              	.LBB1582:
 2219              	.LBI1582:
 2220              		.loc 6 491 20 view .LVU564
 2221              	.LBE1582:
 2222              	.LBE1746:
 2223              	.LBE1827:
 2224              		.loc 6 493 3 view .LVU565
 2225              	.LBB1828:
 2226              	.LBB1747:
 2227              	.LBB1590:
 2228              	.LBB1583:
 2229              	.LBI1583:
 2230              		.loc 2 374 20 view .LVU566
 2231              	.LBE1583:
 2232              	.LBE1590:
 2233              	.LBE1747:
 2234              	.LBE1828:
 2235              		.loc 2 376 3 view .LVU567
 2236              	.LBB1829:
 2237              	.LBB1748:
 2238              	.LBB1591:
 2239              	.LBB1588:
 2240              	.LBB1584:
 2241              	.LBI1584:
 2242              		.loc 3 594 20 view .LVU568
 2243              	.LBE1584:
 2244              	.LBE1588:
 2245              	.LBE1591:
 2246              	.LBE1748:
 2247              	.LBE1829:
 2248              		.loc 3 602 3 view .LVU569
 2249              	.LBB1830:
ARM GAS  /tmp/ccCget5K.s 			page 41


 2250              	.LBB1749:
 2251              	.LBB1592:
 2252              	.LBB1589:
 2253              	.LBB1587:
 2254              	.LBB1585:
 2255              	.LBI1585:
 2256              		.loc 4 262 57 view .LVU570
 2257              	.LBB1586:
 2258              		.loc 4 264 3 view .LVU571
 2259              		.syntax unified
 2260              	@ 264 "../../../os/common/ext/CMSIS/include/cmsis_gcc.h" 1
 2261 019a 86F31188 		MSR basepri, r6
 2262              	@ 0 "" 2
 2263              	.LVL97:
 2264              		.loc 4 264 3 is_stmt 0 view .LVU572
 2265              		.thumb
 2266              		.syntax unified
 2267              	.LBE1586:
 2268              	.LBE1585:
 2269              	.LBE1587:
 2270              	.LBE1589:
 2271              	.LBE1592:
 2272              	.LBE1749:
 2273              	.LBE1830:
 2274              		.loc 2 377 34 is_stmt 1 view .LVU573
 2275              		.loc 2 378 20 view .LVU574
 2276              	.LBB1831:
 2277              	.LBB1750:
 2278              		.loc 1 268 5 view .LVU575
 2279 019e D4E90230 		ldrd	r3, r0, [r4, #8]
 2280 01a2 C01A     		subs	r0, r0, r3
 2281 01a4 B0FA80F0 		clz	r0, r0
 2282 01a8 4C49     		ldr	r1, .L43+40
 2283 01aa 4009     		lsrs	r0, r0, #5
 2284 01ac FFF7FEFF 		bl	_test_assert
 2285              	.LVL98:
 2286 01b0 0028     		cmp	r0, #0
 2287 01b2 7FF474AF 		bne	.L41
 2288              		.loc 1 268 5 view .LVU576
 2289              	.LBB1593:
 2290              	.LBI1593:
 2291              		.loc 6 502 20 view .LVU577
 2292              	.LBE1593:
 2293              	.LBE1750:
 2294              	.LBE1831:
 2295              		.loc 6 504 3 view .LVU578
 2296              	.LBB1832:
 2297              	.LBB1751:
 2298              	.LBB1602:
 2299              	.LBB1594:
 2300              	.LBI1594:
 2301              		.loc 2 386 20 view .LVU579
 2302              	.LBB1595:
 2303              		.loc 2 388 22 view .LVU580
 2304              		.loc 2 389 33 view .LVU581
 2305              		.loc 2 395 3 view .LVU582
 2306              		.loc 2 395 3 view .LVU583
ARM GAS  /tmp/ccCget5K.s 			page 42


 2307              		.loc 2 395 3 view .LVU584
 2308              		.loc 2 399 3 view .LVU585
 2309              	.LBB1596:
 2310              	.LBI1596:
 2311              		.loc 3 618 20 view .LVU586
 2312              	.LBE1596:
 2313              	.LBE1595:
 2314              	.LBE1594:
 2315              	.LBE1602:
 2316              	.LBE1751:
 2317              	.LBE1832:
 2318              		.loc 3 621 3 view .LVU587
 2319              	.LVL99:
 2320              	.LBB1833:
 2321              	.LBB1752:
 2322              	.LBB1603:
 2323              	.LBB1601:
 2324              	.LBB1600:
 2325              	.LBB1599:
 2326              	.LBB1597:
 2327              	.LBI1597:
 2328              		.loc 4 262 57 view .LVU588
 2329              	.LBB1598:
 2330              		.loc 4 264 3 view .LVU589
 2331              		.syntax unified
 2332              	@ 264 "../../../os/common/ext/CMSIS/include/cmsis_gcc.h" 1
 2333 01b6 80F31188 		MSR basepri, r0
 2334              	@ 0 "" 2
 2335              	.LVL100:
 2336              		.loc 4 264 3 is_stmt 0 view .LVU590
 2337              		.thumb
 2338              		.syntax unified
 2339              	.LBE1598:
 2340              	.LBE1597:
 2341              	.LBE1599:
 2342              	.LBE1600:
 2343              	.LBE1601:
 2344              	.LBE1603:
 2345              		.loc 1 268 69 is_stmt 1 view .LVU591
 2346              		.loc 1 273 3 view .LVU592
 2347 01ba 0523     		movs	r3, #5
 2348              		.loc 1 277 14 is_stmt 0 view .LVU593
 2349 01bc DFF8F880 		ldr	r8, .L43+4
 2350              		.loc 1 279 7 view .LVU594
 2351 01c0 434E     		ldr	r6, .L43+28
 2352              		.loc 1 273 3 view .LVU595
 2353 01c2 3B60     		str	r3, [r7]
 2354              		.loc 1 275 5 is_stmt 1 view .LVU596
 2355              	.LVL101:
 2356              		.loc 1 275 17 view .LVU597
 2357              	.LBB1604:
 2358              	.LBB1605:
 2359              	.LBB1606:
 2360              	.LBB1607:
 2361              		.loc 4 264 3 is_stmt 0 view .LVU598
 2362 01c4 2025     		movs	r5, #32
 2363              	.LVL102:
ARM GAS  /tmp/ccCget5K.s 			page 43


 2364              	.L32:
 2365              		.loc 4 264 3 view .LVU599
 2366              	.LBE1607:
 2367              	.LBE1606:
 2368              	.LBE1605:
 2369              	.LBE1604:
 2370              		.loc 1 276 7 is_stmt 1 view .LVU600
 2371              	.LBB1612:
 2372              	.LBI1604:
 2373              		.loc 2 374 20 view .LVU601
 2374              	.LBE1612:
 2375              	.LBE1752:
 2376              	.LBE1833:
 2377              		.loc 2 376 3 view .LVU602
 2378              	.LBB1834:
 2379              	.LBB1753:
 2380              	.LBB1613:
 2381              	.LBB1610:
 2382              	.LBI1605:
 2383              		.loc 3 594 20 view .LVU603
 2384              	.LBE1610:
 2385              	.LBE1613:
 2386              	.LBE1753:
 2387              	.LBE1834:
 2388              		.loc 3 602 3 view .LVU604
 2389              	.LBB1835:
 2390              	.LBB1754:
 2391              	.LBB1614:
 2392              	.LBB1611:
 2393              	.LBB1609:
 2394              	.LBI1606:
 2395              		.loc 4 262 57 view .LVU605
 2396              	.LBB1608:
 2397              		.loc 4 264 3 view .LVU606
 2398              		.syntax unified
 2399              	@ 264 "../../../os/common/ext/CMSIS/include/cmsis_gcc.h" 1
 2400 01c6 85F31188 		MSR basepri, r5
 2401              	@ 0 "" 2
 2402              	.LVL103:
 2403              		.loc 4 264 3 is_stmt 0 view .LVU607
 2404              		.thumb
 2405              		.syntax unified
 2406              	.LBE1608:
 2407              	.LBE1609:
 2408              	.LBE1611:
 2409              	.LBE1614:
 2410              	.LBE1754:
 2411              	.LBE1835:
 2412              		.loc 2 377 34 is_stmt 1 view .LVU608
 2413              		.loc 2 378 20 view .LVU609
 2414              	.LBB1836:
 2415              	.LBB1755:
 2416              		.loc 1 277 7 view .LVU610
 2417              		.loc 1 277 14 is_stmt 0 view .LVU611
 2418 01ca 01A9     		add	r1, sp, #4
 2419 01cc 4046     		mov	r0, r8
 2420 01ce FFF7FEFF 		bl	chMBFetchI
ARM GAS  /tmp/ccCget5K.s 			page 44


 2421              	.LVL104:
 2422              		.loc 1 278 7 is_stmt 1 view .LVU612
 2423              	.LBB1615:
 2424              	.LBI1615:
 2425              		.loc 2 386 20 view .LVU613
 2426              	.LBB1616:
 2427              		.loc 2 388 22 view .LVU614
 2428              		.loc 2 389 33 view .LVU615
 2429              		.loc 2 395 3 view .LVU616
 2430              		.loc 2 395 3 view .LVU617
 2431              		.loc 2 395 3 view .LVU618
 2432              		.loc 2 399 3 view .LVU619
 2433              	.LBB1617:
 2434              	.LBI1617:
 2435              		.loc 3 618 20 view .LVU620
 2436              	.LBE1617:
 2437              	.LBE1616:
 2438              	.LBE1615:
 2439              	.LBE1755:
 2440              	.LBE1836:
 2441              		.loc 3 621 3 view .LVU621
 2442              	.LBB1837:
 2443              	.LBB1756:
 2444              	.LBB1622:
 2445              	.LBB1621:
 2446              	.LBB1620:
 2447              	.LBB1618:
 2448              	.LBI1618:
 2449              		.loc 4 262 57 view .LVU622
 2450              	.LBB1619:
 2451              		.loc 4 264 3 view .LVU623
 2452 01d2 0023     		movs	r3, #0
 2453              		.syntax unified
 2454              	@ 264 "../../../os/common/ext/CMSIS/include/cmsis_gcc.h" 1
 2455 01d4 83F31188 		MSR basepri, r3
 2456              	@ 0 "" 2
 2457              	.LVL105:
 2458              		.loc 4 264 3 is_stmt 0 view .LVU624
 2459              		.thumb
 2460              		.syntax unified
 2461              	.LBE1619:
 2462              	.LBE1618:
 2463              	.LBE1620:
 2464              	.LBE1621:
 2465              	.LBE1622:
 2466              		.loc 1 279 7 is_stmt 1 view .LVU625
 2467 01d8 B0FA80F0 		clz	r0, r0
 2468              	.LVL106:
 2469              		.loc 1 279 7 is_stmt 0 view .LVU626
 2470 01dc 4009     		lsrs	r0, r0, #5
 2471 01de 3146     		mov	r1, r6
 2472 01e0 FFF7FEFF 		bl	_test_assert
 2473              	.LVL107:
 2474              		.loc 1 279 59 is_stmt 1 view .LVU627
 2475              		.loc 1 280 7 view .LVU628
 2476              		.loc 1 279 7 is_stmt 0 view .LVU629
 2477 01e4 0028     		cmp	r0, #0
ARM GAS  /tmp/ccCget5K.s 			page 45


 2478 01e6 7FF427AF 		bne	.L18
 2479              		.loc 1 280 7 view .LVU630
 2480 01ea 9DF80400 		ldrb	r0, [sp, #4]	@ zero_extendqisi2
 2481 01ee FFF7FEFF 		bl	test_emit_token
 2482              	.LVL108:
 2483              		.loc 1 275 30 is_stmt 1 view .LVU631
 2484              		.loc 1 275 17 view .LVU632
 2485              		.loc 1 275 5 is_stmt 0 view .LVU633
 2486 01f2 B9F10109 		subs	r9, r9, #1
 2487              	.LVL109:
 2488              		.loc 1 275 5 view .LVU634
 2489 01f6 E6D1     		bne	.L32
 2490              		.loc 1 282 5 is_stmt 1 view .LVU635
 2491 01f8 3949     		ldr	r1, .L43+44
 2492 01fa 3A48     		ldr	r0, .L43+48
 2493 01fc FFF7FEFF 		bl	_test_assert_sequence
 2494              	.LVL110:
 2495 0200 0028     		cmp	r0, #0
 2496 0202 7FF419AF 		bne	.L18
 2497              		.loc 1 282 55 view .LVU636
 2498              		.loc 1 287 3 view .LVU637
 2499              		.loc 1 289 12 is_stmt 0 view .LVU638
 2500 0206 4621     		movs	r1, #70
 2501              		.loc 1 287 3 view .LVU639
 2502 0208 0623     		movs	r3, #6
 2503              		.loc 1 289 12 view .LVU640
 2504 020a 2B48     		ldr	r0, .L43+4
 2505              		.loc 1 287 3 view .LVU641
 2506 020c 3B60     		str	r3, [r7]
 2507              		.loc 1 289 5 is_stmt 1 view .LVU642
 2508              		.loc 1 289 12 is_stmt 0 view .LVU643
 2509 020e 4FF0FF32 		mov	r2, #-1
 2510 0212 FFF7FEFF 		bl	chMBPost
 2511              	.LVL111:
 2512              		.loc 1 290 5 is_stmt 1 view .LVU644
 2513 0216 B0FA80F0 		clz	r0, r0
 2514              	.LVL112:
 2515              		.loc 1 290 5 is_stmt 0 view .LVU645
 2516 021a 2D49     		ldr	r1, .L43+28
 2517 021c 4009     		lsrs	r0, r0, #5
 2518 021e FFF7FEFF 		bl	_test_assert
 2519              	.LVL113:
 2520 0222 0028     		cmp	r0, #0
 2521 0224 7FF408AF 		bne	.L18
 2522              		.loc 1 290 57 is_stmt 1 view .LVU646
 2523              		.loc 1 291 5 view .LVU647
 2524              		.loc 1 291 12 is_stmt 0 view .LVU648
 2525 0228 01A9     		add	r1, sp, #4
 2526 022a 2348     		ldr	r0, .L43+4
 2527 022c 4FF0FF32 		mov	r2, #-1
 2528 0230 FFF7FEFF 		bl	chMBFetch
 2529              	.LVL114:
 2530              		.loc 1 292 5 is_stmt 1 view .LVU649
 2531 0234 B0FA80F0 		clz	r0, r0
 2532              	.LVL115:
 2533              		.loc 1 292 5 is_stmt 0 view .LVU650
 2534 0238 2549     		ldr	r1, .L43+28
ARM GAS  /tmp/ccCget5K.s 			page 46


 2535 023a 4009     		lsrs	r0, r0, #5
 2536 023c FFF7FEFF 		bl	_test_assert
 2537              	.LVL116:
 2538 0240 0028     		cmp	r0, #0
 2539 0242 7FF4F9AE 		bne	.L18
 2540              		.loc 1 292 57 is_stmt 1 view .LVU651
 2541              		.loc 1 297 3 view .LVU652
 2542 0246 0723     		movs	r3, #7
 2543 0248 3B60     		str	r3, [r7]
 2544              		.loc 1 299 5 view .LVU653
 2545              	.LBB1623:
 2546              	.LBI1623:
 2547              		.loc 6 491 20 view .LVU654
 2548              	.LBE1623:
 2549              	.LBE1756:
 2550              	.LBE1837:
 2551              		.loc 6 493 3 view .LVU655
 2552              	.LBB1838:
 2553              	.LBB1757:
 2554              	.LBB1631:
 2555              	.LBB1624:
 2556              	.LBI1624:
 2557              		.loc 2 374 20 view .LVU656
 2558              	.LBE1624:
 2559              	.LBE1631:
 2560              	.LBE1757:
 2561              	.LBE1838:
 2562              		.loc 2 376 3 view .LVU657
 2563              	.LBB1839:
 2564              	.LBB1758:
 2565              	.LBB1632:
 2566              	.LBB1629:
 2567              	.LBB1625:
 2568              	.LBI1625:
 2569              		.loc 3 594 20 view .LVU658
 2570              	.LBE1625:
 2571              	.LBE1629:
 2572              	.LBE1632:
 2573              	.LBE1758:
 2574              	.LBE1839:
 2575              		.loc 3 602 3 view .LVU659
 2576              	.LVL117:
 2577              	.LBB1840:
 2578              	.LBB1759:
 2579              	.LBB1633:
 2580              	.LBB1630:
 2581              	.LBB1628:
 2582              	.LBB1626:
 2583              	.LBI1626:
 2584              		.loc 4 262 57 view .LVU660
 2585              	.LBB1627:
 2586              		.loc 4 264 3 view .LVU661
 2587              		.syntax unified
 2588              	@ 264 "../../../os/common/ext/CMSIS/include/cmsis_gcc.h" 1
 2589 024a 85F31188 		MSR basepri, r5
 2590              	@ 0 "" 2
 2591              	.LVL118:
ARM GAS  /tmp/ccCget5K.s 			page 47


 2592              		.loc 4 264 3 is_stmt 0 view .LVU662
 2593              		.thumb
 2594              		.syntax unified
 2595              	.LBE1627:
 2596              	.LBE1626:
 2597              	.LBE1628:
 2598              	.LBE1630:
 2599              	.LBE1633:
 2600              	.LBE1759:
 2601              	.LBE1840:
 2602              		.loc 2 377 34 is_stmt 1 view .LVU663
 2603              		.loc 2 378 20 view .LVU664
 2604              	.LBB1841:
 2605              	.LBB1760:
 2606              		.loc 1 299 5 view .LVU665
 2607              	.LBB1634:
 2608              	.LBI1634:
 2609              		.loc 5 168 21 view .LVU666
 2610              	.LBB1635:
 2611              		.loc 5 170 21 view .LVU667
 2612              		.loc 5 172 3 view .LVU668
 2613              	.LBB1636:
 2614              	.LBI1636:
 2615              		.loc 5 136 21 view .LVU669
 2616              	.LBB1637:
 2617              		.loc 5 140 3 view .LVU670
 2618              		.loc 5 140 3 is_stmt 0 view .LVU671
 2619              	.LBE1637:
 2620              	.LBE1636:
 2621              	.LBB1639:
 2622              	.LBI1639:
 2623              		.loc 5 153 21 is_stmt 1 view .LVU672
 2624              	.LBB1640:
 2625              		.loc 5 155 21 view .LVU673
 2626              		.loc 5 157 3 view .LVU674
 2627              		.loc 5 157 3 is_stmt 0 view .LVU675
 2628              	.LBE1640:
 2629              	.LBE1639:
 2630              	.LBB1641:
 2631              	.LBB1638:
 2632              		.loc 5 140 27 view .LVU676
 2633 024e D4E90023 		ldrd	r2, r3, [r4]
 2634 0252 9A1A     		subs	r2, r3, r2
 2635              	.LBE1638:
 2636              	.LBE1641:
 2637              		.loc 5 172 28 view .LVU677
 2638 0254 2369     		ldr	r3, [r4, #16]
 2639              	.LBE1635:
 2640              	.LBE1634:
 2641              		.loc 1 299 5 view .LVU678
 2642 0256 1A49     		ldr	r1, .L43+12
 2643              	.LBB1643:
 2644              	.LBB1642:
 2645              		.loc 5 172 28 view .LVU679
 2646 0258 C3EBA203 		rsb	r3, r3, r2, asr #2
 2647              	.LBE1642:
 2648              	.LBE1643:
ARM GAS  /tmp/ccCget5K.s 			page 48


 2649              		.loc 1 299 5 view .LVU680
 2650 025c 1E1F     		subs	r6, r3, #4
 2651 025e 7042     		rsbs	r0, r6, #0
 2652 0260 7041     		adcs	r0, r0, r6
 2653 0262 FFF7FEFF 		bl	_test_assert
 2654              	.LVL119:
 2655 0266 08BB     		cbnz	r0, .L40
 2656              		.loc 1 299 5 is_stmt 1 view .LVU681
 2657              	.LBB1644:
 2658              	.LBI1644:
 2659              		.loc 6 502 20 view .LVU682
 2660              	.LBE1644:
 2661              	.LBE1760:
 2662              	.LBE1841:
 2663              		.loc 6 504 3 view .LVU683
 2664              	.LBB1842:
 2665              	.LBB1761:
 2666              	.LBB1653:
 2667              	.LBB1645:
 2668              	.LBI1645:
 2669              		.loc 2 386 20 view .LVU684
 2670              	.LBB1646:
 2671              		.loc 2 388 22 view .LVU685
 2672              		.loc 2 389 33 view .LVU686
 2673              		.loc 2 395 3 view .LVU687
 2674              		.loc 2 395 3 view .LVU688
 2675              		.loc 2 395 3 view .LVU689
 2676              		.loc 2 399 3 view .LVU690
 2677              	.LBB1647:
 2678              	.LBI1647:
 2679              		.loc 3 618 20 view .LVU691
 2680              	.LBE1647:
 2681              	.LBE1646:
 2682              	.LBE1645:
 2683              	.LBE1653:
 2684              	.LBE1761:
 2685              	.LBE1842:
 2686              		.loc 3 621 3 view .LVU692
 2687              	.LVL120:
 2688              	.LBB1843:
 2689              	.LBB1762:
 2690              	.LBB1654:
 2691              	.LBB1652:
 2692              	.LBB1651:
 2693              	.LBB1650:
 2694              	.LBB1648:
 2695              	.LBI1648:
 2696              		.loc 4 262 57 view .LVU693
 2697              	.LBB1649:
 2698              		.loc 4 264 3 view .LVU694
 2699              		.syntax unified
 2700              	@ 264 "../../../os/common/ext/CMSIS/include/cmsis_gcc.h" 1
 2701 0268 89F31188 		MSR basepri, r9
 2702              	@ 0 "" 2
 2703              	.LVL121:
 2704              		.loc 4 264 3 is_stmt 0 view .LVU695
 2705              		.thumb
ARM GAS  /tmp/ccCget5K.s 			page 49


 2706              		.syntax unified
 2707              	.LBE1649:
 2708              	.LBE1648:
 2709              	.LBE1650:
 2710              	.LBE1651:
 2711              	.LBE1652:
 2712              	.LBE1654:
 2713              		.loc 1 299 70 is_stmt 1 view .LVU696
 2714              		.loc 1 300 5 view .LVU697
 2715              	.LBB1655:
 2716              	.LBI1655:
 2717              		.loc 6 491 20 view .LVU698
 2718              	.LBE1655:
 2719              	.LBE1762:
 2720              	.LBE1843:
 2721              		.loc 6 493 3 view .LVU699
 2722              	.LBB1844:
 2723              	.LBB1763:
 2724              	.LBB1663:
 2725              	.LBB1656:
 2726              	.LBI1656:
 2727              		.loc 2 374 20 view .LVU700
 2728              	.LBE1656:
 2729              	.LBE1663:
 2730              	.LBE1763:
 2731              	.LBE1844:
 2732              		.loc 2 376 3 view .LVU701
 2733              	.LBB1845:
 2734              	.LBB1764:
 2735              	.LBB1664:
 2736              	.LBB1661:
 2737              	.LBB1657:
 2738              	.LBI1657:
 2739              		.loc 3 594 20 view .LVU702
 2740              	.LBE1657:
 2741              	.LBE1661:
 2742              	.LBE1664:
 2743              	.LBE1764:
 2744              	.LBE1845:
 2745              		.loc 3 602 3 view .LVU703
 2746              	.LBB1846:
 2747              	.LBB1765:
 2748              	.LBB1665:
 2749              	.LBB1662:
 2750              	.LBB1660:
 2751              	.LBB1658:
 2752              	.LBI1658:
 2753              		.loc 4 262 57 view .LVU704
 2754              	.LBB1659:
 2755              		.loc 4 264 3 view .LVU705
 2756              		.syntax unified
 2757              	@ 264 "../../../os/common/ext/CMSIS/include/cmsis_gcc.h" 1
 2758 026c 85F31188 		MSR basepri, r5
 2759              	@ 0 "" 2
 2760              	.LVL122:
 2761              		.loc 4 264 3 is_stmt 0 view .LVU706
 2762              		.thumb
ARM GAS  /tmp/ccCget5K.s 			page 50


 2763              		.syntax unified
 2764              	.LBE1659:
 2765              	.LBE1658:
 2766              	.LBE1660:
 2767              	.LBE1662:
 2768              	.LBE1665:
 2769              	.LBE1765:
 2770              	.LBE1846:
 2771              		.loc 2 377 34 is_stmt 1 view .LVU707
 2772              		.loc 2 378 20 view .LVU708
 2773              	.LBB1847:
 2774              	.LBB1766:
 2775              		.loc 1 300 5 view .LVU709
 2776              	.LBB1666:
 2777              	.LBI1666:
 2778              		.loc 5 153 21 view .LVU710
 2779              	.LBB1667:
 2780              		.loc 5 155 21 view .LVU711
 2781              		.loc 5 157 3 view .LVU712
 2782              		.loc 5 157 3 is_stmt 0 view .LVU713
 2783              	.LBE1667:
 2784              	.LBE1666:
 2785              		.loc 1 300 5 view .LVU714
 2786 0270 2069     		ldr	r0, [r4, #16]
 2787 0272 1449     		ldr	r1, .L43+16
 2788 0274 B0FA80F0 		clz	r0, r0
 2789 0278 4009     		lsrs	r0, r0, #5
 2790 027a FFF7FEFF 		bl	_test_assert
 2791              	.LVL123:
 2792 027e A8B9     		cbnz	r0, .L40
 2793              		.loc 1 300 5 is_stmt 1 view .LVU715
 2794              	.LBB1668:
 2795              	.LBI1668:
 2796              		.loc 6 502 20 view .LVU716
 2797              	.LBE1668:
 2798              	.LBE1766:
 2799              	.LBE1847:
 2800              		.loc 6 504 3 view .LVU717
 2801              	.LBB1848:
 2802              	.LBB1767:
 2803              	.LBB1677:
 2804              	.LBB1669:
 2805              	.LBI1669:
 2806              		.loc 2 386 20 view .LVU718
 2807              	.LBB1670:
 2808              		.loc 2 388 22 view .LVU719
 2809              		.loc 2 389 33 view .LVU720
 2810              		.loc 2 395 3 view .LVU721
 2811              		.loc 2 395 3 view .LVU722
 2812              		.loc 2 395 3 view .LVU723
 2813              		.loc 2 399 3 view .LVU724
 2814              	.LBB1671:
 2815              	.LBI1671:
 2816              		.loc 3 618 20 view .LVU725
 2817              	.LBE1671:
 2818              	.LBE1670:
 2819              	.LBE1669:
ARM GAS  /tmp/ccCget5K.s 			page 51


 2820              	.LBE1677:
 2821              	.LBE1767:
 2822              	.LBE1848:
 2823              		.loc 3 621 3 view .LVU726
 2824              	.LVL124:
 2825              	.LBB1849:
 2826              	.LBB1768:
 2827              	.LBB1678:
 2828              	.LBB1676:
 2829              	.LBB1675:
 2830              	.LBB1674:
 2831              	.LBB1672:
 2832              	.LBI1672:
 2833              		.loc 4 262 57 view .LVU727
 2834              	.LBB1673:
 2835              		.loc 4 264 3 view .LVU728
 2836              		.syntax unified
 2837              	@ 264 "../../../os/common/ext/CMSIS/include/cmsis_gcc.h" 1
 2838 0280 89F31188 		MSR basepri, r9
 2839              	@ 0 "" 2
 2840              	.LVL125:
 2841              		.loc 4 264 3 is_stmt 0 view .LVU729
 2842              		.thumb
 2843              		.syntax unified
 2844              	.LBE1673:
 2845              	.LBE1672:
 2846              	.LBE1674:
 2847              	.LBE1675:
 2848              	.LBE1676:
 2849              	.LBE1678:
 2850              		.loc 1 300 65 is_stmt 1 view .LVU730
 2851              		.loc 1 301 5 view .LVU731
 2852 0284 2068     		ldr	r0, [r4]
 2853 0286 A368     		ldr	r3, [r4, #8]
 2854 0288 0F49     		ldr	r1, .L43+20
 2855 028a C21A     		subs	r2, r0, r3
 2856 028c 5042     		rsbs	r0, r2, #0
 2857 028e 5041     		adcs	r0, r0, r2
 2858 0290 FFF7FEFF 		bl	_test_assert
 2859              	.LVL126:
 2860 0294 0028     		cmp	r0, #0
 2861 0296 7FF4CFAE 		bne	.L18
 2862              		.loc 1 301 78 view .LVU732
 2863              		.loc 1 302 5 view .LVU733
 2864 029a 2068     		ldr	r0, [r4]
 2865 029c E368     		ldr	r3, [r4, #12]
 2866 029e 0B49     		ldr	r1, .L43+24
 2867 02a0 C31A     		subs	r3, r0, r3
 2868 02a2 5842     		rsbs	r0, r3, #0
 2869 02a4 5841     		adcs	r0, r0, r3
 2870 02a6 FFF7FEFF 		bl	_test_assert
 2871              	.LVL127:
 2872              		.loc 1 302 5 view .LVU734
 2873              		.loc 1 302 5 is_stmt 0 view .LVU735
 2874 02aa C5E6     		b	.L18
 2875              	.LVL128:
 2876              	.L40:
ARM GAS  /tmp/ccCget5K.s 			page 52


 2877              		.loc 1 300 5 is_stmt 1 view .LVU736
 2878              	.LBB1679:
 2879              	.LBI1679:
 2880              		.loc 6 502 20 view .LVU737
 2881              	.LBE1679:
 2882              	.LBE1768:
 2883              	.LBE1849:
 2884              		.loc 6 504 3 view .LVU738
 2885              	.LBB1850:
 2886              	.LBB1769:
 2887              	.LBB1688:
 2888              	.LBB1680:
 2889              	.LBI1680:
 2890              		.loc 2 386 20 view .LVU739
 2891              	.LBB1681:
 2892              		.loc 2 388 22 view .LVU740
 2893              		.loc 2 389 33 view .LVU741
 2894              		.loc 2 395 3 view .LVU742
 2895              		.loc 2 395 3 view .LVU743
 2896              		.loc 2 395 3 view .LVU744
 2897              		.loc 2 399 3 view .LVU745
 2898              	.LBB1682:
 2899              	.LBI1682:
 2900              		.loc 3 618 20 view .LVU746
 2901              	.LBE1682:
 2902              	.LBE1681:
 2903              	.LBE1680:
 2904              	.LBE1688:
 2905              	.LBE1769:
 2906              	.LBE1850:
 2907              		.loc 3 621 3 view .LVU747
 2908              	.LBB1851:
 2909              	.LBB1770:
 2910              	.LBB1689:
 2911              	.LBB1687:
 2912              	.LBB1686:
 2913              	.LBB1685:
 2914              	.LBB1683:
 2915              	.LBI1683:
 2916              		.loc 4 262 57 view .LVU748
 2917              	.LBB1684:
 2918              		.loc 4 264 3 view .LVU749
 2919              		.syntax unified
 2920              	@ 264 "../../../os/common/ext/CMSIS/include/cmsis_gcc.h" 1
 2921 02ac 89F31188 		MSR basepri, r9
 2922              	@ 0 "" 2
 2923              	.LVL129:
 2924              		.loc 4 264 3 is_stmt 0 view .LVU750
 2925              		.thumb
 2926              		.syntax unified
 2927              	.LBE1684:
 2928              	.LBE1683:
 2929              	.LBE1685:
 2930              	.LBE1686:
 2931              	.LBE1687:
 2932              	.LBE1689:
 2933              		.loc 1 300 5 is_stmt 1 view .LVU751
ARM GAS  /tmp/ccCget5K.s 			page 53


 2934 02b0 C2E6     		b	.L18
 2935              	.L44:
 2936 02b2 00BF     		.align	2
 2937              	.L43:
 2938 02b4 00000000 		.word	test_step
 2939 02b8 00000000 		.word	.LANCHOR0
 2940 02bc 00000000 		.word	.LC1
 2941 02c0 0C000000 		.word	.LC2
 2942 02c4 18000000 		.word	.LC3
 2943 02c8 24000000 		.word	.LC4
 2944 02cc 48000000 		.word	.LC5
 2945 02d0 00000000 		.word	.LC0
 2946 02d4 6C000000 		.word	.LC6
 2947 02d8 78000000 		.word	.LC7
 2948 02dc 84000000 		.word	.LC8
 2949 02e0 9C000000 		.word	.LC9
 2950 02e4 B0000000 		.word	.LC10
 2951              	.LBE1770:
 2952              	.LBE1851:
 2953              		.cfi_endproc
 2954              	.LFE282:
 2955              		.size	test_008_002_execute, .-test_008_002_execute
 2956              		.section	.rodata.test_008_001_execute.str1.4,"aMS",%progbits,1
 2957              		.align	2
 2958              	.LC11:
 2959 0000 6E6F7420 		.ascii	"not in reset state\000"
 2959      696E2072 
 2959      65736574 
 2959      20737461 
 2959      746500
 2960              		.section	.text.test_008_001_execute,"ax",%progbits
 2961              		.align	1
 2962              		.p2align 4,,15
 2963              		.syntax unified
 2964              		.thumb
 2965              		.thumb_func
 2966              		.fpu softvfp
 2967              		.type	test_008_001_execute, %function
 2968              	test_008_001_execute:
 2969              	.LFB279:
 2970              		.loc 1 95 40 view -0
 2971              		.cfi_startproc
 2972              		@ args = 0, pretend = 0, frame = 8
 2973              		@ frame_needed = 0, uses_anonymous_args = 0
 2974              		.loc 1 96 3 view .LVU753
 2975              		.loc 1 97 3 view .LVU754
 2976              		.loc 1 100 3 view .LVU755
 2977              		.loc 1 95 40 is_stmt 0 view .LVU756
 2978 0000 2DE9F041 		push	{r4, r5, r6, r7, r8, lr}
 2979              		.cfi_def_cfa_offset 24
 2980              		.cfi_offset 4, -24
 2981              		.cfi_offset 5, -20
 2982              		.cfi_offset 6, -16
 2983              		.cfi_offset 7, -12
 2984              		.cfi_offset 8, -8
 2985              		.cfi_offset 14, -4
 2986              		.loc 1 100 3 view .LVU757
ARM GAS  /tmp/ccCget5K.s 			page 54


 2987 0004 BE4F     		ldr	r7, .L68
 2988 0006 0123     		movs	r3, #1
 2989              		.loc 1 95 40 view .LVU758
 2990 0008 82B0     		sub	sp, sp, #8
 2991              		.cfi_def_cfa_offset 32
 2992              		.loc 1 100 3 view .LVU759
 2993 000a 3B60     		str	r3, [r7]
 2994              		.loc 1 102 5 is_stmt 1 view .LVU760
 2995              	.LBB2073:
 2996              	.LBI2073:
 2997              		.loc 6 491 20 view .LVU761
 2998              	.LBE2073:
 2999              		.loc 6 493 3 view .LVU762
 3000              	.LBB2081:
 3001              	.LBB2074:
 3002              	.LBI2074:
 3003              		.loc 2 374 20 view .LVU763
 3004              	.LBE2074:
 3005              	.LBE2081:
 3006              		.loc 2 376 3 view .LVU764
 3007              	.LBB2082:
 3008              	.LBB2079:
 3009              	.LBB2075:
 3010              	.LBI2075:
 3011              		.loc 3 594 20 view .LVU765
 3012              	.LBE2075:
 3013              	.LBE2079:
 3014              	.LBE2082:
 3015              		.loc 3 602 3 view .LVU766
 3016              	.LVL130:
 3017              	.LBB2083:
 3018              	.LBB2080:
 3019              	.LBB2078:
 3020              	.LBB2076:
 3021              	.LBI2076:
 3022              		.loc 4 262 57 view .LVU767
 3023              	.LBB2077:
 3024              		.loc 4 264 3 view .LVU768
 3025 000c 2026     		movs	r6, #32
 3026              		.syntax unified
 3027              	@ 264 "../../../os/common/ext/CMSIS/include/cmsis_gcc.h" 1
 3028 000e 86F31188 		MSR basepri, r6
 3029              	@ 0 "" 2
 3030              	.LVL131:
 3031              		.loc 4 264 3 is_stmt 0 view .LVU769
 3032              		.thumb
 3033              		.syntax unified
 3034              	.LBE2077:
 3035              	.LBE2076:
 3036              	.LBE2078:
 3037              	.LBE2080:
 3038              	.LBE2083:
 3039              		.loc 2 377 34 is_stmt 1 view .LVU770
 3040              		.loc 2 378 20 view .LVU771
 3041              		.loc 1 102 5 view .LVU772
 3042              	.LBB2084:
 3043              	.LBI2084:
ARM GAS  /tmp/ccCget5K.s 			page 55


 3044              		.loc 5 168 21 view .LVU773
 3045              	.LBB2085:
 3046              		.loc 5 170 21 view .LVU774
 3047              		.loc 5 172 3 view .LVU775
 3048              	.LBB2086:
 3049              	.LBI2086:
 3050              		.loc 5 136 21 view .LVU776
 3051              	.LBB2087:
 3052              		.loc 5 140 3 view .LVU777
 3053              		.loc 5 140 3 is_stmt 0 view .LVU778
 3054              	.LBE2087:
 3055              	.LBE2086:
 3056              	.LBB2090:
 3057              	.LBI2090:
 3058              		.loc 5 153 21 is_stmt 1 view .LVU779
 3059              	.LBB2091:
 3060              		.loc 5 155 21 view .LVU780
 3061              		.loc 5 157 3 view .LVU781
 3062              		.loc 5 157 3 is_stmt 0 view .LVU782
 3063              	.LBE2091:
 3064              	.LBE2090:
 3065              	.LBB2092:
 3066              	.LBB2088:
 3067              		.loc 5 140 21 view .LVU783
 3068 0012 BC4C     		ldr	r4, .L68+4
 3069              	.LBE2088:
 3070              	.LBE2092:
 3071              	.LBE2085:
 3072              	.LBE2084:
 3073              		.loc 1 102 5 view .LVU784
 3074 0014 BC49     		ldr	r1, .L68+8
 3075              	.LBB2095:
 3076              	.LBB2094:
 3077              	.LBB2093:
 3078              	.LBB2089:
 3079              		.loc 5 140 27 view .LVU785
 3080 0016 D4E90030 		ldrd	r3, r0, [r4]
 3081 001a C31A     		subs	r3, r0, r3
 3082              	.LBE2089:
 3083              	.LBE2093:
 3084              		.loc 5 172 28 view .LVU786
 3085 001c 2069     		ldr	r0, [r4, #16]
 3086 001e C0EBA300 		rsb	r0, r0, r3, asr #2
 3087              	.LBE2094:
 3088              	.LBE2095:
 3089              		.loc 1 102 5 view .LVU787
 3090 0022 A0F10400 		sub	r0, #4
 3091 0026 B0FA80F0 		clz	r0, r0
 3092 002a 4009     		lsrs	r0, r0, #5
 3093 002c FFF7FEFF 		bl	_test_assert
 3094              	.LVL132:
 3095 0030 28B1     		cbz	r0, .L46
 3096              		.loc 1 102 5 is_stmt 1 view .LVU788
 3097              	.LBB2096:
 3098              	.LBI2096:
 3099              		.loc 6 502 20 view .LVU789
 3100              	.LBE2096:
ARM GAS  /tmp/ccCget5K.s 			page 56


 3101              		.loc 6 504 3 view .LVU790
 3102              	.LBB2105:
 3103              	.LBB2097:
 3104              	.LBI2097:
 3105              		.loc 2 386 20 view .LVU791
 3106              	.LBB2098:
 3107              		.loc 2 388 22 view .LVU792
 3108              		.loc 2 389 33 view .LVU793
 3109              		.loc 2 395 3 view .LVU794
 3110              		.loc 2 395 3 view .LVU795
 3111              		.loc 2 395 3 view .LVU796
 3112              		.loc 2 399 3 view .LVU797
 3113              	.LBB2099:
 3114              	.LBI2099:
 3115              		.loc 3 618 20 view .LVU798
 3116              	.LBE2099:
 3117              	.LBE2098:
 3118              	.LBE2097:
 3119              	.LBE2105:
 3120              		.loc 3 621 3 view .LVU799
 3121              	.LVL133:
 3122              	.LBB2106:
 3123              	.LBB2104:
 3124              	.LBB2103:
 3125              	.LBB2102:
 3126              	.LBB2100:
 3127              	.LBI2100:
 3128              		.loc 4 262 57 view .LVU800
 3129              	.LBB2101:
 3130              		.loc 4 264 3 view .LVU801
 3131 0032 0023     		movs	r3, #0
 3132              		.syntax unified
 3133              	@ 264 "../../../os/common/ext/CMSIS/include/cmsis_gcc.h" 1
 3134 0034 83F31188 		MSR basepri, r3
 3135              	@ 0 "" 2
 3136              	.LVL134:
 3137              		.loc 4 264 3 is_stmt 0 view .LVU802
 3138              		.thumb
 3139              		.syntax unified
 3140              	.LBE2101:
 3141              	.LBE2100:
 3142              	.LBE2102:
 3143              	.LBE2103:
 3144              	.LBE2104:
 3145              	.LBE2106:
 3146              		.loc 1 102 5 is_stmt 1 view .LVU803
 3147              	.L45:
 3148              		.loc 1 181 1 is_stmt 0 view .LVU804
 3149 0038 02B0     		add	sp, sp, #8
 3150              		.cfi_remember_state
 3151              		.cfi_def_cfa_offset 24
 3152              		@ sp needed
 3153 003a BDE8F081 		pop	{r4, r5, r6, r7, r8, pc}
 3154              	.L46:
 3155              		.cfi_restore_state
 3156              	.LBB2107:
 3157              	.LBI2107:
ARM GAS  /tmp/ccCget5K.s 			page 57


 3158              		.loc 1 95 13 is_stmt 1 view .LVU805
 3159              	.LBB2108:
 3160              		.loc 1 102 5 view .LVU806
 3161              	.LBB2109:
 3162              	.LBI2109:
 3163              		.loc 6 502 20 view .LVU807
 3164              	.LBE2109:
 3165              	.LBE2108:
 3166              	.LBE2107:
 3167              		.loc 6 504 3 view .LVU808
 3168              	.LBB2454:
 3169              	.LBB2389:
 3170              	.LBB2118:
 3171              	.LBB2110:
 3172              	.LBI2110:
 3173              		.loc 2 386 20 view .LVU809
 3174              	.LBB2111:
 3175              		.loc 2 388 22 view .LVU810
 3176              		.loc 2 389 33 view .LVU811
 3177              		.loc 2 395 3 view .LVU812
 3178              		.loc 2 395 3 view .LVU813
 3179              		.loc 2 395 3 view .LVU814
 3180              		.loc 2 399 3 view .LVU815
 3181              	.LBB2112:
 3182              	.LBI2112:
 3183              		.loc 3 618 20 view .LVU816
 3184              	.LBE2112:
 3185              	.LBE2111:
 3186              	.LBE2110:
 3187              	.LBE2118:
 3188              	.LBE2389:
 3189              	.LBE2454:
 3190              		.loc 3 621 3 view .LVU817
 3191              	.LVL135:
 3192              	.LBB2455:
 3193              	.LBB2390:
 3194              	.LBB2119:
 3195              	.LBB2117:
 3196              	.LBB2116:
 3197              	.LBB2115:
 3198              	.LBB2113:
 3199              	.LBI2113:
 3200              		.loc 4 262 57 view .LVU818
 3201              	.LBB2114:
 3202              		.loc 4 264 3 view .LVU819
 3203 003e 0546     		mov	r5, r0
 3204              		.syntax unified
 3205              	@ 264 "../../../os/common/ext/CMSIS/include/cmsis_gcc.h" 1
 3206 0040 80F31188 		MSR basepri, r0
 3207              	@ 0 "" 2
 3208              	.LVL136:
 3209              		.loc 4 264 3 is_stmt 0 view .LVU820
 3210              		.thumb
 3211              		.syntax unified
 3212              	.LBE2114:
 3213              	.LBE2113:
 3214              	.LBE2115:
ARM GAS  /tmp/ccCget5K.s 			page 58


 3215              	.LBE2116:
 3216              	.LBE2117:
 3217              	.LBE2119:
 3218              		.loc 1 102 71 is_stmt 1 view .LVU821
 3219              		.loc 1 107 3 view .LVU822
 3220 0044 0223     		movs	r3, #2
 3221              		.loc 1 109 5 is_stmt 0 view .LVU823
 3222 0046 2046     		mov	r0, r4
 3223              		.loc 1 107 3 view .LVU824
 3224 0048 3B60     		str	r3, [r7]
 3225              		.loc 1 109 5 is_stmt 1 view .LVU825
 3226 004a FFF7FEFF 		bl	chMBReset
 3227              	.LVL137:
 3228              		.loc 1 110 5 view .LVU826
 3229              	.LBB2120:
 3230              	.LBI2120:
 3231              		.loc 6 491 20 view .LVU827
 3232              	.LBE2120:
 3233              	.LBE2390:
 3234              	.LBE2455:
 3235              		.loc 6 493 3 view .LVU828
 3236              	.LBB2456:
 3237              	.LBB2391:
 3238              	.LBB2128:
 3239              	.LBB2121:
 3240              	.LBI2121:
 3241              		.loc 2 374 20 view .LVU829
 3242              	.LBE2121:
 3243              	.LBE2128:
 3244              	.LBE2391:
 3245              	.LBE2456:
 3246              		.loc 2 376 3 view .LVU830
 3247              	.LBB2457:
 3248              	.LBB2392:
 3249              	.LBB2129:
 3250              	.LBB2126:
 3251              	.LBB2122:
 3252              	.LBI2122:
 3253              		.loc 3 594 20 view .LVU831
 3254              	.LBE2122:
 3255              	.LBE2126:
 3256              	.LBE2129:
 3257              	.LBE2392:
 3258              	.LBE2457:
 3259              		.loc 3 602 3 view .LVU832
 3260              	.LBB2458:
 3261              	.LBB2393:
 3262              	.LBB2130:
 3263              	.LBB2127:
 3264              	.LBB2125:
 3265              	.LBB2123:
 3266              	.LBI2123:
 3267              		.loc 4 262 57 view .LVU833
 3268              	.LBB2124:
 3269              		.loc 4 264 3 view .LVU834
 3270              		.syntax unified
 3271              	@ 264 "../../../os/common/ext/CMSIS/include/cmsis_gcc.h" 1
ARM GAS  /tmp/ccCget5K.s 			page 59


 3272 004e 86F31188 		MSR basepri, r6
 3273              	@ 0 "" 2
 3274              	.LVL138:
 3275              		.loc 4 264 3 is_stmt 0 view .LVU835
 3276              		.thumb
 3277              		.syntax unified
 3278              	.LBE2124:
 3279              	.LBE2123:
 3280              	.LBE2125:
 3281              	.LBE2127:
 3282              	.LBE2130:
 3283              	.LBE2393:
 3284              	.LBE2458:
 3285              		.loc 2 377 34 is_stmt 1 view .LVU836
 3286              		.loc 2 378 20 view .LVU837
 3287              	.LBB2459:
 3288              	.LBB2394:
 3289              		.loc 1 110 5 view .LVU838
 3290              	.LBB2131:
 3291              	.LBI2131:
 3292              		.loc 5 168 21 view .LVU839
 3293              	.LBB2132:
 3294              		.loc 5 170 21 view .LVU840
 3295              		.loc 5 172 3 view .LVU841
 3296              	.LBB2133:
 3297              	.LBI2133:
 3298              		.loc 5 136 21 view .LVU842
 3299              	.LBB2134:
 3300              		.loc 5 140 3 view .LVU843
 3301              		.loc 5 140 3 is_stmt 0 view .LVU844
 3302              	.LBE2134:
 3303              	.LBE2133:
 3304              	.LBB2136:
 3305              	.LBI2136:
 3306              		.loc 5 153 21 is_stmt 1 view .LVU845
 3307              	.LBB2137:
 3308              		.loc 5 155 21 view .LVU846
 3309              		.loc 5 157 3 view .LVU847
 3310              		.loc 5 157 3 is_stmt 0 view .LVU848
 3311              	.LBE2137:
 3312              	.LBE2136:
 3313              	.LBB2138:
 3314              	.LBB2135:
 3315              		.loc 5 140 27 view .LVU849
 3316 0052 D4E90030 		ldrd	r3, r0, [r4]
 3317 0056 C31A     		subs	r3, r0, r3
 3318              	.LBE2135:
 3319              	.LBE2138:
 3320              		.loc 5 172 28 view .LVU850
 3321 0058 2069     		ldr	r0, [r4, #16]
 3322              	.LBE2132:
 3323              	.LBE2131:
 3324              		.loc 1 110 5 view .LVU851
 3325 005a AC49     		ldr	r1, .L68+12
 3326              	.LBB2140:
 3327              	.LBB2139:
 3328              		.loc 5 172 28 view .LVU852
ARM GAS  /tmp/ccCget5K.s 			page 60


 3329 005c C0EBA300 		rsb	r0, r0, r3, asr #2
 3330              	.LBE2139:
 3331              	.LBE2140:
 3332              		.loc 1 110 5 view .LVU853
 3333 0060 A0F10400 		sub	r0, #4
 3334 0064 B0FA80F0 		clz	r0, r0
 3335 0068 4009     		lsrs	r0, r0, #5
 3336 006a FFF7FEFF 		bl	_test_assert
 3337              	.LVL139:
 3338 006e 8046     		mov	r8, r0
 3339 0070 88B9     		cbnz	r0, .L67
 3340              		.loc 1 110 5 is_stmt 1 view .LVU854
 3341              	.LBB2141:
 3342              	.LBI2141:
 3343              		.loc 6 502 20 view .LVU855
 3344              	.LBE2141:
 3345              	.LBE2394:
 3346              	.LBE2459:
 3347              		.loc 6 504 3 view .LVU856
 3348              	.LBB2460:
 3349              	.LBB2395:
 3350              	.LBB2150:
 3351              	.LBB2142:
 3352              	.LBI2142:
 3353              		.loc 2 386 20 view .LVU857
 3354              	.LBB2143:
 3355              		.loc 2 388 22 view .LVU858
 3356              		.loc 2 389 33 view .LVU859
 3357              		.loc 2 395 3 view .LVU860
 3358              		.loc 2 395 3 view .LVU861
 3359              		.loc 2 395 3 view .LVU862
 3360              		.loc 2 399 3 view .LVU863
 3361              	.LBB2144:
 3362              	.LBI2144:
 3363              		.loc 3 618 20 view .LVU864
 3364              	.LBE2144:
 3365              	.LBE2143:
 3366              	.LBE2142:
 3367              	.LBE2150:
 3368              	.LBE2395:
 3369              	.LBE2460:
 3370              		.loc 3 621 3 view .LVU865
 3371              	.LVL140:
 3372              	.LBB2461:
 3373              	.LBB2396:
 3374              	.LBB2151:
 3375              	.LBB2149:
 3376              	.LBB2148:
 3377              	.LBB2147:
 3378              	.LBB2145:
 3379              	.LBI2145:
 3380              		.loc 4 262 57 view .LVU866
 3381              	.LBB2146:
 3382              		.loc 4 264 3 view .LVU867
 3383              		.syntax unified
 3384              	@ 264 "../../../os/common/ext/CMSIS/include/cmsis_gcc.h" 1
 3385 0072 80F31188 		MSR basepri, r0
ARM GAS  /tmp/ccCget5K.s 			page 61


 3386              	@ 0 "" 2
 3387              	.LVL141:
 3388              		.loc 4 264 3 is_stmt 0 view .LVU868
 3389              		.thumb
 3390              		.syntax unified
 3391              	.LBE2146:
 3392              	.LBE2145:
 3393              	.LBE2147:
 3394              	.LBE2148:
 3395              	.LBE2149:
 3396              	.LBE2151:
 3397              		.loc 1 110 70 is_stmt 1 view .LVU869
 3398              		.loc 1 111 5 view .LVU870
 3399              	.LBB2152:
 3400              	.LBI2152:
 3401              		.loc 6 491 20 view .LVU871
 3402              	.LBE2152:
 3403              	.LBE2396:
 3404              	.LBE2461:
 3405              		.loc 6 493 3 view .LVU872
 3406              	.LBB2462:
 3407              	.LBB2397:
 3408              	.LBB2160:
 3409              	.LBB2153:
 3410              	.LBI2153:
 3411              		.loc 2 374 20 view .LVU873
 3412              	.LBE2153:
 3413              	.LBE2160:
 3414              	.LBE2397:
 3415              	.LBE2462:
 3416              		.loc 2 376 3 view .LVU874
 3417              	.LBB2463:
 3418              	.LBB2398:
 3419              	.LBB2161:
 3420              	.LBB2158:
 3421              	.LBB2154:
 3422              	.LBI2154:
 3423              		.loc 3 594 20 view .LVU875
 3424              	.LBE2154:
 3425              	.LBE2158:
 3426              	.LBE2161:
 3427              	.LBE2398:
 3428              	.LBE2463:
 3429              		.loc 3 602 3 view .LVU876
 3430              	.LBB2464:
 3431              	.LBB2399:
 3432              	.LBB2162:
 3433              	.LBB2159:
 3434              	.LBB2157:
 3435              	.LBB2155:
 3436              	.LBI2155:
 3437              		.loc 4 262 57 view .LVU877
 3438              	.LBB2156:
 3439              		.loc 4 264 3 view .LVU878
 3440              		.syntax unified
 3441              	@ 264 "../../../os/common/ext/CMSIS/include/cmsis_gcc.h" 1
 3442 0076 86F31188 		MSR basepri, r6
ARM GAS  /tmp/ccCget5K.s 			page 62


 3443              	@ 0 "" 2
 3444              	.LVL142:
 3445              		.loc 4 264 3 is_stmt 0 view .LVU879
 3446              		.thumb
 3447              		.syntax unified
 3448              	.LBE2156:
 3449              	.LBE2155:
 3450              	.LBE2157:
 3451              	.LBE2159:
 3452              	.LBE2162:
 3453              	.LBE2399:
 3454              	.LBE2464:
 3455              		.loc 2 377 34 is_stmt 1 view .LVU880
 3456              		.loc 2 378 20 view .LVU881
 3457              	.LBB2465:
 3458              	.LBB2400:
 3459              		.loc 1 111 5 view .LVU882
 3460              	.LBB2163:
 3461              	.LBI2163:
 3462              		.loc 5 153 21 view .LVU883
 3463              	.LBB2164:
 3464              		.loc 5 155 21 view .LVU884
 3465              		.loc 5 157 3 view .LVU885
 3466              		.loc 5 157 3 is_stmt 0 view .LVU886
 3467              	.LBE2164:
 3468              	.LBE2163:
 3469              		.loc 1 111 5 view .LVU887
 3470 007a 2069     		ldr	r0, [r4, #16]
 3471 007c A449     		ldr	r1, .L68+16
 3472 007e B0FA80F0 		clz	r0, r0
 3473 0082 4009     		lsrs	r0, r0, #5
 3474 0084 FFF7FEFF 		bl	_test_assert
 3475              	.LVL143:
 3476 0088 0546     		mov	r5, r0
 3477 008a 48B1     		cbz	r0, .L50
 3478              	.L66:
 3479              		.loc 1 113 5 is_stmt 1 view .LVU888
 3480              	.LBB2165:
 3481              	.LBI2165:
 3482              		.loc 6 502 20 view .LVU889
 3483              	.LBE2165:
 3484              	.LBE2400:
 3485              	.LBE2465:
 3486              		.loc 6 504 3 view .LVU890
 3487              	.LBB2466:
 3488              	.LBB2401:
 3489              	.LBB2174:
 3490              	.LBB2166:
 3491              	.LBI2166:
 3492              		.loc 2 386 20 view .LVU891
 3493              	.LBB2167:
 3494              		.loc 2 388 22 view .LVU892
 3495              		.loc 2 389 33 view .LVU893
 3496              		.loc 2 395 3 view .LVU894
 3497              		.loc 2 395 3 view .LVU895
 3498              		.loc 2 395 3 view .LVU896
 3499              		.loc 2 399 3 view .LVU897
ARM GAS  /tmp/ccCget5K.s 			page 63


 3500              	.LBB2168:
 3501              	.LBI2168:
 3502              		.loc 3 618 20 view .LVU898
 3503              	.LBE2168:
 3504              	.LBE2167:
 3505              	.LBE2166:
 3506              	.LBE2174:
 3507              	.LBE2401:
 3508              	.LBE2466:
 3509              		.loc 3 621 3 view .LVU899
 3510              	.LVL144:
 3511              	.LBB2467:
 3512              	.LBB2402:
 3513              	.LBB2175:
 3514              	.LBB2173:
 3515              	.LBB2172:
 3516              	.LBB2171:
 3517              	.LBB2169:
 3518              	.LBI2169:
 3519              		.loc 4 262 57 view .LVU900
 3520              	.LBB2170:
 3521              		.loc 4 264 3 view .LVU901
 3522              		.syntax unified
 3523              	@ 264 "../../../os/common/ext/CMSIS/include/cmsis_gcc.h" 1
 3524 008c 88F31188 		MSR basepri, r8
 3525              	@ 0 "" 2
 3526              	.LVL145:
 3527              		.loc 4 264 3 is_stmt 0 view .LVU902
 3528              		.thumb
 3529              		.syntax unified
 3530              	.LBE2170:
 3531              	.LBE2169:
 3532              	.LBE2171:
 3533              	.LBE2172:
 3534              	.LBE2173:
 3535              	.LBE2175:
 3536              		.loc 1 113 5 is_stmt 1 view .LVU903
 3537              	.LBE2402:
 3538              	.LBE2467:
 3539              		.loc 1 181 1 is_stmt 0 view .LVU904
 3540 0090 02B0     		add	sp, sp, #8
 3541              		.cfi_remember_state
 3542              		.cfi_def_cfa_offset 24
 3543              		@ sp needed
 3544 0092 BDE8F081 		pop	{r4, r5, r6, r7, r8, pc}
 3545              	.L67:
 3546              		.cfi_restore_state
 3547              	.LBB2468:
 3548              	.LBB2403:
 3549              		.loc 1 177 5 is_stmt 1 view .LVU905
 3550              	.LBB2176:
 3551              	.LBI2176:
 3552              		.loc 6 502 20 view .LVU906
 3553              	.LBE2176:
 3554              	.LBE2403:
 3555              	.LBE2468:
 3556              		.loc 6 504 3 view .LVU907
ARM GAS  /tmp/ccCget5K.s 			page 64


 3557              	.LBB2469:
 3558              	.LBB2404:
 3559              	.LBB2185:
 3560              	.LBB2177:
 3561              	.LBI2177:
 3562              		.loc 2 386 20 view .LVU908
 3563              	.LBB2178:
 3564              		.loc 2 388 22 view .LVU909
 3565              		.loc 2 389 33 view .LVU910
 3566              		.loc 2 395 3 view .LVU911
 3567              		.loc 2 395 3 view .LVU912
 3568              		.loc 2 395 3 view .LVU913
 3569              		.loc 2 399 3 view .LVU914
 3570              	.LBB2179:
 3571              	.LBI2179:
 3572              		.loc 3 618 20 view .LVU915
 3573              	.LBE2179:
 3574              	.LBE2178:
 3575              	.LBE2177:
 3576              	.LBE2185:
 3577              	.LBE2404:
 3578              	.LBE2469:
 3579              		.loc 3 621 3 view .LVU916
 3580              	.LVL146:
 3581              	.LBB2470:
 3582              	.LBB2405:
 3583              	.LBB2186:
 3584              	.LBB2184:
 3585              	.LBB2183:
 3586              	.LBB2182:
 3587              	.LBB2180:
 3588              	.LBI2180:
 3589              		.loc 4 262 57 view .LVU917
 3590              	.LBB2181:
 3591              		.loc 4 264 3 view .LVU918
 3592              		.syntax unified
 3593              	@ 264 "../../../os/common/ext/CMSIS/include/cmsis_gcc.h" 1
 3594 0096 85F31188 		MSR basepri, r5
 3595              	@ 0 "" 2
 3596              	.LVL147:
 3597              		.loc 4 264 3 is_stmt 0 view .LVU919
 3598              		.thumb
 3599              		.syntax unified
 3600              	.LBE2181:
 3601              	.LBE2180:
 3602              	.LBE2182:
 3603              	.LBE2183:
 3604              	.LBE2184:
 3605              	.LBE2186:
 3606              		.loc 1 177 5 is_stmt 1 view .LVU920
 3607              	.LBE2405:
 3608              	.LBE2470:
 3609              		.loc 1 181 1 is_stmt 0 view .LVU921
 3610 009a 02B0     		add	sp, sp, #8
 3611              		.cfi_remember_state
 3612              		.cfi_def_cfa_offset 24
 3613              		@ sp needed
ARM GAS  /tmp/ccCget5K.s 			page 65


 3614 009c BDE8F081 		pop	{r4, r5, r6, r7, r8, pc}
 3615              	.L50:
 3616              		.cfi_restore_state
 3617              	.LBB2471:
 3618              	.LBB2406:
 3619              		.loc 1 111 5 is_stmt 1 view .LVU922
 3620              	.LBB2187:
 3621              	.LBI2187:
 3622              		.loc 6 502 20 view .LVU923
 3623              	.LBE2187:
 3624              	.LBE2406:
 3625              	.LBE2471:
 3626              		.loc 6 504 3 view .LVU924
 3627              	.LBB2472:
 3628              	.LBB2407:
 3629              	.LBB2196:
 3630              	.LBB2188:
 3631              	.LBI2188:
 3632              		.loc 2 386 20 view .LVU925
 3633              	.LBB2189:
 3634              		.loc 2 388 22 view .LVU926
 3635              		.loc 2 389 33 view .LVU927
 3636              		.loc 2 395 3 view .LVU928
 3637              		.loc 2 395 3 view .LVU929
 3638              		.loc 2 395 3 view .LVU930
 3639              		.loc 2 399 3 view .LVU931
 3640              	.LBB2190:
 3641              	.LBI2190:
 3642              		.loc 3 618 20 view .LVU932
 3643              	.LBE2190:
 3644              	.LBE2189:
 3645              	.LBE2188:
 3646              	.LBE2196:
 3647              	.LBE2407:
 3648              	.LBE2472:
 3649              		.loc 3 621 3 view .LVU933
 3650              	.LVL148:
 3651              	.LBB2473:
 3652              	.LBB2408:
 3653              	.LBB2197:
 3654              	.LBB2195:
 3655              	.LBB2194:
 3656              	.LBB2193:
 3657              	.LBB2191:
 3658              	.LBI2191:
 3659              		.loc 4 262 57 view .LVU934
 3660              	.LBB2192:
 3661              		.loc 4 264 3 view .LVU935
 3662              		.syntax unified
 3663              	@ 264 "../../../os/common/ext/CMSIS/include/cmsis_gcc.h" 1
 3664 00a0 80F31188 		MSR basepri, r0
 3665              	@ 0 "" 2
 3666              	.LVL149:
 3667              		.loc 4 264 3 is_stmt 0 view .LVU936
 3668              		.thumb
 3669              		.syntax unified
 3670              	.LBE2192:
ARM GAS  /tmp/ccCget5K.s 			page 66


 3671              	.LBE2191:
 3672              	.LBE2193:
 3673              	.LBE2194:
 3674              	.LBE2195:
 3675              	.LBE2197:
 3676              		.loc 1 111 65 is_stmt 1 view .LVU937
 3677              		.loc 1 112 5 view .LVU938
 3678              	.LBB2198:
 3679              	.LBI2198:
 3680              		.loc 6 491 20 view .LVU939
 3681              	.LBE2198:
 3682              	.LBE2408:
 3683              	.LBE2473:
 3684              		.loc 6 493 3 view .LVU940
 3685              	.LBB2474:
 3686              	.LBB2409:
 3687              	.LBB2206:
 3688              	.LBB2199:
 3689              	.LBI2199:
 3690              		.loc 2 374 20 view .LVU941
 3691              	.LBE2199:
 3692              	.LBE2206:
 3693              	.LBE2409:
 3694              	.LBE2474:
 3695              		.loc 2 376 3 view .LVU942
 3696              	.LBB2475:
 3697              	.LBB2410:
 3698              	.LBB2207:
 3699              	.LBB2204:
 3700              	.LBB2200:
 3701              	.LBI2200:
 3702              		.loc 3 594 20 view .LVU943
 3703              	.LBE2200:
 3704              	.LBE2204:
 3705              	.LBE2207:
 3706              	.LBE2410:
 3707              	.LBE2475:
 3708              		.loc 3 602 3 view .LVU944
 3709              	.LBB2476:
 3710              	.LBB2411:
 3711              	.LBB2208:
 3712              	.LBB2205:
 3713              	.LBB2203:
 3714              	.LBB2201:
 3715              	.LBI2201:
 3716              		.loc 4 262 57 view .LVU945
 3717              	.LBB2202:
 3718              		.loc 4 264 3 view .LVU946
 3719              		.syntax unified
 3720              	@ 264 "../../../os/common/ext/CMSIS/include/cmsis_gcc.h" 1
 3721 00a4 86F31188 		MSR basepri, r6
 3722              	@ 0 "" 2
 3723              	.LVL150:
 3724              		.loc 4 264 3 is_stmt 0 view .LVU947
 3725              		.thumb
 3726              		.syntax unified
 3727              	.LBE2202:
ARM GAS  /tmp/ccCget5K.s 			page 67


 3728              	.LBE2201:
 3729              	.LBE2203:
 3730              	.LBE2205:
 3731              	.LBE2208:
 3732              	.LBE2411:
 3733              	.LBE2476:
 3734              		.loc 2 377 34 is_stmt 1 view .LVU948
 3735              		.loc 2 378 20 view .LVU949
 3736              	.LBB2477:
 3737              	.LBB2412:
 3738              		.loc 1 112 5 view .LVU950
 3739 00a8 2068     		ldr	r0, [r4]
 3740 00aa A368     		ldr	r3, [r4, #8]
 3741 00ac 9949     		ldr	r1, .L68+20
 3742 00ae C01A     		subs	r0, r0, r3
 3743 00b0 B0FA80F0 		clz	r0, r0
 3744 00b4 4009     		lsrs	r0, r0, #5
 3745 00b6 FFF7FEFF 		bl	_test_assert
 3746              	.LVL151:
 3747 00ba 8046     		mov	r8, r0
 3748 00bc 0028     		cmp	r0, #0
 3749 00be EAD1     		bne	.L67
 3750              		.loc 1 112 5 view .LVU951
 3751              	.LBB2209:
 3752              	.LBI2209:
 3753              		.loc 6 502 20 view .LVU952
 3754              	.LBE2209:
 3755              	.LBE2412:
 3756              	.LBE2477:
 3757              		.loc 6 504 3 view .LVU953
 3758              	.LBB2478:
 3759              	.LBB2413:
 3760              	.LBB2218:
 3761              	.LBB2210:
 3762              	.LBI2210:
 3763              		.loc 2 386 20 view .LVU954
 3764              	.LBB2211:
 3765              		.loc 2 388 22 view .LVU955
 3766              		.loc 2 389 33 view .LVU956
 3767              		.loc 2 395 3 view .LVU957
 3768              		.loc 2 395 3 view .LVU958
 3769              		.loc 2 395 3 view .LVU959
 3770              		.loc 2 399 3 view .LVU960
 3771              	.LBB2212:
 3772              	.LBI2212:
 3773              		.loc 3 618 20 view .LVU961
 3774              	.LBE2212:
 3775              	.LBE2211:
 3776              	.LBE2210:
 3777              	.LBE2218:
 3778              	.LBE2413:
 3779              	.LBE2478:
 3780              		.loc 3 621 3 view .LVU962
 3781              	.LVL152:
 3782              	.LBB2479:
 3783              	.LBB2414:
 3784              	.LBB2219:
ARM GAS  /tmp/ccCget5K.s 			page 68


 3785              	.LBB2217:
 3786              	.LBB2216:
 3787              	.LBB2215:
 3788              	.LBB2213:
 3789              	.LBI2213:
 3790              		.loc 4 262 57 view .LVU963
 3791              	.LBB2214:
 3792              		.loc 4 264 3 view .LVU964
 3793              		.syntax unified
 3794              	@ 264 "../../../os/common/ext/CMSIS/include/cmsis_gcc.h" 1
 3795 00c0 80F31188 		MSR basepri, r0
 3796              	@ 0 "" 2
 3797              	.LVL153:
 3798              		.loc 4 264 3 is_stmt 0 view .LVU965
 3799              		.thumb
 3800              		.syntax unified
 3801              	.LBE2214:
 3802              	.LBE2213:
 3803              	.LBE2215:
 3804              	.LBE2216:
 3805              	.LBE2217:
 3806              	.LBE2219:
 3807              		.loc 1 112 83 is_stmt 1 view .LVU966
 3808              		.loc 1 113 5 view .LVU967
 3809              	.LBB2220:
 3810              	.LBI2220:
 3811              		.loc 6 491 20 view .LVU968
 3812              	.LBE2220:
 3813              	.LBE2414:
 3814              	.LBE2479:
 3815              		.loc 6 493 3 view .LVU969
 3816              	.LBB2480:
 3817              	.LBB2415:
 3818              	.LBB2228:
 3819              	.LBB2221:
 3820              	.LBI2221:
 3821              		.loc 2 374 20 view .LVU970
 3822              	.LBE2221:
 3823              	.LBE2228:
 3824              	.LBE2415:
 3825              	.LBE2480:
 3826              		.loc 2 376 3 view .LVU971
 3827              	.LBB2481:
 3828              	.LBB2416:
 3829              	.LBB2229:
 3830              	.LBB2226:
 3831              	.LBB2222:
 3832              	.LBI2222:
 3833              		.loc 3 594 20 view .LVU972
 3834              	.LBE2222:
 3835              	.LBE2226:
 3836              	.LBE2229:
 3837              	.LBE2416:
 3838              	.LBE2481:
 3839              		.loc 3 602 3 view .LVU973
 3840              	.LBB2482:
 3841              	.LBB2417:
ARM GAS  /tmp/ccCget5K.s 			page 69


 3842              	.LBB2230:
 3843              	.LBB2227:
 3844              	.LBB2225:
 3845              	.LBB2223:
 3846              	.LBI2223:
 3847              		.loc 4 262 57 view .LVU974
 3848              	.LBB2224:
 3849              		.loc 4 264 3 view .LVU975
 3850              		.syntax unified
 3851              	@ 264 "../../../os/common/ext/CMSIS/include/cmsis_gcc.h" 1
 3852 00c4 86F31188 		MSR basepri, r6
 3853              	@ 0 "" 2
 3854              	.LVL154:
 3855              		.loc 4 264 3 is_stmt 0 view .LVU976
 3856              		.thumb
 3857              		.syntax unified
 3858              	.LBE2224:
 3859              	.LBE2223:
 3860              	.LBE2225:
 3861              	.LBE2227:
 3862              	.LBE2230:
 3863              	.LBE2417:
 3864              	.LBE2482:
 3865              		.loc 2 377 34 is_stmt 1 view .LVU977
 3866              		.loc 2 378 20 view .LVU978
 3867              	.LBB2483:
 3868              	.LBB2418:
 3869              		.loc 1 113 5 view .LVU979
 3870 00c8 2068     		ldr	r0, [r4]
 3871 00ca E368     		ldr	r3, [r4, #12]
 3872 00cc 9249     		ldr	r1, .L68+24
 3873 00ce C01A     		subs	r0, r0, r3
 3874 00d0 B0FA80F0 		clz	r0, r0
 3875 00d4 4009     		lsrs	r0, r0, #5
 3876 00d6 FFF7FEFF 		bl	_test_assert
 3877              	.LVL155:
 3878 00da 0028     		cmp	r0, #0
 3879 00dc D6D1     		bne	.L66
 3880              		.loc 1 113 5 view .LVU980
 3881              	.LBB2231:
 3882              	.LBI2231:
 3883              		.loc 6 502 20 view .LVU981
 3884              	.LBE2231:
 3885              	.LBE2418:
 3886              	.LBE2483:
 3887              		.loc 6 504 3 view .LVU982
 3888              	.LBB2484:
 3889              	.LBB2419:
 3890              	.LBB2240:
 3891              	.LBB2232:
 3892              	.LBI2232:
 3893              		.loc 2 386 20 view .LVU983
 3894              	.LBB2233:
 3895              		.loc 2 388 22 view .LVU984
 3896              		.loc 2 389 33 view .LVU985
 3897              		.loc 2 395 3 view .LVU986
 3898              		.loc 2 395 3 view .LVU987
ARM GAS  /tmp/ccCget5K.s 			page 70


 3899              		.loc 2 395 3 view .LVU988
 3900              		.loc 2 399 3 view .LVU989
 3901              	.LBB2234:
 3902              	.LBI2234:
 3903              		.loc 3 618 20 view .LVU990
 3904              	.LBE2234:
 3905              	.LBE2233:
 3906              	.LBE2232:
 3907              	.LBE2240:
 3908              	.LBE2419:
 3909              	.LBE2484:
 3910              		.loc 3 621 3 view .LVU991
 3911              	.LVL156:
 3912              	.LBB2485:
 3913              	.LBB2420:
 3914              	.LBB2241:
 3915              	.LBB2239:
 3916              	.LBB2238:
 3917              	.LBB2237:
 3918              	.LBB2235:
 3919              	.LBI2235:
 3920              		.loc 4 262 57 view .LVU992
 3921              	.LBB2236:
 3922              		.loc 4 264 3 view .LVU993
 3923              		.syntax unified
 3924              	@ 264 "../../../os/common/ext/CMSIS/include/cmsis_gcc.h" 1
 3925 00de 80F31188 		MSR basepri, r0
 3926              	@ 0 "" 2
 3927              	.LVL157:
 3928              		.loc 4 264 3 is_stmt 0 view .LVU994
 3929              		.thumb
 3930              		.syntax unified
 3931              	.LBE2236:
 3932              	.LBE2235:
 3933              	.LBE2237:
 3934              	.LBE2238:
 3935              	.LBE2239:
 3936              	.LBE2241:
 3937              		.loc 1 113 82 is_stmt 1 view .LVU995
 3938              		.loc 1 118 3 view .LVU996
 3939 00e2 0323     		movs	r3, #3
 3940              		.loc 1 120 12 is_stmt 0 view .LVU997
 3941 00e4 0146     		mov	r1, r0
 3942 00e6 4FF0FF32 		mov	r2, #-1
 3943 00ea 2046     		mov	r0, r4
 3944              		.loc 1 118 3 view .LVU998
 3945 00ec 3B60     		str	r3, [r7]
 3946              		.loc 1 120 5 is_stmt 1 view .LVU999
 3947              		.loc 1 120 12 is_stmt 0 view .LVU1000
 3948 00ee FFF7FEFF 		bl	chMBPost
 3949              	.LVL158:
 3950              		.loc 1 121 5 is_stmt 1 view .LVU1001
 3951 00f2 851C     		adds	r5, r0, #2
 3952 00f4 14BF     		ite	ne
 3953 00f6 0020     		movne	r0, #0
 3954              	.LVL159:
 3955              		.loc 1 121 5 is_stmt 0 view .LVU1002
ARM GAS  /tmp/ccCget5K.s 			page 71


 3956 00f8 0120     		moveq	r0, #1
 3957 00fa 8849     		ldr	r1, .L68+28
 3958 00fc FFF7FEFF 		bl	_test_assert
 3959              	.LVL160:
 3960 0100 0028     		cmp	r0, #0
 3961 0102 99D1     		bne	.L45
 3962              		.loc 1 121 57 is_stmt 1 view .LVU1003
 3963              		.loc 1 122 5 view .LVU1004
 3964              		.loc 1 122 12 is_stmt 0 view .LVU1005
 3965 0104 0146     		mov	r1, r0
 3966 0106 4FF0FF32 		mov	r2, #-1
 3967 010a 2046     		mov	r0, r4
 3968 010c FFF7FEFF 		bl	chMBPostAhead
 3969              	.LVL161:
 3970              		.loc 1 123 5 is_stmt 1 view .LVU1006
 3971 0110 821C     		adds	r2, r0, #2
 3972 0112 14BF     		ite	ne
 3973 0114 0020     		movne	r0, #0
 3974              	.LVL162:
 3975              		.loc 1 123 5 is_stmt 0 view .LVU1007
 3976 0116 0120     		moveq	r0, #1
 3977 0118 8049     		ldr	r1, .L68+28
 3978 011a FFF7FEFF 		bl	_test_assert
 3979              	.LVL163:
 3980              		.loc 1 123 5 view .LVU1008
 3981 011e 0028     		cmp	r0, #0
 3982 0120 8AD1     		bne	.L45
 3983              		.loc 1 123 57 is_stmt 1 view .LVU1009
 3984              		.loc 1 124 5 view .LVU1010
 3985              		.loc 1 124 12 is_stmt 0 view .LVU1011
 3986 0122 01A9     		add	r1, sp, #4
 3987 0124 4FF0FF32 		mov	r2, #-1
 3988 0128 2046     		mov	r0, r4
 3989 012a FFF7FEFF 		bl	chMBFetch
 3990              	.LVL164:
 3991              		.loc 1 125 5 is_stmt 1 view .LVU1012
 3992 012e 831C     		adds	r3, r0, #2
 3993 0130 14BF     		ite	ne
 3994 0132 0020     		movne	r0, #0
 3995              	.LVL165:
 3996              		.loc 1 125 5 is_stmt 0 view .LVU1013
 3997 0134 0120     		moveq	r0, #1
 3998 0136 7949     		ldr	r1, .L68+28
 3999 0138 FFF7FEFF 		bl	_test_assert
 4000              	.LVL166:
 4001              		.loc 1 125 5 view .LVU1014
 4002 013c 0028     		cmp	r0, #0
 4003 013e 7FF47BAF 		bne	.L45
 4004              		.loc 1 125 57 is_stmt 1 view .LVU1015
 4005              		.loc 1 126 5 view .LVU1016
 4006              	.LVL167:
 4007              	.LBB2242:
 4008              	.LBI2242:
 4009              		.loc 5 201 20 view .LVU1017
 4010              	.LBB2243:
 4011              		.loc 5 203 3 view .LVU1018
 4012              	.LBE2243:
ARM GAS  /tmp/ccCget5K.s 			page 72


 4013              	.LBE2242:
 4014              		.loc 1 131 3 is_stmt 0 view .LVU1019
 4015 0142 0423     		movs	r3, #4
 4016              		.loc 1 135 7 view .LVU1020
 4017 0144 764E     		ldr	r6, .L68+32
 4018              	.LBB2245:
 4019              	.LBB2244:
 4020              		.loc 5 203 14 view .LVU1021
 4021 0146 2075     		strb	r0, [r4, #20]
 4022              	.LVL168:
 4023              		.loc 5 203 14 view .LVU1022
 4024              	.LBE2244:
 4025              	.LBE2245:
 4026              		.loc 1 131 3 is_stmt 1 view .LVU1023
 4027 0148 3B60     		str	r3, [r7]
 4028              		.loc 1 133 5 view .LVU1024
 4029              	.LVL169:
 4030              		.loc 1 133 17 view .LVU1025
 4031              		.loc 1 131 3 is_stmt 0 view .LVU1026
 4032 014a 4225     		movs	r5, #66
 4033              	.LVL170:
 4034              	.L55:
 4035              		.loc 1 134 7 is_stmt 1 view .LVU1027
 4036              		.loc 1 134 14 is_stmt 0 view .LVU1028
 4037 014c 2946     		mov	r1, r5
 4038 014e 4FF0FF32 		mov	r2, #-1
 4039 0152 2046     		mov	r0, r4
 4040 0154 FFF7FEFF 		bl	chMBPost
 4041              	.LVL171:
 4042              		.loc 1 135 7 is_stmt 1 view .LVU1029
 4043 0158 B0FA80F0 		clz	r0, r0
 4044              	.LVL172:
 4045              		.loc 1 135 7 is_stmt 0 view .LVU1030
 4046 015c 3146     		mov	r1, r6
 4047 015e 4009     		lsrs	r0, r0, #5
 4048              		.loc 1 133 5 view .LVU1031
 4049 0160 0135     		adds	r5, r5, #1
 4050              	.LVL173:
 4051              		.loc 1 135 7 view .LVU1032
 4052 0162 FFF7FEFF 		bl	_test_assert
 4053              	.LVL174:
 4054              		.loc 1 135 59 is_stmt 1 view .LVU1033
 4055              		.loc 1 133 34 view .LVU1034
 4056              		.loc 1 133 17 view .LVU1035
 4057              		.loc 1 135 7 is_stmt 0 view .LVU1036
 4058 0166 0028     		cmp	r0, #0
 4059 0168 7FF466AF 		bne	.L45
 4060              		.loc 1 133 5 view .LVU1037
 4061 016c 452D     		cmp	r5, #69
 4062 016e EDD1     		bne	.L55
 4063              		.loc 1 137 5 is_stmt 1 view .LVU1038
 4064              		.loc 1 137 12 is_stmt 0 view .LVU1039
 4065 0170 4FF0FF32 		mov	r2, #-1
 4066 0174 4121     		movs	r1, #65
 4067 0176 6348     		ldr	r0, .L68+4
 4068 0178 FFF7FEFF 		bl	chMBPostAhead
 4069              	.LVL175:
ARM GAS  /tmp/ccCget5K.s 			page 73


 4070              		.loc 1 138 5 is_stmt 1 view .LVU1040
 4071 017c B0FA80F0 		clz	r0, r0
 4072              	.LVL176:
 4073              		.loc 1 138 5 is_stmt 0 view .LVU1041
 4074 0180 6749     		ldr	r1, .L68+32
 4075 0182 4009     		lsrs	r0, r0, #5
 4076 0184 FFF7FEFF 		bl	_test_assert
 4077              	.LVL177:
 4078 0188 0546     		mov	r5, r0
 4079 018a 0028     		cmp	r0, #0
 4080 018c 7FF454AF 		bne	.L45
 4081              		.loc 1 138 57 is_stmt 1 view .LVU1042
 4082              		.loc 1 143 3 view .LVU1043
 4083 0190 0523     		movs	r3, #5
 4084 0192 3B60     		str	r3, [r7]
 4085              		.loc 1 145 5 view .LVU1044
 4086              	.LBB2246:
 4087              	.LBI2246:
 4088              		.loc 6 491 20 view .LVU1045
 4089              	.LBE2246:
 4090              	.LBE2420:
 4091              	.LBE2485:
 4092              		.loc 6 493 3 view .LVU1046
 4093              	.LBB2486:
 4094              	.LBB2421:
 4095              	.LBB2254:
 4096              	.LBB2247:
 4097              	.LBI2247:
 4098              		.loc 2 374 20 view .LVU1047
 4099              	.LBE2247:
 4100              	.LBE2254:
 4101              	.LBE2421:
 4102              	.LBE2486:
 4103              		.loc 2 376 3 view .LVU1048
 4104              	.LBB2487:
 4105              	.LBB2422:
 4106              	.LBB2255:
 4107              	.LBB2252:
 4108              	.LBB2248:
 4109              	.LBI2248:
 4110              		.loc 3 594 20 view .LVU1049
 4111              	.LBE2248:
 4112              	.LBE2252:
 4113              	.LBE2255:
 4114              	.LBE2422:
 4115              	.LBE2487:
 4116              		.loc 3 602 3 view .LVU1050
 4117              	.LVL178:
 4118              	.LBB2488:
 4119              	.LBB2423:
 4120              	.LBB2256:
 4121              	.LBB2253:
 4122              	.LBB2251:
 4123              	.LBB2249:
 4124              	.LBI2249:
 4125              		.loc 4 262 57 view .LVU1051
 4126              	.LBB2250:
ARM GAS  /tmp/ccCget5K.s 			page 74


 4127              		.loc 4 264 3 view .LVU1052
 4128 0194 4FF02008 		mov	r8, #32
 4129              		.syntax unified
 4130              	@ 264 "../../../os/common/ext/CMSIS/include/cmsis_gcc.h" 1
 4131 0198 88F31188 		MSR basepri, r8
 4132              	@ 0 "" 2
 4133              	.LVL179:
 4134              		.loc 4 264 3 is_stmt 0 view .LVU1053
 4135              		.thumb
 4136              		.syntax unified
 4137              	.LBE2250:
 4138              	.LBE2249:
 4139              	.LBE2251:
 4140              	.LBE2253:
 4141              	.LBE2256:
 4142              	.LBE2423:
 4143              	.LBE2488:
 4144              		.loc 2 377 34 is_stmt 1 view .LVU1054
 4145              		.loc 2 378 20 view .LVU1055
 4146              	.LBB2489:
 4147              	.LBB2424:
 4148              		.loc 1 145 5 view .LVU1056
 4149              	.LBB2257:
 4150              	.LBI2257:
 4151              		.loc 5 168 21 view .LVU1057
 4152              	.LBE2257:
 4153              	.LBE2424:
 4154              	.LBE2489:
 4155              		.loc 5 170 21 view .LVU1058
 4156              		.loc 5 172 3 view .LVU1059
 4157              	.LBB2490:
 4158              	.LBB2425:
 4159              	.LBB2264:
 4160              	.LBB2258:
 4161              	.LBI2258:
 4162              		.loc 5 136 21 view .LVU1060
 4163              	.LBB2259:
 4164              		.loc 5 140 3 view .LVU1061
 4165              		.loc 5 140 3 is_stmt 0 view .LVU1062
 4166              	.LBE2259:
 4167              	.LBE2258:
 4168              	.LBB2261:
 4169              	.LBI2261:
 4170              		.loc 5 153 21 is_stmt 1 view .LVU1063
 4171              	.LBB2262:
 4172              		.loc 5 155 21 view .LVU1064
 4173              		.loc 5 157 3 view .LVU1065
 4174              		.loc 5 157 3 is_stmt 0 view .LVU1066
 4175              	.LBE2262:
 4176              	.LBE2261:
 4177              	.LBB2263:
 4178              	.LBB2260:
 4179              		.loc 5 140 27 view .LVU1067
 4180 019c D4E90023 		ldrd	r2, r3, [r4]
 4181 01a0 9B1A     		subs	r3, r3, r2
 4182              	.LBE2260:
 4183              	.LBE2263:
ARM GAS  /tmp/ccCget5K.s 			page 75


 4184              	.LBE2264:
 4185              		.loc 1 145 5 view .LVU1068
 4186 01a2 2269     		ldr	r2, [r4, #16]
 4187 01a4 5F49     		ldr	r1, .L68+36
 4188 01a6 B2EBA30F 		cmp	r2, r3, asr #2
 4189 01aa 0CBF     		ite	eq
 4190 01ac 0120     		moveq	r0, #1
 4191 01ae 0020     		movne	r0, #0
 4192 01b0 FFF7FEFF 		bl	_test_assert
 4193              	.LVL180:
 4194 01b4 0646     		mov	r6, r0
 4195 01b6 0028     		cmp	r0, #0
 4196 01b8 7FF46DAF 		bne	.L67
 4197              		.loc 1 145 5 is_stmt 1 view .LVU1069
 4198              	.LBB2265:
 4199              	.LBI2265:
 4200              		.loc 6 502 20 view .LVU1070
 4201              	.LBE2265:
 4202              	.LBE2425:
 4203              	.LBE2490:
 4204              		.loc 6 504 3 view .LVU1071
 4205              	.LBB2491:
 4206              	.LBB2426:
 4207              	.LBB2274:
 4208              	.LBB2266:
 4209              	.LBI2266:
 4210              		.loc 2 386 20 view .LVU1072
 4211              	.LBB2267:
 4212              		.loc 2 388 22 view .LVU1073
 4213              		.loc 2 389 33 view .LVU1074
 4214              		.loc 2 395 3 view .LVU1075
 4215              		.loc 2 395 3 view .LVU1076
 4216              		.loc 2 395 3 view .LVU1077
 4217              		.loc 2 399 3 view .LVU1078
 4218              	.LBB2268:
 4219              	.LBI2268:
 4220              		.loc 3 618 20 view .LVU1079
 4221              	.LBE2268:
 4222              	.LBE2267:
 4223              	.LBE2266:
 4224              	.LBE2274:
 4225              	.LBE2426:
 4226              	.LBE2491:
 4227              		.loc 3 621 3 view .LVU1080
 4228              	.LVL181:
 4229              	.LBB2492:
 4230              	.LBB2427:
 4231              	.LBB2275:
 4232              	.LBB2273:
 4233              	.LBB2272:
 4234              	.LBB2271:
 4235              	.LBB2269:
 4236              	.LBI2269:
 4237              		.loc 4 262 57 view .LVU1081
 4238              	.LBB2270:
 4239              		.loc 4 264 3 view .LVU1082
 4240              		.syntax unified
ARM GAS  /tmp/ccCget5K.s 			page 76


 4241              	@ 264 "../../../os/common/ext/CMSIS/include/cmsis_gcc.h" 1
 4242 01bc 80F31188 		MSR basepri, r0
 4243              	@ 0 "" 2
 4244              	.LVL182:
 4245              		.loc 4 264 3 is_stmt 0 view .LVU1083
 4246              		.thumb
 4247              		.syntax unified
 4248              	.LBE2270:
 4249              	.LBE2269:
 4250              	.LBE2271:
 4251              	.LBE2272:
 4252              	.LBE2273:
 4253              	.LBE2275:
 4254              		.loc 1 145 66 is_stmt 1 view .LVU1084
 4255              		.loc 1 146 5 view .LVU1085
 4256              	.LBB2276:
 4257              	.LBI2276:
 4258              		.loc 6 491 20 view .LVU1086
 4259              	.LBE2276:
 4260              	.LBE2427:
 4261              	.LBE2492:
 4262              		.loc 6 493 3 view .LVU1087
 4263              	.LBB2493:
 4264              	.LBB2428:
 4265              	.LBB2284:
 4266              	.LBB2277:
 4267              	.LBI2277:
 4268              		.loc 2 374 20 view .LVU1088
 4269              	.LBE2277:
 4270              	.LBE2284:
 4271              	.LBE2428:
 4272              	.LBE2493:
 4273              		.loc 2 376 3 view .LVU1089
 4274              	.LBB2494:
 4275              	.LBB2429:
 4276              	.LBB2285:
 4277              	.LBB2282:
 4278              	.LBB2278:
 4279              	.LBI2278:
 4280              		.loc 3 594 20 view .LVU1090
 4281              	.LBE2278:
 4282              	.LBE2282:
 4283              	.LBE2285:
 4284              	.LBE2429:
 4285              	.LBE2494:
 4286              		.loc 3 602 3 view .LVU1091
 4287              	.LBB2495:
 4288              	.LBB2430:
 4289              	.LBB2286:
 4290              	.LBB2283:
 4291              	.LBB2281:
 4292              	.LBB2279:
 4293              	.LBI2279:
 4294              		.loc 4 262 57 view .LVU1092
 4295              	.LBB2280:
 4296              		.loc 4 264 3 view .LVU1093
 4297              		.syntax unified
ARM GAS  /tmp/ccCget5K.s 			page 77


 4298              	@ 264 "../../../os/common/ext/CMSIS/include/cmsis_gcc.h" 1
 4299 01c0 88F31188 		MSR basepri, r8
 4300              	@ 0 "" 2
 4301              	.LVL183:
 4302              		.loc 4 264 3 is_stmt 0 view .LVU1094
 4303              		.thumb
 4304              		.syntax unified
 4305              	.LBE2280:
 4306              	.LBE2279:
 4307              	.LBE2281:
 4308              	.LBE2283:
 4309              	.LBE2286:
 4310              	.LBE2430:
 4311              	.LBE2495:
 4312              		.loc 2 377 34 is_stmt 1 view .LVU1095
 4313              		.loc 2 378 20 view .LVU1096
 4314              	.LBB2496:
 4315              	.LBB2431:
 4316              		.loc 1 146 5 view .LVU1097
 4317              	.LBB2287:
 4318              	.LBI2287:
 4319              		.loc 5 153 21 view .LVU1098
 4320              	.LBB2288:
 4321              		.loc 5 155 21 view .LVU1099
 4322              		.loc 5 157 3 view .LVU1100
 4323              		.loc 5 157 3 is_stmt 0 view .LVU1101
 4324              	.LBE2288:
 4325              	.LBE2287:
 4326              		.loc 1 146 5 view .LVU1102
 4327 01c4 2069     		ldr	r0, [r4, #16]
 4328 01c6 5849     		ldr	r1, .L68+40
 4329 01c8 A0F1040E 		sub	lr, r0, #4
 4330 01cc DEF10000 		rsbs	r0, lr, #0
 4331 01d0 40EB0E00 		adc	r0, r0, lr
 4332 01d4 FFF7FEFF 		bl	_test_assert
 4333              	.LVL184:
 4334 01d8 0546     		mov	r5, r0
 4335 01da 10B1     		cbz	r0, .L57
 4336              		.loc 1 146 5 is_stmt 1 view .LVU1103
 4337              	.LBB2289:
 4338              	.LBI2289:
 4339              		.loc 6 502 20 view .LVU1104
 4340              	.LBE2289:
 4341              	.LBE2431:
 4342              	.LBE2496:
 4343              		.loc 6 504 3 view .LVU1105
 4344              	.LBB2497:
 4345              	.LBB2432:
 4346              	.LBB2298:
 4347              	.LBB2290:
 4348              	.LBI2290:
 4349              		.loc 2 386 20 view .LVU1106
 4350              	.LBB2291:
 4351              		.loc 2 388 22 view .LVU1107
 4352              		.loc 2 389 33 view .LVU1108
 4353              		.loc 2 395 3 view .LVU1109
 4354              		.loc 2 395 3 view .LVU1110
ARM GAS  /tmp/ccCget5K.s 			page 78


 4355              		.loc 2 395 3 view .LVU1111
 4356              		.loc 2 399 3 view .LVU1112
 4357              	.LBB2292:
 4358              	.LBI2292:
 4359              		.loc 3 618 20 view .LVU1113
 4360              	.LBE2292:
 4361              	.LBE2291:
 4362              	.LBE2290:
 4363              	.LBE2298:
 4364              	.LBE2432:
 4365              	.LBE2497:
 4366              		.loc 3 621 3 view .LVU1114
 4367              	.LVL185:
 4368              	.LBB2498:
 4369              	.LBB2433:
 4370              	.LBB2299:
 4371              	.LBB2297:
 4372              	.LBB2296:
 4373              	.LBB2295:
 4374              	.LBB2293:
 4375              	.LBI2293:
 4376              		.loc 4 262 57 view .LVU1115
 4377              	.LBB2294:
 4378              		.loc 4 264 3 view .LVU1116
 4379              		.syntax unified
 4380              	@ 264 "../../../os/common/ext/CMSIS/include/cmsis_gcc.h" 1
 4381 01dc 86F31188 		MSR basepri, r6
 4382              	@ 0 "" 2
 4383              	.LVL186:
 4384              		.loc 4 264 3 is_stmt 0 view .LVU1117
 4385              		.thumb
 4386              		.syntax unified
 4387              	.LBE2294:
 4388              	.LBE2293:
 4389              	.LBE2295:
 4390              	.LBE2296:
 4391              	.LBE2297:
 4392              	.LBE2299:
 4393              		.loc 1 146 5 is_stmt 1 view .LVU1118
 4394 01e0 2AE7     		b	.L45
 4395              	.L57:
 4396              		.loc 1 146 5 view .LVU1119
 4397              	.LBB2300:
 4398              	.LBI2300:
 4399              		.loc 6 502 20 view .LVU1120
 4400              	.LBE2300:
 4401              	.LBE2433:
 4402              	.LBE2498:
 4403              		.loc 6 504 3 view .LVU1121
 4404              	.LBB2499:
 4405              	.LBB2434:
 4406              	.LBB2309:
 4407              	.LBB2301:
 4408              	.LBI2301:
 4409              		.loc 2 386 20 view .LVU1122
 4410              	.LBB2302:
 4411              		.loc 2 388 22 view .LVU1123
ARM GAS  /tmp/ccCget5K.s 			page 79


 4412              		.loc 2 389 33 view .LVU1124
 4413              		.loc 2 395 3 view .LVU1125
 4414              		.loc 2 395 3 view .LVU1126
 4415              		.loc 2 395 3 view .LVU1127
 4416              		.loc 2 399 3 view .LVU1128
 4417              	.LBB2303:
 4418              	.LBI2303:
 4419              		.loc 3 618 20 view .LVU1129
 4420              	.LBE2303:
 4421              	.LBE2302:
 4422              	.LBE2301:
 4423              	.LBE2309:
 4424              	.LBE2434:
 4425              	.LBE2499:
 4426              		.loc 3 621 3 view .LVU1130
 4427              	.LVL187:
 4428              	.LBB2500:
 4429              	.LBB2435:
 4430              	.LBB2310:
 4431              	.LBB2308:
 4432              	.LBB2307:
 4433              	.LBB2306:
 4434              	.LBB2304:
 4435              	.LBI2304:
 4436              		.loc 4 262 57 view .LVU1131
 4437              	.LBB2305:
 4438              		.loc 4 264 3 view .LVU1132
 4439              		.syntax unified
 4440              	@ 264 "../../../os/common/ext/CMSIS/include/cmsis_gcc.h" 1
 4441 01e2 80F31188 		MSR basepri, r0
 4442              	@ 0 "" 2
 4443              	.LVL188:
 4444              		.loc 4 264 3 is_stmt 0 view .LVU1133
 4445              		.thumb
 4446              		.syntax unified
 4447              	.LBE2305:
 4448              	.LBE2304:
 4449              	.LBE2306:
 4450              	.LBE2307:
 4451              	.LBE2308:
 4452              	.LBE2310:
 4453              		.loc 1 146 69 is_stmt 1 view .LVU1134
 4454              		.loc 1 147 5 view .LVU1135
 4455              	.LBB2311:
 4456              	.LBI2311:
 4457              		.loc 6 491 20 view .LVU1136
 4458              	.LBE2311:
 4459              	.LBE2435:
 4460              	.LBE2500:
 4461              		.loc 6 493 3 view .LVU1137
 4462              	.LBB2501:
 4463              	.LBB2436:
 4464              	.LBB2319:
 4465              	.LBB2312:
 4466              	.LBI2312:
 4467              		.loc 2 374 20 view .LVU1138
 4468              	.LBE2312:
ARM GAS  /tmp/ccCget5K.s 			page 80


 4469              	.LBE2319:
 4470              	.LBE2436:
 4471              	.LBE2501:
 4472              		.loc 2 376 3 view .LVU1139
 4473              	.LBB2502:
 4474              	.LBB2437:
 4475              	.LBB2320:
 4476              	.LBB2317:
 4477              	.LBB2313:
 4478              	.LBI2313:
 4479              		.loc 3 594 20 view .LVU1140
 4480              	.LBE2313:
 4481              	.LBE2317:
 4482              	.LBE2320:
 4483              	.LBE2437:
 4484              	.LBE2502:
 4485              		.loc 3 602 3 view .LVU1141
 4486              	.LBB2503:
 4487              	.LBB2438:
 4488              	.LBB2321:
 4489              	.LBB2318:
 4490              	.LBB2316:
 4491              	.LBB2314:
 4492              	.LBI2314:
 4493              		.loc 4 262 57 view .LVU1142
 4494              	.LBB2315:
 4495              		.loc 4 264 3 view .LVU1143
 4496              		.syntax unified
 4497              	@ 264 "../../../os/common/ext/CMSIS/include/cmsis_gcc.h" 1
 4498 01e6 88F31188 		MSR basepri, r8
 4499              	@ 0 "" 2
 4500              	.LVL189:
 4501              		.loc 4 264 3 is_stmt 0 view .LVU1144
 4502              		.thumb
 4503              		.syntax unified
 4504              	.LBE2315:
 4505              	.LBE2314:
 4506              	.LBE2316:
 4507              	.LBE2318:
 4508              	.LBE2321:
 4509              	.LBE2438:
 4510              	.LBE2503:
 4511              		.loc 2 377 34 is_stmt 1 view .LVU1145
 4512              		.loc 2 378 20 view .LVU1146
 4513              	.LBB2504:
 4514              	.LBB2439:
 4515              		.loc 1 147 5 view .LVU1147
 4516 01ea D4E90230 		ldrd	r3, r0, [r4, #8]
 4517 01ee A0EB030C 		sub	ip, r0, r3
 4518 01f2 DCF10000 		rsbs	r0, ip, #0
 4519 01f6 40EB0C00 		adc	r0, r0, ip
 4520 01fa 4C49     		ldr	r1, .L68+44
 4521 01fc FFF7FEFF 		bl	_test_assert
 4522              	.LVL190:
 4523 0200 0028     		cmp	r0, #0
 4524 0202 7FF448AF 		bne	.L67
 4525              		.loc 1 147 5 view .LVU1148
ARM GAS  /tmp/ccCget5K.s 			page 81


 4526              	.LBB2322:
 4527              	.LBI2322:
 4528              		.loc 6 502 20 view .LVU1149
 4529              	.LBE2322:
 4530              	.LBE2439:
 4531              	.LBE2504:
 4532              		.loc 6 504 3 view .LVU1150
 4533              	.LBB2505:
 4534              	.LBB2440:
 4535              	.LBB2331:
 4536              	.LBB2323:
 4537              	.LBI2323:
 4538              		.loc 2 386 20 view .LVU1151
 4539              	.LBB2324:
 4540              		.loc 2 388 22 view .LVU1152
 4541              		.loc 2 389 33 view .LVU1153
 4542              		.loc 2 395 3 view .LVU1154
 4543              		.loc 2 395 3 view .LVU1155
 4544              		.loc 2 395 3 view .LVU1156
 4545              		.loc 2 399 3 view .LVU1157
 4546              	.LBB2325:
 4547              	.LBI2325:
 4548              		.loc 3 618 20 view .LVU1158
 4549              	.LBE2325:
 4550              	.LBE2324:
 4551              	.LBE2323:
 4552              	.LBE2331:
 4553              	.LBE2440:
 4554              	.LBE2505:
 4555              		.loc 3 621 3 view .LVU1159
 4556              	.LVL191:
 4557              	.LBB2506:
 4558              	.LBB2441:
 4559              	.LBB2332:
 4560              	.LBB2330:
 4561              	.LBB2329:
 4562              	.LBB2328:
 4563              	.LBB2326:
 4564              	.LBI2326:
 4565              		.loc 4 262 57 view .LVU1160
 4566              	.LBB2327:
 4567              		.loc 4 264 3 view .LVU1161
 4568              		.syntax unified
 4569              	@ 264 "../../../os/common/ext/CMSIS/include/cmsis_gcc.h" 1
 4570 0206 80F31188 		MSR basepri, r0
 4571              	@ 0 "" 2
 4572              	.LVL192:
 4573              		.loc 4 264 3 is_stmt 0 view .LVU1162
 4574              		.thumb
 4575              		.syntax unified
 4576              	.LBE2327:
 4577              	.LBE2326:
 4578              	.LBE2328:
 4579              	.LBE2329:
 4580              	.LBE2330:
 4581              	.LBE2332:
 4582              		.loc 1 147 69 is_stmt 1 view .LVU1163
ARM GAS  /tmp/ccCget5K.s 			page 82


 4583              		.loc 1 152 3 view .LVU1164
 4584 020a 0623     		movs	r3, #6
 4585              		.loc 1 155 14 is_stmt 0 view .LVU1165
 4586 020c DFF8F480 		ldr	r8, .L68+4
 4587              		.loc 1 156 7 view .LVU1166
 4588 0210 434E     		ldr	r6, .L68+32
 4589              		.loc 1 152 3 view .LVU1167
 4590 0212 3B60     		str	r3, [r7]
 4591              		.loc 1 154 5 is_stmt 1 view .LVU1168
 4592              	.LVL193:
 4593              		.loc 1 154 17 view .LVU1169
 4594              		.loc 1 152 3 is_stmt 0 view .LVU1170
 4595 0214 0425     		movs	r5, #4
 4596              	.LVL194:
 4597              	.L59:
 4598              		.loc 1 155 7 is_stmt 1 view .LVU1171
 4599              		.loc 1 155 14 is_stmt 0 view .LVU1172
 4600 0216 01A9     		add	r1, sp, #4
 4601 0218 4FF0FF32 		mov	r2, #-1
 4602 021c 4046     		mov	r0, r8
 4603 021e FFF7FEFF 		bl	chMBFetch
 4604              	.LVL195:
 4605              		.loc 1 156 7 is_stmt 1 view .LVU1173
 4606 0222 B0FA80F0 		clz	r0, r0
 4607              	.LVL196:
 4608              		.loc 1 156 7 is_stmt 0 view .LVU1174
 4609 0226 3146     		mov	r1, r6
 4610 0228 4009     		lsrs	r0, r0, #5
 4611 022a FFF7FEFF 		bl	_test_assert
 4612              	.LVL197:
 4613              		.loc 1 156 59 is_stmt 1 view .LVU1175
 4614              		.loc 1 157 7 view .LVU1176
 4615              		.loc 1 156 7 is_stmt 0 view .LVU1177
 4616 022e 0028     		cmp	r0, #0
 4617 0230 7FF402AF 		bne	.L45
 4618              		.loc 1 157 7 view .LVU1178
 4619 0234 9DF80400 		ldrb	r0, [sp, #4]	@ zero_extendqisi2
 4620 0238 FFF7FEFF 		bl	test_emit_token
 4621              	.LVL198:
 4622              		.loc 1 154 30 is_stmt 1 view .LVU1179
 4623              		.loc 1 154 17 view .LVU1180
 4624              		.loc 1 154 5 is_stmt 0 view .LVU1181
 4625 023c 013D     		subs	r5, r5, #1
 4626              	.LVL199:
 4627              		.loc 1 154 5 view .LVU1182
 4628 023e EAD1     		bne	.L59
 4629              		.loc 1 159 5 is_stmt 1 view .LVU1183
 4630 0240 3B49     		ldr	r1, .L68+48
 4631 0242 3C48     		ldr	r0, .L68+52
 4632 0244 FFF7FEFF 		bl	_test_assert_sequence
 4633              	.LVL200:
 4634 0248 0028     		cmp	r0, #0
 4635 024a 7FF4F5AE 		bne	.L45
 4636              		.loc 1 159 55 view .LVU1184
 4637              		.loc 1 164 3 view .LVU1185
 4638 024e 0723     		movs	r3, #7
 4639              		.loc 1 166 12 is_stmt 0 view .LVU1186
ARM GAS  /tmp/ccCget5K.s 			page 83


 4640 0250 4621     		movs	r1, #70
 4641 0252 2C48     		ldr	r0, .L68+4
 4642              		.loc 1 164 3 view .LVU1187
 4643 0254 3B60     		str	r3, [r7]
 4644              		.loc 1 166 5 is_stmt 1 view .LVU1188
 4645              		.loc 1 166 12 is_stmt 0 view .LVU1189
 4646 0256 4FF0FF32 		mov	r2, #-1
 4647 025a FFF7FEFF 		bl	chMBPost
 4648              	.LVL201:
 4649              		.loc 1 167 5 is_stmt 1 view .LVU1190
 4650 025e B0FA80F0 		clz	r0, r0
 4651              	.LVL202:
 4652              		.loc 1 167 5 is_stmt 0 view .LVU1191
 4653 0262 2F49     		ldr	r1, .L68+32
 4654 0264 4009     		lsrs	r0, r0, #5
 4655 0266 FFF7FEFF 		bl	_test_assert
 4656              	.LVL203:
 4657 026a 0028     		cmp	r0, #0
 4658 026c 7FF4E4AE 		bne	.L45
 4659              		.loc 1 167 57 is_stmt 1 view .LVU1192
 4660              		.loc 1 168 5 view .LVU1193
 4661              		.loc 1 168 12 is_stmt 0 view .LVU1194
 4662 0270 01A9     		add	r1, sp, #4
 4663 0272 2448     		ldr	r0, .L68+4
 4664 0274 4FF0FF32 		mov	r2, #-1
 4665 0278 FFF7FEFF 		bl	chMBFetch
 4666              	.LVL204:
 4667              		.loc 1 169 5 is_stmt 1 view .LVU1195
 4668 027c B0FA80F0 		clz	r0, r0
 4669              	.LVL205:
 4670              		.loc 1 169 5 is_stmt 0 view .LVU1196
 4671 0280 2749     		ldr	r1, .L68+32
 4672 0282 4009     		lsrs	r0, r0, #5
 4673 0284 FFF7FEFF 		bl	_test_assert
 4674              	.LVL206:
 4675 0288 0028     		cmp	r0, #0
 4676 028a 7FF4D5AE 		bne	.L45
 4677              		.loc 1 169 57 is_stmt 1 view .LVU1197
 4678              		.loc 1 174 3 view .LVU1198
 4679 028e 0823     		movs	r3, #8
 4680 0290 3B60     		str	r3, [r7]
 4681              		.loc 1 176 5 view .LVU1199
 4682              	.LBB2333:
 4683              	.LBI2333:
 4684              		.loc 6 491 20 view .LVU1200
 4685              	.LBE2333:
 4686              	.LBE2441:
 4687              	.LBE2506:
 4688              		.loc 6 493 3 view .LVU1201
 4689              	.LBB2507:
 4690              	.LBB2442:
 4691              	.LBB2341:
 4692              	.LBB2334:
 4693              	.LBI2334:
 4694              		.loc 2 374 20 view .LVU1202
 4695              	.LBE2334:
 4696              	.LBE2341:
ARM GAS  /tmp/ccCget5K.s 			page 84


 4697              	.LBE2442:
 4698              	.LBE2507:
 4699              		.loc 2 376 3 view .LVU1203
 4700              	.LBB2508:
 4701              	.LBB2443:
 4702              	.LBB2342:
 4703              	.LBB2339:
 4704              	.LBB2335:
 4705              	.LBI2335:
 4706              		.loc 3 594 20 view .LVU1204
 4707              	.LBE2335:
 4708              	.LBE2339:
 4709              	.LBE2342:
 4710              	.LBE2443:
 4711              	.LBE2508:
 4712              		.loc 3 602 3 view .LVU1205
 4713              	.LVL207:
 4714              	.LBB2509:
 4715              	.LBB2444:
 4716              	.LBB2343:
 4717              	.LBB2340:
 4718              	.LBB2338:
 4719              	.LBB2336:
 4720              	.LBI2336:
 4721              		.loc 4 262 57 view .LVU1206
 4722              	.LBB2337:
 4723              		.loc 4 264 3 view .LVU1207
 4724 0292 2026     		movs	r6, #32
 4725              		.syntax unified
 4726              	@ 264 "../../../os/common/ext/CMSIS/include/cmsis_gcc.h" 1
 4727 0294 86F31188 		MSR basepri, r6
 4728              	@ 0 "" 2
 4729              	.LVL208:
 4730              		.loc 4 264 3 is_stmt 0 view .LVU1208
 4731              		.thumb
 4732              		.syntax unified
 4733              	.LBE2337:
 4734              	.LBE2336:
 4735              	.LBE2338:
 4736              	.LBE2340:
 4737              	.LBE2343:
 4738              	.LBE2444:
 4739              	.LBE2509:
 4740              		.loc 2 377 34 is_stmt 1 view .LVU1209
 4741              		.loc 2 378 20 view .LVU1210
 4742              	.LBB2510:
 4743              	.LBB2445:
 4744              		.loc 1 176 5 view .LVU1211
 4745              	.LBB2344:
 4746              	.LBI2344:
 4747              		.loc 5 168 21 view .LVU1212
 4748              	.LBB2345:
 4749              		.loc 5 170 21 view .LVU1213
 4750              		.loc 5 172 3 view .LVU1214
 4751              	.LBB2346:
 4752              	.LBI2346:
 4753              		.loc 5 136 21 view .LVU1215
ARM GAS  /tmp/ccCget5K.s 			page 85


 4754              	.LBB2347:
 4755              		.loc 5 140 3 view .LVU1216
 4756              		.loc 5 140 3 is_stmt 0 view .LVU1217
 4757              	.LBE2347:
 4758              	.LBE2346:
 4759              	.LBB2349:
 4760              	.LBI2349:
 4761              		.loc 5 153 21 is_stmt 1 view .LVU1218
 4762              	.LBB2350:
 4763              		.loc 5 155 21 view .LVU1219
 4764              		.loc 5 157 3 view .LVU1220
 4765              		.loc 5 157 3 is_stmt 0 view .LVU1221
 4766              	.LBE2350:
 4767              	.LBE2349:
 4768              	.LBB2351:
 4769              	.LBB2348:
 4770              		.loc 5 140 27 view .LVU1222
 4771 0298 D4E90023 		ldrd	r2, r3, [r4]
 4772 029c 9A1A     		subs	r2, r3, r2
 4773              	.LBE2348:
 4774              	.LBE2351:
 4775              		.loc 5 172 28 view .LVU1223
 4776 029e 2369     		ldr	r3, [r4, #16]
 4777              	.LBE2345:
 4778              	.LBE2344:
 4779              		.loc 1 176 5 view .LVU1224
 4780 02a0 1A49     		ldr	r1, .L68+12
 4781              	.LBB2353:
 4782              	.LBB2352:
 4783              		.loc 5 172 28 view .LVU1225
 4784 02a2 C3EBA203 		rsb	r3, r3, r2, asr #2
 4785              	.LBE2352:
 4786              	.LBE2353:
 4787              		.loc 1 176 5 view .LVU1226
 4788 02a6 1F1F     		subs	r7, r3, #4
 4789 02a8 7842     		rsbs	r0, r7, #0
 4790 02aa 7841     		adcs	r0, r0, r7
 4791 02ac FFF7FEFF 		bl	_test_assert
 4792              	.LVL209:
 4793 02b0 0028     		cmp	r0, #0
 4794 02b2 7FF4F0AE 		bne	.L67
 4795              		.loc 1 176 5 is_stmt 1 view .LVU1227
 4796              	.LBB2354:
 4797              	.LBI2354:
 4798              		.loc 6 502 20 view .LVU1228
 4799              	.LBE2354:
 4800              	.LBE2445:
 4801              	.LBE2510:
 4802              		.loc 6 504 3 view .LVU1229
 4803              	.LBB2511:
 4804              	.LBB2446:
 4805              	.LBB2363:
 4806              	.LBB2355:
 4807              	.LBI2355:
 4808              		.loc 2 386 20 view .LVU1230
 4809              	.LBB2356:
 4810              		.loc 2 388 22 view .LVU1231
ARM GAS  /tmp/ccCget5K.s 			page 86


 4811              		.loc 2 389 33 view .LVU1232
 4812              		.loc 2 395 3 view .LVU1233
 4813              		.loc 2 395 3 view .LVU1234
 4814              		.loc 2 395 3 view .LVU1235
 4815              		.loc 2 399 3 view .LVU1236
 4816              	.LBB2357:
 4817              	.LBI2357:
 4818              		.loc 3 618 20 view .LVU1237
 4819              	.LBE2357:
 4820              	.LBE2356:
 4821              	.LBE2355:
 4822              	.LBE2363:
 4823              	.LBE2446:
 4824              	.LBE2511:
 4825              		.loc 3 621 3 view .LVU1238
 4826              	.LVL210:
 4827              	.LBB2512:
 4828              	.LBB2447:
 4829              	.LBB2364:
 4830              	.LBB2362:
 4831              	.LBB2361:
 4832              	.LBB2360:
 4833              	.LBB2358:
 4834              	.LBI2358:
 4835              		.loc 4 262 57 view .LVU1239
 4836              	.LBB2359:
 4837              		.loc 4 264 3 view .LVU1240
 4838              		.syntax unified
 4839              	@ 264 "../../../os/common/ext/CMSIS/include/cmsis_gcc.h" 1
 4840 02b6 85F31188 		MSR basepri, r5
 4841              	@ 0 "" 2
 4842              	.LVL211:
 4843              		.loc 4 264 3 is_stmt 0 view .LVU1241
 4844              		.thumb
 4845              		.syntax unified
 4846              	.LBE2359:
 4847              	.LBE2358:
 4848              	.LBE2360:
 4849              	.LBE2361:
 4850              	.LBE2362:
 4851              	.LBE2364:
 4852              		.loc 1 176 70 is_stmt 1 view .LVU1242
 4853              		.loc 1 177 5 view .LVU1243
 4854              	.LBB2365:
 4855              	.LBI2365:
 4856              		.loc 6 491 20 view .LVU1244
 4857              	.LBE2365:
 4858              	.LBE2447:
 4859              	.LBE2512:
 4860              		.loc 6 493 3 view .LVU1245
 4861              	.LBB2513:
 4862              	.LBB2448:
 4863              	.LBB2373:
 4864              	.LBB2366:
 4865              	.LBI2366:
 4866              		.loc 2 374 20 view .LVU1246
 4867              	.LBE2366:
ARM GAS  /tmp/ccCget5K.s 			page 87


 4868              	.LBE2373:
 4869              	.LBE2448:
 4870              	.LBE2513:
 4871              		.loc 2 376 3 view .LVU1247
 4872              	.LBB2514:
 4873              	.LBB2449:
 4874              	.LBB2374:
 4875              	.LBB2371:
 4876              	.LBB2367:
 4877              	.LBI2367:
 4878              		.loc 3 594 20 view .LVU1248
 4879              	.LBE2367:
 4880              	.LBE2371:
 4881              	.LBE2374:
 4882              	.LBE2449:
 4883              	.LBE2514:
 4884              		.loc 3 602 3 view .LVU1249
 4885              	.LBB2515:
 4886              	.LBB2450:
 4887              	.LBB2375:
 4888              	.LBB2372:
 4889              	.LBB2370:
 4890              	.LBB2368:
 4891              	.LBI2368:
 4892              		.loc 4 262 57 view .LVU1250
 4893              	.LBB2369:
 4894              		.loc 4 264 3 view .LVU1251
 4895              		.syntax unified
 4896              	@ 264 "../../../os/common/ext/CMSIS/include/cmsis_gcc.h" 1
 4897 02ba 86F31188 		MSR basepri, r6
 4898              	@ 0 "" 2
 4899              	.LVL212:
 4900              		.loc 4 264 3 is_stmt 0 view .LVU1252
 4901              		.thumb
 4902              		.syntax unified
 4903              	.LBE2369:
 4904              	.LBE2368:
 4905              	.LBE2370:
 4906              	.LBE2372:
 4907              	.LBE2375:
 4908              	.LBE2450:
 4909              	.LBE2515:
 4910              		.loc 2 377 34 is_stmt 1 view .LVU1253
 4911              		.loc 2 378 20 view .LVU1254
 4912              	.LBB2516:
 4913              	.LBB2451:
 4914              		.loc 1 177 5 view .LVU1255
 4915              	.LBB2376:
 4916              	.LBI2376:
 4917              		.loc 5 153 21 view .LVU1256
 4918              	.LBB2377:
 4919              		.loc 5 155 21 view .LVU1257
 4920              		.loc 5 157 3 view .LVU1258
 4921              		.loc 5 157 3 is_stmt 0 view .LVU1259
 4922              	.LBE2377:
 4923              	.LBE2376:
 4924              		.loc 1 177 5 view .LVU1260
ARM GAS  /tmp/ccCget5K.s 			page 88


 4925 02be 2069     		ldr	r0, [r4, #16]
 4926 02c0 1349     		ldr	r1, .L68+16
 4927 02c2 B0FA80F0 		clz	r0, r0
 4928 02c6 4009     		lsrs	r0, r0, #5
 4929 02c8 FFF7FEFF 		bl	_test_assert
 4930              	.LVL213:
 4931 02cc 0028     		cmp	r0, #0
 4932 02ce 7FF4E2AE 		bne	.L67
 4933              		.loc 1 177 5 is_stmt 1 view .LVU1261
 4934              	.LBB2378:
 4935              	.LBI2378:
 4936              		.loc 6 502 20 view .LVU1262
 4937              	.LBE2378:
 4938              	.LBE2451:
 4939              	.LBE2516:
 4940              		.loc 6 504 3 view .LVU1263
 4941              	.LBB2517:
 4942              	.LBB2452:
 4943              	.LBB2387:
 4944              	.LBB2379:
 4945              	.LBI2379:
 4946              		.loc 2 386 20 view .LVU1264
 4947              	.LBB2380:
 4948              		.loc 2 388 22 view .LVU1265
 4949              		.loc 2 389 33 view .LVU1266
 4950              		.loc 2 395 3 view .LVU1267
 4951              		.loc 2 395 3 view .LVU1268
 4952              		.loc 2 395 3 view .LVU1269
 4953              		.loc 2 399 3 view .LVU1270
 4954              	.LBB2381:
 4955              	.LBI2381:
 4956              		.loc 3 618 20 view .LVU1271
 4957              	.LBE2381:
 4958              	.LBE2380:
 4959              	.LBE2379:
 4960              	.LBE2387:
 4961              	.LBE2452:
 4962              	.LBE2517:
 4963              		.loc 3 621 3 view .LVU1272
 4964              	.LVL214:
 4965              	.LBB2518:
 4966              	.LBB2453:
 4967              	.LBB2388:
 4968              	.LBB2386:
 4969              	.LBB2385:
 4970              	.LBB2384:
 4971              	.LBB2382:
 4972              	.LBI2382:
 4973              		.loc 4 262 57 view .LVU1273
 4974              	.LBB2383:
 4975              		.loc 4 264 3 view .LVU1274
 4976              		.syntax unified
 4977              	@ 264 "../../../os/common/ext/CMSIS/include/cmsis_gcc.h" 1
 4978 02d2 85F31188 		MSR basepri, r5
 4979              	@ 0 "" 2
 4980              	.LVL215:
 4981              		.loc 4 264 3 is_stmt 0 view .LVU1275
ARM GAS  /tmp/ccCget5K.s 			page 89


 4982              		.thumb
 4983              		.syntax unified
 4984              	.LBE2383:
 4985              	.LBE2382:
 4986              	.LBE2384:
 4987              	.LBE2385:
 4988              	.LBE2386:
 4989              	.LBE2388:
 4990              		.loc 1 177 65 is_stmt 1 view .LVU1276
 4991              		.loc 1 178 5 view .LVU1277
 4992 02d6 2068     		ldr	r0, [r4]
 4993 02d8 A368     		ldr	r3, [r4, #8]
 4994 02da 0E49     		ldr	r1, .L68+20
 4995 02dc C21A     		subs	r2, r0, r3
 4996 02de 5042     		rsbs	r0, r2, #0
 4997 02e0 5041     		adcs	r0, r0, r2
 4998 02e2 FFF7FEFF 		bl	_test_assert
 4999              	.LVL216:
 5000 02e6 0028     		cmp	r0, #0
 5001 02e8 7FF4A6AE 		bne	.L45
 5002              		.loc 1 178 78 view .LVU1278
 5003              		.loc 1 179 5 view .LVU1279
 5004 02ec 2068     		ldr	r0, [r4]
 5005 02ee E368     		ldr	r3, [r4, #12]
 5006 02f0 0949     		ldr	r1, .L68+24
 5007 02f2 C31A     		subs	r3, r0, r3
 5008 02f4 5842     		rsbs	r0, r3, #0
 5009 02f6 5841     		adcs	r0, r0, r3
 5010 02f8 FFF7FEFF 		bl	_test_assert
 5011              	.LVL217:
 5012              		.loc 1 179 5 view .LVU1280
 5013              		.loc 1 179 5 is_stmt 0 view .LVU1281
 5014 02fc 9CE6     		b	.L45
 5015              	.L69:
 5016 02fe 00BF     		.align	2
 5017              	.L68:
 5018 0300 00000000 		.word	test_step
 5019 0304 00000000 		.word	.LANCHOR0
 5020 0308 00000000 		.word	.LC1
 5021 030c 0C000000 		.word	.LC2
 5022 0310 18000000 		.word	.LC3
 5023 0314 24000000 		.word	.LC4
 5024 0318 48000000 		.word	.LC5
 5025 031c 00000000 		.word	.LC11
 5026 0320 00000000 		.word	.LC0
 5027 0324 6C000000 		.word	.LC6
 5028 0328 78000000 		.word	.LC7
 5029 032c 84000000 		.word	.LC8
 5030 0330 9C000000 		.word	.LC9
 5031 0334 B0000000 		.word	.LC10
 5032              	.LBE2453:
 5033              	.LBE2518:
 5034              		.cfi_endproc
 5035              	.LFE279:
 5036              		.size	test_008_001_execute, .-test_008_001_execute
 5037              		.section	.text.test_008_003_teardown,"ax",%progbits
 5038              		.align	1
ARM GAS  /tmp/ccCget5K.s 			page 90


 5039              		.p2align 4,,15
 5040              		.syntax unified
 5041              		.thumb
 5042              		.thumb_func
 5043              		.fpu softvfp
 5044              		.type	test_008_003_teardown, %function
 5045              	test_008_003_teardown:
 5046              	.LFB295:
 5047              		.cfi_startproc
 5048              		@ args = 0, pretend = 0, frame = 0
 5049              		@ frame_needed = 0, uses_anonymous_args = 0
 5050              		@ link register save eliminated.
 5051 0000 0148     		ldr	r0, .L71
 5052 0002 FFF7FEBF 		b	chMBReset
 5053              	.L72:
 5054 0006 00BF     		.align	2
 5055              	.L71:
 5056 0008 00000000 		.word	.LANCHOR0
 5057              		.cfi_endproc
 5058              	.LFE295:
 5059              		.size	test_008_003_teardown, .-test_008_003_teardown
 5060              		.section	.text.test_008_002_teardown,"ax",%progbits
 5061              		.align	1
 5062              		.p2align 4,,15
 5063              		.syntax unified
 5064              		.thumb
 5065              		.thumb_func
 5066              		.fpu softvfp
 5067              		.type	test_008_002_teardown, %function
 5068              	test_008_002_teardown:
 5069              	.LFB293:
 5070              		.cfi_startproc
 5071              		@ args = 0, pretend = 0, frame = 0
 5072              		@ frame_needed = 0, uses_anonymous_args = 0
 5073              		@ link register save eliminated.
 5074 0000 0148     		ldr	r0, .L74
 5075 0002 FFF7FEBF 		b	chMBReset
 5076              	.L75:
 5077 0006 00BF     		.align	2
 5078              	.L74:
 5079 0008 00000000 		.word	.LANCHOR0
 5080              		.cfi_endproc
 5081              	.LFE293:
 5082              		.size	test_008_002_teardown, .-test_008_002_teardown
 5083              		.section	.text.test_008_002_setup,"ax",%progbits
 5084              		.align	1
 5085              		.p2align 4,,15
 5086              		.syntax unified
 5087              		.thumb
 5088              		.thumb_func
 5089              		.fpu softvfp
 5090              		.type	test_008_002_setup, %function
 5091              	test_008_002_setup:
 5092              	.LFB289:
 5093              		.cfi_startproc
 5094              		@ args = 0, pretend = 0, frame = 0
 5095              		@ frame_needed = 0, uses_anonymous_args = 0
ARM GAS  /tmp/ccCget5K.s 			page 91


 5096              		@ link register save eliminated.
 5097 0000 0249     		ldr	r1, .L77
 5098 0002 0348     		ldr	r0, .L77+4
 5099 0004 0422     		movs	r2, #4
 5100 0006 FFF7FEBF 		b	chMBObjectInit
 5101              	.L78:
 5102 000a 00BF     		.align	2
 5103              	.L77:
 5104 000c 00000000 		.word	.LANCHOR1
 5105 0010 00000000 		.word	.LANCHOR0
 5106              		.cfi_endproc
 5107              	.LFE289:
 5108              		.size	test_008_002_setup, .-test_008_002_setup
 5109              		.section	.text.test_008_003_setup,"ax",%progbits
 5110              		.align	1
 5111              		.p2align 4,,15
 5112              		.syntax unified
 5113              		.thumb
 5114              		.thumb_func
 5115              		.fpu softvfp
 5116              		.type	test_008_003_setup, %function
 5117              	test_008_003_setup:
 5118              	.LFB291:
 5119              		.cfi_startproc
 5120              		@ args = 0, pretend = 0, frame = 0
 5121              		@ frame_needed = 0, uses_anonymous_args = 0
 5122              		@ link register save eliminated.
 5123 0000 0249     		ldr	r1, .L80
 5124 0002 0348     		ldr	r0, .L80+4
 5125 0004 0422     		movs	r2, #4
 5126 0006 FFF7FEBF 		b	chMBObjectInit
 5127              	.L81:
 5128 000a 00BF     		.align	2
 5129              	.L80:
 5130 000c 00000000 		.word	.LANCHOR1
 5131 0010 00000000 		.word	.LANCHOR0
 5132              		.cfi_endproc
 5133              	.LFE291:
 5134              		.size	test_008_003_setup, .-test_008_003_setup
 5135              		.global	test_sequence_008
 5136              		.section	.rodata.str1.4,"aMS",%progbits,1
 5137              		.align	2
 5138              	.LC12:
 5139 0000 4D61696C 		.ascii	"Mailbox timeouts\000"
 5139      626F7820 
 5139      74696D65 
 5139      6F757473 
 5139      00
 5140 0011 000000   		.align	2
 5141              	.LC13:
 5142 0014 4D61696C 		.ascii	"Mailbox I-Class API, non-blocking tests\000"
 5142      626F7820 
 5142      492D436C 
 5142      61737320 
 5142      4150492C 
 5143              		.align	2
 5144              	.LC14:
ARM GAS  /tmp/ccCget5K.s 			page 92


 5145 003c 4D61696C 		.ascii	"Mailbox normal API, non-blocking tests\000"
 5145      626F7820 
 5145      6E6F726D 
 5145      616C2041 
 5145      50492C20 
 5146              		.section	.bss.mb_buffer,"aw",%nobits
 5147              		.align	2
 5148              		.set	.LANCHOR1,. + 0
 5149              		.type	mb_buffer, %object
 5150              		.size	mb_buffer, 16
 5151              	mb_buffer:
 5152 0000 00000000 		.space	16
 5152      00000000 
 5152      00000000 
 5152      00000000 
 5153              		.section	.data.mb1,"aw"
 5154              		.align	2
 5155              		.set	.LANCHOR0,. + 0
 5156              		.type	mb1, %object
 5157              		.size	mb1, 40
 5158              	mb1:
 5159 0000 00000000 		.word	mb_buffer
 5160 0004 10000000 		.word	mb_buffer+16
 5161 0008 00000000 		.word	mb_buffer
 5162 000c 00000000 		.word	mb_buffer
 5163 0010 00000000 		.word	0
 5164 0014 00       		.byte	0
 5165 0015 000000   		.space	3
 5166 0018 18000000 		.word	mb1+24
 5167 001c 18000000 		.word	mb1+24
 5168 0020 20000000 		.word	mb1+32
 5169 0024 20000000 		.word	mb1+32
 5170              		.section	.rodata.test_008_001,"a"
 5171              		.align	2
 5172              		.type	test_008_001, %object
 5173              		.size	test_008_001, 16
 5174              	test_008_001:
 5175 0000 3C000000 		.word	.LC14
 5176 0004 00000000 		.word	test_008_001_setup
 5177 0008 00000000 		.word	test_008_001_teardown
 5178 000c 00000000 		.word	test_008_001_execute
 5179              		.section	.rodata.test_008_002,"a"
 5180              		.align	2
 5181              		.type	test_008_002, %object
 5182              		.size	test_008_002, 16
 5183              	test_008_002:
 5184 0000 14000000 		.word	.LC13
 5185 0004 00000000 		.word	test_008_002_setup
 5186 0008 00000000 		.word	test_008_002_teardown
 5187 000c 00000000 		.word	test_008_002_execute
 5188              		.section	.rodata.test_008_003,"a"
 5189              		.align	2
 5190              		.type	test_008_003, %object
 5191              		.size	test_008_003, 16
 5192              	test_008_003:
 5193 0000 00000000 		.word	.LC12
 5194 0004 00000000 		.word	test_008_003_setup
ARM GAS  /tmp/ccCget5K.s 			page 93


 5195 0008 00000000 		.word	test_008_003_teardown
 5196 000c 00000000 		.word	test_008_003_execute
 5197              		.section	.rodata.test_sequence_008,"a"
 5198              		.align	2
 5199              		.type	test_sequence_008, %object
 5200              		.size	test_sequence_008, 16
 5201              	test_sequence_008:
 5202 0000 00000000 		.word	test_008_001
 5203 0004 00000000 		.word	test_008_002
 5204 0008 00000000 		.word	test_008_003
 5205 000c 00000000 		.word	0
 5206              		.text
 5207              	.Letext0:
 5208              		.file 7 "/usr/lib/gcc/arm-none-eabi/10.3.1/include/stddef.h"
 5209              		.file 8 "/usr/lib/gcc/arm-none-eabi/10.3.1/include/stdint.h"
 5210              		.file 9 "../../../os/common/ports/ARMCMx/compilers/GCC/chtypes.h"
 5211              		.file 10 "../../../os/rt/include/chsystypes.h"
 5212              		.file 11 "../../../os/rt/include/chschd.h"
 5213              		.file 12 "../../../os/common/ports/ARMCMx/chcore.h"
 5214              		.file 13 "../../../os/rt/include/chsem.h"
 5215              		.file 14 "../../../os/rt/include/chmtx.h"
 5216              		.file 15 "../../../test/lib/ch_test.h"
 5217              		.file 16 "../../../test/rt/source/test/test_sequence_008.h"
 5218              		.section	.debug_info,"",%progbits
 5219              	.Ldebug_info0:
 5220 0000 FA2C0000 		.4byte	0x2cfa
 5221 0004 0400     		.2byte	0x4
 5222 0006 00000000 		.4byte	.Ldebug_abbrev0
 5223 000a 04       		.byte	0x4
 5224 000b 01       		.uleb128 0x1
 5225 000c 6A020000 		.4byte	.LASF114
 5226 0010 0C       		.byte	0xc
 5227 0011 59050000 		.4byte	.LASF115
 5228 0015 41040000 		.4byte	.LASF116
 5229 0019 F00E0000 		.4byte	.Ldebug_ranges0+0xef0
 5230 001d 00000000 		.4byte	0
 5231 0021 00000000 		.4byte	.Ldebug_line0
 5232 0025 02       		.uleb128 0x2
 5233 0026 04       		.byte	0x4
 5234 0027 05       		.byte	0x5
 5235 0028 696E7400 		.ascii	"int\000"
 5236 002c 03       		.uleb128 0x3
 5237 002d 00000000 		.4byte	.LASF5
 5238 0031 07       		.byte	0x7
 5239 0032 D1       		.byte	0xd1
 5240 0033 17       		.byte	0x17
 5241 0034 38000000 		.4byte	0x38
 5242 0038 04       		.uleb128 0x4
 5243 0039 04       		.byte	0x4
 5244 003a 07       		.byte	0x7
 5245 003b 82010000 		.4byte	.LASF0
 5246 003f 04       		.uleb128 0x4
 5247 0040 08       		.byte	0x8
 5248 0041 05       		.byte	0x5
 5249 0042 99000000 		.4byte	.LASF1
 5250 0046 04       		.uleb128 0x4
 5251 0047 08       		.byte	0x8
ARM GAS  /tmp/ccCget5K.s 			page 94


 5252 0048 04       		.byte	0x4
 5253 0049 1F010000 		.4byte	.LASF2
 5254 004d 04       		.uleb128 0x4
 5255 004e 01       		.byte	0x1
 5256 004f 06       		.byte	0x6
 5257 0050 A7000000 		.4byte	.LASF3
 5258 0054 04       		.uleb128 0x4
 5259 0055 02       		.byte	0x2
 5260 0056 05       		.byte	0x5
 5261 0057 E6030000 		.4byte	.LASF4
 5262 005b 03       		.uleb128 0x3
 5263 005c A9030000 		.4byte	.LASF6
 5264 0060 08       		.byte	0x8
 5265 0061 28       		.byte	0x28
 5266 0062 18       		.byte	0x18
 5267 0063 67000000 		.4byte	0x67
 5268 0067 04       		.uleb128 0x4
 5269 0068 04       		.byte	0x4
 5270 0069 05       		.byte	0x5
 5271 006a E8000000 		.4byte	.LASF7
 5272 006e 03       		.uleb128 0x3
 5273 006f A3050000 		.4byte	.LASF8
 5274 0073 08       		.byte	0x8
 5275 0074 2E       		.byte	0x2e
 5276 0075 18       		.byte	0x18
 5277 0076 7A000000 		.4byte	0x7a
 5278 007a 04       		.uleb128 0x4
 5279 007b 01       		.byte	0x1
 5280 007c 08       		.byte	0x8
 5281 007d B1030000 		.4byte	.LASF9
 5282 0081 04       		.uleb128 0x4
 5283 0082 02       		.byte	0x2
 5284 0083 07       		.byte	0x7
 5285 0084 38050000 		.4byte	.LASF10
 5286 0088 03       		.uleb128 0x3
 5287 0089 84040000 		.4byte	.LASF11
 5288 008d 08       		.byte	0x8
 5289 008e 34       		.byte	0x34
 5290 008f 19       		.byte	0x19
 5291 0090 94000000 		.4byte	0x94
 5292 0094 04       		.uleb128 0x4
 5293 0095 04       		.byte	0x4
 5294 0096 07       		.byte	0x7
 5295 0097 AA040000 		.4byte	.LASF12
 5296 009b 03       		.uleb128 0x3
 5297 009c 0E000000 		.4byte	.LASF13
 5298 00a0 08       		.byte	0x8
 5299 00a1 37       		.byte	0x37
 5300 00a2 19       		.byte	0x19
 5301 00a3 A7000000 		.4byte	0xa7
 5302 00a7 04       		.uleb128 0x4
 5303 00a8 08       		.byte	0x8
 5304 00a9 07       		.byte	0x7
 5305 00aa 46000000 		.4byte	.LASF14
 5306 00ae 03       		.uleb128 0x3
 5307 00af E9010000 		.4byte	.LASF15
 5308 00b3 09       		.byte	0x9
ARM GAS  /tmp/ccCget5K.s 			page 95


 5309 00b4 3C       		.byte	0x3c
 5310 00b5 1D       		.byte	0x1d
 5311 00b6 6E000000 		.4byte	0x6e
 5312 00ba 03       		.uleb128 0x3
 5313 00bb F1000000 		.4byte	.LASF16
 5314 00bf 09       		.byte	0x9
 5315 00c0 3D       		.byte	0x3d
 5316 00c1 1D       		.byte	0x1d
 5317 00c2 6E000000 		.4byte	0x6e
 5318 00c6 03       		.uleb128 0x3
 5319 00c7 80030000 		.4byte	.LASF17
 5320 00cb 09       		.byte	0x9
 5321 00cc 3E       		.byte	0x3e
 5322 00cd 1D       		.byte	0x1d
 5323 00ce 6E000000 		.4byte	0x6e
 5324 00d2 03       		.uleb128 0x3
 5325 00d3 95030000 		.4byte	.LASF18
 5326 00d7 09       		.byte	0x9
 5327 00d8 40       		.byte	0x40
 5328 00d9 1D       		.byte	0x1d
 5329 00da 88000000 		.4byte	0x88
 5330 00de 03       		.uleb128 0x3
 5331 00df DA010000 		.4byte	.LASF19
 5332 00e3 09       		.byte	0x9
 5333 00e4 41       		.byte	0x41
 5334 00e5 1D       		.byte	0x1d
 5335 00e6 5B000000 		.4byte	0x5b
 5336 00ea 03       		.uleb128 0x3
 5337 00eb F1010000 		.4byte	.LASF20
 5338 00ef 09       		.byte	0x9
 5339 00f0 43       		.byte	0x43
 5340 00f1 1D       		.byte	0x1d
 5341 00f2 88000000 		.4byte	0x88
 5342 00f6 03       		.uleb128 0x3
 5343 00f7 7C010000 		.4byte	.LASF21
 5344 00fb 09       		.byte	0x9
 5345 00fc 45       		.byte	0x45
 5346 00fd 1D       		.byte	0x1d
 5347 00fe 5B000000 		.4byte	0x5b
 5348 0102 03       		.uleb128 0x3
 5349 0103 FE040000 		.4byte	.LASF22
 5350 0107 0A       		.byte	0xa
 5351 0108 33       		.byte	0x33
 5352 0109 12       		.byte	0x12
 5353 010a 88000000 		.4byte	0x88
 5354 010e 03       		.uleb128 0x3
 5355 010f F5040000 		.4byte	.LASF23
 5356 0113 0A       		.byte	0xa
 5357 0114 3F       		.byte	0x3f
 5358 0115 1A       		.byte	0x1a
 5359 0116 1A010000 		.4byte	0x11a
 5360 011a 05       		.uleb128 0x5
 5361 011b C5010000 		.4byte	.LASF41
 5362 011f 44       		.byte	0x44
 5363 0120 0B       		.byte	0xb
 5364 0121 9A       		.byte	0x9a
 5365 0122 08       		.byte	0x8
ARM GAS  /tmp/ccCget5K.s 			page 96


 5366 0123 0A020000 		.4byte	0x20a
 5367 0127 06       		.uleb128 0x6
 5368 0128 FA000000 		.4byte	.LASF24
 5369 012c 0B       		.byte	0xb
 5370 012d 9B       		.byte	0x9b
 5371 012e 19       		.byte	0x19
 5372 012f 43020000 		.4byte	0x243
 5373 0133 00       		.byte	0
 5374 0134 06       		.uleb128 0x6
 5375 0135 7B030000 		.4byte	.LASF25
 5376 0139 0B       		.byte	0xb
 5377 013a 9C       		.byte	0x9c
 5378 013b 19       		.byte	0x19
 5379 013c D2000000 		.4byte	0xd2
 5380 0140 08       		.byte	0x8
 5381 0141 07       		.uleb128 0x7
 5382 0142 63747800 		.ascii	"ctx\000"
 5383 0146 0B       		.byte	0xb
 5384 0147 9D       		.byte	0x9d
 5385 0148 19       		.byte	0x19
 5386 0149 91020000 		.4byte	0x291
 5387 014d 0C       		.byte	0xc
 5388 014e 06       		.uleb128 0x6
 5389 014f 13020000 		.4byte	.LASF26
 5390 0153 0B       		.byte	0xb
 5391 0154 9F       		.byte	0x9f
 5392 0155 1A       		.byte	0x1a
 5393 0156 16020000 		.4byte	0x216
 5394 015a 10       		.byte	0x10
 5395 015b 06       		.uleb128 0x6
 5396 015c C8040000 		.4byte	.LASF27
 5397 0160 0B       		.byte	0xb
 5398 0161 A0       		.byte	0xa0
 5399 0162 1A       		.byte	0x1a
 5400 0163 16020000 		.4byte	0x216
 5401 0167 14       		.byte	0x14
 5402 0168 06       		.uleb128 0x6
 5403 0169 AF010000 		.4byte	.LASF28
 5404 016d 0B       		.byte	0xb
 5405 016e A7       		.byte	0xa7
 5406 016f 1A       		.byte	0x1a
 5407 0170 12040000 		.4byte	0x412
 5408 0174 18       		.byte	0x18
 5409 0175 06       		.uleb128 0x6
 5410 0176 BC040000 		.4byte	.LASF29
 5411 017a 0B       		.byte	0xb
 5412 017b B0       		.byte	0xb0
 5413 017c 1A       		.byte	0x1a
 5414 017d 24040000 		.4byte	0x424
 5415 0181 1C       		.byte	0x1c
 5416 0182 06       		.uleb128 0x6
 5417 0183 E2000000 		.4byte	.LASF30
 5418 0187 0B       		.byte	0xb
 5419 0188 B5       		.byte	0xb5
 5420 0189 19       		.byte	0x19
 5421 018a BA000000 		.4byte	0xba
 5422 018e 20       		.byte	0x20
ARM GAS  /tmp/ccCget5K.s 			page 97


 5423 018f 06       		.uleb128 0x6
 5424 0190 AB050000 		.4byte	.LASF31
 5425 0194 0B       		.byte	0xb
 5426 0195 B9       		.byte	0xb9
 5427 0196 19       		.byte	0x19
 5428 0197 AE000000 		.4byte	0xae
 5429 019b 21       		.byte	0x21
 5430 019c 06       		.uleb128 0x6
 5431 019d 88030000 		.4byte	.LASF32
 5432 01a1 0B       		.byte	0xb
 5433 01a2 BE       		.byte	0xbe
 5434 01a3 19       		.byte	0x19
 5435 01a4 C6000000 		.4byte	0xc6
 5436 01a8 22       		.byte	0x22
 5437 01a9 08       		.uleb128 0x8
 5438 01aa 7500     		.ascii	"u\000"
 5439 01ac 0B       		.byte	0xb
 5440 01ad 0F01     		.2byte	0x10f
 5441 01af 19       		.byte	0x19
 5442 01b0 37030000 		.4byte	0x337
 5443 01b4 24       		.byte	0x24
 5444 01b5 09       		.uleb128 0x9
 5445 01b6 4D010000 		.4byte	.LASF33
 5446 01ba 0B       		.byte	0xb
 5447 01bb 1401     		.2byte	0x114
 5448 01bd 19       		.byte	0x19
 5449 01be 1C020000 		.4byte	0x21c
 5450 01c2 28       		.byte	0x28
 5451 01c3 09       		.uleb128 0x9
 5452 01c4 D9000000 		.4byte	.LASF34
 5453 01c8 0B       		.byte	0xb
 5454 01c9 1A01     		.2byte	0x11a
 5455 01cb 19       		.byte	0x19
 5456 01cc 43020000 		.4byte	0x243
 5457 01d0 2C       		.byte	0x2c
 5458 01d1 09       		.uleb128 0x9
 5459 01d2 E0010000 		.4byte	.LASF35
 5460 01d6 0B       		.byte	0xb
 5461 01d7 2001     		.2byte	0x120
 5462 01d9 19       		.byte	0x19
 5463 01da EA000000 		.4byte	0xea
 5464 01de 34       		.byte	0x34
 5465 01df 09       		.uleb128 0x9
 5466 01e0 F7050000 		.4byte	.LASF36
 5467 01e4 0B       		.byte	0xb
 5468 01e5 2701     		.2byte	0x127
 5469 01e7 1A       		.byte	0x1a
 5470 01e8 0C040000 		.4byte	0x40c
 5471 01ec 38       		.byte	0x38
 5472 01ed 09       		.uleb128 0x9
 5473 01ee 19020000 		.4byte	.LASF37
 5474 01f2 0B       		.byte	0xb
 5475 01f3 2B01     		.2byte	0x12b
 5476 01f5 19       		.byte	0x19
 5477 01f6 D2000000 		.4byte	0xd2
 5478 01fa 3C       		.byte	0x3c
 5479 01fb 09       		.uleb128 0x9
ARM GAS  /tmp/ccCget5K.s 			page 98


 5480 01fc B4010000 		.4byte	.LASF38
 5481 0200 0B       		.byte	0xb
 5482 0201 3201     		.2byte	0x132
 5483 0203 1A       		.byte	0x1a
 5484 0204 77020000 		.4byte	0x277
 5485 0208 40       		.byte	0x40
 5486 0209 00       		.byte	0
 5487 020a 03       		.uleb128 0x3
 5488 020b 43020000 		.4byte	.LASF39
 5489 020f 0A       		.byte	0xa
 5490 0210 44       		.byte	0x44
 5491 0211 14       		.byte	0x14
 5492 0212 16020000 		.4byte	0x216
 5493 0216 0A       		.uleb128 0xa
 5494 0217 04       		.byte	0x4
 5495 0218 0E010000 		.4byte	0x10e
 5496 021c 03       		.uleb128 0x3
 5497 021d D7050000 		.4byte	.LASF40
 5498 0221 0A       		.byte	0xa
 5499 0222 49       		.byte	0x49
 5500 0223 20       		.byte	0x20
 5501 0224 28020000 		.4byte	0x228
 5502 0228 05       		.uleb128 0x5
 5503 0229 94040000 		.4byte	.LASF42
 5504 022d 04       		.byte	0x4
 5505 022e 0B       		.byte	0xb
 5506 022f 88       		.byte	0x88
 5507 0230 08       		.byte	0x8
 5508 0231 43020000 		.4byte	0x243
 5509 0235 06       		.uleb128 0x6
 5510 0236 83000000 		.4byte	.LASF43
 5511 023a 0B       		.byte	0xb
 5512 023b 89       		.byte	0x89
 5513 023c 1A       		.byte	0x1a
 5514 023d 16020000 		.4byte	0x216
 5515 0241 00       		.byte	0
 5516 0242 00       		.byte	0
 5517 0243 03       		.uleb128 0x3
 5518 0244 8A050000 		.4byte	.LASF44
 5519 0248 0A       		.byte	0xa
 5520 0249 50       		.byte	0x50
 5521 024a 21       		.byte	0x21
 5522 024b 4F020000 		.4byte	0x24f
 5523 024f 05       		.uleb128 0x5
 5524 0250 88000000 		.4byte	.LASF45
 5525 0254 08       		.byte	0x8
 5526 0255 0B       		.byte	0xb
 5527 0256 8F       		.byte	0x8f
 5528 0257 08       		.byte	0x8
 5529 0258 77020000 		.4byte	0x277
 5530 025c 06       		.uleb128 0x6
 5531 025d 83000000 		.4byte	.LASF43
 5532 0261 0B       		.byte	0xb
 5533 0262 90       		.byte	0x90
 5534 0263 1A       		.byte	0x1a
 5535 0264 16020000 		.4byte	0x216
 5536 0268 00       		.byte	0
ARM GAS  /tmp/ccCget5K.s 			page 99


 5537 0269 06       		.uleb128 0x6
 5538 026a E6050000 		.4byte	.LASF46
 5539 026e 0B       		.byte	0xb
 5540 026f 91       		.byte	0x91
 5541 0270 1A       		.byte	0x1a
 5542 0271 16020000 		.4byte	0x216
 5543 0275 04       		.byte	0x4
 5544 0276 00       		.byte	0
 5545 0277 0B       		.uleb128 0xb
 5546 0278 04       		.byte	0x4
 5547 0279 03       		.uleb128 0x3
 5548 027a 3E010000 		.4byte	.LASF47
 5549 027e 0C       		.byte	0xc
 5550 027f 65       		.byte	0x65
 5551 0280 0F       		.byte	0xf
 5552 0281 77020000 		.4byte	0x277
 5553 0285 03       		.uleb128 0x3
 5554 0286 FD010000 		.4byte	.LASF48
 5555 028a 0C       		.byte	0xc
 5556 028b 6D       		.byte	0x6d
 5557 028c 12       		.byte	0x12
 5558 028d 9B000000 		.4byte	0x9b
 5559 0291 05       		.uleb128 0x5
 5560 0292 48030000 		.4byte	.LASF49
 5561 0296 04       		.byte	0x4
 5562 0297 0C       		.byte	0xc
 5563 0298 89       		.byte	0x89
 5564 0299 08       		.byte	0x8
 5565 029a AB020000 		.4byte	0x2ab
 5566 029e 07       		.uleb128 0x7
 5567 029f 737000   		.ascii	"sp\000"
 5568 02a2 0C       		.byte	0xc
 5569 02a3 8A       		.byte	0x8a
 5570 02a4 17       		.byte	0x17
 5571 02a5 31030000 		.4byte	0x331
 5572 02a9 00       		.byte	0
 5573 02aa 00       		.byte	0
 5574 02ab 0C       		.uleb128 0xc
 5575 02ac 21000000 		.4byte	.LASF50
 5576 02b0 24       		.byte	0x24
 5577 02b1 03       		.byte	0x3
 5578 02b2 5901     		.2byte	0x159
 5579 02b4 08       		.byte	0x8
 5580 02b5 31030000 		.4byte	0x331
 5581 02b9 08       		.uleb128 0x8
 5582 02ba 723400   		.ascii	"r4\000"
 5583 02bd 03       		.byte	0x3
 5584 02be 6C01     		.2byte	0x16c
 5585 02c0 11       		.byte	0x11
 5586 02c1 79020000 		.4byte	0x279
 5587 02c5 00       		.byte	0
 5588 02c6 08       		.uleb128 0x8
 5589 02c7 723500   		.ascii	"r5\000"
 5590 02ca 03       		.byte	0x3
 5591 02cb 6D01     		.2byte	0x16d
 5592 02cd 11       		.byte	0x11
 5593 02ce 79020000 		.4byte	0x279
ARM GAS  /tmp/ccCget5K.s 			page 100


 5594 02d2 04       		.byte	0x4
 5595 02d3 08       		.uleb128 0x8
 5596 02d4 723600   		.ascii	"r6\000"
 5597 02d7 03       		.byte	0x3
 5598 02d8 6E01     		.2byte	0x16e
 5599 02da 11       		.byte	0x11
 5600 02db 79020000 		.4byte	0x279
 5601 02df 08       		.byte	0x8
 5602 02e0 08       		.uleb128 0x8
 5603 02e1 723700   		.ascii	"r7\000"
 5604 02e4 03       		.byte	0x3
 5605 02e5 6F01     		.2byte	0x16f
 5606 02e7 11       		.byte	0x11
 5607 02e8 79020000 		.4byte	0x279
 5608 02ec 0C       		.byte	0xc
 5609 02ed 08       		.uleb128 0x8
 5610 02ee 723800   		.ascii	"r8\000"
 5611 02f1 03       		.byte	0x3
 5612 02f2 7001     		.2byte	0x170
 5613 02f4 11       		.byte	0x11
 5614 02f5 79020000 		.4byte	0x279
 5615 02f9 10       		.byte	0x10
 5616 02fa 08       		.uleb128 0x8
 5617 02fb 723900   		.ascii	"r9\000"
 5618 02fe 03       		.byte	0x3
 5619 02ff 7101     		.2byte	0x171
 5620 0301 11       		.byte	0x11
 5621 0302 79020000 		.4byte	0x279
 5622 0306 14       		.byte	0x14
 5623 0307 08       		.uleb128 0x8
 5624 0308 72313000 		.ascii	"r10\000"
 5625 030c 03       		.byte	0x3
 5626 030d 7201     		.2byte	0x172
 5627 030f 11       		.byte	0x11
 5628 0310 79020000 		.4byte	0x279
 5629 0314 18       		.byte	0x18
 5630 0315 08       		.uleb128 0x8
 5631 0316 72313100 		.ascii	"r11\000"
 5632 031a 03       		.byte	0x3
 5633 031b 7301     		.2byte	0x173
 5634 031d 11       		.byte	0x11
 5635 031e 79020000 		.4byte	0x279
 5636 0322 1C       		.byte	0x1c
 5637 0323 08       		.uleb128 0x8
 5638 0324 6C7200   		.ascii	"lr\000"
 5639 0327 03       		.byte	0x3
 5640 0328 7401     		.2byte	0x174
 5641 032a 11       		.byte	0x11
 5642 032b 79020000 		.4byte	0x279
 5643 032f 20       		.byte	0x20
 5644 0330 00       		.byte	0
 5645 0331 0A       		.uleb128 0xa
 5646 0332 04       		.byte	0x4
 5647 0333 AB020000 		.4byte	0x2ab
 5648 0337 0D       		.uleb128 0xd
 5649 0338 04       		.byte	0x4
 5650 0339 0B       		.byte	0xb
ARM GAS  /tmp/ccCget5K.s 			page 101


 5651 033a D2       		.byte	0xd2
 5652 033b 03       		.byte	0x3
 5653 033c A3030000 		.4byte	0x3a3
 5654 0340 0E       		.uleb128 0xe
 5655 0341 07000000 		.4byte	.LASF51
 5656 0345 0B       		.byte	0xb
 5657 0346 D9       		.byte	0xd9
 5658 0347 19       		.byte	0x19
 5659 0348 DE000000 		.4byte	0xde
 5660 034c 0E       		.uleb128 0xe
 5661 034d 5D000000 		.4byte	.LASF52
 5662 0351 0B       		.byte	0xb
 5663 0352 E0       		.byte	0xe0
 5664 0353 19       		.byte	0x19
 5665 0354 DE000000 		.4byte	0xde
 5666 0358 0E       		.uleb128 0xe
 5667 0359 C3050000 		.4byte	.LASF53
 5668 035d 0B       		.byte	0xb
 5669 035e E7       		.byte	0xe7
 5670 035f 1A       		.byte	0x1a
 5671 0360 77020000 		.4byte	0x277
 5672 0364 0E       		.uleb128 0xe
 5673 0365 A0010000 		.4byte	.LASF54
 5674 0369 0B       		.byte	0xb
 5675 036a EE       		.byte	0xee
 5676 036b 1A       		.byte	0x1a
 5677 036c A3030000 		.4byte	0x3a3
 5678 0370 0E       		.uleb128 0xe
 5679 0371 66000000 		.4byte	.LASF55
 5680 0375 0B       		.byte	0xb
 5681 0376 F3       		.byte	0xf3
 5682 0377 19       		.byte	0x19
 5683 0378 DE000000 		.4byte	0xde
 5684 037c 0E       		.uleb128 0xe
 5685 037d 99010000 		.4byte	.LASF56
 5686 0381 0B       		.byte	0xb
 5687 0382 FC       		.byte	0xfc
 5688 0383 1A       		.byte	0x1a
 5689 0384 D1030000 		.4byte	0x3d1
 5690 0388 0F       		.uleb128 0xf
 5691 0389 8D040000 		.4byte	.LASF57
 5692 038d 0B       		.byte	0xb
 5693 038e 0501     		.2byte	0x105
 5694 0390 1A       		.byte	0x1a
 5695 0391 0C040000 		.4byte	0x40c
 5696 0395 0F       		.uleb128 0xf
 5697 0396 F0030000 		.4byte	.LASF58
 5698 039a 0B       		.byte	0xb
 5699 039b 0D01     		.2byte	0x10d
 5700 039d 19       		.byte	0x19
 5701 039e EA000000 		.4byte	0xea
 5702 03a2 00       		.byte	0
 5703 03a3 0A       		.uleb128 0xa
 5704 03a4 04       		.byte	0x4
 5705 03a5 0A020000 		.4byte	0x20a
 5706 03a9 05       		.uleb128 0x5
 5707 03aa 21040000 		.4byte	.LASF59
ARM GAS  /tmp/ccCget5K.s 			page 102


 5708 03ae 0C       		.byte	0xc
 5709 03af 0D       		.byte	0xd
 5710 03b0 34       		.byte	0x34
 5711 03b1 10       		.byte	0x10
 5712 03b2 D1030000 		.4byte	0x3d1
 5713 03b6 06       		.uleb128 0x6
 5714 03b7 FA000000 		.4byte	.LASF24
 5715 03bb 0D       		.byte	0xd
 5716 03bc 35       		.byte	0x35
 5717 03bd 19       		.byte	0x19
 5718 03be 43020000 		.4byte	0x243
 5719 03c2 00       		.byte	0
 5720 03c3 07       		.uleb128 0x7
 5721 03c4 636E7400 		.ascii	"cnt\000"
 5722 03c8 0D       		.byte	0xd
 5723 03c9 37       		.byte	0x37
 5724 03ca 19       		.byte	0x19
 5725 03cb F6000000 		.4byte	0xf6
 5726 03cf 08       		.byte	0x8
 5727 03d0 00       		.byte	0
 5728 03d1 0A       		.uleb128 0xa
 5729 03d2 04       		.byte	0x4
 5730 03d3 A9030000 		.4byte	0x3a9
 5731 03d7 05       		.uleb128 0x5
 5732 03d8 9A050000 		.4byte	.LASF60
 5733 03dc 10       		.byte	0x10
 5734 03dd 0E       		.byte	0xe
 5735 03de 39       		.byte	0x39
 5736 03df 08       		.byte	0x8
 5737 03e0 0C040000 		.4byte	0x40c
 5738 03e4 06       		.uleb128 0x6
 5739 03e5 FA000000 		.4byte	.LASF24
 5740 03e9 0E       		.byte	0xe
 5741 03ea 3A       		.byte	0x3a
 5742 03eb 19       		.byte	0x19
 5743 03ec 43020000 		.4byte	0x243
 5744 03f0 00       		.byte	0
 5745 03f1 06       		.uleb128 0x6
 5746 03f2 A4040000 		.4byte	.LASF61
 5747 03f6 0E       		.byte	0xe
 5748 03f7 3C       		.byte	0x3c
 5749 03f8 1A       		.byte	0x1a
 5750 03f9 16020000 		.4byte	0x216
 5751 03fd 08       		.byte	0x8
 5752 03fe 06       		.uleb128 0x6
 5753 03ff 83000000 		.4byte	.LASF43
 5754 0403 0E       		.byte	0xe
 5755 0404 3E       		.byte	0x3e
 5756 0405 1A       		.byte	0x1a
 5757 0406 36040000 		.4byte	0x436
 5758 040a 0C       		.byte	0xc
 5759 040b 00       		.byte	0
 5760 040c 0A       		.uleb128 0xa
 5761 040d 04       		.byte	0x4
 5762 040e D7030000 		.4byte	0x3d7
 5763 0412 0A       		.uleb128 0xa
 5764 0413 04       		.byte	0x4
ARM GAS  /tmp/ccCget5K.s 			page 103


 5765 0414 1F040000 		.4byte	0x41f
 5766 0418 04       		.uleb128 0x4
 5767 0419 01       		.byte	0x1
 5768 041a 08       		.byte	0x8
 5769 041b C3040000 		.4byte	.LASF62
 5770 041f 10       		.uleb128 0x10
 5771 0420 18040000 		.4byte	0x418
 5772 0424 0A       		.uleb128 0xa
 5773 0425 04       		.byte	0x4
 5774 0426 85020000 		.4byte	0x285
 5775 042a 03       		.uleb128 0x3
 5776 042b 61010000 		.4byte	.LASF63
 5777 042f 0E       		.byte	0xe
 5778 0430 34       		.byte	0x34
 5779 0431 19       		.byte	0x19
 5780 0432 D7030000 		.4byte	0x3d7
 5781 0436 0A       		.uleb128 0xa
 5782 0437 04       		.byte	0x4
 5783 0438 2A040000 		.4byte	0x42a
 5784 043c 11       		.uleb128 0x11
 5785 043d 28       		.byte	0x28
 5786 043e 05       		.byte	0x5
 5787 043f 34       		.byte	0x34
 5788 0440 09       		.byte	0x9
 5789 0441 AC040000 		.4byte	0x4ac
 5790 0445 06       		.uleb128 0x6
 5791 0446 06010000 		.4byte	.LASF64
 5792 044a 05       		.byte	0x5
 5793 044b 35       		.byte	0x35
 5794 044c 1A       		.byte	0x1a
 5795 044d AC040000 		.4byte	0x4ac
 5796 0451 00       		.byte	0
 5797 0452 07       		.uleb128 0x7
 5798 0453 746F7000 		.ascii	"top\000"
 5799 0457 05       		.byte	0x5
 5800 0458 37       		.byte	0x37
 5801 0459 1A       		.byte	0x1a
 5802 045a AC040000 		.4byte	0x4ac
 5803 045e 04       		.byte	0x4
 5804 045f 06       		.uleb128 0x6
 5805 0460 00010000 		.4byte	.LASF65
 5806 0464 05       		.byte	0x5
 5807 0465 39       		.byte	0x39
 5808 0466 1A       		.byte	0x1a
 5809 0467 AC040000 		.4byte	0x4ac
 5810 046b 08       		.byte	0x8
 5811 046c 06       		.uleb128 0x6
 5812 046d 9D030000 		.4byte	.LASF66
 5813 0471 05       		.byte	0x5
 5814 0472 3A       		.byte	0x3a
 5815 0473 1A       		.byte	0x1a
 5816 0474 AC040000 		.4byte	0x4ac
 5817 0478 0C       		.byte	0xc
 5818 0479 07       		.uleb128 0x7
 5819 047a 636E7400 		.ascii	"cnt\000"
 5820 047e 05       		.byte	0x5
 5821 047f 3B       		.byte	0x3b
ARM GAS  /tmp/ccCget5K.s 			page 104


 5822 0480 19       		.byte	0x19
 5823 0481 F6000000 		.4byte	0xf6
 5824 0485 10       		.byte	0x10
 5825 0486 06       		.uleb128 0x6
 5826 0487 47010000 		.4byte	.LASF67
 5827 048b 05       		.byte	0x5
 5828 048c 3C       		.byte	0x3c
 5829 048d 19       		.byte	0x19
 5830 048e B2040000 		.4byte	0x4b2
 5831 0492 14       		.byte	0x14
 5832 0493 07       		.uleb128 0x7
 5833 0494 717700   		.ascii	"qw\000"
 5834 0497 05       		.byte	0x5
 5835 0498 3D       		.byte	0x3d
 5836 0499 19       		.byte	0x19
 5837 049a 43020000 		.4byte	0x243
 5838 049e 18       		.byte	0x18
 5839 049f 07       		.uleb128 0x7
 5840 04a0 717200   		.ascii	"qr\000"
 5841 04a3 05       		.byte	0x5
 5842 04a4 3E       		.byte	0x3e
 5843 04a5 19       		.byte	0x19
 5844 04a6 43020000 		.4byte	0x243
 5845 04aa 20       		.byte	0x20
 5846 04ab 00       		.byte	0
 5847 04ac 0A       		.uleb128 0xa
 5848 04ad 04       		.byte	0x4
 5849 04ae DE000000 		.4byte	0xde
 5850 04b2 04       		.uleb128 0x4
 5851 04b3 01       		.byte	0x1
 5852 04b4 02       		.byte	0x2
 5853 04b5 A3030000 		.4byte	.LASF68
 5854 04b9 03       		.uleb128 0x3
 5855 04ba B3000000 		.4byte	.LASF69
 5856 04be 05       		.byte	0x5
 5857 04bf 3F       		.byte	0x3f
 5858 04c0 03       		.byte	0x3
 5859 04c1 3C040000 		.4byte	0x43c
 5860 04c5 10       		.uleb128 0x10
 5861 04c6 B9040000 		.4byte	0x4b9
 5862 04ca 0A       		.uleb128 0xa
 5863 04cb 04       		.byte	0x4
 5864 04cc D0040000 		.4byte	0x4d0
 5865 04d0 12       		.uleb128 0x12
 5866 04d1 11       		.uleb128 0x11
 5867 04d2 10       		.byte	0x10
 5868 04d3 0F       		.byte	0xf
 5869 04d4 3D       		.byte	0x3d
 5870 04d5 09       		.byte	0x9
 5871 04d6 0F050000 		.4byte	0x50f
 5872 04da 06       		.uleb128 0x6
 5873 04db AF010000 		.4byte	.LASF28
 5874 04df 0F       		.byte	0xf
 5875 04e0 3E       		.byte	0x3e
 5876 04e1 0F       		.byte	0xf
 5877 04e2 12040000 		.4byte	0x412
 5878 04e6 00       		.byte	0
ARM GAS  /tmp/ccCget5K.s 			page 105


 5879 04e7 06       		.uleb128 0x6
 5880 04e8 55030000 		.4byte	.LASF70
 5881 04ec 0F       		.byte	0xf
 5882 04ed 3F       		.byte	0x3f
 5883 04ee 0A       		.byte	0xa
 5884 04ef CA040000 		.4byte	0x4ca
 5885 04f3 04       		.byte	0x4
 5886 04f4 06       		.uleb128 0x6
 5887 04f5 A6010000 		.4byte	.LASF71
 5888 04f9 0F       		.byte	0xf
 5889 04fa 40       		.byte	0x40
 5890 04fb 0A       		.byte	0xa
 5891 04fc CA040000 		.4byte	0x4ca
 5892 0500 08       		.byte	0x8
 5893 0501 06       		.uleb128 0x6
 5894 0502 8D030000 		.4byte	.LASF72
 5895 0506 0F       		.byte	0xf
 5896 0507 41       		.byte	0x41
 5897 0508 0A       		.byte	0xa
 5898 0509 CA040000 		.4byte	0x4ca
 5899 050d 0C       		.byte	0xc
 5900 050e 00       		.byte	0
 5901 050f 03       		.uleb128 0x3
 5902 0510 08020000 		.4byte	.LASF73
 5903 0514 0F       		.byte	0xf
 5904 0515 42       		.byte	0x42
 5905 0516 03       		.byte	0x3
 5906 0517 D1040000 		.4byte	0x4d1
 5907 051b 10       		.uleb128 0x10
 5908 051c 0F050000 		.4byte	0x50f
 5909 0520 13       		.uleb128 0x13
 5910 0521 56020000 		.4byte	.LASF74
 5911 0525 0F       		.byte	0xf
 5912 0526 9E       		.byte	0x9e
 5913 0527 11       		.byte	0x11
 5914 0528 38000000 		.4byte	0x38
 5915 052c 14       		.uleb128 0x14
 5916 052d 42050000 		.4byte	0x542
 5917 0531 37050000 		.4byte	0x537
 5918 0535 15       		.uleb128 0x15
 5919 0536 00       		.byte	0
 5920 0537 10       		.uleb128 0x10
 5921 0538 2C050000 		.4byte	0x52c
 5922 053c 0A       		.uleb128 0xa
 5923 053d 04       		.byte	0x4
 5924 053e 1B050000 		.4byte	0x51b
 5925 0542 10       		.uleb128 0x10
 5926 0543 3C050000 		.4byte	0x53c
 5927 0547 13       		.uleb128 0x13
 5928 0548 B1050000 		.4byte	.LASF75
 5929 054c 10       		.byte	0x10
 5930 054d 19       		.byte	0x19
 5931 054e 21       		.byte	0x21
 5932 054f 37050000 		.4byte	0x537
 5933 0553 14       		.uleb128 0x14
 5934 0554 DE000000 		.4byte	0xde
 5935 0558 63050000 		.4byte	0x563
ARM GAS  /tmp/ccCget5K.s 			page 106


 5936 055c 16       		.uleb128 0x16
 5937 055d 38000000 		.4byte	0x38
 5938 0561 03       		.byte	0x3
 5939 0562 00       		.byte	0
 5940 0563 17       		.uleb128 0x17
 5941 0564 71030000 		.4byte	.LASF76
 5942 0568 01       		.byte	0x1
 5943 0569 36       		.byte	0x36
 5944 056a 0E       		.byte	0xe
 5945 056b 53050000 		.4byte	0x553
 5946 056f 05       		.uleb128 0x5
 5947 0570 03       		.byte	0x3
 5948 0571 00000000 		.4byte	mb_buffer
 5949 0575 18       		.uleb128 0x18
 5950 0576 6D623100 		.ascii	"mb1\000"
 5951 057a 01       		.byte	0x1
 5952 057b 37       		.byte	0x37
 5953 057c 08       		.byte	0x8
 5954 057d B9040000 		.4byte	0x4b9
 5955 0581 05       		.uleb128 0x5
 5956 0582 03       		.byte	0x3
 5957 0583 00000000 		.4byte	mb1
 5958 0587 17       		.uleb128 0x17
 5959 0588 CE040000 		.4byte	.LASF77
 5960 058c 01       		.byte	0x1
 5961 058d B7       		.byte	0xb7
 5962 058e 19       		.byte	0x19
 5963 058f 1B050000 		.4byte	0x51b
 5964 0593 05       		.uleb128 0x5
 5965 0594 03       		.byte	0x3
 5966 0595 00000000 		.4byte	test_008_001
 5967 0599 19       		.uleb128 0x19
 5968 059a DB040000 		.4byte	.LASF78
 5969 059e 01       		.byte	0x1
 5970 059f 3201     		.2byte	0x132
 5971 05a1 19       		.byte	0x19
 5972 05a2 1B050000 		.4byte	0x51b
 5973 05a6 05       		.uleb128 0x5
 5974 05a7 03       		.byte	0x3
 5975 05a8 00000000 		.4byte	test_008_002
 5976 05ac 19       		.uleb128 0x19
 5977 05ad E8040000 		.4byte	.LASF79
 5978 05b1 01       		.byte	0x1
 5979 05b2 8401     		.2byte	0x184
 5980 05b4 19       		.byte	0x19
 5981 05b5 1B050000 		.4byte	0x51b
 5982 05b9 05       		.uleb128 0x5
 5983 05ba 03       		.byte	0x3
 5984 05bb 00000000 		.4byte	test_008_003
 5985 05bf 14       		.uleb128 0x14
 5986 05c0 42050000 		.4byte	0x542
 5987 05c4 CF050000 		.4byte	0x5cf
 5988 05c8 16       		.uleb128 0x16
 5989 05c9 38000000 		.4byte	0x38
 5990 05cd 03       		.byte	0x3
 5991 05ce 00       		.byte	0
 5992 05cf 10       		.uleb128 0x10
ARM GAS  /tmp/ccCget5K.s 			page 107


 5993 05d0 BF050000 		.4byte	0x5bf
 5994 05d4 1A       		.uleb128 0x1a
 5995 05d5 47050000 		.4byte	0x547
 5996 05d9 01       		.byte	0x1
 5997 05da 9201     		.2byte	0x192
 5998 05dc 1A       		.byte	0x1a
 5999 05dd CF050000 		.4byte	0x5cf
 6000 05e1 05       		.uleb128 0x5
 6001 05e2 03       		.byte	0x3
 6002 05e3 00000000 		.4byte	test_sequence_008
 6003 05e7 1B       		.uleb128 0x1b
 6004 05e8 6E000000 		.4byte	.LASF117
 6005 05ec 01       		.byte	0x1
 6006 05ed 5101     		.2byte	0x151
 6007 05ef 0D       		.byte	0xd
 6008 05f0 00000000 		.4byte	.LFB285
 6009 05f4 24010000 		.4byte	.LFE285-.LFB285
 6010 05f8 01       		.uleb128 0x1
 6011 05f9 9C       		.byte	0x9c
 6012 05fa CA090000 		.4byte	0x9ca
 6013 05fe 1C       		.uleb128 0x1c
 6014 05ff 8F010000 		.4byte	.LASF80
 6015 0603 01       		.byte	0x1
 6016 0604 5201     		.2byte	0x152
 6017 0606 09       		.byte	0x9
 6018 0607 DE000000 		.4byte	0xde
 6019 060b 1A000000 		.4byte	.LLST0
 6020 060f 00000000 		.4byte	.LVUS0
 6021 0613 19       		.uleb128 0x19
 6022 0614 94010000 		.4byte	.LASF81
 6023 0618 01       		.byte	0x1
 6024 0619 5201     		.2byte	0x152
 6025 061b 0F       		.byte	0xf
 6026 061c DE000000 		.4byte	0xde
 6027 0620 02       		.uleb128 0x2
 6028 0621 91       		.byte	0x91
 6029 0622 64       		.sleb128 -28
 6030 0623 1D       		.uleb128 0x1d
 6031 0624 6900     		.ascii	"i\000"
 6032 0626 01       		.byte	0x1
 6033 0627 5301     		.2byte	0x153
 6034 0629 0C       		.byte	0xc
 6035 062a 38000000 		.4byte	0x38
 6036 062e C3000000 		.4byte	.LLST1
 6037 0632 BD000000 		.4byte	.LVUS1
 6038 0636 1E       		.uleb128 0x1e
 6039 0637 1F0B0000 		.4byte	0xb1f
 6040 063b 56000000 		.4byte	.LBI1004
 6041 063f 0200     		.2byte	.LVU37
 6042 0641 00000000 		.4byte	.Ldebug_ranges0+0
 6043 0645 01       		.byte	0x1
 6044 0646 6401     		.2byte	0x164
 6045 0648 05       		.byte	0x5
 6046 0649 87060000 		.4byte	0x687
 6047 064d 1F       		.uleb128 0x1f
 6048 064e 330B0000 		.4byte	0xb33
 6049 0652 56000000 		.4byte	.LBI1005
ARM GAS  /tmp/ccCget5K.s 			page 108


 6050 0656 0400     		.2byte	.LVU39
 6051 0658 08000000 		.4byte	.Ldebug_ranges0+0x8
 6052 065c 02       		.byte	0x2
 6053 065d 7801     		.2byte	0x178
 6054 065f 03       		.byte	0x3
 6055 0660 20       		.uleb128 0x20
 6056 0661 3D0B0000 		.4byte	0xb3d
 6057 0665 56000000 		.4byte	.LBI1006
 6058 0669 0600     		.2byte	.LVU41
 6059 066b 56000000 		.4byte	.LBB1006
 6060 066f 06000000 		.4byte	.LBE1006-.LBB1006
 6061 0673 03       		.byte	0x3
 6062 0674 5A02     		.2byte	0x25a
 6063 0676 03       		.byte	0x3
 6064 0677 21       		.uleb128 0x21
 6065 0678 4B0B0000 		.4byte	0xb4b
 6066 067c F5000000 		.4byte	.LLST2
 6067 0680 F3000000 		.4byte	.LVUS2
 6068 0684 00       		.byte	0
 6069 0685 00       		.byte	0
 6070 0686 00       		.byte	0
 6071 0687 1E       		.uleb128 0x1e
 6072 0688 F20A0000 		.4byte	0xaf2
 6073 068c 64000000 		.4byte	.LBI1011
 6074 0690 0100     		.2byte	.LVU49
 6075 0692 20000000 		.4byte	.Ldebug_ranges0+0x20
 6076 0696 01       		.byte	0x1
 6077 0697 6601     		.2byte	0x166
 6078 0699 05       		.byte	0x5
 6079 069a DE060000 		.4byte	0x6de
 6080 069e 22       		.uleb128 0x22
 6081 069f 20000000 		.4byte	.Ldebug_ranges0+0x20
 6082 06a3 1F       		.uleb128 0x1f
 6083 06a4 290B0000 		.4byte	0xb29
 6084 06a8 64000000 		.4byte	.LBI1013
 6085 06ac 0800     		.2byte	.LVU56
 6086 06ae 20000000 		.4byte	.Ldebug_ranges0+0x20
 6087 06b2 02       		.byte	0x2
 6088 06b3 8F01     		.2byte	0x18f
 6089 06b5 03       		.byte	0x3
 6090 06b6 20       		.uleb128 0x20
 6091 06b7 3D0B0000 		.4byte	0xb3d
 6092 06bb 64000000 		.4byte	.LBI1014
 6093 06bf 0A00     		.2byte	.LVU58
 6094 06c1 64000000 		.4byte	.LBB1014
 6095 06c5 04000000 		.4byte	.LBE1014-.LBB1014
 6096 06c9 03       		.byte	0x3
 6097 06ca 6D02     		.2byte	0x26d
 6098 06cc 03       		.byte	0x3
 6099 06cd 21       		.uleb128 0x21
 6100 06ce 4B0B0000 		.4byte	0xb4b
 6101 06d2 0C010000 		.4byte	.LLST3
 6102 06d6 0A010000 		.4byte	.LVUS3
 6103 06da 00       		.byte	0
 6104 06db 00       		.byte	0
 6105 06dc 00       		.byte	0
 6106 06dd 00       		.byte	0
ARM GAS  /tmp/ccCget5K.s 			page 109


 6107 06de 1E       		.uleb128 0x1e
 6108 06df 1F0B0000 		.4byte	0xb1f
 6109 06e3 9C000000 		.4byte	.LBI1019
 6110 06e7 0200     		.2byte	.LVU72
 6111 06e9 38000000 		.4byte	.Ldebug_ranges0+0x38
 6112 06ed 01       		.byte	0x1
 6113 06ee 6A01     		.2byte	0x16a
 6114 06f0 05       		.byte	0x5
 6115 06f1 2F070000 		.4byte	0x72f
 6116 06f5 1F       		.uleb128 0x1f
 6117 06f6 330B0000 		.4byte	0xb33
 6118 06fa 9C000000 		.4byte	.LBI1020
 6119 06fe 0400     		.2byte	.LVU74
 6120 0700 40000000 		.4byte	.Ldebug_ranges0+0x40
 6121 0704 02       		.byte	0x2
 6122 0705 7801     		.2byte	0x178
 6123 0707 03       		.byte	0x3
 6124 0708 20       		.uleb128 0x20
 6125 0709 3D0B0000 		.4byte	0xb3d
 6126 070d 9C000000 		.4byte	.LBI1021
 6127 0711 0600     		.2byte	.LVU76
 6128 0713 9C000000 		.4byte	.LBB1021
 6129 0717 04000000 		.4byte	.LBE1021-.LBB1021
 6130 071b 03       		.byte	0x3
 6131 071c 5A02     		.2byte	0x25a
 6132 071e 03       		.byte	0x3
 6133 071f 21       		.uleb128 0x21
 6134 0720 4B0B0000 		.4byte	0xb4b
 6135 0724 22010000 		.4byte	.LLST4
 6136 0728 20010000 		.4byte	.LVUS4
 6137 072c 00       		.byte	0
 6138 072d 00       		.byte	0
 6139 072e 00       		.byte	0
 6140 072f 1E       		.uleb128 0x1e
 6141 0730 F20A0000 		.4byte	0xaf2
 6142 0734 A8000000 		.4byte	.LBI1026
 6143 0738 0100     		.2byte	.LVU84
 6144 073a 58000000 		.4byte	.Ldebug_ranges0+0x58
 6145 073e 01       		.byte	0x1
 6146 073f 6C01     		.2byte	0x16c
 6147 0741 05       		.byte	0x5
 6148 0742 86070000 		.4byte	0x786
 6149 0746 22       		.uleb128 0x22
 6150 0747 58000000 		.4byte	.Ldebug_ranges0+0x58
 6151 074b 1F       		.uleb128 0x1f
 6152 074c 290B0000 		.4byte	0xb29
 6153 0750 A8000000 		.4byte	.LBI1028
 6154 0754 0800     		.2byte	.LVU91
 6155 0756 58000000 		.4byte	.Ldebug_ranges0+0x58
 6156 075a 02       		.byte	0x2
 6157 075b 8F01     		.2byte	0x18f
 6158 075d 03       		.byte	0x3
 6159 075e 20       		.uleb128 0x20
 6160 075f 3D0B0000 		.4byte	0xb3d
 6161 0763 A8000000 		.4byte	.LBI1029
 6162 0767 0A00     		.2byte	.LVU93
 6163 0769 A8000000 		.4byte	.LBB1029
ARM GAS  /tmp/ccCget5K.s 			page 110


 6164 076d 04000000 		.4byte	.LBE1029-.LBB1029
 6165 0771 03       		.byte	0x3
 6166 0772 6D02     		.2byte	0x26d
 6167 0774 03       		.byte	0x3
 6168 0775 21       		.uleb128 0x21
 6169 0776 4B0B0000 		.4byte	0xb4b
 6170 077a 39010000 		.4byte	.LLST5
 6171 077e 37010000 		.4byte	.LVUS5
 6172 0782 00       		.byte	0
 6173 0783 00       		.byte	0
 6174 0784 00       		.byte	0
 6175 0785 00       		.byte	0
 6176 0786 1E       		.uleb128 0x1e
 6177 0787 720A0000 		.4byte	0xa72
 6178 078b CC000000 		.4byte	.LBI1034
 6179 078f 0100     		.2byte	.LVU105
 6180 0791 70000000 		.4byte	.Ldebug_ranges0+0x70
 6181 0795 01       		.byte	0x1
 6182 0796 7501     		.2byte	0x175
 6183 0798 05       		.byte	0x5
 6184 0799 AB070000 		.4byte	0x7ab
 6185 079d 21       		.uleb128 0x21
 6186 079e 7F0A0000 		.4byte	0xa7f
 6187 07a2 4F010000 		.4byte	.LLST6
 6188 07a6 4D010000 		.4byte	.LVUS6
 6189 07aa 00       		.byte	0
 6190 07ab 1E       		.uleb128 0x1e
 6191 07ac 1F0B0000 		.4byte	0xb1f
 6192 07b0 F4000000 		.4byte	.LBI1038
 6193 07b4 0200     		.2byte	.LVU120
 6194 07b6 88000000 		.4byte	.Ldebug_ranges0+0x88
 6195 07ba 01       		.byte	0x1
 6196 07bb 7D01     		.2byte	0x17d
 6197 07bd 05       		.byte	0x5
 6198 07be FC070000 		.4byte	0x7fc
 6199 07c2 1F       		.uleb128 0x1f
 6200 07c3 330B0000 		.4byte	0xb33
 6201 07c7 F4000000 		.4byte	.LBI1039
 6202 07cb 0400     		.2byte	.LVU122
 6203 07cd 90000000 		.4byte	.Ldebug_ranges0+0x90
 6204 07d1 02       		.byte	0x2
 6205 07d2 7801     		.2byte	0x178
 6206 07d4 03       		.byte	0x3
 6207 07d5 20       		.uleb128 0x20
 6208 07d6 3D0B0000 		.4byte	0xb3d
 6209 07da F4000000 		.4byte	.LBI1040
 6210 07de 0600     		.2byte	.LVU124
 6211 07e0 F4000000 		.4byte	.LBB1040
 6212 07e4 04000000 		.4byte	.LBE1040-.LBB1040
 6213 07e8 03       		.byte	0x3
 6214 07e9 5A02     		.2byte	0x25a
 6215 07eb 03       		.byte	0x3
 6216 07ec 21       		.uleb128 0x21
 6217 07ed 4B0B0000 		.4byte	0xb4b
 6218 07f1 69010000 		.4byte	.LLST7
 6219 07f5 67010000 		.4byte	.LVUS7
 6220 07f9 00       		.byte	0
ARM GAS  /tmp/ccCget5K.s 			page 111


 6221 07fa 00       		.byte	0
 6222 07fb 00       		.byte	0
 6223 07fc 1E       		.uleb128 0x1e
 6224 07fd F20A0000 		.4byte	0xaf2
 6225 0801 00010000 		.4byte	.LBI1045
 6226 0805 0100     		.2byte	.LVU132
 6227 0807 A8000000 		.4byte	.Ldebug_ranges0+0xa8
 6228 080b 01       		.byte	0x1
 6229 080c 7F01     		.2byte	0x17f
 6230 080e 05       		.byte	0x5
 6231 080f 53080000 		.4byte	0x853
 6232 0813 22       		.uleb128 0x22
 6233 0814 A8000000 		.4byte	.Ldebug_ranges0+0xa8
 6234 0818 1F       		.uleb128 0x1f
 6235 0819 290B0000 		.4byte	0xb29
 6236 081d 00010000 		.4byte	.LBI1047
 6237 0821 0800     		.2byte	.LVU139
 6238 0823 A8000000 		.4byte	.Ldebug_ranges0+0xa8
 6239 0827 02       		.byte	0x2
 6240 0828 8F01     		.2byte	0x18f
 6241 082a 03       		.byte	0x3
 6242 082b 20       		.uleb128 0x20
 6243 082c 3D0B0000 		.4byte	0xb3d
 6244 0830 00010000 		.4byte	.LBI1048
 6245 0834 0A00     		.2byte	.LVU141
 6246 0836 00010000 		.4byte	.LBB1048
 6247 083a 04000000 		.4byte	.LBE1048-.LBB1048
 6248 083e 03       		.byte	0x3
 6249 083f 6D02     		.2byte	0x26d
 6250 0841 03       		.byte	0x3
 6251 0842 21       		.uleb128 0x21
 6252 0843 4B0B0000 		.4byte	0xb4b
 6253 0847 80010000 		.4byte	.LLST8
 6254 084b 7E010000 		.4byte	.LVUS8
 6255 084f 00       		.byte	0
 6256 0850 00       		.byte	0
 6257 0851 00       		.byte	0
 6258 0852 00       		.byte	0
 6259 0853 23       		.uleb128 0x23
 6260 0854 1C000000 		.4byte	.LVL3
 6261 0858 6D2C0000 		.4byte	0x2c6d
 6262 085c 73080000 		.4byte	0x873
 6263 0860 24       		.uleb128 0x24
 6264 0861 01       		.uleb128 0x1
 6265 0862 50       		.byte	0x50
 6266 0863 02       		.uleb128 0x2
 6267 0864 75       		.byte	0x75
 6268 0865 00       		.sleb128 0
 6269 0866 24       		.uleb128 0x24
 6270 0867 01       		.uleb128 0x1
 6271 0868 51       		.byte	0x51
 6272 0869 02       		.uleb128 0x2
 6273 086a 74       		.byte	0x74
 6274 086b 00       		.sleb128 0
 6275 086c 24       		.uleb128 0x24
 6276 086d 01       		.uleb128 0x1
 6277 086e 52       		.byte	0x52
ARM GAS  /tmp/ccCget5K.s 			page 112


 6278 086f 02       		.uleb128 0x2
 6279 0870 09       		.byte	0x9
 6280 0871 FF       		.byte	0xff
 6281 0872 00       		.byte	0
 6282 0873 23       		.uleb128 0x23
 6283 0874 2A000000 		.4byte	.LVL6
 6284 0878 792C0000 		.4byte	0x2c79
 6285 087c 87080000 		.4byte	0x887
 6286 0880 24       		.uleb128 0x24
 6287 0881 01       		.uleb128 0x1
 6288 0882 51       		.byte	0x51
 6289 0883 02       		.uleb128 0x2
 6290 0884 76       		.byte	0x76
 6291 0885 00       		.sleb128 0
 6292 0886 00       		.byte	0
 6293 0887 23       		.uleb128 0x23
 6294 0888 3E000000 		.4byte	.LVL7
 6295 088c 6D2C0000 		.4byte	0x2c6d
 6296 0890 A6080000 		.4byte	0x8a6
 6297 0894 24       		.uleb128 0x24
 6298 0895 01       		.uleb128 0x1
 6299 0896 50       		.byte	0x50
 6300 0897 02       		.uleb128 0x2
 6301 0898 75       		.byte	0x75
 6302 0899 00       		.sleb128 0
 6303 089a 24       		.uleb128 0x24
 6304 089b 01       		.uleb128 0x1
 6305 089c 51       		.byte	0x51
 6306 089d 02       		.uleb128 0x2
 6307 089e 08       		.byte	0x8
 6308 089f 58       		.byte	0x58
 6309 08a0 24       		.uleb128 0x24
 6310 08a1 01       		.uleb128 0x1
 6311 08a2 52       		.byte	0x52
 6312 08a3 01       		.uleb128 0x1
 6313 08a4 31       		.byte	0x31
 6314 08a5 00       		.byte	0
 6315 08a6 23       		.uleb128 0x23
 6316 08a7 4E000000 		.4byte	.LVL10
 6317 08ab 792C0000 		.4byte	0x2c79
 6318 08af BA080000 		.4byte	0x8ba
 6319 08b3 24       		.uleb128 0x24
 6320 08b4 01       		.uleb128 0x1
 6321 08b5 51       		.byte	0x51
 6322 08b6 02       		.uleb128 0x2
 6323 08b7 76       		.byte	0x76
 6324 08b8 00       		.sleb128 0
 6325 08b9 00       		.byte	0
 6326 08ba 23       		.uleb128 0x23
 6327 08bb 64000000 		.4byte	.LVL13
 6328 08bf 852C0000 		.4byte	0x2c85
 6329 08c3 D4080000 		.4byte	0x8d4
 6330 08c7 24       		.uleb128 0x24
 6331 08c8 01       		.uleb128 0x1
 6332 08c9 50       		.byte	0x50
 6333 08ca 02       		.uleb128 0x2
 6334 08cb 75       		.byte	0x75
ARM GAS  /tmp/ccCget5K.s 			page 113


 6335 08cc 00       		.sleb128 0
 6336 08cd 24       		.uleb128 0x24
 6337 08ce 01       		.uleb128 0x1
 6338 08cf 51       		.byte	0x51
 6339 08d0 02       		.uleb128 0x2
 6340 08d1 08       		.byte	0x8
 6341 08d2 58       		.byte	0x58
 6342 08d3 00       		.byte	0
 6343 08d4 23       		.uleb128 0x23
 6344 08d5 78000000 		.4byte	.LVL17
 6345 08d9 792C0000 		.4byte	0x2c79
 6346 08dd EB080000 		.4byte	0x8eb
 6347 08e1 24       		.uleb128 0x24
 6348 08e2 01       		.uleb128 0x1
 6349 08e3 51       		.byte	0x51
 6350 08e4 05       		.uleb128 0x5
 6351 08e5 03       		.byte	0x3
 6352 08e6 00000000 		.4byte	.LC0
 6353 08ea 00       		.byte	0
 6354 08eb 23       		.uleb128 0x23
 6355 08ec 86000000 		.4byte	.LVL18
 6356 08f0 912C0000 		.4byte	0x2c91
 6357 08f4 0A090000 		.4byte	0x90a
 6358 08f8 24       		.uleb128 0x24
 6359 08f9 01       		.uleb128 0x1
 6360 08fa 50       		.byte	0x50
 6361 08fb 02       		.uleb128 0x2
 6362 08fc 75       		.byte	0x75
 6363 08fd 00       		.sleb128 0
 6364 08fe 24       		.uleb128 0x24
 6365 08ff 01       		.uleb128 0x1
 6366 0900 51       		.byte	0x51
 6367 0901 02       		.uleb128 0x2
 6368 0902 08       		.byte	0x8
 6369 0903 58       		.byte	0x58
 6370 0904 24       		.uleb128 0x24
 6371 0905 01       		.uleb128 0x1
 6372 0906 52       		.byte	0x52
 6373 0907 01       		.uleb128 0x1
 6374 0908 31       		.byte	0x31
 6375 0909 00       		.byte	0
 6376 090a 23       		.uleb128 0x23
 6377 090b 96000000 		.4byte	.LVL21
 6378 090f 792C0000 		.4byte	0x2c79
 6379 0913 21090000 		.4byte	0x921
 6380 0917 24       		.uleb128 0x24
 6381 0918 01       		.uleb128 0x1
 6382 0919 51       		.byte	0x51
 6383 091a 05       		.uleb128 0x5
 6384 091b 03       		.byte	0x3
 6385 091c 00000000 		.4byte	.LC0
 6386 0920 00       		.byte	0
 6387 0921 23       		.uleb128 0x23
 6388 0922 A8000000 		.4byte	.LVL24
 6389 0926 9D2C0000 		.4byte	0x2c9d
 6390 092a 3B090000 		.4byte	0x93b
 6391 092e 24       		.uleb128 0x24
ARM GAS  /tmp/ccCget5K.s 			page 114


 6392 092f 01       		.uleb128 0x1
 6393 0930 50       		.byte	0x50
 6394 0931 02       		.uleb128 0x2
 6395 0932 75       		.byte	0x75
 6396 0933 00       		.sleb128 0
 6397 0934 24       		.uleb128 0x24
 6398 0935 01       		.uleb128 0x1
 6399 0936 51       		.byte	0x51
 6400 0937 02       		.uleb128 0x2
 6401 0938 08       		.byte	0x8
 6402 0939 58       		.byte	0x58
 6403 093a 00       		.byte	0
 6404 093b 23       		.uleb128 0x23
 6405 093c BC000000 		.4byte	.LVL28
 6406 0940 792C0000 		.4byte	0x2c79
 6407 0944 52090000 		.4byte	0x952
 6408 0948 24       		.uleb128 0x24
 6409 0949 01       		.uleb128 0x1
 6410 094a 51       		.byte	0x51
 6411 094b 05       		.uleb128 0x5
 6412 094c 03       		.byte	0x3
 6413 094d 00000000 		.4byte	.LC0
 6414 0951 00       		.byte	0
 6415 0952 23       		.uleb128 0x23
 6416 0953 CC000000 		.4byte	.LVL29
 6417 0957 A92C0000 		.4byte	0x2ca9
 6418 095b 66090000 		.4byte	0x966
 6419 095f 24       		.uleb128 0x24
 6420 0960 01       		.uleb128 0x1
 6421 0961 50       		.byte	0x50
 6422 0962 02       		.uleb128 0x2
 6423 0963 75       		.byte	0x75
 6424 0964 00       		.sleb128 0
 6425 0965 00       		.byte	0
 6426 0966 23       		.uleb128 0x23
 6427 0967 DE000000 		.4byte	.LVL31
 6428 096b B52C0000 		.4byte	0x2cb5
 6429 096f 85090000 		.4byte	0x985
 6430 0973 24       		.uleb128 0x24
 6431 0974 01       		.uleb128 0x1
 6432 0975 50       		.byte	0x50
 6433 0976 02       		.uleb128 0x2
 6434 0977 75       		.byte	0x75
 6435 0978 00       		.sleb128 0
 6436 0979 24       		.uleb128 0x24
 6437 097a 01       		.uleb128 0x1
 6438 097b 51       		.byte	0x51
 6439 097c 02       		.uleb128 0x2
 6440 097d 91       		.byte	0x91
 6441 097e 64       		.sleb128 -28
 6442 097f 24       		.uleb128 0x24
 6443 0980 01       		.uleb128 0x1
 6444 0981 52       		.byte	0x52
 6445 0982 01       		.uleb128 0x1
 6446 0983 31       		.byte	0x31
 6447 0984 00       		.byte	0
 6448 0985 23       		.uleb128 0x23
ARM GAS  /tmp/ccCget5K.s 			page 115


 6449 0986 EE000000 		.4byte	.LVL34
 6450 098a 792C0000 		.4byte	0x2c79
 6451 098e 9C090000 		.4byte	0x99c
 6452 0992 24       		.uleb128 0x24
 6453 0993 01       		.uleb128 0x1
 6454 0994 51       		.byte	0x51
 6455 0995 05       		.uleb128 0x5
 6456 0996 03       		.byte	0x3
 6457 0997 00000000 		.4byte	.LC0
 6458 099b 00       		.byte	0
 6459 099c 23       		.uleb128 0x23
 6460 099d 00010000 		.4byte	.LVL37
 6461 09a1 C12C0000 		.4byte	0x2cc1
 6462 09a5 B6090000 		.4byte	0x9b6
 6463 09a9 24       		.uleb128 0x24
 6464 09aa 01       		.uleb128 0x1
 6465 09ab 50       		.byte	0x50
 6466 09ac 02       		.uleb128 0x2
 6467 09ad 75       		.byte	0x75
 6468 09ae 00       		.sleb128 0
 6469 09af 24       		.uleb128 0x24
 6470 09b0 01       		.uleb128 0x1
 6471 09b1 51       		.byte	0x51
 6472 09b2 02       		.uleb128 0x2
 6473 09b3 91       		.byte	0x91
 6474 09b4 64       		.sleb128 -28
 6475 09b5 00       		.byte	0
 6476 09b6 25       		.uleb128 0x25
 6477 09b7 14010000 		.4byte	.LVL41
 6478 09bb 792C0000 		.4byte	0x2c79
 6479 09bf 24       		.uleb128 0x24
 6480 09c0 01       		.uleb128 0x1
 6481 09c1 51       		.byte	0x51
 6482 09c2 05       		.uleb128 0x5
 6483 09c3 03       		.byte	0x3
 6484 09c4 00000000 		.4byte	.LC0
 6485 09c8 00       		.byte	0
 6486 09c9 00       		.byte	0
 6487 09ca 26       		.uleb128 0x26
 6488 09cb 2B060000 		.4byte	.LASF82
 6489 09cf 01       		.byte	0x1
 6490 09d0 4D01     		.2byte	0x14d
 6491 09d2 0D       		.byte	0xd
 6492 09d3 26       		.uleb128 0x26
 6493 09d4 69010000 		.4byte	.LASF83
 6494 09d8 01       		.byte	0x1
 6495 09d9 4901     		.2byte	0x149
 6496 09db 0D       		.byte	0xd
 6497 09dc 27       		.uleb128 0x27
 6498 09dd D1030000 		.4byte	.LASF86
 6499 09e1 01       		.byte	0x1
 6500 09e2 DE       		.byte	0xde
 6501 09e3 0D       		.byte	0xd
 6502 09e4 01       		.byte	0x1
 6503 09e5 0C0A0000 		.4byte	0xa0c
 6504 09e9 28       		.uleb128 0x28
 6505 09ea 8F010000 		.4byte	.LASF80
ARM GAS  /tmp/ccCget5K.s 			page 116


 6506 09ee 01       		.byte	0x1
 6507 09ef DF       		.byte	0xdf
 6508 09f0 09       		.byte	0x9
 6509 09f1 DE000000 		.4byte	0xde
 6510 09f5 28       		.uleb128 0x28
 6511 09f6 94010000 		.4byte	.LASF81
 6512 09fa 01       		.byte	0x1
 6513 09fb DF       		.byte	0xdf
 6514 09fc 0F       		.byte	0xf
 6515 09fd DE000000 		.4byte	0xde
 6516 0a01 29       		.uleb128 0x29
 6517 0a02 6900     		.ascii	"i\000"
 6518 0a04 01       		.byte	0x1
 6519 0a05 E0       		.byte	0xe0
 6520 0a06 0C       		.byte	0xc
 6521 0a07 38000000 		.4byte	0x38
 6522 0a0b 00       		.byte	0
 6523 0a0c 2A       		.uleb128 0x2a
 6524 0a0d 15060000 		.4byte	.LASF84
 6525 0a11 01       		.byte	0x1
 6526 0a12 DA       		.byte	0xda
 6527 0a13 0D       		.byte	0xd
 6528 0a14 2A       		.uleb128 0x2a
 6529 0a15 08050000 		.4byte	.LASF85
 6530 0a19 01       		.byte	0x1
 6531 0a1a D6       		.byte	0xd6
 6532 0a1b 0D       		.byte	0xd
 6533 0a1c 27       		.uleb128 0x27
 6534 0a1d 2E020000 		.4byte	.LASF87
 6535 0a21 01       		.byte	0x1
 6536 0a22 5F       		.byte	0x5f
 6537 0a23 0D       		.byte	0xd
 6538 0a24 01       		.byte	0x1
 6539 0a25 4C0A0000 		.4byte	0xa4c
 6540 0a29 28       		.uleb128 0x28
 6541 0a2a 8F010000 		.4byte	.LASF80
 6542 0a2e 01       		.byte	0x1
 6543 0a2f 60       		.byte	0x60
 6544 0a30 09       		.byte	0x9
 6545 0a31 DE000000 		.4byte	0xde
 6546 0a35 28       		.uleb128 0x28
 6547 0a36 94010000 		.4byte	.LASF81
 6548 0a3a 01       		.byte	0x1
 6549 0a3b 60       		.byte	0x60
 6550 0a3c 0F       		.byte	0xf
 6551 0a3d DE000000 		.4byte	0xde
 6552 0a41 29       		.uleb128 0x29
 6553 0a42 6900     		.ascii	"i\000"
 6554 0a44 01       		.byte	0x1
 6555 0a45 61       		.byte	0x61
 6556 0a46 0C       		.byte	0xc
 6557 0a47 38000000 		.4byte	0x38
 6558 0a4b 00       		.byte	0
 6559 0a4c 2B       		.uleb128 0x2b
 6560 0a4d FF050000 		.4byte	.LASF88
 6561 0a51 01       		.byte	0x1
 6562 0a52 5B       		.byte	0x5b
ARM GAS  /tmp/ccCget5K.s 			page 117


 6563 0a53 0D       		.byte	0xd
 6564 0a54 01       		.byte	0x1
 6565 0a55 2B       		.uleb128 0x2b
 6566 0a56 2B010000 		.4byte	.LASF89
 6567 0a5a 01       		.byte	0x1
 6568 0a5b 57       		.byte	0x57
 6569 0a5c 0D       		.byte	0xd
 6570 0a5d 01       		.byte	0x1
 6571 0a5e 2C       		.uleb128 0x2c
 6572 0a5f 13040000 		.4byte	.LASF90
 6573 0a63 06       		.byte	0x6
 6574 0a64 F601     		.2byte	0x1f6
 6575 0a66 14       		.byte	0x14
 6576 0a67 03       		.byte	0x3
 6577 0a68 2C       		.uleb128 0x2c
 6578 0a69 55010000 		.4byte	.LASF91
 6579 0a6d 06       		.byte	0x6
 6580 0a6e EB01     		.2byte	0x1eb
 6581 0a70 14       		.byte	0x14
 6582 0a71 03       		.byte	0x3
 6583 0a72 27       		.uleb128 0x27
 6584 0a73 22020000 		.4byte	.LASF92
 6585 0a77 05       		.byte	0x5
 6586 0a78 C9       		.byte	0xc9
 6587 0a79 14       		.byte	0x14
 6588 0a7a 03       		.byte	0x3
 6589 0a7b 8C0A0000 		.4byte	0xa8c
 6590 0a7f 2D       		.uleb128 0x2d
 6591 0a80 6D627000 		.ascii	"mbp\000"
 6592 0a84 05       		.byte	0x5
 6593 0a85 C9       		.byte	0xc9
 6594 0a86 2B       		.byte	0x2b
 6595 0a87 8C0A0000 		.4byte	0xa8c
 6596 0a8b 00       		.byte	0
 6597 0a8c 0A       		.uleb128 0xa
 6598 0a8d 04       		.byte	0x4
 6599 0a8e B9040000 		.4byte	0x4b9
 6600 0a92 2E       		.uleb128 0x2e
 6601 0a93 0D010000 		.4byte	.LASF93
 6602 0a97 05       		.byte	0x5
 6603 0a98 A8       		.byte	0xa8
 6604 0a99 15       		.byte	0x15
 6605 0a9a F6000000 		.4byte	0xf6
 6606 0a9e 03       		.byte	0x3
 6607 0a9f B00A0000 		.4byte	0xab0
 6608 0aa3 2D       		.uleb128 0x2d
 6609 0aa4 6D627000 		.ascii	"mbp\000"
 6610 0aa8 05       		.byte	0x5
 6611 0aa9 A8       		.byte	0xa8
 6612 0aaa 38       		.byte	0x38
 6613 0aab B00A0000 		.4byte	0xab0
 6614 0aaf 00       		.byte	0
 6615 0ab0 0A       		.uleb128 0xa
 6616 0ab1 04       		.byte	0x4
 6617 0ab2 C5040000 		.4byte	0x4c5
 6618 0ab6 2E       		.uleb128 0x2e
 6619 0ab7 BF030000 		.4byte	.LASF94
ARM GAS  /tmp/ccCget5K.s 			page 118


 6620 0abb 05       		.byte	0x5
 6621 0abc 99       		.byte	0x99
 6622 0abd 15       		.byte	0x15
 6623 0abe F6000000 		.4byte	0xf6
 6624 0ac2 03       		.byte	0x3
 6625 0ac3 D40A0000 		.4byte	0xad4
 6626 0ac7 2D       		.uleb128 0x2d
 6627 0ac8 6D627000 		.ascii	"mbp\000"
 6628 0acc 05       		.byte	0x5
 6629 0acd 99       		.byte	0x99
 6630 0ace 38       		.byte	0x38
 6631 0acf B00A0000 		.4byte	0xab0
 6632 0ad3 00       		.byte	0
 6633 0ad4 2E       		.uleb128 0x2e
 6634 0ad5 34040000 		.4byte	.LASF95
 6635 0ad9 05       		.byte	0x5
 6636 0ada 88       		.byte	0x88
 6637 0adb 15       		.byte	0x15
 6638 0adc F6000000 		.4byte	0xf6
 6639 0ae0 03       		.byte	0x3
 6640 0ae1 F20A0000 		.4byte	0xaf2
 6641 0ae5 2D       		.uleb128 0x2d
 6642 0ae6 6D627000 		.ascii	"mbp\000"
 6643 0aea 05       		.byte	0x5
 6644 0aeb 88       		.byte	0x88
 6645 0aec 33       		.byte	0x33
 6646 0aed B00A0000 		.4byte	0xab0
 6647 0af1 00       		.byte	0
 6648 0af2 2F       		.uleb128 0x2f
 6649 0af3 EB050000 		.4byte	.LASF96
 6650 0af7 02       		.byte	0x2
 6651 0af8 8201     		.2byte	0x182
 6652 0afa 14       		.byte	0x14
 6653 0afb 03       		.byte	0x3
 6654 0afc 0A0B0000 		.4byte	0xb0a
 6655 0b00 30       		.uleb128 0x30
 6656 0b01 F7030000 		.4byte	.LASF118
 6657 0b05 1A0B0000 		.4byte	0xb1a
 6658 0b09 00       		.byte	0
 6659 0b0a 14       		.uleb128 0x14
 6660 0b0b 1F040000 		.4byte	0x41f
 6661 0b0f 1A0B0000 		.4byte	0xb1a
 6662 0b13 16       		.uleb128 0x16
 6663 0b14 38000000 		.4byte	0x38
 6664 0b18 0B       		.byte	0xb
 6665 0b19 00       		.byte	0
 6666 0b1a 10       		.uleb128 0x10
 6667 0b1b 0A0B0000 		.4byte	0xb0a
 6668 0b1f 2C       		.uleb128 0x2c
 6669 0b20 09040000 		.4byte	.LASF97
 6670 0b24 02       		.byte	0x2
 6671 0b25 7601     		.2byte	0x176
 6672 0b27 14       		.byte	0x14
 6673 0b28 03       		.byte	0x3
 6674 0b29 2C       		.uleb128 0x2c
 6675 0b2a CD000000 		.4byte	.LASF98
 6676 0b2e 03       		.byte	0x3
ARM GAS  /tmp/ccCget5K.s 			page 119


 6677 0b2f 6A02     		.2byte	0x26a
 6678 0b31 14       		.byte	0x14
 6679 0b32 03       		.byte	0x3
 6680 0b33 2C       		.uleb128 0x2c
 6681 0b34 2D000000 		.4byte	.LASF99
 6682 0b38 03       		.byte	0x3
 6683 0b39 5202     		.2byte	0x252
 6684 0b3b 14       		.byte	0x14
 6685 0b3c 03       		.byte	0x3
 6686 0b3d 2F       		.uleb128 0x2f
 6687 0b3e 2A050000 		.4byte	.LASF100
 6688 0b42 04       		.byte	0x4
 6689 0b43 0601     		.2byte	0x106
 6690 0b45 39       		.byte	0x39
 6691 0b46 03       		.byte	0x3
 6692 0b47 590B0000 		.4byte	0xb59
 6693 0b4b 31       		.uleb128 0x31
 6694 0b4c 2E040000 		.4byte	.LASF101
 6695 0b50 04       		.byte	0x4
 6696 0b51 0601     		.2byte	0x106
 6697 0b53 50       		.byte	0x50
 6698 0b54 88000000 		.4byte	0x88
 6699 0b58 00       		.byte	0
 6700 0b59 32       		.uleb128 0x32
 6701 0b5a 4C0A0000 		.4byte	0xa4c
 6702 0b5e 00000000 		.4byte	.LFB278
 6703 0b62 0C000000 		.4byte	.LFE278-.LFB278
 6704 0b66 01       		.uleb128 0x1
 6705 0b67 9C       		.byte	0x9c
 6706 0b68 800B0000 		.4byte	0xb80
 6707 0b6c 33       		.uleb128 0x33
 6708 0b6d 06000000 		.4byte	.LVL0
 6709 0b71 A92C0000 		.4byte	0x2ca9
 6710 0b75 24       		.uleb128 0x24
 6711 0b76 01       		.uleb128 0x1
 6712 0b77 50       		.byte	0x50
 6713 0b78 05       		.uleb128 0x5
 6714 0b79 03       		.byte	0x3
 6715 0b7a 00000000 		.4byte	.LANCHOR0
 6716 0b7e 00       		.byte	0
 6717 0b7f 00       		.byte	0
 6718 0b80 32       		.uleb128 0x32
 6719 0b81 550A0000 		.4byte	0xa55
 6720 0b85 00000000 		.4byte	.LFB277
 6721 0b89 14000000 		.4byte	.LFE277-.LFB277
 6722 0b8d 01       		.uleb128 0x1
 6723 0b8e 9C       		.byte	0x9c
 6724 0b8f B50B0000 		.4byte	0xbb5
 6725 0b93 33       		.uleb128 0x33
 6726 0b94 0A000000 		.4byte	.LVL42
 6727 0b98 CD2C0000 		.4byte	0x2ccd
 6728 0b9c 24       		.uleb128 0x24
 6729 0b9d 01       		.uleb128 0x1
 6730 0b9e 50       		.byte	0x50
 6731 0b9f 05       		.uleb128 0x5
 6732 0ba0 03       		.byte	0x3
 6733 0ba1 00000000 		.4byte	.LANCHOR0
ARM GAS  /tmp/ccCget5K.s 			page 120


 6734 0ba5 24       		.uleb128 0x24
 6735 0ba6 01       		.uleb128 0x1
 6736 0ba7 51       		.byte	0x51
 6737 0ba8 05       		.uleb128 0x5
 6738 0ba9 03       		.byte	0x3
 6739 0baa 00000000 		.4byte	.LANCHOR1
 6740 0bae 24       		.uleb128 0x24
 6741 0baf 01       		.uleb128 0x1
 6742 0bb0 52       		.byte	0x52
 6743 0bb1 01       		.uleb128 0x1
 6744 0bb2 34       		.byte	0x34
 6745 0bb3 00       		.byte	0
 6746 0bb4 00       		.byte	0
 6747 0bb5 32       		.uleb128 0x32
 6748 0bb6 DC090000 		.4byte	0x9dc
 6749 0bba 00000000 		.4byte	.LFB282
 6750 0bbe E8020000 		.4byte	.LFE282-.LFB282
 6751 0bc2 01       		.uleb128 0x1
 6752 0bc3 9C       		.byte	0x9c
 6753 0bc4 031D0000 		.4byte	0x1d03
 6754 0bc8 34       		.uleb128 0x34
 6755 0bc9 E9090000 		.4byte	0x9e9
 6756 0bcd 34       		.uleb128 0x34
 6757 0bce F5090000 		.4byte	0x9f5
 6758 0bd2 34       		.uleb128 0x34
 6759 0bd3 010A0000 		.4byte	0xa01
 6760 0bd7 35       		.uleb128 0x35
 6761 0bd8 680A0000 		.4byte	0xa68
 6762 0bdc 0C000000 		.4byte	.LBI1310
 6763 0be0 0100     		.2byte	.LVU159
 6764 0be2 C0000000 		.4byte	.Ldebug_ranges0+0xc0
 6765 0be6 01       		.byte	0x1
 6766 0be7 E5       		.byte	0xe5
 6767 0be8 05       		.byte	0x5
 6768 0be9 3B0C0000 		.4byte	0xc3b
 6769 0bed 1F       		.uleb128 0x1f
 6770 0bee 1F0B0000 		.4byte	0xb1f
 6771 0bf2 0C000000 		.4byte	.LBI1311
 6772 0bf6 0300     		.2byte	.LVU161
 6773 0bf8 C8000000 		.4byte	.Ldebug_ranges0+0xc8
 6774 0bfc 06       		.byte	0x6
 6775 0bfd ED01     		.2byte	0x1ed
 6776 0bff 03       		.byte	0x3
 6777 0c00 1F       		.uleb128 0x1f
 6778 0c01 330B0000 		.4byte	0xb33
 6779 0c05 0C000000 		.4byte	.LBI1312
 6780 0c09 0500     		.2byte	.LVU163
 6781 0c0b D0000000 		.4byte	.Ldebug_ranges0+0xd0
 6782 0c0f 02       		.byte	0x2
 6783 0c10 7801     		.2byte	0x178
 6784 0c12 03       		.byte	0x3
 6785 0c13 20       		.uleb128 0x20
 6786 0c14 3D0B0000 		.4byte	0xb3d
 6787 0c18 0C000000 		.4byte	.LBI1313
 6788 0c1c 0700     		.2byte	.LVU165
 6789 0c1e 0C000000 		.4byte	.LBB1313
 6790 0c22 06000000 		.4byte	.LBE1313-.LBB1313
ARM GAS  /tmp/ccCget5K.s 			page 121


 6791 0c26 03       		.byte	0x3
 6792 0c27 5A02     		.2byte	0x25a
 6793 0c29 03       		.byte	0x3
 6794 0c2a 21       		.uleb128 0x21
 6795 0c2b 4B0B0000 		.4byte	0xb4b
 6796 0c2f 96010000 		.4byte	.LLST9
 6797 0c33 94010000 		.4byte	.LVUS9
 6798 0c37 00       		.byte	0
 6799 0c38 00       		.byte	0
 6800 0c39 00       		.byte	0
 6801 0c3a 00       		.byte	0
 6802 0c3b 35       		.uleb128 0x35
 6803 0c3c 920A0000 		.4byte	0xa92
 6804 0c40 12000000 		.4byte	.LBI1321
 6805 0c44 0400     		.2byte	.LVU171
 6806 0c46 E8000000 		.4byte	.Ldebug_ranges0+0xe8
 6807 0c4a 01       		.byte	0x1
 6808 0c4b E5       		.byte	0xe5
 6809 0c4c 05       		.byte	0x5
 6810 0c4d A70C0000 		.4byte	0xca7
 6811 0c51 21       		.uleb128 0x21
 6812 0c52 A30A0000 		.4byte	0xaa3
 6813 0c56 AD010000 		.4byte	.LLST10
 6814 0c5a AB010000 		.4byte	.LVUS10
 6815 0c5e 35       		.uleb128 0x35
 6816 0c5f D40A0000 		.4byte	0xad4
 6817 0c63 12000000 		.4byte	.LBI1323
 6818 0c67 0700     		.2byte	.LVU174
 6819 0c69 00010000 		.4byte	.Ldebug_ranges0+0x100
 6820 0c6d 05       		.byte	0x5
 6821 0c6e AC       		.byte	0xac
 6822 0c6f 0A       		.byte	0xa
 6823 0c70 820C0000 		.4byte	0xc82
 6824 0c74 21       		.uleb128 0x21
 6825 0c75 E50A0000 		.4byte	0xae5
 6826 0c79 C7010000 		.4byte	.LLST11
 6827 0c7d C5010000 		.4byte	.LVUS11
 6828 0c81 00       		.byte	0
 6829 0c82 36       		.uleb128 0x36
 6830 0c83 B60A0000 		.4byte	0xab6
 6831 0c87 12000000 		.4byte	.LBI1327
 6832 0c8b 0A00     		.2byte	.LVU177
 6833 0c8d 12000000 		.4byte	.LBB1327
 6834 0c91 00000000 		.4byte	.LBE1327-.LBB1327
 6835 0c95 05       		.byte	0x5
 6836 0c96 AC       		.byte	0xac
 6837 0c97 1E       		.byte	0x1e
 6838 0c98 21       		.uleb128 0x21
 6839 0c99 C70A0000 		.4byte	0xac7
 6840 0c9d E1010000 		.4byte	.LLST12
 6841 0ca1 DF010000 		.4byte	.LVUS12
 6842 0ca5 00       		.byte	0
 6843 0ca6 00       		.byte	0
 6844 0ca7 35       		.uleb128 0x35
 6845 0ca8 5E0A0000 		.4byte	0xa5e
 6846 0cac 32000000 		.4byte	.LBI1333
 6847 0cb0 0100     		.2byte	.LVU187
ARM GAS  /tmp/ccCget5K.s 			page 122


 6848 0cb2 20010000 		.4byte	.Ldebug_ranges0+0x120
 6849 0cb6 01       		.byte	0x1
 6850 0cb7 E5       		.byte	0xe5
 6851 0cb8 05       		.byte	0x5
 6852 0cb9 110D0000 		.4byte	0xd11
 6853 0cbd 1F       		.uleb128 0x1f
 6854 0cbe F20A0000 		.4byte	0xaf2
 6855 0cc2 32000000 		.4byte	.LBI1334
 6856 0cc6 0300     		.2byte	.LVU189
 6857 0cc8 28010000 		.4byte	.Ldebug_ranges0+0x128
 6858 0ccc 06       		.byte	0x6
 6859 0ccd F801     		.2byte	0x1f8
 6860 0ccf 03       		.byte	0x3
 6861 0cd0 22       		.uleb128 0x22
 6862 0cd1 28010000 		.4byte	.Ldebug_ranges0+0x128
 6863 0cd5 1F       		.uleb128 0x1f
 6864 0cd6 290B0000 		.4byte	0xb29
 6865 0cda 32000000 		.4byte	.LBI1336
 6866 0cde 0A00     		.2byte	.LVU196
 6867 0ce0 28010000 		.4byte	.Ldebug_ranges0+0x128
 6868 0ce4 02       		.byte	0x2
 6869 0ce5 8F01     		.2byte	0x18f
 6870 0ce7 03       		.byte	0x3
 6871 0ce8 20       		.uleb128 0x20
 6872 0ce9 3D0B0000 		.4byte	0xb3d
 6873 0ced 32000000 		.4byte	.LBI1337
 6874 0cf1 0C00     		.2byte	.LVU198
 6875 0cf3 32000000 		.4byte	.LBB1337
 6876 0cf7 06000000 		.4byte	.LBE1337-.LBB1337
 6877 0cfb 03       		.byte	0x3
 6878 0cfc 6D02     		.2byte	0x26d
 6879 0cfe 03       		.byte	0x3
 6880 0cff 21       		.uleb128 0x21
 6881 0d00 4B0B0000 		.4byte	0xb4b
 6882 0d04 FB010000 		.4byte	.LLST13
 6883 0d08 F9010000 		.4byte	.LVUS13
 6884 0d0c 00       		.byte	0
 6885 0d0d 00       		.byte	0
 6886 0d0e 00       		.byte	0
 6887 0d0f 00       		.byte	0
 6888 0d10 00       		.byte	0
 6889 0d11 35       		.uleb128 0x35
 6890 0d12 DC090000 		.4byte	0x9dc
 6891 0d16 3E000000 		.4byte	.LBI1344
 6892 0d1a 0000     		.2byte	.LVU203
 6893 0d1c 40010000 		.4byte	.Ldebug_ranges0+0x140
 6894 0d20 01       		.byte	0x1
 6895 0d21 DE       		.byte	0xde
 6896 0d22 0D       		.byte	0xd
 6897 0d23 EF1C0000 		.4byte	0x1cef
 6898 0d27 22       		.uleb128 0x22
 6899 0d28 40010000 		.4byte	.Ldebug_ranges0+0x140
 6900 0d2c 37       		.uleb128 0x37
 6901 0d2d E9090000 		.4byte	0x9e9
 6902 0d31 19020000 		.4byte	.LLST14
 6903 0d35 0F020000 		.4byte	.LVUS14
 6904 0d39 38       		.uleb128 0x38
ARM GAS  /tmp/ccCget5K.s 			page 123


 6905 0d3a F5090000 		.4byte	0x9f5
 6906 0d3e 02       		.uleb128 0x2
 6907 0d3f 91       		.byte	0x91
 6908 0d40 5C       		.sleb128 -36
 6909 0d41 37       		.uleb128 0x37
 6910 0d42 010A0000 		.4byte	0xa01
 6911 0d46 66020000 		.4byte	.LLST15
 6912 0d4a 58020000 		.4byte	.LVUS15
 6913 0d4e 35       		.uleb128 0x35
 6914 0d4f 5E0A0000 		.4byte	0xa5e
 6915 0d53 3E000000 		.4byte	.LBI1346
 6916 0d57 0200     		.2byte	.LVU205
 6917 0d59 D8030000 		.4byte	.Ldebug_ranges0+0x3d8
 6918 0d5d 01       		.byte	0x1
 6919 0d5e E5       		.byte	0xe5
 6920 0d5f 05       		.byte	0x5
 6921 0d60 B80D0000 		.4byte	0xdb8
 6922 0d64 1F       		.uleb128 0x1f
 6923 0d65 F20A0000 		.4byte	0xaf2
 6924 0d69 3E000000 		.4byte	.LBI1347
 6925 0d6d 0400     		.2byte	.LVU207
 6926 0d6f E0030000 		.4byte	.Ldebug_ranges0+0x3e0
 6927 0d73 06       		.byte	0x6
 6928 0d74 F801     		.2byte	0x1f8
 6929 0d76 03       		.byte	0x3
 6930 0d77 22       		.uleb128 0x22
 6931 0d78 E0030000 		.4byte	.Ldebug_ranges0+0x3e0
 6932 0d7c 1F       		.uleb128 0x1f
 6933 0d7d 290B0000 		.4byte	0xb29
 6934 0d81 3E000000 		.4byte	.LBI1349
 6935 0d85 0B00     		.2byte	.LVU214
 6936 0d87 E0030000 		.4byte	.Ldebug_ranges0+0x3e0
 6937 0d8b 02       		.byte	0x2
 6938 0d8c 8F01     		.2byte	0x18f
 6939 0d8e 03       		.byte	0x3
 6940 0d8f 20       		.uleb128 0x20
 6941 0d90 3D0B0000 		.4byte	0xb3d
 6942 0d94 3E000000 		.4byte	.LBI1350
 6943 0d98 0D00     		.2byte	.LVU216
 6944 0d9a 3E000000 		.4byte	.LBB1350
 6945 0d9e 06000000 		.4byte	.LBE1350-.LBB1350
 6946 0da2 03       		.byte	0x3
 6947 0da3 6D02     		.2byte	0x26d
 6948 0da5 03       		.byte	0x3
 6949 0da6 21       		.uleb128 0x21
 6950 0da7 4B0B0000 		.4byte	0xb4b
 6951 0dab D2020000 		.4byte	.LLST16
 6952 0daf D0020000 		.4byte	.LVUS16
 6953 0db3 00       		.byte	0
 6954 0db4 00       		.byte	0
 6955 0db5 00       		.byte	0
 6956 0db6 00       		.byte	0
 6957 0db7 00       		.byte	0
 6958 0db8 35       		.uleb128 0x35
 6959 0db9 1F0B0000 		.4byte	0xb1f
 6960 0dbd 48000000 		.4byte	.LBI1357
 6961 0dc1 0100     		.2byte	.LVU222
ARM GAS  /tmp/ccCget5K.s 			page 124


 6962 0dc3 F8030000 		.4byte	.Ldebug_ranges0+0x3f8
 6963 0dc7 01       		.byte	0x1
 6964 0dc8 EC       		.byte	0xec
 6965 0dc9 05       		.byte	0x5
 6966 0dca 080E0000 		.4byte	0xe08
 6967 0dce 1F       		.uleb128 0x1f
 6968 0dcf 330B0000 		.4byte	0xb33
 6969 0dd3 48000000 		.4byte	.LBI1358
 6970 0dd7 0300     		.2byte	.LVU224
 6971 0dd9 00040000 		.4byte	.Ldebug_ranges0+0x400
 6972 0ddd 02       		.byte	0x2
 6973 0dde 7801     		.2byte	0x178
 6974 0de0 03       		.byte	0x3
 6975 0de1 20       		.uleb128 0x20
 6976 0de2 3D0B0000 		.4byte	0xb3d
 6977 0de6 48000000 		.4byte	.LBI1359
 6978 0dea 0500     		.2byte	.LVU226
 6979 0dec 48000000 		.4byte	.LBB1359
 6980 0df0 04000000 		.4byte	.LBE1359-.LBB1359
 6981 0df4 03       		.byte	0x3
 6982 0df5 5A02     		.2byte	0x25a
 6983 0df7 03       		.byte	0x3
 6984 0df8 21       		.uleb128 0x21
 6985 0df9 4B0B0000 		.4byte	0xb4b
 6986 0dfd E8020000 		.4byte	.LLST17
 6987 0e01 E6020000 		.4byte	.LVUS17
 6988 0e05 00       		.byte	0
 6989 0e06 00       		.byte	0
 6990 0e07 00       		.byte	0
 6991 0e08 35       		.uleb128 0x35
 6992 0e09 F20A0000 		.4byte	0xaf2
 6993 0e0d 52000000 		.4byte	.LBI1364
 6994 0e11 0100     		.2byte	.LVU233
 6995 0e13 18040000 		.4byte	.Ldebug_ranges0+0x418
 6996 0e17 01       		.byte	0x1
 6997 0e18 EE       		.byte	0xee
 6998 0e19 05       		.byte	0x5
 6999 0e1a 5E0E0000 		.4byte	0xe5e
 7000 0e1e 22       		.uleb128 0x22
 7001 0e1f 18040000 		.4byte	.Ldebug_ranges0+0x418
 7002 0e23 1F       		.uleb128 0x1f
 7003 0e24 290B0000 		.4byte	0xb29
 7004 0e28 52000000 		.4byte	.LBI1366
 7005 0e2c 0800     		.2byte	.LVU240
 7006 0e2e 18040000 		.4byte	.Ldebug_ranges0+0x418
 7007 0e32 02       		.byte	0x2
 7008 0e33 8F01     		.2byte	0x18f
 7009 0e35 03       		.byte	0x3
 7010 0e36 20       		.uleb128 0x20
 7011 0e37 3D0B0000 		.4byte	0xb3d
 7012 0e3b 52000000 		.4byte	.LBI1367
 7013 0e3f 0A00     		.2byte	.LVU242
 7014 0e41 52000000 		.4byte	.LBB1367
 7015 0e45 04000000 		.4byte	.LBE1367-.LBB1367
 7016 0e49 03       		.byte	0x3
 7017 0e4a 6D02     		.2byte	0x26d
 7018 0e4c 03       		.byte	0x3
ARM GAS  /tmp/ccCget5K.s 			page 125


 7019 0e4d 21       		.uleb128 0x21
 7020 0e4e 4B0B0000 		.4byte	0xb4b
 7021 0e52 FF020000 		.4byte	.LLST18
 7022 0e56 FD020000 		.4byte	.LVUS18
 7023 0e5a 00       		.byte	0
 7024 0e5b 00       		.byte	0
 7025 0e5c 00       		.byte	0
 7026 0e5d 00       		.byte	0
 7027 0e5e 35       		.uleb128 0x35
 7028 0e5f 680A0000 		.4byte	0xa68
 7029 0e63 56000000 		.4byte	.LBI1372
 7030 0e67 0200     		.2byte	.LVU246
 7031 0e69 30040000 		.4byte	.Ldebug_ranges0+0x430
 7032 0e6d 01       		.byte	0x1
 7033 0e6e EF       		.byte	0xef
 7034 0e6f 05       		.byte	0x5
 7035 0e70 C20E0000 		.4byte	0xec2
 7036 0e74 1F       		.uleb128 0x1f
 7037 0e75 1F0B0000 		.4byte	0xb1f
 7038 0e79 56000000 		.4byte	.LBI1373
 7039 0e7d 0400     		.2byte	.LVU248
 7040 0e7f 38040000 		.4byte	.Ldebug_ranges0+0x438
 7041 0e83 06       		.byte	0x6
 7042 0e84 ED01     		.2byte	0x1ed
 7043 0e86 03       		.byte	0x3
 7044 0e87 1F       		.uleb128 0x1f
 7045 0e88 330B0000 		.4byte	0xb33
 7046 0e8c 56000000 		.4byte	.LBI1374
 7047 0e90 0600     		.2byte	.LVU250
 7048 0e92 40040000 		.4byte	.Ldebug_ranges0+0x440
 7049 0e96 02       		.byte	0x2
 7050 0e97 7801     		.2byte	0x178
 7051 0e99 03       		.byte	0x3
 7052 0e9a 20       		.uleb128 0x20
 7053 0e9b 3D0B0000 		.4byte	0xb3d
 7054 0e9f 56000000 		.4byte	.LBI1375
 7055 0ea3 0800     		.2byte	.LVU252
 7056 0ea5 56000000 		.4byte	.LBB1375
 7057 0ea9 04000000 		.4byte	.LBE1375-.LBB1375
 7058 0ead 03       		.byte	0x3
 7059 0eae 5A02     		.2byte	0x25a
 7060 0eb0 03       		.byte	0x3
 7061 0eb1 21       		.uleb128 0x21
 7062 0eb2 4B0B0000 		.4byte	0xb4b
 7063 0eb6 15030000 		.4byte	.LLST19
 7064 0eba 13030000 		.4byte	.LVUS19
 7065 0ebe 00       		.byte	0
 7066 0ebf 00       		.byte	0
 7067 0ec0 00       		.byte	0
 7068 0ec1 00       		.byte	0
 7069 0ec2 35       		.uleb128 0x35
 7070 0ec3 920A0000 		.4byte	0xa92
 7071 0ec7 5A000000 		.4byte	.LBI1383
 7072 0ecb 0400     		.2byte	.LVU258
 7073 0ecd 58040000 		.4byte	.Ldebug_ranges0+0x458
 7074 0ed1 01       		.byte	0x1
 7075 0ed2 EF       		.byte	0xef
ARM GAS  /tmp/ccCget5K.s 			page 126


 7076 0ed3 05       		.byte	0x5
 7077 0ed4 2E0F0000 		.4byte	0xf2e
 7078 0ed8 21       		.uleb128 0x21
 7079 0ed9 A30A0000 		.4byte	0xaa3
 7080 0edd 2C030000 		.4byte	.LLST20
 7081 0ee1 2A030000 		.4byte	.LVUS20
 7082 0ee5 35       		.uleb128 0x35
 7083 0ee6 D40A0000 		.4byte	0xad4
 7084 0eea 5A000000 		.4byte	.LBI1385
 7085 0eee 0700     		.2byte	.LVU261
 7086 0ef0 70040000 		.4byte	.Ldebug_ranges0+0x470
 7087 0ef4 05       		.byte	0x5
 7088 0ef5 AC       		.byte	0xac
 7089 0ef6 0A       		.byte	0xa
 7090 0ef7 090F0000 		.4byte	0xf09
 7091 0efb 21       		.uleb128 0x21
 7092 0efc E50A0000 		.4byte	0xae5
 7093 0f00 46030000 		.4byte	.LLST21
 7094 0f04 44030000 		.4byte	.LVUS21
 7095 0f08 00       		.byte	0
 7096 0f09 36       		.uleb128 0x36
 7097 0f0a B60A0000 		.4byte	0xab6
 7098 0f0e 5A000000 		.4byte	.LBI1388
 7099 0f12 0A00     		.2byte	.LVU264
 7100 0f14 5A000000 		.4byte	.LBB1388
 7101 0f18 00000000 		.4byte	.LBE1388-.LBB1388
 7102 0f1c 05       		.byte	0x5
 7103 0f1d AC       		.byte	0xac
 7104 0f1e 1E       		.byte	0x1e
 7105 0f1f 21       		.uleb128 0x21
 7106 0f20 C70A0000 		.4byte	0xac7
 7107 0f24 60030000 		.4byte	.LLST22
 7108 0f28 5E030000 		.4byte	.LVUS22
 7109 0f2c 00       		.byte	0
 7110 0f2d 00       		.byte	0
 7111 0f2e 35       		.uleb128 0x35
 7112 0f2f 5E0A0000 		.4byte	0xa5e
 7113 0f33 7A000000 		.4byte	.LBI1393
 7114 0f37 0100     		.2byte	.LVU274
 7115 0f39 88040000 		.4byte	.Ldebug_ranges0+0x488
 7116 0f3d 01       		.byte	0x1
 7117 0f3e EF       		.byte	0xef
 7118 0f3f 05       		.byte	0x5
 7119 0f40 980F0000 		.4byte	0xf98
 7120 0f44 1F       		.uleb128 0x1f
 7121 0f45 F20A0000 		.4byte	0xaf2
 7122 0f49 7A000000 		.4byte	.LBI1394
 7123 0f4d 0300     		.2byte	.LVU276
 7124 0f4f 90040000 		.4byte	.Ldebug_ranges0+0x490
 7125 0f53 06       		.byte	0x6
 7126 0f54 F801     		.2byte	0x1f8
 7127 0f56 03       		.byte	0x3
 7128 0f57 22       		.uleb128 0x22
 7129 0f58 90040000 		.4byte	.Ldebug_ranges0+0x490
 7130 0f5c 1F       		.uleb128 0x1f
 7131 0f5d 290B0000 		.4byte	0xb29
 7132 0f61 7A000000 		.4byte	.LBI1396
ARM GAS  /tmp/ccCget5K.s 			page 127


 7133 0f65 0A00     		.2byte	.LVU283
 7134 0f67 90040000 		.4byte	.Ldebug_ranges0+0x490
 7135 0f6b 02       		.byte	0x2
 7136 0f6c 8F01     		.2byte	0x18f
 7137 0f6e 03       		.byte	0x3
 7138 0f6f 20       		.uleb128 0x20
 7139 0f70 3D0B0000 		.4byte	0xb3d
 7140 0f74 7A000000 		.4byte	.LBI1397
 7141 0f78 0C00     		.2byte	.LVU285
 7142 0f7a 7A000000 		.4byte	.LBB1397
 7143 0f7e 04000000 		.4byte	.LBE1397-.LBB1397
 7144 0f82 03       		.byte	0x3
 7145 0f83 6D02     		.2byte	0x26d
 7146 0f85 03       		.byte	0x3
 7147 0f86 21       		.uleb128 0x21
 7148 0f87 4B0B0000 		.4byte	0xb4b
 7149 0f8b 7A030000 		.4byte	.LLST23
 7150 0f8f 78030000 		.4byte	.LVUS23
 7151 0f93 00       		.byte	0
 7152 0f94 00       		.byte	0
 7153 0f95 00       		.byte	0
 7154 0f96 00       		.byte	0
 7155 0f97 00       		.byte	0
 7156 0f98 35       		.uleb128 0x35
 7157 0f99 680A0000 		.4byte	0xa68
 7158 0f9d 7E000000 		.4byte	.LBI1404
 7159 0fa1 0300     		.2byte	.LVU290
 7160 0fa3 A8040000 		.4byte	.Ldebug_ranges0+0x4a8
 7161 0fa7 01       		.byte	0x1
 7162 0fa8 F0       		.byte	0xf0
 7163 0fa9 05       		.byte	0x5
 7164 0faa FC0F0000 		.4byte	0xffc
 7165 0fae 1F       		.uleb128 0x1f
 7166 0faf 1F0B0000 		.4byte	0xb1f
 7167 0fb3 7E000000 		.4byte	.LBI1405
 7168 0fb7 0500     		.2byte	.LVU292
 7169 0fb9 B0040000 		.4byte	.Ldebug_ranges0+0x4b0
 7170 0fbd 06       		.byte	0x6
 7171 0fbe ED01     		.2byte	0x1ed
 7172 0fc0 03       		.byte	0x3
 7173 0fc1 1F       		.uleb128 0x1f
 7174 0fc2 330B0000 		.4byte	0xb33
 7175 0fc6 7E000000 		.4byte	.LBI1406
 7176 0fca 0700     		.2byte	.LVU294
 7177 0fcc B8040000 		.4byte	.Ldebug_ranges0+0x4b8
 7178 0fd0 02       		.byte	0x2
 7179 0fd1 7801     		.2byte	0x178
 7180 0fd3 03       		.byte	0x3
 7181 0fd4 20       		.uleb128 0x20
 7182 0fd5 3D0B0000 		.4byte	0xb3d
 7183 0fd9 7E000000 		.4byte	.LBI1407
 7184 0fdd 0900     		.2byte	.LVU296
 7185 0fdf 7E000000 		.4byte	.LBB1407
 7186 0fe3 04000000 		.4byte	.LBE1407-.LBB1407
 7187 0fe7 03       		.byte	0x3
 7188 0fe8 5A02     		.2byte	0x25a
 7189 0fea 03       		.byte	0x3
ARM GAS  /tmp/ccCget5K.s 			page 128


 7190 0feb 21       		.uleb128 0x21
 7191 0fec 4B0B0000 		.4byte	0xb4b
 7192 0ff0 90030000 		.4byte	.LLST24
 7193 0ff4 8E030000 		.4byte	.LVUS24
 7194 0ff8 00       		.byte	0
 7195 0ff9 00       		.byte	0
 7196 0ffa 00       		.byte	0
 7197 0ffb 00       		.byte	0
 7198 0ffc 39       		.uleb128 0x39
 7199 0ffd B60A0000 		.4byte	0xab6
 7200 1001 82000000 		.4byte	.LBI1415
 7201 1005 0400     		.2byte	.LVU302
 7202 1007 82000000 		.4byte	.LBB1415
 7203 100b 00000000 		.4byte	.LBE1415-.LBB1415
 7204 100f 01       		.byte	0x1
 7205 1010 F0       		.byte	0xf0
 7206 1011 05       		.byte	0x5
 7207 1012 24100000 		.4byte	0x1024
 7208 1016 21       		.uleb128 0x21
 7209 1017 C70A0000 		.4byte	0xac7
 7210 101b A7030000 		.4byte	.LLST25
 7211 101f A5030000 		.4byte	.LVUS25
 7212 1023 00       		.byte	0
 7213 1024 1E       		.uleb128 0x1e
 7214 1025 5E0A0000 		.4byte	0xa5e
 7215 1029 94000000 		.4byte	.LBI1417
 7216 102d 0100     		.2byte	.LVU308
 7217 102f D0040000 		.4byte	.Ldebug_ranges0+0x4d0
 7218 1033 01       		.byte	0x1
 7219 1034 0B01     		.2byte	0x10b
 7220 1036 05       		.byte	0x5
 7221 1037 8F100000 		.4byte	0x108f
 7222 103b 1F       		.uleb128 0x1f
 7223 103c F20A0000 		.4byte	0xaf2
 7224 1040 94000000 		.4byte	.LBI1418
 7225 1044 0300     		.2byte	.LVU310
 7226 1046 D8040000 		.4byte	.Ldebug_ranges0+0x4d8
 7227 104a 06       		.byte	0x6
 7228 104b F801     		.2byte	0x1f8
 7229 104d 03       		.byte	0x3
 7230 104e 22       		.uleb128 0x22
 7231 104f D8040000 		.4byte	.Ldebug_ranges0+0x4d8
 7232 1053 1F       		.uleb128 0x1f
 7233 1054 290B0000 		.4byte	0xb29
 7234 1058 94000000 		.4byte	.LBI1420
 7235 105c 0A00     		.2byte	.LVU317
 7236 105e D8040000 		.4byte	.Ldebug_ranges0+0x4d8
 7237 1062 02       		.byte	0x2
 7238 1063 8F01     		.2byte	0x18f
 7239 1065 03       		.byte	0x3
 7240 1066 20       		.uleb128 0x20
 7241 1067 3D0B0000 		.4byte	0xb3d
 7242 106b 94000000 		.4byte	.LBI1421
 7243 106f 0C00     		.2byte	.LVU319
 7244 1071 94000000 		.4byte	.LBB1421
 7245 1075 04000000 		.4byte	.LBE1421-.LBB1421
 7246 1079 03       		.byte	0x3
ARM GAS  /tmp/ccCget5K.s 			page 129


 7247 107a 6D02     		.2byte	0x26d
 7248 107c 03       		.byte	0x3
 7249 107d 21       		.uleb128 0x21
 7250 107e 4B0B0000 		.4byte	0xb4b
 7251 1082 C1030000 		.4byte	.LLST26
 7252 1086 BF030000 		.4byte	.LVUS26
 7253 108a 00       		.byte	0
 7254 108b 00       		.byte	0
 7255 108c 00       		.byte	0
 7256 108d 00       		.byte	0
 7257 108e 00       		.byte	0
 7258 108f 1E       		.uleb128 0x1e
 7259 1090 5E0A0000 		.4byte	0xa5e
 7260 1094 9E000000 		.4byte	.LBI1428
 7261 1098 0100     		.2byte	.LVU325
 7262 109a F0040000 		.4byte	.Ldebug_ranges0+0x4f0
 7263 109e 01       		.byte	0x1
 7264 109f 0C01     		.2byte	0x10c
 7265 10a1 05       		.byte	0x5
 7266 10a2 FA100000 		.4byte	0x10fa
 7267 10a6 1F       		.uleb128 0x1f
 7268 10a7 F20A0000 		.4byte	0xaf2
 7269 10ab 9E000000 		.4byte	.LBI1429
 7270 10af 0300     		.2byte	.LVU327
 7271 10b1 F8040000 		.4byte	.Ldebug_ranges0+0x4f8
 7272 10b5 06       		.byte	0x6
 7273 10b6 F801     		.2byte	0x1f8
 7274 10b8 03       		.byte	0x3
 7275 10b9 22       		.uleb128 0x22
 7276 10ba F8040000 		.4byte	.Ldebug_ranges0+0x4f8
 7277 10be 1F       		.uleb128 0x1f
 7278 10bf 290B0000 		.4byte	0xb29
 7279 10c3 9E000000 		.4byte	.LBI1431
 7280 10c7 0A00     		.2byte	.LVU334
 7281 10c9 F8040000 		.4byte	.Ldebug_ranges0+0x4f8
 7282 10cd 02       		.byte	0x2
 7283 10ce 8F01     		.2byte	0x18f
 7284 10d0 03       		.byte	0x3
 7285 10d1 20       		.uleb128 0x20
 7286 10d2 3D0B0000 		.4byte	0xb3d
 7287 10d6 9E000000 		.4byte	.LBI1432
 7288 10da 0C00     		.2byte	.LVU336
 7289 10dc 9E000000 		.4byte	.LBB1432
 7290 10e0 04000000 		.4byte	.LBE1432-.LBB1432
 7291 10e4 03       		.byte	0x3
 7292 10e5 6D02     		.2byte	0x26d
 7293 10e7 03       		.byte	0x3
 7294 10e8 21       		.uleb128 0x21
 7295 10e9 4B0B0000 		.4byte	0xb4b
 7296 10ed D7030000 		.4byte	.LLST27
 7297 10f1 D5030000 		.4byte	.LVUS27
 7298 10f5 00       		.byte	0
 7299 10f6 00       		.byte	0
 7300 10f7 00       		.byte	0
 7301 10f8 00       		.byte	0
 7302 10f9 00       		.byte	0
 7303 10fa 35       		.uleb128 0x35
ARM GAS  /tmp/ccCget5K.s 			page 130


 7304 10fb 5E0A0000 		.4byte	0xa5e
 7305 10ff A8000000 		.4byte	.LBI1439
 7306 1103 0100     		.2byte	.LVU342
 7307 1105 10050000 		.4byte	.Ldebug_ranges0+0x510
 7308 1109 01       		.byte	0x1
 7309 110a F0       		.byte	0xf0
 7310 110b 05       		.byte	0x5
 7311 110c 64110000 		.4byte	0x1164
 7312 1110 1F       		.uleb128 0x1f
 7313 1111 F20A0000 		.4byte	0xaf2
 7314 1115 A8000000 		.4byte	.LBI1440
 7315 1119 0300     		.2byte	.LVU344
 7316 111b 18050000 		.4byte	.Ldebug_ranges0+0x518
 7317 111f 06       		.byte	0x6
 7318 1120 F801     		.2byte	0x1f8
 7319 1122 03       		.byte	0x3
 7320 1123 22       		.uleb128 0x22
 7321 1124 18050000 		.4byte	.Ldebug_ranges0+0x518
 7322 1128 1F       		.uleb128 0x1f
 7323 1129 290B0000 		.4byte	0xb29
 7324 112d A8000000 		.4byte	.LBI1442
 7325 1131 0A00     		.2byte	.LVU351
 7326 1133 18050000 		.4byte	.Ldebug_ranges0+0x518
 7327 1137 02       		.byte	0x2
 7328 1138 8F01     		.2byte	0x18f
 7329 113a 03       		.byte	0x3
 7330 113b 20       		.uleb128 0x20
 7331 113c 3D0B0000 		.4byte	0xb3d
 7332 1140 A8000000 		.4byte	.LBI1443
 7333 1144 0C00     		.2byte	.LVU353
 7334 1146 A8000000 		.4byte	.LBB1443
 7335 114a 04000000 		.4byte	.LBE1443-.LBB1443
 7336 114e 03       		.byte	0x3
 7337 114f 6D02     		.2byte	0x26d
 7338 1151 03       		.byte	0x3
 7339 1152 21       		.uleb128 0x21
 7340 1153 4B0B0000 		.4byte	0xb4b
 7341 1157 ED030000 		.4byte	.LLST28
 7342 115b EB030000 		.4byte	.LVUS28
 7343 115f 00       		.byte	0
 7344 1160 00       		.byte	0
 7345 1161 00       		.byte	0
 7346 1162 00       		.byte	0
 7347 1163 00       		.byte	0
 7348 1164 35       		.uleb128 0x35
 7349 1165 680A0000 		.4byte	0xa68
 7350 1169 AC000000 		.4byte	.LBI1450
 7351 116d 0300     		.2byte	.LVU358
 7352 116f 30050000 		.4byte	.Ldebug_ranges0+0x530
 7353 1173 01       		.byte	0x1
 7354 1174 F1       		.byte	0xf1
 7355 1175 05       		.byte	0x5
 7356 1176 C8110000 		.4byte	0x11c8
 7357 117a 1F       		.uleb128 0x1f
 7358 117b 1F0B0000 		.4byte	0xb1f
 7359 117f AC000000 		.4byte	.LBI1451
 7360 1183 0500     		.2byte	.LVU360
ARM GAS  /tmp/ccCget5K.s 			page 131


 7361 1185 38050000 		.4byte	.Ldebug_ranges0+0x538
 7362 1189 06       		.byte	0x6
 7363 118a ED01     		.2byte	0x1ed
 7364 118c 03       		.byte	0x3
 7365 118d 1F       		.uleb128 0x1f
 7366 118e 330B0000 		.4byte	0xb33
 7367 1192 AC000000 		.4byte	.LBI1452
 7368 1196 0700     		.2byte	.LVU362
 7369 1198 40050000 		.4byte	.Ldebug_ranges0+0x540
 7370 119c 02       		.byte	0x2
 7371 119d 7801     		.2byte	0x178
 7372 119f 03       		.byte	0x3
 7373 11a0 20       		.uleb128 0x20
 7374 11a1 3D0B0000 		.4byte	0xb3d
 7375 11a5 AC000000 		.4byte	.LBI1453
 7376 11a9 0900     		.2byte	.LVU364
 7377 11ab AC000000 		.4byte	.LBB1453
 7378 11af 04000000 		.4byte	.LBE1453-.LBB1453
 7379 11b3 03       		.byte	0x3
 7380 11b4 5A02     		.2byte	0x25a
 7381 11b6 03       		.byte	0x3
 7382 11b7 21       		.uleb128 0x21
 7383 11b8 4B0B0000 		.4byte	0xb4b
 7384 11bc 03040000 		.4byte	.LLST29
 7385 11c0 01040000 		.4byte	.LVUS29
 7386 11c4 00       		.byte	0
 7387 11c5 00       		.byte	0
 7388 11c6 00       		.byte	0
 7389 11c7 00       		.byte	0
 7390 11c8 35       		.uleb128 0x35
 7391 11c9 5E0A0000 		.4byte	0xa5e
 7392 11cd C8000000 		.4byte	.LBI1461
 7393 11d1 0100     		.2byte	.LVU371
 7394 11d3 58050000 		.4byte	.Ldebug_ranges0+0x558
 7395 11d7 01       		.byte	0x1
 7396 11d8 F1       		.byte	0xf1
 7397 11d9 05       		.byte	0x5
 7398 11da 32120000 		.4byte	0x1232
 7399 11de 1F       		.uleb128 0x1f
 7400 11df F20A0000 		.4byte	0xaf2
 7401 11e3 C8000000 		.4byte	.LBI1462
 7402 11e7 0300     		.2byte	.LVU373
 7403 11e9 60050000 		.4byte	.Ldebug_ranges0+0x560
 7404 11ed 06       		.byte	0x6
 7405 11ee F801     		.2byte	0x1f8
 7406 11f0 03       		.byte	0x3
 7407 11f1 22       		.uleb128 0x22
 7408 11f2 60050000 		.4byte	.Ldebug_ranges0+0x560
 7409 11f6 1F       		.uleb128 0x1f
 7410 11f7 290B0000 		.4byte	0xb29
 7411 11fb C8000000 		.4byte	.LBI1464
 7412 11ff 0A00     		.2byte	.LVU380
 7413 1201 60050000 		.4byte	.Ldebug_ranges0+0x560
 7414 1205 02       		.byte	0x2
 7415 1206 8F01     		.2byte	0x18f
 7416 1208 03       		.byte	0x3
 7417 1209 20       		.uleb128 0x20
ARM GAS  /tmp/ccCget5K.s 			page 132


 7418 120a 3D0B0000 		.4byte	0xb3d
 7419 120e C8000000 		.4byte	.LBI1465
 7420 1212 0C00     		.2byte	.LVU382
 7421 1214 C8000000 		.4byte	.LBB1465
 7422 1218 04000000 		.4byte	.LBE1465-.LBB1465
 7423 121c 03       		.byte	0x3
 7424 121d 6D02     		.2byte	0x26d
 7425 121f 03       		.byte	0x3
 7426 1220 21       		.uleb128 0x21
 7427 1221 4B0B0000 		.4byte	0xb4b
 7428 1225 1A040000 		.4byte	.LLST30
 7429 1229 18040000 		.4byte	.LVUS30
 7430 122d 00       		.byte	0
 7431 122e 00       		.byte	0
 7432 122f 00       		.byte	0
 7433 1230 00       		.byte	0
 7434 1231 00       		.byte	0
 7435 1232 35       		.uleb128 0x35
 7436 1233 680A0000 		.4byte	0xa68
 7437 1237 CC000000 		.4byte	.LBI1472
 7438 123b 0300     		.2byte	.LVU387
 7439 123d 78050000 		.4byte	.Ldebug_ranges0+0x578
 7440 1241 01       		.byte	0x1
 7441 1242 F2       		.byte	0xf2
 7442 1243 05       		.byte	0x5
 7443 1244 96120000 		.4byte	0x1296
 7444 1248 1F       		.uleb128 0x1f
 7445 1249 1F0B0000 		.4byte	0xb1f
 7446 124d CC000000 		.4byte	.LBI1473
 7447 1251 0500     		.2byte	.LVU389
 7448 1253 80050000 		.4byte	.Ldebug_ranges0+0x580
 7449 1257 06       		.byte	0x6
 7450 1258 ED01     		.2byte	0x1ed
 7451 125a 03       		.byte	0x3
 7452 125b 1F       		.uleb128 0x1f
 7453 125c 330B0000 		.4byte	0xb33
 7454 1260 CC000000 		.4byte	.LBI1474
 7455 1264 0700     		.2byte	.LVU391
 7456 1266 88050000 		.4byte	.Ldebug_ranges0+0x588
 7457 126a 02       		.byte	0x2
 7458 126b 7801     		.2byte	0x178
 7459 126d 03       		.byte	0x3
 7460 126e 20       		.uleb128 0x20
 7461 126f 3D0B0000 		.4byte	0xb3d
 7462 1273 CC000000 		.4byte	.LBI1475
 7463 1277 0900     		.2byte	.LVU393
 7464 1279 CC000000 		.4byte	.LBB1475
 7465 127d 04000000 		.4byte	.LBE1475-.LBB1475
 7466 1281 03       		.byte	0x3
 7467 1282 5A02     		.2byte	0x25a
 7468 1284 03       		.byte	0x3
 7469 1285 21       		.uleb128 0x21
 7470 1286 4B0B0000 		.4byte	0xb4b
 7471 128a 30040000 		.4byte	.LLST31
 7472 128e 2E040000 		.4byte	.LVUS31
 7473 1292 00       		.byte	0
 7474 1293 00       		.byte	0
ARM GAS  /tmp/ccCget5K.s 			page 133


 7475 1294 00       		.byte	0
 7476 1295 00       		.byte	0
 7477 1296 35       		.uleb128 0x35
 7478 1297 5E0A0000 		.4byte	0xa5e
 7479 129b E6000000 		.4byte	.LBI1483
 7480 129f 0100     		.2byte	.LVU400
 7481 12a1 A0050000 		.4byte	.Ldebug_ranges0+0x5a0
 7482 12a5 01       		.byte	0x1
 7483 12a6 F2       		.byte	0xf2
 7484 12a7 05       		.byte	0x5
 7485 12a8 00130000 		.4byte	0x1300
 7486 12ac 1F       		.uleb128 0x1f
 7487 12ad F20A0000 		.4byte	0xaf2
 7488 12b1 E6000000 		.4byte	.LBI1484
 7489 12b5 0300     		.2byte	.LVU402
 7490 12b7 A8050000 		.4byte	.Ldebug_ranges0+0x5a8
 7491 12bb 06       		.byte	0x6
 7492 12bc F801     		.2byte	0x1f8
 7493 12be 03       		.byte	0x3
 7494 12bf 22       		.uleb128 0x22
 7495 12c0 A8050000 		.4byte	.Ldebug_ranges0+0x5a8
 7496 12c4 1F       		.uleb128 0x1f
 7497 12c5 290B0000 		.4byte	0xb29
 7498 12c9 E6000000 		.4byte	.LBI1486
 7499 12cd 0A00     		.2byte	.LVU409
 7500 12cf A8050000 		.4byte	.Ldebug_ranges0+0x5a8
 7501 12d3 02       		.byte	0x2
 7502 12d4 8F01     		.2byte	0x18f
 7503 12d6 03       		.byte	0x3
 7504 12d7 20       		.uleb128 0x20
 7505 12d8 3D0B0000 		.4byte	0xb3d
 7506 12dc E6000000 		.4byte	.LBI1487
 7507 12e0 0C00     		.2byte	.LVU411
 7508 12e2 E6000000 		.4byte	.LBB1487
 7509 12e6 04000000 		.4byte	.LBE1487-.LBB1487
 7510 12ea 03       		.byte	0x3
 7511 12eb 6D02     		.2byte	0x26d
 7512 12ed 03       		.byte	0x3
 7513 12ee 21       		.uleb128 0x21
 7514 12ef 4B0B0000 		.4byte	0xb4b
 7515 12f3 47040000 		.4byte	.LLST32
 7516 12f7 45040000 		.4byte	.LVUS32
 7517 12fb 00       		.byte	0
 7518 12fc 00       		.byte	0
 7519 12fd 00       		.byte	0
 7520 12fe 00       		.byte	0
 7521 12ff 00       		.byte	0
 7522 1300 35       		.uleb128 0x35
 7523 1301 720A0000 		.4byte	0xa72
 7524 1305 EA000000 		.4byte	.LBI1494
 7525 1309 0300     		.2byte	.LVU416
 7526 130b C0050000 		.4byte	.Ldebug_ranges0+0x5c0
 7527 130f 01       		.byte	0x1
 7528 1310 F3       		.byte	0xf3
 7529 1311 05       		.byte	0x5
 7530 1312 24130000 		.4byte	0x1324
 7531 1316 21       		.uleb128 0x21
ARM GAS  /tmp/ccCget5K.s 			page 134


 7532 1317 7F0A0000 		.4byte	0xa7f
 7533 131b 5D040000 		.4byte	.LLST33
 7534 131f 5B040000 		.4byte	.LVUS33
 7535 1323 00       		.byte	0
 7536 1324 35       		.uleb128 0x35
 7537 1325 1F0B0000 		.4byte	0xb1f
 7538 1329 F8000000 		.4byte	.LBI1498
 7539 132d 0100     		.2byte	.LVU427
 7540 132f D8050000 		.4byte	.Ldebug_ranges0+0x5d8
 7541 1333 01       		.byte	0x1
 7542 1334 FB       		.byte	0xfb
 7543 1335 07       		.byte	0x7
 7544 1336 74130000 		.4byte	0x1374
 7545 133a 1F       		.uleb128 0x1f
 7546 133b 330B0000 		.4byte	0xb33
 7547 133f F8000000 		.4byte	.LBI1499
 7548 1343 0300     		.2byte	.LVU429
 7549 1345 E0050000 		.4byte	.Ldebug_ranges0+0x5e0
 7550 1349 02       		.byte	0x2
 7551 134a 7801     		.2byte	0x178
 7552 134c 03       		.byte	0x3
 7553 134d 20       		.uleb128 0x20
 7554 134e 3D0B0000 		.4byte	0xb3d
 7555 1352 F8000000 		.4byte	.LBI1500
 7556 1356 0500     		.2byte	.LVU431
 7557 1358 F8000000 		.4byte	.LBB1500
 7558 135c 04000000 		.4byte	.LBE1500-.LBB1500
 7559 1360 03       		.byte	0x3
 7560 1361 5A02     		.2byte	0x25a
 7561 1363 03       		.byte	0x3
 7562 1364 21       		.uleb128 0x21
 7563 1365 4B0B0000 		.4byte	0xb4b
 7564 1369 77040000 		.4byte	.LLST34
 7565 136d 75040000 		.4byte	.LVUS34
 7566 1371 00       		.byte	0
 7567 1372 00       		.byte	0
 7568 1373 00       		.byte	0
 7569 1374 35       		.uleb128 0x35
 7570 1375 F20A0000 		.4byte	0xaf2
 7571 1379 04010000 		.4byte	.LBI1505
 7572 137d 0100     		.2byte	.LVU439
 7573 137f F8050000 		.4byte	.Ldebug_ranges0+0x5f8
 7574 1383 01       		.byte	0x1
 7575 1384 FD       		.byte	0xfd
 7576 1385 07       		.byte	0x7
 7577 1386 CA130000 		.4byte	0x13ca
 7578 138a 22       		.uleb128 0x22
 7579 138b F8050000 		.4byte	.Ldebug_ranges0+0x5f8
 7580 138f 1F       		.uleb128 0x1f
 7581 1390 290B0000 		.4byte	0xb29
 7582 1394 04010000 		.4byte	.LBI1507
 7583 1398 0800     		.2byte	.LVU446
 7584 139a F8050000 		.4byte	.Ldebug_ranges0+0x5f8
 7585 139e 02       		.byte	0x2
 7586 139f 8F01     		.2byte	0x18f
 7587 13a1 03       		.byte	0x3
 7588 13a2 20       		.uleb128 0x20
ARM GAS  /tmp/ccCget5K.s 			page 135


 7589 13a3 3D0B0000 		.4byte	0xb3d
 7590 13a7 04010000 		.4byte	.LBI1508
 7591 13ab 0A00     		.2byte	.LVU448
 7592 13ad 04010000 		.4byte	.LBB1508
 7593 13b1 06000000 		.4byte	.LBE1508-.LBB1508
 7594 13b5 03       		.byte	0x3
 7595 13b6 6D02     		.2byte	0x26d
 7596 13b8 03       		.byte	0x3
 7597 13b9 21       		.uleb128 0x21
 7598 13ba 4B0B0000 		.4byte	0xb4b
 7599 13be 8E040000 		.4byte	.LLST35
 7600 13c2 8C040000 		.4byte	.LVUS35
 7601 13c6 00       		.byte	0
 7602 13c7 00       		.byte	0
 7603 13c8 00       		.byte	0
 7604 13c9 00       		.byte	0
 7605 13ca 1E       		.uleb128 0x1e
 7606 13cb 1F0B0000 		.4byte	0xb1f
 7607 13cf 26010000 		.4byte	.LBI1513
 7608 13d3 0100     		.2byte	.LVU460
 7609 13d5 10060000 		.4byte	.Ldebug_ranges0+0x610
 7610 13d9 01       		.byte	0x1
 7611 13da 0001     		.2byte	0x100
 7612 13dc 05       		.byte	0x5
 7613 13dd 1B140000 		.4byte	0x141b
 7614 13e1 1F       		.uleb128 0x1f
 7615 13e2 330B0000 		.4byte	0xb33
 7616 13e6 26010000 		.4byte	.LBI1514
 7617 13ea 0300     		.2byte	.LVU462
 7618 13ec 18060000 		.4byte	.Ldebug_ranges0+0x618
 7619 13f0 02       		.byte	0x2
 7620 13f1 7801     		.2byte	0x178
 7621 13f3 03       		.byte	0x3
 7622 13f4 20       		.uleb128 0x20
 7623 13f5 3D0B0000 		.4byte	0xb3d
 7624 13f9 26010000 		.4byte	.LBI1515
 7625 13fd 0500     		.2byte	.LVU464
 7626 13ff 26010000 		.4byte	.LBB1515
 7627 1403 04000000 		.4byte	.LBE1515-.LBB1515
 7628 1407 03       		.byte	0x3
 7629 1408 5A02     		.2byte	0x25a
 7630 140a 03       		.byte	0x3
 7631 140b 21       		.uleb128 0x21
 7632 140c 4B0B0000 		.4byte	0xb4b
 7633 1410 A4040000 		.4byte	.LLST36
 7634 1414 A2040000 		.4byte	.LVUS36
 7635 1418 00       		.byte	0
 7636 1419 00       		.byte	0
 7637 141a 00       		.byte	0
 7638 141b 1E       		.uleb128 0x1e
 7639 141c F20A0000 		.4byte	0xaf2
 7640 1420 32010000 		.4byte	.LBI1520
 7641 1424 0100     		.2byte	.LVU472
 7642 1426 30060000 		.4byte	.Ldebug_ranges0+0x630
 7643 142a 01       		.byte	0x1
 7644 142b 0201     		.2byte	0x102
 7645 142d 05       		.byte	0x5
ARM GAS  /tmp/ccCget5K.s 			page 136


 7646 142e 72140000 		.4byte	0x1472
 7647 1432 22       		.uleb128 0x22
 7648 1433 30060000 		.4byte	.Ldebug_ranges0+0x630
 7649 1437 1F       		.uleb128 0x1f
 7650 1438 290B0000 		.4byte	0xb29
 7651 143c 32010000 		.4byte	.LBI1522
 7652 1440 0800     		.2byte	.LVU479
 7653 1442 30060000 		.4byte	.Ldebug_ranges0+0x630
 7654 1446 02       		.byte	0x2
 7655 1447 8F01     		.2byte	0x18f
 7656 1449 03       		.byte	0x3
 7657 144a 20       		.uleb128 0x20
 7658 144b 3D0B0000 		.4byte	0xb3d
 7659 144f 32010000 		.4byte	.LBI1523
 7660 1453 0A00     		.2byte	.LVU481
 7661 1455 32010000 		.4byte	.LBB1523
 7662 1459 04000000 		.4byte	.LBE1523-.LBB1523
 7663 145d 03       		.byte	0x3
 7664 145e 6D02     		.2byte	0x26d
 7665 1460 03       		.byte	0x3
 7666 1461 21       		.uleb128 0x21
 7667 1462 4B0B0000 		.4byte	0xb4b
 7668 1466 BB040000 		.4byte	.LLST37
 7669 146a B9040000 		.4byte	.LVUS37
 7670 146e 00       		.byte	0
 7671 146f 00       		.byte	0
 7672 1470 00       		.byte	0
 7673 1471 00       		.byte	0
 7674 1472 1E       		.uleb128 0x1e
 7675 1473 680A0000 		.4byte	0xa68
 7676 1477 52010000 		.4byte	.LBI1528
 7677 147b 0100     		.2byte	.LVU489
 7678 147d 48060000 		.4byte	.Ldebug_ranges0+0x648
 7679 1481 01       		.byte	0x1
 7680 1482 0A01     		.2byte	0x10a
 7681 1484 05       		.byte	0x5
 7682 1485 D7140000 		.4byte	0x14d7
 7683 1489 1F       		.uleb128 0x1f
 7684 148a 1F0B0000 		.4byte	0xb1f
 7685 148e 52010000 		.4byte	.LBI1529
 7686 1492 0300     		.2byte	.LVU491
 7687 1494 50060000 		.4byte	.Ldebug_ranges0+0x650
 7688 1498 06       		.byte	0x6
 7689 1499 ED01     		.2byte	0x1ed
 7690 149b 03       		.byte	0x3
 7691 149c 1F       		.uleb128 0x1f
 7692 149d 330B0000 		.4byte	0xb33
 7693 14a1 52010000 		.4byte	.LBI1530
 7694 14a5 0500     		.2byte	.LVU493
 7695 14a7 58060000 		.4byte	.Ldebug_ranges0+0x658
 7696 14ab 02       		.byte	0x2
 7697 14ac 7801     		.2byte	0x178
 7698 14ae 03       		.byte	0x3
 7699 14af 20       		.uleb128 0x20
 7700 14b0 3D0B0000 		.4byte	0xb3d
 7701 14b4 52010000 		.4byte	.LBI1531
 7702 14b8 0700     		.2byte	.LVU495
ARM GAS  /tmp/ccCget5K.s 			page 137


 7703 14ba 52010000 		.4byte	.LBB1531
 7704 14be 04000000 		.4byte	.LBE1531-.LBB1531
 7705 14c2 03       		.byte	0x3
 7706 14c3 5A02     		.2byte	0x25a
 7707 14c5 03       		.byte	0x3
 7708 14c6 21       		.uleb128 0x21
 7709 14c7 4B0B0000 		.4byte	0xb4b
 7710 14cb D1040000 		.4byte	.LLST38
 7711 14cf CF040000 		.4byte	.LVUS38
 7712 14d3 00       		.byte	0
 7713 14d4 00       		.byte	0
 7714 14d5 00       		.byte	0
 7715 14d6 00       		.byte	0
 7716 14d7 1E       		.uleb128 0x1e
 7717 14d8 920A0000 		.4byte	0xa92
 7718 14dc 56010000 		.4byte	.LBI1539
 7719 14e0 0400     		.2byte	.LVU501
 7720 14e2 70060000 		.4byte	.Ldebug_ranges0+0x670
 7721 14e6 01       		.byte	0x1
 7722 14e7 0A01     		.2byte	0x10a
 7723 14e9 05       		.byte	0x5
 7724 14ea 44150000 		.4byte	0x1544
 7725 14ee 21       		.uleb128 0x21
 7726 14ef A30A0000 		.4byte	0xaa3
 7727 14f3 E8040000 		.4byte	.LLST39
 7728 14f7 E6040000 		.4byte	.LVUS39
 7729 14fb 35       		.uleb128 0x35
 7730 14fc D40A0000 		.4byte	0xad4
 7731 1500 56010000 		.4byte	.LBI1540
 7732 1504 0700     		.2byte	.LVU504
 7733 1506 88060000 		.4byte	.Ldebug_ranges0+0x688
 7734 150a 05       		.byte	0x5
 7735 150b AC       		.byte	0xac
 7736 150c 0A       		.byte	0xa
 7737 150d 1F150000 		.4byte	0x151f
 7738 1511 21       		.uleb128 0x21
 7739 1512 E50A0000 		.4byte	0xae5
 7740 1516 02050000 		.4byte	.LLST40
 7741 151a 00050000 		.4byte	.LVUS40
 7742 151e 00       		.byte	0
 7743 151f 36       		.uleb128 0x36
 7744 1520 B60A0000 		.4byte	0xab6
 7745 1524 56010000 		.4byte	.LBI1543
 7746 1528 0A00     		.2byte	.LVU507
 7747 152a 56010000 		.4byte	.LBB1543
 7748 152e 00000000 		.4byte	.LBE1543-.LBB1543
 7749 1532 05       		.byte	0x5
 7750 1533 AC       		.byte	0xac
 7751 1534 1E       		.byte	0x1e
 7752 1535 21       		.uleb128 0x21
 7753 1536 C70A0000 		.4byte	0xac7
 7754 153a 1C050000 		.4byte	.LLST41
 7755 153e 1A050000 		.4byte	.LVUS41
 7756 1542 00       		.byte	0
 7757 1543 00       		.byte	0
 7758 1544 1E       		.uleb128 0x1e
 7759 1545 5E0A0000 		.4byte	0xa5e
ARM GAS  /tmp/ccCget5K.s 			page 138


 7760 1549 74010000 		.4byte	.LBI1547
 7761 154d 0100     		.2byte	.LVU514
 7762 154f A0060000 		.4byte	.Ldebug_ranges0+0x6a0
 7763 1553 01       		.byte	0x1
 7764 1554 0A01     		.2byte	0x10a
 7765 1556 05       		.byte	0x5
 7766 1557 AF150000 		.4byte	0x15af
 7767 155b 1F       		.uleb128 0x1f
 7768 155c F20A0000 		.4byte	0xaf2
 7769 1560 74010000 		.4byte	.LBI1548
 7770 1564 0300     		.2byte	.LVU516
 7771 1566 A8060000 		.4byte	.Ldebug_ranges0+0x6a8
 7772 156a 06       		.byte	0x6
 7773 156b F801     		.2byte	0x1f8
 7774 156d 03       		.byte	0x3
 7775 156e 22       		.uleb128 0x22
 7776 156f A8060000 		.4byte	.Ldebug_ranges0+0x6a8
 7777 1573 1F       		.uleb128 0x1f
 7778 1574 290B0000 		.4byte	0xb29
 7779 1578 74010000 		.4byte	.LBI1550
 7780 157c 0A00     		.2byte	.LVU523
 7781 157e A8060000 		.4byte	.Ldebug_ranges0+0x6a8
 7782 1582 02       		.byte	0x2
 7783 1583 8F01     		.2byte	0x18f
 7784 1585 03       		.byte	0x3
 7785 1586 20       		.uleb128 0x20
 7786 1587 3D0B0000 		.4byte	0xb3d
 7787 158b 74010000 		.4byte	.LBI1551
 7788 158f 0C00     		.2byte	.LVU525
 7789 1591 74010000 		.4byte	.LBB1551
 7790 1595 04000000 		.4byte	.LBE1551-.LBB1551
 7791 1599 03       		.byte	0x3
 7792 159a 6D02     		.2byte	0x26d
 7793 159c 03       		.byte	0x3
 7794 159d 21       		.uleb128 0x21
 7795 159e 4B0B0000 		.4byte	0xb4b
 7796 15a2 36050000 		.4byte	.LLST42
 7797 15a6 34050000 		.4byte	.LVUS42
 7798 15aa 00       		.byte	0
 7799 15ab 00       		.byte	0
 7800 15ac 00       		.byte	0
 7801 15ad 00       		.byte	0
 7802 15ae 00       		.byte	0
 7803 15af 1E       		.uleb128 0x1e
 7804 15b0 680A0000 		.4byte	0xa68
 7805 15b4 78010000 		.4byte	.LBI1558
 7806 15b8 0300     		.2byte	.LVU530
 7807 15ba C0060000 		.4byte	.Ldebug_ranges0+0x6c0
 7808 15be 01       		.byte	0x1
 7809 15bf 0B01     		.2byte	0x10b
 7810 15c1 05       		.byte	0x5
 7811 15c2 14160000 		.4byte	0x1614
 7812 15c6 1F       		.uleb128 0x1f
 7813 15c7 1F0B0000 		.4byte	0xb1f
 7814 15cb 78010000 		.4byte	.LBI1559
 7815 15cf 0500     		.2byte	.LVU532
 7816 15d1 C8060000 		.4byte	.Ldebug_ranges0+0x6c8
ARM GAS  /tmp/ccCget5K.s 			page 139


 7817 15d5 06       		.byte	0x6
 7818 15d6 ED01     		.2byte	0x1ed
 7819 15d8 03       		.byte	0x3
 7820 15d9 1F       		.uleb128 0x1f
 7821 15da 330B0000 		.4byte	0xb33
 7822 15de 78010000 		.4byte	.LBI1560
 7823 15e2 0700     		.2byte	.LVU534
 7824 15e4 D0060000 		.4byte	.Ldebug_ranges0+0x6d0
 7825 15e8 02       		.byte	0x2
 7826 15e9 7801     		.2byte	0x178
 7827 15eb 03       		.byte	0x3
 7828 15ec 20       		.uleb128 0x20
 7829 15ed 3D0B0000 		.4byte	0xb3d
 7830 15f1 78010000 		.4byte	.LBI1561
 7831 15f5 0900     		.2byte	.LVU536
 7832 15f7 78010000 		.4byte	.LBB1561
 7833 15fb 04000000 		.4byte	.LBE1561-.LBB1561
 7834 15ff 03       		.byte	0x3
 7835 1600 5A02     		.2byte	0x25a
 7836 1602 03       		.byte	0x3
 7837 1603 21       		.uleb128 0x21
 7838 1604 4B0B0000 		.4byte	0xb4b
 7839 1608 4C050000 		.4byte	.LLST43
 7840 160c 4A050000 		.4byte	.LVUS43
 7841 1610 00       		.byte	0
 7842 1611 00       		.byte	0
 7843 1612 00       		.byte	0
 7844 1613 00       		.byte	0
 7845 1614 3A       		.uleb128 0x3a
 7846 1615 B60A0000 		.4byte	0xab6
 7847 1619 7C010000 		.4byte	.LBI1569
 7848 161d 0400     		.2byte	.LVU542
 7849 161f 7C010000 		.4byte	.LBB1569
 7850 1623 00000000 		.4byte	.LBE1569-.LBB1569
 7851 1627 01       		.byte	0x1
 7852 1628 0B01     		.2byte	0x10b
 7853 162a 05       		.byte	0x5
 7854 162b 3D160000 		.4byte	0x163d
 7855 162f 21       		.uleb128 0x21
 7856 1630 C70A0000 		.4byte	0xac7
 7857 1634 63050000 		.4byte	.LLST44
 7858 1638 61050000 		.4byte	.LVUS44
 7859 163c 00       		.byte	0
 7860 163d 1E       		.uleb128 0x1e
 7861 163e 5E0A0000 		.4byte	0xa5e
 7862 1642 96010000 		.4byte	.LBI1571
 7863 1646 0100     		.2byte	.LVU548
 7864 1648 E8060000 		.4byte	.Ldebug_ranges0+0x6e8
 7865 164c 01       		.byte	0x1
 7866 164d 0B01     		.2byte	0x10b
 7867 164f 05       		.byte	0x5
 7868 1650 A8160000 		.4byte	0x16a8
 7869 1654 1F       		.uleb128 0x1f
 7870 1655 F20A0000 		.4byte	0xaf2
 7871 1659 96010000 		.4byte	.LBI1572
 7872 165d 0300     		.2byte	.LVU550
 7873 165f F0060000 		.4byte	.Ldebug_ranges0+0x6f0
ARM GAS  /tmp/ccCget5K.s 			page 140


 7874 1663 06       		.byte	0x6
 7875 1664 F801     		.2byte	0x1f8
 7876 1666 03       		.byte	0x3
 7877 1667 22       		.uleb128 0x22
 7878 1668 F0060000 		.4byte	.Ldebug_ranges0+0x6f0
 7879 166c 1F       		.uleb128 0x1f
 7880 166d 290B0000 		.4byte	0xb29
 7881 1671 96010000 		.4byte	.LBI1574
 7882 1675 0A00     		.2byte	.LVU557
 7883 1677 F0060000 		.4byte	.Ldebug_ranges0+0x6f0
 7884 167b 02       		.byte	0x2
 7885 167c 8F01     		.2byte	0x18f
 7886 167e 03       		.byte	0x3
 7887 167f 20       		.uleb128 0x20
 7888 1680 3D0B0000 		.4byte	0xb3d
 7889 1684 96010000 		.4byte	.LBI1575
 7890 1688 0C00     		.2byte	.LVU559
 7891 168a 96010000 		.4byte	.LBB1575
 7892 168e 04000000 		.4byte	.LBE1575-.LBB1575
 7893 1692 03       		.byte	0x3
 7894 1693 6D02     		.2byte	0x26d
 7895 1695 03       		.byte	0x3
 7896 1696 21       		.uleb128 0x21
 7897 1697 4B0B0000 		.4byte	0xb4b
 7898 169b 7D050000 		.4byte	.LLST45
 7899 169f 7B050000 		.4byte	.LVUS45
 7900 16a3 00       		.byte	0
 7901 16a4 00       		.byte	0
 7902 16a5 00       		.byte	0
 7903 16a6 00       		.byte	0
 7904 16a7 00       		.byte	0
 7905 16a8 1E       		.uleb128 0x1e
 7906 16a9 680A0000 		.4byte	0xa68
 7907 16ad 9A010000 		.4byte	.LBI1582
 7908 16b1 0300     		.2byte	.LVU564
 7909 16b3 08070000 		.4byte	.Ldebug_ranges0+0x708
 7910 16b7 01       		.byte	0x1
 7911 16b8 0C01     		.2byte	0x10c
 7912 16ba 05       		.byte	0x5
 7913 16bb 0D170000 		.4byte	0x170d
 7914 16bf 1F       		.uleb128 0x1f
 7915 16c0 1F0B0000 		.4byte	0xb1f
 7916 16c4 9A010000 		.4byte	.LBI1583
 7917 16c8 0500     		.2byte	.LVU566
 7918 16ca 10070000 		.4byte	.Ldebug_ranges0+0x710
 7919 16ce 06       		.byte	0x6
 7920 16cf ED01     		.2byte	0x1ed
 7921 16d1 03       		.byte	0x3
 7922 16d2 1F       		.uleb128 0x1f
 7923 16d3 330B0000 		.4byte	0xb33
 7924 16d7 9A010000 		.4byte	.LBI1584
 7925 16db 0700     		.2byte	.LVU568
 7926 16dd 18070000 		.4byte	.Ldebug_ranges0+0x718
 7927 16e1 02       		.byte	0x2
 7928 16e2 7801     		.2byte	0x178
 7929 16e4 03       		.byte	0x3
 7930 16e5 20       		.uleb128 0x20
ARM GAS  /tmp/ccCget5K.s 			page 141


 7931 16e6 3D0B0000 		.4byte	0xb3d
 7932 16ea 9A010000 		.4byte	.LBI1585
 7933 16ee 0900     		.2byte	.LVU570
 7934 16f0 9A010000 		.4byte	.LBB1585
 7935 16f4 04000000 		.4byte	.LBE1585-.LBB1585
 7936 16f8 03       		.byte	0x3
 7937 16f9 5A02     		.2byte	0x25a
 7938 16fb 03       		.byte	0x3
 7939 16fc 21       		.uleb128 0x21
 7940 16fd 4B0B0000 		.4byte	0xb4b
 7941 1701 93050000 		.4byte	.LLST46
 7942 1705 91050000 		.4byte	.LVUS46
 7943 1709 00       		.byte	0
 7944 170a 00       		.byte	0
 7945 170b 00       		.byte	0
 7946 170c 00       		.byte	0
 7947 170d 1E       		.uleb128 0x1e
 7948 170e 5E0A0000 		.4byte	0xa5e
 7949 1712 B6010000 		.4byte	.LBI1593
 7950 1716 0100     		.2byte	.LVU577
 7951 1718 30070000 		.4byte	.Ldebug_ranges0+0x730
 7952 171c 01       		.byte	0x1
 7953 171d 0C01     		.2byte	0x10c
 7954 171f 05       		.byte	0x5
 7955 1720 78170000 		.4byte	0x1778
 7956 1724 1F       		.uleb128 0x1f
 7957 1725 F20A0000 		.4byte	0xaf2
 7958 1729 B6010000 		.4byte	.LBI1594
 7959 172d 0300     		.2byte	.LVU579
 7960 172f 38070000 		.4byte	.Ldebug_ranges0+0x738
 7961 1733 06       		.byte	0x6
 7962 1734 F801     		.2byte	0x1f8
 7963 1736 03       		.byte	0x3
 7964 1737 22       		.uleb128 0x22
 7965 1738 38070000 		.4byte	.Ldebug_ranges0+0x738
 7966 173c 1F       		.uleb128 0x1f
 7967 173d 290B0000 		.4byte	0xb29
 7968 1741 B6010000 		.4byte	.LBI1596
 7969 1745 0A00     		.2byte	.LVU586
 7970 1747 38070000 		.4byte	.Ldebug_ranges0+0x738
 7971 174b 02       		.byte	0x2
 7972 174c 8F01     		.2byte	0x18f
 7973 174e 03       		.byte	0x3
 7974 174f 20       		.uleb128 0x20
 7975 1750 3D0B0000 		.4byte	0xb3d
 7976 1754 B6010000 		.4byte	.LBI1597
 7977 1758 0C00     		.2byte	.LVU588
 7978 175a B6010000 		.4byte	.LBB1597
 7979 175e 04000000 		.4byte	.LBE1597-.LBB1597
 7980 1762 03       		.byte	0x3
 7981 1763 6D02     		.2byte	0x26d
 7982 1765 03       		.byte	0x3
 7983 1766 21       		.uleb128 0x21
 7984 1767 4B0B0000 		.4byte	0xb4b
 7985 176b AA050000 		.4byte	.LLST47
 7986 176f A8050000 		.4byte	.LVUS47
 7987 1773 00       		.byte	0
ARM GAS  /tmp/ccCget5K.s 			page 142


 7988 1774 00       		.byte	0
 7989 1775 00       		.byte	0
 7990 1776 00       		.byte	0
 7991 1777 00       		.byte	0
 7992 1778 1E       		.uleb128 0x1e
 7993 1779 1F0B0000 		.4byte	0xb1f
 7994 177d C6010000 		.4byte	.LBI1604
 7995 1781 0200     		.2byte	.LVU601
 7996 1783 50070000 		.4byte	.Ldebug_ranges0+0x750
 7997 1787 01       		.byte	0x1
 7998 1788 1401     		.2byte	0x114
 7999 178a 07       		.byte	0x7
 8000 178b C5170000 		.4byte	0x17c5
 8001 178f 1F       		.uleb128 0x1f
 8002 1790 330B0000 		.4byte	0xb33
 8003 1794 C6010000 		.4byte	.LBI1605
 8004 1798 0400     		.2byte	.LVU603
 8005 179a 78070000 		.4byte	.Ldebug_ranges0+0x778
 8006 179e 02       		.byte	0x2
 8007 179f 7801     		.2byte	0x178
 8008 17a1 03       		.byte	0x3
 8009 17a2 1F       		.uleb128 0x1f
 8010 17a3 3D0B0000 		.4byte	0xb3d
 8011 17a7 C6010000 		.4byte	.LBI1606
 8012 17ab 0600     		.2byte	.LVU605
 8013 17ad 98070000 		.4byte	.Ldebug_ranges0+0x798
 8014 17b1 03       		.byte	0x3
 8015 17b2 5A02     		.2byte	0x25a
 8016 17b4 03       		.byte	0x3
 8017 17b5 21       		.uleb128 0x21
 8018 17b6 4B0B0000 		.4byte	0xb4b
 8019 17ba C0050000 		.4byte	.LLST48
 8020 17be BE050000 		.4byte	.LVUS48
 8021 17c2 00       		.byte	0
 8022 17c3 00       		.byte	0
 8023 17c4 00       		.byte	0
 8024 17c5 1E       		.uleb128 0x1e
 8025 17c6 F20A0000 		.4byte	0xaf2
 8026 17ca D2010000 		.4byte	.LBI1615
 8027 17ce 0100     		.2byte	.LVU613
 8028 17d0 B0070000 		.4byte	.Ldebug_ranges0+0x7b0
 8029 17d4 01       		.byte	0x1
 8030 17d5 1601     		.2byte	0x116
 8031 17d7 07       		.byte	0x7
 8032 17d8 1C180000 		.4byte	0x181c
 8033 17dc 22       		.uleb128 0x22
 8034 17dd B0070000 		.4byte	.Ldebug_ranges0+0x7b0
 8035 17e1 1F       		.uleb128 0x1f
 8036 17e2 290B0000 		.4byte	0xb29
 8037 17e6 D2010000 		.4byte	.LBI1617
 8038 17ea 0800     		.2byte	.LVU620
 8039 17ec B0070000 		.4byte	.Ldebug_ranges0+0x7b0
 8040 17f0 02       		.byte	0x2
 8041 17f1 8F01     		.2byte	0x18f
 8042 17f3 03       		.byte	0x3
 8043 17f4 20       		.uleb128 0x20
 8044 17f5 3D0B0000 		.4byte	0xb3d
ARM GAS  /tmp/ccCget5K.s 			page 143


 8045 17f9 D2010000 		.4byte	.LBI1618
 8046 17fd 0A00     		.2byte	.LVU622
 8047 17ff D2010000 		.4byte	.LBB1618
 8048 1803 06000000 		.4byte	.LBE1618-.LBB1618
 8049 1807 03       		.byte	0x3
 8050 1808 6D02     		.2byte	0x26d
 8051 180a 03       		.byte	0x3
 8052 180b 21       		.uleb128 0x21
 8053 180c 4B0B0000 		.4byte	0xb4b
 8054 1810 D7050000 		.4byte	.LLST49
 8055 1814 D5050000 		.4byte	.LVUS49
 8056 1818 00       		.byte	0
 8057 1819 00       		.byte	0
 8058 181a 00       		.byte	0
 8059 181b 00       		.byte	0
 8060 181c 1E       		.uleb128 0x1e
 8061 181d 680A0000 		.4byte	0xa68
 8062 1821 4A020000 		.4byte	.LBI1623
 8063 1825 0100     		.2byte	.LVU654
 8064 1827 C8070000 		.4byte	.Ldebug_ranges0+0x7c8
 8065 182b 01       		.byte	0x1
 8066 182c 2B01     		.2byte	0x12b
 8067 182e 05       		.byte	0x5
 8068 182f 81180000 		.4byte	0x1881
 8069 1833 1F       		.uleb128 0x1f
 8070 1834 1F0B0000 		.4byte	0xb1f
 8071 1838 4A020000 		.4byte	.LBI1624
 8072 183c 0300     		.2byte	.LVU656
 8073 183e D0070000 		.4byte	.Ldebug_ranges0+0x7d0
 8074 1842 06       		.byte	0x6
 8075 1843 ED01     		.2byte	0x1ed
 8076 1845 03       		.byte	0x3
 8077 1846 1F       		.uleb128 0x1f
 8078 1847 330B0000 		.4byte	0xb33
 8079 184b 4A020000 		.4byte	.LBI1625
 8080 184f 0500     		.2byte	.LVU658
 8081 1851 D8070000 		.4byte	.Ldebug_ranges0+0x7d8
 8082 1855 02       		.byte	0x2
 8083 1856 7801     		.2byte	0x178
 8084 1858 03       		.byte	0x3
 8085 1859 20       		.uleb128 0x20
 8086 185a 3D0B0000 		.4byte	0xb3d
 8087 185e 4A020000 		.4byte	.LBI1626
 8088 1862 0700     		.2byte	.LVU660
 8089 1864 4A020000 		.4byte	.LBB1626
 8090 1868 04000000 		.4byte	.LBE1626-.LBB1626
 8091 186c 03       		.byte	0x3
 8092 186d 5A02     		.2byte	0x25a
 8093 186f 03       		.byte	0x3
 8094 1870 21       		.uleb128 0x21
 8095 1871 4B0B0000 		.4byte	0xb4b
 8096 1875 ED050000 		.4byte	.LLST50
 8097 1879 EB050000 		.4byte	.LVUS50
 8098 187d 00       		.byte	0
 8099 187e 00       		.byte	0
 8100 187f 00       		.byte	0
 8101 1880 00       		.byte	0
ARM GAS  /tmp/ccCget5K.s 			page 144


 8102 1881 1E       		.uleb128 0x1e
 8103 1882 920A0000 		.4byte	0xa92
 8104 1886 4E020000 		.4byte	.LBI1634
 8105 188a 0400     		.2byte	.LVU666
 8106 188c F0070000 		.4byte	.Ldebug_ranges0+0x7f0
 8107 1890 01       		.byte	0x1
 8108 1891 2B01     		.2byte	0x12b
 8109 1893 05       		.byte	0x5
 8110 1894 EE180000 		.4byte	0x18ee
 8111 1898 21       		.uleb128 0x21
 8112 1899 A30A0000 		.4byte	0xaa3
 8113 189d 04060000 		.4byte	.LLST51
 8114 18a1 02060000 		.4byte	.LVUS51
 8115 18a5 35       		.uleb128 0x35
 8116 18a6 D40A0000 		.4byte	0xad4
 8117 18aa 4E020000 		.4byte	.LBI1636
 8118 18ae 0700     		.2byte	.LVU669
 8119 18b0 08080000 		.4byte	.Ldebug_ranges0+0x808
 8120 18b4 05       		.byte	0x5
 8121 18b5 AC       		.byte	0xac
 8122 18b6 0A       		.byte	0xa
 8123 18b7 C9180000 		.4byte	0x18c9
 8124 18bb 21       		.uleb128 0x21
 8125 18bc E50A0000 		.4byte	0xae5
 8126 18c0 1E060000 		.4byte	.LLST52
 8127 18c4 1C060000 		.4byte	.LVUS52
 8128 18c8 00       		.byte	0
 8129 18c9 36       		.uleb128 0x36
 8130 18ca B60A0000 		.4byte	0xab6
 8131 18ce 4E020000 		.4byte	.LBI1639
 8132 18d2 0A00     		.2byte	.LVU672
 8133 18d4 4E020000 		.4byte	.LBB1639
 8134 18d8 00000000 		.4byte	.LBE1639-.LBB1639
 8135 18dc 05       		.byte	0x5
 8136 18dd AC       		.byte	0xac
 8137 18de 1E       		.byte	0x1e
 8138 18df 21       		.uleb128 0x21
 8139 18e0 C70A0000 		.4byte	0xac7
 8140 18e4 38060000 		.4byte	.LLST53
 8141 18e8 36060000 		.4byte	.LVUS53
 8142 18ec 00       		.byte	0
 8143 18ed 00       		.byte	0
 8144 18ee 1E       		.uleb128 0x1e
 8145 18ef 5E0A0000 		.4byte	0xa5e
 8146 18f3 68020000 		.4byte	.LBI1644
 8147 18f7 0100     		.2byte	.LVU682
 8148 18f9 20080000 		.4byte	.Ldebug_ranges0+0x820
 8149 18fd 01       		.byte	0x1
 8150 18fe 2B01     		.2byte	0x12b
 8151 1900 05       		.byte	0x5
 8152 1901 59190000 		.4byte	0x1959
 8153 1905 1F       		.uleb128 0x1f
 8154 1906 F20A0000 		.4byte	0xaf2
 8155 190a 68020000 		.4byte	.LBI1645
 8156 190e 0300     		.2byte	.LVU684
 8157 1910 28080000 		.4byte	.Ldebug_ranges0+0x828
 8158 1914 06       		.byte	0x6
ARM GAS  /tmp/ccCget5K.s 			page 145


 8159 1915 F801     		.2byte	0x1f8
 8160 1917 03       		.byte	0x3
 8161 1918 22       		.uleb128 0x22
 8162 1919 28080000 		.4byte	.Ldebug_ranges0+0x828
 8163 191d 1F       		.uleb128 0x1f
 8164 191e 290B0000 		.4byte	0xb29
 8165 1922 68020000 		.4byte	.LBI1647
 8166 1926 0A00     		.2byte	.LVU691
 8167 1928 28080000 		.4byte	.Ldebug_ranges0+0x828
 8168 192c 02       		.byte	0x2
 8169 192d 8F01     		.2byte	0x18f
 8170 192f 03       		.byte	0x3
 8171 1930 20       		.uleb128 0x20
 8172 1931 3D0B0000 		.4byte	0xb3d
 8173 1935 68020000 		.4byte	.LBI1648
 8174 1939 0C00     		.2byte	.LVU693
 8175 193b 68020000 		.4byte	.LBB1648
 8176 193f 04000000 		.4byte	.LBE1648-.LBB1648
 8177 1943 03       		.byte	0x3
 8178 1944 6D02     		.2byte	0x26d
 8179 1946 03       		.byte	0x3
 8180 1947 21       		.uleb128 0x21
 8181 1948 4B0B0000 		.4byte	0xb4b
 8182 194c 52060000 		.4byte	.LLST54
 8183 1950 50060000 		.4byte	.LVUS54
 8184 1954 00       		.byte	0
 8185 1955 00       		.byte	0
 8186 1956 00       		.byte	0
 8187 1957 00       		.byte	0
 8188 1958 00       		.byte	0
 8189 1959 1E       		.uleb128 0x1e
 8190 195a 680A0000 		.4byte	0xa68
 8191 195e 6C020000 		.4byte	.LBI1655
 8192 1962 0300     		.2byte	.LVU698
 8193 1964 40080000 		.4byte	.Ldebug_ranges0+0x840
 8194 1968 01       		.byte	0x1
 8195 1969 2C01     		.2byte	0x12c
 8196 196b 05       		.byte	0x5
 8197 196c BE190000 		.4byte	0x19be
 8198 1970 1F       		.uleb128 0x1f
 8199 1971 1F0B0000 		.4byte	0xb1f
 8200 1975 6C020000 		.4byte	.LBI1656
 8201 1979 0500     		.2byte	.LVU700
 8202 197b 48080000 		.4byte	.Ldebug_ranges0+0x848
 8203 197f 06       		.byte	0x6
 8204 1980 ED01     		.2byte	0x1ed
 8205 1982 03       		.byte	0x3
 8206 1983 1F       		.uleb128 0x1f
 8207 1984 330B0000 		.4byte	0xb33
 8208 1988 6C020000 		.4byte	.LBI1657
 8209 198c 0700     		.2byte	.LVU702
 8210 198e 50080000 		.4byte	.Ldebug_ranges0+0x850
 8211 1992 02       		.byte	0x2
 8212 1993 7801     		.2byte	0x178
 8213 1995 03       		.byte	0x3
 8214 1996 20       		.uleb128 0x20
 8215 1997 3D0B0000 		.4byte	0xb3d
ARM GAS  /tmp/ccCget5K.s 			page 146


 8216 199b 6C020000 		.4byte	.LBI1658
 8217 199f 0900     		.2byte	.LVU704
 8218 19a1 6C020000 		.4byte	.LBB1658
 8219 19a5 04000000 		.4byte	.LBE1658-.LBB1658
 8220 19a9 03       		.byte	0x3
 8221 19aa 5A02     		.2byte	0x25a
 8222 19ac 03       		.byte	0x3
 8223 19ad 21       		.uleb128 0x21
 8224 19ae 4B0B0000 		.4byte	0xb4b
 8225 19b2 68060000 		.4byte	.LLST55
 8226 19b6 66060000 		.4byte	.LVUS55
 8227 19ba 00       		.byte	0
 8228 19bb 00       		.byte	0
 8229 19bc 00       		.byte	0
 8230 19bd 00       		.byte	0
 8231 19be 3A       		.uleb128 0x3a
 8232 19bf B60A0000 		.4byte	0xab6
 8233 19c3 70020000 		.4byte	.LBI1666
 8234 19c7 0400     		.2byte	.LVU710
 8235 19c9 70020000 		.4byte	.LBB1666
 8236 19cd 00000000 		.4byte	.LBE1666-.LBB1666
 8237 19d1 01       		.byte	0x1
 8238 19d2 2C01     		.2byte	0x12c
 8239 19d4 05       		.byte	0x5
 8240 19d5 E7190000 		.4byte	0x19e7
 8241 19d9 21       		.uleb128 0x21
 8242 19da C70A0000 		.4byte	0xac7
 8243 19de 7F060000 		.4byte	.LLST56
 8244 19e2 7D060000 		.4byte	.LVUS56
 8245 19e6 00       		.byte	0
 8246 19e7 1E       		.uleb128 0x1e
 8247 19e8 5E0A0000 		.4byte	0xa5e
 8248 19ec 80020000 		.4byte	.LBI1668
 8249 19f0 0100     		.2byte	.LVU716
 8250 19f2 68080000 		.4byte	.Ldebug_ranges0+0x868
 8251 19f6 01       		.byte	0x1
 8252 19f7 2C01     		.2byte	0x12c
 8253 19f9 05       		.byte	0x5
 8254 19fa 521A0000 		.4byte	0x1a52
 8255 19fe 1F       		.uleb128 0x1f
 8256 19ff F20A0000 		.4byte	0xaf2
 8257 1a03 80020000 		.4byte	.LBI1669
 8258 1a07 0300     		.2byte	.LVU718
 8259 1a09 70080000 		.4byte	.Ldebug_ranges0+0x870
 8260 1a0d 06       		.byte	0x6
 8261 1a0e F801     		.2byte	0x1f8
 8262 1a10 03       		.byte	0x3
 8263 1a11 22       		.uleb128 0x22
 8264 1a12 70080000 		.4byte	.Ldebug_ranges0+0x870
 8265 1a16 1F       		.uleb128 0x1f
 8266 1a17 290B0000 		.4byte	0xb29
 8267 1a1b 80020000 		.4byte	.LBI1671
 8268 1a1f 0A00     		.2byte	.LVU725
 8269 1a21 70080000 		.4byte	.Ldebug_ranges0+0x870
 8270 1a25 02       		.byte	0x2
 8271 1a26 8F01     		.2byte	0x18f
 8272 1a28 03       		.byte	0x3
ARM GAS  /tmp/ccCget5K.s 			page 147


 8273 1a29 20       		.uleb128 0x20
 8274 1a2a 3D0B0000 		.4byte	0xb3d
 8275 1a2e 80020000 		.4byte	.LBI1672
 8276 1a32 0C00     		.2byte	.LVU727
 8277 1a34 80020000 		.4byte	.LBB1672
 8278 1a38 04000000 		.4byte	.LBE1672-.LBB1672
 8279 1a3c 03       		.byte	0x3
 8280 1a3d 6D02     		.2byte	0x26d
 8281 1a3f 03       		.byte	0x3
 8282 1a40 21       		.uleb128 0x21
 8283 1a41 4B0B0000 		.4byte	0xb4b
 8284 1a45 99060000 		.4byte	.LLST57
 8285 1a49 97060000 		.4byte	.LVUS57
 8286 1a4d 00       		.byte	0
 8287 1a4e 00       		.byte	0
 8288 1a4f 00       		.byte	0
 8289 1a50 00       		.byte	0
 8290 1a51 00       		.byte	0
 8291 1a52 1E       		.uleb128 0x1e
 8292 1a53 5E0A0000 		.4byte	0xa5e
 8293 1a57 AC020000 		.4byte	.LBI1679
 8294 1a5b 0100     		.2byte	.LVU737
 8295 1a5d 88080000 		.4byte	.Ldebug_ranges0+0x888
 8296 1a61 01       		.byte	0x1
 8297 1a62 2C01     		.2byte	0x12c
 8298 1a64 05       		.byte	0x5
 8299 1a65 BD1A0000 		.4byte	0x1abd
 8300 1a69 1F       		.uleb128 0x1f
 8301 1a6a F20A0000 		.4byte	0xaf2
 8302 1a6e AC020000 		.4byte	.LBI1680
 8303 1a72 0300     		.2byte	.LVU739
 8304 1a74 90080000 		.4byte	.Ldebug_ranges0+0x890
 8305 1a78 06       		.byte	0x6
 8306 1a79 F801     		.2byte	0x1f8
 8307 1a7b 03       		.byte	0x3
 8308 1a7c 22       		.uleb128 0x22
 8309 1a7d 90080000 		.4byte	.Ldebug_ranges0+0x890
 8310 1a81 1F       		.uleb128 0x1f
 8311 1a82 290B0000 		.4byte	0xb29
 8312 1a86 AC020000 		.4byte	.LBI1682
 8313 1a8a 0A00     		.2byte	.LVU746
 8314 1a8c 90080000 		.4byte	.Ldebug_ranges0+0x890
 8315 1a90 02       		.byte	0x2
 8316 1a91 8F01     		.2byte	0x18f
 8317 1a93 03       		.byte	0x3
 8318 1a94 20       		.uleb128 0x20
 8319 1a95 3D0B0000 		.4byte	0xb3d
 8320 1a99 AC020000 		.4byte	.LBI1683
 8321 1a9d 0C00     		.2byte	.LVU748
 8322 1a9f AC020000 		.4byte	.LBB1683
 8323 1aa3 04000000 		.4byte	.LBE1683-.LBB1683
 8324 1aa7 03       		.byte	0x3
 8325 1aa8 6D02     		.2byte	0x26d
 8326 1aaa 03       		.byte	0x3
 8327 1aab 21       		.uleb128 0x21
 8328 1aac 4B0B0000 		.4byte	0xb4b
 8329 1ab0 AF060000 		.4byte	.LLST58
ARM GAS  /tmp/ccCget5K.s 			page 148


 8330 1ab4 AD060000 		.4byte	.LVUS58
 8331 1ab8 00       		.byte	0
 8332 1ab9 00       		.byte	0
 8333 1aba 00       		.byte	0
 8334 1abb 00       		.byte	0
 8335 1abc 00       		.byte	0
 8336 1abd 23       		.uleb128 0x23
 8337 1abe 52000000 		.4byte	.LVL52
 8338 1ac2 D92C0000 		.4byte	0x2cd9
 8339 1ac6 D11A0000 		.4byte	0x1ad1
 8340 1aca 24       		.uleb128 0x24
 8341 1acb 01       		.uleb128 0x1
 8342 1acc 50       		.byte	0x50
 8343 1acd 02       		.uleb128 0x2
 8344 1ace 74       		.byte	0x74
 8345 1acf 00       		.sleb128 0
 8346 1ad0 00       		.byte	0
 8347 1ad1 23       		.uleb128 0x23
 8348 1ad2 76000000 		.4byte	.LVL55
 8349 1ad6 792C0000 		.4byte	0x2c79
 8350 1ada E81A0000 		.4byte	0x1ae8
 8351 1ade 24       		.uleb128 0x24
 8352 1adf 01       		.uleb128 0x1
 8353 1ae0 51       		.byte	0x51
 8354 1ae1 05       		.uleb128 0x5
 8355 1ae2 03       		.byte	0x3
 8356 1ae3 0C000000 		.4byte	.LC2
 8357 1ae7 00       		.byte	0
 8358 1ae8 23       		.uleb128 0x23
 8359 1ae9 90000000 		.4byte	.LVL59
 8360 1aed 792C0000 		.4byte	0x2c79
 8361 1af1 FF1A0000 		.4byte	0x1aff
 8362 1af5 24       		.uleb128 0x24
 8363 1af6 01       		.uleb128 0x1
 8364 1af7 51       		.byte	0x51
 8365 1af8 05       		.uleb128 0x5
 8366 1af9 03       		.byte	0x3
 8367 1afa 18000000 		.4byte	.LC3
 8368 1afe 00       		.byte	0
 8369 1aff 23       		.uleb128 0x23
 8370 1b00 C2000000 		.4byte	.LVL67
 8371 1b04 792C0000 		.4byte	0x2c79
 8372 1b08 161B0000 		.4byte	0x1b16
 8373 1b0c 24       		.uleb128 0x24
 8374 1b0d 01       		.uleb128 0x1
 8375 1b0e 51       		.byte	0x51
 8376 1b0f 05       		.uleb128 0x5
 8377 1b10 03       		.byte	0x3
 8378 1b11 24000000 		.4byte	.LC4
 8379 1b15 00       		.byte	0
 8380 1b16 23       		.uleb128 0x23
 8381 1b17 E2000000 		.4byte	.LVL71
 8382 1b1b 792C0000 		.4byte	0x2c79
 8383 1b1f 2D1B0000 		.4byte	0x1b2d
 8384 1b23 24       		.uleb128 0x24
 8385 1b24 01       		.uleb128 0x1
 8386 1b25 51       		.byte	0x51
ARM GAS  /tmp/ccCget5K.s 			page 149


 8387 1b26 05       		.uleb128 0x5
 8388 1b27 03       		.byte	0x3
 8389 1b28 48000000 		.4byte	.LC5
 8390 1b2c 00       		.byte	0
 8391 1b2d 23       		.uleb128 0x23
 8392 1b2e 04010000 		.4byte	.LVL78
 8393 1b32 852C0000 		.4byte	0x2c85
 8394 1b36 471B0000 		.4byte	0x1b47
 8395 1b3a 24       		.uleb128 0x24
 8396 1b3b 01       		.uleb128 0x1
 8397 1b3c 50       		.byte	0x50
 8398 1b3d 02       		.uleb128 0x2
 8399 1b3e 74       		.byte	0x74
 8400 1b3f 00       		.sleb128 0
 8401 1b40 24       		.uleb128 0x24
 8402 1b41 01       		.uleb128 0x1
 8403 1b42 51       		.byte	0x51
 8404 1b43 02       		.uleb128 0x2
 8405 1b44 78       		.byte	0x78
 8406 1b45 00       		.sleb128 0
 8407 1b46 00       		.byte	0
 8408 1b47 23       		.uleb128 0x23
 8409 1b48 16010000 		.4byte	.LVL81
 8410 1b4c 792C0000 		.4byte	0x2c79
 8411 1b50 5B1B0000 		.4byte	0x1b5b
 8412 1b54 24       		.uleb128 0x24
 8413 1b55 01       		.uleb128 0x1
 8414 1b56 51       		.byte	0x51
 8415 1b57 02       		.uleb128 0x2
 8416 1b58 79       		.byte	0x79
 8417 1b59 00       		.sleb128 0
 8418 1b5a 00       		.byte	0
 8419 1b5b 23       		.uleb128 0x23
 8420 1b5c 32010000 		.4byte	.LVL84
 8421 1b60 9D2C0000 		.4byte	0x2c9d
 8422 1b64 751B0000 		.4byte	0x1b75
 8423 1b68 24       		.uleb128 0x24
 8424 1b69 01       		.uleb128 0x1
 8425 1b6a 50       		.byte	0x50
 8426 1b6b 02       		.uleb128 0x2
 8427 1b6c 74       		.byte	0x74
 8428 1b6d 00       		.sleb128 0
 8429 1b6e 24       		.uleb128 0x24
 8430 1b6f 01       		.uleb128 0x1
 8431 1b70 51       		.byte	0x51
 8432 1b71 02       		.uleb128 0x2
 8433 1b72 08       		.byte	0x8
 8434 1b73 41       		.byte	0x41
 8435 1b74 00       		.byte	0
 8436 1b75 23       		.uleb128 0x23
 8437 1b76 42010000 		.4byte	.LVL87
 8438 1b7a 792C0000 		.4byte	0x2c79
 8439 1b7e 891B0000 		.4byte	0x1b89
 8440 1b82 24       		.uleb128 0x24
 8441 1b83 01       		.uleb128 0x1
 8442 1b84 51       		.byte	0x51
 8443 1b85 02       		.uleb128 0x2
ARM GAS  /tmp/ccCget5K.s 			page 150


 8444 1b86 79       		.byte	0x79
 8445 1b87 00       		.sleb128 0
 8446 1b88 00       		.byte	0
 8447 1b89 23       		.uleb128 0x23
 8448 1b8a 6E010000 		.4byte	.LVL90
 8449 1b8e 792C0000 		.4byte	0x2c79
 8450 1b92 A01B0000 		.4byte	0x1ba0
 8451 1b96 24       		.uleb128 0x24
 8452 1b97 01       		.uleb128 0x1
 8453 1b98 51       		.byte	0x51
 8454 1b99 05       		.uleb128 0x5
 8455 1b9a 03       		.byte	0x3
 8456 1b9b 6C000000 		.4byte	.LC6
 8457 1b9f 00       		.byte	0
 8458 1ba0 23       		.uleb128 0x23
 8459 1ba1 8E010000 		.4byte	.LVL94
 8460 1ba5 792C0000 		.4byte	0x2c79
 8461 1ba9 B71B0000 		.4byte	0x1bb7
 8462 1bad 24       		.uleb128 0x24
 8463 1bae 01       		.uleb128 0x1
 8464 1baf 51       		.byte	0x51
 8465 1bb0 05       		.uleb128 0x5
 8466 1bb1 03       		.byte	0x3
 8467 1bb2 78000000 		.4byte	.LC7
 8468 1bb6 00       		.byte	0
 8469 1bb7 23       		.uleb128 0x23
 8470 1bb8 B0010000 		.4byte	.LVL98
 8471 1bbc 792C0000 		.4byte	0x2c79
 8472 1bc0 CE1B0000 		.4byte	0x1bce
 8473 1bc4 24       		.uleb128 0x24
 8474 1bc5 01       		.uleb128 0x1
 8475 1bc6 51       		.byte	0x51
 8476 1bc7 05       		.uleb128 0x5
 8477 1bc8 03       		.byte	0x3
 8478 1bc9 84000000 		.4byte	.LC8
 8479 1bcd 00       		.byte	0
 8480 1bce 23       		.uleb128 0x23
 8481 1bcf D2010000 		.4byte	.LVL104
 8482 1bd3 C12C0000 		.4byte	0x2cc1
 8483 1bd7 E81B0000 		.4byte	0x1be8
 8484 1bdb 24       		.uleb128 0x24
 8485 1bdc 01       		.uleb128 0x1
 8486 1bdd 50       		.byte	0x50
 8487 1bde 02       		.uleb128 0x2
 8488 1bdf 74       		.byte	0x74
 8489 1be0 00       		.sleb128 0
 8490 1be1 24       		.uleb128 0x24
 8491 1be2 01       		.uleb128 0x1
 8492 1be3 51       		.byte	0x51
 8493 1be4 02       		.uleb128 0x2
 8494 1be5 91       		.byte	0x91
 8495 1be6 5C       		.sleb128 -36
 8496 1be7 00       		.byte	0
 8497 1be8 23       		.uleb128 0x23
 8498 1be9 E4010000 		.4byte	.LVL107
 8499 1bed 792C0000 		.4byte	0x2c79
 8500 1bf1 FC1B0000 		.4byte	0x1bfc
ARM GAS  /tmp/ccCget5K.s 			page 151


 8501 1bf5 24       		.uleb128 0x24
 8502 1bf6 01       		.uleb128 0x1
 8503 1bf7 51       		.byte	0x51
 8504 1bf8 02       		.uleb128 0x2
 8505 1bf9 76       		.byte	0x76
 8506 1bfa 00       		.sleb128 0
 8507 1bfb 00       		.byte	0
 8508 1bfc 3B       		.uleb128 0x3b
 8509 1bfd F2010000 		.4byte	.LVL108
 8510 1c01 E52C0000 		.4byte	0x2ce5
 8511 1c05 23       		.uleb128 0x23
 8512 1c06 00020000 		.4byte	.LVL110
 8513 1c0a F12C0000 		.4byte	0x2cf1
 8514 1c0e 251C0000 		.4byte	0x1c25
 8515 1c12 24       		.uleb128 0x24
 8516 1c13 01       		.uleb128 0x1
 8517 1c14 50       		.byte	0x50
 8518 1c15 05       		.uleb128 0x5
 8519 1c16 03       		.byte	0x3
 8520 1c17 B0000000 		.4byte	.LC10
 8521 1c1b 24       		.uleb128 0x24
 8522 1c1c 01       		.uleb128 0x1
 8523 1c1d 51       		.byte	0x51
 8524 1c1e 05       		.uleb128 0x5
 8525 1c1f 03       		.byte	0x3
 8526 1c20 9C000000 		.4byte	.LC9
 8527 1c24 00       		.byte	0
 8528 1c25 23       		.uleb128 0x23
 8529 1c26 16020000 		.4byte	.LVL111
 8530 1c2a 6D2C0000 		.4byte	0x2c6d
 8531 1c2e 451C0000 		.4byte	0x1c45
 8532 1c32 24       		.uleb128 0x24
 8533 1c33 01       		.uleb128 0x1
 8534 1c34 50       		.byte	0x50
 8535 1c35 02       		.uleb128 0x2
 8536 1c36 74       		.byte	0x74
 8537 1c37 00       		.sleb128 0
 8538 1c38 24       		.uleb128 0x24
 8539 1c39 01       		.uleb128 0x1
 8540 1c3a 51       		.byte	0x51
 8541 1c3b 02       		.uleb128 0x2
 8542 1c3c 08       		.byte	0x8
 8543 1c3d 46       		.byte	0x46
 8544 1c3e 24       		.uleb128 0x24
 8545 1c3f 01       		.uleb128 0x1
 8546 1c40 52       		.byte	0x52
 8547 1c41 02       		.uleb128 0x2
 8548 1c42 09       		.byte	0x9
 8549 1c43 FF       		.byte	0xff
 8550 1c44 00       		.byte	0
 8551 1c45 23       		.uleb128 0x23
 8552 1c46 22020000 		.4byte	.LVL113
 8553 1c4a 792C0000 		.4byte	0x2c79
 8554 1c4e 591C0000 		.4byte	0x1c59
 8555 1c52 24       		.uleb128 0x24
 8556 1c53 01       		.uleb128 0x1
 8557 1c54 51       		.byte	0x51
ARM GAS  /tmp/ccCget5K.s 			page 152


 8558 1c55 02       		.uleb128 0x2
 8559 1c56 76       		.byte	0x76
 8560 1c57 00       		.sleb128 0
 8561 1c58 00       		.byte	0
 8562 1c59 23       		.uleb128 0x23
 8563 1c5a 34020000 		.4byte	.LVL114
 8564 1c5e B52C0000 		.4byte	0x2cb5
 8565 1c62 791C0000 		.4byte	0x1c79
 8566 1c66 24       		.uleb128 0x24
 8567 1c67 01       		.uleb128 0x1
 8568 1c68 50       		.byte	0x50
 8569 1c69 02       		.uleb128 0x2
 8570 1c6a 74       		.byte	0x74
 8571 1c6b 00       		.sleb128 0
 8572 1c6c 24       		.uleb128 0x24
 8573 1c6d 01       		.uleb128 0x1
 8574 1c6e 51       		.byte	0x51
 8575 1c6f 02       		.uleb128 0x2
 8576 1c70 91       		.byte	0x91
 8577 1c71 5C       		.sleb128 -36
 8578 1c72 24       		.uleb128 0x24
 8579 1c73 01       		.uleb128 0x1
 8580 1c74 52       		.byte	0x52
 8581 1c75 02       		.uleb128 0x2
 8582 1c76 09       		.byte	0x9
 8583 1c77 FF       		.byte	0xff
 8584 1c78 00       		.byte	0
 8585 1c79 23       		.uleb128 0x23
 8586 1c7a 40020000 		.4byte	.LVL116
 8587 1c7e 792C0000 		.4byte	0x2c79
 8588 1c82 8D1C0000 		.4byte	0x1c8d
 8589 1c86 24       		.uleb128 0x24
 8590 1c87 01       		.uleb128 0x1
 8591 1c88 51       		.byte	0x51
 8592 1c89 02       		.uleb128 0x2
 8593 1c8a 76       		.byte	0x76
 8594 1c8b 00       		.sleb128 0
 8595 1c8c 00       		.byte	0
 8596 1c8d 23       		.uleb128 0x23
 8597 1c8e 66020000 		.4byte	.LVL119
 8598 1c92 792C0000 		.4byte	0x2c79
 8599 1c96 AC1C0000 		.4byte	0x1cac
 8600 1c9a 24       		.uleb128 0x24
 8601 1c9b 01       		.uleb128 0x1
 8602 1c9c 50       		.byte	0x50
 8603 1c9d 04       		.uleb128 0x4
 8604 1c9e 76       		.byte	0x76
 8605 1c9f 00       		.sleb128 0
 8606 1ca0 30       		.byte	0x30
 8607 1ca1 29       		.byte	0x29
 8608 1ca2 24       		.uleb128 0x24
 8609 1ca3 01       		.uleb128 0x1
 8610 1ca4 51       		.byte	0x51
 8611 1ca5 05       		.uleb128 0x5
 8612 1ca6 03       		.byte	0x3
 8613 1ca7 0C000000 		.4byte	.LC2
 8614 1cab 00       		.byte	0
ARM GAS  /tmp/ccCget5K.s 			page 153


 8615 1cac 23       		.uleb128 0x23
 8616 1cad 7E020000 		.4byte	.LVL123
 8617 1cb1 792C0000 		.4byte	0x2c79
 8618 1cb5 C31C0000 		.4byte	0x1cc3
 8619 1cb9 24       		.uleb128 0x24
 8620 1cba 01       		.uleb128 0x1
 8621 1cbb 51       		.byte	0x51
 8622 1cbc 05       		.uleb128 0x5
 8623 1cbd 03       		.byte	0x3
 8624 1cbe 18000000 		.4byte	.LC3
 8625 1cc2 00       		.byte	0
 8626 1cc3 23       		.uleb128 0x23
 8627 1cc4 94020000 		.4byte	.LVL126
 8628 1cc8 792C0000 		.4byte	0x2c79
 8629 1ccc DA1C0000 		.4byte	0x1cda
 8630 1cd0 24       		.uleb128 0x24
 8631 1cd1 01       		.uleb128 0x1
 8632 1cd2 51       		.byte	0x51
 8633 1cd3 05       		.uleb128 0x5
 8634 1cd4 03       		.byte	0x3
 8635 1cd5 24000000 		.4byte	.LC4
 8636 1cd9 00       		.byte	0
 8637 1cda 25       		.uleb128 0x25
 8638 1cdb AA020000 		.4byte	.LVL127
 8639 1cdf 792C0000 		.4byte	0x2c79
 8640 1ce3 24       		.uleb128 0x24
 8641 1ce4 01       		.uleb128 0x1
 8642 1ce5 51       		.byte	0x51
 8643 1ce6 05       		.uleb128 0x5
 8644 1ce7 03       		.byte	0x3
 8645 1ce8 48000000 		.4byte	.LC5
 8646 1cec 00       		.byte	0
 8647 1ced 00       		.byte	0
 8648 1cee 00       		.byte	0
 8649 1cef 25       		.uleb128 0x25
 8650 1cf0 30000000 		.4byte	.LVL45
 8651 1cf4 792C0000 		.4byte	0x2c79
 8652 1cf8 24       		.uleb128 0x24
 8653 1cf9 01       		.uleb128 0x1
 8654 1cfa 51       		.byte	0x51
 8655 1cfb 05       		.uleb128 0x5
 8656 1cfc 03       		.byte	0x3
 8657 1cfd 00000000 		.4byte	.LC1
 8658 1d01 00       		.byte	0
 8659 1d02 00       		.byte	0
 8660 1d03 32       		.uleb128 0x32
 8661 1d04 1C0A0000 		.4byte	0xa1c
 8662 1d08 00000000 		.4byte	.LFB279
 8663 1d0c 38030000 		.4byte	.LFE279-.LFB279
 8664 1d10 01       		.uleb128 0x1
 8665 1d11 9C       		.byte	0x9c
 8666 1d12 6D2C0000 		.4byte	0x2c6d
 8667 1d16 34       		.uleb128 0x34
 8668 1d17 290A0000 		.4byte	0xa29
 8669 1d1b 34       		.uleb128 0x34
 8670 1d1c 350A0000 		.4byte	0xa35
 8671 1d20 34       		.uleb128 0x34
ARM GAS  /tmp/ccCget5K.s 			page 154


 8672 1d21 410A0000 		.4byte	0xa41
 8673 1d25 35       		.uleb128 0x35
 8674 1d26 680A0000 		.4byte	0xa68
 8675 1d2a 0C000000 		.4byte	.LBI2073
 8676 1d2e 0100     		.2byte	.LVU761
 8677 1d30 A8080000 		.4byte	.Ldebug_ranges0+0x8a8
 8678 1d34 01       		.byte	0x1
 8679 1d35 66       		.byte	0x66
 8680 1d36 05       		.byte	0x5
 8681 1d37 891D0000 		.4byte	0x1d89
 8682 1d3b 1F       		.uleb128 0x1f
 8683 1d3c 1F0B0000 		.4byte	0xb1f
 8684 1d40 0C000000 		.4byte	.LBI2074
 8685 1d44 0300     		.2byte	.LVU763
 8686 1d46 B0080000 		.4byte	.Ldebug_ranges0+0x8b0
 8687 1d4a 06       		.byte	0x6
 8688 1d4b ED01     		.2byte	0x1ed
 8689 1d4d 03       		.byte	0x3
 8690 1d4e 1F       		.uleb128 0x1f
 8691 1d4f 330B0000 		.4byte	0xb33
 8692 1d53 0C000000 		.4byte	.LBI2075
 8693 1d57 0500     		.2byte	.LVU765
 8694 1d59 B8080000 		.4byte	.Ldebug_ranges0+0x8b8
 8695 1d5d 02       		.byte	0x2
 8696 1d5e 7801     		.2byte	0x178
 8697 1d60 03       		.byte	0x3
 8698 1d61 20       		.uleb128 0x20
 8699 1d62 3D0B0000 		.4byte	0xb3d
 8700 1d66 0C000000 		.4byte	.LBI2076
 8701 1d6a 0700     		.2byte	.LVU767
 8702 1d6c 0C000000 		.4byte	.LBB2076
 8703 1d70 06000000 		.4byte	.LBE2076-.LBB2076
 8704 1d74 03       		.byte	0x3
 8705 1d75 5A02     		.2byte	0x25a
 8706 1d77 03       		.byte	0x3
 8707 1d78 21       		.uleb128 0x21
 8708 1d79 4B0B0000 		.4byte	0xb4b
 8709 1d7d C5060000 		.4byte	.LLST59
 8710 1d81 C3060000 		.4byte	.LVUS59
 8711 1d85 00       		.byte	0
 8712 1d86 00       		.byte	0
 8713 1d87 00       		.byte	0
 8714 1d88 00       		.byte	0
 8715 1d89 35       		.uleb128 0x35
 8716 1d8a 920A0000 		.4byte	0xa92
 8717 1d8e 12000000 		.4byte	.LBI2084
 8718 1d92 0400     		.2byte	.LVU773
 8719 1d94 D0080000 		.4byte	.Ldebug_ranges0+0x8d0
 8720 1d98 01       		.byte	0x1
 8721 1d99 66       		.byte	0x66
 8722 1d9a 05       		.byte	0x5
 8723 1d9b F51D0000 		.4byte	0x1df5
 8724 1d9f 21       		.uleb128 0x21
 8725 1da0 A30A0000 		.4byte	0xaa3
 8726 1da4 DC060000 		.4byte	.LLST60
 8727 1da8 DA060000 		.4byte	.LVUS60
 8728 1dac 35       		.uleb128 0x35
ARM GAS  /tmp/ccCget5K.s 			page 155


 8729 1dad D40A0000 		.4byte	0xad4
 8730 1db1 12000000 		.4byte	.LBI2086
 8731 1db5 0700     		.2byte	.LVU776
 8732 1db7 E8080000 		.4byte	.Ldebug_ranges0+0x8e8
 8733 1dbb 05       		.byte	0x5
 8734 1dbc AC       		.byte	0xac
 8735 1dbd 0A       		.byte	0xa
 8736 1dbe D01D0000 		.4byte	0x1dd0
 8737 1dc2 21       		.uleb128 0x21
 8738 1dc3 E50A0000 		.4byte	0xae5
 8739 1dc7 F6060000 		.4byte	.LLST61
 8740 1dcb F4060000 		.4byte	.LVUS61
 8741 1dcf 00       		.byte	0
 8742 1dd0 36       		.uleb128 0x36
 8743 1dd1 B60A0000 		.4byte	0xab6
 8744 1dd5 12000000 		.4byte	.LBI2090
 8745 1dd9 0A00     		.2byte	.LVU779
 8746 1ddb 12000000 		.4byte	.LBB2090
 8747 1ddf 00000000 		.4byte	.LBE2090-.LBB2090
 8748 1de3 05       		.byte	0x5
 8749 1de4 AC       		.byte	0xac
 8750 1de5 1E       		.byte	0x1e
 8751 1de6 21       		.uleb128 0x21
 8752 1de7 C70A0000 		.4byte	0xac7
 8753 1deb 10070000 		.4byte	.LLST62
 8754 1def 0E070000 		.4byte	.LVUS62
 8755 1df3 00       		.byte	0
 8756 1df4 00       		.byte	0
 8757 1df5 35       		.uleb128 0x35
 8758 1df6 5E0A0000 		.4byte	0xa5e
 8759 1dfa 32000000 		.4byte	.LBI2096
 8760 1dfe 0100     		.2byte	.LVU789
 8761 1e00 08090000 		.4byte	.Ldebug_ranges0+0x908
 8762 1e04 01       		.byte	0x1
 8763 1e05 66       		.byte	0x66
 8764 1e06 05       		.byte	0x5
 8765 1e07 5F1E0000 		.4byte	0x1e5f
 8766 1e0b 1F       		.uleb128 0x1f
 8767 1e0c F20A0000 		.4byte	0xaf2
 8768 1e10 32000000 		.4byte	.LBI2097
 8769 1e14 0300     		.2byte	.LVU791
 8770 1e16 10090000 		.4byte	.Ldebug_ranges0+0x910
 8771 1e1a 06       		.byte	0x6
 8772 1e1b F801     		.2byte	0x1f8
 8773 1e1d 03       		.byte	0x3
 8774 1e1e 22       		.uleb128 0x22
 8775 1e1f 10090000 		.4byte	.Ldebug_ranges0+0x910
 8776 1e23 1F       		.uleb128 0x1f
 8777 1e24 290B0000 		.4byte	0xb29
 8778 1e28 32000000 		.4byte	.LBI2099
 8779 1e2c 0A00     		.2byte	.LVU798
 8780 1e2e 10090000 		.4byte	.Ldebug_ranges0+0x910
 8781 1e32 02       		.byte	0x2
 8782 1e33 8F01     		.2byte	0x18f
 8783 1e35 03       		.byte	0x3
 8784 1e36 20       		.uleb128 0x20
 8785 1e37 3D0B0000 		.4byte	0xb3d
ARM GAS  /tmp/ccCget5K.s 			page 156


 8786 1e3b 32000000 		.4byte	.LBI2100
 8787 1e3f 0C00     		.2byte	.LVU800
 8788 1e41 32000000 		.4byte	.LBB2100
 8789 1e45 06000000 		.4byte	.LBE2100-.LBB2100
 8790 1e49 03       		.byte	0x3
 8791 1e4a 6D02     		.2byte	0x26d
 8792 1e4c 03       		.byte	0x3
 8793 1e4d 21       		.uleb128 0x21
 8794 1e4e 4B0B0000 		.4byte	0xb4b
 8795 1e52 2A070000 		.4byte	.LLST63
 8796 1e56 28070000 		.4byte	.LVUS63
 8797 1e5a 00       		.byte	0
 8798 1e5b 00       		.byte	0
 8799 1e5c 00       		.byte	0
 8800 1e5d 00       		.byte	0
 8801 1e5e 00       		.byte	0
 8802 1e5f 35       		.uleb128 0x35
 8803 1e60 1C0A0000 		.4byte	0xa1c
 8804 1e64 3E000000 		.4byte	.LBI2107
 8805 1e68 0000     		.2byte	.LVU805
 8806 1e6a 28090000 		.4byte	.Ldebug_ranges0+0x928
 8807 1e6e 01       		.byte	0x1
 8808 1e6f 5F       		.byte	0x5f
 8809 1e70 0D       		.byte	0xd
 8810 1e71 592C0000 		.4byte	0x2c59
 8811 1e75 22       		.uleb128 0x22
 8812 1e76 28090000 		.4byte	.Ldebug_ranges0+0x928
 8813 1e7a 37       		.uleb128 0x37
 8814 1e7b 290A0000 		.4byte	0xa29
 8815 1e7f 54070000 		.4byte	.LLST64
 8816 1e83 3E070000 		.4byte	.LVUS64
 8817 1e87 38       		.uleb128 0x38
 8818 1e88 350A0000 		.4byte	0xa35
 8819 1e8c 02       		.uleb128 0x2
 8820 1e8d 91       		.byte	0x91
 8821 1e8e 64       		.sleb128 -28
 8822 1e8f 37       		.uleb128 0x37
 8823 1e90 410A0000 		.4byte	0xa41
 8824 1e94 E9070000 		.4byte	.LLST65
 8825 1e98 DB070000 		.4byte	.LVUS65
 8826 1e9c 35       		.uleb128 0x35
 8827 1e9d 5E0A0000 		.4byte	0xa5e
 8828 1ea1 3E000000 		.4byte	.LBI2109
 8829 1ea5 0200     		.2byte	.LVU807
 8830 1ea7 400B0000 		.4byte	.Ldebug_ranges0+0xb40
 8831 1eab 01       		.byte	0x1
 8832 1eac 66       		.byte	0x66
 8833 1ead 05       		.byte	0x5
 8834 1eae 061F0000 		.4byte	0x1f06
 8835 1eb2 1F       		.uleb128 0x1f
 8836 1eb3 F20A0000 		.4byte	0xaf2
 8837 1eb7 3E000000 		.4byte	.LBI2110
 8838 1ebb 0400     		.2byte	.LVU809
 8839 1ebd 480B0000 		.4byte	.Ldebug_ranges0+0xb48
 8840 1ec1 06       		.byte	0x6
 8841 1ec2 F801     		.2byte	0x1f8
 8842 1ec4 03       		.byte	0x3
ARM GAS  /tmp/ccCget5K.s 			page 157


 8843 1ec5 22       		.uleb128 0x22
 8844 1ec6 480B0000 		.4byte	.Ldebug_ranges0+0xb48
 8845 1eca 1F       		.uleb128 0x1f
 8846 1ecb 290B0000 		.4byte	0xb29
 8847 1ecf 3E000000 		.4byte	.LBI2112
 8848 1ed3 0B00     		.2byte	.LVU816
 8849 1ed5 480B0000 		.4byte	.Ldebug_ranges0+0xb48
 8850 1ed9 02       		.byte	0x2
 8851 1eda 8F01     		.2byte	0x18f
 8852 1edc 03       		.byte	0x3
 8853 1edd 20       		.uleb128 0x20
 8854 1ede 3D0B0000 		.4byte	0xb3d
 8855 1ee2 3E000000 		.4byte	.LBI2113
 8856 1ee6 0D00     		.2byte	.LVU818
 8857 1ee8 3E000000 		.4byte	.LBB2113
 8858 1eec 06000000 		.4byte	.LBE2113-.LBB2113
 8859 1ef0 03       		.byte	0x3
 8860 1ef1 6D02     		.2byte	0x26d
 8861 1ef3 03       		.byte	0x3
 8862 1ef4 21       		.uleb128 0x21
 8863 1ef5 4B0B0000 		.4byte	0xb4b
 8864 1ef9 54080000 		.4byte	.LLST66
 8865 1efd 52080000 		.4byte	.LVUS66
 8866 1f01 00       		.byte	0
 8867 1f02 00       		.byte	0
 8868 1f03 00       		.byte	0
 8869 1f04 00       		.byte	0
 8870 1f05 00       		.byte	0
 8871 1f06 35       		.uleb128 0x35
 8872 1f07 680A0000 		.4byte	0xa68
 8873 1f0b 4E000000 		.4byte	.LBI2120
 8874 1f0f 0100     		.2byte	.LVU827
 8875 1f11 600B0000 		.4byte	.Ldebug_ranges0+0xb60
 8876 1f15 01       		.byte	0x1
 8877 1f16 6E       		.byte	0x6e
 8878 1f17 05       		.byte	0x5
 8879 1f18 6A1F0000 		.4byte	0x1f6a
 8880 1f1c 1F       		.uleb128 0x1f
 8881 1f1d 1F0B0000 		.4byte	0xb1f
 8882 1f21 4E000000 		.4byte	.LBI2121
 8883 1f25 0300     		.2byte	.LVU829
 8884 1f27 680B0000 		.4byte	.Ldebug_ranges0+0xb68
 8885 1f2b 06       		.byte	0x6
 8886 1f2c ED01     		.2byte	0x1ed
 8887 1f2e 03       		.byte	0x3
 8888 1f2f 1F       		.uleb128 0x1f
 8889 1f30 330B0000 		.4byte	0xb33
 8890 1f34 4E000000 		.4byte	.LBI2122
 8891 1f38 0500     		.2byte	.LVU831
 8892 1f3a 700B0000 		.4byte	.Ldebug_ranges0+0xb70
 8893 1f3e 02       		.byte	0x2
 8894 1f3f 7801     		.2byte	0x178
 8895 1f41 03       		.byte	0x3
 8896 1f42 20       		.uleb128 0x20
 8897 1f43 3D0B0000 		.4byte	0xb3d
 8898 1f47 4E000000 		.4byte	.LBI2123
 8899 1f4b 0700     		.2byte	.LVU833
ARM GAS  /tmp/ccCget5K.s 			page 158


 8900 1f4d 4E000000 		.4byte	.LBB2123
 8901 1f51 04000000 		.4byte	.LBE2123-.LBB2123
 8902 1f55 03       		.byte	0x3
 8903 1f56 5A02     		.2byte	0x25a
 8904 1f58 03       		.byte	0x3
 8905 1f59 21       		.uleb128 0x21
 8906 1f5a 4B0B0000 		.4byte	0xb4b
 8907 1f5e 6A080000 		.4byte	.LLST67
 8908 1f62 68080000 		.4byte	.LVUS67
 8909 1f66 00       		.byte	0
 8910 1f67 00       		.byte	0
 8911 1f68 00       		.byte	0
 8912 1f69 00       		.byte	0
 8913 1f6a 35       		.uleb128 0x35
 8914 1f6b 920A0000 		.4byte	0xa92
 8915 1f6f 52000000 		.4byte	.LBI2131
 8916 1f73 0400     		.2byte	.LVU839
 8917 1f75 880B0000 		.4byte	.Ldebug_ranges0+0xb88
 8918 1f79 01       		.byte	0x1
 8919 1f7a 6E       		.byte	0x6e
 8920 1f7b 05       		.byte	0x5
 8921 1f7c D61F0000 		.4byte	0x1fd6
 8922 1f80 21       		.uleb128 0x21
 8923 1f81 A30A0000 		.4byte	0xaa3
 8924 1f85 81080000 		.4byte	.LLST68
 8925 1f89 7F080000 		.4byte	.LVUS68
 8926 1f8d 35       		.uleb128 0x35
 8927 1f8e D40A0000 		.4byte	0xad4
 8928 1f92 52000000 		.4byte	.LBI2133
 8929 1f96 0700     		.2byte	.LVU842
 8930 1f98 A00B0000 		.4byte	.Ldebug_ranges0+0xba0
 8931 1f9c 05       		.byte	0x5
 8932 1f9d AC       		.byte	0xac
 8933 1f9e 0A       		.byte	0xa
 8934 1f9f B11F0000 		.4byte	0x1fb1
 8935 1fa3 21       		.uleb128 0x21
 8936 1fa4 E50A0000 		.4byte	0xae5
 8937 1fa8 9B080000 		.4byte	.LLST69
 8938 1fac 99080000 		.4byte	.LVUS69
 8939 1fb0 00       		.byte	0
 8940 1fb1 36       		.uleb128 0x36
 8941 1fb2 B60A0000 		.4byte	0xab6
 8942 1fb6 52000000 		.4byte	.LBI2136
 8943 1fba 0A00     		.2byte	.LVU845
 8944 1fbc 52000000 		.4byte	.LBB2136
 8945 1fc0 00000000 		.4byte	.LBE2136-.LBB2136
 8946 1fc4 05       		.byte	0x5
 8947 1fc5 AC       		.byte	0xac
 8948 1fc6 1E       		.byte	0x1e
 8949 1fc7 21       		.uleb128 0x21
 8950 1fc8 C70A0000 		.4byte	0xac7
 8951 1fcc B5080000 		.4byte	.LLST70
 8952 1fd0 B3080000 		.4byte	.LVUS70
 8953 1fd4 00       		.byte	0
 8954 1fd5 00       		.byte	0
 8955 1fd6 35       		.uleb128 0x35
 8956 1fd7 5E0A0000 		.4byte	0xa5e
ARM GAS  /tmp/ccCget5K.s 			page 159


 8957 1fdb 72000000 		.4byte	.LBI2141
 8958 1fdf 0100     		.2byte	.LVU855
 8959 1fe1 B80B0000 		.4byte	.Ldebug_ranges0+0xbb8
 8960 1fe5 01       		.byte	0x1
 8961 1fe6 6E       		.byte	0x6e
 8962 1fe7 05       		.byte	0x5
 8963 1fe8 40200000 		.4byte	0x2040
 8964 1fec 1F       		.uleb128 0x1f
 8965 1fed F20A0000 		.4byte	0xaf2
 8966 1ff1 72000000 		.4byte	.LBI2142
 8967 1ff5 0300     		.2byte	.LVU857
 8968 1ff7 C00B0000 		.4byte	.Ldebug_ranges0+0xbc0
 8969 1ffb 06       		.byte	0x6
 8970 1ffc F801     		.2byte	0x1f8
 8971 1ffe 03       		.byte	0x3
 8972 1fff 22       		.uleb128 0x22
 8973 2000 C00B0000 		.4byte	.Ldebug_ranges0+0xbc0
 8974 2004 1F       		.uleb128 0x1f
 8975 2005 290B0000 		.4byte	0xb29
 8976 2009 72000000 		.4byte	.LBI2144
 8977 200d 0A00     		.2byte	.LVU864
 8978 200f C00B0000 		.4byte	.Ldebug_ranges0+0xbc0
 8979 2013 02       		.byte	0x2
 8980 2014 8F01     		.2byte	0x18f
 8981 2016 03       		.byte	0x3
 8982 2017 20       		.uleb128 0x20
 8983 2018 3D0B0000 		.4byte	0xb3d
 8984 201c 72000000 		.4byte	.LBI2145
 8985 2020 0C00     		.2byte	.LVU866
 8986 2022 72000000 		.4byte	.LBB2145
 8987 2026 04000000 		.4byte	.LBE2145-.LBB2145
 8988 202a 03       		.byte	0x3
 8989 202b 6D02     		.2byte	0x26d
 8990 202d 03       		.byte	0x3
 8991 202e 21       		.uleb128 0x21
 8992 202f 4B0B0000 		.4byte	0xb4b
 8993 2033 CF080000 		.4byte	.LLST71
 8994 2037 CD080000 		.4byte	.LVUS71
 8995 203b 00       		.byte	0
 8996 203c 00       		.byte	0
 8997 203d 00       		.byte	0
 8998 203e 00       		.byte	0
 8999 203f 00       		.byte	0
 9000 2040 35       		.uleb128 0x35
 9001 2041 680A0000 		.4byte	0xa68
 9002 2045 76000000 		.4byte	.LBI2152
 9003 2049 0300     		.2byte	.LVU871
 9004 204b D80B0000 		.4byte	.Ldebug_ranges0+0xbd8
 9005 204f 01       		.byte	0x1
 9006 2050 6F       		.byte	0x6f
 9007 2051 05       		.byte	0x5
 9008 2052 A4200000 		.4byte	0x20a4
 9009 2056 1F       		.uleb128 0x1f
 9010 2057 1F0B0000 		.4byte	0xb1f
 9011 205b 76000000 		.4byte	.LBI2153
 9012 205f 0500     		.2byte	.LVU873
 9013 2061 E00B0000 		.4byte	.Ldebug_ranges0+0xbe0
ARM GAS  /tmp/ccCget5K.s 			page 160


 9014 2065 06       		.byte	0x6
 9015 2066 ED01     		.2byte	0x1ed
 9016 2068 03       		.byte	0x3
 9017 2069 1F       		.uleb128 0x1f
 9018 206a 330B0000 		.4byte	0xb33
 9019 206e 76000000 		.4byte	.LBI2154
 9020 2072 0700     		.2byte	.LVU875
 9021 2074 E80B0000 		.4byte	.Ldebug_ranges0+0xbe8
 9022 2078 02       		.byte	0x2
 9023 2079 7801     		.2byte	0x178
 9024 207b 03       		.byte	0x3
 9025 207c 20       		.uleb128 0x20
 9026 207d 3D0B0000 		.4byte	0xb3d
 9027 2081 76000000 		.4byte	.LBI2155
 9028 2085 0900     		.2byte	.LVU877
 9029 2087 76000000 		.4byte	.LBB2155
 9030 208b 04000000 		.4byte	.LBE2155-.LBB2155
 9031 208f 03       		.byte	0x3
 9032 2090 5A02     		.2byte	0x25a
 9033 2092 03       		.byte	0x3
 9034 2093 21       		.uleb128 0x21
 9035 2094 4B0B0000 		.4byte	0xb4b
 9036 2098 E5080000 		.4byte	.LLST72
 9037 209c E3080000 		.4byte	.LVUS72
 9038 20a0 00       		.byte	0
 9039 20a1 00       		.byte	0
 9040 20a2 00       		.byte	0
 9041 20a3 00       		.byte	0
 9042 20a4 39       		.uleb128 0x39
 9043 20a5 B60A0000 		.4byte	0xab6
 9044 20a9 7A000000 		.4byte	.LBI2163
 9045 20ad 0400     		.2byte	.LVU883
 9046 20af 7A000000 		.4byte	.LBB2163
 9047 20b3 00000000 		.4byte	.LBE2163-.LBB2163
 9048 20b7 01       		.byte	0x1
 9049 20b8 6F       		.byte	0x6f
 9050 20b9 05       		.byte	0x5
 9051 20ba CC200000 		.4byte	0x20cc
 9052 20be 21       		.uleb128 0x21
 9053 20bf C70A0000 		.4byte	0xac7
 9054 20c3 FC080000 		.4byte	.LLST73
 9055 20c7 FA080000 		.4byte	.LVUS73
 9056 20cb 00       		.byte	0
 9057 20cc 35       		.uleb128 0x35
 9058 20cd 5E0A0000 		.4byte	0xa5e
 9059 20d1 8C000000 		.4byte	.LBI2165
 9060 20d5 0100     		.2byte	.LVU889
 9061 20d7 000C0000 		.4byte	.Ldebug_ranges0+0xc00
 9062 20db 01       		.byte	0x1
 9063 20dc 71       		.byte	0x71
 9064 20dd 05       		.byte	0x5
 9065 20de 36210000 		.4byte	0x2136
 9066 20e2 1F       		.uleb128 0x1f
 9067 20e3 F20A0000 		.4byte	0xaf2
 9068 20e7 8C000000 		.4byte	.LBI2166
 9069 20eb 0300     		.2byte	.LVU891
 9070 20ed 080C0000 		.4byte	.Ldebug_ranges0+0xc08
ARM GAS  /tmp/ccCget5K.s 			page 161


 9071 20f1 06       		.byte	0x6
 9072 20f2 F801     		.2byte	0x1f8
 9073 20f4 03       		.byte	0x3
 9074 20f5 22       		.uleb128 0x22
 9075 20f6 080C0000 		.4byte	.Ldebug_ranges0+0xc08
 9076 20fa 1F       		.uleb128 0x1f
 9077 20fb 290B0000 		.4byte	0xb29
 9078 20ff 8C000000 		.4byte	.LBI2168
 9079 2103 0A00     		.2byte	.LVU898
 9080 2105 080C0000 		.4byte	.Ldebug_ranges0+0xc08
 9081 2109 02       		.byte	0x2
 9082 210a 8F01     		.2byte	0x18f
 9083 210c 03       		.byte	0x3
 9084 210d 20       		.uleb128 0x20
 9085 210e 3D0B0000 		.4byte	0xb3d
 9086 2112 8C000000 		.4byte	.LBI2169
 9087 2116 0C00     		.2byte	.LVU900
 9088 2118 8C000000 		.4byte	.LBB2169
 9089 211c 04000000 		.4byte	.LBE2169-.LBB2169
 9090 2120 03       		.byte	0x3
 9091 2121 6D02     		.2byte	0x26d
 9092 2123 03       		.byte	0x3
 9093 2124 21       		.uleb128 0x21
 9094 2125 4B0B0000 		.4byte	0xb4b
 9095 2129 16090000 		.4byte	.LLST74
 9096 212d 14090000 		.4byte	.LVUS74
 9097 2131 00       		.byte	0
 9098 2132 00       		.byte	0
 9099 2133 00       		.byte	0
 9100 2134 00       		.byte	0
 9101 2135 00       		.byte	0
 9102 2136 35       		.uleb128 0x35
 9103 2137 5E0A0000 		.4byte	0xa5e
 9104 213b 96000000 		.4byte	.LBI2176
 9105 213f 0100     		.2byte	.LVU906
 9106 2141 200C0000 		.4byte	.Ldebug_ranges0+0xc20
 9107 2145 01       		.byte	0x1
 9108 2146 B1       		.byte	0xb1
 9109 2147 05       		.byte	0x5
 9110 2148 A0210000 		.4byte	0x21a0
 9111 214c 1F       		.uleb128 0x1f
 9112 214d F20A0000 		.4byte	0xaf2
 9113 2151 96000000 		.4byte	.LBI2177
 9114 2155 0300     		.2byte	.LVU908
 9115 2157 280C0000 		.4byte	.Ldebug_ranges0+0xc28
 9116 215b 06       		.byte	0x6
 9117 215c F801     		.2byte	0x1f8
 9118 215e 03       		.byte	0x3
 9119 215f 22       		.uleb128 0x22
 9120 2160 280C0000 		.4byte	.Ldebug_ranges0+0xc28
 9121 2164 1F       		.uleb128 0x1f
 9122 2165 290B0000 		.4byte	0xb29
 9123 2169 96000000 		.4byte	.LBI2179
 9124 216d 0A00     		.2byte	.LVU915
 9125 216f 280C0000 		.4byte	.Ldebug_ranges0+0xc28
 9126 2173 02       		.byte	0x2
 9127 2174 8F01     		.2byte	0x18f
ARM GAS  /tmp/ccCget5K.s 			page 162


 9128 2176 03       		.byte	0x3
 9129 2177 20       		.uleb128 0x20
 9130 2178 3D0B0000 		.4byte	0xb3d
 9131 217c 96000000 		.4byte	.LBI2180
 9132 2180 0C00     		.2byte	.LVU917
 9133 2182 96000000 		.4byte	.LBB2180
 9134 2186 04000000 		.4byte	.LBE2180-.LBB2180
 9135 218a 03       		.byte	0x3
 9136 218b 6D02     		.2byte	0x26d
 9137 218d 03       		.byte	0x3
 9138 218e 21       		.uleb128 0x21
 9139 218f 4B0B0000 		.4byte	0xb4b
 9140 2193 2C090000 		.4byte	.LLST75
 9141 2197 2A090000 		.4byte	.LVUS75
 9142 219b 00       		.byte	0
 9143 219c 00       		.byte	0
 9144 219d 00       		.byte	0
 9145 219e 00       		.byte	0
 9146 219f 00       		.byte	0
 9147 21a0 35       		.uleb128 0x35
 9148 21a1 5E0A0000 		.4byte	0xa5e
 9149 21a5 A0000000 		.4byte	.LBI2187
 9150 21a9 0100     		.2byte	.LVU923
 9151 21ab 400C0000 		.4byte	.Ldebug_ranges0+0xc40
 9152 21af 01       		.byte	0x1
 9153 21b0 6F       		.byte	0x6f
 9154 21b1 05       		.byte	0x5
 9155 21b2 0A220000 		.4byte	0x220a
 9156 21b6 1F       		.uleb128 0x1f
 9157 21b7 F20A0000 		.4byte	0xaf2
 9158 21bb A0000000 		.4byte	.LBI2188
 9159 21bf 0300     		.2byte	.LVU925
 9160 21c1 480C0000 		.4byte	.Ldebug_ranges0+0xc48
 9161 21c5 06       		.byte	0x6
 9162 21c6 F801     		.2byte	0x1f8
 9163 21c8 03       		.byte	0x3
 9164 21c9 22       		.uleb128 0x22
 9165 21ca 480C0000 		.4byte	.Ldebug_ranges0+0xc48
 9166 21ce 1F       		.uleb128 0x1f
 9167 21cf 290B0000 		.4byte	0xb29
 9168 21d3 A0000000 		.4byte	.LBI2190
 9169 21d7 0A00     		.2byte	.LVU932
 9170 21d9 480C0000 		.4byte	.Ldebug_ranges0+0xc48
 9171 21dd 02       		.byte	0x2
 9172 21de 8F01     		.2byte	0x18f
 9173 21e0 03       		.byte	0x3
 9174 21e1 20       		.uleb128 0x20
 9175 21e2 3D0B0000 		.4byte	0xb3d
 9176 21e6 A0000000 		.4byte	.LBI2191
 9177 21ea 0C00     		.2byte	.LVU934
 9178 21ec A0000000 		.4byte	.LBB2191
 9179 21f0 04000000 		.4byte	.LBE2191-.LBB2191
 9180 21f4 03       		.byte	0x3
 9181 21f5 6D02     		.2byte	0x26d
 9182 21f7 03       		.byte	0x3
 9183 21f8 21       		.uleb128 0x21
 9184 21f9 4B0B0000 		.4byte	0xb4b
ARM GAS  /tmp/ccCget5K.s 			page 163


 9185 21fd 42090000 		.4byte	.LLST76
 9186 2201 40090000 		.4byte	.LVUS76
 9187 2205 00       		.byte	0
 9188 2206 00       		.byte	0
 9189 2207 00       		.byte	0
 9190 2208 00       		.byte	0
 9191 2209 00       		.byte	0
 9192 220a 35       		.uleb128 0x35
 9193 220b 680A0000 		.4byte	0xa68
 9194 220f A4000000 		.4byte	.LBI2198
 9195 2213 0300     		.2byte	.LVU939
 9196 2215 600C0000 		.4byte	.Ldebug_ranges0+0xc60
 9197 2219 01       		.byte	0x1
 9198 221a 70       		.byte	0x70
 9199 221b 05       		.byte	0x5
 9200 221c 6E220000 		.4byte	0x226e
 9201 2220 1F       		.uleb128 0x1f
 9202 2221 1F0B0000 		.4byte	0xb1f
 9203 2225 A4000000 		.4byte	.LBI2199
 9204 2229 0500     		.2byte	.LVU941
 9205 222b 680C0000 		.4byte	.Ldebug_ranges0+0xc68
 9206 222f 06       		.byte	0x6
 9207 2230 ED01     		.2byte	0x1ed
 9208 2232 03       		.byte	0x3
 9209 2233 1F       		.uleb128 0x1f
 9210 2234 330B0000 		.4byte	0xb33
 9211 2238 A4000000 		.4byte	.LBI2200
 9212 223c 0700     		.2byte	.LVU943
 9213 223e 700C0000 		.4byte	.Ldebug_ranges0+0xc70
 9214 2242 02       		.byte	0x2
 9215 2243 7801     		.2byte	0x178
 9216 2245 03       		.byte	0x3
 9217 2246 20       		.uleb128 0x20
 9218 2247 3D0B0000 		.4byte	0xb3d
 9219 224b A4000000 		.4byte	.LBI2201
 9220 224f 0900     		.2byte	.LVU945
 9221 2251 A4000000 		.4byte	.LBB2201
 9222 2255 04000000 		.4byte	.LBE2201-.LBB2201
 9223 2259 03       		.byte	0x3
 9224 225a 5A02     		.2byte	0x25a
 9225 225c 03       		.byte	0x3
 9226 225d 21       		.uleb128 0x21
 9227 225e 4B0B0000 		.4byte	0xb4b
 9228 2262 58090000 		.4byte	.LLST77
 9229 2266 56090000 		.4byte	.LVUS77
 9230 226a 00       		.byte	0
 9231 226b 00       		.byte	0
 9232 226c 00       		.byte	0
 9233 226d 00       		.byte	0
 9234 226e 35       		.uleb128 0x35
 9235 226f 5E0A0000 		.4byte	0xa5e
 9236 2273 C0000000 		.4byte	.LBI2209
 9237 2277 0100     		.2byte	.LVU952
 9238 2279 880C0000 		.4byte	.Ldebug_ranges0+0xc88
 9239 227d 01       		.byte	0x1
 9240 227e 70       		.byte	0x70
 9241 227f 05       		.byte	0x5
ARM GAS  /tmp/ccCget5K.s 			page 164


 9242 2280 D8220000 		.4byte	0x22d8
 9243 2284 1F       		.uleb128 0x1f
 9244 2285 F20A0000 		.4byte	0xaf2
 9245 2289 C0000000 		.4byte	.LBI2210
 9246 228d 0300     		.2byte	.LVU954
 9247 228f 900C0000 		.4byte	.Ldebug_ranges0+0xc90
 9248 2293 06       		.byte	0x6
 9249 2294 F801     		.2byte	0x1f8
 9250 2296 03       		.byte	0x3
 9251 2297 22       		.uleb128 0x22
 9252 2298 900C0000 		.4byte	.Ldebug_ranges0+0xc90
 9253 229c 1F       		.uleb128 0x1f
 9254 229d 290B0000 		.4byte	0xb29
 9255 22a1 C0000000 		.4byte	.LBI2212
 9256 22a5 0A00     		.2byte	.LVU961
 9257 22a7 900C0000 		.4byte	.Ldebug_ranges0+0xc90
 9258 22ab 02       		.byte	0x2
 9259 22ac 8F01     		.2byte	0x18f
 9260 22ae 03       		.byte	0x3
 9261 22af 20       		.uleb128 0x20
 9262 22b0 3D0B0000 		.4byte	0xb3d
 9263 22b4 C0000000 		.4byte	.LBI2213
 9264 22b8 0C00     		.2byte	.LVU963
 9265 22ba C0000000 		.4byte	.LBB2213
 9266 22be 04000000 		.4byte	.LBE2213-.LBB2213
 9267 22c2 03       		.byte	0x3
 9268 22c3 6D02     		.2byte	0x26d
 9269 22c5 03       		.byte	0x3
 9270 22c6 21       		.uleb128 0x21
 9271 22c7 4B0B0000 		.4byte	0xb4b
 9272 22cb 6F090000 		.4byte	.LLST78
 9273 22cf 6D090000 		.4byte	.LVUS78
 9274 22d3 00       		.byte	0
 9275 22d4 00       		.byte	0
 9276 22d5 00       		.byte	0
 9277 22d6 00       		.byte	0
 9278 22d7 00       		.byte	0
 9279 22d8 35       		.uleb128 0x35
 9280 22d9 680A0000 		.4byte	0xa68
 9281 22dd C4000000 		.4byte	.LBI2220
 9282 22e1 0300     		.2byte	.LVU968
 9283 22e3 A80C0000 		.4byte	.Ldebug_ranges0+0xca8
 9284 22e7 01       		.byte	0x1
 9285 22e8 71       		.byte	0x71
 9286 22e9 05       		.byte	0x5
 9287 22ea 3C230000 		.4byte	0x233c
 9288 22ee 1F       		.uleb128 0x1f
 9289 22ef 1F0B0000 		.4byte	0xb1f
 9290 22f3 C4000000 		.4byte	.LBI2221
 9291 22f7 0500     		.2byte	.LVU970
 9292 22f9 B00C0000 		.4byte	.Ldebug_ranges0+0xcb0
 9293 22fd 06       		.byte	0x6
 9294 22fe ED01     		.2byte	0x1ed
 9295 2300 03       		.byte	0x3
 9296 2301 1F       		.uleb128 0x1f
 9297 2302 330B0000 		.4byte	0xb33
 9298 2306 C4000000 		.4byte	.LBI2222
ARM GAS  /tmp/ccCget5K.s 			page 165


 9299 230a 0700     		.2byte	.LVU972
 9300 230c B80C0000 		.4byte	.Ldebug_ranges0+0xcb8
 9301 2310 02       		.byte	0x2
 9302 2311 7801     		.2byte	0x178
 9303 2313 03       		.byte	0x3
 9304 2314 20       		.uleb128 0x20
 9305 2315 3D0B0000 		.4byte	0xb3d
 9306 2319 C4000000 		.4byte	.LBI2223
 9307 231d 0900     		.2byte	.LVU974
 9308 231f C4000000 		.4byte	.LBB2223
 9309 2323 04000000 		.4byte	.LBE2223-.LBB2223
 9310 2327 03       		.byte	0x3
 9311 2328 5A02     		.2byte	0x25a
 9312 232a 03       		.byte	0x3
 9313 232b 21       		.uleb128 0x21
 9314 232c 4B0B0000 		.4byte	0xb4b
 9315 2330 85090000 		.4byte	.LLST79
 9316 2334 83090000 		.4byte	.LVUS79
 9317 2338 00       		.byte	0
 9318 2339 00       		.byte	0
 9319 233a 00       		.byte	0
 9320 233b 00       		.byte	0
 9321 233c 35       		.uleb128 0x35
 9322 233d 5E0A0000 		.4byte	0xa5e
 9323 2341 DE000000 		.4byte	.LBI2231
 9324 2345 0100     		.2byte	.LVU981
 9325 2347 D00C0000 		.4byte	.Ldebug_ranges0+0xcd0
 9326 234b 01       		.byte	0x1
 9327 234c 71       		.byte	0x71
 9328 234d 05       		.byte	0x5
 9329 234e A6230000 		.4byte	0x23a6
 9330 2352 1F       		.uleb128 0x1f
 9331 2353 F20A0000 		.4byte	0xaf2
 9332 2357 DE000000 		.4byte	.LBI2232
 9333 235b 0300     		.2byte	.LVU983
 9334 235d D80C0000 		.4byte	.Ldebug_ranges0+0xcd8
 9335 2361 06       		.byte	0x6
 9336 2362 F801     		.2byte	0x1f8
 9337 2364 03       		.byte	0x3
 9338 2365 22       		.uleb128 0x22
 9339 2366 D80C0000 		.4byte	.Ldebug_ranges0+0xcd8
 9340 236a 1F       		.uleb128 0x1f
 9341 236b 290B0000 		.4byte	0xb29
 9342 236f DE000000 		.4byte	.LBI2234
 9343 2373 0A00     		.2byte	.LVU990
 9344 2375 D80C0000 		.4byte	.Ldebug_ranges0+0xcd8
 9345 2379 02       		.byte	0x2
 9346 237a 8F01     		.2byte	0x18f
 9347 237c 03       		.byte	0x3
 9348 237d 20       		.uleb128 0x20
 9349 237e 3D0B0000 		.4byte	0xb3d
 9350 2382 DE000000 		.4byte	.LBI2235
 9351 2386 0C00     		.2byte	.LVU992
 9352 2388 DE000000 		.4byte	.LBB2235
 9353 238c 04000000 		.4byte	.LBE2235-.LBB2235
 9354 2390 03       		.byte	0x3
 9355 2391 6D02     		.2byte	0x26d
ARM GAS  /tmp/ccCget5K.s 			page 166


 9356 2393 03       		.byte	0x3
 9357 2394 21       		.uleb128 0x21
 9358 2395 4B0B0000 		.4byte	0xb4b
 9359 2399 9C090000 		.4byte	.LLST80
 9360 239d 9A090000 		.4byte	.LVUS80
 9361 23a1 00       		.byte	0
 9362 23a2 00       		.byte	0
 9363 23a3 00       		.byte	0
 9364 23a4 00       		.byte	0
 9365 23a5 00       		.byte	0
 9366 23a6 35       		.uleb128 0x35
 9367 23a7 720A0000 		.4byte	0xa72
 9368 23ab 42010000 		.4byte	.LBI2242
 9369 23af 0200     		.2byte	.LVU1017
 9370 23b1 F00C0000 		.4byte	.Ldebug_ranges0+0xcf0
 9371 23b5 01       		.byte	0x1
 9372 23b6 7E       		.byte	0x7e
 9373 23b7 05       		.byte	0x5
 9374 23b8 CA230000 		.4byte	0x23ca
 9375 23bc 21       		.uleb128 0x21
 9376 23bd 7F0A0000 		.4byte	0xa7f
 9377 23c1 B2090000 		.4byte	.LLST81
 9378 23c5 B0090000 		.4byte	.LVUS81
 9379 23c9 00       		.byte	0
 9380 23ca 35       		.uleb128 0x35
 9381 23cb 680A0000 		.4byte	0xa68
 9382 23cf 94010000 		.4byte	.LBI2246
 9383 23d3 0100     		.2byte	.LVU1045
 9384 23d5 080D0000 		.4byte	.Ldebug_ranges0+0xd08
 9385 23d9 01       		.byte	0x1
 9386 23da 91       		.byte	0x91
 9387 23db 05       		.byte	0x5
 9388 23dc 2E240000 		.4byte	0x242e
 9389 23e0 1F       		.uleb128 0x1f
 9390 23e1 1F0B0000 		.4byte	0xb1f
 9391 23e5 94010000 		.4byte	.LBI2247
 9392 23e9 0300     		.2byte	.LVU1047
 9393 23eb 100D0000 		.4byte	.Ldebug_ranges0+0xd10
 9394 23ef 06       		.byte	0x6
 9395 23f0 ED01     		.2byte	0x1ed
 9396 23f2 03       		.byte	0x3
 9397 23f3 1F       		.uleb128 0x1f
 9398 23f4 330B0000 		.4byte	0xb33
 9399 23f8 94010000 		.4byte	.LBI2248
 9400 23fc 0500     		.2byte	.LVU1049
 9401 23fe 180D0000 		.4byte	.Ldebug_ranges0+0xd18
 9402 2402 02       		.byte	0x2
 9403 2403 7801     		.2byte	0x178
 9404 2405 03       		.byte	0x3
 9405 2406 20       		.uleb128 0x20
 9406 2407 3D0B0000 		.4byte	0xb3d
 9407 240b 94010000 		.4byte	.LBI2249
 9408 240f 0700     		.2byte	.LVU1051
 9409 2411 94010000 		.4byte	.LBB2249
 9410 2415 08000000 		.4byte	.LBE2249-.LBB2249
 9411 2419 03       		.byte	0x3
 9412 241a 5A02     		.2byte	0x25a
ARM GAS  /tmp/ccCget5K.s 			page 167


 9413 241c 03       		.byte	0x3
 9414 241d 21       		.uleb128 0x21
 9415 241e 4B0B0000 		.4byte	0xb4b
 9416 2422 CC090000 		.4byte	.LLST82
 9417 2426 CA090000 		.4byte	.LVUS82
 9418 242a 00       		.byte	0
 9419 242b 00       		.byte	0
 9420 242c 00       		.byte	0
 9421 242d 00       		.byte	0
 9422 242e 35       		.uleb128 0x35
 9423 242f 920A0000 		.4byte	0xa92
 9424 2433 9C010000 		.4byte	.LBI2257
 9425 2437 0400     		.2byte	.LVU1057
 9426 2439 300D0000 		.4byte	.Ldebug_ranges0+0xd30
 9427 243d 01       		.byte	0x1
 9428 243e 91       		.byte	0x91
 9429 243f 05       		.byte	0x5
 9430 2440 9A240000 		.4byte	0x249a
 9431 2444 21       		.uleb128 0x21
 9432 2445 A30A0000 		.4byte	0xaa3
 9433 2449 E3090000 		.4byte	.LLST83
 9434 244d E1090000 		.4byte	.LVUS83
 9435 2451 35       		.uleb128 0x35
 9436 2452 D40A0000 		.4byte	0xad4
 9437 2456 9C010000 		.4byte	.LBI2258
 9438 245a 0700     		.2byte	.LVU1060
 9439 245c 480D0000 		.4byte	.Ldebug_ranges0+0xd48
 9440 2460 05       		.byte	0x5
 9441 2461 AC       		.byte	0xac
 9442 2462 0A       		.byte	0xa
 9443 2463 75240000 		.4byte	0x2475
 9444 2467 21       		.uleb128 0x21
 9445 2468 E50A0000 		.4byte	0xae5
 9446 246c FD090000 		.4byte	.LLST84
 9447 2470 FB090000 		.4byte	.LVUS84
 9448 2474 00       		.byte	0
 9449 2475 36       		.uleb128 0x36
 9450 2476 B60A0000 		.4byte	0xab6
 9451 247a 9C010000 		.4byte	.LBI2261
 9452 247e 0A00     		.2byte	.LVU1063
 9453 2480 9C010000 		.4byte	.LBB2261
 9454 2484 00000000 		.4byte	.LBE2261-.LBB2261
 9455 2488 05       		.byte	0x5
 9456 2489 AC       		.byte	0xac
 9457 248a 1E       		.byte	0x1e
 9458 248b 21       		.uleb128 0x21
 9459 248c C70A0000 		.4byte	0xac7
 9460 2490 170A0000 		.4byte	.LLST85
 9461 2494 150A0000 		.4byte	.LVUS85
 9462 2498 00       		.byte	0
 9463 2499 00       		.byte	0
 9464 249a 35       		.uleb128 0x35
 9465 249b 5E0A0000 		.4byte	0xa5e
 9466 249f BC010000 		.4byte	.LBI2265
 9467 24a3 0100     		.2byte	.LVU1070
 9468 24a5 600D0000 		.4byte	.Ldebug_ranges0+0xd60
 9469 24a9 01       		.byte	0x1
ARM GAS  /tmp/ccCget5K.s 			page 168


 9470 24aa 91       		.byte	0x91
 9471 24ab 05       		.byte	0x5
 9472 24ac 04250000 		.4byte	0x2504
 9473 24b0 1F       		.uleb128 0x1f
 9474 24b1 F20A0000 		.4byte	0xaf2
 9475 24b5 BC010000 		.4byte	.LBI2266
 9476 24b9 0300     		.2byte	.LVU1072
 9477 24bb 680D0000 		.4byte	.Ldebug_ranges0+0xd68
 9478 24bf 06       		.byte	0x6
 9479 24c0 F801     		.2byte	0x1f8
 9480 24c2 03       		.byte	0x3
 9481 24c3 22       		.uleb128 0x22
 9482 24c4 680D0000 		.4byte	.Ldebug_ranges0+0xd68
 9483 24c8 1F       		.uleb128 0x1f
 9484 24c9 290B0000 		.4byte	0xb29
 9485 24cd BC010000 		.4byte	.LBI2268
 9486 24d1 0A00     		.2byte	.LVU1079
 9487 24d3 680D0000 		.4byte	.Ldebug_ranges0+0xd68
 9488 24d7 02       		.byte	0x2
 9489 24d8 8F01     		.2byte	0x18f
 9490 24da 03       		.byte	0x3
 9491 24db 20       		.uleb128 0x20
 9492 24dc 3D0B0000 		.4byte	0xb3d
 9493 24e0 BC010000 		.4byte	.LBI2269
 9494 24e4 0C00     		.2byte	.LVU1081
 9495 24e6 BC010000 		.4byte	.LBB2269
 9496 24ea 04000000 		.4byte	.LBE2269-.LBB2269
 9497 24ee 03       		.byte	0x3
 9498 24ef 6D02     		.2byte	0x26d
 9499 24f1 03       		.byte	0x3
 9500 24f2 21       		.uleb128 0x21
 9501 24f3 4B0B0000 		.4byte	0xb4b
 9502 24f7 310A0000 		.4byte	.LLST86
 9503 24fb 2F0A0000 		.4byte	.LVUS86
 9504 24ff 00       		.byte	0
 9505 2500 00       		.byte	0
 9506 2501 00       		.byte	0
 9507 2502 00       		.byte	0
 9508 2503 00       		.byte	0
 9509 2504 35       		.uleb128 0x35
 9510 2505 680A0000 		.4byte	0xa68
 9511 2509 C0010000 		.4byte	.LBI2276
 9512 250d 0300     		.2byte	.LVU1086
 9513 250f 800D0000 		.4byte	.Ldebug_ranges0+0xd80
 9514 2513 01       		.byte	0x1
 9515 2514 92       		.byte	0x92
 9516 2515 05       		.byte	0x5
 9517 2516 68250000 		.4byte	0x2568
 9518 251a 1F       		.uleb128 0x1f
 9519 251b 1F0B0000 		.4byte	0xb1f
 9520 251f C0010000 		.4byte	.LBI2277
 9521 2523 0500     		.2byte	.LVU1088
 9522 2525 880D0000 		.4byte	.Ldebug_ranges0+0xd88
 9523 2529 06       		.byte	0x6
 9524 252a ED01     		.2byte	0x1ed
 9525 252c 03       		.byte	0x3
 9526 252d 1F       		.uleb128 0x1f
ARM GAS  /tmp/ccCget5K.s 			page 169


 9527 252e 330B0000 		.4byte	0xb33
 9528 2532 C0010000 		.4byte	.LBI2278
 9529 2536 0700     		.2byte	.LVU1090
 9530 2538 900D0000 		.4byte	.Ldebug_ranges0+0xd90
 9531 253c 02       		.byte	0x2
 9532 253d 7801     		.2byte	0x178
 9533 253f 03       		.byte	0x3
 9534 2540 20       		.uleb128 0x20
 9535 2541 3D0B0000 		.4byte	0xb3d
 9536 2545 C0010000 		.4byte	.LBI2279
 9537 2549 0900     		.2byte	.LVU1092
 9538 254b C0010000 		.4byte	.LBB2279
 9539 254f 04000000 		.4byte	.LBE2279-.LBB2279
 9540 2553 03       		.byte	0x3
 9541 2554 5A02     		.2byte	0x25a
 9542 2556 03       		.byte	0x3
 9543 2557 21       		.uleb128 0x21
 9544 2558 4B0B0000 		.4byte	0xb4b
 9545 255c 470A0000 		.4byte	.LLST87
 9546 2560 450A0000 		.4byte	.LVUS87
 9547 2564 00       		.byte	0
 9548 2565 00       		.byte	0
 9549 2566 00       		.byte	0
 9550 2567 00       		.byte	0
 9551 2568 39       		.uleb128 0x39
 9552 2569 B60A0000 		.4byte	0xab6
 9553 256d C4010000 		.4byte	.LBI2287
 9554 2571 0400     		.2byte	.LVU1098
 9555 2573 C4010000 		.4byte	.LBB2287
 9556 2577 00000000 		.4byte	.LBE2287-.LBB2287
 9557 257b 01       		.byte	0x1
 9558 257c 92       		.byte	0x92
 9559 257d 05       		.byte	0x5
 9560 257e 90250000 		.4byte	0x2590
 9561 2582 21       		.uleb128 0x21
 9562 2583 C70A0000 		.4byte	0xac7
 9563 2587 5E0A0000 		.4byte	.LLST88
 9564 258b 5C0A0000 		.4byte	.LVUS88
 9565 258f 00       		.byte	0
 9566 2590 35       		.uleb128 0x35
 9567 2591 5E0A0000 		.4byte	0xa5e
 9568 2595 DC010000 		.4byte	.LBI2289
 9569 2599 0100     		.2byte	.LVU1104
 9570 259b A80D0000 		.4byte	.Ldebug_ranges0+0xda8
 9571 259f 01       		.byte	0x1
 9572 25a0 92       		.byte	0x92
 9573 25a1 05       		.byte	0x5
 9574 25a2 FA250000 		.4byte	0x25fa
 9575 25a6 1F       		.uleb128 0x1f
 9576 25a7 F20A0000 		.4byte	0xaf2
 9577 25ab DC010000 		.4byte	.LBI2290
 9578 25af 0300     		.2byte	.LVU1106
 9579 25b1 B00D0000 		.4byte	.Ldebug_ranges0+0xdb0
 9580 25b5 06       		.byte	0x6
 9581 25b6 F801     		.2byte	0x1f8
 9582 25b8 03       		.byte	0x3
 9583 25b9 22       		.uleb128 0x22
ARM GAS  /tmp/ccCget5K.s 			page 170


 9584 25ba B00D0000 		.4byte	.Ldebug_ranges0+0xdb0
 9585 25be 1F       		.uleb128 0x1f
 9586 25bf 290B0000 		.4byte	0xb29
 9587 25c3 DC010000 		.4byte	.LBI2292
 9588 25c7 0A00     		.2byte	.LVU1113
 9589 25c9 B00D0000 		.4byte	.Ldebug_ranges0+0xdb0
 9590 25cd 02       		.byte	0x2
 9591 25ce 8F01     		.2byte	0x18f
 9592 25d0 03       		.byte	0x3
 9593 25d1 20       		.uleb128 0x20
 9594 25d2 3D0B0000 		.4byte	0xb3d
 9595 25d6 DC010000 		.4byte	.LBI2293
 9596 25da 0C00     		.2byte	.LVU1115
 9597 25dc DC010000 		.4byte	.LBB2293
 9598 25e0 04000000 		.4byte	.LBE2293-.LBB2293
 9599 25e4 03       		.byte	0x3
 9600 25e5 6D02     		.2byte	0x26d
 9601 25e7 03       		.byte	0x3
 9602 25e8 21       		.uleb128 0x21
 9603 25e9 4B0B0000 		.4byte	0xb4b
 9604 25ed 780A0000 		.4byte	.LLST89
 9605 25f1 760A0000 		.4byte	.LVUS89
 9606 25f5 00       		.byte	0
 9607 25f6 00       		.byte	0
 9608 25f7 00       		.byte	0
 9609 25f8 00       		.byte	0
 9610 25f9 00       		.byte	0
 9611 25fa 35       		.uleb128 0x35
 9612 25fb 5E0A0000 		.4byte	0xa5e
 9613 25ff E2010000 		.4byte	.LBI2300
 9614 2603 0100     		.2byte	.LVU1120
 9615 2605 C80D0000 		.4byte	.Ldebug_ranges0+0xdc8
 9616 2609 01       		.byte	0x1
 9617 260a 92       		.byte	0x92
 9618 260b 05       		.byte	0x5
 9619 260c 64260000 		.4byte	0x2664
 9620 2610 1F       		.uleb128 0x1f
 9621 2611 F20A0000 		.4byte	0xaf2
 9622 2615 E2010000 		.4byte	.LBI2301
 9623 2619 0300     		.2byte	.LVU1122
 9624 261b D00D0000 		.4byte	.Ldebug_ranges0+0xdd0
 9625 261f 06       		.byte	0x6
 9626 2620 F801     		.2byte	0x1f8
 9627 2622 03       		.byte	0x3
 9628 2623 22       		.uleb128 0x22
 9629 2624 D00D0000 		.4byte	.Ldebug_ranges0+0xdd0
 9630 2628 1F       		.uleb128 0x1f
 9631 2629 290B0000 		.4byte	0xb29
 9632 262d E2010000 		.4byte	.LBI2303
 9633 2631 0A00     		.2byte	.LVU1129
 9634 2633 D00D0000 		.4byte	.Ldebug_ranges0+0xdd0
 9635 2637 02       		.byte	0x2
 9636 2638 8F01     		.2byte	0x18f
 9637 263a 03       		.byte	0x3
 9638 263b 20       		.uleb128 0x20
 9639 263c 3D0B0000 		.4byte	0xb3d
 9640 2640 E2010000 		.4byte	.LBI2304
ARM GAS  /tmp/ccCget5K.s 			page 171


 9641 2644 0C00     		.2byte	.LVU1131
 9642 2646 E2010000 		.4byte	.LBB2304
 9643 264a 04000000 		.4byte	.LBE2304-.LBB2304
 9644 264e 03       		.byte	0x3
 9645 264f 6D02     		.2byte	0x26d
 9646 2651 03       		.byte	0x3
 9647 2652 21       		.uleb128 0x21
 9648 2653 4B0B0000 		.4byte	0xb4b
 9649 2657 8E0A0000 		.4byte	.LLST90
 9650 265b 8C0A0000 		.4byte	.LVUS90
 9651 265f 00       		.byte	0
 9652 2660 00       		.byte	0
 9653 2661 00       		.byte	0
 9654 2662 00       		.byte	0
 9655 2663 00       		.byte	0
 9656 2664 35       		.uleb128 0x35
 9657 2665 680A0000 		.4byte	0xa68
 9658 2669 E6010000 		.4byte	.LBI2311
 9659 266d 0300     		.2byte	.LVU1136
 9660 266f E80D0000 		.4byte	.Ldebug_ranges0+0xde8
 9661 2673 01       		.byte	0x1
 9662 2674 93       		.byte	0x93
 9663 2675 05       		.byte	0x5
 9664 2676 C8260000 		.4byte	0x26c8
 9665 267a 1F       		.uleb128 0x1f
 9666 267b 1F0B0000 		.4byte	0xb1f
 9667 267f E6010000 		.4byte	.LBI2312
 9668 2683 0500     		.2byte	.LVU1138
 9669 2685 F00D0000 		.4byte	.Ldebug_ranges0+0xdf0
 9670 2689 06       		.byte	0x6
 9671 268a ED01     		.2byte	0x1ed
 9672 268c 03       		.byte	0x3
 9673 268d 1F       		.uleb128 0x1f
 9674 268e 330B0000 		.4byte	0xb33
 9675 2692 E6010000 		.4byte	.LBI2313
 9676 2696 0700     		.2byte	.LVU1140
 9677 2698 F80D0000 		.4byte	.Ldebug_ranges0+0xdf8
 9678 269c 02       		.byte	0x2
 9679 269d 7801     		.2byte	0x178
 9680 269f 03       		.byte	0x3
 9681 26a0 20       		.uleb128 0x20
 9682 26a1 3D0B0000 		.4byte	0xb3d
 9683 26a5 E6010000 		.4byte	.LBI2314
 9684 26a9 0900     		.2byte	.LVU1142
 9685 26ab E6010000 		.4byte	.LBB2314
 9686 26af 04000000 		.4byte	.LBE2314-.LBB2314
 9687 26b3 03       		.byte	0x3
 9688 26b4 5A02     		.2byte	0x25a
 9689 26b6 03       		.byte	0x3
 9690 26b7 21       		.uleb128 0x21
 9691 26b8 4B0B0000 		.4byte	0xb4b
 9692 26bc A40A0000 		.4byte	.LLST91
 9693 26c0 A20A0000 		.4byte	.LVUS91
 9694 26c4 00       		.byte	0
 9695 26c5 00       		.byte	0
 9696 26c6 00       		.byte	0
 9697 26c7 00       		.byte	0
ARM GAS  /tmp/ccCget5K.s 			page 172


 9698 26c8 35       		.uleb128 0x35
 9699 26c9 5E0A0000 		.4byte	0xa5e
 9700 26cd 06020000 		.4byte	.LBI2322
 9701 26d1 0100     		.2byte	.LVU1149
 9702 26d3 100E0000 		.4byte	.Ldebug_ranges0+0xe10
 9703 26d7 01       		.byte	0x1
 9704 26d8 93       		.byte	0x93
 9705 26d9 05       		.byte	0x5
 9706 26da 32270000 		.4byte	0x2732
 9707 26de 1F       		.uleb128 0x1f
 9708 26df F20A0000 		.4byte	0xaf2
 9709 26e3 06020000 		.4byte	.LBI2323
 9710 26e7 0300     		.2byte	.LVU1151
 9711 26e9 180E0000 		.4byte	.Ldebug_ranges0+0xe18
 9712 26ed 06       		.byte	0x6
 9713 26ee F801     		.2byte	0x1f8
 9714 26f0 03       		.byte	0x3
 9715 26f1 22       		.uleb128 0x22
 9716 26f2 180E0000 		.4byte	.Ldebug_ranges0+0xe18
 9717 26f6 1F       		.uleb128 0x1f
 9718 26f7 290B0000 		.4byte	0xb29
 9719 26fb 06020000 		.4byte	.LBI2325
 9720 26ff 0A00     		.2byte	.LVU1158
 9721 2701 180E0000 		.4byte	.Ldebug_ranges0+0xe18
 9722 2705 02       		.byte	0x2
 9723 2706 8F01     		.2byte	0x18f
 9724 2708 03       		.byte	0x3
 9725 2709 20       		.uleb128 0x20
 9726 270a 3D0B0000 		.4byte	0xb3d
 9727 270e 06020000 		.4byte	.LBI2326
 9728 2712 0C00     		.2byte	.LVU1160
 9729 2714 06020000 		.4byte	.LBB2326
 9730 2718 04000000 		.4byte	.LBE2326-.LBB2326
 9731 271c 03       		.byte	0x3
 9732 271d 6D02     		.2byte	0x26d
 9733 271f 03       		.byte	0x3
 9734 2720 21       		.uleb128 0x21
 9735 2721 4B0B0000 		.4byte	0xb4b
 9736 2725 BB0A0000 		.4byte	.LLST92
 9737 2729 B90A0000 		.4byte	.LVUS92
 9738 272d 00       		.byte	0
 9739 272e 00       		.byte	0
 9740 272f 00       		.byte	0
 9741 2730 00       		.byte	0
 9742 2731 00       		.byte	0
 9743 2732 35       		.uleb128 0x35
 9744 2733 680A0000 		.4byte	0xa68
 9745 2737 92020000 		.4byte	.LBI2333
 9746 273b 0100     		.2byte	.LVU1200
 9747 273d 300E0000 		.4byte	.Ldebug_ranges0+0xe30
 9748 2741 01       		.byte	0x1
 9749 2742 B0       		.byte	0xb0
 9750 2743 05       		.byte	0x5
 9751 2744 96270000 		.4byte	0x2796
 9752 2748 1F       		.uleb128 0x1f
 9753 2749 1F0B0000 		.4byte	0xb1f
 9754 274d 92020000 		.4byte	.LBI2334
ARM GAS  /tmp/ccCget5K.s 			page 173


 9755 2751 0300     		.2byte	.LVU1202
 9756 2753 380E0000 		.4byte	.Ldebug_ranges0+0xe38
 9757 2757 06       		.byte	0x6
 9758 2758 ED01     		.2byte	0x1ed
 9759 275a 03       		.byte	0x3
 9760 275b 1F       		.uleb128 0x1f
 9761 275c 330B0000 		.4byte	0xb33
 9762 2760 92020000 		.4byte	.LBI2335
 9763 2764 0500     		.2byte	.LVU1204
 9764 2766 400E0000 		.4byte	.Ldebug_ranges0+0xe40
 9765 276a 02       		.byte	0x2
 9766 276b 7801     		.2byte	0x178
 9767 276d 03       		.byte	0x3
 9768 276e 20       		.uleb128 0x20
 9769 276f 3D0B0000 		.4byte	0xb3d
 9770 2773 92020000 		.4byte	.LBI2336
 9771 2777 0700     		.2byte	.LVU1206
 9772 2779 92020000 		.4byte	.LBB2336
 9773 277d 06000000 		.4byte	.LBE2336-.LBB2336
 9774 2781 03       		.byte	0x3
 9775 2782 5A02     		.2byte	0x25a
 9776 2784 03       		.byte	0x3
 9777 2785 21       		.uleb128 0x21
 9778 2786 4B0B0000 		.4byte	0xb4b
 9779 278a D10A0000 		.4byte	.LLST93
 9780 278e CF0A0000 		.4byte	.LVUS93
 9781 2792 00       		.byte	0
 9782 2793 00       		.byte	0
 9783 2794 00       		.byte	0
 9784 2795 00       		.byte	0
 9785 2796 35       		.uleb128 0x35
 9786 2797 920A0000 		.4byte	0xa92
 9787 279b 98020000 		.4byte	.LBI2344
 9788 279f 0400     		.2byte	.LVU1212
 9789 27a1 580E0000 		.4byte	.Ldebug_ranges0+0xe58
 9790 27a5 01       		.byte	0x1
 9791 27a6 B0       		.byte	0xb0
 9792 27a7 05       		.byte	0x5
 9793 27a8 02280000 		.4byte	0x2802
 9794 27ac 21       		.uleb128 0x21
 9795 27ad A30A0000 		.4byte	0xaa3
 9796 27b1 E80A0000 		.4byte	.LLST94
 9797 27b5 E60A0000 		.4byte	.LVUS94
 9798 27b9 35       		.uleb128 0x35
 9799 27ba D40A0000 		.4byte	0xad4
 9800 27be 98020000 		.4byte	.LBI2346
 9801 27c2 0700     		.2byte	.LVU1215
 9802 27c4 700E0000 		.4byte	.Ldebug_ranges0+0xe70
 9803 27c8 05       		.byte	0x5
 9804 27c9 AC       		.byte	0xac
 9805 27ca 0A       		.byte	0xa
 9806 27cb DD270000 		.4byte	0x27dd
 9807 27cf 21       		.uleb128 0x21
 9808 27d0 E50A0000 		.4byte	0xae5
 9809 27d4 020B0000 		.4byte	.LLST95
 9810 27d8 000B0000 		.4byte	.LVUS95
 9811 27dc 00       		.byte	0
ARM GAS  /tmp/ccCget5K.s 			page 174


 9812 27dd 36       		.uleb128 0x36
 9813 27de B60A0000 		.4byte	0xab6
 9814 27e2 98020000 		.4byte	.LBI2349
 9815 27e6 0A00     		.2byte	.LVU1218
 9816 27e8 98020000 		.4byte	.LBB2349
 9817 27ec 00000000 		.4byte	.LBE2349-.LBB2349
 9818 27f0 05       		.byte	0x5
 9819 27f1 AC       		.byte	0xac
 9820 27f2 1E       		.byte	0x1e
 9821 27f3 21       		.uleb128 0x21
 9822 27f4 C70A0000 		.4byte	0xac7
 9823 27f8 1C0B0000 		.4byte	.LLST96
 9824 27fc 1A0B0000 		.4byte	.LVUS96
 9825 2800 00       		.byte	0
 9826 2801 00       		.byte	0
 9827 2802 35       		.uleb128 0x35
 9828 2803 5E0A0000 		.4byte	0xa5e
 9829 2807 B6020000 		.4byte	.LBI2354
 9830 280b 0100     		.2byte	.LVU1228
 9831 280d 880E0000 		.4byte	.Ldebug_ranges0+0xe88
 9832 2811 01       		.byte	0x1
 9833 2812 B0       		.byte	0xb0
 9834 2813 05       		.byte	0x5
 9835 2814 6C280000 		.4byte	0x286c
 9836 2818 1F       		.uleb128 0x1f
 9837 2819 F20A0000 		.4byte	0xaf2
 9838 281d B6020000 		.4byte	.LBI2355
 9839 2821 0300     		.2byte	.LVU1230
 9840 2823 900E0000 		.4byte	.Ldebug_ranges0+0xe90
 9841 2827 06       		.byte	0x6
 9842 2828 F801     		.2byte	0x1f8
 9843 282a 03       		.byte	0x3
 9844 282b 22       		.uleb128 0x22
 9845 282c 900E0000 		.4byte	.Ldebug_ranges0+0xe90
 9846 2830 1F       		.uleb128 0x1f
 9847 2831 290B0000 		.4byte	0xb29
 9848 2835 B6020000 		.4byte	.LBI2357
 9849 2839 0A00     		.2byte	.LVU1237
 9850 283b 900E0000 		.4byte	.Ldebug_ranges0+0xe90
 9851 283f 02       		.byte	0x2
 9852 2840 8F01     		.2byte	0x18f
 9853 2842 03       		.byte	0x3
 9854 2843 20       		.uleb128 0x20
 9855 2844 3D0B0000 		.4byte	0xb3d
 9856 2848 B6020000 		.4byte	.LBI2358
 9857 284c 0C00     		.2byte	.LVU1239
 9858 284e B6020000 		.4byte	.LBB2358
 9859 2852 04000000 		.4byte	.LBE2358-.LBB2358
 9860 2856 03       		.byte	0x3
 9861 2857 6D02     		.2byte	0x26d
 9862 2859 03       		.byte	0x3
 9863 285a 21       		.uleb128 0x21
 9864 285b 4B0B0000 		.4byte	0xb4b
 9865 285f 360B0000 		.4byte	.LLST97
 9866 2863 340B0000 		.4byte	.LVUS97
 9867 2867 00       		.byte	0
 9868 2868 00       		.byte	0
ARM GAS  /tmp/ccCget5K.s 			page 175


 9869 2869 00       		.byte	0
 9870 286a 00       		.byte	0
 9871 286b 00       		.byte	0
 9872 286c 35       		.uleb128 0x35
 9873 286d 680A0000 		.4byte	0xa68
 9874 2871 BA020000 		.4byte	.LBI2365
 9875 2875 0300     		.2byte	.LVU1244
 9876 2877 A80E0000 		.4byte	.Ldebug_ranges0+0xea8
 9877 287b 01       		.byte	0x1
 9878 287c B1       		.byte	0xb1
 9879 287d 05       		.byte	0x5
 9880 287e D0280000 		.4byte	0x28d0
 9881 2882 1F       		.uleb128 0x1f
 9882 2883 1F0B0000 		.4byte	0xb1f
 9883 2887 BA020000 		.4byte	.LBI2366
 9884 288b 0500     		.2byte	.LVU1246
 9885 288d B00E0000 		.4byte	.Ldebug_ranges0+0xeb0
 9886 2891 06       		.byte	0x6
 9887 2892 ED01     		.2byte	0x1ed
 9888 2894 03       		.byte	0x3
 9889 2895 1F       		.uleb128 0x1f
 9890 2896 330B0000 		.4byte	0xb33
 9891 289a BA020000 		.4byte	.LBI2367
 9892 289e 0700     		.2byte	.LVU1248
 9893 28a0 B80E0000 		.4byte	.Ldebug_ranges0+0xeb8
 9894 28a4 02       		.byte	0x2
 9895 28a5 7801     		.2byte	0x178
 9896 28a7 03       		.byte	0x3
 9897 28a8 20       		.uleb128 0x20
 9898 28a9 3D0B0000 		.4byte	0xb3d
 9899 28ad BA020000 		.4byte	.LBI2368
 9900 28b1 0900     		.2byte	.LVU1250
 9901 28b3 BA020000 		.4byte	.LBB2368
 9902 28b7 04000000 		.4byte	.LBE2368-.LBB2368
 9903 28bb 03       		.byte	0x3
 9904 28bc 5A02     		.2byte	0x25a
 9905 28be 03       		.byte	0x3
 9906 28bf 21       		.uleb128 0x21
 9907 28c0 4B0B0000 		.4byte	0xb4b
 9908 28c4 4C0B0000 		.4byte	.LLST98
 9909 28c8 4A0B0000 		.4byte	.LVUS98
 9910 28cc 00       		.byte	0
 9911 28cd 00       		.byte	0
 9912 28ce 00       		.byte	0
 9913 28cf 00       		.byte	0
 9914 28d0 39       		.uleb128 0x39
 9915 28d1 B60A0000 		.4byte	0xab6
 9916 28d5 BE020000 		.4byte	.LBI2376
 9917 28d9 0400     		.2byte	.LVU1256
 9918 28db BE020000 		.4byte	.LBB2376
 9919 28df 00000000 		.4byte	.LBE2376-.LBB2376
 9920 28e3 01       		.byte	0x1
 9921 28e4 B1       		.byte	0xb1
 9922 28e5 05       		.byte	0x5
 9923 28e6 F8280000 		.4byte	0x28f8
 9924 28ea 21       		.uleb128 0x21
 9925 28eb C70A0000 		.4byte	0xac7
ARM GAS  /tmp/ccCget5K.s 			page 176


 9926 28ef 630B0000 		.4byte	.LLST99
 9927 28f3 610B0000 		.4byte	.LVUS99
 9928 28f7 00       		.byte	0
 9929 28f8 35       		.uleb128 0x35
 9930 28f9 5E0A0000 		.4byte	0xa5e
 9931 28fd D2020000 		.4byte	.LBI2378
 9932 2901 0100     		.2byte	.LVU1262
 9933 2903 D00E0000 		.4byte	.Ldebug_ranges0+0xed0
 9934 2907 01       		.byte	0x1
 9935 2908 B1       		.byte	0xb1
 9936 2909 05       		.byte	0x5
 9937 290a 62290000 		.4byte	0x2962
 9938 290e 1F       		.uleb128 0x1f
 9939 290f F20A0000 		.4byte	0xaf2
 9940 2913 D2020000 		.4byte	.LBI2379
 9941 2917 0300     		.2byte	.LVU1264
 9942 2919 D80E0000 		.4byte	.Ldebug_ranges0+0xed8
 9943 291d 06       		.byte	0x6
 9944 291e F801     		.2byte	0x1f8
 9945 2920 03       		.byte	0x3
 9946 2921 22       		.uleb128 0x22
 9947 2922 D80E0000 		.4byte	.Ldebug_ranges0+0xed8
 9948 2926 1F       		.uleb128 0x1f
 9949 2927 290B0000 		.4byte	0xb29
 9950 292b D2020000 		.4byte	.LBI2381
 9951 292f 0A00     		.2byte	.LVU1271
 9952 2931 D80E0000 		.4byte	.Ldebug_ranges0+0xed8
 9953 2935 02       		.byte	0x2
 9954 2936 8F01     		.2byte	0x18f
 9955 2938 03       		.byte	0x3
 9956 2939 20       		.uleb128 0x20
 9957 293a 3D0B0000 		.4byte	0xb3d
 9958 293e D2020000 		.4byte	.LBI2382
 9959 2942 0C00     		.2byte	.LVU1273
 9960 2944 D2020000 		.4byte	.LBB2382
 9961 2948 04000000 		.4byte	.LBE2382-.LBB2382
 9962 294c 03       		.byte	0x3
 9963 294d 6D02     		.2byte	0x26d
 9964 294f 03       		.byte	0x3
 9965 2950 21       		.uleb128 0x21
 9966 2951 4B0B0000 		.4byte	0xb4b
 9967 2955 7D0B0000 		.4byte	.LLST100
 9968 2959 7B0B0000 		.4byte	.LVUS100
 9969 295d 00       		.byte	0
 9970 295e 00       		.byte	0
 9971 295f 00       		.byte	0
 9972 2960 00       		.byte	0
 9973 2961 00       		.byte	0
 9974 2962 23       		.uleb128 0x23
 9975 2963 4E000000 		.4byte	.LVL137
 9976 2967 A92C0000 		.4byte	0x2ca9
 9977 296b 76290000 		.4byte	0x2976
 9978 296f 24       		.uleb128 0x24
 9979 2970 01       		.uleb128 0x1
 9980 2971 50       		.byte	0x50
 9981 2972 02       		.uleb128 0x2
 9982 2973 74       		.byte	0x74
ARM GAS  /tmp/ccCget5K.s 			page 177


 9983 2974 00       		.sleb128 0
 9984 2975 00       		.byte	0
 9985 2976 23       		.uleb128 0x23
 9986 2977 6E000000 		.4byte	.LVL139
 9987 297b 792C0000 		.4byte	0x2c79
 9988 297f 8D290000 		.4byte	0x298d
 9989 2983 24       		.uleb128 0x24
 9990 2984 01       		.uleb128 0x1
 9991 2985 51       		.byte	0x51
 9992 2986 05       		.uleb128 0x5
 9993 2987 03       		.byte	0x3
 9994 2988 0C000000 		.4byte	.LC2
 9995 298c 00       		.byte	0
 9996 298d 23       		.uleb128 0x23
 9997 298e 88000000 		.4byte	.LVL143
 9998 2992 792C0000 		.4byte	0x2c79
 9999 2996 A4290000 		.4byte	0x29a4
 10000 299a 24       		.uleb128 0x24
 10001 299b 01       		.uleb128 0x1
 10002 299c 51       		.byte	0x51
 10003 299d 05       		.uleb128 0x5
 10004 299e 03       		.byte	0x3
 10005 299f 18000000 		.4byte	.LC3
 10006 29a3 00       		.byte	0
 10007 29a4 23       		.uleb128 0x23
 10008 29a5 BA000000 		.4byte	.LVL151
 10009 29a9 792C0000 		.4byte	0x2c79
 10010 29ad BB290000 		.4byte	0x29bb
 10011 29b1 24       		.uleb128 0x24
 10012 29b2 01       		.uleb128 0x1
 10013 29b3 51       		.byte	0x51
 10014 29b4 05       		.uleb128 0x5
 10015 29b5 03       		.byte	0x3
 10016 29b6 24000000 		.4byte	.LC4
 10017 29ba 00       		.byte	0
 10018 29bb 23       		.uleb128 0x23
 10019 29bc DA000000 		.4byte	.LVL155
 10020 29c0 792C0000 		.4byte	0x2c79
 10021 29c4 D2290000 		.4byte	0x29d2
 10022 29c8 24       		.uleb128 0x24
 10023 29c9 01       		.uleb128 0x1
 10024 29ca 51       		.byte	0x51
 10025 29cb 05       		.uleb128 0x5
 10026 29cc 03       		.byte	0x3
 10027 29cd 48000000 		.4byte	.LC5
 10028 29d1 00       		.byte	0
 10029 29d2 23       		.uleb128 0x23
 10030 29d3 F2000000 		.4byte	.LVL158
 10031 29d7 6D2C0000 		.4byte	0x2c6d
 10032 29db EC290000 		.4byte	0x29ec
 10033 29df 24       		.uleb128 0x24
 10034 29e0 01       		.uleb128 0x1
 10035 29e1 50       		.byte	0x50
 10036 29e2 02       		.uleb128 0x2
 10037 29e3 74       		.byte	0x74
 10038 29e4 00       		.sleb128 0
 10039 29e5 24       		.uleb128 0x24
ARM GAS  /tmp/ccCget5K.s 			page 178


 10040 29e6 01       		.uleb128 0x1
 10041 29e7 52       		.byte	0x52
 10042 29e8 02       		.uleb128 0x2
 10043 29e9 09       		.byte	0x9
 10044 29ea FF       		.byte	0xff
 10045 29eb 00       		.byte	0
 10046 29ec 23       		.uleb128 0x23
 10047 29ed 00010000 		.4byte	.LVL160
 10048 29f1 792C0000 		.4byte	0x2c79
 10049 29f5 1D2A0000 		.4byte	0x2a1d
 10050 29f9 24       		.uleb128 0x24
 10051 29fa 01       		.uleb128 0x1
 10052 29fb 50       		.byte	0x50
 10053 29fc 16       		.uleb128 0x16
 10054 29fd 31       		.byte	0x31
 10055 29fe 30       		.byte	0x30
 10056 29ff 75       		.byte	0x75
 10057 2a00 7E       		.sleb128 -2
 10058 2a01 75       		.byte	0x75
 10059 2a02 00       		.sleb128 0
 10060 2a03 30       		.byte	0x30
 10061 2a04 2E       		.byte	0x2e
 10062 2a05 28       		.byte	0x28
 10063 2a06 0100     		.2byte	0x1
 10064 2a08 16       		.byte	0x16
 10065 2a09 13       		.byte	0x13
 10066 2a0a 75       		.byte	0x75
 10067 2a0b 00       		.sleb128 0
 10068 2a0c 30       		.byte	0x30
 10069 2a0d 29       		.byte	0x29
 10070 2a0e 28       		.byte	0x28
 10071 2a0f 0100     		.2byte	0x1
 10072 2a11 16       		.byte	0x16
 10073 2a12 13       		.byte	0x13
 10074 2a13 24       		.uleb128 0x24
 10075 2a14 01       		.uleb128 0x1
 10076 2a15 51       		.byte	0x51
 10077 2a16 05       		.uleb128 0x5
 10078 2a17 03       		.byte	0x3
 10079 2a18 00000000 		.4byte	.LC11
 10080 2a1c 00       		.byte	0
 10081 2a1d 23       		.uleb128 0x23
 10082 2a1e 10010000 		.4byte	.LVL161
 10083 2a22 912C0000 		.4byte	0x2c91
 10084 2a26 372A0000 		.4byte	0x2a37
 10085 2a2a 24       		.uleb128 0x24
 10086 2a2b 01       		.uleb128 0x1
 10087 2a2c 50       		.byte	0x50
 10088 2a2d 02       		.uleb128 0x2
 10089 2a2e 74       		.byte	0x74
 10090 2a2f 00       		.sleb128 0
 10091 2a30 24       		.uleb128 0x24
 10092 2a31 01       		.uleb128 0x1
 10093 2a32 52       		.byte	0x52
 10094 2a33 02       		.uleb128 0x2
 10095 2a34 09       		.byte	0x9
 10096 2a35 FF       		.byte	0xff
ARM GAS  /tmp/ccCget5K.s 			page 179


 10097 2a36 00       		.byte	0
 10098 2a37 23       		.uleb128 0x23
 10099 2a38 1E010000 		.4byte	.LVL163
 10100 2a3c 792C0000 		.4byte	0x2c79
 10101 2a40 4E2A0000 		.4byte	0x2a4e
 10102 2a44 24       		.uleb128 0x24
 10103 2a45 01       		.uleb128 0x1
 10104 2a46 51       		.byte	0x51
 10105 2a47 05       		.uleb128 0x5
 10106 2a48 03       		.byte	0x3
 10107 2a49 00000000 		.4byte	.LC11
 10108 2a4d 00       		.byte	0
 10109 2a4e 23       		.uleb128 0x23
 10110 2a4f 2E010000 		.4byte	.LVL164
 10111 2a53 B52C0000 		.4byte	0x2cb5
 10112 2a57 6E2A0000 		.4byte	0x2a6e
 10113 2a5b 24       		.uleb128 0x24
 10114 2a5c 01       		.uleb128 0x1
 10115 2a5d 50       		.byte	0x50
 10116 2a5e 02       		.uleb128 0x2
 10117 2a5f 74       		.byte	0x74
 10118 2a60 00       		.sleb128 0
 10119 2a61 24       		.uleb128 0x24
 10120 2a62 01       		.uleb128 0x1
 10121 2a63 51       		.byte	0x51
 10122 2a64 02       		.uleb128 0x2
 10123 2a65 91       		.byte	0x91
 10124 2a66 64       		.sleb128 -28
 10125 2a67 24       		.uleb128 0x24
 10126 2a68 01       		.uleb128 0x1
 10127 2a69 52       		.byte	0x52
 10128 2a6a 02       		.uleb128 0x2
 10129 2a6b 09       		.byte	0x9
 10130 2a6c FF       		.byte	0xff
 10131 2a6d 00       		.byte	0
 10132 2a6e 23       		.uleb128 0x23
 10133 2a6f 3C010000 		.4byte	.LVL166
 10134 2a73 792C0000 		.4byte	0x2c79
 10135 2a77 852A0000 		.4byte	0x2a85
 10136 2a7b 24       		.uleb128 0x24
 10137 2a7c 01       		.uleb128 0x1
 10138 2a7d 51       		.byte	0x51
 10139 2a7e 05       		.uleb128 0x5
 10140 2a7f 03       		.byte	0x3
 10141 2a80 00000000 		.4byte	.LC11
 10142 2a84 00       		.byte	0
 10143 2a85 23       		.uleb128 0x23
 10144 2a86 58010000 		.4byte	.LVL171
 10145 2a8a 6D2C0000 		.4byte	0x2c6d
 10146 2a8e A52A0000 		.4byte	0x2aa5
 10147 2a92 24       		.uleb128 0x24
 10148 2a93 01       		.uleb128 0x1
 10149 2a94 50       		.byte	0x50
 10150 2a95 02       		.uleb128 0x2
 10151 2a96 74       		.byte	0x74
 10152 2a97 00       		.sleb128 0
 10153 2a98 24       		.uleb128 0x24
ARM GAS  /tmp/ccCget5K.s 			page 180


 10154 2a99 01       		.uleb128 0x1
 10155 2a9a 51       		.byte	0x51
 10156 2a9b 02       		.uleb128 0x2
 10157 2a9c 75       		.byte	0x75
 10158 2a9d 00       		.sleb128 0
 10159 2a9e 24       		.uleb128 0x24
 10160 2a9f 01       		.uleb128 0x1
 10161 2aa0 52       		.byte	0x52
 10162 2aa1 02       		.uleb128 0x2
 10163 2aa2 09       		.byte	0x9
 10164 2aa3 FF       		.byte	0xff
 10165 2aa4 00       		.byte	0
 10166 2aa5 23       		.uleb128 0x23
 10167 2aa6 66010000 		.4byte	.LVL174
 10168 2aaa 792C0000 		.4byte	0x2c79
 10169 2aae B92A0000 		.4byte	0x2ab9
 10170 2ab2 24       		.uleb128 0x24
 10171 2ab3 01       		.uleb128 0x1
 10172 2ab4 51       		.byte	0x51
 10173 2ab5 02       		.uleb128 0x2
 10174 2ab6 76       		.byte	0x76
 10175 2ab7 00       		.sleb128 0
 10176 2ab8 00       		.byte	0
 10177 2ab9 23       		.uleb128 0x23
 10178 2aba 7C010000 		.4byte	.LVL175
 10179 2abe 912C0000 		.4byte	0x2c91
 10180 2ac2 D92A0000 		.4byte	0x2ad9
 10181 2ac6 24       		.uleb128 0x24
 10182 2ac7 01       		.uleb128 0x1
 10183 2ac8 50       		.byte	0x50
 10184 2ac9 02       		.uleb128 0x2
 10185 2aca 74       		.byte	0x74
 10186 2acb 00       		.sleb128 0
 10187 2acc 24       		.uleb128 0x24
 10188 2acd 01       		.uleb128 0x1
 10189 2ace 51       		.byte	0x51
 10190 2acf 02       		.uleb128 0x2
 10191 2ad0 08       		.byte	0x8
 10192 2ad1 41       		.byte	0x41
 10193 2ad2 24       		.uleb128 0x24
 10194 2ad3 01       		.uleb128 0x1
 10195 2ad4 52       		.byte	0x52
 10196 2ad5 02       		.uleb128 0x2
 10197 2ad6 09       		.byte	0x9
 10198 2ad7 FF       		.byte	0xff
 10199 2ad8 00       		.byte	0
 10200 2ad9 23       		.uleb128 0x23
 10201 2ada 88010000 		.4byte	.LVL177
 10202 2ade 792C0000 		.4byte	0x2c79
 10203 2ae2 ED2A0000 		.4byte	0x2aed
 10204 2ae6 24       		.uleb128 0x24
 10205 2ae7 01       		.uleb128 0x1
 10206 2ae8 51       		.byte	0x51
 10207 2ae9 02       		.uleb128 0x2
 10208 2aea 76       		.byte	0x76
 10209 2aeb 00       		.sleb128 0
 10210 2aec 00       		.byte	0
ARM GAS  /tmp/ccCget5K.s 			page 181


 10211 2aed 23       		.uleb128 0x23
 10212 2aee B4010000 		.4byte	.LVL180
 10213 2af2 792C0000 		.4byte	0x2c79
 10214 2af6 042B0000 		.4byte	0x2b04
 10215 2afa 24       		.uleb128 0x24
 10216 2afb 01       		.uleb128 0x1
 10217 2afc 51       		.byte	0x51
 10218 2afd 05       		.uleb128 0x5
 10219 2afe 03       		.byte	0x3
 10220 2aff 6C000000 		.4byte	.LC6
 10221 2b03 00       		.byte	0
 10222 2b04 23       		.uleb128 0x23
 10223 2b05 D8010000 		.4byte	.LVL184
 10224 2b09 792C0000 		.4byte	0x2c79
 10225 2b0d 1B2B0000 		.4byte	0x2b1b
 10226 2b11 24       		.uleb128 0x24
 10227 2b12 01       		.uleb128 0x1
 10228 2b13 51       		.byte	0x51
 10229 2b14 05       		.uleb128 0x5
 10230 2b15 03       		.byte	0x3
 10231 2b16 78000000 		.4byte	.LC7
 10232 2b1a 00       		.byte	0
 10233 2b1b 23       		.uleb128 0x23
 10234 2b1c 00020000 		.4byte	.LVL190
 10235 2b20 792C0000 		.4byte	0x2c79
 10236 2b24 322B0000 		.4byte	0x2b32
 10237 2b28 24       		.uleb128 0x24
 10238 2b29 01       		.uleb128 0x1
 10239 2b2a 51       		.byte	0x51
 10240 2b2b 05       		.uleb128 0x5
 10241 2b2c 03       		.byte	0x3
 10242 2b2d 84000000 		.4byte	.LC8
 10243 2b31 00       		.byte	0
 10244 2b32 23       		.uleb128 0x23
 10245 2b33 22020000 		.4byte	.LVL195
 10246 2b37 B52C0000 		.4byte	0x2cb5
 10247 2b3b 522B0000 		.4byte	0x2b52
 10248 2b3f 24       		.uleb128 0x24
 10249 2b40 01       		.uleb128 0x1
 10250 2b41 50       		.byte	0x50
 10251 2b42 02       		.uleb128 0x2
 10252 2b43 74       		.byte	0x74
 10253 2b44 00       		.sleb128 0
 10254 2b45 24       		.uleb128 0x24
 10255 2b46 01       		.uleb128 0x1
 10256 2b47 51       		.byte	0x51
 10257 2b48 02       		.uleb128 0x2
 10258 2b49 91       		.byte	0x91
 10259 2b4a 64       		.sleb128 -28
 10260 2b4b 24       		.uleb128 0x24
 10261 2b4c 01       		.uleb128 0x1
 10262 2b4d 52       		.byte	0x52
 10263 2b4e 02       		.uleb128 0x2
 10264 2b4f 09       		.byte	0x9
 10265 2b50 FF       		.byte	0xff
 10266 2b51 00       		.byte	0
 10267 2b52 23       		.uleb128 0x23
ARM GAS  /tmp/ccCget5K.s 			page 182


 10268 2b53 2E020000 		.4byte	.LVL197
 10269 2b57 792C0000 		.4byte	0x2c79
 10270 2b5b 662B0000 		.4byte	0x2b66
 10271 2b5f 24       		.uleb128 0x24
 10272 2b60 01       		.uleb128 0x1
 10273 2b61 51       		.byte	0x51
 10274 2b62 02       		.uleb128 0x2
 10275 2b63 76       		.byte	0x76
 10276 2b64 00       		.sleb128 0
 10277 2b65 00       		.byte	0
 10278 2b66 3B       		.uleb128 0x3b
 10279 2b67 3C020000 		.4byte	.LVL198
 10280 2b6b E52C0000 		.4byte	0x2ce5
 10281 2b6f 23       		.uleb128 0x23
 10282 2b70 48020000 		.4byte	.LVL200
 10283 2b74 F12C0000 		.4byte	0x2cf1
 10284 2b78 8F2B0000 		.4byte	0x2b8f
 10285 2b7c 24       		.uleb128 0x24
 10286 2b7d 01       		.uleb128 0x1
 10287 2b7e 50       		.byte	0x50
 10288 2b7f 05       		.uleb128 0x5
 10289 2b80 03       		.byte	0x3
 10290 2b81 B0000000 		.4byte	.LC10
 10291 2b85 24       		.uleb128 0x24
 10292 2b86 01       		.uleb128 0x1
 10293 2b87 51       		.byte	0x51
 10294 2b88 05       		.uleb128 0x5
 10295 2b89 03       		.byte	0x3
 10296 2b8a 9C000000 		.4byte	.LC9
 10297 2b8e 00       		.byte	0
 10298 2b8f 23       		.uleb128 0x23
 10299 2b90 5E020000 		.4byte	.LVL201
 10300 2b94 6D2C0000 		.4byte	0x2c6d
 10301 2b98 AF2B0000 		.4byte	0x2baf
 10302 2b9c 24       		.uleb128 0x24
 10303 2b9d 01       		.uleb128 0x1
 10304 2b9e 50       		.byte	0x50
 10305 2b9f 02       		.uleb128 0x2
 10306 2ba0 74       		.byte	0x74
 10307 2ba1 00       		.sleb128 0
 10308 2ba2 24       		.uleb128 0x24
 10309 2ba3 01       		.uleb128 0x1
 10310 2ba4 51       		.byte	0x51
 10311 2ba5 02       		.uleb128 0x2
 10312 2ba6 08       		.byte	0x8
 10313 2ba7 46       		.byte	0x46
 10314 2ba8 24       		.uleb128 0x24
 10315 2ba9 01       		.uleb128 0x1
 10316 2baa 52       		.byte	0x52
 10317 2bab 02       		.uleb128 0x2
 10318 2bac 09       		.byte	0x9
 10319 2bad FF       		.byte	0xff
 10320 2bae 00       		.byte	0
 10321 2baf 23       		.uleb128 0x23
 10322 2bb0 6A020000 		.4byte	.LVL203
 10323 2bb4 792C0000 		.4byte	0x2c79
 10324 2bb8 C32B0000 		.4byte	0x2bc3
ARM GAS  /tmp/ccCget5K.s 			page 183


 10325 2bbc 24       		.uleb128 0x24
 10326 2bbd 01       		.uleb128 0x1
 10327 2bbe 51       		.byte	0x51
 10328 2bbf 02       		.uleb128 0x2
 10329 2bc0 76       		.byte	0x76
 10330 2bc1 00       		.sleb128 0
 10331 2bc2 00       		.byte	0
 10332 2bc3 23       		.uleb128 0x23
 10333 2bc4 7C020000 		.4byte	.LVL204
 10334 2bc8 B52C0000 		.4byte	0x2cb5
 10335 2bcc E32B0000 		.4byte	0x2be3
 10336 2bd0 24       		.uleb128 0x24
 10337 2bd1 01       		.uleb128 0x1
 10338 2bd2 50       		.byte	0x50
 10339 2bd3 02       		.uleb128 0x2
 10340 2bd4 74       		.byte	0x74
 10341 2bd5 00       		.sleb128 0
 10342 2bd6 24       		.uleb128 0x24
 10343 2bd7 01       		.uleb128 0x1
 10344 2bd8 51       		.byte	0x51
 10345 2bd9 02       		.uleb128 0x2
 10346 2bda 91       		.byte	0x91
 10347 2bdb 64       		.sleb128 -28
 10348 2bdc 24       		.uleb128 0x24
 10349 2bdd 01       		.uleb128 0x1
 10350 2bde 52       		.byte	0x52
 10351 2bdf 02       		.uleb128 0x2
 10352 2be0 09       		.byte	0x9
 10353 2be1 FF       		.byte	0xff
 10354 2be2 00       		.byte	0
 10355 2be3 23       		.uleb128 0x23
 10356 2be4 88020000 		.4byte	.LVL206
 10357 2be8 792C0000 		.4byte	0x2c79
 10358 2bec F72B0000 		.4byte	0x2bf7
 10359 2bf0 24       		.uleb128 0x24
 10360 2bf1 01       		.uleb128 0x1
 10361 2bf2 51       		.byte	0x51
 10362 2bf3 02       		.uleb128 0x2
 10363 2bf4 76       		.byte	0x76
 10364 2bf5 00       		.sleb128 0
 10365 2bf6 00       		.byte	0
 10366 2bf7 23       		.uleb128 0x23
 10367 2bf8 B0020000 		.4byte	.LVL209
 10368 2bfc 792C0000 		.4byte	0x2c79
 10369 2c00 162C0000 		.4byte	0x2c16
 10370 2c04 24       		.uleb128 0x24
 10371 2c05 01       		.uleb128 0x1
 10372 2c06 50       		.byte	0x50
 10373 2c07 04       		.uleb128 0x4
 10374 2c08 77       		.byte	0x77
 10375 2c09 00       		.sleb128 0
 10376 2c0a 30       		.byte	0x30
 10377 2c0b 29       		.byte	0x29
 10378 2c0c 24       		.uleb128 0x24
 10379 2c0d 01       		.uleb128 0x1
 10380 2c0e 51       		.byte	0x51
 10381 2c0f 05       		.uleb128 0x5
ARM GAS  /tmp/ccCget5K.s 			page 184


 10382 2c10 03       		.byte	0x3
 10383 2c11 0C000000 		.4byte	.LC2
 10384 2c15 00       		.byte	0
 10385 2c16 23       		.uleb128 0x23
 10386 2c17 CC020000 		.4byte	.LVL213
 10387 2c1b 792C0000 		.4byte	0x2c79
 10388 2c1f 2D2C0000 		.4byte	0x2c2d
 10389 2c23 24       		.uleb128 0x24
 10390 2c24 01       		.uleb128 0x1
 10391 2c25 51       		.byte	0x51
 10392 2c26 05       		.uleb128 0x5
 10393 2c27 03       		.byte	0x3
 10394 2c28 18000000 		.4byte	.LC3
 10395 2c2c 00       		.byte	0
 10396 2c2d 23       		.uleb128 0x23
 10397 2c2e E6020000 		.4byte	.LVL216
 10398 2c32 792C0000 		.4byte	0x2c79
 10399 2c36 442C0000 		.4byte	0x2c44
 10400 2c3a 24       		.uleb128 0x24
 10401 2c3b 01       		.uleb128 0x1
 10402 2c3c 51       		.byte	0x51
 10403 2c3d 05       		.uleb128 0x5
 10404 2c3e 03       		.byte	0x3
 10405 2c3f 24000000 		.4byte	.LC4
 10406 2c43 00       		.byte	0
 10407 2c44 25       		.uleb128 0x25
 10408 2c45 FC020000 		.4byte	.LVL217
 10409 2c49 792C0000 		.4byte	0x2c79
 10410 2c4d 24       		.uleb128 0x24
 10411 2c4e 01       		.uleb128 0x1
 10412 2c4f 51       		.byte	0x51
 10413 2c50 05       		.uleb128 0x5
 10414 2c51 03       		.byte	0x3
 10415 2c52 48000000 		.4byte	.LC5
 10416 2c56 00       		.byte	0
 10417 2c57 00       		.byte	0
 10418 2c58 00       		.byte	0
 10419 2c59 25       		.uleb128 0x25
 10420 2c5a 30000000 		.4byte	.LVL132
 10421 2c5e 792C0000 		.4byte	0x2c79
 10422 2c62 24       		.uleb128 0x24
 10423 2c63 01       		.uleb128 0x1
 10424 2c64 51       		.byte	0x51
 10425 2c65 05       		.uleb128 0x5
 10426 2c66 03       		.byte	0x3
 10427 2c67 00000000 		.4byte	.LC1
 10428 2c6b 00       		.byte	0
 10429 2c6c 00       		.byte	0
 10430 2c6d 3C       		.uleb128 0x3c
 10431 2c6e 00040000 		.4byte	.LASF102
 10432 2c72 00040000 		.4byte	.LASF102
 10433 2c76 05       		.byte	0x5
 10434 2c77 6F       		.byte	0x6f
 10435 2c78 09       		.byte	0x9
 10436 2c79 3C       		.uleb128 0x3c
 10437 2c7a CA050000 		.4byte	.LASF103
 10438 2c7e CA050000 		.4byte	.LASF103
ARM GAS  /tmp/ccCget5K.s 			page 185


 10439 2c82 0F       		.byte	0xf
 10440 2c83 A6       		.byte	0xa6
 10441 2c84 08       		.byte	0x8
 10442 2c85 3C       		.uleb128 0x3c
 10443 2c86 17000000 		.4byte	.LASF104
 10444 2c8a 17000000 		.4byte	.LASF104
 10445 2c8e 05       		.byte	0x5
 10446 2c8f 71       		.byte	0x71
 10447 2c90 09       		.byte	0x9
 10448 2c91 3C       		.uleb128 0x3c
 10449 2c92 4B050000 		.4byte	.LASF105
 10450 2c96 4B050000 		.4byte	.LASF105
 10451 2c9a 05       		.byte	0x5
 10452 2c9b 72       		.byte	0x72
 10453 2c9c 09       		.byte	0x9
 10454 2c9d 3C       		.uleb128 0x3c
 10455 2c9e 37000000 		.4byte	.LASF106
 10456 2ca2 37000000 		.4byte	.LASF106
 10457 2ca6 05       		.byte	0x5
 10458 2ca7 74       		.byte	0x74
 10459 2ca8 09       		.byte	0x9
 10460 2ca9 3C       		.uleb128 0x3c
 10461 2caa 3E030000 		.4byte	.LASF107
 10462 2cae 3E030000 		.4byte	.LASF107
 10463 2cb2 05       		.byte	0x5
 10464 2cb3 6D       		.byte	0x6d
 10465 2cb4 08       		.byte	0x8
 10466 2cb5 3C       		.uleb128 0x3c
 10467 2cb6 60020000 		.4byte	.LASF108
 10468 2cba 60020000 		.4byte	.LASF108
 10469 2cbe 05       		.byte	0x5
 10470 2cbf 75       		.byte	0x75
 10471 2cc0 09       		.byte	0x9
 10472 2cc1 3C       		.uleb128 0x3c
 10473 2cc2 CF010000 		.4byte	.LASF109
 10474 2cc6 CF010000 		.4byte	.LASF109
 10475 2cca 05       		.byte	0x5
 10476 2ccb 77       		.byte	0x77
 10477 2ccc 09       		.byte	0x9
 10478 2ccd 3C       		.uleb128 0x3c
 10479 2cce 1B050000 		.4byte	.LASF110
 10480 2cd2 1B050000 		.4byte	.LASF110
 10481 2cd6 05       		.byte	0x5
 10482 2cd7 6C       		.byte	0x6c
 10483 2cd8 08       		.byte	0x8
 10484 2cd9 3C       		.uleb128 0x3c
 10485 2cda BA010000 		.4byte	.LASF111
 10486 2cde BA010000 		.4byte	.LASF111
 10487 2ce2 05       		.byte	0x5
 10488 2ce3 6E       		.byte	0x6e
 10489 2ce4 08       		.byte	0x8
 10490 2ce5 3C       		.uleb128 0x3c
 10491 2ce6 BD000000 		.4byte	.LASF112
 10492 2cea BD000000 		.4byte	.LASF112
 10493 2cee 0F       		.byte	0xf
 10494 2cef AE       		.byte	0xae
 10495 2cf0 08       		.byte	0x8
ARM GAS  /tmp/ccCget5K.s 			page 186


 10496 2cf1 3C       		.uleb128 0x3c
 10497 2cf2 5B030000 		.4byte	.LASF113
 10498 2cf6 5B030000 		.4byte	.LASF113
 10499 2cfa 0F       		.byte	0xf
 10500 2cfb A7       		.byte	0xa7
 10501 2cfc 08       		.byte	0x8
 10502 2cfd 00       		.byte	0
 10503              		.section	.debug_abbrev,"",%progbits
 10504              	.Ldebug_abbrev0:
 10505 0000 01       		.uleb128 0x1
 10506 0001 11       		.uleb128 0x11
 10507 0002 01       		.byte	0x1
 10508 0003 25       		.uleb128 0x25
 10509 0004 0E       		.uleb128 0xe
 10510 0005 13       		.uleb128 0x13
 10511 0006 0B       		.uleb128 0xb
 10512 0007 03       		.uleb128 0x3
 10513 0008 0E       		.uleb128 0xe
 10514 0009 1B       		.uleb128 0x1b
 10515 000a 0E       		.uleb128 0xe
 10516 000b 55       		.uleb128 0x55
 10517 000c 17       		.uleb128 0x17
 10518 000d 11       		.uleb128 0x11
 10519 000e 01       		.uleb128 0x1
 10520 000f 10       		.uleb128 0x10
 10521 0010 17       		.uleb128 0x17
 10522 0011 00       		.byte	0
 10523 0012 00       		.byte	0
 10524 0013 02       		.uleb128 0x2
 10525 0014 24       		.uleb128 0x24
 10526 0015 00       		.byte	0
 10527 0016 0B       		.uleb128 0xb
 10528 0017 0B       		.uleb128 0xb
 10529 0018 3E       		.uleb128 0x3e
 10530 0019 0B       		.uleb128 0xb
 10531 001a 03       		.uleb128 0x3
 10532 001b 08       		.uleb128 0x8
 10533 001c 00       		.byte	0
 10534 001d 00       		.byte	0
 10535 001e 03       		.uleb128 0x3
 10536 001f 16       		.uleb128 0x16
 10537 0020 00       		.byte	0
 10538 0021 03       		.uleb128 0x3
 10539 0022 0E       		.uleb128 0xe
 10540 0023 3A       		.uleb128 0x3a
 10541 0024 0B       		.uleb128 0xb
 10542 0025 3B       		.uleb128 0x3b
 10543 0026 0B       		.uleb128 0xb
 10544 0027 39       		.uleb128 0x39
 10545 0028 0B       		.uleb128 0xb
 10546 0029 49       		.uleb128 0x49
 10547 002a 13       		.uleb128 0x13
 10548 002b 00       		.byte	0
 10549 002c 00       		.byte	0
 10550 002d 04       		.uleb128 0x4
 10551 002e 24       		.uleb128 0x24
 10552 002f 00       		.byte	0
ARM GAS  /tmp/ccCget5K.s 			page 187


 10553 0030 0B       		.uleb128 0xb
 10554 0031 0B       		.uleb128 0xb
 10555 0032 3E       		.uleb128 0x3e
 10556 0033 0B       		.uleb128 0xb
 10557 0034 03       		.uleb128 0x3
 10558 0035 0E       		.uleb128 0xe
 10559 0036 00       		.byte	0
 10560 0037 00       		.byte	0
 10561 0038 05       		.uleb128 0x5
 10562 0039 13       		.uleb128 0x13
 10563 003a 01       		.byte	0x1
 10564 003b 03       		.uleb128 0x3
 10565 003c 0E       		.uleb128 0xe
 10566 003d 0B       		.uleb128 0xb
 10567 003e 0B       		.uleb128 0xb
 10568 003f 3A       		.uleb128 0x3a
 10569 0040 0B       		.uleb128 0xb
 10570 0041 3B       		.uleb128 0x3b
 10571 0042 0B       		.uleb128 0xb
 10572 0043 39       		.uleb128 0x39
 10573 0044 0B       		.uleb128 0xb
 10574 0045 01       		.uleb128 0x1
 10575 0046 13       		.uleb128 0x13
 10576 0047 00       		.byte	0
 10577 0048 00       		.byte	0
 10578 0049 06       		.uleb128 0x6
 10579 004a 0D       		.uleb128 0xd
 10580 004b 00       		.byte	0
 10581 004c 03       		.uleb128 0x3
 10582 004d 0E       		.uleb128 0xe
 10583 004e 3A       		.uleb128 0x3a
 10584 004f 0B       		.uleb128 0xb
 10585 0050 3B       		.uleb128 0x3b
 10586 0051 0B       		.uleb128 0xb
 10587 0052 39       		.uleb128 0x39
 10588 0053 0B       		.uleb128 0xb
 10589 0054 49       		.uleb128 0x49
 10590 0055 13       		.uleb128 0x13
 10591 0056 38       		.uleb128 0x38
 10592 0057 0B       		.uleb128 0xb
 10593 0058 00       		.byte	0
 10594 0059 00       		.byte	0
 10595 005a 07       		.uleb128 0x7
 10596 005b 0D       		.uleb128 0xd
 10597 005c 00       		.byte	0
 10598 005d 03       		.uleb128 0x3
 10599 005e 08       		.uleb128 0x8
 10600 005f 3A       		.uleb128 0x3a
 10601 0060 0B       		.uleb128 0xb
 10602 0061 3B       		.uleb128 0x3b
 10603 0062 0B       		.uleb128 0xb
 10604 0063 39       		.uleb128 0x39
 10605 0064 0B       		.uleb128 0xb
 10606 0065 49       		.uleb128 0x49
 10607 0066 13       		.uleb128 0x13
 10608 0067 38       		.uleb128 0x38
 10609 0068 0B       		.uleb128 0xb
ARM GAS  /tmp/ccCget5K.s 			page 188


 10610 0069 00       		.byte	0
 10611 006a 00       		.byte	0
 10612 006b 08       		.uleb128 0x8
 10613 006c 0D       		.uleb128 0xd
 10614 006d 00       		.byte	0
 10615 006e 03       		.uleb128 0x3
 10616 006f 08       		.uleb128 0x8
 10617 0070 3A       		.uleb128 0x3a
 10618 0071 0B       		.uleb128 0xb
 10619 0072 3B       		.uleb128 0x3b
 10620 0073 05       		.uleb128 0x5
 10621 0074 39       		.uleb128 0x39
 10622 0075 0B       		.uleb128 0xb
 10623 0076 49       		.uleb128 0x49
 10624 0077 13       		.uleb128 0x13
 10625 0078 38       		.uleb128 0x38
 10626 0079 0B       		.uleb128 0xb
 10627 007a 00       		.byte	0
 10628 007b 00       		.byte	0
 10629 007c 09       		.uleb128 0x9
 10630 007d 0D       		.uleb128 0xd
 10631 007e 00       		.byte	0
 10632 007f 03       		.uleb128 0x3
 10633 0080 0E       		.uleb128 0xe
 10634 0081 3A       		.uleb128 0x3a
 10635 0082 0B       		.uleb128 0xb
 10636 0083 3B       		.uleb128 0x3b
 10637 0084 05       		.uleb128 0x5
 10638 0085 39       		.uleb128 0x39
 10639 0086 0B       		.uleb128 0xb
 10640 0087 49       		.uleb128 0x49
 10641 0088 13       		.uleb128 0x13
 10642 0089 38       		.uleb128 0x38
 10643 008a 0B       		.uleb128 0xb
 10644 008b 00       		.byte	0
 10645 008c 00       		.byte	0
 10646 008d 0A       		.uleb128 0xa
 10647 008e 0F       		.uleb128 0xf
 10648 008f 00       		.byte	0
 10649 0090 0B       		.uleb128 0xb
 10650 0091 0B       		.uleb128 0xb
 10651 0092 49       		.uleb128 0x49
 10652 0093 13       		.uleb128 0x13
 10653 0094 00       		.byte	0
 10654 0095 00       		.byte	0
 10655 0096 0B       		.uleb128 0xb
 10656 0097 0F       		.uleb128 0xf
 10657 0098 00       		.byte	0
 10658 0099 0B       		.uleb128 0xb
 10659 009a 0B       		.uleb128 0xb
 10660 009b 00       		.byte	0
 10661 009c 00       		.byte	0
 10662 009d 0C       		.uleb128 0xc
 10663 009e 13       		.uleb128 0x13
 10664 009f 01       		.byte	0x1
 10665 00a0 03       		.uleb128 0x3
 10666 00a1 0E       		.uleb128 0xe
ARM GAS  /tmp/ccCget5K.s 			page 189


 10667 00a2 0B       		.uleb128 0xb
 10668 00a3 0B       		.uleb128 0xb
 10669 00a4 3A       		.uleb128 0x3a
 10670 00a5 0B       		.uleb128 0xb
 10671 00a6 3B       		.uleb128 0x3b
 10672 00a7 05       		.uleb128 0x5
 10673 00a8 39       		.uleb128 0x39
 10674 00a9 0B       		.uleb128 0xb
 10675 00aa 01       		.uleb128 0x1
 10676 00ab 13       		.uleb128 0x13
 10677 00ac 00       		.byte	0
 10678 00ad 00       		.byte	0
 10679 00ae 0D       		.uleb128 0xd
 10680 00af 17       		.uleb128 0x17
 10681 00b0 01       		.byte	0x1
 10682 00b1 0B       		.uleb128 0xb
 10683 00b2 0B       		.uleb128 0xb
 10684 00b3 3A       		.uleb128 0x3a
 10685 00b4 0B       		.uleb128 0xb
 10686 00b5 3B       		.uleb128 0x3b
 10687 00b6 0B       		.uleb128 0xb
 10688 00b7 39       		.uleb128 0x39
 10689 00b8 0B       		.uleb128 0xb
 10690 00b9 01       		.uleb128 0x1
 10691 00ba 13       		.uleb128 0x13
 10692 00bb 00       		.byte	0
 10693 00bc 00       		.byte	0
 10694 00bd 0E       		.uleb128 0xe
 10695 00be 0D       		.uleb128 0xd
 10696 00bf 00       		.byte	0
 10697 00c0 03       		.uleb128 0x3
 10698 00c1 0E       		.uleb128 0xe
 10699 00c2 3A       		.uleb128 0x3a
 10700 00c3 0B       		.uleb128 0xb
 10701 00c4 3B       		.uleb128 0x3b
 10702 00c5 0B       		.uleb128 0xb
 10703 00c6 39       		.uleb128 0x39
 10704 00c7 0B       		.uleb128 0xb
 10705 00c8 49       		.uleb128 0x49
 10706 00c9 13       		.uleb128 0x13
 10707 00ca 00       		.byte	0
 10708 00cb 00       		.byte	0
 10709 00cc 0F       		.uleb128 0xf
 10710 00cd 0D       		.uleb128 0xd
 10711 00ce 00       		.byte	0
 10712 00cf 03       		.uleb128 0x3
 10713 00d0 0E       		.uleb128 0xe
 10714 00d1 3A       		.uleb128 0x3a
 10715 00d2 0B       		.uleb128 0xb
 10716 00d3 3B       		.uleb128 0x3b
 10717 00d4 05       		.uleb128 0x5
 10718 00d5 39       		.uleb128 0x39
 10719 00d6 0B       		.uleb128 0xb
 10720 00d7 49       		.uleb128 0x49
 10721 00d8 13       		.uleb128 0x13
 10722 00d9 00       		.byte	0
 10723 00da 00       		.byte	0
ARM GAS  /tmp/ccCget5K.s 			page 190


 10724 00db 10       		.uleb128 0x10
 10725 00dc 26       		.uleb128 0x26
 10726 00dd 00       		.byte	0
 10727 00de 49       		.uleb128 0x49
 10728 00df 13       		.uleb128 0x13
 10729 00e0 00       		.byte	0
 10730 00e1 00       		.byte	0
 10731 00e2 11       		.uleb128 0x11
 10732 00e3 13       		.uleb128 0x13
 10733 00e4 01       		.byte	0x1
 10734 00e5 0B       		.uleb128 0xb
 10735 00e6 0B       		.uleb128 0xb
 10736 00e7 3A       		.uleb128 0x3a
 10737 00e8 0B       		.uleb128 0xb
 10738 00e9 3B       		.uleb128 0x3b
 10739 00ea 0B       		.uleb128 0xb
 10740 00eb 39       		.uleb128 0x39
 10741 00ec 0B       		.uleb128 0xb
 10742 00ed 01       		.uleb128 0x1
 10743 00ee 13       		.uleb128 0x13
 10744 00ef 00       		.byte	0
 10745 00f0 00       		.byte	0
 10746 00f1 12       		.uleb128 0x12
 10747 00f2 15       		.uleb128 0x15
 10748 00f3 00       		.byte	0
 10749 00f4 27       		.uleb128 0x27
 10750 00f5 19       		.uleb128 0x19
 10751 00f6 00       		.byte	0
 10752 00f7 00       		.byte	0
 10753 00f8 13       		.uleb128 0x13
 10754 00f9 34       		.uleb128 0x34
 10755 00fa 00       		.byte	0
 10756 00fb 03       		.uleb128 0x3
 10757 00fc 0E       		.uleb128 0xe
 10758 00fd 3A       		.uleb128 0x3a
 10759 00fe 0B       		.uleb128 0xb
 10760 00ff 3B       		.uleb128 0x3b
 10761 0100 0B       		.uleb128 0xb
 10762 0101 39       		.uleb128 0x39
 10763 0102 0B       		.uleb128 0xb
 10764 0103 49       		.uleb128 0x49
 10765 0104 13       		.uleb128 0x13
 10766 0105 3F       		.uleb128 0x3f
 10767 0106 19       		.uleb128 0x19
 10768 0107 3C       		.uleb128 0x3c
 10769 0108 19       		.uleb128 0x19
 10770 0109 00       		.byte	0
 10771 010a 00       		.byte	0
 10772 010b 14       		.uleb128 0x14
 10773 010c 01       		.uleb128 0x1
 10774 010d 01       		.byte	0x1
 10775 010e 49       		.uleb128 0x49
 10776 010f 13       		.uleb128 0x13
 10777 0110 01       		.uleb128 0x1
 10778 0111 13       		.uleb128 0x13
 10779 0112 00       		.byte	0
 10780 0113 00       		.byte	0
ARM GAS  /tmp/ccCget5K.s 			page 191


 10781 0114 15       		.uleb128 0x15
 10782 0115 21       		.uleb128 0x21
 10783 0116 00       		.byte	0
 10784 0117 00       		.byte	0
 10785 0118 00       		.byte	0
 10786 0119 16       		.uleb128 0x16
 10787 011a 21       		.uleb128 0x21
 10788 011b 00       		.byte	0
 10789 011c 49       		.uleb128 0x49
 10790 011d 13       		.uleb128 0x13
 10791 011e 2F       		.uleb128 0x2f
 10792 011f 0B       		.uleb128 0xb
 10793 0120 00       		.byte	0
 10794 0121 00       		.byte	0
 10795 0122 17       		.uleb128 0x17
 10796 0123 34       		.uleb128 0x34
 10797 0124 00       		.byte	0
 10798 0125 03       		.uleb128 0x3
 10799 0126 0E       		.uleb128 0xe
 10800 0127 3A       		.uleb128 0x3a
 10801 0128 0B       		.uleb128 0xb
 10802 0129 3B       		.uleb128 0x3b
 10803 012a 0B       		.uleb128 0xb
 10804 012b 39       		.uleb128 0x39
 10805 012c 0B       		.uleb128 0xb
 10806 012d 49       		.uleb128 0x49
 10807 012e 13       		.uleb128 0x13
 10808 012f 02       		.uleb128 0x2
 10809 0130 18       		.uleb128 0x18
 10810 0131 00       		.byte	0
 10811 0132 00       		.byte	0
 10812 0133 18       		.uleb128 0x18
 10813 0134 34       		.uleb128 0x34
 10814 0135 00       		.byte	0
 10815 0136 03       		.uleb128 0x3
 10816 0137 08       		.uleb128 0x8
 10817 0138 3A       		.uleb128 0x3a
 10818 0139 0B       		.uleb128 0xb
 10819 013a 3B       		.uleb128 0x3b
 10820 013b 0B       		.uleb128 0xb
 10821 013c 39       		.uleb128 0x39
 10822 013d 0B       		.uleb128 0xb
 10823 013e 49       		.uleb128 0x49
 10824 013f 13       		.uleb128 0x13
 10825 0140 02       		.uleb128 0x2
 10826 0141 18       		.uleb128 0x18
 10827 0142 00       		.byte	0
 10828 0143 00       		.byte	0
 10829 0144 19       		.uleb128 0x19
 10830 0145 34       		.uleb128 0x34
 10831 0146 00       		.byte	0
 10832 0147 03       		.uleb128 0x3
 10833 0148 0E       		.uleb128 0xe
 10834 0149 3A       		.uleb128 0x3a
 10835 014a 0B       		.uleb128 0xb
 10836 014b 3B       		.uleb128 0x3b
 10837 014c 05       		.uleb128 0x5
ARM GAS  /tmp/ccCget5K.s 			page 192


 10838 014d 39       		.uleb128 0x39
 10839 014e 0B       		.uleb128 0xb
 10840 014f 49       		.uleb128 0x49
 10841 0150 13       		.uleb128 0x13
 10842 0151 02       		.uleb128 0x2
 10843 0152 18       		.uleb128 0x18
 10844 0153 00       		.byte	0
 10845 0154 00       		.byte	0
 10846 0155 1A       		.uleb128 0x1a
 10847 0156 34       		.uleb128 0x34
 10848 0157 00       		.byte	0
 10849 0158 47       		.uleb128 0x47
 10850 0159 13       		.uleb128 0x13
 10851 015a 3A       		.uleb128 0x3a
 10852 015b 0B       		.uleb128 0xb
 10853 015c 3B       		.uleb128 0x3b
 10854 015d 05       		.uleb128 0x5
 10855 015e 39       		.uleb128 0x39
 10856 015f 0B       		.uleb128 0xb
 10857 0160 49       		.uleb128 0x49
 10858 0161 13       		.uleb128 0x13
 10859 0162 02       		.uleb128 0x2
 10860 0163 18       		.uleb128 0x18
 10861 0164 00       		.byte	0
 10862 0165 00       		.byte	0
 10863 0166 1B       		.uleb128 0x1b
 10864 0167 2E       		.uleb128 0x2e
 10865 0168 01       		.byte	0x1
 10866 0169 03       		.uleb128 0x3
 10867 016a 0E       		.uleb128 0xe
 10868 016b 3A       		.uleb128 0x3a
 10869 016c 0B       		.uleb128 0xb
 10870 016d 3B       		.uleb128 0x3b
 10871 016e 05       		.uleb128 0x5
 10872 016f 39       		.uleb128 0x39
 10873 0170 0B       		.uleb128 0xb
 10874 0171 27       		.uleb128 0x27
 10875 0172 19       		.uleb128 0x19
 10876 0173 11       		.uleb128 0x11
 10877 0174 01       		.uleb128 0x1
 10878 0175 12       		.uleb128 0x12
 10879 0176 06       		.uleb128 0x6
 10880 0177 40       		.uleb128 0x40
 10881 0178 18       		.uleb128 0x18
 10882 0179 9742     		.uleb128 0x2117
 10883 017b 19       		.uleb128 0x19
 10884 017c 01       		.uleb128 0x1
 10885 017d 13       		.uleb128 0x13
 10886 017e 00       		.byte	0
 10887 017f 00       		.byte	0
 10888 0180 1C       		.uleb128 0x1c
 10889 0181 34       		.uleb128 0x34
 10890 0182 00       		.byte	0
 10891 0183 03       		.uleb128 0x3
 10892 0184 0E       		.uleb128 0xe
 10893 0185 3A       		.uleb128 0x3a
 10894 0186 0B       		.uleb128 0xb
ARM GAS  /tmp/ccCget5K.s 			page 193


 10895 0187 3B       		.uleb128 0x3b
 10896 0188 05       		.uleb128 0x5
 10897 0189 39       		.uleb128 0x39
 10898 018a 0B       		.uleb128 0xb
 10899 018b 49       		.uleb128 0x49
 10900 018c 13       		.uleb128 0x13
 10901 018d 02       		.uleb128 0x2
 10902 018e 17       		.uleb128 0x17
 10903 018f B742     		.uleb128 0x2137
 10904 0191 17       		.uleb128 0x17
 10905 0192 00       		.byte	0
 10906 0193 00       		.byte	0
 10907 0194 1D       		.uleb128 0x1d
 10908 0195 34       		.uleb128 0x34
 10909 0196 00       		.byte	0
 10910 0197 03       		.uleb128 0x3
 10911 0198 08       		.uleb128 0x8
 10912 0199 3A       		.uleb128 0x3a
 10913 019a 0B       		.uleb128 0xb
 10914 019b 3B       		.uleb128 0x3b
 10915 019c 05       		.uleb128 0x5
 10916 019d 39       		.uleb128 0x39
 10917 019e 0B       		.uleb128 0xb
 10918 019f 49       		.uleb128 0x49
 10919 01a0 13       		.uleb128 0x13
 10920 01a1 02       		.uleb128 0x2
 10921 01a2 17       		.uleb128 0x17
 10922 01a3 B742     		.uleb128 0x2137
 10923 01a5 17       		.uleb128 0x17
 10924 01a6 00       		.byte	0
 10925 01a7 00       		.byte	0
 10926 01a8 1E       		.uleb128 0x1e
 10927 01a9 1D       		.uleb128 0x1d
 10928 01aa 01       		.byte	0x1
 10929 01ab 31       		.uleb128 0x31
 10930 01ac 13       		.uleb128 0x13
 10931 01ad 52       		.uleb128 0x52
 10932 01ae 01       		.uleb128 0x1
 10933 01af B842     		.uleb128 0x2138
 10934 01b1 05       		.uleb128 0x5
 10935 01b2 55       		.uleb128 0x55
 10936 01b3 17       		.uleb128 0x17
 10937 01b4 58       		.uleb128 0x58
 10938 01b5 0B       		.uleb128 0xb
 10939 01b6 59       		.uleb128 0x59
 10940 01b7 05       		.uleb128 0x5
 10941 01b8 57       		.uleb128 0x57
 10942 01b9 0B       		.uleb128 0xb
 10943 01ba 01       		.uleb128 0x1
 10944 01bb 13       		.uleb128 0x13
 10945 01bc 00       		.byte	0
 10946 01bd 00       		.byte	0
 10947 01be 1F       		.uleb128 0x1f
 10948 01bf 1D       		.uleb128 0x1d
 10949 01c0 01       		.byte	0x1
 10950 01c1 31       		.uleb128 0x31
 10951 01c2 13       		.uleb128 0x13
ARM GAS  /tmp/ccCget5K.s 			page 194


 10952 01c3 52       		.uleb128 0x52
 10953 01c4 01       		.uleb128 0x1
 10954 01c5 B842     		.uleb128 0x2138
 10955 01c7 05       		.uleb128 0x5
 10956 01c8 55       		.uleb128 0x55
 10957 01c9 17       		.uleb128 0x17
 10958 01ca 58       		.uleb128 0x58
 10959 01cb 0B       		.uleb128 0xb
 10960 01cc 59       		.uleb128 0x59
 10961 01cd 05       		.uleb128 0x5
 10962 01ce 57       		.uleb128 0x57
 10963 01cf 0B       		.uleb128 0xb
 10964 01d0 00       		.byte	0
 10965 01d1 00       		.byte	0
 10966 01d2 20       		.uleb128 0x20
 10967 01d3 1D       		.uleb128 0x1d
 10968 01d4 01       		.byte	0x1
 10969 01d5 31       		.uleb128 0x31
 10970 01d6 13       		.uleb128 0x13
 10971 01d7 52       		.uleb128 0x52
 10972 01d8 01       		.uleb128 0x1
 10973 01d9 B842     		.uleb128 0x2138
 10974 01db 05       		.uleb128 0x5
 10975 01dc 11       		.uleb128 0x11
 10976 01dd 01       		.uleb128 0x1
 10977 01de 12       		.uleb128 0x12
 10978 01df 06       		.uleb128 0x6
 10979 01e0 58       		.uleb128 0x58
 10980 01e1 0B       		.uleb128 0xb
 10981 01e2 59       		.uleb128 0x59
 10982 01e3 05       		.uleb128 0x5
 10983 01e4 57       		.uleb128 0x57
 10984 01e5 0B       		.uleb128 0xb
 10985 01e6 00       		.byte	0
 10986 01e7 00       		.byte	0
 10987 01e8 21       		.uleb128 0x21
 10988 01e9 05       		.uleb128 0x5
 10989 01ea 00       		.byte	0
 10990 01eb 31       		.uleb128 0x31
 10991 01ec 13       		.uleb128 0x13
 10992 01ed 02       		.uleb128 0x2
 10993 01ee 17       		.uleb128 0x17
 10994 01ef B742     		.uleb128 0x2137
 10995 01f1 17       		.uleb128 0x17
 10996 01f2 00       		.byte	0
 10997 01f3 00       		.byte	0
 10998 01f4 22       		.uleb128 0x22
 10999 01f5 0B       		.uleb128 0xb
 11000 01f6 01       		.byte	0x1
 11001 01f7 55       		.uleb128 0x55
 11002 01f8 17       		.uleb128 0x17
 11003 01f9 00       		.byte	0
 11004 01fa 00       		.byte	0
 11005 01fb 23       		.uleb128 0x23
 11006 01fc 898201   		.uleb128 0x4109
 11007 01ff 01       		.byte	0x1
 11008 0200 11       		.uleb128 0x11
ARM GAS  /tmp/ccCget5K.s 			page 195


 11009 0201 01       		.uleb128 0x1
 11010 0202 31       		.uleb128 0x31
 11011 0203 13       		.uleb128 0x13
 11012 0204 01       		.uleb128 0x1
 11013 0205 13       		.uleb128 0x13
 11014 0206 00       		.byte	0
 11015 0207 00       		.byte	0
 11016 0208 24       		.uleb128 0x24
 11017 0209 8A8201   		.uleb128 0x410a
 11018 020c 00       		.byte	0
 11019 020d 02       		.uleb128 0x2
 11020 020e 18       		.uleb128 0x18
 11021 020f 9142     		.uleb128 0x2111
 11022 0211 18       		.uleb128 0x18
 11023 0212 00       		.byte	0
 11024 0213 00       		.byte	0
 11025 0214 25       		.uleb128 0x25
 11026 0215 898201   		.uleb128 0x4109
 11027 0218 01       		.byte	0x1
 11028 0219 11       		.uleb128 0x11
 11029 021a 01       		.uleb128 0x1
 11030 021b 31       		.uleb128 0x31
 11031 021c 13       		.uleb128 0x13
 11032 021d 00       		.byte	0
 11033 021e 00       		.byte	0
 11034 021f 26       		.uleb128 0x26
 11035 0220 2E       		.uleb128 0x2e
 11036 0221 00       		.byte	0
 11037 0222 03       		.uleb128 0x3
 11038 0223 0E       		.uleb128 0xe
 11039 0224 3A       		.uleb128 0x3a
 11040 0225 0B       		.uleb128 0xb
 11041 0226 3B       		.uleb128 0x3b
 11042 0227 05       		.uleb128 0x5
 11043 0228 39       		.uleb128 0x39
 11044 0229 0B       		.uleb128 0xb
 11045 022a 27       		.uleb128 0x27
 11046 022b 19       		.uleb128 0x19
 11047 022c 00       		.byte	0
 11048 022d 00       		.byte	0
 11049 022e 27       		.uleb128 0x27
 11050 022f 2E       		.uleb128 0x2e
 11051 0230 01       		.byte	0x1
 11052 0231 03       		.uleb128 0x3
 11053 0232 0E       		.uleb128 0xe
 11054 0233 3A       		.uleb128 0x3a
 11055 0234 0B       		.uleb128 0xb
 11056 0235 3B       		.uleb128 0x3b
 11057 0236 0B       		.uleb128 0xb
 11058 0237 39       		.uleb128 0x39
 11059 0238 0B       		.uleb128 0xb
 11060 0239 27       		.uleb128 0x27
 11061 023a 19       		.uleb128 0x19
 11062 023b 20       		.uleb128 0x20
 11063 023c 0B       		.uleb128 0xb
 11064 023d 01       		.uleb128 0x1
 11065 023e 13       		.uleb128 0x13
ARM GAS  /tmp/ccCget5K.s 			page 196


 11066 023f 00       		.byte	0
 11067 0240 00       		.byte	0
 11068 0241 28       		.uleb128 0x28
 11069 0242 34       		.uleb128 0x34
 11070 0243 00       		.byte	0
 11071 0244 03       		.uleb128 0x3
 11072 0245 0E       		.uleb128 0xe
 11073 0246 3A       		.uleb128 0x3a
 11074 0247 0B       		.uleb128 0xb
 11075 0248 3B       		.uleb128 0x3b
 11076 0249 0B       		.uleb128 0xb
 11077 024a 39       		.uleb128 0x39
 11078 024b 0B       		.uleb128 0xb
 11079 024c 49       		.uleb128 0x49
 11080 024d 13       		.uleb128 0x13
 11081 024e 00       		.byte	0
 11082 024f 00       		.byte	0
 11083 0250 29       		.uleb128 0x29
 11084 0251 34       		.uleb128 0x34
 11085 0252 00       		.byte	0
 11086 0253 03       		.uleb128 0x3
 11087 0254 08       		.uleb128 0x8
 11088 0255 3A       		.uleb128 0x3a
 11089 0256 0B       		.uleb128 0xb
 11090 0257 3B       		.uleb128 0x3b
 11091 0258 0B       		.uleb128 0xb
 11092 0259 39       		.uleb128 0x39
 11093 025a 0B       		.uleb128 0xb
 11094 025b 49       		.uleb128 0x49
 11095 025c 13       		.uleb128 0x13
 11096 025d 00       		.byte	0
 11097 025e 00       		.byte	0
 11098 025f 2A       		.uleb128 0x2a
 11099 0260 2E       		.uleb128 0x2e
 11100 0261 00       		.byte	0
 11101 0262 03       		.uleb128 0x3
 11102 0263 0E       		.uleb128 0xe
 11103 0264 3A       		.uleb128 0x3a
 11104 0265 0B       		.uleb128 0xb
 11105 0266 3B       		.uleb128 0x3b
 11106 0267 0B       		.uleb128 0xb
 11107 0268 39       		.uleb128 0x39
 11108 0269 0B       		.uleb128 0xb
 11109 026a 27       		.uleb128 0x27
 11110 026b 19       		.uleb128 0x19
 11111 026c 00       		.byte	0
 11112 026d 00       		.byte	0
 11113 026e 2B       		.uleb128 0x2b
 11114 026f 2E       		.uleb128 0x2e
 11115 0270 00       		.byte	0
 11116 0271 03       		.uleb128 0x3
 11117 0272 0E       		.uleb128 0xe
 11118 0273 3A       		.uleb128 0x3a
 11119 0274 0B       		.uleb128 0xb
 11120 0275 3B       		.uleb128 0x3b
 11121 0276 0B       		.uleb128 0xb
 11122 0277 39       		.uleb128 0x39
ARM GAS  /tmp/ccCget5K.s 			page 197


 11123 0278 0B       		.uleb128 0xb
 11124 0279 27       		.uleb128 0x27
 11125 027a 19       		.uleb128 0x19
 11126 027b 20       		.uleb128 0x20
 11127 027c 0B       		.uleb128 0xb
 11128 027d 00       		.byte	0
 11129 027e 00       		.byte	0
 11130 027f 2C       		.uleb128 0x2c
 11131 0280 2E       		.uleb128 0x2e
 11132 0281 00       		.byte	0
 11133 0282 03       		.uleb128 0x3
 11134 0283 0E       		.uleb128 0xe
 11135 0284 3A       		.uleb128 0x3a
 11136 0285 0B       		.uleb128 0xb
 11137 0286 3B       		.uleb128 0x3b
 11138 0287 05       		.uleb128 0x5
 11139 0288 39       		.uleb128 0x39
 11140 0289 0B       		.uleb128 0xb
 11141 028a 27       		.uleb128 0x27
 11142 028b 19       		.uleb128 0x19
 11143 028c 20       		.uleb128 0x20
 11144 028d 0B       		.uleb128 0xb
 11145 028e 00       		.byte	0
 11146 028f 00       		.byte	0
 11147 0290 2D       		.uleb128 0x2d
 11148 0291 05       		.uleb128 0x5
 11149 0292 00       		.byte	0
 11150 0293 03       		.uleb128 0x3
 11151 0294 08       		.uleb128 0x8
 11152 0295 3A       		.uleb128 0x3a
 11153 0296 0B       		.uleb128 0xb
 11154 0297 3B       		.uleb128 0x3b
 11155 0298 0B       		.uleb128 0xb
 11156 0299 39       		.uleb128 0x39
 11157 029a 0B       		.uleb128 0xb
 11158 029b 49       		.uleb128 0x49
 11159 029c 13       		.uleb128 0x13
 11160 029d 00       		.byte	0
 11161 029e 00       		.byte	0
 11162 029f 2E       		.uleb128 0x2e
 11163 02a0 2E       		.uleb128 0x2e
 11164 02a1 01       		.byte	0x1
 11165 02a2 03       		.uleb128 0x3
 11166 02a3 0E       		.uleb128 0xe
 11167 02a4 3A       		.uleb128 0x3a
 11168 02a5 0B       		.uleb128 0xb
 11169 02a6 3B       		.uleb128 0x3b
 11170 02a7 0B       		.uleb128 0xb
 11171 02a8 39       		.uleb128 0x39
 11172 02a9 0B       		.uleb128 0xb
 11173 02aa 27       		.uleb128 0x27
 11174 02ab 19       		.uleb128 0x19
 11175 02ac 49       		.uleb128 0x49
 11176 02ad 13       		.uleb128 0x13
 11177 02ae 20       		.uleb128 0x20
 11178 02af 0B       		.uleb128 0xb
 11179 02b0 01       		.uleb128 0x1
ARM GAS  /tmp/ccCget5K.s 			page 198


 11180 02b1 13       		.uleb128 0x13
 11181 02b2 00       		.byte	0
 11182 02b3 00       		.byte	0
 11183 02b4 2F       		.uleb128 0x2f
 11184 02b5 2E       		.uleb128 0x2e
 11185 02b6 01       		.byte	0x1
 11186 02b7 03       		.uleb128 0x3
 11187 02b8 0E       		.uleb128 0xe
 11188 02b9 3A       		.uleb128 0x3a
 11189 02ba 0B       		.uleb128 0xb
 11190 02bb 3B       		.uleb128 0x3b
 11191 02bc 05       		.uleb128 0x5
 11192 02bd 39       		.uleb128 0x39
 11193 02be 0B       		.uleb128 0xb
 11194 02bf 27       		.uleb128 0x27
 11195 02c0 19       		.uleb128 0x19
 11196 02c1 20       		.uleb128 0x20
 11197 02c2 0B       		.uleb128 0xb
 11198 02c3 01       		.uleb128 0x1
 11199 02c4 13       		.uleb128 0x13
 11200 02c5 00       		.byte	0
 11201 02c6 00       		.byte	0
 11202 02c7 30       		.uleb128 0x30
 11203 02c8 34       		.uleb128 0x34
 11204 02c9 00       		.byte	0
 11205 02ca 03       		.uleb128 0x3
 11206 02cb 0E       		.uleb128 0xe
 11207 02cc 49       		.uleb128 0x49
 11208 02cd 13       		.uleb128 0x13
 11209 02ce 34       		.uleb128 0x34
 11210 02cf 19       		.uleb128 0x19
 11211 02d0 00       		.byte	0
 11212 02d1 00       		.byte	0
 11213 02d2 31       		.uleb128 0x31
 11214 02d3 05       		.uleb128 0x5
 11215 02d4 00       		.byte	0
 11216 02d5 03       		.uleb128 0x3
 11217 02d6 0E       		.uleb128 0xe
 11218 02d7 3A       		.uleb128 0x3a
 11219 02d8 0B       		.uleb128 0xb
 11220 02d9 3B       		.uleb128 0x3b
 11221 02da 05       		.uleb128 0x5
 11222 02db 39       		.uleb128 0x39
 11223 02dc 0B       		.uleb128 0xb
 11224 02dd 49       		.uleb128 0x49
 11225 02de 13       		.uleb128 0x13
 11226 02df 00       		.byte	0
 11227 02e0 00       		.byte	0
 11228 02e1 32       		.uleb128 0x32
 11229 02e2 2E       		.uleb128 0x2e
 11230 02e3 01       		.byte	0x1
 11231 02e4 31       		.uleb128 0x31
 11232 02e5 13       		.uleb128 0x13
 11233 02e6 11       		.uleb128 0x11
 11234 02e7 01       		.uleb128 0x1
 11235 02e8 12       		.uleb128 0x12
 11236 02e9 06       		.uleb128 0x6
ARM GAS  /tmp/ccCget5K.s 			page 199


 11237 02ea 40       		.uleb128 0x40
 11238 02eb 18       		.uleb128 0x18
 11239 02ec 9742     		.uleb128 0x2117
 11240 02ee 19       		.uleb128 0x19
 11241 02ef 01       		.uleb128 0x1
 11242 02f0 13       		.uleb128 0x13
 11243 02f1 00       		.byte	0
 11244 02f2 00       		.byte	0
 11245 02f3 33       		.uleb128 0x33
 11246 02f4 898201   		.uleb128 0x4109
 11247 02f7 01       		.byte	0x1
 11248 02f8 11       		.uleb128 0x11
 11249 02f9 01       		.uleb128 0x1
 11250 02fa 9542     		.uleb128 0x2115
 11251 02fc 19       		.uleb128 0x19
 11252 02fd 31       		.uleb128 0x31
 11253 02fe 13       		.uleb128 0x13
 11254 02ff 00       		.byte	0
 11255 0300 00       		.byte	0
 11256 0301 34       		.uleb128 0x34
 11257 0302 34       		.uleb128 0x34
 11258 0303 00       		.byte	0
 11259 0304 31       		.uleb128 0x31
 11260 0305 13       		.uleb128 0x13
 11261 0306 00       		.byte	0
 11262 0307 00       		.byte	0
 11263 0308 35       		.uleb128 0x35
 11264 0309 1D       		.uleb128 0x1d
 11265 030a 01       		.byte	0x1
 11266 030b 31       		.uleb128 0x31
 11267 030c 13       		.uleb128 0x13
 11268 030d 52       		.uleb128 0x52
 11269 030e 01       		.uleb128 0x1
 11270 030f B842     		.uleb128 0x2138
 11271 0311 05       		.uleb128 0x5
 11272 0312 55       		.uleb128 0x55
 11273 0313 17       		.uleb128 0x17
 11274 0314 58       		.uleb128 0x58
 11275 0315 0B       		.uleb128 0xb
 11276 0316 59       		.uleb128 0x59
 11277 0317 0B       		.uleb128 0xb
 11278 0318 57       		.uleb128 0x57
 11279 0319 0B       		.uleb128 0xb
 11280 031a 01       		.uleb128 0x1
 11281 031b 13       		.uleb128 0x13
 11282 031c 00       		.byte	0
 11283 031d 00       		.byte	0
 11284 031e 36       		.uleb128 0x36
 11285 031f 1D       		.uleb128 0x1d
 11286 0320 01       		.byte	0x1
 11287 0321 31       		.uleb128 0x31
 11288 0322 13       		.uleb128 0x13
 11289 0323 52       		.uleb128 0x52
 11290 0324 01       		.uleb128 0x1
 11291 0325 B842     		.uleb128 0x2138
 11292 0327 05       		.uleb128 0x5
 11293 0328 11       		.uleb128 0x11
ARM GAS  /tmp/ccCget5K.s 			page 200


 11294 0329 01       		.uleb128 0x1
 11295 032a 12       		.uleb128 0x12
 11296 032b 06       		.uleb128 0x6
 11297 032c 58       		.uleb128 0x58
 11298 032d 0B       		.uleb128 0xb
 11299 032e 59       		.uleb128 0x59
 11300 032f 0B       		.uleb128 0xb
 11301 0330 57       		.uleb128 0x57
 11302 0331 0B       		.uleb128 0xb
 11303 0332 00       		.byte	0
 11304 0333 00       		.byte	0
 11305 0334 37       		.uleb128 0x37
 11306 0335 34       		.uleb128 0x34
 11307 0336 00       		.byte	0
 11308 0337 31       		.uleb128 0x31
 11309 0338 13       		.uleb128 0x13
 11310 0339 02       		.uleb128 0x2
 11311 033a 17       		.uleb128 0x17
 11312 033b B742     		.uleb128 0x2137
 11313 033d 17       		.uleb128 0x17
 11314 033e 00       		.byte	0
 11315 033f 00       		.byte	0
 11316 0340 38       		.uleb128 0x38
 11317 0341 34       		.uleb128 0x34
 11318 0342 00       		.byte	0
 11319 0343 31       		.uleb128 0x31
 11320 0344 13       		.uleb128 0x13
 11321 0345 02       		.uleb128 0x2
 11322 0346 18       		.uleb128 0x18
 11323 0347 00       		.byte	0
 11324 0348 00       		.byte	0
 11325 0349 39       		.uleb128 0x39
 11326 034a 1D       		.uleb128 0x1d
 11327 034b 01       		.byte	0x1
 11328 034c 31       		.uleb128 0x31
 11329 034d 13       		.uleb128 0x13
 11330 034e 52       		.uleb128 0x52
 11331 034f 01       		.uleb128 0x1
 11332 0350 B842     		.uleb128 0x2138
 11333 0352 05       		.uleb128 0x5
 11334 0353 11       		.uleb128 0x11
 11335 0354 01       		.uleb128 0x1
 11336 0355 12       		.uleb128 0x12
 11337 0356 06       		.uleb128 0x6
 11338 0357 58       		.uleb128 0x58
 11339 0358 0B       		.uleb128 0xb
 11340 0359 59       		.uleb128 0x59
 11341 035a 0B       		.uleb128 0xb
 11342 035b 57       		.uleb128 0x57
 11343 035c 0B       		.uleb128 0xb
 11344 035d 01       		.uleb128 0x1
 11345 035e 13       		.uleb128 0x13
 11346 035f 00       		.byte	0
 11347 0360 00       		.byte	0
 11348 0361 3A       		.uleb128 0x3a
 11349 0362 1D       		.uleb128 0x1d
 11350 0363 01       		.byte	0x1
ARM GAS  /tmp/ccCget5K.s 			page 201


 11351 0364 31       		.uleb128 0x31
 11352 0365 13       		.uleb128 0x13
 11353 0366 52       		.uleb128 0x52
 11354 0367 01       		.uleb128 0x1
 11355 0368 B842     		.uleb128 0x2138
 11356 036a 05       		.uleb128 0x5
 11357 036b 11       		.uleb128 0x11
 11358 036c 01       		.uleb128 0x1
 11359 036d 12       		.uleb128 0x12
 11360 036e 06       		.uleb128 0x6
 11361 036f 58       		.uleb128 0x58
 11362 0370 0B       		.uleb128 0xb
 11363 0371 59       		.uleb128 0x59
 11364 0372 05       		.uleb128 0x5
 11365 0373 57       		.uleb128 0x57
 11366 0374 0B       		.uleb128 0xb
 11367 0375 01       		.uleb128 0x1
 11368 0376 13       		.uleb128 0x13
 11369 0377 00       		.byte	0
 11370 0378 00       		.byte	0
 11371 0379 3B       		.uleb128 0x3b
 11372 037a 898201   		.uleb128 0x4109
 11373 037d 00       		.byte	0
 11374 037e 11       		.uleb128 0x11
 11375 037f 01       		.uleb128 0x1
 11376 0380 31       		.uleb128 0x31
 11377 0381 13       		.uleb128 0x13
 11378 0382 00       		.byte	0
 11379 0383 00       		.byte	0
 11380 0384 3C       		.uleb128 0x3c
 11381 0385 2E       		.uleb128 0x2e
 11382 0386 00       		.byte	0
 11383 0387 3F       		.uleb128 0x3f
 11384 0388 19       		.uleb128 0x19
 11385 0389 3C       		.uleb128 0x3c
 11386 038a 19       		.uleb128 0x19
 11387 038b 6E       		.uleb128 0x6e
 11388 038c 0E       		.uleb128 0xe
 11389 038d 03       		.uleb128 0x3
 11390 038e 0E       		.uleb128 0xe
 11391 038f 3A       		.uleb128 0x3a
 11392 0390 0B       		.uleb128 0xb
 11393 0391 3B       		.uleb128 0x3b
 11394 0392 0B       		.uleb128 0xb
 11395 0393 39       		.uleb128 0x39
 11396 0394 0B       		.uleb128 0xb
 11397 0395 00       		.byte	0
 11398 0396 00       		.byte	0
 11399 0397 00       		.byte	0
 11400              		.section	.debug_loc,"",%progbits
 11401              	.Ldebug_loc0:
 11402              	.LVUS0:
 11403 0000 00       		.uleb128 .LVU17
 11404 0001 00       		.uleb128 .LVU18
 11405 0002 00       		.uleb128 .LVU31
 11406 0003 00       		.uleb128 .LVU32
 11407 0004 00       		.uleb128 .LVU32
ARM GAS  /tmp/ccCget5K.s 			page 202


 11408 0005 00       		.uleb128 .LVU33
 11409 0006 00       		.uleb128 .LVU48
 11410 0007 00       		.uleb128 .LVU62
 11411 0008 00       		.uleb128 .LVU62
 11412 0009 00       		.uleb128 .LVU63
 11413 000a 00       		.uleb128 .LVU67
 11414 000b 00       		.uleb128 .LVU68
 11415 000c 00       		.uleb128 .LVU68
 11416 000d 00       		.uleb128 .LVU69
 11417 000e 00       		.uleb128 .LVU83
 11418 000f 00       		.uleb128 .LVU97
 11419 0010 00       		.uleb128 .LVU97
 11420 0011 00       		.uleb128 .LVU98
 11421 0012 00       		.uleb128 .LVU115
 11422 0013 00       		.uleb128 .LVU116
 11423 0014 00       		.uleb128 .LVU116
 11424 0015 00       		.uleb128 .LVU117
 11425 0016 00       		.uleb128 .LVU131
 11426 0017 00       		.uleb128 .LVU145
 11427 0018 00       		.uleb128 .LVU145
 11428 0019 00       		.uleb128 .LVU146
 11429              	.LLST0:
 11430 001a 1C000000 		.4byte	.LVL3
 11431 001e 20000000 		.4byte	.LVL4
 11432 0022 0100     		.2byte	0x1
 11433 0024 50       		.byte	0x50
 11434 0025 3E000000 		.4byte	.LVL7
 11435 0029 42000000 		.4byte	.LVL8
 11436 002d 0100     		.2byte	0x1
 11437 002f 50       		.byte	0x50
 11438 0030 42000000 		.4byte	.LVL8
 11439 0034 46000000 		.4byte	.LVL9
 11440 0038 0300     		.2byte	0x3
 11441 003a 70       		.byte	0x70
 11442 003b 7F       		.sleb128 -1
 11443 003c 9F       		.byte	0x9f
 11444 003d 64000000 		.4byte	.LVL13
 11445 0041 6C000000 		.4byte	.LVL15
 11446 0045 0100     		.2byte	0x1
 11447 0047 50       		.byte	0x50
 11448 0048 6C000000 		.4byte	.LVL15
 11449 004c 70000000 		.4byte	.LVL16
 11450 0050 0300     		.2byte	0x3
 11451 0052 70       		.byte	0x70
 11452 0053 7F       		.sleb128 -1
 11453 0054 9F       		.byte	0x9f
 11454 0055 86000000 		.4byte	.LVL18
 11455 0059 8A000000 		.4byte	.LVL19
 11456 005d 0100     		.2byte	0x1
 11457 005f 50       		.byte	0x50
 11458 0060 8A000000 		.4byte	.LVL19
 11459 0064 8E000000 		.4byte	.LVL20
 11460 0068 0300     		.2byte	0x3
 11461 006a 70       		.byte	0x70
 11462 006b 7F       		.sleb128 -1
 11463 006c 9F       		.byte	0x9f
 11464 006d A8000000 		.4byte	.LVL24
ARM GAS  /tmp/ccCget5K.s 			page 203


 11465 0071 B0000000 		.4byte	.LVL26
 11466 0075 0100     		.2byte	0x1
 11467 0077 50       		.byte	0x50
 11468 0078 B0000000 		.4byte	.LVL26
 11469 007c B4000000 		.4byte	.LVL27
 11470 0080 0300     		.2byte	0x3
 11471 0082 70       		.byte	0x70
 11472 0083 7F       		.sleb128 -1
 11473 0084 9F       		.byte	0x9f
 11474 0085 DE000000 		.4byte	.LVL31
 11475 0089 E2000000 		.4byte	.LVL32
 11476 008d 0100     		.2byte	0x1
 11477 008f 50       		.byte	0x50
 11478 0090 E2000000 		.4byte	.LVL32
 11479 0094 E6000000 		.4byte	.LVL33
 11480 0098 0300     		.2byte	0x3
 11481 009a 70       		.byte	0x70
 11482 009b 7F       		.sleb128 -1
 11483 009c 9F       		.byte	0x9f
 11484 009d 00010000 		.4byte	.LVL37
 11485 00a1 08010000 		.4byte	.LVL39
 11486 00a5 0100     		.2byte	0x1
 11487 00a7 50       		.byte	0x50
 11488 00a8 08010000 		.4byte	.LVL39
 11489 00ac 0C010000 		.4byte	.LVL40
 11490 00b0 0300     		.2byte	0x3
 11491 00b2 70       		.byte	0x70
 11492 00b3 7F       		.sleb128 -1
 11493 00b4 9F       		.byte	0x9f
 11494 00b5 00000000 		.4byte	0
 11495 00b9 00000000 		.4byte	0
 11496              	.LVUS1:
 11497 00bd 01       		.uleb128 .LVU13
 11498 00be 00       		.uleb128 .LVU15
 11499 00bf 00       		.uleb128 .LVU15
 11500 00c0 00       		.uleb128 .LVU20
 11501 00c1 00       		.uleb128 .LVU20
 11502 00c2 02       		.uleb128 .LVU23
 11503              	.LLST1:
 11504 00c3 0E000000 		.4byte	.LVL1
 11505 00c7 10000000 		.4byte	.LVL2
 11506 00cb 0200     		.2byte	0x2
 11507 00cd 30       		.byte	0x30
 11508 00ce 9F       		.byte	0x9f
 11509 00cf 10000000 		.4byte	.LVL2
 11510 00d3 26000000 		.4byte	.LVL5
 11511 00d7 0400     		.2byte	0x4
 11512 00d9 74       		.byte	0x74
 11513 00da BE7F     		.sleb128 -66
 11514 00dc 9F       		.byte	0x9f
 11515 00dd 26000000 		.4byte	.LVL5
 11516 00e1 2A000000 		.4byte	.LVL6
 11517 00e5 0400     		.2byte	0x4
 11518 00e7 74       		.byte	0x74
 11519 00e8 BD7F     		.sleb128 -67
 11520 00ea 9F       		.byte	0x9f
 11521 00eb 00000000 		.4byte	0
ARM GAS  /tmp/ccCget5K.s 			page 204


 11522 00ef 00000000 		.4byte	0
 11523              	.LVUS2:
 11524 00f3 06       		.uleb128 .LVU41
 11525 00f4 00       		.uleb128 .LVU43
 11526              	.LLST2:
 11527 00f5 56000000 		.4byte	.LVL11
 11528 00f9 5C000000 		.4byte	.LVL12
 11529 00fd 0300     		.2byte	0x3
 11530 00ff 08       		.byte	0x8
 11531 0100 20       		.byte	0x20
 11532 0101 9F       		.byte	0x9f
 11533 0102 00000000 		.4byte	0
 11534 0106 00000000 		.4byte	0
 11535              	.LVUS3:
 11536 010a 0A       		.uleb128 .LVU58
 11537 010b 00       		.uleb128 .LVU60
 11538              	.LLST3:
 11539 010c 64000000 		.4byte	.LVL13
 11540 0110 68000000 		.4byte	.LVL14
 11541 0114 0200     		.2byte	0x2
 11542 0116 30       		.byte	0x30
 11543 0117 9F       		.byte	0x9f
 11544 0118 00000000 		.4byte	0
 11545 011c 00000000 		.4byte	0
 11546              	.LVUS4:
 11547 0120 06       		.uleb128 .LVU76
 11548 0121 00       		.uleb128 .LVU78
 11549              	.LLST4:
 11550 0122 9C000000 		.4byte	.LVL22
 11551 0126 A0000000 		.4byte	.LVL23
 11552 012a 0300     		.2byte	0x3
 11553 012c 08       		.byte	0x8
 11554 012d 20       		.byte	0x20
 11555 012e 9F       		.byte	0x9f
 11556 012f 00000000 		.4byte	0
 11557 0133 00000000 		.4byte	0
 11558              	.LVUS5:
 11559 0137 0A       		.uleb128 .LVU93
 11560 0138 00       		.uleb128 .LVU95
 11561              	.LLST5:
 11562 0139 A8000000 		.4byte	.LVL24
 11563 013d AC000000 		.4byte	.LVL25
 11564 0141 0200     		.2byte	0x2
 11565 0143 30       		.byte	0x30
 11566 0144 9F       		.byte	0x9f
 11567 0145 00000000 		.4byte	0
 11568 0149 00000000 		.4byte	0
 11569              	.LVUS6:
 11570 014d 01       		.uleb128 .LVU105
 11571 014e 00       		.uleb128 .LVU111
 11572              	.LLST6:
 11573 014f CC000000 		.4byte	.LVL29
 11574 0153 DA000000 		.4byte	.LVL30
 11575 0157 0600     		.2byte	0x6
 11576 0159 03       		.byte	0x3
 11577 015a 00000000 		.4byte	mb1
 11578 015e 9F       		.byte	0x9f
ARM GAS  /tmp/ccCget5K.s 			page 205


 11579 015f 00000000 		.4byte	0
 11580 0163 00000000 		.4byte	0
 11581              	.LVUS7:
 11582 0167 06       		.uleb128 .LVU124
 11583 0168 00       		.uleb128 .LVU126
 11584              	.LLST7:
 11585 0169 F4000000 		.4byte	.LVL35
 11586 016d F8000000 		.4byte	.LVL36
 11587 0171 0300     		.2byte	0x3
 11588 0173 08       		.byte	0x8
 11589 0174 20       		.byte	0x20
 11590 0175 9F       		.byte	0x9f
 11591 0176 00000000 		.4byte	0
 11592 017a 00000000 		.4byte	0
 11593              	.LVUS8:
 11594 017e 0A       		.uleb128 .LVU141
 11595 017f 00       		.uleb128 .LVU143
 11596              	.LLST8:
 11597 0180 00010000 		.4byte	.LVL37
 11598 0184 04010000 		.4byte	.LVL38
 11599 0188 0200     		.2byte	0x2
 11600 018a 30       		.byte	0x30
 11601 018b 9F       		.byte	0x9f
 11602 018c 00000000 		.4byte	0
 11603 0190 00000000 		.4byte	0
 11604              	.LVUS9:
 11605 0194 07       		.uleb128 .LVU165
 11606 0195 00       		.uleb128 .LVU167
 11607              	.LLST9:
 11608 0196 0C000000 		.4byte	.LVL43
 11609 019a 12000000 		.4byte	.LVL44
 11610 019e 0300     		.2byte	0x3
 11611 01a0 08       		.byte	0x8
 11612 01a1 20       		.byte	0x20
 11613 01a2 9F       		.byte	0x9f
 11614 01a3 00000000 		.4byte	0
 11615 01a7 00000000 		.4byte	0
 11616              	.LVUS10:
 11617 01ab 04       		.uleb128 .LVU171
 11618 01ac 0D       		.uleb128 .LVU180
 11619              	.LLST10:
 11620 01ad 12000000 		.4byte	.LVL44
 11621 01b1 12000000 		.4byte	.LVL44
 11622 01b5 0600     		.2byte	0x6
 11623 01b7 03       		.byte	0x3
 11624 01b8 00000000 		.4byte	mb1
 11625 01bc 9F       		.byte	0x9f
 11626 01bd 00000000 		.4byte	0
 11627 01c1 00000000 		.4byte	0
 11628              	.LVUS11:
 11629 01c5 07       		.uleb128 .LVU174
 11630 01c6 09       		.uleb128 .LVU176
 11631              	.LLST11:
 11632 01c7 12000000 		.4byte	.LVL44
 11633 01cb 12000000 		.4byte	.LVL44
 11634 01cf 0600     		.2byte	0x6
 11635 01d1 03       		.byte	0x3
ARM GAS  /tmp/ccCget5K.s 			page 206


 11636 01d2 00000000 		.4byte	mb1
 11637 01d6 9F       		.byte	0x9f
 11638 01d7 00000000 		.4byte	0
 11639 01db 00000000 		.4byte	0
 11640              	.LVUS12:
 11641 01df 09       		.uleb128 .LVU176
 11642 01e0 0D       		.uleb128 .LVU180
 11643              	.LLST12:
 11644 01e1 12000000 		.4byte	.LVL44
 11645 01e5 12000000 		.4byte	.LVL44
 11646 01e9 0600     		.2byte	0x6
 11647 01eb 03       		.byte	0x3
 11648 01ec 00000000 		.4byte	mb1
 11649 01f0 9F       		.byte	0x9f
 11650 01f1 00000000 		.4byte	0
 11651 01f5 00000000 		.4byte	0
 11652              	.LVUS13:
 11653 01f9 0C       		.uleb128 .LVU198
 11654 01fa 00       		.uleb128 .LVU200
 11655              	.LLST13:
 11656 01fb 32000000 		.4byte	.LVL46
 11657 01ff 38000000 		.4byte	.LVL47
 11658 0203 0200     		.2byte	0x2
 11659 0205 30       		.byte	0x30
 11660 0206 9F       		.byte	0x9f
 11661 0207 00000000 		.4byte	0
 11662 020b 00000000 		.4byte	0
 11663              	.LVUS14:
 11664 020f 00       		.uleb128 .LVU438
 11665 0210 00       		.uleb128 .LVU452
 11666 0211 00       		.uleb128 .LVU471
 11667 0212 00       		.uleb128 .LVU485
 11668 0213 00       		.uleb128 .LVU612
 11669 0214 00       		.uleb128 .LVU626
 11670 0215 00       		.uleb128 .LVU644
 11671 0216 00       		.uleb128 .LVU645
 11672 0217 00       		.uleb128 .LVU649
 11673 0218 00       		.uleb128 .LVU650
 11674              	.LLST14:
 11675 0219 04010000 		.4byte	.LVL78
 11676 021d 0E010000 		.4byte	.LVL80
 11677 0221 0100     		.2byte	0x1
 11678 0223 50       		.byte	0x50
 11679 0224 32010000 		.4byte	.LVL84
 11680 0228 3A010000 		.4byte	.LVL86
 11681 022c 0100     		.2byte	0x1
 11682 022e 50       		.byte	0x50
 11683 022f D2010000 		.4byte	.LVL104
 11684 0233 DC010000 		.4byte	.LVL106
 11685 0237 0100     		.2byte	0x1
 11686 0239 50       		.byte	0x50
 11687 023a 16020000 		.4byte	.LVL111
 11688 023e 1A020000 		.4byte	.LVL112
 11689 0242 0100     		.2byte	0x1
 11690 0244 50       		.byte	0x50
 11691 0245 34020000 		.4byte	.LVL114
 11692 0249 38020000 		.4byte	.LVL115
ARM GAS  /tmp/ccCget5K.s 			page 207


 11693 024d 0100     		.2byte	0x1
 11694 024f 50       		.byte	0x50
 11695 0250 00000000 		.4byte	0
 11696 0254 00000000 		.4byte	0
 11697              	.LVUS15:
 11698 0258 01       		.uleb128 .LVU424
 11699 0259 00       		.uleb128 .LVU426
 11700 025a 00       		.uleb128 .LVU426
 11701 025b 02       		.uleb128 .LVU455
 11702 025c 01       		.uleb128 .LVU597
 11703 025d 00       		.uleb128 .LVU599
 11704 025e 00       		.uleb128 .LVU599
 11705 025f 01       		.uleb128 .LVU632
 11706 0260 01       		.uleb128 .LVU632
 11707 0261 00       		.uleb128 .LVU634
 11708 0262 00       		.uleb128 .LVU634
 11709 0263 01       		.uleb128 .LVU735
 11710 0264 00       		.uleb128 .LVU736
 11711 0265 00       		.uleb128 0
 11712              	.LLST15:
 11713 0266 F4000000 		.4byte	.LVL75
 11714 026a F8000000 		.4byte	.LVL76
 11715 026e 0200     		.2byte	0x2
 11716 0270 30       		.byte	0x30
 11717 0271 9F       		.byte	0x9f
 11718 0272 F8000000 		.4byte	.LVL76
 11719 0276 16010000 		.4byte	.LVL81
 11720 027a 0400     		.2byte	0x4
 11721 027c 78       		.byte	0x78
 11722 027d BE7F     		.sleb128 -66
 11723 027f 9F       		.byte	0x9f
 11724 0280 C4010000 		.4byte	.LVL101
 11725 0284 C6010000 		.4byte	.LVL102
 11726 0288 0200     		.2byte	0x2
 11727 028a 30       		.byte	0x30
 11728 028b 9F       		.byte	0x9f
 11729 028c C6010000 		.4byte	.LVL102
 11730 0290 F2010000 		.4byte	.LVL108
 11731 0294 0500     		.2byte	0x5
 11732 0296 34       		.byte	0x34
 11733 0297 79       		.byte	0x79
 11734 0298 00       		.sleb128 0
 11735 0299 1C       		.byte	0x1c
 11736 029a 9F       		.byte	0x9f
 11737 029b F2010000 		.4byte	.LVL108
 11738 029f F6010000 		.4byte	.LVL109
 11739 02a3 0500     		.2byte	0x5
 11740 02a5 35       		.byte	0x35
 11741 02a6 79       		.byte	0x79
 11742 02a7 00       		.sleb128 0
 11743 02a8 1C       		.byte	0x1c
 11744 02a9 9F       		.byte	0x9f
 11745 02aa F6010000 		.4byte	.LVL109
 11746 02ae AA020000 		.4byte	.LVL127
 11747 02b2 0500     		.2byte	0x5
 11748 02b4 34       		.byte	0x34
 11749 02b5 79       		.byte	0x79
ARM GAS  /tmp/ccCget5K.s 			page 208


 11750 02b6 00       		.sleb128 0
 11751 02b7 1C       		.byte	0x1c
 11752 02b8 9F       		.byte	0x9f
 11753 02b9 AC020000 		.4byte	.LVL128
 11754 02bd E8020000 		.4byte	.LFE282
 11755 02c1 0500     		.2byte	0x5
 11756 02c3 34       		.byte	0x34
 11757 02c4 79       		.byte	0x79
 11758 02c5 00       		.sleb128 0
 11759 02c6 1C       		.byte	0x1c
 11760 02c7 9F       		.byte	0x9f
 11761 02c8 00000000 		.4byte	0
 11762 02cc 00000000 		.4byte	0
 11763              	.LVUS16:
 11764 02d0 0D       		.uleb128 .LVU216
 11765 02d1 00       		.uleb128 .LVU218
 11766              	.LLST16:
 11767 02d2 3E000000 		.4byte	.LVL48
 11768 02d6 44000000 		.4byte	.LVL49
 11769 02da 0200     		.2byte	0x2
 11770 02dc 30       		.byte	0x30
 11771 02dd 9F       		.byte	0x9f
 11772 02de 00000000 		.4byte	0
 11773 02e2 00000000 		.4byte	0
 11774              	.LVUS17:
 11775 02e6 05       		.uleb128 .LVU226
 11776 02e7 00       		.uleb128 .LVU228
 11777              	.LLST17:
 11778 02e8 48000000 		.4byte	.LVL50
 11779 02ec 4C000000 		.4byte	.LVL51
 11780 02f0 0300     		.2byte	0x3
 11781 02f2 08       		.byte	0x8
 11782 02f3 20       		.byte	0x20
 11783 02f4 9F       		.byte	0x9f
 11784 02f5 00000000 		.4byte	0
 11785 02f9 00000000 		.4byte	0
 11786              	.LVUS18:
 11787 02fd 0A       		.uleb128 .LVU242
 11788 02fe 00       		.uleb128 .LVU244
 11789              	.LLST18:
 11790 02ff 52000000 		.4byte	.LVL52
 11791 0303 56000000 		.4byte	.LVL53
 11792 0307 0200     		.2byte	0x2
 11793 0309 30       		.byte	0x30
 11794 030a 9F       		.byte	0x9f
 11795 030b 00000000 		.4byte	0
 11796 030f 00000000 		.4byte	0
 11797              	.LVUS19:
 11798 0313 08       		.uleb128 .LVU252
 11799 0314 00       		.uleb128 .LVU254
 11800              	.LLST19:
 11801 0315 56000000 		.4byte	.LVL53
 11802 0319 5A000000 		.4byte	.LVL54
 11803 031d 0300     		.2byte	0x3
 11804 031f 08       		.byte	0x8
 11805 0320 20       		.byte	0x20
 11806 0321 9F       		.byte	0x9f
ARM GAS  /tmp/ccCget5K.s 			page 209


 11807 0322 00000000 		.4byte	0
 11808 0326 00000000 		.4byte	0
 11809              	.LVUS20:
 11810 032a 04       		.uleb128 .LVU258
 11811 032b 0D       		.uleb128 .LVU267
 11812              	.LLST20:
 11813 032c 5A000000 		.4byte	.LVL54
 11814 0330 5A000000 		.4byte	.LVL54
 11815 0334 0600     		.2byte	0x6
 11816 0336 03       		.byte	0x3
 11817 0337 00000000 		.4byte	mb1
 11818 033b 9F       		.byte	0x9f
 11819 033c 00000000 		.4byte	0
 11820 0340 00000000 		.4byte	0
 11821              	.LVUS21:
 11822 0344 07       		.uleb128 .LVU261
 11823 0345 09       		.uleb128 .LVU263
 11824              	.LLST21:
 11825 0346 5A000000 		.4byte	.LVL54
 11826 034a 5A000000 		.4byte	.LVL54
 11827 034e 0600     		.2byte	0x6
 11828 0350 03       		.byte	0x3
 11829 0351 00000000 		.4byte	mb1
 11830 0355 9F       		.byte	0x9f
 11831 0356 00000000 		.4byte	0
 11832 035a 00000000 		.4byte	0
 11833              	.LVUS22:
 11834 035e 09       		.uleb128 .LVU263
 11835 035f 0D       		.uleb128 .LVU267
 11836              	.LLST22:
 11837 0360 5A000000 		.4byte	.LVL54
 11838 0364 5A000000 		.4byte	.LVL54
 11839 0368 0600     		.2byte	0x6
 11840 036a 03       		.byte	0x3
 11841 036b 00000000 		.4byte	mb1
 11842 036f 9F       		.byte	0x9f
 11843 0370 00000000 		.4byte	0
 11844 0374 00000000 		.4byte	0
 11845              	.LVUS23:
 11846 0378 0C       		.uleb128 .LVU285
 11847 0379 00       		.uleb128 .LVU287
 11848              	.LLST23:
 11849 037a 7A000000 		.4byte	.LVL56
 11850 037e 7E000000 		.4byte	.LVL57
 11851 0382 0200     		.2byte	0x2
 11852 0384 30       		.byte	0x30
 11853 0385 9F       		.byte	0x9f
 11854 0386 00000000 		.4byte	0
 11855 038a 00000000 		.4byte	0
 11856              	.LVUS24:
 11857 038e 09       		.uleb128 .LVU296
 11858 038f 00       		.uleb128 .LVU298
 11859              	.LLST24:
 11860 0390 7E000000 		.4byte	.LVL57
 11861 0394 82000000 		.4byte	.LVL58
 11862 0398 0300     		.2byte	0x3
 11863 039a 08       		.byte	0x8
ARM GAS  /tmp/ccCget5K.s 			page 210


 11864 039b 20       		.byte	0x20
 11865 039c 9F       		.byte	0x9f
 11866 039d 00000000 		.4byte	0
 11867 03a1 00000000 		.4byte	0
 11868              	.LVUS25:
 11869 03a5 04       		.uleb128 .LVU302
 11870 03a6 07       		.uleb128 .LVU305
 11871              	.LLST25:
 11872 03a7 82000000 		.4byte	.LVL58
 11873 03ab 82000000 		.4byte	.LVL58
 11874 03af 0600     		.2byte	0x6
 11875 03b1 03       		.byte	0x3
 11876 03b2 00000000 		.4byte	mb1
 11877 03b6 9F       		.byte	0x9f
 11878 03b7 00000000 		.4byte	0
 11879 03bb 00000000 		.4byte	0
 11880              	.LVUS26:
 11881 03bf 0C       		.uleb128 .LVU319
 11882 03c0 00       		.uleb128 .LVU321
 11883              	.LLST26:
 11884 03c1 94000000 		.4byte	.LVL60
 11885 03c5 98000000 		.4byte	.LVL61
 11886 03c9 0200     		.2byte	0x2
 11887 03cb 30       		.byte	0x30
 11888 03cc 9F       		.byte	0x9f
 11889 03cd 00000000 		.4byte	0
 11890 03d1 00000000 		.4byte	0
 11891              	.LVUS27:
 11892 03d5 0C       		.uleb128 .LVU336
 11893 03d6 00       		.uleb128 .LVU338
 11894              	.LLST27:
 11895 03d7 9E000000 		.4byte	.LVL62
 11896 03db A2000000 		.4byte	.LVL63
 11897 03df 0200     		.2byte	0x2
 11898 03e1 30       		.byte	0x30
 11899 03e2 9F       		.byte	0x9f
 11900 03e3 00000000 		.4byte	0
 11901 03e7 00000000 		.4byte	0
 11902              	.LVUS28:
 11903 03eb 0C       		.uleb128 .LVU353
 11904 03ec 00       		.uleb128 .LVU355
 11905              	.LLST28:
 11906 03ed A8000000 		.4byte	.LVL64
 11907 03f1 AC000000 		.4byte	.LVL65
 11908 03f5 0200     		.2byte	0x2
 11909 03f7 30       		.byte	0x30
 11910 03f8 9F       		.byte	0x9f
 11911 03f9 00000000 		.4byte	0
 11912 03fd 00000000 		.4byte	0
 11913              	.LVUS29:
 11914 0401 09       		.uleb128 .LVU364
 11915 0402 00       		.uleb128 .LVU366
 11916              	.LLST29:
 11917 0403 AC000000 		.4byte	.LVL65
 11918 0407 B0000000 		.4byte	.LVL66
 11919 040b 0300     		.2byte	0x3
 11920 040d 08       		.byte	0x8
ARM GAS  /tmp/ccCget5K.s 			page 211


 11921 040e 20       		.byte	0x20
 11922 040f 9F       		.byte	0x9f
 11923 0410 00000000 		.4byte	0
 11924 0414 00000000 		.4byte	0
 11925              	.LVUS30:
 11926 0418 0C       		.uleb128 .LVU382
 11927 0419 00       		.uleb128 .LVU384
 11928              	.LLST30:
 11929 041a C8000000 		.4byte	.LVL68
 11930 041e CC000000 		.4byte	.LVL69
 11931 0422 0200     		.2byte	0x2
 11932 0424 30       		.byte	0x30
 11933 0425 9F       		.byte	0x9f
 11934 0426 00000000 		.4byte	0
 11935 042a 00000000 		.4byte	0
 11936              	.LVUS31:
 11937 042e 09       		.uleb128 .LVU393
 11938 042f 00       		.uleb128 .LVU395
 11939              	.LLST31:
 11940 0430 CC000000 		.4byte	.LVL69
 11941 0434 D0000000 		.4byte	.LVL70
 11942 0438 0300     		.2byte	0x3
 11943 043a 08       		.byte	0x8
 11944 043b 20       		.byte	0x20
 11945 043c 9F       		.byte	0x9f
 11946 043d 00000000 		.4byte	0
 11947 0441 00000000 		.4byte	0
 11948              	.LVUS32:
 11949 0445 0C       		.uleb128 .LVU411
 11950 0446 00       		.uleb128 .LVU413
 11951              	.LLST32:
 11952 0447 E6000000 		.4byte	.LVL72
 11953 044b EA000000 		.4byte	.LVL73
 11954 044f 0200     		.2byte	0x2
 11955 0451 30       		.byte	0x30
 11956 0452 9F       		.byte	0x9f
 11957 0453 00000000 		.4byte	0
 11958 0457 00000000 		.4byte	0
 11959              	.LVUS33:
 11960 045b 03       		.uleb128 .LVU416
 11961 045c 00       		.uleb128 .LVU421
 11962              	.LLST33:
 11963 045d EA000000 		.4byte	.LVL73
 11964 0461 F2000000 		.4byte	.LVL74
 11965 0465 0600     		.2byte	0x6
 11966 0467 03       		.byte	0x3
 11967 0468 00000000 		.4byte	mb1
 11968 046c 9F       		.byte	0x9f
 11969 046d 00000000 		.4byte	0
 11970 0471 00000000 		.4byte	0
 11971              	.LVUS34:
 11972 0475 05       		.uleb128 .LVU431
 11973 0476 00       		.uleb128 .LVU433
 11974              	.LLST34:
 11975 0477 F8000000 		.4byte	.LVL76
 11976 047b FC000000 		.4byte	.LVL77
 11977 047f 0300     		.2byte	0x3
ARM GAS  /tmp/ccCget5K.s 			page 212


 11978 0481 08       		.byte	0x8
 11979 0482 20       		.byte	0x20
 11980 0483 9F       		.byte	0x9f
 11981 0484 00000000 		.4byte	0
 11982 0488 00000000 		.4byte	0
 11983              	.LVUS35:
 11984 048c 0A       		.uleb128 .LVU448
 11985 048d 00       		.uleb128 .LVU450
 11986              	.LLST35:
 11987 048e 04010000 		.4byte	.LVL78
 11988 0492 0A010000 		.4byte	.LVL79
 11989 0496 0200     		.2byte	0x2
 11990 0498 30       		.byte	0x30
 11991 0499 9F       		.byte	0x9f
 11992 049a 00000000 		.4byte	0
 11993 049e 00000000 		.4byte	0
 11994              	.LVUS36:
 11995 04a2 05       		.uleb128 .LVU464
 11996 04a3 00       		.uleb128 .LVU466
 11997              	.LLST36:
 11998 04a4 26010000 		.4byte	.LVL82
 11999 04a8 2A010000 		.4byte	.LVL83
 12000 04ac 0300     		.2byte	0x3
 12001 04ae 08       		.byte	0x8
 12002 04af 20       		.byte	0x20
 12003 04b0 9F       		.byte	0x9f
 12004 04b1 00000000 		.4byte	0
 12005 04b5 00000000 		.4byte	0
 12006              	.LVUS37:
 12007 04b9 0A       		.uleb128 .LVU481
 12008 04ba 00       		.uleb128 .LVU483
 12009              	.LLST37:
 12010 04bb 32010000 		.4byte	.LVL84
 12011 04bf 36010000 		.4byte	.LVL85
 12012 04c3 0200     		.2byte	0x2
 12013 04c5 30       		.byte	0x30
 12014 04c6 9F       		.byte	0x9f
 12015 04c7 00000000 		.4byte	0
 12016 04cb 00000000 		.4byte	0
 12017              	.LVUS38:
 12018 04cf 07       		.uleb128 .LVU495
 12019 04d0 00       		.uleb128 .LVU497
 12020              	.LLST38:
 12021 04d1 52010000 		.4byte	.LVL88
 12022 04d5 56010000 		.4byte	.LVL89
 12023 04d9 0300     		.2byte	0x3
 12024 04db 08       		.byte	0x8
 12025 04dc 20       		.byte	0x20
 12026 04dd 9F       		.byte	0x9f
 12027 04de 00000000 		.4byte	0
 12028 04e2 00000000 		.4byte	0
 12029              	.LVUS39:
 12030 04e6 04       		.uleb128 .LVU501
 12031 04e7 0D       		.uleb128 .LVU510
 12032              	.LLST39:
 12033 04e8 56010000 		.4byte	.LVL89
 12034 04ec 56010000 		.4byte	.LVL89
ARM GAS  /tmp/ccCget5K.s 			page 213


 12035 04f0 0600     		.2byte	0x6
 12036 04f2 03       		.byte	0x3
 12037 04f3 00000000 		.4byte	mb1
 12038 04f7 9F       		.byte	0x9f
 12039 04f8 00000000 		.4byte	0
 12040 04fc 00000000 		.4byte	0
 12041              	.LVUS40:
 12042 0500 07       		.uleb128 .LVU504
 12043 0501 09       		.uleb128 .LVU506
 12044              	.LLST40:
 12045 0502 56010000 		.4byte	.LVL89
 12046 0506 56010000 		.4byte	.LVL89
 12047 050a 0600     		.2byte	0x6
 12048 050c 03       		.byte	0x3
 12049 050d 00000000 		.4byte	mb1
 12050 0511 9F       		.byte	0x9f
 12051 0512 00000000 		.4byte	0
 12052 0516 00000000 		.4byte	0
 12053              	.LVUS41:
 12054 051a 09       		.uleb128 .LVU506
 12055 051b 0D       		.uleb128 .LVU510
 12056              	.LLST41:
 12057 051c 56010000 		.4byte	.LVL89
 12058 0520 56010000 		.4byte	.LVL89
 12059 0524 0600     		.2byte	0x6
 12060 0526 03       		.byte	0x3
 12061 0527 00000000 		.4byte	mb1
 12062 052b 9F       		.byte	0x9f
 12063 052c 00000000 		.4byte	0
 12064 0530 00000000 		.4byte	0
 12065              	.LVUS42:
 12066 0534 0C       		.uleb128 .LVU525
 12067 0535 00       		.uleb128 .LVU527
 12068              	.LLST42:
 12069 0536 74010000 		.4byte	.LVL91
 12070 053a 78010000 		.4byte	.LVL92
 12071 053e 0200     		.2byte	0x2
 12072 0540 30       		.byte	0x30
 12073 0541 9F       		.byte	0x9f
 12074 0542 00000000 		.4byte	0
 12075 0546 00000000 		.4byte	0
 12076              	.LVUS43:
 12077 054a 09       		.uleb128 .LVU536
 12078 054b 00       		.uleb128 .LVU538
 12079              	.LLST43:
 12080 054c 78010000 		.4byte	.LVL92
 12081 0550 7C010000 		.4byte	.LVL93
 12082 0554 0300     		.2byte	0x3
 12083 0556 08       		.byte	0x8
 12084 0557 20       		.byte	0x20
 12085 0558 9F       		.byte	0x9f
 12086 0559 00000000 		.4byte	0
 12087 055d 00000000 		.4byte	0
 12088              	.LVUS44:
 12089 0561 04       		.uleb128 .LVU542
 12090 0562 07       		.uleb128 .LVU545
 12091              	.LLST44:
ARM GAS  /tmp/ccCget5K.s 			page 214


 12092 0563 7C010000 		.4byte	.LVL93
 12093 0567 7C010000 		.4byte	.LVL93
 12094 056b 0600     		.2byte	0x6
 12095 056d 03       		.byte	0x3
 12096 056e 00000000 		.4byte	mb1
 12097 0572 9F       		.byte	0x9f
 12098 0573 00000000 		.4byte	0
 12099 0577 00000000 		.4byte	0
 12100              	.LVUS45:
 12101 057b 0C       		.uleb128 .LVU559
 12102 057c 00       		.uleb128 .LVU561
 12103              	.LLST45:
 12104 057d 96010000 		.4byte	.LVL95
 12105 0581 9A010000 		.4byte	.LVL96
 12106 0585 0200     		.2byte	0x2
 12107 0587 30       		.byte	0x30
 12108 0588 9F       		.byte	0x9f
 12109 0589 00000000 		.4byte	0
 12110 058d 00000000 		.4byte	0
 12111              	.LVUS46:
 12112 0591 09       		.uleb128 .LVU570
 12113 0592 00       		.uleb128 .LVU572
 12114              	.LLST46:
 12115 0593 9A010000 		.4byte	.LVL96
 12116 0597 9E010000 		.4byte	.LVL97
 12117 059b 0300     		.2byte	0x3
 12118 059d 08       		.byte	0x8
 12119 059e 20       		.byte	0x20
 12120 059f 9F       		.byte	0x9f
 12121 05a0 00000000 		.4byte	0
 12122 05a4 00000000 		.4byte	0
 12123              	.LVUS47:
 12124 05a8 0C       		.uleb128 .LVU588
 12125 05a9 00       		.uleb128 .LVU590
 12126              	.LLST47:
 12127 05aa B6010000 		.4byte	.LVL99
 12128 05ae BA010000 		.4byte	.LVL100
 12129 05b2 0200     		.2byte	0x2
 12130 05b4 30       		.byte	0x30
 12131 05b5 9F       		.byte	0x9f
 12132 05b6 00000000 		.4byte	0
 12133 05ba 00000000 		.4byte	0
 12134              	.LVUS48:
 12135 05be 06       		.uleb128 .LVU605
 12136 05bf 00       		.uleb128 .LVU607
 12137              	.LLST48:
 12138 05c0 C6010000 		.4byte	.LVL102
 12139 05c4 CA010000 		.4byte	.LVL103
 12140 05c8 0300     		.2byte	0x3
 12141 05ca 08       		.byte	0x8
 12142 05cb 20       		.byte	0x20
 12143 05cc 9F       		.byte	0x9f
 12144 05cd 00000000 		.4byte	0
 12145 05d1 00000000 		.4byte	0
 12146              	.LVUS49:
 12147 05d5 0A       		.uleb128 .LVU622
 12148 05d6 00       		.uleb128 .LVU624
ARM GAS  /tmp/ccCget5K.s 			page 215


 12149              	.LLST49:
 12150 05d7 D2010000 		.4byte	.LVL104
 12151 05db D8010000 		.4byte	.LVL105
 12152 05df 0200     		.2byte	0x2
 12153 05e1 30       		.byte	0x30
 12154 05e2 9F       		.byte	0x9f
 12155 05e3 00000000 		.4byte	0
 12156 05e7 00000000 		.4byte	0
 12157              	.LVUS50:
 12158 05eb 07       		.uleb128 .LVU660
 12159 05ec 00       		.uleb128 .LVU662
 12160              	.LLST50:
 12161 05ed 4A020000 		.4byte	.LVL117
 12162 05f1 4E020000 		.4byte	.LVL118
 12163 05f5 0300     		.2byte	0x3
 12164 05f7 08       		.byte	0x8
 12165 05f8 20       		.byte	0x20
 12166 05f9 9F       		.byte	0x9f
 12167 05fa 00000000 		.4byte	0
 12168 05fe 00000000 		.4byte	0
 12169              	.LVUS51:
 12170 0602 04       		.uleb128 .LVU666
 12171 0603 0D       		.uleb128 .LVU675
 12172              	.LLST51:
 12173 0604 4E020000 		.4byte	.LVL118
 12174 0608 4E020000 		.4byte	.LVL118
 12175 060c 0600     		.2byte	0x6
 12176 060e 03       		.byte	0x3
 12177 060f 00000000 		.4byte	mb1
 12178 0613 9F       		.byte	0x9f
 12179 0614 00000000 		.4byte	0
 12180 0618 00000000 		.4byte	0
 12181              	.LVUS52:
 12182 061c 07       		.uleb128 .LVU669
 12183 061d 09       		.uleb128 .LVU671
 12184              	.LLST52:
 12185 061e 4E020000 		.4byte	.LVL118
 12186 0622 4E020000 		.4byte	.LVL118
 12187 0626 0600     		.2byte	0x6
 12188 0628 03       		.byte	0x3
 12189 0629 00000000 		.4byte	mb1
 12190 062d 9F       		.byte	0x9f
 12191 062e 00000000 		.4byte	0
 12192 0632 00000000 		.4byte	0
 12193              	.LVUS53:
 12194 0636 09       		.uleb128 .LVU671
 12195 0637 0D       		.uleb128 .LVU675
 12196              	.LLST53:
 12197 0638 4E020000 		.4byte	.LVL118
 12198 063c 4E020000 		.4byte	.LVL118
 12199 0640 0600     		.2byte	0x6
 12200 0642 03       		.byte	0x3
 12201 0643 00000000 		.4byte	mb1
 12202 0647 9F       		.byte	0x9f
 12203 0648 00000000 		.4byte	0
 12204 064c 00000000 		.4byte	0
 12205              	.LVUS54:
ARM GAS  /tmp/ccCget5K.s 			page 216


 12206 0650 0C       		.uleb128 .LVU693
 12207 0651 00       		.uleb128 .LVU695
 12208              	.LLST54:
 12209 0652 68020000 		.4byte	.LVL120
 12210 0656 6C020000 		.4byte	.LVL121
 12211 065a 0200     		.2byte	0x2
 12212 065c 30       		.byte	0x30
 12213 065d 9F       		.byte	0x9f
 12214 065e 00000000 		.4byte	0
 12215 0662 00000000 		.4byte	0
 12216              	.LVUS55:
 12217 0666 09       		.uleb128 .LVU704
 12218 0667 00       		.uleb128 .LVU706
 12219              	.LLST55:
 12220 0668 6C020000 		.4byte	.LVL121
 12221 066c 70020000 		.4byte	.LVL122
 12222 0670 0300     		.2byte	0x3
 12223 0672 08       		.byte	0x8
 12224 0673 20       		.byte	0x20
 12225 0674 9F       		.byte	0x9f
 12226 0675 00000000 		.4byte	0
 12227 0679 00000000 		.4byte	0
 12228              	.LVUS56:
 12229 067d 04       		.uleb128 .LVU710
 12230 067e 07       		.uleb128 .LVU713
 12231              	.LLST56:
 12232 067f 70020000 		.4byte	.LVL122
 12233 0683 70020000 		.4byte	.LVL122
 12234 0687 0600     		.2byte	0x6
 12235 0689 03       		.byte	0x3
 12236 068a 00000000 		.4byte	mb1
 12237 068e 9F       		.byte	0x9f
 12238 068f 00000000 		.4byte	0
 12239 0693 00000000 		.4byte	0
 12240              	.LVUS57:
 12241 0697 0C       		.uleb128 .LVU727
 12242 0698 00       		.uleb128 .LVU729
 12243              	.LLST57:
 12244 0699 80020000 		.4byte	.LVL124
 12245 069d 84020000 		.4byte	.LVL125
 12246 06a1 0200     		.2byte	0x2
 12247 06a3 30       		.byte	0x30
 12248 06a4 9F       		.byte	0x9f
 12249 06a5 00000000 		.4byte	0
 12250 06a9 00000000 		.4byte	0
 12251              	.LVUS58:
 12252 06ad 0C       		.uleb128 .LVU748
 12253 06ae 00       		.uleb128 .LVU750
 12254              	.LLST58:
 12255 06af AC020000 		.4byte	.LVL128
 12256 06b3 B0020000 		.4byte	.LVL129
 12257 06b7 0200     		.2byte	0x2
 12258 06b9 30       		.byte	0x30
 12259 06ba 9F       		.byte	0x9f
 12260 06bb 00000000 		.4byte	0
 12261 06bf 00000000 		.4byte	0
 12262              	.LVUS59:
ARM GAS  /tmp/ccCget5K.s 			page 217


 12263 06c3 07       		.uleb128 .LVU767
 12264 06c4 00       		.uleb128 .LVU769
 12265              	.LLST59:
 12266 06c5 0C000000 		.4byte	.LVL130
 12267 06c9 12000000 		.4byte	.LVL131
 12268 06cd 0300     		.2byte	0x3
 12269 06cf 08       		.byte	0x8
 12270 06d0 20       		.byte	0x20
 12271 06d1 9F       		.byte	0x9f
 12272 06d2 00000000 		.4byte	0
 12273 06d6 00000000 		.4byte	0
 12274              	.LVUS60:
 12275 06da 04       		.uleb128 .LVU773
 12276 06db 0D       		.uleb128 .LVU782
 12277              	.LLST60:
 12278 06dc 12000000 		.4byte	.LVL131
 12279 06e0 12000000 		.4byte	.LVL131
 12280 06e4 0600     		.2byte	0x6
 12281 06e6 03       		.byte	0x3
 12282 06e7 00000000 		.4byte	mb1
 12283 06eb 9F       		.byte	0x9f
 12284 06ec 00000000 		.4byte	0
 12285 06f0 00000000 		.4byte	0
 12286              	.LVUS61:
 12287 06f4 07       		.uleb128 .LVU776
 12288 06f5 09       		.uleb128 .LVU778
 12289              	.LLST61:
 12290 06f6 12000000 		.4byte	.LVL131
 12291 06fa 12000000 		.4byte	.LVL131
 12292 06fe 0600     		.2byte	0x6
 12293 0700 03       		.byte	0x3
 12294 0701 00000000 		.4byte	mb1
 12295 0705 9F       		.byte	0x9f
 12296 0706 00000000 		.4byte	0
 12297 070a 00000000 		.4byte	0
 12298              	.LVUS62:
 12299 070e 09       		.uleb128 .LVU778
 12300 070f 0D       		.uleb128 .LVU782
 12301              	.LLST62:
 12302 0710 12000000 		.4byte	.LVL131
 12303 0714 12000000 		.4byte	.LVL131
 12304 0718 0600     		.2byte	0x6
 12305 071a 03       		.byte	0x3
 12306 071b 00000000 		.4byte	mb1
 12307 071f 9F       		.byte	0x9f
 12308 0720 00000000 		.4byte	0
 12309 0724 00000000 		.4byte	0
 12310              	.LVUS63:
 12311 0728 0C       		.uleb128 .LVU800
 12312 0729 00       		.uleb128 .LVU802
 12313              	.LLST63:
 12314 072a 32000000 		.4byte	.LVL133
 12315 072e 38000000 		.4byte	.LVL134
 12316 0732 0200     		.2byte	0x2
 12317 0734 30       		.byte	0x30
 12318 0735 9F       		.byte	0x9f
 12319 0736 00000000 		.4byte	0
ARM GAS  /tmp/ccCget5K.s 			page 218


 12320 073a 00000000 		.4byte	0
 12321              	.LVUS64:
 12322 073e 00       		.uleb128 .LVU1001
 12323 073f 00       		.uleb128 .LVU1002
 12324 0740 00       		.uleb128 .LVU1002
 12325 0741 00       		.uleb128 .LVU1006
 12326 0742 00       		.uleb128 .LVU1006
 12327 0743 00       		.uleb128 .LVU1007
 12328 0744 00       		.uleb128 .LVU1007
 12329 0745 00       		.uleb128 .LVU1008
 12330 0746 00       		.uleb128 .LVU1012
 12331 0747 00       		.uleb128 .LVU1013
 12332 0748 00       		.uleb128 .LVU1013
 12333 0749 00       		.uleb128 .LVU1014
 12334 074a 00       		.uleb128 .LVU1029
 12335 074b 00       		.uleb128 .LVU1030
 12336 074c 00       		.uleb128 .LVU1040
 12337 074d 00       		.uleb128 .LVU1041
 12338 074e 00       		.uleb128 .LVU1173
 12339 074f 00       		.uleb128 .LVU1174
 12340 0750 00       		.uleb128 .LVU1190
 12341 0751 00       		.uleb128 .LVU1191
 12342 0752 00       		.uleb128 .LVU1195
 12343 0753 00       		.uleb128 .LVU1196
 12344              	.LLST64:
 12345 0754 F2000000 		.4byte	.LVL158
 12346 0758 F8000000 		.4byte	.LVL159
 12347 075c 0100     		.2byte	0x1
 12348 075e 50       		.byte	0x50
 12349 075f F8000000 		.4byte	.LVL159
 12350 0763 10010000 		.4byte	.LVL161
 12351 0767 0300     		.2byte	0x3
 12352 0769 75       		.byte	0x75
 12353 076a 7E       		.sleb128 -2
 12354 076b 9F       		.byte	0x9f
 12355 076c 10010000 		.4byte	.LVL161
 12356 0770 16010000 		.4byte	.LVL162
 12357 0774 0100     		.2byte	0x1
 12358 0776 50       		.byte	0x50
 12359 0777 16010000 		.4byte	.LVL162
 12360 077b 1D010000 		.4byte	.LVL163-1
 12361 077f 0300     		.2byte	0x3
 12362 0781 72       		.byte	0x72
 12363 0782 7E       		.sleb128 -2
 12364 0783 9F       		.byte	0x9f
 12365 0784 2E010000 		.4byte	.LVL164
 12366 0788 34010000 		.4byte	.LVL165
 12367 078c 0100     		.2byte	0x1
 12368 078e 50       		.byte	0x50
 12369 078f 34010000 		.4byte	.LVL165
 12370 0793 3B010000 		.4byte	.LVL166-1
 12371 0797 0300     		.2byte	0x3
 12372 0799 73       		.byte	0x73
 12373 079a 7E       		.sleb128 -2
 12374 079b 9F       		.byte	0x9f
 12375 079c 58010000 		.4byte	.LVL171
 12376 07a0 5C010000 		.4byte	.LVL172
ARM GAS  /tmp/ccCget5K.s 			page 219


 12377 07a4 0100     		.2byte	0x1
 12378 07a6 50       		.byte	0x50
 12379 07a7 7C010000 		.4byte	.LVL175
 12380 07ab 80010000 		.4byte	.LVL176
 12381 07af 0100     		.2byte	0x1
 12382 07b1 50       		.byte	0x50
 12383 07b2 22020000 		.4byte	.LVL195
 12384 07b6 26020000 		.4byte	.LVL196
 12385 07ba 0100     		.2byte	0x1
 12386 07bc 50       		.byte	0x50
 12387 07bd 5E020000 		.4byte	.LVL201
 12388 07c1 62020000 		.4byte	.LVL202
 12389 07c5 0100     		.2byte	0x1
 12390 07c7 50       		.byte	0x50
 12391 07c8 7C020000 		.4byte	.LVL204
 12392 07cc 80020000 		.4byte	.LVL205
 12393 07d0 0100     		.2byte	0x1
 12394 07d2 50       		.byte	0x50
 12395 07d3 00000000 		.4byte	0
 12396 07d7 00000000 		.4byte	0
 12397              	.LVUS65:
 12398 07db 01       		.uleb128 .LVU1025
 12399 07dc 00       		.uleb128 .LVU1027
 12400 07dd 00       		.uleb128 .LVU1027
 12401 07de 00       		.uleb128 .LVU1032
 12402 07df 00       		.uleb128 .LVU1032
 12403 07e0 02       		.uleb128 .LVU1035
 12404 07e1 01       		.uleb128 .LVU1169
 12405 07e2 00       		.uleb128 .LVU1171
 12406 07e3 00       		.uleb128 .LVU1171
 12407 07e4 01       		.uleb128 .LVU1180
 12408 07e5 01       		.uleb128 .LVU1180
 12409 07e6 00       		.uleb128 .LVU1182
 12410 07e7 00       		.uleb128 .LVU1182
 12411 07e8 01       		.uleb128 .LVU1281
 12412              	.LLST65:
 12413 07e9 4A010000 		.4byte	.LVL169
 12414 07ed 4C010000 		.4byte	.LVL170
 12415 07f1 0200     		.2byte	0x2
 12416 07f3 30       		.byte	0x30
 12417 07f4 9F       		.byte	0x9f
 12418 07f5 4C010000 		.4byte	.LVL170
 12419 07f9 62010000 		.4byte	.LVL173
 12420 07fd 0400     		.2byte	0x4
 12421 07ff 75       		.byte	0x75
 12422 0800 BE7F     		.sleb128 -66
 12423 0802 9F       		.byte	0x9f
 12424 0803 62010000 		.4byte	.LVL173
 12425 0807 66010000 		.4byte	.LVL174
 12426 080b 0400     		.2byte	0x4
 12427 080d 75       		.byte	0x75
 12428 080e BD7F     		.sleb128 -67
 12429 0810 9F       		.byte	0x9f
 12430 0811 14020000 		.4byte	.LVL193
 12431 0815 16020000 		.4byte	.LVL194
 12432 0819 0200     		.2byte	0x2
 12433 081b 30       		.byte	0x30
ARM GAS  /tmp/ccCget5K.s 			page 220


 12434 081c 9F       		.byte	0x9f
 12435 081d 16020000 		.4byte	.LVL194
 12436 0821 3C020000 		.4byte	.LVL198
 12437 0825 0500     		.2byte	0x5
 12438 0827 34       		.byte	0x34
 12439 0828 75       		.byte	0x75
 12440 0829 00       		.sleb128 0
 12441 082a 1C       		.byte	0x1c
 12442 082b 9F       		.byte	0x9f
 12443 082c 3C020000 		.4byte	.LVL198
 12444 0830 3E020000 		.4byte	.LVL199
 12445 0834 0500     		.2byte	0x5
 12446 0836 35       		.byte	0x35
 12447 0837 75       		.byte	0x75
 12448 0838 00       		.sleb128 0
 12449 0839 1C       		.byte	0x1c
 12450 083a 9F       		.byte	0x9f
 12451 083b 3E020000 		.4byte	.LVL199
 12452 083f FC020000 		.4byte	.LVL217
 12453 0843 0500     		.2byte	0x5
 12454 0845 34       		.byte	0x34
 12455 0846 75       		.byte	0x75
 12456 0847 00       		.sleb128 0
 12457 0848 1C       		.byte	0x1c
 12458 0849 9F       		.byte	0x9f
 12459 084a 00000000 		.4byte	0
 12460 084e 00000000 		.4byte	0
 12461              	.LVUS66:
 12462 0852 0D       		.uleb128 .LVU818
 12463 0853 00       		.uleb128 .LVU820
 12464              	.LLST66:
 12465 0854 3E000000 		.4byte	.LVL135
 12466 0858 44000000 		.4byte	.LVL136
 12467 085c 0200     		.2byte	0x2
 12468 085e 30       		.byte	0x30
 12469 085f 9F       		.byte	0x9f
 12470 0860 00000000 		.4byte	0
 12471 0864 00000000 		.4byte	0
 12472              	.LVUS67:
 12473 0868 07       		.uleb128 .LVU833
 12474 0869 00       		.uleb128 .LVU835
 12475              	.LLST67:
 12476 086a 4E000000 		.4byte	.LVL137
 12477 086e 52000000 		.4byte	.LVL138
 12478 0872 0300     		.2byte	0x3
 12479 0874 08       		.byte	0x8
 12480 0875 20       		.byte	0x20
 12481 0876 9F       		.byte	0x9f
 12482 0877 00000000 		.4byte	0
 12483 087b 00000000 		.4byte	0
 12484              	.LVUS68:
 12485 087f 04       		.uleb128 .LVU839
 12486 0880 0D       		.uleb128 .LVU848
 12487              	.LLST68:
 12488 0881 52000000 		.4byte	.LVL138
 12489 0885 52000000 		.4byte	.LVL138
 12490 0889 0600     		.2byte	0x6
ARM GAS  /tmp/ccCget5K.s 			page 221


 12491 088b 03       		.byte	0x3
 12492 088c 00000000 		.4byte	mb1
 12493 0890 9F       		.byte	0x9f
 12494 0891 00000000 		.4byte	0
 12495 0895 00000000 		.4byte	0
 12496              	.LVUS69:
 12497 0899 07       		.uleb128 .LVU842
 12498 089a 09       		.uleb128 .LVU844
 12499              	.LLST69:
 12500 089b 52000000 		.4byte	.LVL138
 12501 089f 52000000 		.4byte	.LVL138
 12502 08a3 0600     		.2byte	0x6
 12503 08a5 03       		.byte	0x3
 12504 08a6 00000000 		.4byte	mb1
 12505 08aa 9F       		.byte	0x9f
 12506 08ab 00000000 		.4byte	0
 12507 08af 00000000 		.4byte	0
 12508              	.LVUS70:
 12509 08b3 09       		.uleb128 .LVU844
 12510 08b4 0D       		.uleb128 .LVU848
 12511              	.LLST70:
 12512 08b5 52000000 		.4byte	.LVL138
 12513 08b9 52000000 		.4byte	.LVL138
 12514 08bd 0600     		.2byte	0x6
 12515 08bf 03       		.byte	0x3
 12516 08c0 00000000 		.4byte	mb1
 12517 08c4 9F       		.byte	0x9f
 12518 08c5 00000000 		.4byte	0
 12519 08c9 00000000 		.4byte	0
 12520              	.LVUS71:
 12521 08cd 0C       		.uleb128 .LVU866
 12522 08ce 00       		.uleb128 .LVU868
 12523              	.LLST71:
 12524 08cf 72000000 		.4byte	.LVL140
 12525 08d3 76000000 		.4byte	.LVL141
 12526 08d7 0200     		.2byte	0x2
 12527 08d9 30       		.byte	0x30
 12528 08da 9F       		.byte	0x9f
 12529 08db 00000000 		.4byte	0
 12530 08df 00000000 		.4byte	0
 12531              	.LVUS72:
 12532 08e3 09       		.uleb128 .LVU877
 12533 08e4 00       		.uleb128 .LVU879
 12534              	.LLST72:
 12535 08e5 76000000 		.4byte	.LVL141
 12536 08e9 7A000000 		.4byte	.LVL142
 12537 08ed 0300     		.2byte	0x3
 12538 08ef 08       		.byte	0x8
 12539 08f0 20       		.byte	0x20
 12540 08f1 9F       		.byte	0x9f
 12541 08f2 00000000 		.4byte	0
 12542 08f6 00000000 		.4byte	0
 12543              	.LVUS73:
 12544 08fa 04       		.uleb128 .LVU883
 12545 08fb 07       		.uleb128 .LVU886
 12546              	.LLST73:
 12547 08fc 7A000000 		.4byte	.LVL142
ARM GAS  /tmp/ccCget5K.s 			page 222


 12548 0900 7A000000 		.4byte	.LVL142
 12549 0904 0600     		.2byte	0x6
 12550 0906 03       		.byte	0x3
 12551 0907 00000000 		.4byte	mb1
 12552 090b 9F       		.byte	0x9f
 12553 090c 00000000 		.4byte	0
 12554 0910 00000000 		.4byte	0
 12555              	.LVUS74:
 12556 0914 0C       		.uleb128 .LVU900
 12557 0915 00       		.uleb128 .LVU902
 12558              	.LLST74:
 12559 0916 8C000000 		.4byte	.LVL144
 12560 091a 90000000 		.4byte	.LVL145
 12561 091e 0200     		.2byte	0x2
 12562 0920 30       		.byte	0x30
 12563 0921 9F       		.byte	0x9f
 12564 0922 00000000 		.4byte	0
 12565 0926 00000000 		.4byte	0
 12566              	.LVUS75:
 12567 092a 0C       		.uleb128 .LVU917
 12568 092b 00       		.uleb128 .LVU919
 12569              	.LLST75:
 12570 092c 96000000 		.4byte	.LVL146
 12571 0930 9A000000 		.4byte	.LVL147
 12572 0934 0200     		.2byte	0x2
 12573 0936 30       		.byte	0x30
 12574 0937 9F       		.byte	0x9f
 12575 0938 00000000 		.4byte	0
 12576 093c 00000000 		.4byte	0
 12577              	.LVUS76:
 12578 0940 0C       		.uleb128 .LVU934
 12579 0941 00       		.uleb128 .LVU936
 12580              	.LLST76:
 12581 0942 A0000000 		.4byte	.LVL148
 12582 0946 A4000000 		.4byte	.LVL149
 12583 094a 0200     		.2byte	0x2
 12584 094c 30       		.byte	0x30
 12585 094d 9F       		.byte	0x9f
 12586 094e 00000000 		.4byte	0
 12587 0952 00000000 		.4byte	0
 12588              	.LVUS77:
 12589 0956 09       		.uleb128 .LVU945
 12590 0957 00       		.uleb128 .LVU947
 12591              	.LLST77:
 12592 0958 A4000000 		.4byte	.LVL149
 12593 095c A8000000 		.4byte	.LVL150
 12594 0960 0300     		.2byte	0x3
 12595 0962 08       		.byte	0x8
 12596 0963 20       		.byte	0x20
 12597 0964 9F       		.byte	0x9f
 12598 0965 00000000 		.4byte	0
 12599 0969 00000000 		.4byte	0
 12600              	.LVUS78:
 12601 096d 0C       		.uleb128 .LVU963
 12602 096e 00       		.uleb128 .LVU965
 12603              	.LLST78:
 12604 096f C0000000 		.4byte	.LVL152
ARM GAS  /tmp/ccCget5K.s 			page 223


 12605 0973 C4000000 		.4byte	.LVL153
 12606 0977 0200     		.2byte	0x2
 12607 0979 30       		.byte	0x30
 12608 097a 9F       		.byte	0x9f
 12609 097b 00000000 		.4byte	0
 12610 097f 00000000 		.4byte	0
 12611              	.LVUS79:
 12612 0983 09       		.uleb128 .LVU974
 12613 0984 00       		.uleb128 .LVU976
 12614              	.LLST79:
 12615 0985 C4000000 		.4byte	.LVL153
 12616 0989 C8000000 		.4byte	.LVL154
 12617 098d 0300     		.2byte	0x3
 12618 098f 08       		.byte	0x8
 12619 0990 20       		.byte	0x20
 12620 0991 9F       		.byte	0x9f
 12621 0992 00000000 		.4byte	0
 12622 0996 00000000 		.4byte	0
 12623              	.LVUS80:
 12624 099a 0C       		.uleb128 .LVU992
 12625 099b 00       		.uleb128 .LVU994
 12626              	.LLST80:
 12627 099c DE000000 		.4byte	.LVL156
 12628 09a0 E2000000 		.4byte	.LVL157
 12629 09a4 0200     		.2byte	0x2
 12630 09a6 30       		.byte	0x30
 12631 09a7 9F       		.byte	0x9f
 12632 09a8 00000000 		.4byte	0
 12633 09ac 00000000 		.4byte	0
 12634              	.LVUS81:
 12635 09b0 02       		.uleb128 .LVU1017
 12636 09b1 00       		.uleb128 .LVU1022
 12637              	.LLST81:
 12638 09b2 42010000 		.4byte	.LVL167
 12639 09b6 48010000 		.4byte	.LVL168
 12640 09ba 0600     		.2byte	0x6
 12641 09bc 03       		.byte	0x3
 12642 09bd 00000000 		.4byte	mb1
 12643 09c1 9F       		.byte	0x9f
 12644 09c2 00000000 		.4byte	0
 12645 09c6 00000000 		.4byte	0
 12646              	.LVUS82:
 12647 09ca 07       		.uleb128 .LVU1051
 12648 09cb 00       		.uleb128 .LVU1053
 12649              	.LLST82:
 12650 09cc 94010000 		.4byte	.LVL178
 12651 09d0 9C010000 		.4byte	.LVL179
 12652 09d4 0300     		.2byte	0x3
 12653 09d6 08       		.byte	0x8
 12654 09d7 20       		.byte	0x20
 12655 09d8 9F       		.byte	0x9f
 12656 09d9 00000000 		.4byte	0
 12657 09dd 00000000 		.4byte	0
 12658              	.LVUS83:
 12659 09e1 04       		.uleb128 .LVU1057
 12660 09e2 0D       		.uleb128 .LVU1066
 12661              	.LLST83:
ARM GAS  /tmp/ccCget5K.s 			page 224


 12662 09e3 9C010000 		.4byte	.LVL179
 12663 09e7 9C010000 		.4byte	.LVL179
 12664 09eb 0600     		.2byte	0x6
 12665 09ed 03       		.byte	0x3
 12666 09ee 00000000 		.4byte	mb1
 12667 09f2 9F       		.byte	0x9f
 12668 09f3 00000000 		.4byte	0
 12669 09f7 00000000 		.4byte	0
 12670              	.LVUS84:
 12671 09fb 07       		.uleb128 .LVU1060
 12672 09fc 09       		.uleb128 .LVU1062
 12673              	.LLST84:
 12674 09fd 9C010000 		.4byte	.LVL179
 12675 0a01 9C010000 		.4byte	.LVL179
 12676 0a05 0600     		.2byte	0x6
 12677 0a07 03       		.byte	0x3
 12678 0a08 00000000 		.4byte	mb1
 12679 0a0c 9F       		.byte	0x9f
 12680 0a0d 00000000 		.4byte	0
 12681 0a11 00000000 		.4byte	0
 12682              	.LVUS85:
 12683 0a15 09       		.uleb128 .LVU1062
 12684 0a16 0D       		.uleb128 .LVU1066
 12685              	.LLST85:
 12686 0a17 9C010000 		.4byte	.LVL179
 12687 0a1b 9C010000 		.4byte	.LVL179
 12688 0a1f 0600     		.2byte	0x6
 12689 0a21 03       		.byte	0x3
 12690 0a22 00000000 		.4byte	mb1
 12691 0a26 9F       		.byte	0x9f
 12692 0a27 00000000 		.4byte	0
 12693 0a2b 00000000 		.4byte	0
 12694              	.LVUS86:
 12695 0a2f 0C       		.uleb128 .LVU1081
 12696 0a30 00       		.uleb128 .LVU1083
 12697              	.LLST86:
 12698 0a31 BC010000 		.4byte	.LVL181
 12699 0a35 C0010000 		.4byte	.LVL182
 12700 0a39 0200     		.2byte	0x2
 12701 0a3b 30       		.byte	0x30
 12702 0a3c 9F       		.byte	0x9f
 12703 0a3d 00000000 		.4byte	0
 12704 0a41 00000000 		.4byte	0
 12705              	.LVUS87:
 12706 0a45 09       		.uleb128 .LVU1092
 12707 0a46 00       		.uleb128 .LVU1094
 12708              	.LLST87:
 12709 0a47 C0010000 		.4byte	.LVL182
 12710 0a4b C4010000 		.4byte	.LVL183
 12711 0a4f 0300     		.2byte	0x3
 12712 0a51 08       		.byte	0x8
 12713 0a52 20       		.byte	0x20
 12714 0a53 9F       		.byte	0x9f
 12715 0a54 00000000 		.4byte	0
 12716 0a58 00000000 		.4byte	0
 12717              	.LVUS88:
 12718 0a5c 04       		.uleb128 .LVU1098
ARM GAS  /tmp/ccCget5K.s 			page 225


 12719 0a5d 07       		.uleb128 .LVU1101
 12720              	.LLST88:
 12721 0a5e C4010000 		.4byte	.LVL183
 12722 0a62 C4010000 		.4byte	.LVL183
 12723 0a66 0600     		.2byte	0x6
 12724 0a68 03       		.byte	0x3
 12725 0a69 00000000 		.4byte	mb1
 12726 0a6d 9F       		.byte	0x9f
 12727 0a6e 00000000 		.4byte	0
 12728 0a72 00000000 		.4byte	0
 12729              	.LVUS89:
 12730 0a76 0C       		.uleb128 .LVU1115
 12731 0a77 00       		.uleb128 .LVU1117
 12732              	.LLST89:
 12733 0a78 DC010000 		.4byte	.LVL185
 12734 0a7c E0010000 		.4byte	.LVL186
 12735 0a80 0200     		.2byte	0x2
 12736 0a82 30       		.byte	0x30
 12737 0a83 9F       		.byte	0x9f
 12738 0a84 00000000 		.4byte	0
 12739 0a88 00000000 		.4byte	0
 12740              	.LVUS90:
 12741 0a8c 0C       		.uleb128 .LVU1131
 12742 0a8d 00       		.uleb128 .LVU1133
 12743              	.LLST90:
 12744 0a8e E2010000 		.4byte	.LVL187
 12745 0a92 E6010000 		.4byte	.LVL188
 12746 0a96 0200     		.2byte	0x2
 12747 0a98 30       		.byte	0x30
 12748 0a99 9F       		.byte	0x9f
 12749 0a9a 00000000 		.4byte	0
 12750 0a9e 00000000 		.4byte	0
 12751              	.LVUS91:
 12752 0aa2 09       		.uleb128 .LVU1142
 12753 0aa3 00       		.uleb128 .LVU1144
 12754              	.LLST91:
 12755 0aa4 E6010000 		.4byte	.LVL188
 12756 0aa8 EA010000 		.4byte	.LVL189
 12757 0aac 0300     		.2byte	0x3
 12758 0aae 08       		.byte	0x8
 12759 0aaf 20       		.byte	0x20
 12760 0ab0 9F       		.byte	0x9f
 12761 0ab1 00000000 		.4byte	0
 12762 0ab5 00000000 		.4byte	0
 12763              	.LVUS92:
 12764 0ab9 0C       		.uleb128 .LVU1160
 12765 0aba 00       		.uleb128 .LVU1162
 12766              	.LLST92:
 12767 0abb 06020000 		.4byte	.LVL191
 12768 0abf 0A020000 		.4byte	.LVL192
 12769 0ac3 0200     		.2byte	0x2
 12770 0ac5 30       		.byte	0x30
 12771 0ac6 9F       		.byte	0x9f
 12772 0ac7 00000000 		.4byte	0
 12773 0acb 00000000 		.4byte	0
 12774              	.LVUS93:
 12775 0acf 07       		.uleb128 .LVU1206
ARM GAS  /tmp/ccCget5K.s 			page 226


 12776 0ad0 00       		.uleb128 .LVU1208
 12777              	.LLST93:
 12778 0ad1 92020000 		.4byte	.LVL207
 12779 0ad5 98020000 		.4byte	.LVL208
 12780 0ad9 0300     		.2byte	0x3
 12781 0adb 08       		.byte	0x8
 12782 0adc 20       		.byte	0x20
 12783 0add 9F       		.byte	0x9f
 12784 0ade 00000000 		.4byte	0
 12785 0ae2 00000000 		.4byte	0
 12786              	.LVUS94:
 12787 0ae6 04       		.uleb128 .LVU1212
 12788 0ae7 0D       		.uleb128 .LVU1221
 12789              	.LLST94:
 12790 0ae8 98020000 		.4byte	.LVL208
 12791 0aec 98020000 		.4byte	.LVL208
 12792 0af0 0600     		.2byte	0x6
 12793 0af2 03       		.byte	0x3
 12794 0af3 00000000 		.4byte	mb1
 12795 0af7 9F       		.byte	0x9f
 12796 0af8 00000000 		.4byte	0
 12797 0afc 00000000 		.4byte	0
 12798              	.LVUS95:
 12799 0b00 07       		.uleb128 .LVU1215
 12800 0b01 09       		.uleb128 .LVU1217
 12801              	.LLST95:
 12802 0b02 98020000 		.4byte	.LVL208
 12803 0b06 98020000 		.4byte	.LVL208
 12804 0b0a 0600     		.2byte	0x6
 12805 0b0c 03       		.byte	0x3
 12806 0b0d 00000000 		.4byte	mb1
 12807 0b11 9F       		.byte	0x9f
 12808 0b12 00000000 		.4byte	0
 12809 0b16 00000000 		.4byte	0
 12810              	.LVUS96:
 12811 0b1a 09       		.uleb128 .LVU1217
 12812 0b1b 0D       		.uleb128 .LVU1221
 12813              	.LLST96:
 12814 0b1c 98020000 		.4byte	.LVL208
 12815 0b20 98020000 		.4byte	.LVL208
 12816 0b24 0600     		.2byte	0x6
 12817 0b26 03       		.byte	0x3
 12818 0b27 00000000 		.4byte	mb1
 12819 0b2b 9F       		.byte	0x9f
 12820 0b2c 00000000 		.4byte	0
 12821 0b30 00000000 		.4byte	0
 12822              	.LVUS97:
 12823 0b34 0C       		.uleb128 .LVU1239
 12824 0b35 00       		.uleb128 .LVU1241
 12825              	.LLST97:
 12826 0b36 B6020000 		.4byte	.LVL210
 12827 0b3a BA020000 		.4byte	.LVL211
 12828 0b3e 0200     		.2byte	0x2
 12829 0b40 30       		.byte	0x30
 12830 0b41 9F       		.byte	0x9f
 12831 0b42 00000000 		.4byte	0
 12832 0b46 00000000 		.4byte	0
ARM GAS  /tmp/ccCget5K.s 			page 227


 12833              	.LVUS98:
 12834 0b4a 09       		.uleb128 .LVU1250
 12835 0b4b 00       		.uleb128 .LVU1252
 12836              	.LLST98:
 12837 0b4c BA020000 		.4byte	.LVL211
 12838 0b50 BE020000 		.4byte	.LVL212
 12839 0b54 0300     		.2byte	0x3
 12840 0b56 08       		.byte	0x8
 12841 0b57 20       		.byte	0x20
 12842 0b58 9F       		.byte	0x9f
 12843 0b59 00000000 		.4byte	0
 12844 0b5d 00000000 		.4byte	0
 12845              	.LVUS99:
 12846 0b61 04       		.uleb128 .LVU1256
 12847 0b62 07       		.uleb128 .LVU1259
 12848              	.LLST99:
 12849 0b63 BE020000 		.4byte	.LVL212
 12850 0b67 BE020000 		.4byte	.LVL212
 12851 0b6b 0600     		.2byte	0x6
 12852 0b6d 03       		.byte	0x3
 12853 0b6e 00000000 		.4byte	mb1
 12854 0b72 9F       		.byte	0x9f
 12855 0b73 00000000 		.4byte	0
 12856 0b77 00000000 		.4byte	0
 12857              	.LVUS100:
 12858 0b7b 0C       		.uleb128 .LVU1273
 12859 0b7c 00       		.uleb128 .LVU1275
 12860              	.LLST100:
 12861 0b7d D2020000 		.4byte	.LVL214
 12862 0b81 D6020000 		.4byte	.LVL215
 12863 0b85 0200     		.2byte	0x2
 12864 0b87 30       		.byte	0x30
 12865 0b88 9F       		.byte	0x9f
 12866 0b89 00000000 		.4byte	0
 12867 0b8d 00000000 		.4byte	0
 12868              		.section	.debug_aranges,"",%progbits
 12869 0000 3C000000 		.4byte	0x3c
 12870 0004 0200     		.2byte	0x2
 12871 0006 00000000 		.4byte	.Ldebug_info0
 12872 000a 04       		.byte	0x4
 12873 000b 00       		.byte	0
 12874 000c 0000     		.2byte	0
 12875 000e 0000     		.2byte	0
 12876 0010 00000000 		.4byte	.LFB278
 12877 0014 0C000000 		.4byte	.LFE278-.LFB278
 12878 0018 00000000 		.4byte	.LFB285
 12879 001c 24010000 		.4byte	.LFE285-.LFB285
 12880 0020 00000000 		.4byte	.LFB277
 12881 0024 14000000 		.4byte	.LFE277-.LFB277
 12882 0028 00000000 		.4byte	.LFB282
 12883 002c E8020000 		.4byte	.LFE282-.LFB282
 12884 0030 00000000 		.4byte	.LFB279
 12885 0034 38030000 		.4byte	.LFE279-.LFB279
 12886 0038 00000000 		.4byte	0
 12887 003c 00000000 		.4byte	0
 12888              		.section	.debug_ranges,"",%progbits
 12889              	.Ldebug_ranges0:
ARM GAS  /tmp/ccCget5K.s 			page 228


 12890 0000 56000000 		.4byte	.LBB1004
 12891 0004 56000000 		.4byte	.LBE1004
 12892 0008 56000000 		.4byte	.LBB1009
 12893 000c 56000000 		.4byte	.LBE1009
 12894 0010 56000000 		.4byte	.LBB1010
 12895 0014 5C000000 		.4byte	.LBE1010
 12896 0018 00000000 		.4byte	0
 12897 001c 00000000 		.4byte	0
 12898 0020 64000000 		.4byte	.LBB1011
 12899 0024 64000000 		.4byte	.LBE1011
 12900 0028 64000000 		.4byte	.LBB1018
 12901 002c 68000000 		.4byte	.LBE1018
 12902 0030 00000000 		.4byte	0
 12903 0034 00000000 		.4byte	0
 12904 0038 9C000000 		.4byte	.LBB1019
 12905 003c 9C000000 		.4byte	.LBE1019
 12906 0040 9C000000 		.4byte	.LBB1024
 12907 0044 9C000000 		.4byte	.LBE1024
 12908 0048 9C000000 		.4byte	.LBB1025
 12909 004c A0000000 		.4byte	.LBE1025
 12910 0050 00000000 		.4byte	0
 12911 0054 00000000 		.4byte	0
 12912 0058 A8000000 		.4byte	.LBB1026
 12913 005c A8000000 		.4byte	.LBE1026
 12914 0060 A8000000 		.4byte	.LBB1033
 12915 0064 AC000000 		.4byte	.LBE1033
 12916 0068 00000000 		.4byte	0
 12917 006c 00000000 		.4byte	0
 12918 0070 CC000000 		.4byte	.LBB1034
 12919 0074 CC000000 		.4byte	.LBE1034
 12920 0078 D8000000 		.4byte	.LBB1037
 12921 007c DA000000 		.4byte	.LBE1037
 12922 0080 00000000 		.4byte	0
 12923 0084 00000000 		.4byte	0
 12924 0088 F4000000 		.4byte	.LBB1038
 12925 008c F4000000 		.4byte	.LBE1038
 12926 0090 F4000000 		.4byte	.LBB1043
 12927 0094 F4000000 		.4byte	.LBE1043
 12928 0098 F4000000 		.4byte	.LBB1044
 12929 009c F8000000 		.4byte	.LBE1044
 12930 00a0 00000000 		.4byte	0
 12931 00a4 00000000 		.4byte	0
 12932 00a8 00010000 		.4byte	.LBB1045
 12933 00ac 00010000 		.4byte	.LBE1045
 12934 00b0 00010000 		.4byte	.LBB1052
 12935 00b4 04010000 		.4byte	.LBE1052
 12936 00b8 00000000 		.4byte	0
 12937 00bc 00000000 		.4byte	0
 12938 00c0 0C000000 		.4byte	.LBB1310
 12939 00c4 0C000000 		.4byte	.LBE1310
 12940 00c8 0C000000 		.4byte	.LBB1318
 12941 00cc 0C000000 		.4byte	.LBE1318
 12942 00d0 0C000000 		.4byte	.LBB1319
 12943 00d4 0C000000 		.4byte	.LBE1319
 12944 00d8 0C000000 		.4byte	.LBB1320
 12945 00dc 12000000 		.4byte	.LBE1320
 12946 00e0 00000000 		.4byte	0
ARM GAS  /tmp/ccCget5K.s 			page 229


 12947 00e4 00000000 		.4byte	0
 12948 00e8 12000000 		.4byte	.LBB1321
 12949 00ec 14000000 		.4byte	.LBE1321
 12950 00f0 16000000 		.4byte	.LBB1332
 12951 00f4 22000000 		.4byte	.LBE1332
 12952 00f8 00000000 		.4byte	0
 12953 00fc 00000000 		.4byte	0
 12954 0100 12000000 		.4byte	.LBB1323
 12955 0104 12000000 		.4byte	.LBE1323
 12956 0108 12000000 		.4byte	.LBB1329
 12957 010c 14000000 		.4byte	.LBE1329
 12958 0110 16000000 		.4byte	.LBB1330
 12959 0114 1C000000 		.4byte	.LBE1330
 12960 0118 00000000 		.4byte	0
 12961 011c 00000000 		.4byte	0
 12962 0120 32000000 		.4byte	.LBB1333
 12963 0124 32000000 		.4byte	.LBE1333
 12964 0128 32000000 		.4byte	.LBB1342
 12965 012c 32000000 		.4byte	.LBE1342
 12966 0130 32000000 		.4byte	.LBB1343
 12967 0134 38000000 		.4byte	.LBE1343
 12968 0138 00000000 		.4byte	0
 12969 013c 00000000 		.4byte	0
 12970 0140 3E000000 		.4byte	.LBB1344
 12971 0144 3E000000 		.4byte	.LBE1344
 12972 0148 3E000000 		.4byte	.LBB1771
 12973 014c 3E000000 		.4byte	.LBE1771
 12974 0150 3E000000 		.4byte	.LBB1772
 12975 0154 48000000 		.4byte	.LBE1772
 12976 0158 48000000 		.4byte	.LBB1773
 12977 015c 48000000 		.4byte	.LBE1773
 12978 0160 48000000 		.4byte	.LBB1774
 12979 0164 4C000000 		.4byte	.LBE1774
 12980 0168 4C000000 		.4byte	.LBB1775
 12981 016c 52000000 		.4byte	.LBE1775
 12982 0170 52000000 		.4byte	.LBB1776
 12983 0174 56000000 		.4byte	.LBE1776
 12984 0178 56000000 		.4byte	.LBB1777
 12985 017c 56000000 		.4byte	.LBE1777
 12986 0180 56000000 		.4byte	.LBB1778
 12987 0184 56000000 		.4byte	.LBE1778
 12988 0188 56000000 		.4byte	.LBB1779
 12989 018c 5A000000 		.4byte	.LBE1779
 12990 0190 5A000000 		.4byte	.LBB1780
 12991 0194 7A000000 		.4byte	.LBE1780
 12992 0198 7A000000 		.4byte	.LBB1781
 12993 019c 7A000000 		.4byte	.LBE1781
 12994 01a0 7A000000 		.4byte	.LBB1782
 12995 01a4 7E000000 		.4byte	.LBE1782
 12996 01a8 7E000000 		.4byte	.LBB1783
 12997 01ac 7E000000 		.4byte	.LBE1783
 12998 01b0 7E000000 		.4byte	.LBB1784
 12999 01b4 7E000000 		.4byte	.LBE1784
 13000 01b8 7E000000 		.4byte	.LBB1785
 13001 01bc 82000000 		.4byte	.LBE1785
 13002 01c0 82000000 		.4byte	.LBB1786
 13003 01c4 94000000 		.4byte	.LBE1786
ARM GAS  /tmp/ccCget5K.s 			page 230


 13004 01c8 94000000 		.4byte	.LBB1787
 13005 01cc 94000000 		.4byte	.LBE1787
 13006 01d0 94000000 		.4byte	.LBB1788
 13007 01d4 98000000 		.4byte	.LBE1788
 13008 01d8 9E000000 		.4byte	.LBB1789
 13009 01dc 9E000000 		.4byte	.LBE1789
 13010 01e0 9E000000 		.4byte	.LBB1790
 13011 01e4 9E000000 		.4byte	.LBE1790
 13012 01e8 9E000000 		.4byte	.LBB1791
 13013 01ec A2000000 		.4byte	.LBE1791
 13014 01f0 A8000000 		.4byte	.LBB1792
 13015 01f4 A8000000 		.4byte	.LBE1792
 13016 01f8 A8000000 		.4byte	.LBB1793
 13017 01fc A8000000 		.4byte	.LBE1793
 13018 0200 A8000000 		.4byte	.LBB1794
 13019 0204 AC000000 		.4byte	.LBE1794
 13020 0208 AC000000 		.4byte	.LBB1795
 13021 020c AC000000 		.4byte	.LBE1795
 13022 0210 AC000000 		.4byte	.LBB1796
 13023 0214 AC000000 		.4byte	.LBE1796
 13024 0218 AC000000 		.4byte	.LBB1797
 13025 021c B0000000 		.4byte	.LBE1797
 13026 0220 B0000000 		.4byte	.LBB1798
 13027 0224 C8000000 		.4byte	.LBE1798
 13028 0228 C8000000 		.4byte	.LBB1799
 13029 022c C8000000 		.4byte	.LBE1799
 13030 0230 C8000000 		.4byte	.LBB1800
 13031 0234 CC000000 		.4byte	.LBE1800
 13032 0238 CC000000 		.4byte	.LBB1801
 13033 023c CC000000 		.4byte	.LBE1801
 13034 0240 CC000000 		.4byte	.LBB1802
 13035 0244 CC000000 		.4byte	.LBE1802
 13036 0248 CC000000 		.4byte	.LBB1803
 13037 024c D0000000 		.4byte	.LBE1803
 13038 0250 D0000000 		.4byte	.LBB1804
 13039 0254 E6000000 		.4byte	.LBE1804
 13040 0258 E6000000 		.4byte	.LBB1805
 13041 025c E6000000 		.4byte	.LBE1805
 13042 0260 E6000000 		.4byte	.LBB1806
 13043 0264 F8000000 		.4byte	.LBE1806
 13044 0268 F8000000 		.4byte	.LBB1807
 13045 026c F8000000 		.4byte	.LBE1807
 13046 0270 F8000000 		.4byte	.LBB1808
 13047 0274 FC000000 		.4byte	.LBE1808
 13048 0278 FC000000 		.4byte	.LBB1809
 13049 027c 04010000 		.4byte	.LBE1809
 13050 0280 04010000 		.4byte	.LBB1810
 13051 0284 26010000 		.4byte	.LBE1810
 13052 0288 26010000 		.4byte	.LBB1811
 13053 028c 26010000 		.4byte	.LBE1811
 13054 0290 26010000 		.4byte	.LBB1812
 13055 0294 2A010000 		.4byte	.LBE1812
 13056 0298 2A010000 		.4byte	.LBB1813
 13057 029c 32010000 		.4byte	.LBE1813
 13058 02a0 32010000 		.4byte	.LBB1814
 13059 02a4 52010000 		.4byte	.LBE1814
 13060 02a8 52010000 		.4byte	.LBB1815
ARM GAS  /tmp/ccCget5K.s 			page 231


 13061 02ac 52010000 		.4byte	.LBE1815
 13062 02b0 52010000 		.4byte	.LBB1816
 13063 02b4 52010000 		.4byte	.LBE1816
 13064 02b8 52010000 		.4byte	.LBB1817
 13065 02bc 56010000 		.4byte	.LBE1817
 13066 02c0 56010000 		.4byte	.LBB1818
 13067 02c4 56010000 		.4byte	.LBE1818
 13068 02c8 56010000 		.4byte	.LBB1819
 13069 02cc 74010000 		.4byte	.LBE1819
 13070 02d0 74010000 		.4byte	.LBB1820
 13071 02d4 74010000 		.4byte	.LBE1820
 13072 02d8 74010000 		.4byte	.LBB1821
 13073 02dc 78010000 		.4byte	.LBE1821
 13074 02e0 78010000 		.4byte	.LBB1822
 13075 02e4 78010000 		.4byte	.LBE1822
 13076 02e8 78010000 		.4byte	.LBB1823
 13077 02ec 78010000 		.4byte	.LBE1823
 13078 02f0 78010000 		.4byte	.LBB1824
 13079 02f4 7C010000 		.4byte	.LBE1824
 13080 02f8 7C010000 		.4byte	.LBB1825
 13081 02fc 96010000 		.4byte	.LBE1825
 13082 0300 96010000 		.4byte	.LBB1826
 13083 0304 96010000 		.4byte	.LBE1826
 13084 0308 96010000 		.4byte	.LBB1827
 13085 030c 9A010000 		.4byte	.LBE1827
 13086 0310 9A010000 		.4byte	.LBB1828
 13087 0314 9A010000 		.4byte	.LBE1828
 13088 0318 9A010000 		.4byte	.LBB1829
 13089 031c 9A010000 		.4byte	.LBE1829
 13090 0320 9A010000 		.4byte	.LBB1830
 13091 0324 9E010000 		.4byte	.LBE1830
 13092 0328 9E010000 		.4byte	.LBB1831
 13093 032c B6010000 		.4byte	.LBE1831
 13094 0330 B6010000 		.4byte	.LBB1832
 13095 0334 B6010000 		.4byte	.LBE1832
 13096 0338 B6010000 		.4byte	.LBB1833
 13097 033c C6010000 		.4byte	.LBE1833
 13098 0340 C6010000 		.4byte	.LBB1834
 13099 0344 C6010000 		.4byte	.LBE1834
 13100 0348 C6010000 		.4byte	.LBB1835
 13101 034c CA010000 		.4byte	.LBE1835
 13102 0350 CA010000 		.4byte	.LBB1836
 13103 0354 D2010000 		.4byte	.LBE1836
 13104 0358 D2010000 		.4byte	.LBB1837
 13105 035c 4A020000 		.4byte	.LBE1837
 13106 0360 4A020000 		.4byte	.LBB1838
 13107 0364 4A020000 		.4byte	.LBE1838
 13108 0368 4A020000 		.4byte	.LBB1839
 13109 036c 4A020000 		.4byte	.LBE1839
 13110 0370 4A020000 		.4byte	.LBB1840
 13111 0374 4E020000 		.4byte	.LBE1840
 13112 0378 4E020000 		.4byte	.LBB1841
 13113 037c 68020000 		.4byte	.LBE1841
 13114 0380 68020000 		.4byte	.LBB1842
 13115 0384 68020000 		.4byte	.LBE1842
 13116 0388 68020000 		.4byte	.LBB1843
 13117 038c 6C020000 		.4byte	.LBE1843
ARM GAS  /tmp/ccCget5K.s 			page 232


 13118 0390 6C020000 		.4byte	.LBB1844
 13119 0394 6C020000 		.4byte	.LBE1844
 13120 0398 6C020000 		.4byte	.LBB1845
 13121 039c 6C020000 		.4byte	.LBE1845
 13122 03a0 6C020000 		.4byte	.LBB1846
 13123 03a4 70020000 		.4byte	.LBE1846
 13124 03a8 70020000 		.4byte	.LBB1847
 13125 03ac 80020000 		.4byte	.LBE1847
 13126 03b0 80020000 		.4byte	.LBB1848
 13127 03b4 80020000 		.4byte	.LBE1848
 13128 03b8 80020000 		.4byte	.LBB1849
 13129 03bc AC020000 		.4byte	.LBE1849
 13130 03c0 AC020000 		.4byte	.LBB1850
 13131 03c4 AC020000 		.4byte	.LBE1850
 13132 03c8 AC020000 		.4byte	.LBB1851
 13133 03cc E8020000 		.4byte	.LBE1851
 13134 03d0 00000000 		.4byte	0
 13135 03d4 00000000 		.4byte	0
 13136 03d8 3E000000 		.4byte	.LBB1346
 13137 03dc 3E000000 		.4byte	.LBE1346
 13138 03e0 3E000000 		.4byte	.LBB1355
 13139 03e4 3E000000 		.4byte	.LBE1355
 13140 03e8 3E000000 		.4byte	.LBB1356
 13141 03ec 44000000 		.4byte	.LBE1356
 13142 03f0 00000000 		.4byte	0
 13143 03f4 00000000 		.4byte	0
 13144 03f8 48000000 		.4byte	.LBB1357
 13145 03fc 48000000 		.4byte	.LBE1357
 13146 0400 48000000 		.4byte	.LBB1362
 13147 0404 48000000 		.4byte	.LBE1362
 13148 0408 48000000 		.4byte	.LBB1363
 13149 040c 4C000000 		.4byte	.LBE1363
 13150 0410 00000000 		.4byte	0
 13151 0414 00000000 		.4byte	0
 13152 0418 52000000 		.4byte	.LBB1364
 13153 041c 52000000 		.4byte	.LBE1364
 13154 0420 52000000 		.4byte	.LBB1371
 13155 0424 56000000 		.4byte	.LBE1371
 13156 0428 00000000 		.4byte	0
 13157 042c 00000000 		.4byte	0
 13158 0430 56000000 		.4byte	.LBB1372
 13159 0434 56000000 		.4byte	.LBE1372
 13160 0438 56000000 		.4byte	.LBB1380
 13161 043c 56000000 		.4byte	.LBE1380
 13162 0440 56000000 		.4byte	.LBB1381
 13163 0444 56000000 		.4byte	.LBE1381
 13164 0448 56000000 		.4byte	.LBB1382
 13165 044c 5A000000 		.4byte	.LBE1382
 13166 0450 00000000 		.4byte	0
 13167 0454 00000000 		.4byte	0
 13168 0458 5A000000 		.4byte	.LBB1383
 13169 045c 62000000 		.4byte	.LBE1383
 13170 0460 64000000 		.4byte	.LBB1392
 13171 0464 68000000 		.4byte	.LBE1392
 13172 0468 00000000 		.4byte	0
 13173 046c 00000000 		.4byte	0
 13174 0470 5A000000 		.4byte	.LBB1385
ARM GAS  /tmp/ccCget5K.s 			page 233


 13175 0474 5A000000 		.4byte	.LBE1385
 13176 0478 5A000000 		.4byte	.LBB1390
 13177 047c 60000000 		.4byte	.LBE1390
 13178 0480 00000000 		.4byte	0
 13179 0484 00000000 		.4byte	0
 13180 0488 7A000000 		.4byte	.LBB1393
 13181 048c 7A000000 		.4byte	.LBE1393
 13182 0490 7A000000 		.4byte	.LBB1402
 13183 0494 7A000000 		.4byte	.LBE1402
 13184 0498 7A000000 		.4byte	.LBB1403
 13185 049c 7E000000 		.4byte	.LBE1403
 13186 04a0 00000000 		.4byte	0
 13187 04a4 00000000 		.4byte	0
 13188 04a8 7E000000 		.4byte	.LBB1404
 13189 04ac 7E000000 		.4byte	.LBE1404
 13190 04b0 7E000000 		.4byte	.LBB1412
 13191 04b4 7E000000 		.4byte	.LBE1412
 13192 04b8 7E000000 		.4byte	.LBB1413
 13193 04bc 7E000000 		.4byte	.LBE1413
 13194 04c0 7E000000 		.4byte	.LBB1414
 13195 04c4 82000000 		.4byte	.LBE1414
 13196 04c8 00000000 		.4byte	0
 13197 04cc 00000000 		.4byte	0
 13198 04d0 94000000 		.4byte	.LBB1417
 13199 04d4 94000000 		.4byte	.LBE1417
 13200 04d8 94000000 		.4byte	.LBB1426
 13201 04dc 94000000 		.4byte	.LBE1426
 13202 04e0 94000000 		.4byte	.LBB1427
 13203 04e4 98000000 		.4byte	.LBE1427
 13204 04e8 00000000 		.4byte	0
 13205 04ec 00000000 		.4byte	0
 13206 04f0 9E000000 		.4byte	.LBB1428
 13207 04f4 9E000000 		.4byte	.LBE1428
 13208 04f8 9E000000 		.4byte	.LBB1437
 13209 04fc 9E000000 		.4byte	.LBE1437
 13210 0500 9E000000 		.4byte	.LBB1438
 13211 0504 A2000000 		.4byte	.LBE1438
 13212 0508 00000000 		.4byte	0
 13213 050c 00000000 		.4byte	0
 13214 0510 A8000000 		.4byte	.LBB1439
 13215 0514 A8000000 		.4byte	.LBE1439
 13216 0518 A8000000 		.4byte	.LBB1448
 13217 051c A8000000 		.4byte	.LBE1448
 13218 0520 A8000000 		.4byte	.LBB1449
 13219 0524 AC000000 		.4byte	.LBE1449
 13220 0528 00000000 		.4byte	0
 13221 052c 00000000 		.4byte	0
 13222 0530 AC000000 		.4byte	.LBB1450
 13223 0534 AC000000 		.4byte	.LBE1450
 13224 0538 AC000000 		.4byte	.LBB1458
 13225 053c AC000000 		.4byte	.LBE1458
 13226 0540 AC000000 		.4byte	.LBB1459
 13227 0544 AC000000 		.4byte	.LBE1459
 13228 0548 AC000000 		.4byte	.LBB1460
 13229 054c B0000000 		.4byte	.LBE1460
 13230 0550 00000000 		.4byte	0
 13231 0554 00000000 		.4byte	0
ARM GAS  /tmp/ccCget5K.s 			page 234


 13232 0558 C8000000 		.4byte	.LBB1461
 13233 055c C8000000 		.4byte	.LBE1461
 13234 0560 C8000000 		.4byte	.LBB1470
 13235 0564 C8000000 		.4byte	.LBE1470
 13236 0568 C8000000 		.4byte	.LBB1471
 13237 056c CC000000 		.4byte	.LBE1471
 13238 0570 00000000 		.4byte	0
 13239 0574 00000000 		.4byte	0
 13240 0578 CC000000 		.4byte	.LBB1472
 13241 057c CC000000 		.4byte	.LBE1472
 13242 0580 CC000000 		.4byte	.LBB1480
 13243 0584 CC000000 		.4byte	.LBE1480
 13244 0588 CC000000 		.4byte	.LBB1481
 13245 058c CC000000 		.4byte	.LBE1481
 13246 0590 CC000000 		.4byte	.LBB1482
 13247 0594 D0000000 		.4byte	.LBE1482
 13248 0598 00000000 		.4byte	0
 13249 059c 00000000 		.4byte	0
 13250 05a0 E6000000 		.4byte	.LBB1483
 13251 05a4 E6000000 		.4byte	.LBE1483
 13252 05a8 E6000000 		.4byte	.LBB1492
 13253 05ac E6000000 		.4byte	.LBE1492
 13254 05b0 E6000000 		.4byte	.LBB1493
 13255 05b4 EA000000 		.4byte	.LBE1493
 13256 05b8 00000000 		.4byte	0
 13257 05bc 00000000 		.4byte	0
 13258 05c0 EA000000 		.4byte	.LBB1494
 13259 05c4 EA000000 		.4byte	.LBE1494
 13260 05c8 F0000000 		.4byte	.LBB1497
 13261 05cc F2000000 		.4byte	.LBE1497
 13262 05d0 00000000 		.4byte	0
 13263 05d4 00000000 		.4byte	0
 13264 05d8 F8000000 		.4byte	.LBB1498
 13265 05dc F8000000 		.4byte	.LBE1498
 13266 05e0 F8000000 		.4byte	.LBB1503
 13267 05e4 F8000000 		.4byte	.LBE1503
 13268 05e8 F8000000 		.4byte	.LBB1504
 13269 05ec FC000000 		.4byte	.LBE1504
 13270 05f0 00000000 		.4byte	0
 13271 05f4 00000000 		.4byte	0
 13272 05f8 04010000 		.4byte	.LBB1505
 13273 05fc 04010000 		.4byte	.LBE1505
 13274 0600 04010000 		.4byte	.LBB1512
 13275 0604 0A010000 		.4byte	.LBE1512
 13276 0608 00000000 		.4byte	0
 13277 060c 00000000 		.4byte	0
 13278 0610 26010000 		.4byte	.LBB1513
 13279 0614 26010000 		.4byte	.LBE1513
 13280 0618 26010000 		.4byte	.LBB1518
 13281 061c 26010000 		.4byte	.LBE1518
 13282 0620 26010000 		.4byte	.LBB1519
 13283 0624 2A010000 		.4byte	.LBE1519
 13284 0628 00000000 		.4byte	0
 13285 062c 00000000 		.4byte	0
 13286 0630 32010000 		.4byte	.LBB1520
 13287 0634 32010000 		.4byte	.LBE1520
 13288 0638 32010000 		.4byte	.LBB1527
ARM GAS  /tmp/ccCget5K.s 			page 235


 13289 063c 36010000 		.4byte	.LBE1527
 13290 0640 00000000 		.4byte	0
 13291 0644 00000000 		.4byte	0
 13292 0648 52010000 		.4byte	.LBB1528
 13293 064c 52010000 		.4byte	.LBE1528
 13294 0650 52010000 		.4byte	.LBB1536
 13295 0654 52010000 		.4byte	.LBE1536
 13296 0658 52010000 		.4byte	.LBB1537
 13297 065c 52010000 		.4byte	.LBE1537
 13298 0660 52010000 		.4byte	.LBB1538
 13299 0664 56010000 		.4byte	.LBE1538
 13300 0668 00000000 		.4byte	0
 13301 066c 00000000 		.4byte	0
 13302 0670 56010000 		.4byte	.LBB1539
 13303 0674 56010000 		.4byte	.LBE1539
 13304 0678 56010000 		.4byte	.LBB1546
 13305 067c 5C010000 		.4byte	.LBE1546
 13306 0680 00000000 		.4byte	0
 13307 0684 00000000 		.4byte	0
 13308 0688 56010000 		.4byte	.LBB1540
 13309 068c 56010000 		.4byte	.LBE1540
 13310 0690 56010000 		.4byte	.LBB1545
 13311 0694 5C010000 		.4byte	.LBE1545
 13312 0698 00000000 		.4byte	0
 13313 069c 00000000 		.4byte	0
 13314 06a0 74010000 		.4byte	.LBB1547
 13315 06a4 74010000 		.4byte	.LBE1547
 13316 06a8 74010000 		.4byte	.LBB1556
 13317 06ac 74010000 		.4byte	.LBE1556
 13318 06b0 74010000 		.4byte	.LBB1557
 13319 06b4 78010000 		.4byte	.LBE1557
 13320 06b8 00000000 		.4byte	0
 13321 06bc 00000000 		.4byte	0
 13322 06c0 78010000 		.4byte	.LBB1558
 13323 06c4 78010000 		.4byte	.LBE1558
 13324 06c8 78010000 		.4byte	.LBB1566
 13325 06cc 78010000 		.4byte	.LBE1566
 13326 06d0 78010000 		.4byte	.LBB1567
 13327 06d4 78010000 		.4byte	.LBE1567
 13328 06d8 78010000 		.4byte	.LBB1568
 13329 06dc 7C010000 		.4byte	.LBE1568
 13330 06e0 00000000 		.4byte	0
 13331 06e4 00000000 		.4byte	0
 13332 06e8 96010000 		.4byte	.LBB1571
 13333 06ec 96010000 		.4byte	.LBE1571
 13334 06f0 96010000 		.4byte	.LBB1580
 13335 06f4 96010000 		.4byte	.LBE1580
 13336 06f8 96010000 		.4byte	.LBB1581
 13337 06fc 9A010000 		.4byte	.LBE1581
 13338 0700 00000000 		.4byte	0
 13339 0704 00000000 		.4byte	0
 13340 0708 9A010000 		.4byte	.LBB1582
 13341 070c 9A010000 		.4byte	.LBE1582
 13342 0710 9A010000 		.4byte	.LBB1590
 13343 0714 9A010000 		.4byte	.LBE1590
 13344 0718 9A010000 		.4byte	.LBB1591
 13345 071c 9A010000 		.4byte	.LBE1591
ARM GAS  /tmp/ccCget5K.s 			page 236


 13346 0720 9A010000 		.4byte	.LBB1592
 13347 0724 9E010000 		.4byte	.LBE1592
 13348 0728 00000000 		.4byte	0
 13349 072c 00000000 		.4byte	0
 13350 0730 B6010000 		.4byte	.LBB1593
 13351 0734 B6010000 		.4byte	.LBE1593
 13352 0738 B6010000 		.4byte	.LBB1602
 13353 073c B6010000 		.4byte	.LBE1602
 13354 0740 B6010000 		.4byte	.LBB1603
 13355 0744 BA010000 		.4byte	.LBE1603
 13356 0748 00000000 		.4byte	0
 13357 074c 00000000 		.4byte	0
 13358 0750 C4010000 		.4byte	.LBB1604
 13359 0754 C6010000 		.4byte	.LBE1604
 13360 0758 C6010000 		.4byte	.LBB1612
 13361 075c C6010000 		.4byte	.LBE1612
 13362 0760 C6010000 		.4byte	.LBB1613
 13363 0764 C6010000 		.4byte	.LBE1613
 13364 0768 C6010000 		.4byte	.LBB1614
 13365 076c CA010000 		.4byte	.LBE1614
 13366 0770 00000000 		.4byte	0
 13367 0774 00000000 		.4byte	0
 13368 0778 C4010000 		.4byte	.LBB1605
 13369 077c C6010000 		.4byte	.LBE1605
 13370 0780 C6010000 		.4byte	.LBB1610
 13371 0784 C6010000 		.4byte	.LBE1610
 13372 0788 C6010000 		.4byte	.LBB1611
 13373 078c CA010000 		.4byte	.LBE1611
 13374 0790 00000000 		.4byte	0
 13375 0794 00000000 		.4byte	0
 13376 0798 C4010000 		.4byte	.LBB1606
 13377 079c C6010000 		.4byte	.LBE1606
 13378 07a0 C6010000 		.4byte	.LBB1609
 13379 07a4 CA010000 		.4byte	.LBE1609
 13380 07a8 00000000 		.4byte	0
 13381 07ac 00000000 		.4byte	0
 13382 07b0 D2010000 		.4byte	.LBB1615
 13383 07b4 D2010000 		.4byte	.LBE1615
 13384 07b8 D2010000 		.4byte	.LBB1622
 13385 07bc D8010000 		.4byte	.LBE1622
 13386 07c0 00000000 		.4byte	0
 13387 07c4 00000000 		.4byte	0
 13388 07c8 4A020000 		.4byte	.LBB1623
 13389 07cc 4A020000 		.4byte	.LBE1623
 13390 07d0 4A020000 		.4byte	.LBB1631
 13391 07d4 4A020000 		.4byte	.LBE1631
 13392 07d8 4A020000 		.4byte	.LBB1632
 13393 07dc 4A020000 		.4byte	.LBE1632
 13394 07e0 4A020000 		.4byte	.LBB1633
 13395 07e4 4E020000 		.4byte	.LBE1633
 13396 07e8 00000000 		.4byte	0
 13397 07ec 00000000 		.4byte	0
 13398 07f0 4E020000 		.4byte	.LBB1634
 13399 07f4 56020000 		.4byte	.LBE1634
 13400 07f8 58020000 		.4byte	.LBB1643
 13401 07fc 5C020000 		.4byte	.LBE1643
 13402 0800 00000000 		.4byte	0
ARM GAS  /tmp/ccCget5K.s 			page 237


 13403 0804 00000000 		.4byte	0
 13404 0808 4E020000 		.4byte	.LBB1636
 13405 080c 4E020000 		.4byte	.LBE1636
 13406 0810 4E020000 		.4byte	.LBB1641
 13407 0814 54020000 		.4byte	.LBE1641
 13408 0818 00000000 		.4byte	0
 13409 081c 00000000 		.4byte	0
 13410 0820 68020000 		.4byte	.LBB1644
 13411 0824 68020000 		.4byte	.LBE1644
 13412 0828 68020000 		.4byte	.LBB1653
 13413 082c 68020000 		.4byte	.LBE1653
 13414 0830 68020000 		.4byte	.LBB1654
 13415 0834 6C020000 		.4byte	.LBE1654
 13416 0838 00000000 		.4byte	0
 13417 083c 00000000 		.4byte	0
 13418 0840 6C020000 		.4byte	.LBB1655
 13419 0844 6C020000 		.4byte	.LBE1655
 13420 0848 6C020000 		.4byte	.LBB1663
 13421 084c 6C020000 		.4byte	.LBE1663
 13422 0850 6C020000 		.4byte	.LBB1664
 13423 0854 6C020000 		.4byte	.LBE1664
 13424 0858 6C020000 		.4byte	.LBB1665
 13425 085c 70020000 		.4byte	.LBE1665
 13426 0860 00000000 		.4byte	0
 13427 0864 00000000 		.4byte	0
 13428 0868 80020000 		.4byte	.LBB1668
 13429 086c 80020000 		.4byte	.LBE1668
 13430 0870 80020000 		.4byte	.LBB1677
 13431 0874 80020000 		.4byte	.LBE1677
 13432 0878 80020000 		.4byte	.LBB1678
 13433 087c 84020000 		.4byte	.LBE1678
 13434 0880 00000000 		.4byte	0
 13435 0884 00000000 		.4byte	0
 13436 0888 AC020000 		.4byte	.LBB1679
 13437 088c AC020000 		.4byte	.LBE1679
 13438 0890 AC020000 		.4byte	.LBB1688
 13439 0894 AC020000 		.4byte	.LBE1688
 13440 0898 AC020000 		.4byte	.LBB1689
 13441 089c B0020000 		.4byte	.LBE1689
 13442 08a0 00000000 		.4byte	0
 13443 08a4 00000000 		.4byte	0
 13444 08a8 0C000000 		.4byte	.LBB2073
 13445 08ac 0C000000 		.4byte	.LBE2073
 13446 08b0 0C000000 		.4byte	.LBB2081
 13447 08b4 0C000000 		.4byte	.LBE2081
 13448 08b8 0C000000 		.4byte	.LBB2082
 13449 08bc 0C000000 		.4byte	.LBE2082
 13450 08c0 0C000000 		.4byte	.LBB2083
 13451 08c4 12000000 		.4byte	.LBE2083
 13452 08c8 00000000 		.4byte	0
 13453 08cc 00000000 		.4byte	0
 13454 08d0 12000000 		.4byte	.LBB2084
 13455 08d4 14000000 		.4byte	.LBE2084
 13456 08d8 16000000 		.4byte	.LBB2095
 13457 08dc 22000000 		.4byte	.LBE2095
 13458 08e0 00000000 		.4byte	0
 13459 08e4 00000000 		.4byte	0
ARM GAS  /tmp/ccCget5K.s 			page 238


 13460 08e8 12000000 		.4byte	.LBB2086
 13461 08ec 12000000 		.4byte	.LBE2086
 13462 08f0 12000000 		.4byte	.LBB2092
 13463 08f4 14000000 		.4byte	.LBE2092
 13464 08f8 16000000 		.4byte	.LBB2093
 13465 08fc 1C000000 		.4byte	.LBE2093
 13466 0900 00000000 		.4byte	0
 13467 0904 00000000 		.4byte	0
 13468 0908 32000000 		.4byte	.LBB2096
 13469 090c 32000000 		.4byte	.LBE2096
 13470 0910 32000000 		.4byte	.LBB2105
 13471 0914 32000000 		.4byte	.LBE2105
 13472 0918 32000000 		.4byte	.LBB2106
 13473 091c 38000000 		.4byte	.LBE2106
 13474 0920 00000000 		.4byte	0
 13475 0924 00000000 		.4byte	0
 13476 0928 3E000000 		.4byte	.LBB2107
 13477 092c 3E000000 		.4byte	.LBE2107
 13478 0930 3E000000 		.4byte	.LBB2454
 13479 0934 3E000000 		.4byte	.LBE2454
 13480 0938 3E000000 		.4byte	.LBB2455
 13481 093c 4E000000 		.4byte	.LBE2455
 13482 0940 4E000000 		.4byte	.LBB2456
 13483 0944 4E000000 		.4byte	.LBE2456
 13484 0948 4E000000 		.4byte	.LBB2457
 13485 094c 4E000000 		.4byte	.LBE2457
 13486 0950 4E000000 		.4byte	.LBB2458
 13487 0954 52000000 		.4byte	.LBE2458
 13488 0958 52000000 		.4byte	.LBB2459
 13489 095c 72000000 		.4byte	.LBE2459
 13490 0960 72000000 		.4byte	.LBB2460
 13491 0964 72000000 		.4byte	.LBE2460
 13492 0968 72000000 		.4byte	.LBB2461
 13493 096c 76000000 		.4byte	.LBE2461
 13494 0970 76000000 		.4byte	.LBB2462
 13495 0974 76000000 		.4byte	.LBE2462
 13496 0978 76000000 		.4byte	.LBB2463
 13497 097c 76000000 		.4byte	.LBE2463
 13498 0980 76000000 		.4byte	.LBB2464
 13499 0984 7A000000 		.4byte	.LBE2464
 13500 0988 7A000000 		.4byte	.LBB2465
 13501 098c 8C000000 		.4byte	.LBE2465
 13502 0990 8C000000 		.4byte	.LBB2466
 13503 0994 8C000000 		.4byte	.LBE2466
 13504 0998 8C000000 		.4byte	.LBB2467
 13505 099c 90000000 		.4byte	.LBE2467
 13506 09a0 96000000 		.4byte	.LBB2468
 13507 09a4 96000000 		.4byte	.LBE2468
 13508 09a8 96000000 		.4byte	.LBB2469
 13509 09ac 96000000 		.4byte	.LBE2469
 13510 09b0 96000000 		.4byte	.LBB2470
 13511 09b4 9A000000 		.4byte	.LBE2470
 13512 09b8 A0000000 		.4byte	.LBB2471
 13513 09bc A0000000 		.4byte	.LBE2471
 13514 09c0 A0000000 		.4byte	.LBB2472
 13515 09c4 A0000000 		.4byte	.LBE2472
 13516 09c8 A0000000 		.4byte	.LBB2473
ARM GAS  /tmp/ccCget5K.s 			page 239


 13517 09cc A4000000 		.4byte	.LBE2473
 13518 09d0 A4000000 		.4byte	.LBB2474
 13519 09d4 A4000000 		.4byte	.LBE2474
 13520 09d8 A4000000 		.4byte	.LBB2475
 13521 09dc A4000000 		.4byte	.LBE2475
 13522 09e0 A4000000 		.4byte	.LBB2476
 13523 09e4 A8000000 		.4byte	.LBE2476
 13524 09e8 A8000000 		.4byte	.LBB2477
 13525 09ec C0000000 		.4byte	.LBE2477
 13526 09f0 C0000000 		.4byte	.LBB2478
 13527 09f4 C0000000 		.4byte	.LBE2478
 13528 09f8 C0000000 		.4byte	.LBB2479
 13529 09fc C4000000 		.4byte	.LBE2479
 13530 0a00 C4000000 		.4byte	.LBB2480
 13531 0a04 C4000000 		.4byte	.LBE2480
 13532 0a08 C4000000 		.4byte	.LBB2481
 13533 0a0c C4000000 		.4byte	.LBE2481
 13534 0a10 C4000000 		.4byte	.LBB2482
 13535 0a14 C8000000 		.4byte	.LBE2482
 13536 0a18 C8000000 		.4byte	.LBB2483
 13537 0a1c DE000000 		.4byte	.LBE2483
 13538 0a20 DE000000 		.4byte	.LBB2484
 13539 0a24 DE000000 		.4byte	.LBE2484
 13540 0a28 DE000000 		.4byte	.LBB2485
 13541 0a2c 94010000 		.4byte	.LBE2485
 13542 0a30 94010000 		.4byte	.LBB2486
 13543 0a34 94010000 		.4byte	.LBE2486
 13544 0a38 94010000 		.4byte	.LBB2487
 13545 0a3c 94010000 		.4byte	.LBE2487
 13546 0a40 94010000 		.4byte	.LBB2488
 13547 0a44 9C010000 		.4byte	.LBE2488
 13548 0a48 9C010000 		.4byte	.LBB2489
 13549 0a4c 9C010000 		.4byte	.LBE2489
 13550 0a50 9C010000 		.4byte	.LBB2490
 13551 0a54 BC010000 		.4byte	.LBE2490
 13552 0a58 BC010000 		.4byte	.LBB2491
 13553 0a5c BC010000 		.4byte	.LBE2491
 13554 0a60 BC010000 		.4byte	.LBB2492
 13555 0a64 C0010000 		.4byte	.LBE2492
 13556 0a68 C0010000 		.4byte	.LBB2493
 13557 0a6c C0010000 		.4byte	.LBE2493
 13558 0a70 C0010000 		.4byte	.LBB2494
 13559 0a74 C0010000 		.4byte	.LBE2494
 13560 0a78 C0010000 		.4byte	.LBB2495
 13561 0a7c C4010000 		.4byte	.LBE2495
 13562 0a80 C4010000 		.4byte	.LBB2496
 13563 0a84 DC010000 		.4byte	.LBE2496
 13564 0a88 DC010000 		.4byte	.LBB2497
 13565 0a8c DC010000 		.4byte	.LBE2497
 13566 0a90 DC010000 		.4byte	.LBB2498
 13567 0a94 E2010000 		.4byte	.LBE2498
 13568 0a98 E2010000 		.4byte	.LBB2499
 13569 0a9c E2010000 		.4byte	.LBE2499
 13570 0aa0 E2010000 		.4byte	.LBB2500
 13571 0aa4 E6010000 		.4byte	.LBE2500
 13572 0aa8 E6010000 		.4byte	.LBB2501
 13573 0aac E6010000 		.4byte	.LBE2501
ARM GAS  /tmp/ccCget5K.s 			page 240


 13574 0ab0 E6010000 		.4byte	.LBB2502
 13575 0ab4 E6010000 		.4byte	.LBE2502
 13576 0ab8 E6010000 		.4byte	.LBB2503
 13577 0abc EA010000 		.4byte	.LBE2503
 13578 0ac0 EA010000 		.4byte	.LBB2504
 13579 0ac4 06020000 		.4byte	.LBE2504
 13580 0ac8 06020000 		.4byte	.LBB2505
 13581 0acc 06020000 		.4byte	.LBE2505
 13582 0ad0 06020000 		.4byte	.LBB2506
 13583 0ad4 92020000 		.4byte	.LBE2506
 13584 0ad8 92020000 		.4byte	.LBB2507
 13585 0adc 92020000 		.4byte	.LBE2507
 13586 0ae0 92020000 		.4byte	.LBB2508
 13587 0ae4 92020000 		.4byte	.LBE2508
 13588 0ae8 92020000 		.4byte	.LBB2509
 13589 0aec 98020000 		.4byte	.LBE2509
 13590 0af0 98020000 		.4byte	.LBB2510
 13591 0af4 B6020000 		.4byte	.LBE2510
 13592 0af8 B6020000 		.4byte	.LBB2511
 13593 0afc B6020000 		.4byte	.LBE2511
 13594 0b00 B6020000 		.4byte	.LBB2512
 13595 0b04 BA020000 		.4byte	.LBE2512
 13596 0b08 BA020000 		.4byte	.LBB2513
 13597 0b0c BA020000 		.4byte	.LBE2513
 13598 0b10 BA020000 		.4byte	.LBB2514
 13599 0b14 BA020000 		.4byte	.LBE2514
 13600 0b18 BA020000 		.4byte	.LBB2515
 13601 0b1c BE020000 		.4byte	.LBE2515
 13602 0b20 BE020000 		.4byte	.LBB2516
 13603 0b24 D2020000 		.4byte	.LBE2516
 13604 0b28 D2020000 		.4byte	.LBB2517
 13605 0b2c D2020000 		.4byte	.LBE2517
 13606 0b30 D2020000 		.4byte	.LBB2518
 13607 0b34 38030000 		.4byte	.LBE2518
 13608 0b38 00000000 		.4byte	0
 13609 0b3c 00000000 		.4byte	0
 13610 0b40 3E000000 		.4byte	.LBB2109
 13611 0b44 3E000000 		.4byte	.LBE2109
 13612 0b48 3E000000 		.4byte	.LBB2118
 13613 0b4c 3E000000 		.4byte	.LBE2118
 13614 0b50 3E000000 		.4byte	.LBB2119
 13615 0b54 44000000 		.4byte	.LBE2119
 13616 0b58 00000000 		.4byte	0
 13617 0b5c 00000000 		.4byte	0
 13618 0b60 4E000000 		.4byte	.LBB2120
 13619 0b64 4E000000 		.4byte	.LBE2120
 13620 0b68 4E000000 		.4byte	.LBB2128
 13621 0b6c 4E000000 		.4byte	.LBE2128
 13622 0b70 4E000000 		.4byte	.LBB2129
 13623 0b74 4E000000 		.4byte	.LBE2129
 13624 0b78 4E000000 		.4byte	.LBB2130
 13625 0b7c 52000000 		.4byte	.LBE2130
 13626 0b80 00000000 		.4byte	0
 13627 0b84 00000000 		.4byte	0
 13628 0b88 52000000 		.4byte	.LBB2131
 13629 0b8c 5A000000 		.4byte	.LBE2131
 13630 0b90 5C000000 		.4byte	.LBB2140
ARM GAS  /tmp/ccCget5K.s 			page 241


 13631 0b94 60000000 		.4byte	.LBE2140
 13632 0b98 00000000 		.4byte	0
 13633 0b9c 00000000 		.4byte	0
 13634 0ba0 52000000 		.4byte	.LBB2133
 13635 0ba4 52000000 		.4byte	.LBE2133
 13636 0ba8 52000000 		.4byte	.LBB2138
 13637 0bac 58000000 		.4byte	.LBE2138
 13638 0bb0 00000000 		.4byte	0
 13639 0bb4 00000000 		.4byte	0
 13640 0bb8 72000000 		.4byte	.LBB2141
 13641 0bbc 72000000 		.4byte	.LBE2141
 13642 0bc0 72000000 		.4byte	.LBB2150
 13643 0bc4 72000000 		.4byte	.LBE2150
 13644 0bc8 72000000 		.4byte	.LBB2151
 13645 0bcc 76000000 		.4byte	.LBE2151
 13646 0bd0 00000000 		.4byte	0
 13647 0bd4 00000000 		.4byte	0
 13648 0bd8 76000000 		.4byte	.LBB2152
 13649 0bdc 76000000 		.4byte	.LBE2152
 13650 0be0 76000000 		.4byte	.LBB2160
 13651 0be4 76000000 		.4byte	.LBE2160
 13652 0be8 76000000 		.4byte	.LBB2161
 13653 0bec 76000000 		.4byte	.LBE2161
 13654 0bf0 76000000 		.4byte	.LBB2162
 13655 0bf4 7A000000 		.4byte	.LBE2162
 13656 0bf8 00000000 		.4byte	0
 13657 0bfc 00000000 		.4byte	0
 13658 0c00 8C000000 		.4byte	.LBB2165
 13659 0c04 8C000000 		.4byte	.LBE2165
 13660 0c08 8C000000 		.4byte	.LBB2174
 13661 0c0c 8C000000 		.4byte	.LBE2174
 13662 0c10 8C000000 		.4byte	.LBB2175
 13663 0c14 90000000 		.4byte	.LBE2175
 13664 0c18 00000000 		.4byte	0
 13665 0c1c 00000000 		.4byte	0
 13666 0c20 96000000 		.4byte	.LBB2176
 13667 0c24 96000000 		.4byte	.LBE2176
 13668 0c28 96000000 		.4byte	.LBB2185
 13669 0c2c 96000000 		.4byte	.LBE2185
 13670 0c30 96000000 		.4byte	.LBB2186
 13671 0c34 9A000000 		.4byte	.LBE2186
 13672 0c38 00000000 		.4byte	0
 13673 0c3c 00000000 		.4byte	0
 13674 0c40 A0000000 		.4byte	.LBB2187
 13675 0c44 A0000000 		.4byte	.LBE2187
 13676 0c48 A0000000 		.4byte	.LBB2196
 13677 0c4c A0000000 		.4byte	.LBE2196
 13678 0c50 A0000000 		.4byte	.LBB2197
 13679 0c54 A4000000 		.4byte	.LBE2197
 13680 0c58 00000000 		.4byte	0
 13681 0c5c 00000000 		.4byte	0
 13682 0c60 A4000000 		.4byte	.LBB2198
 13683 0c64 A4000000 		.4byte	.LBE2198
 13684 0c68 A4000000 		.4byte	.LBB2206
 13685 0c6c A4000000 		.4byte	.LBE2206
 13686 0c70 A4000000 		.4byte	.LBB2207
 13687 0c74 A4000000 		.4byte	.LBE2207
ARM GAS  /tmp/ccCget5K.s 			page 242


 13688 0c78 A4000000 		.4byte	.LBB2208
 13689 0c7c A8000000 		.4byte	.LBE2208
 13690 0c80 00000000 		.4byte	0
 13691 0c84 00000000 		.4byte	0
 13692 0c88 C0000000 		.4byte	.LBB2209
 13693 0c8c C0000000 		.4byte	.LBE2209
 13694 0c90 C0000000 		.4byte	.LBB2218
 13695 0c94 C0000000 		.4byte	.LBE2218
 13696 0c98 C0000000 		.4byte	.LBB2219
 13697 0c9c C4000000 		.4byte	.LBE2219
 13698 0ca0 00000000 		.4byte	0
 13699 0ca4 00000000 		.4byte	0
 13700 0ca8 C4000000 		.4byte	.LBB2220
 13701 0cac C4000000 		.4byte	.LBE2220
 13702 0cb0 C4000000 		.4byte	.LBB2228
 13703 0cb4 C4000000 		.4byte	.LBE2228
 13704 0cb8 C4000000 		.4byte	.LBB2229
 13705 0cbc C4000000 		.4byte	.LBE2229
 13706 0cc0 C4000000 		.4byte	.LBB2230
 13707 0cc4 C8000000 		.4byte	.LBE2230
 13708 0cc8 00000000 		.4byte	0
 13709 0ccc 00000000 		.4byte	0
 13710 0cd0 DE000000 		.4byte	.LBB2231
 13711 0cd4 DE000000 		.4byte	.LBE2231
 13712 0cd8 DE000000 		.4byte	.LBB2240
 13713 0cdc DE000000 		.4byte	.LBE2240
 13714 0ce0 DE000000 		.4byte	.LBB2241
 13715 0ce4 E2000000 		.4byte	.LBE2241
 13716 0ce8 00000000 		.4byte	0
 13717 0cec 00000000 		.4byte	0
 13718 0cf0 42010000 		.4byte	.LBB2242
 13719 0cf4 42010000 		.4byte	.LBE2242
 13720 0cf8 46010000 		.4byte	.LBB2245
 13721 0cfc 48010000 		.4byte	.LBE2245
 13722 0d00 00000000 		.4byte	0
 13723 0d04 00000000 		.4byte	0
 13724 0d08 94010000 		.4byte	.LBB2246
 13725 0d0c 94010000 		.4byte	.LBE2246
 13726 0d10 94010000 		.4byte	.LBB2254
 13727 0d14 94010000 		.4byte	.LBE2254
 13728 0d18 94010000 		.4byte	.LBB2255
 13729 0d1c 94010000 		.4byte	.LBE2255
 13730 0d20 94010000 		.4byte	.LBB2256
 13731 0d24 9C010000 		.4byte	.LBE2256
 13732 0d28 00000000 		.4byte	0
 13733 0d2c 00000000 		.4byte	0
 13734 0d30 9C010000 		.4byte	.LBB2257
 13735 0d34 9C010000 		.4byte	.LBE2257
 13736 0d38 9C010000 		.4byte	.LBB2264
 13737 0d3c A2010000 		.4byte	.LBE2264
 13738 0d40 00000000 		.4byte	0
 13739 0d44 00000000 		.4byte	0
 13740 0d48 9C010000 		.4byte	.LBB2258
 13741 0d4c 9C010000 		.4byte	.LBE2258
 13742 0d50 9C010000 		.4byte	.LBB2263
 13743 0d54 A2010000 		.4byte	.LBE2263
 13744 0d58 00000000 		.4byte	0
ARM GAS  /tmp/ccCget5K.s 			page 243


 13745 0d5c 00000000 		.4byte	0
 13746 0d60 BC010000 		.4byte	.LBB2265
 13747 0d64 BC010000 		.4byte	.LBE2265
 13748 0d68 BC010000 		.4byte	.LBB2274
 13749 0d6c BC010000 		.4byte	.LBE2274
 13750 0d70 BC010000 		.4byte	.LBB2275
 13751 0d74 C0010000 		.4byte	.LBE2275
 13752 0d78 00000000 		.4byte	0
 13753 0d7c 00000000 		.4byte	0
 13754 0d80 C0010000 		.4byte	.LBB2276
 13755 0d84 C0010000 		.4byte	.LBE2276
 13756 0d88 C0010000 		.4byte	.LBB2284
 13757 0d8c C0010000 		.4byte	.LBE2284
 13758 0d90 C0010000 		.4byte	.LBB2285
 13759 0d94 C0010000 		.4byte	.LBE2285
 13760 0d98 C0010000 		.4byte	.LBB2286
 13761 0d9c C4010000 		.4byte	.LBE2286
 13762 0da0 00000000 		.4byte	0
 13763 0da4 00000000 		.4byte	0
 13764 0da8 DC010000 		.4byte	.LBB2289
 13765 0dac DC010000 		.4byte	.LBE2289
 13766 0db0 DC010000 		.4byte	.LBB2298
 13767 0db4 DC010000 		.4byte	.LBE2298
 13768 0db8 DC010000 		.4byte	.LBB2299
 13769 0dbc E0010000 		.4byte	.LBE2299
 13770 0dc0 00000000 		.4byte	0
 13771 0dc4 00000000 		.4byte	0
 13772 0dc8 E2010000 		.4byte	.LBB2300
 13773 0dcc E2010000 		.4byte	.LBE2300
 13774 0dd0 E2010000 		.4byte	.LBB2309
 13775 0dd4 E2010000 		.4byte	.LBE2309
 13776 0dd8 E2010000 		.4byte	.LBB2310
 13777 0ddc E6010000 		.4byte	.LBE2310
 13778 0de0 00000000 		.4byte	0
 13779 0de4 00000000 		.4byte	0
 13780 0de8 E6010000 		.4byte	.LBB2311
 13781 0dec E6010000 		.4byte	.LBE2311
 13782 0df0 E6010000 		.4byte	.LBB2319
 13783 0df4 E6010000 		.4byte	.LBE2319
 13784 0df8 E6010000 		.4byte	.LBB2320
 13785 0dfc E6010000 		.4byte	.LBE2320
 13786 0e00 E6010000 		.4byte	.LBB2321
 13787 0e04 EA010000 		.4byte	.LBE2321
 13788 0e08 00000000 		.4byte	0
 13789 0e0c 00000000 		.4byte	0
 13790 0e10 06020000 		.4byte	.LBB2322
 13791 0e14 06020000 		.4byte	.LBE2322
 13792 0e18 06020000 		.4byte	.LBB2331
 13793 0e1c 06020000 		.4byte	.LBE2331
 13794 0e20 06020000 		.4byte	.LBB2332
 13795 0e24 0A020000 		.4byte	.LBE2332
 13796 0e28 00000000 		.4byte	0
 13797 0e2c 00000000 		.4byte	0
 13798 0e30 92020000 		.4byte	.LBB2333
 13799 0e34 92020000 		.4byte	.LBE2333
 13800 0e38 92020000 		.4byte	.LBB2341
 13801 0e3c 92020000 		.4byte	.LBE2341
ARM GAS  /tmp/ccCget5K.s 			page 244


 13802 0e40 92020000 		.4byte	.LBB2342
 13803 0e44 92020000 		.4byte	.LBE2342
 13804 0e48 92020000 		.4byte	.LBB2343
 13805 0e4c 98020000 		.4byte	.LBE2343
 13806 0e50 00000000 		.4byte	0
 13807 0e54 00000000 		.4byte	0
 13808 0e58 98020000 		.4byte	.LBB2344
 13809 0e5c A0020000 		.4byte	.LBE2344
 13810 0e60 A2020000 		.4byte	.LBB2353
 13811 0e64 A6020000 		.4byte	.LBE2353
 13812 0e68 00000000 		.4byte	0
 13813 0e6c 00000000 		.4byte	0
 13814 0e70 98020000 		.4byte	.LBB2346
 13815 0e74 98020000 		.4byte	.LBE2346
 13816 0e78 98020000 		.4byte	.LBB2351
 13817 0e7c 9E020000 		.4byte	.LBE2351
 13818 0e80 00000000 		.4byte	0
 13819 0e84 00000000 		.4byte	0
 13820 0e88 B6020000 		.4byte	.LBB2354
 13821 0e8c B6020000 		.4byte	.LBE2354
 13822 0e90 B6020000 		.4byte	.LBB2363
 13823 0e94 B6020000 		.4byte	.LBE2363
 13824 0e98 B6020000 		.4byte	.LBB2364
 13825 0e9c BA020000 		.4byte	.LBE2364
 13826 0ea0 00000000 		.4byte	0
 13827 0ea4 00000000 		.4byte	0
 13828 0ea8 BA020000 		.4byte	.LBB2365
 13829 0eac BA020000 		.4byte	.LBE2365
 13830 0eb0 BA020000 		.4byte	.LBB2373
 13831 0eb4 BA020000 		.4byte	.LBE2373
 13832 0eb8 BA020000 		.4byte	.LBB2374
 13833 0ebc BA020000 		.4byte	.LBE2374
 13834 0ec0 BA020000 		.4byte	.LBB2375
 13835 0ec4 BE020000 		.4byte	.LBE2375
 13836 0ec8 00000000 		.4byte	0
 13837 0ecc 00000000 		.4byte	0
 13838 0ed0 D2020000 		.4byte	.LBB2378
 13839 0ed4 D2020000 		.4byte	.LBE2378
 13840 0ed8 D2020000 		.4byte	.LBB2387
 13841 0edc D2020000 		.4byte	.LBE2387
 13842 0ee0 D2020000 		.4byte	.LBB2388
 13843 0ee4 D6020000 		.4byte	.LBE2388
 13844 0ee8 00000000 		.4byte	0
 13845 0eec 00000000 		.4byte	0
 13846 0ef0 00000000 		.4byte	.LFB278
 13847 0ef4 0C000000 		.4byte	.LFE278
 13848 0ef8 00000000 		.4byte	.LFB285
 13849 0efc 24010000 		.4byte	.LFE285
 13850 0f00 00000000 		.4byte	.LFB277
 13851 0f04 14000000 		.4byte	.LFE277
 13852 0f08 00000000 		.4byte	.LFB282
 13853 0f0c E8020000 		.4byte	.LFE282
 13854 0f10 00000000 		.4byte	.LFB279
 13855 0f14 38030000 		.4byte	.LFE279
 13856 0f18 00000000 		.4byte	0
 13857 0f1c 00000000 		.4byte	0
 13858              		.section	.debug_line,"",%progbits
ARM GAS  /tmp/ccCget5K.s 			page 245


 13859              	.Ldebug_line0:
 13860 0000 2D180000 		.section	.debug_str,"MS",%progbits,1
 13860      03000F02 
 13860      00000201 
 13860      FB0E0D00 
 13860      01010101 
 13861              	.LASF5:
 13862 0000 73697A65 		.ascii	"size_t\000"
 13862      5F7400
 13863              	.LASF51:
 13864 0007 7264796D 		.ascii	"rdymsg\000"
 13864      736700
 13865              	.LASF13:
 13866 000e 75696E74 		.ascii	"uint64_t\000"
 13866      36345F74 
 13866      00
 13867              	.LASF104:
 13868 0017 63684D42 		.ascii	"chMBPostI\000"
 13868      506F7374 
 13868      4900
 13869              	.LASF50:
 13870 0021 706F7274 		.ascii	"port_intctx\000"
 13870      5F696E74 
 13870      63747800 
 13871              	.LASF99:
 13872 002d 706F7274 		.ascii	"port_lock\000"
 13872      5F6C6F63 
 13872      6B00
 13873              	.LASF106:
 13874 0037 63684D42 		.ascii	"chMBPostAheadI\000"
 13874      506F7374 
 13874      41686561 
 13874      644900
 13875              	.LASF14:
 13876 0046 6C6F6E67 		.ascii	"long long unsigned int\000"
 13876      206C6F6E 
 13876      6720756E 
 13876      7369676E 
 13876      65642069 
 13877              	.LASF52:
 13878 005d 65786974 		.ascii	"exitcode\000"
 13878      636F6465 
 13878      00
 13879              	.LASF55:
 13880 0066 73656E74 		.ascii	"sentmsg\000"
 13880      6D736700 
 13881              	.LASF117:
 13882 006e 74657374 		.ascii	"test_008_003_execute\000"
 13882      5F303038 
 13882      5F303033 
 13882      5F657865 
 13882      63757465 
 13883              	.LASF43:
 13884 0083 6E657874 		.ascii	"next\000"
 13884      00
 13885              	.LASF45:
 13886 0088 63685F74 		.ascii	"ch_threads_queue\000"
ARM GAS  /tmp/ccCget5K.s 			page 246


 13886      68726561 
 13886      64735F71 
 13886      75657565 
 13886      00
 13887              	.LASF1:
 13888 0099 6C6F6E67 		.ascii	"long long int\000"
 13888      206C6F6E 
 13888      6720696E 
 13888      7400
 13889              	.LASF3:
 13890 00a7 7369676E 		.ascii	"signed char\000"
 13890      65642063 
 13890      68617200 
 13891              	.LASF69:
 13892 00b3 6D61696C 		.ascii	"mailbox_t\000"
 13892      626F785F 
 13892      7400
 13893              	.LASF112:
 13894 00bd 74657374 		.ascii	"test_emit_token\000"
 13894      5F656D69 
 13894      745F746F 
 13894      6B656E00 
 13895              	.LASF98:
 13896 00cd 706F7274 		.ascii	"port_unlock\000"
 13896      5F756E6C 
 13896      6F636B00 
 13897              	.LASF34:
 13898 00d9 6D736771 		.ascii	"msgqueue\000"
 13898      75657565 
 13898      00
 13899              	.LASF30:
 13900 00e2 73746174 		.ascii	"state\000"
 13900      6500
 13901              	.LASF7:
 13902 00e8 6C6F6E67 		.ascii	"long int\000"
 13902      20696E74 
 13902      00
 13903              	.LASF16:
 13904 00f1 74737461 		.ascii	"tstate_t\000"
 13904      74655F74 
 13904      00
 13905              	.LASF24:
 13906 00fa 71756575 		.ascii	"queue\000"
 13906      6500
 13907              	.LASF65:
 13908 0100 77727074 		.ascii	"wrptr\000"
 13908      7200
 13909              	.LASF64:
 13910 0106 62756666 		.ascii	"buffer\000"
 13910      657200
 13911              	.LASF93:
 13912 010d 63684D42 		.ascii	"chMBGetFreeCountI\000"
 13912      47657446 
 13912      72656543 
 13912      6F756E74 
 13912      4900
 13913              	.LASF2:
ARM GAS  /tmp/ccCget5K.s 			page 247


 13914 011f 6C6F6E67 		.ascii	"long double\000"
 13914      20646F75 
 13914      626C6500 
 13915              	.LASF89:
 13916 012b 74657374 		.ascii	"test_008_001_setup\000"
 13916      5F303038 
 13916      5F303031 
 13916      5F736574 
 13916      757000
 13917              	.LASF47:
 13918 013e 72656761 		.ascii	"regarm_t\000"
 13918      726D5F74 
 13918      00
 13919              	.LASF67:
 13920 0147 72657365 		.ascii	"reset\000"
 13920      7400
 13921              	.LASF33:
 13922 014d 77616974 		.ascii	"waiting\000"
 13922      696E6700 
 13923              	.LASF91:
 13924 0155 6F73616C 		.ascii	"osalSysLock\000"
 13924      5379734C 
 13924      6F636B00 
 13925              	.LASF63:
 13926 0161 6D757465 		.ascii	"mutex_t\000"
 13926      785F7400 
 13927              	.LASF83:
 13928 0169 74657374 		.ascii	"test_008_003_setup\000"
 13928      5F303038 
 13928      5F303033 
 13928      5F736574 
 13928      757000
 13929              	.LASF21:
 13930 017c 636E745F 		.ascii	"cnt_t\000"
 13930      7400
 13931              	.LASF0:
 13932 0182 756E7369 		.ascii	"unsigned int\000"
 13932      676E6564 
 13932      20696E74 
 13932      00
 13933              	.LASF80:
 13934 018f 6D736731 		.ascii	"msg1\000"
 13934      00
 13935              	.LASF81:
 13936 0194 6D736732 		.ascii	"msg2\000"
 13936      00
 13937              	.LASF56:
 13938 0199 77747365 		.ascii	"wtsemp\000"
 13938      6D7000
 13939              	.LASF54:
 13940 01a0 77747472 		.ascii	"wttrp\000"
 13940      7000
 13941              	.LASF71:
 13942 01a6 74656172 		.ascii	"teardown\000"
 13942      646F776E 
 13942      00
 13943              	.LASF28:
ARM GAS  /tmp/ccCget5K.s 			page 248


 13944 01af 6E616D65 		.ascii	"name\000"
 13944      00
 13945              	.LASF38:
 13946 01b4 6D706F6F 		.ascii	"mpool\000"
 13946      6C00
 13947              	.LASF111:
 13948 01ba 63684D42 		.ascii	"chMBResetI\000"
 13948      52657365 
 13948      744900
 13949              	.LASF41:
 13950 01c5 63685F74 		.ascii	"ch_thread\000"
 13950      68726561 
 13950      6400
 13951              	.LASF109:
 13952 01cf 63684D42 		.ascii	"chMBFetchI\000"
 13952      46657463 
 13952      684900
 13953              	.LASF19:
 13954 01da 6D73675F 		.ascii	"msg_t\000"
 13954      7400
 13955              	.LASF35:
 13956 01e0 6570656E 		.ascii	"epending\000"
 13956      64696E67 
 13956      00
 13957              	.LASF15:
 13958 01e9 746D6F64 		.ascii	"tmode_t\000"
 13958      655F7400 
 13959              	.LASF20:
 13960 01f1 6576656E 		.ascii	"eventmask_t\000"
 13960      746D6173 
 13960      6B5F7400 
 13961              	.LASF48:
 13962 01fd 73746B61 		.ascii	"stkalign_t\000"
 13962      6C69676E 
 13962      5F7400
 13963              	.LASF73:
 13964 0208 74657374 		.ascii	"testcase_t\000"
 13964      63617365 
 13964      5F7400
 13965              	.LASF26:
 13966 0213 6E657765 		.ascii	"newer\000"
 13966      7200
 13967              	.LASF37:
 13968 0219 7265616C 		.ascii	"realprio\000"
 13968      7072696F 
 13968      00
 13969              	.LASF92:
 13970 0222 63684D42 		.ascii	"chMBResumeX\000"
 13970      52657375 
 13970      6D655800 
 13971              	.LASF87:
 13972 022e 74657374 		.ascii	"test_008_001_execute\000"
 13972      5F303038 
 13972      5F303031 
 13972      5F657865 
 13972      63757465 
 13973              	.LASF39:
ARM GAS  /tmp/ccCget5K.s 			page 249


 13974 0243 74687265 		.ascii	"thread_reference_t\000"
 13974      61645F72 
 13974      65666572 
 13974      656E6365 
 13974      5F7400
 13975              	.LASF74:
 13976 0256 74657374 		.ascii	"test_step\000"
 13976      5F737465 
 13976      7000
 13977              	.LASF108:
 13978 0260 63684D42 		.ascii	"chMBFetch\000"
 13978      46657463 
 13978      6800
 13979              	.LASF114:
 13980 026a 474E5520 		.ascii	"GNU C17 10.3.1 20210621 (release) -mcpu=cortex-m4 -"
 13980      43313720 
 13980      31302E33 
 13980      2E312032 
 13980      30323130 
 13981 029d 6D6E6F2D 		.ascii	"mno-thumb-interwork -mthumb -mfloat-abi=soft -march"
 13981      7468756D 
 13981      622D696E 
 13981      74657277 
 13981      6F726B20 
 13982 02d0 3D61726D 		.ascii	"=armv7e-m -ggdb -O2 -fomit-frame-pointer -falign-fu"
 13982      7637652D 
 13982      6D202D67 
 13982      67646220 
 13982      2D4F3220 
 13983 0303 6E637469 		.ascii	"nctions=16 -ffunction-sections -fdata-sections -fno"
 13983      6F6E733D 
 13983      3136202D 
 13983      6666756E 
 13983      6374696F 
 13984 0336 2D636F6D 		.ascii	"-common\000"
 13984      6D6F6E00 
 13985              	.LASF107:
 13986 033e 63684D42 		.ascii	"chMBReset\000"
 13986      52657365 
 13986      7400
 13987              	.LASF49:
 13988 0348 706F7274 		.ascii	"port_context\000"
 13988      5F636F6E 
 13988      74657874 
 13988      00
 13989              	.LASF70:
 13990 0355 73657475 		.ascii	"setup\000"
 13990      7000
 13991              	.LASF113:
 13992 035b 5F746573 		.ascii	"_test_assert_sequence\000"
 13992      745F6173 
 13992      73657274 
 13992      5F736571 
 13992      75656E63 
 13993              	.LASF76:
 13994 0371 6D625F62 		.ascii	"mb_buffer\000"
 13994      75666665 
ARM GAS  /tmp/ccCget5K.s 			page 250


 13994      7200
 13995              	.LASF25:
 13996 037b 7072696F 		.ascii	"prio\000"
 13996      00
 13997              	.LASF17:
 13998 0380 74726566 		.ascii	"trefs_t\000"
 13998      735F7400 
 13999              	.LASF32:
 14000 0388 72656673 		.ascii	"refs\000"
 14000      00
 14001              	.LASF72:
 14002 038d 65786563 		.ascii	"execute\000"
 14002      75746500 
 14003              	.LASF18:
 14004 0395 74707269 		.ascii	"tprio_t\000"
 14004      6F5F7400 
 14005              	.LASF66:
 14006 039d 72647074 		.ascii	"rdptr\000"
 14006      7200
 14007              	.LASF68:
 14008 03a3 5F426F6F 		.ascii	"_Bool\000"
 14008      6C00
 14009              	.LASF6:
 14010 03a9 696E7433 		.ascii	"int32_t\000"
 14010      325F7400 
 14011              	.LASF9:
 14012 03b1 756E7369 		.ascii	"unsigned char\000"
 14012      676E6564 
 14012      20636861 
 14012      7200
 14013              	.LASF94:
 14014 03bf 63684D42 		.ascii	"chMBGetUsedCountI\000"
 14014      47657455 
 14014      73656443 
 14014      6F756E74 
 14014      4900
 14015              	.LASF86:
 14016 03d1 74657374 		.ascii	"test_008_002_execute\000"
 14016      5F303038 
 14016      5F303032 
 14016      5F657865 
 14016      63757465 
 14017              	.LASF4:
 14018 03e6 73686F72 		.ascii	"short int\000"
 14018      7420696E 
 14018      7400
 14019              	.LASF58:
 14020 03f0 65776D61 		.ascii	"ewmask\000"
 14020      736B00
 14021              	.LASF118:
 14022 03f7 5F5F6675 		.ascii	"__func__\000"
 14022      6E635F5F 
 14022      00
 14023              	.LASF102:
 14024 0400 63684D42 		.ascii	"chMBPost\000"
 14024      506F7374 
 14024      00
ARM GAS  /tmp/ccCget5K.s 			page 251


 14025              	.LASF97:
 14026 0409 63685379 		.ascii	"chSysLock\000"
 14026      734C6F63 
 14026      6B00
 14027              	.LASF90:
 14028 0413 6F73616C 		.ascii	"osalSysUnlock\000"
 14028      53797355 
 14028      6E6C6F63 
 14028      6B00
 14029              	.LASF59:
 14030 0421 63685F73 		.ascii	"ch_semaphore\000"
 14030      656D6170 
 14030      686F7265 
 14030      00
 14031              	.LASF101:
 14032 042e 76616C75 		.ascii	"value\000"
 14032      6500
 14033              	.LASF95:
 14034 0434 63684D42 		.ascii	"chMBGetSizeI\000"
 14034      47657453 
 14034      697A6549 
 14034      00
 14035              	.LASF116:
 14036 0441 2F686F6D 		.ascii	"/home/tfateba/nlab/ip/trunk/demos/STM32/RT-STM32F40"
 14036      652F7466 
 14036      61746562 
 14036      612F6E6C 
 14036      61622F69 
 14037 0474 372D4449 		.ascii	"7-DISCOVERY-G++\000"
 14037      53434F56 
 14037      4552592D 
 14037      472B2B00 
 14038              	.LASF11:
 14039 0484 75696E74 		.ascii	"uint32_t\000"
 14039      33325F74 
 14039      00
 14040              	.LASF57:
 14041 048d 77746D74 		.ascii	"wtmtxp\000"
 14041      787000
 14042              	.LASF42:
 14043 0494 63685F74 		.ascii	"ch_threads_list\000"
 14043      68726561 
 14043      64735F6C 
 14043      69737400 
 14044              	.LASF61:
 14045 04a4 6F776E65 		.ascii	"owner\000"
 14045      7200
 14046              	.LASF12:
 14047 04aa 6C6F6E67 		.ascii	"long unsigned int\000"
 14047      20756E73 
 14047      69676E65 
 14047      6420696E 
 14047      7400
 14048              	.LASF29:
 14049 04bc 77616261 		.ascii	"wabase\000"
 14049      736500
 14050              	.LASF62:
ARM GAS  /tmp/ccCget5K.s 			page 252


 14051 04c3 63686172 		.ascii	"char\000"
 14051      00
 14052              	.LASF27:
 14053 04c8 6F6C6465 		.ascii	"older\000"
 14053      7200
 14054              	.LASF77:
 14055 04ce 74657374 		.ascii	"test_008_001\000"
 14055      5F303038 
 14055      5F303031 
 14055      00
 14056              	.LASF78:
 14057 04db 74657374 		.ascii	"test_008_002\000"
 14057      5F303038 
 14057      5F303032 
 14057      00
 14058              	.LASF79:
 14059 04e8 74657374 		.ascii	"test_008_003\000"
 14059      5F303038 
 14059      5F303033 
 14059      00
 14060              	.LASF23:
 14061 04f5 74687265 		.ascii	"thread_t\000"
 14061      61645F74 
 14061      00
 14062              	.LASF22:
 14063 04fe 73797374 		.ascii	"systime_t\000"
 14063      696D655F 
 14063      7400
 14064              	.LASF85:
 14065 0508 74657374 		.ascii	"test_008_002_setup\000"
 14065      5F303038 
 14065      5F303032 
 14065      5F736574 
 14065      757000
 14066              	.LASF110:
 14067 051b 63684D42 		.ascii	"chMBObjectInit\000"
 14067      4F626A65 
 14067      6374496E 
 14067      697400
 14068              	.LASF100:
 14069 052a 5F5F7365 		.ascii	"__set_BASEPRI\000"
 14069      745F4241 
 14069      53455052 
 14069      4900
 14070              	.LASF10:
 14071 0538 73686F72 		.ascii	"short unsigned int\000"
 14071      7420756E 
 14071      7369676E 
 14071      65642069 
 14071      6E7400
 14072              	.LASF105:
 14073 054b 63684D42 		.ascii	"chMBPostAhead\000"
 14073      506F7374 
 14073      41686561 
 14073      6400
 14074              	.LASF115:
 14075 0559 2E2E2F2E 		.ascii	"../../../test/rt/source/test/test_sequence_008.c\000"
ARM GAS  /tmp/ccCget5K.s 			page 253


 14075      2E2F2E2E 
 14075      2F746573 
 14075      742F7274 
 14075      2F736F75 
 14076              	.LASF44:
 14077 058a 74687265 		.ascii	"threads_queue_t\000"
 14077      6164735F 
 14077      71756575 
 14077      655F7400 
 14078              	.LASF60:
 14079 059a 63685F6D 		.ascii	"ch_mutex\000"
 14079      75746578 
 14079      00
 14080              	.LASF8:
 14081 05a3 75696E74 		.ascii	"uint8_t\000"
 14081      385F7400 
 14082              	.LASF31:
 14083 05ab 666C6167 		.ascii	"flags\000"
 14083      7300
 14084              	.LASF75:
 14085 05b1 74657374 		.ascii	"test_sequence_008\000"
 14085      5F736571 
 14085      75656E63 
 14085      655F3030 
 14085      3800
 14086              	.LASF53:
 14087 05c3 77746F62 		.ascii	"wtobjp\000"
 14087      6A7000
 14088              	.LASF103:
 14089 05ca 5F746573 		.ascii	"_test_assert\000"
 14089      745F6173 
 14089      73657274 
 14089      00
 14090              	.LASF40:
 14091 05d7 74687265 		.ascii	"threads_list_t\000"
 14091      6164735F 
 14091      6C697374 
 14091      5F7400
 14092              	.LASF46:
 14093 05e6 70726576 		.ascii	"prev\000"
 14093      00
 14094              	.LASF96:
 14095 05eb 63685379 		.ascii	"chSysUnlock\000"
 14095      73556E6C 
 14095      6F636B00 
 14096              	.LASF36:
 14097 05f7 6D74786C 		.ascii	"mtxlist\000"
 14097      69737400 
 14098              	.LASF88:
 14099 05ff 74657374 		.ascii	"test_008_001_teardown\000"
 14099      5F303038 
 14099      5F303031 
 14099      5F746561 
 14099      72646F77 
 14100              	.LASF84:
 14101 0615 74657374 		.ascii	"test_008_002_teardown\000"
 14101      5F303038 
ARM GAS  /tmp/ccCget5K.s 			page 254


 14101      5F303032 
 14101      5F746561 
 14101      72646F77 
 14102              	.LASF82:
 14103 062b 74657374 		.ascii	"test_008_003_teardown\000"
 14103      5F303038 
 14103      5F303033 
 14103      5F746561 
 14103      72646F77 
 14104              		.ident	"GCC: (15:10.3-2021.07-4) 10.3.1 20210621 (release)"
ARM GAS  /tmp/ccCget5K.s 			page 255


DEFINED SYMBOLS
                            *ABS*:0000000000000000 test_sequence_008.c
     /tmp/ccCget5K.s:16     .text.test_008_001_teardown:0000000000000000 $t
     /tmp/ccCget5K.s:24     .text.test_008_001_teardown:0000000000000000 test_008_001_teardown
     /tmp/ccCget5K.s:39     .text.test_008_001_teardown:0000000000000008 $d
     /tmp/ccCget5K.s:44     .rodata.test_008_003_execute.str1.4:0000000000000000 $d
     /tmp/ccCget5K.s:48     .text.test_008_003_execute:0000000000000000 $t
     /tmp/ccCget5K.s:55     .text.test_008_003_execute:0000000000000000 test_008_003_execute
     /tmp/ccCget5K.s:518    .text.test_008_003_execute:0000000000000118 $d
     /tmp/ccCget5K.s:525    .text.test_008_001_setup:0000000000000000 $t
     /tmp/ccCget5K.s:532    .text.test_008_001_setup:0000000000000000 test_008_001_setup
     /tmp/ccCget5K.s:548    .text.test_008_001_setup:000000000000000c $d
     /tmp/ccCget5K.s:554    .rodata.test_008_002_execute.str1.4:0000000000000000 $d
     /tmp/ccCget5K.s:585    .text.test_008_002_execute:0000000000000000 $t
     /tmp/ccCget5K.s:592    .text.test_008_002_execute:0000000000000000 test_008_002_execute
     /tmp/ccCget5K.s:2938   .text.test_008_002_execute:00000000000002b4 $d
     /tmp/ccCget5K.s:2957   .rodata.test_008_001_execute.str1.4:0000000000000000 $d
     /tmp/ccCget5K.s:2961   .text.test_008_001_execute:0000000000000000 $t
     /tmp/ccCget5K.s:2968   .text.test_008_001_execute:0000000000000000 test_008_001_execute
     /tmp/ccCget5K.s:5018   .text.test_008_001_execute:0000000000000300 $d
     /tmp/ccCget5K.s:5038   .text.test_008_003_teardown:0000000000000000 $t
     /tmp/ccCget5K.s:5045   .text.test_008_003_teardown:0000000000000000 test_008_003_teardown
     /tmp/ccCget5K.s:5056   .text.test_008_003_teardown:0000000000000008 $d
     /tmp/ccCget5K.s:5061   .text.test_008_002_teardown:0000000000000000 $t
     /tmp/ccCget5K.s:5068   .text.test_008_002_teardown:0000000000000000 test_008_002_teardown
     /tmp/ccCget5K.s:5079   .text.test_008_002_teardown:0000000000000008 $d
     /tmp/ccCget5K.s:5084   .text.test_008_002_setup:0000000000000000 $t
     /tmp/ccCget5K.s:5091   .text.test_008_002_setup:0000000000000000 test_008_002_setup
     /tmp/ccCget5K.s:5104   .text.test_008_002_setup:000000000000000c $d
     /tmp/ccCget5K.s:5110   .text.test_008_003_setup:0000000000000000 $t
     /tmp/ccCget5K.s:5117   .text.test_008_003_setup:0000000000000000 test_008_003_setup
     /tmp/ccCget5K.s:5130   .text.test_008_003_setup:000000000000000c $d
     /tmp/ccCget5K.s:5201   .rodata.test_sequence_008:0000000000000000 test_sequence_008
     /tmp/ccCget5K.s:5137   .rodata.str1.4:0000000000000000 $d
     /tmp/ccCget5K.s:5147   .bss.mb_buffer:0000000000000000 $d
     /tmp/ccCget5K.s:5151   .bss.mb_buffer:0000000000000000 mb_buffer
     /tmp/ccCget5K.s:5154   .data.mb1:0000000000000000 $d
     /tmp/ccCget5K.s:5158   .data.mb1:0000000000000000 mb1
     /tmp/ccCget5K.s:5171   .rodata.test_008_001:0000000000000000 $d
     /tmp/ccCget5K.s:5174   .rodata.test_008_001:0000000000000000 test_008_001
     /tmp/ccCget5K.s:5180   .rodata.test_008_002:0000000000000000 $d
     /tmp/ccCget5K.s:5183   .rodata.test_008_002:0000000000000000 test_008_002
     /tmp/ccCget5K.s:5189   .rodata.test_008_003:0000000000000000 $d
     /tmp/ccCget5K.s:5192   .rodata.test_008_003:0000000000000000 test_008_003
     /tmp/ccCget5K.s:5198   .rodata.test_sequence_008:0000000000000000 $d

UNDEFINED SYMBOLS
chMBReset
chMBPost
_test_assert
chMBPostI
chMBPostAhead
chMBPostAheadI
chMBFetch
chMBFetchI
test_step
chMBObjectInit
ARM GAS  /tmp/ccCget5K.s 			page 256


chMBResetI
test_emit_token
_test_assert_sequence
