ARM GAS  /tmp/cclsdYqJ.s 			page 1


   1              		.cpu cortex-m4
   2              		.eabi_attribute 20, 1
   3              		.eabi_attribute 21, 1
   4              		.eabi_attribute 23, 3
   5              		.eabi_attribute 24, 1
   6              		.eabi_attribute 25, 1
   7              		.eabi_attribute 26, 1
   8              		.eabi_attribute 30, 2
   9              		.eabi_attribute 34, 1
  10              		.eabi_attribute 18, 4
  11              		.file	"test_sequence_009.c"
  12              		.text
  13              	.Ltext0:
  14              		.cfi_sections	.debug_frame
  15              		.section	.text.null_provider,"ax",%progbits
  16              		.align	1
  17              		.p2align 4,,15
  18              		.arch armv7e-m
  19              		.syntax unified
  20              		.thumb
  21              		.thumb_func
  22              		.fpu softvfp
  23              		.type	null_provider, %function
  24              	null_provider:
  25              	.LVL0:
  26              	.LFB277:
  27              		.file 1 "../../../test/rt/source/test/test_sequence_009.c"
  28              		.loc 1 61 57 view -0
  29              		.cfi_startproc
  30              		@ args = 0, pretend = 0, frame = 0
  31              		@ frame_needed = 0, uses_anonymous_args = 0
  32              		@ link register save eliminated.
  33              		.loc 1 63 3 view .LVU1
  34              		.loc 1 64 3 view .LVU2
  35              		.loc 1 66 3 view .LVU3
  36              		.loc 1 67 1 is_stmt 0 view .LVU4
  37 0000 0020     		movs	r0, #0
  38              	.LVL1:
  39              		.loc 1 67 1 view .LVU5
  40 0002 7047     		bx	lr
  41              		.cfi_endproc
  42              	.LFE277:
  43              		.size	null_provider, .-null_provider
  44              		.section	.rodata.test_009_003_execute.str1.4,"aMS",%progbits,1
  45              		.align	2
  46              	.LC0:
  47 0000 6C697374 		.ascii	"list not empty\000"
  47      206E6F74 
  47      20656D70 
  47      747900
  48              		.section	.text.test_009_003_execute,"ax",%progbits
  49              		.align	1
  50              		.p2align 4,,15
  51              		.syntax unified
  52              		.thumb
  53              		.thumb_func
  54              		.fpu softvfp
ARM GAS  /tmp/cclsdYqJ.s 			page 2


  55              		.type	test_009_003_execute, %function
  56              	test_009_003_execute:
  57              	.LFB283:
  58              		.loc 1 260 40 is_stmt 1 view -0
  59              		.cfi_startproc
  60              		@ args = 0, pretend = 0, frame = 0
  61              		@ frame_needed = 0, uses_anonymous_args = 0
  62              		.loc 1 264 3 view .LVU7
  63              		.loc 1 260 40 is_stmt 0 view .LVU8
  64 0000 08B5     		push	{r3, lr}
  65              		.cfi_def_cfa_offset 8
  66              		.cfi_offset 3, -8
  67              		.cfi_offset 14, -4
  68              		.loc 1 264 3 view .LVU9
  69 0002 084B     		ldr	r3, .L5
  70              		.loc 1 266 5 view .LVU10
  71 0004 0848     		ldr	r0, .L5+4
  72 0006 4FF47A71 		mov	r1, #1000
  73              		.loc 1 264 3 view .LVU11
  74 000a 0122     		movs	r2, #1
  75 000c 1A60     		str	r2, [r3]
  76              		.loc 1 266 5 is_stmt 1 view .LVU12
  77 000e FFF7FEFF 		bl	chGuardedPoolAllocTimeout
  78              	.LVL2:
  79 0012 B0FA80F0 		clz	r0, r0
  80              		.loc 1 268 1 is_stmt 0 view .LVU13
  81 0016 BDE80840 		pop	{r3, lr}
  82              		.cfi_restore 14
  83              		.cfi_restore 3
  84              		.cfi_def_cfa_offset 0
  85              		.loc 1 266 5 view .LVU14
  86 001a 0449     		ldr	r1, .L5+8
  87 001c 4009     		lsrs	r0, r0, #5
  88 001e FFF7FEBF 		b	_test_assert
  89              	.LVL3:
  90              	.L6:
  91 0022 00BF     		.align	2
  92              	.L5:
  93 0024 00000000 		.word	test_step
  94 0028 00000000 		.word	.LANCHOR0
  95 002c 00000000 		.word	.LC0
  96              		.cfi_endproc
  97              	.LFE283:
  98              		.size	test_009_003_execute, .-test_009_003_execute
  99              		.section	.text.test_009_002_setup,"ax",%progbits
 100              		.align	1
 101              		.p2align 4,,15
 102              		.syntax unified
 103              		.thumb
 104              		.thumb_func
 105              		.fpu softvfp
 106              		.type	test_009_002_setup, %function
 107              	test_009_002_setup:
 108              	.LFB280:
 109              		.loc 1 179 38 is_stmt 1 view -0
 110              		.cfi_startproc
 111              		@ args = 0, pretend = 0, frame = 0
ARM GAS  /tmp/cclsdYqJ.s 			page 3


 112              		@ frame_needed = 0, uses_anonymous_args = 0
 113              		@ link register save eliminated.
 114              		.loc 1 180 3 view .LVU16
 115 0000 0148     		ldr	r0, .L8
 116 0002 0421     		movs	r1, #4
 117 0004 FFF7FEBF 		b	chGuardedPoolObjectInit
 118              	.LVL4:
 119              	.L9:
 120              		.align	2
 121              	.L8:
 122 0008 00000000 		.word	.LANCHOR0
 123              		.cfi_endproc
 124              	.LFE280:
 125              		.size	test_009_002_setup, .-test_009_002_setup
 126              		.section	.rodata.test_009_002_execute.str1.4,"aMS",%progbits,1
 127              		.align	2
 128              	.LC1:
 129 0000 6C697374 		.ascii	"list empty\000"
 129      20656D70 
 129      747900
 130              		.section	.text.test_009_002_execute,"ax",%progbits
 131              		.align	1
 132              		.p2align 4,,15
 133              		.syntax unified
 134              		.thumb
 135              		.thumb_func
 136              		.fpu softvfp
 137              		.type	test_009_002_execute, %function
 138              	test_009_002_execute:
 139              	.LFB281:
 140              		.loc 1 183 40 view -0
 141              		.cfi_startproc
 142              		@ args = 0, pretend = 0, frame = 0
 143              		@ frame_needed = 0, uses_anonymous_args = 0
 144              		.loc 1 184 3 view .LVU18
 145              		.loc 1 188 3 view .LVU19
 146              		.loc 1 183 40 is_stmt 0 view .LVU20
 147 0000 F8B5     		push	{r3, r4, r5, r6, r7, lr}
 148              		.cfi_def_cfa_offset 24
 149              		.cfi_offset 3, -24
 150              		.cfi_offset 4, -20
 151              		.cfi_offset 5, -16
 152              		.cfi_offset 6, -12
 153              		.cfi_offset 7, -8
 154              		.cfi_offset 14, -4
 155              		.loc 1 188 3 view .LVU21
 156 0002 2B4D     		ldr	r5, .L21
 157              		.loc 1 190 5 view .LVU22
 158 0004 2B49     		ldr	r1, .L21+4
 159 0006 2C48     		ldr	r0, .L21+8
 160              		.loc 1 197 7 view .LVU23
 161 0008 2B4F     		ldr	r7, .L21+8
 162 000a 2C4E     		ldr	r6, .L21+12
 163              		.loc 1 188 3 view .LVU24
 164 000c 0123     		movs	r3, #1
 165              		.loc 1 190 5 view .LVU25
 166 000e 0422     		movs	r2, #4
ARM GAS  /tmp/cclsdYqJ.s 			page 4


 167              		.loc 1 188 3 view .LVU26
 168 0010 2B60     		str	r3, [r5]
 169              		.loc 1 190 5 is_stmt 1 view .LVU27
 170 0012 FFF7FEFF 		bl	chGuardedPoolLoadArray
 171              	.LVL5:
 172              		.loc 1 194 3 view .LVU28
 173 0016 0223     		movs	r3, #2
 174 0018 2B60     		str	r3, [r5]
 175              		.loc 1 196 5 view .LVU29
 176              	.LVL6:
 177              		.loc 1 196 17 view .LVU30
 178              		.loc 1 194 3 is_stmt 0 view .LVU31
 179 001a 0424     		movs	r4, #4
 180              	.LVL7:
 181              	.L13:
 182              		.loc 1 197 7 is_stmt 1 view .LVU32
 183 001c 0021     		movs	r1, #0
 184 001e 3846     		mov	r0, r7
 185 0020 FFF7FEFF 		bl	chGuardedPoolAllocTimeout
 186              	.LVL8:
 187 0024 0038     		subs	r0, r0, #0
 188 0026 18BF     		it	ne
 189 0028 0120     		movne	r0, #1
 190 002a 3146     		mov	r1, r6
 191 002c FFF7FEFF 		bl	_test_assert
 192              	.LVL9:
 193              		.loc 1 196 39 view .LVU33
 194              		.loc 1 196 17 view .LVU34
 195              		.loc 1 197 7 is_stmt 0 view .LVU35
 196 0030 0028     		cmp	r0, #0
 197 0032 3BD1     		bne	.L10
 198              		.loc 1 196 5 discriminator 2 view .LVU36
 199 0034 013C     		subs	r4, r4, #1
 200              	.LVL10:
 201              		.loc 1 196 5 discriminator 2 view .LVU37
 202 0036 F1D1     		bne	.L13
 203              		.loc 1 197 90 is_stmt 1 view .LVU38
 204              		.loc 1 201 3 view .LVU39
 205              		.loc 1 203 5 is_stmt 0 view .LVU40
 206 0038 2146     		mov	r1, r4
 207              		.loc 1 201 3 view .LVU41
 208 003a 0323     		movs	r3, #3
 209              		.loc 1 203 5 view .LVU42
 210 003c 1E48     		ldr	r0, .L21+8
 211              		.loc 1 201 3 view .LVU43
 212 003e 2B60     		str	r3, [r5]
 213              		.loc 1 203 5 is_stmt 1 view .LVU44
 214 0040 FFF7FEFF 		bl	chGuardedPoolAllocTimeout
 215              	.LVL11:
 216 0044 B0FA80F0 		clz	r0, r0
 217 0048 1D49     		ldr	r1, .L21+16
 218 004a 4009     		lsrs	r0, r0, #5
 219 004c FFF7FEFF 		bl	_test_assert
 220              	.LVL12:
 221 0050 60BB     		cbnz	r0, .L10
 222              		.loc 1 203 92 discriminator 2 view .LVU45
 223              		.loc 1 208 3 discriminator 2 view .LVU46
ARM GAS  /tmp/cclsdYqJ.s 			page 5


 224 0052 184C     		ldr	r4, .L21+4
 225              	.LVL13:
 226              		.loc 1 211 7 is_stmt 0 discriminator 2 view .LVU47
 227 0054 184F     		ldr	r7, .L21+8
 228              		.loc 1 208 3 discriminator 2 view .LVU48
 229 0056 0423     		movs	r3, #4
 230 0058 2B60     		str	r3, [r5]
 231              		.loc 1 210 5 is_stmt 1 discriminator 2 view .LVU49
 232              	.LVL14:
 233              		.loc 1 210 17 discriminator 2 view .LVU50
 234 005a 04F11006 		add	r6, r4, #16
 235              	.LVL15:
 236              	.L15:
 237              		.loc 1 211 7 discriminator 3 view .LVU51
 238 005e 2146     		mov	r1, r4
 239 0060 3846     		mov	r0, r7
 240              		.loc 1 210 5 is_stmt 0 discriminator 3 view .LVU52
 241 0062 0434     		adds	r4, r4, #4
 242              		.loc 1 211 7 discriminator 3 view .LVU53
 243 0064 FFF7FEFF 		bl	chGuardedPoolFree
 244              	.LVL16:
 245              		.loc 1 210 39 is_stmt 1 discriminator 3 view .LVU54
 246              		.loc 1 210 17 discriminator 3 view .LVU55
 247              		.loc 1 210 5 is_stmt 0 discriminator 3 view .LVU56
 248 0068 B442     		cmp	r4, r6
 249 006a F8D1     		bne	.L15
 250              		.loc 1 216 3 is_stmt 1 view .LVU57
 251 006c 0523     		movs	r3, #5
 252              		.loc 1 219 7 is_stmt 0 view .LVU58
 253 006e 124F     		ldr	r7, .L21+8
 254 0070 124E     		ldr	r6, .L21+12
 255              		.loc 1 216 3 view .LVU59
 256 0072 2B60     		str	r3, [r5]
 257              		.loc 1 218 5 is_stmt 1 view .LVU60
 258              	.LVL17:
 259              		.loc 1 218 17 view .LVU61
 260              		.loc 1 216 3 is_stmt 0 view .LVU62
 261 0074 0424     		movs	r4, #4
 262              	.LVL18:
 263              	.L16:
 264              		.loc 1 219 7 is_stmt 1 view .LVU63
 265 0076 0021     		movs	r1, #0
 266 0078 3846     		mov	r0, r7
 267 007a FFF7FEFF 		bl	chGuardedPoolAllocTimeout
 268              	.LVL19:
 269 007e 0038     		subs	r0, r0, #0
 270 0080 18BF     		it	ne
 271 0082 0120     		movne	r0, #1
 272 0084 3146     		mov	r1, r6
 273 0086 FFF7FEFF 		bl	_test_assert
 274              	.LVL20:
 275              		.loc 1 218 39 view .LVU64
 276              		.loc 1 218 17 view .LVU65
 277              		.loc 1 219 7 is_stmt 0 view .LVU66
 278 008a 78B9     		cbnz	r0, .L10
 279              		.loc 1 218 5 discriminator 2 view .LVU67
 280 008c 013C     		subs	r4, r4, #1
ARM GAS  /tmp/cclsdYqJ.s 			page 6


 281              	.LVL21:
 282              		.loc 1 218 5 discriminator 2 view .LVU68
 283 008e F2D1     		bne	.L16
 284              		.loc 1 219 90 is_stmt 1 view .LVU69
 285              		.loc 1 223 3 view .LVU70
 286              		.loc 1 225 5 is_stmt 0 view .LVU71
 287 0090 2146     		mov	r1, r4
 288              		.loc 1 223 3 view .LVU72
 289 0092 0623     		movs	r3, #6
 290              		.loc 1 225 5 view .LVU73
 291 0094 0848     		ldr	r0, .L21+8
 292              		.loc 1 223 3 view .LVU74
 293 0096 2B60     		str	r3, [r5]
 294              		.loc 1 225 5 is_stmt 1 view .LVU75
 295 0098 FFF7FEFF 		bl	chGuardedPoolAllocTimeout
 296              	.LVL22:
 297 009c B0FA80F0 		clz	r0, r0
 298              		.loc 1 227 1 is_stmt 0 view .LVU76
 299 00a0 BDE8F840 		pop	{r3, r4, r5, r6, r7, lr}
 300              		.cfi_remember_state
 301              		.cfi_restore 14
 302              		.cfi_restore 7
 303              		.cfi_restore 6
 304              		.cfi_restore 5
 305              		.cfi_restore 4
 306              		.cfi_restore 3
 307              		.cfi_def_cfa_offset 0
 308              	.LVL23:
 309              		.loc 1 225 5 view .LVU77
 310 00a4 0649     		ldr	r1, .L21+16
 311 00a6 4009     		lsrs	r0, r0, #5
 312 00a8 FFF7FEBF 		b	_test_assert
 313              	.LVL24:
 314              	.L10:
 315              		.cfi_restore_state
 316              		.loc 1 227 1 view .LVU78
 317 00ac F8BD     		pop	{r3, r4, r5, r6, r7, pc}
 318              	.L22:
 319 00ae 00BF     		.align	2
 320              	.L21:
 321 00b0 00000000 		.word	test_step
 322 00b4 00000000 		.word	.LANCHOR1
 323 00b8 00000000 		.word	.LANCHOR0
 324 00bc 00000000 		.word	.LC1
 325 00c0 00000000 		.word	.LC0
 326              		.cfi_endproc
 327              	.LFE281:
 328              		.size	test_009_002_execute, .-test_009_002_execute
 329              		.section	.rodata.test_009_001_execute.str1.4,"aMS",%progbits,1
 330              		.align	2
 331              	.LC2:
 332 0000 70726F76 		.ascii	"provider returned memory\000"
 332      69646572 
 332      20726574 
 332      75726E65 
 332      64206D65 
 333              		.section	.text.test_009_001_execute,"ax",%progbits
ARM GAS  /tmp/cclsdYqJ.s 			page 7


 334              		.align	1
 335              		.p2align 4,,15
 336              		.syntax unified
 337              		.thumb
 338              		.thumb_func
 339              		.fpu softvfp
 340              		.type	test_009_001_execute, %function
 341              	test_009_001_execute:
 342              	.LFB279:
 343              		.loc 1 96 40 is_stmt 1 view -0
 344              		.cfi_startproc
 345              		@ args = 0, pretend = 0, frame = 0
 346              		@ frame_needed = 0, uses_anonymous_args = 0
 347              		.loc 1 97 3 view .LVU80
 348              		.loc 1 100 3 view .LVU81
 349              		.loc 1 96 40 is_stmt 0 view .LVU82
 350 0000 F8B5     		push	{r3, r4, r5, r6, r7, lr}
 351              		.cfi_def_cfa_offset 24
 352              		.cfi_offset 3, -24
 353              		.cfi_offset 4, -20
 354              		.cfi_offset 5, -16
 355              		.cfi_offset 6, -12
 356              		.cfi_offset 7, -8
 357              		.cfi_offset 14, -4
 358              		.loc 1 100 3 view .LVU83
 359 0002 324D     		ldr	r5, .L34
 360              		.loc 1 102 5 view .LVU84
 361 0004 3249     		ldr	r1, .L34+4
 362 0006 3348     		ldr	r0, .L34+8
 363              		.loc 1 109 7 view .LVU85
 364 0008 324F     		ldr	r7, .L34+8
 365 000a 334E     		ldr	r6, .L34+12
 366              		.loc 1 100 3 view .LVU86
 367 000c 0123     		movs	r3, #1
 368              		.loc 1 102 5 view .LVU87
 369 000e 0422     		movs	r2, #4
 370              		.loc 1 100 3 view .LVU88
 371 0010 2B60     		str	r3, [r5]
 372              		.loc 1 102 5 is_stmt 1 view .LVU89
 373 0012 FFF7FEFF 		bl	chPoolLoadArray
 374              	.LVL25:
 375              		.loc 1 106 3 view .LVU90
 376 0016 0223     		movs	r3, #2
 377 0018 2B60     		str	r3, [r5]
 378              		.loc 1 108 5 view .LVU91
 379              	.LVL26:
 380              		.loc 1 108 17 view .LVU92
 381              		.loc 1 106 3 is_stmt 0 view .LVU93
 382 001a 0424     		movs	r4, #4
 383              	.LVL27:
 384              	.L26:
 385              		.loc 1 109 7 is_stmt 1 view .LVU94
 386 001c 3846     		mov	r0, r7
 387 001e FFF7FEFF 		bl	chPoolAlloc
 388              	.LVL28:
 389 0022 0038     		subs	r0, r0, #0
 390 0024 18BF     		it	ne
ARM GAS  /tmp/cclsdYqJ.s 			page 8


 391 0026 0120     		movne	r0, #1
 392 0028 3146     		mov	r1, r6
 393 002a FFF7FEFF 		bl	_test_assert
 394              	.LVL29:
 395              		.loc 1 108 39 view .LVU95
 396              		.loc 1 108 17 view .LVU96
 397              		.loc 1 109 7 is_stmt 0 view .LVU97
 398 002e 0028     		cmp	r0, #0
 399 0030 4AD1     		bne	.L23
 400              		.loc 1 108 5 discriminator 2 view .LVU98
 401 0032 013C     		subs	r4, r4, #1
 402              	.LVL30:
 403              		.loc 1 108 5 discriminator 2 view .LVU99
 404 0034 F2D1     		bne	.L26
 405              		.loc 1 109 59 is_stmt 1 view .LVU100
 406              		.loc 1 113 3 view .LVU101
 407 0036 0323     		movs	r3, #3
 408              		.loc 1 115 5 is_stmt 0 view .LVU102
 409 0038 2648     		ldr	r0, .L34+8
 410              		.loc 1 113 3 view .LVU103
 411 003a 2B60     		str	r3, [r5]
 412              		.loc 1 115 5 is_stmt 1 view .LVU104
 413 003c FFF7FEFF 		bl	chPoolAlloc
 414              	.LVL31:
 415 0040 B0FA80F0 		clz	r0, r0
 416 0044 2549     		ldr	r1, .L34+16
 417 0046 4009     		lsrs	r0, r0, #5
 418 0048 FFF7FEFF 		bl	_test_assert
 419              	.LVL32:
 420 004c 0028     		cmp	r0, #0
 421 004e 3BD1     		bne	.L23
 422              		.loc 1 115 61 discriminator 2 view .LVU105
 423              		.loc 1 119 3 discriminator 2 view .LVU106
 424 0050 1F4C     		ldr	r4, .L34+4
 425              	.LVL33:
 426              		.loc 1 122 7 is_stmt 0 discriminator 2 view .LVU107
 427 0052 204F     		ldr	r7, .L34+8
 428              		.loc 1 119 3 discriminator 2 view .LVU108
 429 0054 0423     		movs	r3, #4
 430 0056 2B60     		str	r3, [r5]
 431              		.loc 1 121 5 is_stmt 1 discriminator 2 view .LVU109
 432              	.LVL34:
 433              		.loc 1 121 17 discriminator 2 view .LVU110
 434 0058 04F11006 		add	r6, r4, #16
 435              	.LVL35:
 436              	.L28:
 437              		.loc 1 122 7 discriminator 3 view .LVU111
 438 005c 2146     		mov	r1, r4
 439 005e 3846     		mov	r0, r7
 440              		.loc 1 121 5 is_stmt 0 discriminator 3 view .LVU112
 441 0060 0434     		adds	r4, r4, #4
 442              		.loc 1 122 7 discriminator 3 view .LVU113
 443 0062 FFF7FEFF 		bl	chPoolFree
 444              	.LVL36:
 445              		.loc 1 121 39 is_stmt 1 discriminator 3 view .LVU114
 446              		.loc 1 121 17 discriminator 3 view .LVU115
 447              		.loc 1 121 5 is_stmt 0 discriminator 3 view .LVU116
ARM GAS  /tmp/cclsdYqJ.s 			page 9


 448 0066 B442     		cmp	r4, r6
 449 0068 F8D1     		bne	.L28
 450              		.loc 1 126 3 is_stmt 1 view .LVU117
 451 006a 0523     		movs	r3, #5
 452              		.loc 1 129 7 is_stmt 0 view .LVU118
 453 006c 194F     		ldr	r7, .L34+8
 454 006e 1A4E     		ldr	r6, .L34+12
 455              		.loc 1 126 3 view .LVU119
 456 0070 2B60     		str	r3, [r5]
 457              		.loc 1 128 5 is_stmt 1 view .LVU120
 458              	.LVL37:
 459              		.loc 1 128 17 view .LVU121
 460              		.loc 1 126 3 is_stmt 0 view .LVU122
 461 0072 0424     		movs	r4, #4
 462              	.LVL38:
 463              	.L29:
 464              		.loc 1 129 7 is_stmt 1 view .LVU123
 465 0074 3846     		mov	r0, r7
 466 0076 FFF7FEFF 		bl	chPoolAlloc
 467              	.LVL39:
 468 007a 0038     		subs	r0, r0, #0
 469 007c 18BF     		it	ne
 470 007e 0120     		movne	r0, #1
 471 0080 3146     		mov	r1, r6
 472 0082 FFF7FEFF 		bl	_test_assert
 473              	.LVL40:
 474              		.loc 1 128 39 view .LVU124
 475              		.loc 1 128 17 view .LVU125
 476              		.loc 1 129 7 is_stmt 0 view .LVU126
 477 0086 F8B9     		cbnz	r0, .L23
 478              		.loc 1 128 5 discriminator 2 view .LVU127
 479 0088 013C     		subs	r4, r4, #1
 480              	.LVL41:
 481              		.loc 1 128 5 discriminator 2 view .LVU128
 482 008a F3D1     		bne	.L29
 483              		.loc 1 129 59 is_stmt 1 view .LVU129
 484              		.loc 1 133 3 view .LVU130
 485 008c 0623     		movs	r3, #6
 486              		.loc 1 135 5 is_stmt 0 view .LVU131
 487 008e 1148     		ldr	r0, .L34+8
 488              		.loc 1 133 3 view .LVU132
 489 0090 2B60     		str	r3, [r5]
 490              		.loc 1 135 5 is_stmt 1 view .LVU133
 491 0092 FFF7FEFF 		bl	chPoolAlloc
 492              	.LVL42:
 493 0096 B0FA80F0 		clz	r0, r0
 494 009a 1049     		ldr	r1, .L34+16
 495 009c 4009     		lsrs	r0, r0, #5
 496 009e FFF7FEFF 		bl	_test_assert
 497              	.LVL43:
 498 00a2 88B9     		cbnz	r0, .L23
 499              		.loc 1 135 61 discriminator 2 view .LVU134
 500              		.loc 1 140 3 discriminator 2 view .LVU135
 501 00a4 0723     		movs	r3, #7
 502              		.loc 1 142 5 is_stmt 0 discriminator 2 view .LVU136
 503 00a6 0421     		movs	r1, #4
 504 00a8 0D4A     		ldr	r2, .L34+20
ARM GAS  /tmp/cclsdYqJ.s 			page 10


 505 00aa 0A48     		ldr	r0, .L34+8
 506              		.loc 1 140 3 discriminator 2 view .LVU137
 507 00ac 2B60     		str	r3, [r5]
 508              		.loc 1 142 5 is_stmt 1 discriminator 2 view .LVU138
 509 00ae FFF7FEFF 		bl	chPoolObjectInit
 510              	.LVL44:
 511              		.loc 1 143 5 discriminator 2 view .LVU139
 512 00b2 0848     		ldr	r0, .L34+8
 513 00b4 FFF7FEFF 		bl	chPoolAlloc
 514              	.LVL45:
 515 00b8 B0FA80F0 		clz	r0, r0
 516              		.loc 1 145 1 is_stmt 0 discriminator 2 view .LVU140
 517 00bc BDE8F840 		pop	{r3, r4, r5, r6, r7, lr}
 518              		.cfi_remember_state
 519              		.cfi_restore 14
 520              		.cfi_restore 7
 521              		.cfi_restore 6
 522              		.cfi_restore 5
 523              		.cfi_restore 4
 524              		.cfi_restore 3
 525              		.cfi_def_cfa_offset 0
 526              	.LVL46:
 527              		.loc 1 143 5 discriminator 2 view .LVU141
 528 00c0 0849     		ldr	r1, .L34+24
 529 00c2 4009     		lsrs	r0, r0, #5
 530 00c4 FFF7FEBF 		b	_test_assert
 531              	.LVL47:
 532              	.L23:
 533              		.cfi_restore_state
 534              		.loc 1 145 1 view .LVU142
 535 00c8 F8BD     		pop	{r3, r4, r5, r6, r7, pc}
 536              	.L35:
 537 00ca 00BF     		.align	2
 538              	.L34:
 539 00cc 00000000 		.word	test_step
 540 00d0 00000000 		.word	.LANCHOR1
 541 00d4 00000000 		.word	.LANCHOR2
 542 00d8 00000000 		.word	.LC1
 543 00dc 00000000 		.word	.LC0
 544 00e0 00000000 		.word	null_provider
 545 00e4 00000000 		.word	.LC2
 546              		.cfi_endproc
 547              	.LFE279:
 548              		.size	test_009_001_execute, .-test_009_001_execute
 549              		.section	.text.test_009_001_setup,"ax",%progbits
 550              		.align	1
 551              		.p2align 4,,15
 552              		.syntax unified
 553              		.thumb
 554              		.thumb_func
 555              		.fpu softvfp
 556              		.type	test_009_001_setup, %function
 557              	test_009_001_setup:
 558              	.LFB278:
 559              		.loc 1 92 38 is_stmt 1 view -0
 560              		.cfi_startproc
 561              		@ args = 0, pretend = 0, frame = 0
ARM GAS  /tmp/cclsdYqJ.s 			page 11


 562              		@ frame_needed = 0, uses_anonymous_args = 0
 563              		@ link register save eliminated.
 564              		.loc 1 93 3 view .LVU144
 565 0000 0248     		ldr	r0, .L37
 566 0002 0022     		movs	r2, #0
 567 0004 0421     		movs	r1, #4
 568 0006 FFF7FEBF 		b	chPoolObjectInit
 569              	.LVL48:
 570              	.L38:
 571 000a 00BF     		.align	2
 572              	.L37:
 573 000c 00000000 		.word	.LANCHOR2
 574              		.cfi_endproc
 575              	.LFE278:
 576              		.size	test_009_001_setup, .-test_009_001_setup
 577              		.section	.text.test_009_003_setup,"ax",%progbits
 578              		.align	1
 579              		.p2align 4,,15
 580              		.syntax unified
 581              		.thumb
 582              		.thumb_func
 583              		.fpu softvfp
 584              		.type	test_009_003_setup, %function
 585              	test_009_003_setup:
 586              	.LFB285:
 587              		.cfi_startproc
 588              		@ args = 0, pretend = 0, frame = 0
 589              		@ frame_needed = 0, uses_anonymous_args = 0
 590              		@ link register save eliminated.
 591 0000 0148     		ldr	r0, .L40
 592 0002 0421     		movs	r1, #4
 593 0004 FFF7FEBF 		b	chGuardedPoolObjectInit
 594              	.L41:
 595              		.align	2
 596              	.L40:
 597 0008 00000000 		.word	.LANCHOR0
 598              		.cfi_endproc
 599              	.LFE285:
 600              		.size	test_009_003_setup, .-test_009_003_setup
 601              		.global	test_sequence_009
 602              		.section	.rodata.str1.4,"aMS",%progbits,1
 603              		.align	2
 604              	.LC3:
 605 0000 47756172 		.ascii	"Guarded Memory Pools timeout\000"
 605      64656420 
 605      4D656D6F 
 605      72792050 
 605      6F6F6C73 
 606 001d 000000   		.align	2
 607              	.LC4:
 608 0020 4C6F6164 		.ascii	"Loading and emptying a guarded memory pool without "
 608      696E6720 
 608      616E6420 
 608      656D7074 
 608      79696E67 
 609 0053 77616974 		.ascii	"waiting\000"
 609      696E6700 
ARM GAS  /tmp/cclsdYqJ.s 			page 12


 610 005b 00       		.align	2
 611              	.LC5:
 612 005c 4C6F6164 		.ascii	"Loading and emptying a memory pool\000"
 612      696E6720 
 612      616E6420 
 612      656D7074 
 612      79696E67 
 613              		.section	.bss.objects,"aw",%nobits
 614              		.align	2
 615              		.set	.LANCHOR1,. + 0
 616              		.type	objects, %object
 617              		.size	objects, 16
 618              	objects:
 619 0000 00000000 		.space	16
 619      00000000 
 619      00000000 
 619      00000000 
 620              		.section	.data.gmp1,"aw"
 621              		.align	2
 622              		.set	.LANCHOR0,. + 0
 623              		.type	gmp1, %object
 624              		.size	gmp1, 24
 625              	gmp1:
 626 0000 00000000 		.word	gmp1
 627 0004 00000000 		.word	gmp1
 628 0008 00000000 		.word	0
 629 000c 00000000 		.word	0
 630 0010 04000000 		.word	4
 631 0014 00000000 		.word	0
 632              		.section	.data.mp1,"aw"
 633              		.align	2
 634              		.set	.LANCHOR2,. + 0
 635              		.type	mp1, %object
 636              		.size	mp1, 12
 637              	mp1:
 638 0000 00000000 		.word	0
 639 0004 04000000 		.word	4
 640 0008 00000000 		.word	0
 641              		.section	.rodata.test_009_001,"a"
 642              		.align	2
 643              		.type	test_009_001, %object
 644              		.size	test_009_001, 16
 645              	test_009_001:
 646 0000 5C000000 		.word	.LC5
 647 0004 00000000 		.word	test_009_001_setup
 648 0008 00000000 		.word	0
 649 000c 00000000 		.word	test_009_001_execute
 650              		.section	.rodata.test_009_002,"a"
 651              		.align	2
 652              		.type	test_009_002, %object
 653              		.size	test_009_002, 16
 654              	test_009_002:
 655 0000 20000000 		.word	.LC4
 656 0004 00000000 		.word	test_009_002_setup
 657 0008 00000000 		.word	0
 658 000c 00000000 		.word	test_009_002_execute
 659              		.section	.rodata.test_009_003,"a"
ARM GAS  /tmp/cclsdYqJ.s 			page 13


 660              		.align	2
 661              		.type	test_009_003, %object
 662              		.size	test_009_003, 16
 663              	test_009_003:
 664 0000 00000000 		.word	.LC3
 665 0004 00000000 		.word	test_009_003_setup
 666 0008 00000000 		.word	0
 667 000c 00000000 		.word	test_009_003_execute
 668              		.section	.rodata.test_sequence_009,"a"
 669              		.align	2
 670              		.type	test_sequence_009, %object
 671              		.size	test_sequence_009, 16
 672              	test_sequence_009:
 673 0000 00000000 		.word	test_009_001
 674 0004 00000000 		.word	test_009_002
 675 0008 00000000 		.word	test_009_003
 676 000c 00000000 		.word	0
 677              		.text
 678              	.Letext0:
 679              		.file 2 "/usr/lib/gcc/arm-none-eabi/10.3.1/include/stddef.h"
 680              		.file 3 "/usr/lib/gcc/arm-none-eabi/10.3.1/include/stdint.h"
 681              		.file 4 "../../../os/common/ports/ARMCMx/compilers/GCC/chtypes.h"
 682              		.file 5 "../../../os/rt/include/chsystypes.h"
 683              		.file 6 "../../../os/rt/include/chschd.h"
 684              		.file 7 "../../../os/common/ports/ARMCMx/chcore.h"
 685              		.file 8 "../../../os/common/ports/ARMCMx/chcore_v7m.h"
 686              		.file 9 "../../../os/rt/include/chsem.h"
 687              		.file 10 "../../../os/rt/include/chmtx.h"
 688              		.file 11 "../../../os/common/oslib/include/chmemcore.h"
 689              		.file 12 "../../../os/common/oslib/include/chmempools.h"
 690              		.file 13 "../../../test/lib/ch_test.h"
 691              		.file 14 "../../../test/rt/source/test/test_sequence_009.h"