ARM GAS  /tmp/cc3iDV1G.s 			page 1


   1              		.cpu cortex-m4
   2              		.eabi_attribute 20, 1
   3              		.eabi_attribute 21, 1
   4              		.eabi_attribute 23, 3
   5              		.eabi_attribute 24, 1
   6              		.eabi_attribute 25, 1
   7              		.eabi_attribute 26, 1
   8              		.eabi_attribute 30, 2
   9              		.eabi_attribute 34, 1
  10              		.eabi_attribute 18, 4
  11              		.file	"test_sequence_001.c"
  12              		.text
  13              	.Ltext0:
  14              		.cfi_sections	.debug_frame
  15              		.section	.text.test_001_003_execute,"ax",%progbits
  16              		.align	1
  17              		.p2align 4,,15
  18              		.arch armv7e-m
  19              		.syntax unified
  20              		.thumb
  21              		.thumb_func
  22              		.fpu softvfp
  23              		.type	test_001_003_execute, %function
  24              	test_001_003_execute:
  25              	.LFB280:
  26              		.file 1 "../../../test/rt/source/test/test_sequence_001.c"
  27              		.loc 1 215 40 view -0
  28              		.cfi_startproc
  29              		@ args = 0, pretend = 0, frame = 0
  30              		@ frame_needed = 0, uses_anonymous_args = 0
  31              		@ link register save eliminated.
  32              		.loc 1 219 3 view .LVU1
  33 0000 074B     		ldr	r3, .L3
  34 0002 0122     		movs	r2, #1
  35 0004 1A60     		str	r2, [r3]
  36              		.loc 1 221 5 view .LVU2
  37              	.LBB347:
  38              	.LBI347:
  39              		.file 2 "../../../os/rt/include/chsys.h"
  40              		.loc 2 348 20 view .LVU3
  41              	.LBE347:
  42              		.loc 2 350 3 view .LVU4
  43              	.LBB355:
  44              	.LBB348:
  45              	.LBI348:
  46              		.file 3 "../../../os/common/ports/ARMCMx/chcore_v7m.h"
  47              		.loc 3 664 20 view .LVU5
  48              	.LBE348:
  49              	.LBE355:
  50              		.loc 3 667 3 view .LVU6
  51              	.LVL0:
  52              	.LBB356:
  53              	.LBB353:
  54              	.LBB349:
  55              	.LBI349:
  56              		.file 4 "../../../os/common/ext/CMSIS/include/cmsis_gcc.h"
  57              		.loc 4 262 57 view .LVU7
ARM GAS  /tmp/cc3iDV1G.s 			page 2


  58              	.LBB350:
  59              		.loc 4 264 3 view .LVU8
  60 0006 2023     		movs	r3, #32
  61              		.syntax unified
  62              	@ 264 "../../../os/common/ext/CMSIS/include/cmsis_gcc.h" 1
  63 0008 83F31188 		MSR basepri, r3
  64              	@ 0 "" 2
  65              	.LVL1:
  66              		.loc 4 264 3 is_stmt 0 view .LVU9
  67              		.thumb
  68              		.syntax unified
  69              	.LBE350:
  70              	.LBE349:
  71              	.LBE353:
  72              	.LBE356:
  73              		.loc 3 668 3 is_stmt 1 view .LVU10
  74              	.LBB357:
  75              	.LBB354:
  76              	.LBB351:
  77              	.LBI351:
  78              		.loc 4 58 57 view .LVU11
  79              	.LBB352:
  80              		.loc 4 60 3 view .LVU12
  81              		.syntax unified
  82              	@ 60 "../../../os/common/ext/CMSIS/include/cmsis_gcc.h" 1
  83 000c 62B6     		cpsie i
  84              	@ 0 "" 2
  85              		.thumb
  86              		.syntax unified
  87              	.LBE352:
  88              	.LBE351:
  89              	.LBE354:
  90              	.LBE357:
  91              		.loc 2 351 23 view .LVU13
  92              		.loc 1 222 5 view .LVU14
  93              	.LBB358:
  94              	.LBI358:
  95              		.loc 2 331 20 view .LVU15
  96              	.LBE358:
  97              		.loc 2 333 3 view .LVU16
  98              	.LBB363:
  99              	.LBB359:
 100              	.LBI359:
 101              		.loc 3 654 20 view .LVU17
 102              	.LBE359:
 103              	.LBE363:
 104              		.loc 3 656 3 view .LVU18
 105              	.LBB364:
 106              	.LBB362:
 107              	.LBB360:
 108              	.LBI360:
 109              		.loc 4 69 57 view .LVU19
 110              	.LBB361:
 111              		.loc 4 71 3 view .LVU20
 112              		.syntax unified
 113              	@ 71 "../../../os/common/ext/CMSIS/include/cmsis_gcc.h" 1
 114 000e 72B6     		cpsid i
ARM GAS  /tmp/cc3iDV1G.s 			page 3


 115              	@ 0 "" 2
 116              		.thumb
 117              		.syntax unified
 118              	.LBE361:
 119              	.LBE360:
 120              	.LBE362:
 121              	.LBE364:
 122              		.loc 2 334 23 view .LVU21
 123              		.loc 1 223 5 view .LVU22
 124              	.LBB365:
 125              	.LBI365:
 126              		.loc 2 348 20 view .LVU23
 127              	.LBE365:
 128              		.loc 2 350 3 view .LVU24
 129              	.LBB373:
 130              	.LBB366:
 131              	.LBI366:
 132              		.loc 3 664 20 view .LVU25
 133              	.LBE366:
 134              	.LBE373:
 135              		.loc 3 667 3 view .LVU26
 136              	.LVL2:
 137              	.LBB374:
 138              	.LBB371:
 139              	.LBB367:
 140              	.LBI367:
 141              		.loc 4 262 57 view .LVU27
 142              	.LBB368:
 143              		.loc 4 264 3 view .LVU28
 144              		.syntax unified
 145              	@ 264 "../../../os/common/ext/CMSIS/include/cmsis_gcc.h" 1
 146 0010 83F31188 		MSR basepri, r3
 147              	@ 0 "" 2
 148              	.LVL3:
 149              		.loc 4 264 3 is_stmt 0 view .LVU29
 150              		.thumb
 151              		.syntax unified
 152              	.LBE368:
 153              	.LBE367:
 154              	.LBE371:
 155              	.LBE374:
 156              		.loc 3 668 3 is_stmt 1 view .LVU30
 157              	.LBB375:
 158              	.LBB372:
 159              	.LBB369:
 160              	.LBI369:
 161              		.loc 4 58 57 view .LVU31
 162              	.LBB370:
 163              		.loc 4 60 3 view .LVU32
 164              		.syntax unified
 165              	@ 60 "../../../os/common/ext/CMSIS/include/cmsis_gcc.h" 1
 166 0014 62B6     		cpsie i
 167              	@ 0 "" 2
 168              		.thumb
 169              		.syntax unified
 170              	.LBE370:
 171              	.LBE369:
ARM GAS  /tmp/cc3iDV1G.s 			page 4


 172              	.LBE372:
 173              	.LBE375:
 174              		.loc 2 351 23 view .LVU33
 175              		.loc 1 224 5 view .LVU34
 176              	.LBB376:
 177              	.LBI376:
 178              		.loc 2 363 20 view .LVU35
 179              	.LBE376:
 180              		.loc 2 365 22 view .LVU36
 181              		.loc 2 366 3 view .LVU37
 182              	.LBB384:
 183              	.LBB377:
 184              	.LBI377:
 185              		.loc 3 678 20 view .LVU38
 186              	.LBE377:
 187              	.LBE384:
 188              		.loc 3 681 3 view .LVU39
 189              	.LVL4:
 190              	.LBB385:
 191              	.LBB382:
 192              	.LBB378:
 193              	.LBI378:
 194              		.loc 4 262 57 view .LVU40
 195              	.LBB379:
 196              		.loc 4 264 3 view .LVU41
 197 0016 0023     		movs	r3, #0
 198              		.syntax unified
 199              	@ 264 "../../../os/common/ext/CMSIS/include/cmsis_gcc.h" 1
 200 0018 83F31188 		MSR basepri, r3
 201              	@ 0 "" 2
 202              	.LVL5:
 203              		.loc 4 264 3 is_stmt 0 view .LVU42
 204              		.thumb
 205              		.syntax unified
 206              	.LBE379:
 207              	.LBE378:
 208              	.LBE382:
 209              	.LBE385:
 210              		.loc 3 683 3 is_stmt 1 view .LVU43
 211              	.LBB386:
 212              	.LBB383:
 213              	.LBB380:
 214              	.LBI380:
 215              		.loc 4 58 57 view .LVU44
 216              	.LBB381:
 217              		.loc 4 60 3 view .LVU45
 218              		.syntax unified
 219              	@ 60 "../../../os/common/ext/CMSIS/include/cmsis_gcc.h" 1
 220 001c 62B6     		cpsie i
 221              	@ 0 "" 2
 222              		.thumb
 223              		.syntax unified
 224              	.LBE381:
 225              	.LBE380:
 226              	.LBE383:
 227              	.LBE386:
 228              		.loc 1 226 1 is_stmt 0 view .LVU46
ARM GAS  /tmp/cc3iDV1G.s 			page 5


 229 001e 7047     		bx	lr
 230              	.L4:
 231              		.align	2
 232              	.L3:
 233 0020 00000000 		.word	test_step
 234              		.cfi_endproc
 235              	.LFE280:
 236              		.size	test_001_003_execute, .-test_001_003_execute
 237              		.section	.text.test_001_004_execute,"ax",%progbits
 238              		.align	1
 239              		.p2align 4,,15
 240              		.syntax unified
 241              		.thumb
 242              		.thumb_func
 243              		.fpu softvfp
 244              		.type	test_001_004_execute, %function
 245              	test_001_004_execute:
 246              	.LFB281:
 247              		.loc 1 247 40 is_stmt 1 view -0
 248              		.cfi_startproc
 249              		@ args = 0, pretend = 0, frame = 0
 250              		@ frame_needed = 0, uses_anonymous_args = 0
 251              		@ link register save eliminated.
 252              		.loc 1 251 3 view .LVU48
 253 0000 044B     		ldr	r3, .L8
 254              	.LBB387:
 255              	.LBB388:
 256              	.LBB389:
 257              	.LBB390:
 258              	.LBB391:
 259              		.file 5 "../../../os/hal/ports/STM32/LLD/TIMv1/hal_st_lld.h"
 260              		.loc 5 141 10 is_stmt 0 view .LVU49
 261 0002 4FF08042 		mov	r2, #1073741824
 262              	.LBE391:
 263              	.LBE390:
 264              	.LBE389:
 265              	.LBE388:
 266              	.LBE387:
 267              		.loc 1 251 3 view .LVU50
 268 0006 0121     		movs	r1, #1
 269 0008 1960     		str	r1, [r3]
 270              	.LBB406:
 271              		.loc 1 253 5 is_stmt 1 view .LVU51
 272              	.LBB396:
 273              	.LBI388:
 274              		.file 6 "../../../os/rt/include/chvt.h"
 275              		.loc 6 392 25 view .LVU52
 276              	.LBE396:
 277              	.LBE406:
 278              		.loc 6 397 3 view .LVU53
 279              	.LBB407:
 280              	.LBB397:
 281              	.LBB394:
 282              	.LBI389:
 283              		.file 7 "../../../os/common/ports/ARMCMx/chcore_timer.h"
 284              		.loc 7 105 25 view .LVU54
 285              	.LBE394:
ARM GAS  /tmp/cc3iDV1G.s 			page 6


 286              	.LBE397:
 287              	.LBE407:
 288              		.loc 7 107 3 view .LVU55
 289              	.LBB408:
 290              	.LBB398:
 291              	.LBB395:
 292              	.LBB393:
 293              	.LBI390:
 294              		.loc 5 139 25 view .LVU56
 295              	.LBB392:
 296              		.loc 5 141 3 view .LVU57
 297              		.loc 5 141 10 is_stmt 0 view .LVU58
 298 000a 516A     		ldr	r1, [r2, #36]
 299              	.LVL6:
 300              		.loc 5 141 10 view .LVU59
 301              	.LBE392:
 302              	.LBE393:
 303              	.LBE395:
 304              	.LBE398:
 305              		.loc 1 254 5 is_stmt 1 view .LVU60
 306              	.L6:
 307              		.loc 1 258 5 discriminator 1 view .LVU61
 308              		.loc 1 254 11 discriminator 1 view .LVU62
 309              	.LBB399:
 310              	.LBI399:
 311              		.loc 6 392 25 discriminator 1 view .LVU63
 312              	.LBE399:
 313              	.LBE408:
 314              		.loc 6 397 3 discriminator 1 view .LVU64
 315              	.LBB409:
 316              	.LBB404:
 317              	.LBB400:
 318              	.LBI400:
 319              		.loc 7 105 25 discriminator 1 view .LVU65
 320              	.LBE400:
 321              	.LBE404:
 322              	.LBE409:
 323              		.loc 7 107 3 discriminator 1 view .LVU66
 324              	.LBB410:
 325              	.LBB405:
 326              	.LBB403:
 327              	.LBB401:
 328              	.LBI401:
 329              		.loc 5 139 25 discriminator 1 view .LVU67
 330              	.LBB402:
 331              		.loc 5 141 3 discriminator 1 view .LVU68
 332              		.loc 5 141 10 is_stmt 0 discriminator 1 view .LVU69
 333 000c 536A     		ldr	r3, [r2, #36]
 334              	.LBE402:
 335              	.LBE401:
 336              	.LBE403:
 337              	.LBE405:
 338              		.loc 1 254 11 discriminator 1 view .LVU70
 339 000e 9942     		cmp	r1, r3
 340 0010 FCD0     		beq	.L6
 341              	.LBE410:
 342              		.loc 1 260 1 view .LVU71
ARM GAS  /tmp/cc3iDV1G.s 			page 7


 343 0012 7047     		bx	lr
 344              	.L9:
 345              		.align	2
 346              	.L8:
 347 0014 00000000 		.word	test_step
 348              		.cfi_endproc
 349              	.LFE281:
 350              		.size	test_001_004_execute, .-test_001_004_execute
 351              		.section	.text.vtcb,"ax",%progbits
 352              		.align	1
 353              		.p2align 4,,15
 354              		.syntax unified
 355              		.thumb
 356              		.thumb_func
 357              		.fpu softvfp
 358              		.type	vtcb, %function
 359              	vtcb:
 360              	.LVL7:
 361              	.LFB277:
 362              		.loc 1 49 27 is_stmt 1 view -0
 363              		.cfi_startproc
 364              		@ args = 0, pretend = 0, frame = 0
 365              		@ frame_needed = 0, uses_anonymous_args = 0
 366              		.loc 1 50 3 view .LVU73
 367              		.loc 1 52 3 view .LVU74
 368              		.loc 1 55 3 view .LVU75
 369              	.LBB411:
 370              	.LBI411:
 371              		.loc 2 414 20 view .LVU76
 372              	.LBE411:
 373              		.loc 2 416 3 view .LVU77
 374              	.LBB423:
 375              	.LBB412:
 376              	.LBI412:
 377              		.loc 3 633 20 view .LVU78
 378              	.LBE412:
 379              	.LBE423:
 380              		.loc 3 635 3 view .LVU79
 381              	.LBB424:
 382              	.LBB420:
 383              	.LBB413:
 384              	.LBI413:
 385              		.loc 3 594 20 view .LVU80
 386              	.LBE413:
 387              	.LBE420:
 388              	.LBE424:
 389              		.loc 3 602 3 view .LVU81
 390              	.LBB425:
 391              	.LBB421:
 392              	.LBB418:
 393              	.LBB414:
 394              	.LBI414:
 395              		.loc 4 262 57 view .LVU82
 396              	.LBB415:
 397              		.loc 4 264 3 view .LVU83
 398              	.LBE415:
 399              	.LBE414:
ARM GAS  /tmp/cc3iDV1G.s 			page 8


 400              	.LBE418:
 401              	.LBE421:
 402              	.LBE425:
 403              		.loc 1 49 27 is_stmt 0 view .LVU84
 404 0000 10B5     		push	{r4, lr}
 405              		.cfi_def_cfa_offset 8
 406              		.cfi_offset 4, -8
 407              		.cfi_offset 14, -4
 408              	.LBB426:
 409              	.LBB422:
 410              	.LBB419:
 411              	.LBB417:
 412              	.LBB416:
 413              		.loc 4 264 3 view .LVU85
 414 0002 2023     		movs	r3, #32
 415              		.syntax unified
 416              	@ 264 "../../../os/common/ext/CMSIS/include/cmsis_gcc.h" 1
 417 0004 83F31188 		MSR basepri, r3
 418              	@ 0 "" 2
 419              	.LVL8:
 420              		.loc 4 264 3 view .LVU86
 421              		.thumb
 422              		.syntax unified
 423              	.LBE416:
 424              	.LBE417:
 425              	.LBE419:
 426              	.LBE422:
 427              	.LBE426:
 428              		.loc 2 417 34 is_stmt 1 view .LVU87
 429              		.loc 2 418 29 view .LVU88
 430              		.loc 1 56 3 view .LVU89
 431              	.LBB427:
 432              	.LBI427:
 433              		.loc 2 434 20 view .LVU90
 434              	.LBE427:
 435              		.loc 2 436 31 view .LVU91
 436              		.loc 2 437 33 view .LVU92
 437              		.loc 2 438 3 view .LVU93
 438              	.LBB435:
 439              	.LBB428:
 440              	.LBI428:
 441              		.loc 3 644 20 view .LVU94
 442              	.LBE428:
 443              	.LBE435:
 444              		.loc 3 646 3 view .LVU95
 445              	.LBB436:
 446              	.LBB433:
 447              	.LBB429:
 448              	.LBI429:
 449              		.loc 3 618 20 view .LVU96
 450              	.LBE429:
 451              	.LBE433:
 452              	.LBE436:
 453              		.loc 3 621 3 view .LVU97
 454              	.LBB437:
 455              	.LBB434:
 456              	.LBB432:
ARM GAS  /tmp/cc3iDV1G.s 			page 9


 457              	.LBB430:
 458              	.LBI430:
 459              		.loc 4 262 57 view .LVU98
 460              	.LBB431:
 461              		.loc 4 264 3 view .LVU99
 462 0008 0024     		movs	r4, #0
 463              		.syntax unified
 464              	@ 264 "../../../os/common/ext/CMSIS/include/cmsis_gcc.h" 1
 465 000a 84F31188 		MSR basepri, r4
 466              	@ 0 "" 2
 467              	.LVL9:
 468              		.loc 4 264 3 is_stmt 0 view .LVU100
 469              		.thumb
 470              		.syntax unified
 471              	.LBE431:
 472              	.LBE430:
 473              	.LBE432:
 474              	.LBE434:
 475              	.LBE437:
 476              		.loc 1 59 3 is_stmt 1 view .LVU101
 477              	.LBB438:
 478              	.LBI438:
 479              		.loc 2 414 20 view .LVU102
 480              	.LBE438:
 481              		.loc 2 416 3 view .LVU103
 482              	.LBB446:
 483              	.LBB439:
 484              	.LBI439:
 485              		.loc 3 633 20 view .LVU104
 486              	.LBE439:
 487              	.LBE446:
 488              		.loc 3 635 3 view .LVU105
 489              	.LBB447:
 490              	.LBB444:
 491              	.LBB440:
 492              	.LBI440:
 493              		.loc 3 594 20 view .LVU106
 494              	.LBE440:
 495              	.LBE444:
 496              	.LBE447:
 497              		.loc 3 602 3 view .LVU107
 498              	.LBB448:
 499              	.LBB445:
 500              	.LBB443:
 501              	.LBB441:
 502              	.LBI441:
 503              		.loc 4 262 57 view .LVU108
 504              	.LBB442:
 505              		.loc 4 264 3 view .LVU109
 506              		.syntax unified
 507              	@ 264 "../../../os/common/ext/CMSIS/include/cmsis_gcc.h" 1
 508 000e 83F31188 		MSR basepri, r3
 509              	@ 0 "" 2
 510              	.LVL10:
 511              		.loc 4 264 3 is_stmt 0 view .LVU110
 512              		.thumb
 513              		.syntax unified
ARM GAS  /tmp/cc3iDV1G.s 			page 10


 514              	.LBE442:
 515              	.LBE441:
 516              	.LBE443:
 517              	.LBE445:
 518              	.LBE448:
 519              		.loc 2 417 34 is_stmt 1 view .LVU111
 520              		.loc 2 418 29 view .LVU112
 521              		.loc 1 60 3 view .LVU113
 522              		.loc 1 60 9 is_stmt 0 view .LVU114
 523 0012 FFF7FEFF 		bl	chSysGetStatusAndLockX
 524              	.LVL11:
 525              		.loc 1 61 3 is_stmt 1 view .LVU115
 526 0016 FFF7FEFF 		bl	chSysRestoreStatusX
 527              	.LVL12:
 528              		.loc 1 62 3 view .LVU116
 529              	.LBB449:
 530              	.LBI449:
 531              		.loc 2 434 20 view .LVU117
 532              	.LBE449:
 533              		.loc 2 436 31 view .LVU118
 534              		.loc 2 437 33 view .LVU119
 535              		.loc 2 438 3 view .LVU120
 536              	.LBB457:
 537              	.LBB450:
 538              	.LBI450:
 539              		.loc 3 644 20 view .LVU121
 540              	.LBE450:
 541              	.LBE457:
 542              		.loc 3 646 3 view .LVU122
 543              	.LBB458:
 544              	.LBB455:
 545              	.LBB451:
 546              	.LBI451:
 547              		.loc 3 618 20 view .LVU123
 548              	.LBE451:
 549              	.LBE455:
 550              	.LBE458:
 551              		.loc 3 621 3 view .LVU124
 552              	.LBB459:
 553              	.LBB456:
 554              	.LBB454:
 555              	.LBB452:
 556              	.LBI452:
 557              		.loc 4 262 57 view .LVU125
 558              	.LBB453:
 559              		.loc 4 264 3 view .LVU126
 560              		.syntax unified
 561              	@ 264 "../../../os/common/ext/CMSIS/include/cmsis_gcc.h" 1
 562 001a 84F31188 		MSR basepri, r4
 563              	@ 0 "" 2
 564              	.LVL13:
 565              		.loc 4 264 3 is_stmt 0 view .LVU127
 566              		.thumb
 567              		.syntax unified
 568              	.LBE453:
 569              	.LBE452:
 570              	.LBE454:
ARM GAS  /tmp/cc3iDV1G.s 			page 11


 571              	.LBE456:
 572              	.LBE459:
 573              		.loc 1 63 1 view .LVU128
 574 001e 10BD     		pop	{r4, pc}
 575              		.cfi_endproc
 576              	.LFE277:
 577              		.size	vtcb, .-vtcb
 578              		.section	.rodata.test_001_001_execute.str1.4,"aMS",%progbits,1
 579              		.align	2
 580              	.LC0:
 581 0000 72656164 		.ascii	"ready list check failed\000"
 581      79206C69 
 581      73742063 
 581      6865636B 
 581      20666169 
 582              		.align	2
 583              	.LC1:
 584 0018 76697274 		.ascii	"virtual timers list check failed\000"
 584      75616C20 
 584      74696D65 
 584      7273206C 
 584      69737420 
 585 0039 000000   		.align	2
 586              	.LC2:
 587 003c 72656769 		.ascii	"registry list check failed\000"
 587      73747279 
 587      206C6973 
 587      74206368 
 587      65636B20 
 588 0057 00       		.align	2
 589              	.LC3:
 590 0058 706F7274 		.ascii	"port layer check failed\000"
 590      206C6179 
 590      65722063 
 590      6865636B 
 590      20666169 
 591              		.section	.text.test_001_001_execute,"ax",%progbits
 592              		.align	1
 593              		.p2align 4,,15
 594              		.syntax unified
 595              		.thumb
 596              		.thumb_func
 597              		.fpu softvfp
 598              		.type	test_001_001_execute, %function
 599              	test_001_001_execute:
 600              	.LFB278:
 601              		.loc 1 84 40 is_stmt 1 view -0
 602              		.cfi_startproc
 603              		@ args = 0, pretend = 0, frame = 0
 604              		@ frame_needed = 0, uses_anonymous_args = 0
 605              		.loc 1 85 3 view .LVU130
 606              		.loc 1 88 3 view .LVU131
 607              		.loc 1 84 40 is_stmt 0 view .LVU132
 608 0000 70B5     		push	{r4, r5, r6, lr}
 609              		.cfi_def_cfa_offset 16
 610              		.cfi_offset 4, -16
 611              		.cfi_offset 5, -12
ARM GAS  /tmp/cc3iDV1G.s 			page 12


 612              		.cfi_offset 6, -8
 613              		.cfi_offset 14, -4
 614              		.loc 1 88 3 view .LVU133
 615 0002 244E     		ldr	r6, .L18
 616 0004 0120     		movs	r0, #1
 617 0006 3060     		str	r0, [r6]
 618              		.loc 1 90 5 is_stmt 1 view .LVU134
 619              	.LBB507:
 620              	.LBI507:
 621              		.loc 2 374 20 view .LVU135
 622              	.LBE507:
 623              		.loc 2 376 3 view .LVU136
 624              	.LBB512:
 625              	.LBB508:
 626              	.LBI508:
 627              		.loc 3 594 20 view .LVU137
 628              	.LBE508:
 629              	.LBE512:
 630              		.loc 3 602 3 view .LVU138
 631              	.LVL14:
 632              	.LBB513:
 633              	.LBB511:
 634              	.LBB509:
 635              	.LBI509:
 636              		.loc 4 262 57 view .LVU139
 637              	.LBB510:
 638              		.loc 4 264 3 view .LVU140
 639 0008 2025     		movs	r5, #32
 640              		.syntax unified
 641              	@ 264 "../../../os/common/ext/CMSIS/include/cmsis_gcc.h" 1
 642 000a 85F31188 		MSR basepri, r5
 643              	@ 0 "" 2
 644              	.LVL15:
 645              		.loc 4 264 3 is_stmt 0 view .LVU141
 646              		.thumb
 647              		.syntax unified
 648              	.LBE510:
 649              	.LBE509:
 650              	.LBE511:
 651              	.LBE513:
 652              		.loc 2 377 34 is_stmt 1 view .LVU142
 653              		.loc 2 378 20 view .LVU143
 654              		.loc 1 91 5 view .LVU144
 655              		.loc 1 91 14 is_stmt 0 view .LVU145
 656 000e FFF7FEFF 		bl	chSysIntegrityCheckI
 657              	.LVL16:
 658              		.loc 1 92 5 is_stmt 1 view .LVU146
 659              	.LBB514:
 660              	.LBI514:
 661              		.loc 2 386 20 view .LVU147
 662              	.LBB515:
 663              		.loc 2 388 22 view .LVU148
 664              		.loc 2 389 33 view .LVU149
 665              		.loc 2 395 3 view .LVU150
 666              		.loc 2 395 3 view .LVU151
 667              		.loc 2 395 3 view .LVU152
 668              		.loc 2 399 3 view .LVU153
ARM GAS  /tmp/cc3iDV1G.s 			page 13


 669              	.LBB516:
 670              	.LBI516:
 671              		.loc 3 618 20 view .LVU154
 672              	.LBE516:
 673              	.LBE515:
 674              	.LBE514:
 675              		.loc 3 621 3 view .LVU155
 676              	.LBB521:
 677              	.LBB520:
 678              	.LBB519:
 679              	.LBB517:
 680              	.LBI517:
 681              		.loc 4 262 57 view .LVU156
 682              	.LBB518:
 683              		.loc 4 264 3 view .LVU157
 684 0012 0023     		movs	r3, #0
 685              		.syntax unified
 686              	@ 264 "../../../os/common/ext/CMSIS/include/cmsis_gcc.h" 1
 687 0014 83F31188 		MSR basepri, r3
 688              	@ 0 "" 2
 689              	.LVL17:
 690              		.loc 4 264 3 is_stmt 0 view .LVU158
 691              		.thumb
 692              		.syntax unified
 693              	.LBE518:
 694              	.LBE517:
 695              	.LBE519:
 696              	.LBE520:
 697              	.LBE521:
 698              		.loc 1 93 5 is_stmt 1 view .LVU159
 699 0018 80F00100 		eor	r0, r0, #1
 700              	.LVL18:
 701              		.loc 1 93 5 is_stmt 0 view .LVU160
 702 001c 1E49     		ldr	r1, .L18+4
 703 001e C0B2     		uxtb	r0, r0
 704 0020 FFF7FEFF 		bl	_test_assert
 705              	.LVL19:
 706 0024 00B1     		cbz	r0, .L17
 707              	.L12:
 708              		.loc 1 122 1 view .LVU161
 709 0026 70BD     		pop	{r4, r5, r6, pc}
 710              	.L17:
 711              	.LBB522:
 712              	.LBI522:
 713              		.loc 1 84 13 is_stmt 1 view .LVU162
 714              	.LBB523:
 715              		.loc 1 93 60 view .LVU163
 716              		.loc 1 97 3 view .LVU164
 717 0028 0446     		mov	r4, r0
 718 002a 0220     		movs	r0, #2
 719 002c 3060     		str	r0, [r6]
 720              		.loc 1 99 5 view .LVU165
 721              	.LBB524:
 722              	.LBI524:
 723              		.loc 2 374 20 view .LVU166
 724              	.LBE524:
 725              	.LBE523:
ARM GAS  /tmp/cc3iDV1G.s 			page 14


 726              	.LBE522:
 727              		.loc 2 376 3 view .LVU167
 728              	.LBB582:
 729              	.LBB569:
 730              	.LBB529:
 731              	.LBB525:
 732              	.LBI525:
 733              		.loc 3 594 20 view .LVU168
 734              	.LBE525:
 735              	.LBE529:
 736              	.LBE569:
 737              	.LBE582:
 738              		.loc 3 602 3 view .LVU169
 739              	.LVL20:
 740              	.LBB583:
 741              	.LBB570:
 742              	.LBB530:
 743              	.LBB528:
 744              	.LBB526:
 745              	.LBI526:
 746              		.loc 4 262 57 view .LVU170
 747              	.LBB527:
 748              		.loc 4 264 3 view .LVU171
 749              		.syntax unified
 750              	@ 264 "../../../os/common/ext/CMSIS/include/cmsis_gcc.h" 1
 751 002e 85F31188 		MSR basepri, r5
 752              	@ 0 "" 2
 753              	.LVL21:
 754              		.loc 4 264 3 is_stmt 0 view .LVU172
 755              		.thumb
 756              		.syntax unified
 757              	.LBE527:
 758              	.LBE526:
 759              	.LBE528:
 760              	.LBE530:
 761              	.LBE570:
 762              	.LBE583:
 763              		.loc 2 377 34 is_stmt 1 view .LVU173
 764              		.loc 2 378 20 view .LVU174
 765              	.LBB584:
 766              	.LBB571:
 767              		.loc 1 100 5 view .LVU175
 768              		.loc 1 100 14 is_stmt 0 view .LVU176
 769 0032 FFF7FEFF 		bl	chSysIntegrityCheckI
 770              	.LVL22:
 771              		.loc 1 101 5 is_stmt 1 view .LVU177
 772              	.LBB531:
 773              	.LBI531:
 774              		.loc 2 386 20 view .LVU178
 775              	.LBB532:
 776              		.loc 2 388 22 view .LVU179
 777              		.loc 2 389 33 view .LVU180
 778              		.loc 2 395 3 view .LVU181
 779              		.loc 2 395 3 view .LVU182
 780              		.loc 2 395 3 view .LVU183
 781              		.loc 2 399 3 view .LVU184
 782              	.LBB533:
ARM GAS  /tmp/cc3iDV1G.s 			page 15


 783              	.LBI533:
 784              		.loc 3 618 20 view .LVU185
 785              	.LBE533:
 786              	.LBE532:
 787              	.LBE531:
 788              	.LBE571:
 789              	.LBE584:
 790              		.loc 3 621 3 view .LVU186
 791              	.LBB585:
 792              	.LBB572:
 793              	.LBB538:
 794              	.LBB537:
 795              	.LBB536:
 796              	.LBB534:
 797              	.LBI534:
 798              		.loc 4 262 57 view .LVU187
 799              	.LBB535:
 800              		.loc 4 264 3 view .LVU188
 801              		.syntax unified
 802              	@ 264 "../../../os/common/ext/CMSIS/include/cmsis_gcc.h" 1
 803 0036 84F31188 		MSR basepri, r4
 804              	@ 0 "" 2
 805              	.LVL23:
 806              		.loc 4 264 3 is_stmt 0 view .LVU189
 807              		.thumb
 808              		.syntax unified
 809              	.LBE535:
 810              	.LBE534:
 811              	.LBE536:
 812              	.LBE537:
 813              	.LBE538:
 814              		.loc 1 102 5 is_stmt 1 view .LVU190
 815 003a 80F00100 		eor	r0, r0, #1
 816              	.LVL24:
 817              		.loc 1 102 5 is_stmt 0 view .LVU191
 818 003e 1749     		ldr	r1, .L18+8
 819 0040 C0B2     		uxtb	r0, r0
 820 0042 FFF7FEFF 		bl	_test_assert
 821              	.LVL25:
 822 0046 0446     		mov	r4, r0
 823 0048 0028     		cmp	r0, #0
 824 004a ECD1     		bne	.L12
 825              		.loc 1 102 69 is_stmt 1 view .LVU192
 826              		.loc 1 106 3 view .LVU193
 827 004c 0323     		movs	r3, #3
 828 004e 3360     		str	r3, [r6]
 829              		.loc 1 108 5 view .LVU194
 830              	.LBB539:
 831              	.LBI539:
 832              		.loc 2 374 20 view .LVU195
 833              	.LBE539:
 834              	.LBE572:
 835              	.LBE585:
 836              		.loc 2 376 3 view .LVU196
 837              	.LBB586:
 838              	.LBB573:
 839              	.LBB544:
ARM GAS  /tmp/cc3iDV1G.s 			page 16


 840              	.LBB540:
 841              	.LBI540:
 842              		.loc 3 594 20 view .LVU197
 843              	.LBE540:
 844              	.LBE544:
 845              	.LBE573:
 846              	.LBE586:
 847              		.loc 3 602 3 view .LVU198
 848              	.LVL26:
 849              	.LBB587:
 850              	.LBB574:
 851              	.LBB545:
 852              	.LBB543:
 853              	.LBB541:
 854              	.LBI541:
 855              		.loc 4 262 57 view .LVU199
 856              	.LBB542:
 857              		.loc 4 264 3 view .LVU200
 858              		.syntax unified
 859              	@ 264 "../../../os/common/ext/CMSIS/include/cmsis_gcc.h" 1
 860 0050 85F31188 		MSR basepri, r5
 861              	@ 0 "" 2
 862              	.LVL27:
 863              		.loc 4 264 3 is_stmt 0 view .LVU201
 864              		.thumb
 865              		.syntax unified
 866              	.LBE542:
 867              	.LBE541:
 868              	.LBE543:
 869              	.LBE545:
 870              	.LBE574:
 871              	.LBE587:
 872              		.loc 2 377 34 is_stmt 1 view .LVU202
 873              		.loc 2 378 20 view .LVU203
 874              	.LBB588:
 875              	.LBB575:
 876              		.loc 1 109 5 view .LVU204
 877              		.loc 1 109 14 is_stmt 0 view .LVU205
 878 0054 0420     		movs	r0, #4
 879 0056 FFF7FEFF 		bl	chSysIntegrityCheckI
 880              	.LVL28:
 881              		.loc 1 110 5 is_stmt 1 view .LVU206
 882              	.LBB546:
 883              	.LBI546:
 884              		.loc 2 386 20 view .LVU207
 885              	.LBB547:
 886              		.loc 2 388 22 view .LVU208
 887              		.loc 2 389 33 view .LVU209
 888              		.loc 2 395 3 view .LVU210
 889              		.loc 2 395 3 view .LVU211
 890              		.loc 2 395 3 view .LVU212
 891              		.loc 2 399 3 view .LVU213
 892              	.LBB548:
 893              	.LBI548:
 894              		.loc 3 618 20 view .LVU214
 895              	.LBE548:
 896              	.LBE547:
ARM GAS  /tmp/cc3iDV1G.s 			page 17


 897              	.LBE546:
 898              	.LBE575:
 899              	.LBE588:
 900              		.loc 3 621 3 view .LVU215
 901              	.LBB589:
 902              	.LBB576:
 903              	.LBB553:
 904              	.LBB552:
 905              	.LBB551:
 906              	.LBB549:
 907              	.LBI549:
 908              		.loc 4 262 57 view .LVU216
 909              	.LBB550:
 910              		.loc 4 264 3 view .LVU217
 911              		.syntax unified
 912              	@ 264 "../../../os/common/ext/CMSIS/include/cmsis_gcc.h" 1
 913 005a 84F31188 		MSR basepri, r4
 914              	@ 0 "" 2
 915              	.LVL29:
 916              		.loc 4 264 3 is_stmt 0 view .LVU218
 917              		.thumb
 918              		.syntax unified
 919              	.LBE550:
 920              	.LBE549:
 921              	.LBE551:
 922              	.LBE552:
 923              	.LBE553:
 924              		.loc 1 111 5 is_stmt 1 view .LVU219
 925 005e 80F00100 		eor	r0, r0, #1
 926              	.LVL30:
 927              		.loc 1 111 5 is_stmt 0 view .LVU220
 928 0062 0F49     		ldr	r1, .L18+12
 929 0064 C0B2     		uxtb	r0, r0
 930 0066 FFF7FEFF 		bl	_test_assert
 931              	.LVL31:
 932 006a 0446     		mov	r4, r0
 933 006c 0028     		cmp	r0, #0
 934 006e DAD1     		bne	.L12
 935              		.loc 1 111 63 is_stmt 1 view .LVU221
 936              		.loc 1 115 3 view .LVU222
 937 0070 0423     		movs	r3, #4
 938 0072 3360     		str	r3, [r6]
 939              		.loc 1 117 5 view .LVU223
 940              	.LBB554:
 941              	.LBI554:
 942              		.loc 2 374 20 view .LVU224
 943              	.LBE554:
 944              	.LBE576:
 945              	.LBE589:
 946              		.loc 2 376 3 view .LVU225
 947              	.LBB590:
 948              	.LBB577:
 949              	.LBB559:
 950              	.LBB555:
 951              	.LBI555:
 952              		.loc 3 594 20 view .LVU226
 953              	.LBE555:
ARM GAS  /tmp/cc3iDV1G.s 			page 18


 954              	.LBE559:
 955              	.LBE577:
 956              	.LBE590:
 957              		.loc 3 602 3 view .LVU227
 958              	.LVL32:
 959              	.LBB591:
 960              	.LBB578:
 961              	.LBB560:
 962              	.LBB558:
 963              	.LBB556:
 964              	.LBI556:
 965              		.loc 4 262 57 view .LVU228
 966              	.LBB557:
 967              		.loc 4 264 3 view .LVU229
 968              		.syntax unified
 969              	@ 264 "../../../os/common/ext/CMSIS/include/cmsis_gcc.h" 1
 970 0074 85F31188 		MSR basepri, r5
 971              	@ 0 "" 2
 972              	.LVL33:
 973              		.loc 4 264 3 is_stmt 0 view .LVU230
 974              		.thumb
 975              		.syntax unified
 976              	.LBE557:
 977              	.LBE556:
 978              	.LBE558:
 979              	.LBE560:
 980              	.LBE578:
 981              	.LBE591:
 982              		.loc 2 377 34 is_stmt 1 view .LVU231
 983              		.loc 2 378 20 view .LVU232
 984              	.LBB592:
 985              	.LBB579:
 986              		.loc 1 118 5 view .LVU233
 987              		.loc 1 118 14 is_stmt 0 view .LVU234
 988 0078 0820     		movs	r0, #8
 989 007a FFF7FEFF 		bl	chSysIntegrityCheckI
 990              	.LVL34:
 991              		.loc 1 119 5 is_stmt 1 view .LVU235
 992              	.LBB561:
 993              	.LBI561:
 994              		.loc 2 386 20 view .LVU236
 995              	.LBB562:
 996              		.loc 2 388 22 view .LVU237
 997              		.loc 2 389 33 view .LVU238
 998              		.loc 2 395 3 view .LVU239
 999              		.loc 2 395 3 view .LVU240
 1000              		.loc 2 395 3 view .LVU241
 1001              		.loc 2 399 3 view .LVU242
 1002              	.LBB563:
 1003              	.LBI563:
 1004              		.loc 3 618 20 view .LVU243
 1005              	.LBE563:
 1006              	.LBE562:
 1007              	.LBE561:
 1008              	.LBE579:
 1009              	.LBE592:
 1010              		.loc 3 621 3 view .LVU244
ARM GAS  /tmp/cc3iDV1G.s 			page 19


 1011              	.LBB593:
 1012              	.LBB580:
 1013              	.LBB568:
 1014              	.LBB567:
 1015              	.LBB566:
 1016              	.LBB564:
 1017              	.LBI564:
 1018              		.loc 4 262 57 view .LVU245
 1019              	.LBB565:
 1020              		.loc 4 264 3 view .LVU246
 1021              		.syntax unified
 1022              	@ 264 "../../../os/common/ext/CMSIS/include/cmsis_gcc.h" 1
 1023 007e 84F31188 		MSR basepri, r4
 1024              	@ 0 "" 2
 1025              	.LVL35:
 1026              		.loc 4 264 3 is_stmt 0 view .LVU247
 1027              		.thumb
 1028              		.syntax unified
 1029              	.LBE565:
 1030              	.LBE564:
 1031              	.LBE566:
 1032              	.LBE567:
 1033              	.LBE568:
 1034              		.loc 1 120 5 is_stmt 1 view .LVU248
 1035 0082 80F00100 		eor	r0, r0, #1
 1036              	.LVL36:
 1037              		.loc 1 120 5 is_stmt 0 view .LVU249
 1038              	.LBE580:
 1039              	.LBE593:
 1040              		.loc 1 122 1 view .LVU250
 1041 0086 BDE87040 		pop	{r4, r5, r6, lr}
 1042              		.cfi_restore 14
 1043              		.cfi_restore 6
 1044              		.cfi_restore 5
 1045              		.cfi_restore 4
 1046              		.cfi_def_cfa_offset 0
 1047              	.LBB594:
 1048              	.LBB581:
 1049              		.loc 1 120 5 view .LVU251
 1050 008a 0649     		ldr	r1, .L18+16
 1051 008c C0B2     		uxtb	r0, r0
 1052 008e FFF7FEBF 		b	_test_assert
 1053              	.LVL37:
 1054              	.L19:
 1055 0092 00BF     		.align	2
 1056              	.L18:
 1057 0094 00000000 		.word	test_step
 1058 0098 00000000 		.word	.LC0
 1059 009c 18000000 		.word	.LC1
 1060 00a0 3C000000 		.word	.LC2
 1061 00a4 58000000 		.word	.LC3
 1062              	.LBE581:
 1063              	.LBE594:
 1064              		.cfi_endproc
 1065              	.LFE278:
 1066              		.size	test_001_001_execute, .-test_001_001_execute
 1067              		.section	.rodata.test_001_002_execute.str1.4,"aMS",%progbits,1
ARM GAS  /tmp/cc3iDV1G.s 			page 20


 1068              		.align	2
 1069              	.LC4:
 1070 0000 74696D65 		.ascii	"timer still armed\000"
 1070      72207374 
 1070      696C6C20 
 1070      61726D65 
 1070      6400
 1071              		.section	.text.test_001_002_execute,"ax",%progbits
 1072              		.align	1
 1073              		.p2align 4,,15
 1074              		.syntax unified
 1075              		.thumb
 1076              		.thumb_func
 1077              		.fpu softvfp
 1078              		.type	test_001_002_execute, %function
 1079              	test_001_002_execute:
 1080              	.LFB279:
 1081              		.loc 1 148 40 is_stmt 1 view -0
 1082              		.cfi_startproc
 1083              		@ args = 0, pretend = 0, frame = 24
 1084              		@ frame_needed = 0, uses_anonymous_args = 0
 1085              		.loc 1 149 3 view .LVU253
 1086              		.loc 1 150 3 view .LVU254
 1087              		.loc 1 154 3 view .LVU255
 1088              		.loc 1 148 40 is_stmt 0 view .LVU256
 1089 0000 30B5     		push	{r4, r5, lr}
 1090              		.cfi_def_cfa_offset 12
 1091              		.cfi_offset 4, -12
 1092              		.cfi_offset 5, -8
 1093              		.cfi_offset 14, -4
 1094              		.loc 1 154 3 view .LVU257
 1095 0002 2D4C     		ldr	r4, .L36
 1096 0004 0123     		movs	r3, #1
 1097              		.loc 1 148 40 view .LVU258
 1098 0006 87B0     		sub	sp, sp, #28
 1099              		.cfi_def_cfa_offset 40
 1100              		.loc 1 154 3 view .LVU259
 1101 0008 2360     		str	r3, [r4]
 1102              		.loc 1 156 5 is_stmt 1 view .LVU260
 1103              		.loc 1 156 11 is_stmt 0 view .LVU261
 1104 000a FFF7FEFF 		bl	chSysGetStatusAndLockX
 1105              	.LVL38:
 1106              		.loc 1 157 5 is_stmt 1 view .LVU262
 1107 000e FFF7FEFF 		bl	chSysRestoreStatusX
 1108              	.LVL39:
 1109              		.loc 1 162 3 view .LVU263
 1110 0012 0223     		movs	r3, #2
 1111 0014 2360     		str	r3, [r4]
 1112              		.loc 1 164 5 view .LVU264
 1113              	.LBB689:
 1114              	.LBI689:
 1115              		.loc 2 374 20 view .LVU265
 1116              	.LBE689:
 1117              		.loc 2 376 3 view .LVU266
 1118              	.LBB694:
 1119              	.LBB690:
 1120              	.LBI690:
ARM GAS  /tmp/cc3iDV1G.s 			page 21


 1121              		.loc 3 594 20 view .LVU267
 1122              	.LBE690:
 1123              	.LBE694:
 1124              		.loc 3 602 3 view .LVU268
 1125              	.LVL40:
 1126              	.LBB695:
 1127              	.LBB693:
 1128              	.LBB691:
 1129              	.LBI691:
 1130              		.loc 4 262 57 view .LVU269
 1131              	.LBB692:
 1132              		.loc 4 264 3 view .LVU270
 1133 0016 2025     		movs	r5, #32
 1134              		.syntax unified
 1135              	@ 264 "../../../os/common/ext/CMSIS/include/cmsis_gcc.h" 1
 1136 0018 85F31188 		MSR basepri, r5
 1137              	@ 0 "" 2
 1138              	.LVL41:
 1139              		.loc 4 264 3 is_stmt 0 view .LVU271
 1140              		.thumb
 1141              		.syntax unified
 1142              	.LBE692:
 1143              	.LBE691:
 1144              	.LBE693:
 1145              	.LBE695:
 1146              		.loc 2 377 34 is_stmt 1 view .LVU272
 1147              		.loc 2 378 20 view .LVU273
 1148              		.loc 1 165 5 view .LVU274
 1149              		.loc 1 165 11 is_stmt 0 view .LVU275
 1150 001c FFF7FEFF 		bl	chSysGetStatusAndLockX
 1151              	.LVL42:
 1152              		.loc 1 166 5 is_stmt 1 view .LVU276
 1153 0020 FFF7FEFF 		bl	chSysRestoreStatusX
 1154              	.LVL43:
 1155              		.loc 1 167 5 view .LVU277
 1156              	.LBB696:
 1157              	.LBI696:
 1158              		.loc 2 386 20 view .LVU278
 1159              	.LBB697:
 1160              		.loc 2 388 22 view .LVU279
 1161              		.loc 2 389 33 view .LVU280
 1162              		.loc 2 395 3 view .LVU281
 1163              		.loc 2 395 3 view .LVU282
 1164              		.loc 2 395 3 view .LVU283
 1165              		.loc 2 399 3 view .LVU284
 1166              	.LBB698:
 1167              	.LBI698:
 1168              		.loc 3 618 20 view .LVU285
 1169              	.LBE698:
 1170              	.LBE697:
 1171              	.LBE696:
 1172              		.loc 3 621 3 view .LVU286
 1173              	.LBB703:
 1174              	.LBB702:
 1175              	.LBB701:
 1176              	.LBB699:
 1177              	.LBI699:
ARM GAS  /tmp/cc3iDV1G.s 			page 22


 1178              		.loc 4 262 57 view .LVU287
 1179              	.LBB700:
 1180              		.loc 4 264 3 view .LVU288
 1181 0024 0023     		movs	r3, #0
 1182              		.syntax unified
 1183              	@ 264 "../../../os/common/ext/CMSIS/include/cmsis_gcc.h" 1
 1184 0026 83F31188 		MSR basepri, r3
 1185              	@ 0 "" 2
 1186              	.LVL44:
 1187              		.loc 4 264 3 is_stmt 0 view .LVU289
 1188              		.thumb
 1189              		.syntax unified
 1190              	.LBE700:
 1191              	.LBE699:
 1192              	.LBE701:
 1193              	.LBE702:
 1194              	.LBE703:
 1195              		.loc 1 171 3 is_stmt 1 view .LVU290
 1196 002a 0323     		movs	r3, #3
 1197 002c 2360     		str	r3, [r4]
 1198              		.loc 1 173 5 view .LVU291
 1199              	.LBB704:
 1200              	.LBI704:
 1201              		.loc 2 448 20 view .LVU292
 1202              	.LBB705:
 1203              		.loc 2 450 3 view .LVU293
 1204              	.LBB706:
 1205              	.LBI706:
 1206              		.loc 3 548 24 view .LVU294
 1207              	.LBB707:
 1208              		.loc 3 549 3 view .LVU295
 1209              		.loc 3 552 3 view .LVU296
 1210              	.LBB708:
 1211              	.LBI708:
 1212              		.loc 4 248 61 view .LVU297
 1213              	.LBB709:
 1214              		.loc 4 250 3 view .LVU298
 1215              		.loc 4 252 3 view .LVU299
 1216              		.syntax unified
 1217              	@ 252 "../../../os/common/ext/CMSIS/include/cmsis_gcc.h" 1
 1218 002e EFF31183 		MRS r3, basepri
 1219              	@ 0 "" 2
 1220              	.LVL45:
 1221              		.loc 4 253 3 view .LVU300
 1222              		.loc 4 253 3 is_stmt 0 view .LVU301
 1223              		.thumb
 1224              		.syntax unified
 1225              	.LBE709:
 1226              	.LBE708:
 1227              		.loc 3 556 3 is_stmt 1 view .LVU302
 1228              		.loc 3 556 3 is_stmt 0 view .LVU303
 1229              	.LBE707:
 1230              	.LBE706:
 1231              	.LBE705:
 1232              	.LBE704:
 1233              		.loc 3 571 3 is_stmt 1 view .LVU304
 1234              	.LBB720:
ARM GAS  /tmp/cc3iDV1G.s 			page 23


 1235              	.LBB718:
 1236              		.loc 2 450 6 is_stmt 0 view .LVU305
 1237 0032 0BB9     		cbnz	r3, .L21
 1238              		.loc 2 451 5 is_stmt 1 view .LVU306
 1239              	.LBB710:
 1240              	.LBI710:
 1241              		.loc 2 374 20 view .LVU307
 1242              	.LBB711:
 1243              		.loc 2 376 3 view .LVU308
 1244              	.LBB712:
 1245              	.LBI712:
 1246              		.loc 3 594 20 view .LVU309
 1247              	.LBE712:
 1248              	.LBE711:
 1249              	.LBE710:
 1250              	.LBE718:
 1251              	.LBE720:
 1252              		.loc 3 602 3 view .LVU310
 1253              	.LVL46:
 1254              	.LBB721:
 1255              	.LBB719:
 1256              	.LBB717:
 1257              	.LBB716:
 1258              	.LBB715:
 1259              	.LBB713:
 1260              	.LBI713:
 1261              		.loc 4 262 57 view .LVU311
 1262              	.LBB714:
 1263              		.loc 4 264 3 view .LVU312
 1264              		.syntax unified
 1265              	@ 264 "../../../os/common/ext/CMSIS/include/cmsis_gcc.h" 1
 1266 0034 85F31188 		MSR basepri, r5
 1267              	@ 0 "" 2
 1268              	.LVL47:
 1269              		.loc 4 264 3 is_stmt 0 view .LVU313
 1270              		.thumb
 1271              		.syntax unified
 1272              	.LBE714:
 1273              	.LBE713:
 1274              	.LBE715:
 1275              		.loc 2 377 34 is_stmt 1 view .LVU314
 1276              		.loc 2 378 20 view .LVU315
 1277              	.L21:
 1278              	.LBE716:
 1279              	.LBE717:
 1280              	.LBE719:
 1281              	.LBE721:
 1282              		.loc 1 174 5 view .LVU316
 1283              	.LBB722:
 1284              	.LBI722:
 1285              		.loc 2 448 20 view .LVU317
 1286              	.LBB723:
 1287              		.loc 2 450 3 view .LVU318
 1288              	.LBB724:
 1289              	.LBI724:
 1290              		.loc 3 548 24 view .LVU319
 1291              	.LBB725:
ARM GAS  /tmp/cc3iDV1G.s 			page 24


 1292              		.loc 3 549 3 view .LVU320
 1293              		.loc 3 552 3 view .LVU321
 1294              	.LBB726:
 1295              	.LBI726:
 1296              		.loc 4 248 61 view .LVU322
 1297              	.LBB727:
 1298              		.loc 4 250 3 view .LVU323
 1299              		.loc 4 252 3 view .LVU324
 1300              		.syntax unified
 1301              	@ 252 "../../../os/common/ext/CMSIS/include/cmsis_gcc.h" 1
 1302 0038 EFF31183 		MRS r3, basepri
 1303              	@ 0 "" 2
 1304              	.LVL48:
 1305              		.loc 4 253 3 view .LVU325
 1306              		.loc 4 253 3 is_stmt 0 view .LVU326
 1307              		.thumb
 1308              		.syntax unified
 1309              	.LBE727:
 1310              	.LBE726:
 1311              		.loc 3 556 3 is_stmt 1 view .LVU327
 1312              		.loc 3 556 3 is_stmt 0 view .LVU328
 1313              	.LBE725:
 1314              	.LBE724:
 1315              	.LBE723:
 1316              	.LBE722:
 1317              		.loc 3 571 3 is_stmt 1 view .LVU329
 1318              	.LBB738:
 1319              	.LBB736:
 1320              		.loc 2 450 6 is_stmt 0 view .LVU330
 1321 003c 13B9     		cbnz	r3, .L22
 1322              		.loc 2 451 5 is_stmt 1 view .LVU331
 1323              	.LBB728:
 1324              	.LBI728:
 1325              		.loc 2 374 20 view .LVU332
 1326              	.LBB729:
 1327              		.loc 2 376 3 view .LVU333
 1328              	.LBB730:
 1329              	.LBI730:
 1330              		.loc 3 594 20 view .LVU334
 1331              	.LBE730:
 1332              	.LBE729:
 1333              	.LBE728:
 1334              	.LBE736:
 1335              	.LBE738:
 1336              		.loc 3 602 3 view .LVU335
 1337              	.LVL49:
 1338              	.LBB739:
 1339              	.LBB737:
 1340              	.LBB735:
 1341              	.LBB734:
 1342              	.LBB733:
 1343              	.LBB731:
 1344              	.LBI731:
 1345              		.loc 4 262 57 view .LVU336
 1346              	.LBB732:
 1347              		.loc 4 264 3 view .LVU337
 1348 003e 2023     		movs	r3, #32
ARM GAS  /tmp/cc3iDV1G.s 			page 25


 1349              	.LVL50:
 1350              		.loc 4 264 3 is_stmt 0 view .LVU338
 1351              		.syntax unified
 1352              	@ 264 "../../../os/common/ext/CMSIS/include/cmsis_gcc.h" 1
 1353 0040 83F31188 		MSR basepri, r3
 1354              	@ 0 "" 2
 1355              	.LVL51:
 1356              		.loc 4 264 3 view .LVU339
 1357              		.thumb
 1358              		.syntax unified
 1359              	.LBE732:
 1360              	.LBE731:
 1361              	.LBE733:
 1362              		.loc 2 377 34 is_stmt 1 view .LVU340
 1363              		.loc 2 378 20 view .LVU341
 1364              	.L22:
 1365              	.LBE734:
 1366              	.LBE735:
 1367              	.LBE737:
 1368              	.LBE739:
 1369              		.loc 1 175 5 view .LVU342
 1370              	.LBB740:
 1371              	.LBI740:
 1372              		.loc 2 386 20 view .LVU343
 1373              	.LBB741:
 1374              		.loc 2 388 22 view .LVU344
 1375              		.loc 2 389 33 view .LVU345
 1376              		.loc 2 395 3 view .LVU346
 1377              		.loc 2 395 3 view .LVU347
 1378              		.loc 2 395 3 view .LVU348
 1379              		.loc 2 399 3 view .LVU349
 1380              	.LBB742:
 1381              	.LBI742:
 1382              		.loc 3 618 20 view .LVU350
 1383              	.LBE742:
 1384              	.LBE741:
 1385              	.LBE740:
 1386              		.loc 3 621 3 view .LVU351
 1387              	.LBB747:
 1388              	.LBB746:
 1389              	.LBB745:
 1390              	.LBB743:
 1391              	.LBI743:
 1392              		.loc 4 262 57 view .LVU352
 1393              	.LBB744:
 1394              		.loc 4 264 3 view .LVU353
 1395 0044 0023     		movs	r3, #0
 1396              		.syntax unified
 1397              	@ 264 "../../../os/common/ext/CMSIS/include/cmsis_gcc.h" 1
 1398 0046 83F31188 		MSR basepri, r3
 1399              	@ 0 "" 2
 1400              	.LVL52:
 1401              		.loc 4 264 3 is_stmt 0 view .LVU354
 1402              		.thumb
 1403              		.syntax unified
 1404              	.LBE744:
 1405              	.LBE743:
ARM GAS  /tmp/cc3iDV1G.s 			page 26


 1406              	.LBE745:
 1407              	.LBE746:
 1408              	.LBE747:
 1409              		.loc 1 179 3 is_stmt 1 view .LVU355
 1410 004a 0422     		movs	r2, #4
 1411 004c 2260     		str	r2, [r4]
 1412              		.loc 1 181 5 view .LVU356
 1413              	.LBB748:
 1414              	.LBI748:
 1415              		.loc 2 374 20 view .LVU357
 1416              	.LBE748:
 1417              		.loc 2 376 3 view .LVU358
 1418              	.LBB753:
 1419              	.LBB749:
 1420              	.LBI749:
 1421              		.loc 3 594 20 view .LVU359
 1422              	.LBE749:
 1423              	.LBE753:
 1424              		.loc 3 602 3 view .LVU360
 1425              	.LVL53:
 1426              	.LBB754:
 1427              	.LBB752:
 1428              	.LBB750:
 1429              	.LBI750:
 1430              		.loc 4 262 57 view .LVU361
 1431              	.LBB751:
 1432              		.loc 4 264 3 view .LVU362
 1433 004e 2022     		movs	r2, #32
 1434              		.syntax unified
 1435              	@ 264 "../../../os/common/ext/CMSIS/include/cmsis_gcc.h" 1
 1436 0050 82F31188 		MSR basepri, r2
 1437              	@ 0 "" 2
 1438              	.LVL54:
 1439              		.loc 4 264 3 is_stmt 0 view .LVU363
 1440              		.thumb
 1441              		.syntax unified
 1442              	.LBE751:
 1443              	.LBE750:
 1444              	.LBE752:
 1445              	.LBE754:
 1446              		.loc 2 377 34 is_stmt 1 view .LVU364
 1447              		.loc 2 378 20 view .LVU365
 1448              		.loc 1 182 5 view .LVU366
 1449              	.LBB755:
 1450              	.LBI755:
 1451              		.loc 2 462 20 view .LVU367
 1452              	.LBB756:
 1453              		.loc 2 464 3 view .LVU368
 1454              	.LBB757:
 1455              	.LBI757:
 1456              		.loc 3 548 24 view .LVU369
 1457              	.LBB758:
 1458              		.loc 3 549 3 view .LVU370
 1459              		.loc 3 552 3 view .LVU371
 1460              	.LBB759:
 1461              	.LBI759:
 1462              		.loc 4 248 61 view .LVU372
ARM GAS  /tmp/cc3iDV1G.s 			page 27


 1463              	.LBB760:
 1464              		.loc 4 250 3 view .LVU373
 1465              		.loc 4 252 3 view .LVU374
 1466              		.syntax unified
 1467              	@ 252 "../../../os/common/ext/CMSIS/include/cmsis_gcc.h" 1
 1468 0054 EFF31182 		MRS r2, basepri
 1469              	@ 0 "" 2
 1470              	.LVL55:
 1471              		.loc 4 253 3 view .LVU375
 1472              		.loc 4 253 3 is_stmt 0 view .LVU376
 1473              		.thumb
 1474              		.syntax unified
 1475              	.LBE760:
 1476              	.LBE759:
 1477              		.loc 3 556 3 is_stmt 1 view .LVU377
 1478              		.loc 3 556 3 is_stmt 0 view .LVU378
 1479              	.LBE758:
 1480              	.LBE757:
 1481              	.LBE756:
 1482              	.LBE755:
 1483              		.loc 3 571 3 is_stmt 1 view .LVU379
 1484              	.LBB771:
 1485              	.LBB769:
 1486              		.loc 2 464 6 is_stmt 0 view .LVU380
 1487 0058 0AB1     		cbz	r2, .L23
 1488              		.loc 2 465 5 is_stmt 1 view .LVU381
 1489              	.LBB761:
 1490              	.LBI761:
 1491              		.loc 2 386 20 view .LVU382
 1492              	.LBB762:
 1493              		.loc 2 388 22 view .LVU383
 1494              		.loc 2 389 33 view .LVU384
 1495              		.loc 2 395 3 view .LVU385
 1496              		.loc 2 395 3 view .LVU386
 1497              		.loc 2 395 3 view .LVU387
 1498              		.loc 2 399 3 view .LVU388
 1499              	.LBB763:
 1500              	.LBI763:
 1501              		.loc 3 618 20 view .LVU389
 1502              	.LBE763:
 1503              	.LBE762:
 1504              	.LBE761:
 1505              	.LBE769:
 1506              	.LBE771:
 1507              		.loc 3 621 3 view .LVU390
 1508              	.LVL56:
 1509              	.LBB772:
 1510              	.LBB770:
 1511              	.LBB768:
 1512              	.LBB767:
 1513              	.LBB766:
 1514              	.LBB764:
 1515              	.LBI764:
 1516              		.loc 4 262 57 view .LVU391
 1517              	.LBB765:
 1518              		.loc 4 264 3 view .LVU392
 1519              		.syntax unified
ARM GAS  /tmp/cc3iDV1G.s 			page 28


 1520              	@ 264 "../../../os/common/ext/CMSIS/include/cmsis_gcc.h" 1
 1521 005a 83F31188 		MSR basepri, r3
 1522              	@ 0 "" 2
 1523              	.LVL57:
 1524              		.thumb
 1525              		.syntax unified
 1526              	.L23:
 1527              		.loc 4 264 3 is_stmt 0 view .LVU393
 1528              	.LBE765:
 1529              	.LBE764:
 1530              	.LBE766:
 1531              	.LBE767:
 1532              	.LBE768:
 1533              	.LBE770:
 1534              	.LBE772:
 1535              		.loc 1 183 5 is_stmt 1 view .LVU394
 1536              	.LBB773:
 1537              	.LBI773:
 1538              		.loc 2 462 20 view .LVU395
 1539              	.LBB774:
 1540              		.loc 2 464 3 view .LVU396
 1541              	.LBB775:
 1542              	.LBI775:
 1543              		.loc 3 548 24 view .LVU397
 1544              	.LBB776:
 1545              		.loc 3 549 3 view .LVU398
 1546              		.loc 3 552 3 view .LVU399
 1547              	.LBB777:
 1548              	.LBI777:
 1549              		.loc 4 248 61 view .LVU400
 1550              	.LBB778:
 1551              		.loc 4 250 3 view .LVU401
 1552              		.loc 4 252 3 view .LVU402
 1553              		.syntax unified
 1554              	@ 252 "../../../os/common/ext/CMSIS/include/cmsis_gcc.h" 1
 1555 005e EFF31183 		MRS r3, basepri
 1556              	@ 0 "" 2
 1557              	.LVL58:
 1558              		.loc 4 253 3 view .LVU403
 1559              		.loc 4 253 3 is_stmt 0 view .LVU404
 1560              		.thumb
 1561              		.syntax unified
 1562              	.LBE778:
 1563              	.LBE777:
 1564              		.loc 3 556 3 is_stmt 1 view .LVU405
 1565              		.loc 3 556 3 is_stmt 0 view .LVU406
 1566              	.LBE776:
 1567              	.LBE775:
 1568              	.LBE774:
 1569              	.LBE773:
 1570              		.loc 3 571 3 is_stmt 1 view .LVU407
 1571              	.LBB789:
 1572              	.LBB787:
 1573              		.loc 2 464 6 is_stmt 0 view .LVU408
 1574 0062 13B1     		cbz	r3, .L24
 1575              		.loc 2 465 5 is_stmt 1 view .LVU409
 1576              	.LBB779:
ARM GAS  /tmp/cc3iDV1G.s 			page 29


 1577              	.LBI779:
 1578              		.loc 2 386 20 view .LVU410
 1579              	.LBB780:
 1580              		.loc 2 388 22 view .LVU411
 1581              		.loc 2 389 33 view .LVU412
 1582              		.loc 2 395 3 view .LVU413
 1583              		.loc 2 395 3 view .LVU414
 1584              		.loc 2 395 3 view .LVU415
 1585              		.loc 2 399 3 view .LVU416
 1586              	.LBB781:
 1587              	.LBI781:
 1588              		.loc 3 618 20 view .LVU417
 1589              	.LBE781:
 1590              	.LBE780:
 1591              	.LBE779:
 1592              	.LBE787:
 1593              	.LBE789:
 1594              		.loc 3 621 3 view .LVU418
 1595              	.LVL59:
 1596              	.LBB790:
 1597              	.LBB788:
 1598              	.LBB786:
 1599              	.LBB785:
 1600              	.LBB784:
 1601              	.LBB782:
 1602              	.LBI782:
 1603              		.loc 4 262 57 view .LVU419
 1604              	.LBB783:
 1605              		.loc 4 264 3 view .LVU420
 1606 0064 0023     		movs	r3, #0
 1607              	.LVL60:
 1608              		.loc 4 264 3 is_stmt 0 view .LVU421
 1609              		.syntax unified
 1610              	@ 264 "../../../os/common/ext/CMSIS/include/cmsis_gcc.h" 1
 1611 0066 83F31188 		MSR basepri, r3
 1612              	@ 0 "" 2
 1613              	.LVL61:
 1614              		.thumb
 1615              		.syntax unified
 1616              	.L24:
 1617              		.loc 4 264 3 view .LVU422
 1618              	.LBE783:
 1619              	.LBE782:
 1620              	.LBE784:
 1621              	.LBE785:
 1622              	.LBE786:
 1623              	.LBE788:
 1624              	.LBE790:
 1625              		.loc 1 187 3 is_stmt 1 view .LVU423
 1626 006a 0522     		movs	r2, #5
 1627              	.LVL62:
 1628              	.LBB791:
 1629              	.LBB792:
 1630              		.loc 6 376 13 is_stmt 0 view .LVU424
 1631 006c 0023     		movs	r3, #0
 1632 006e 0493     		str	r3, [sp, #16]
 1633              	.LBE792:
ARM GAS  /tmp/cc3iDV1G.s 			page 30


 1634              	.LBE791:
 1635              		.loc 1 187 3 view .LVU425
 1636 0070 2260     		str	r2, [r4]
 1637              		.loc 1 189 5 is_stmt 1 view .LVU426
 1638              	.LVL63:
 1639              	.LBB794:
 1640              	.LBI791:
 1641              		.loc 6 374 20 view .LVU427
 1642              	.LBB793:
 1643              		.loc 6 376 3 view .LVU428
 1644              		.loc 6 376 3 is_stmt 0 view .LVU429
 1645              	.LBE793:
 1646              	.LBE794:
 1647              		.loc 1 190 5 is_stmt 1 view .LVU430
 1648              	.LBB795:
 1649              	.LBI795:
 1650              		.loc 6 649 20 view .LVU431
 1651              	.LBE795:
 1652              		.loc 6 652 3 view .LVU432
 1653              	.LBB817:
 1654              	.LBB796:
 1655              	.LBI796:
 1656              		.loc 2 374 20 view .LVU433
 1657              	.LBE796:
 1658              	.LBE817:
 1659              		.loc 2 376 3 view .LVU434
 1660              	.LBB818:
 1661              	.LBB801:
 1662              	.LBB797:
 1663              	.LBI797:
 1664              		.loc 3 594 20 view .LVU435
 1665              	.LBE797:
 1666              	.LBE801:
 1667              	.LBE818:
 1668              		.loc 3 602 3 view .LVU436
 1669              	.LBB819:
 1670              	.LBB802:
 1671              	.LBB800:
 1672              	.LBB798:
 1673              	.LBI798:
 1674              		.loc 4 262 57 view .LVU437
 1675              	.LBB799:
 1676              		.loc 4 264 3 view .LVU438
 1677 0072 2023     		movs	r3, #32
 1678              		.syntax unified
 1679              	@ 264 "../../../os/common/ext/CMSIS/include/cmsis_gcc.h" 1
 1680 0074 83F31188 		MSR basepri, r3
 1681              	@ 0 "" 2
 1682              	.LVL64:
 1683              		.loc 4 264 3 is_stmt 0 view .LVU439
 1684              		.thumb
 1685              		.syntax unified
 1686              	.LBE799:
 1687              	.LBE798:
 1688              	.LBE800:
 1689              	.LBE802:
 1690              	.LBE819:
ARM GAS  /tmp/cc3iDV1G.s 			page 31


 1691              		.loc 2 377 34 is_stmt 1 view .LVU440
 1692              		.loc 2 378 20 view .LVU441
 1693              		.loc 6 653 3 view .LVU442
 1694              	.LBB820:
 1695              	.LBB803:
 1696              	.LBI803:
 1697              		.loc 6 620 20 view .LVU443
 1698              	.LBB804:
 1699              		.loc 6 623 3 view .LVU444
 1700              	.LBB805:
 1701              	.LBI805:
 1702              		.loc 6 574 20 view .LVU445
 1703              	.LBB806:
 1704              		.loc 6 576 3 view .LVU446
 1705              	.LBB807:
 1706              	.LBI807:
 1707              		.loc 6 537 20 view .LVU447
 1708              	.LBB808:
 1709              		.loc 6 539 21 view .LVU448
 1710              		.loc 6 541 3 view .LVU449
 1711              		.loc 6 541 3 is_stmt 0 view .LVU450
 1712              	.LBE808:
 1713              	.LBE807:
 1714              		.loc 6 576 6 view .LVU451
 1715 0078 049B     		ldr	r3, [sp, #16]
 1716              		.loc 6 577 5 view .LVU452
 1717 007a 01AC     		add	r4, sp, #4
 1718              	.LVL65:
 1719              		.loc 6 576 6 view .LVU453
 1720 007c 13B1     		cbz	r3, .L25
 1721              		.loc 6 577 5 is_stmt 1 view .LVU454
 1722 007e 2046     		mov	r0, r4
 1723 0080 FFF7FEFF 		bl	chVTDoResetI
 1724              	.LVL66:
 1725              	.L25:
 1726              		.loc 6 577 5 is_stmt 0 view .LVU455
 1727              	.LBE806:
 1728              	.LBE805:
 1729              		.loc 6 624 3 is_stmt 1 view .LVU456
 1730 0084 2046     		mov	r0, r4
 1731 0086 0D4A     		ldr	r2, .L36+4
 1732 0088 0023     		movs	r3, #0
 1733 008a 0121     		movs	r1, #1
 1734 008c FFF7FEFF 		bl	chVTDoSetI
 1735              	.LVL67:
 1736              		.loc 6 624 3 is_stmt 0 view .LVU457
 1737              	.LBE804:
 1738              	.LBE803:
 1739              	.LBE820:
 1740              		.loc 6 654 3 is_stmt 1 view .LVU458
 1741              	.LBB821:
 1742              	.LBB809:
 1743              	.LBI809:
 1744              		.loc 2 386 20 view .LVU459
 1745              	.LBB810:
 1746              		.loc 2 388 22 view .LVU460
 1747              		.loc 2 389 33 view .LVU461
ARM GAS  /tmp/cc3iDV1G.s 			page 32


 1748              		.loc 2 395 3 view .LVU462
 1749              		.loc 2 395 3 view .LVU463
 1750              		.loc 2 395 3 view .LVU464
 1751              		.loc 2 399 3 view .LVU465
 1752              	.LBB811:
 1753              	.LBI811:
 1754              		.loc 3 618 20 view .LVU466
 1755              	.LBE811:
 1756              	.LBE810:
 1757              	.LBE809:
 1758              	.LBE821:
 1759              		.loc 3 621 3 view .LVU467
 1760              	.LBB822:
 1761              	.LBB816:
 1762              	.LBB815:
 1763              	.LBB814:
 1764              	.LBB812:
 1765              	.LBI812:
 1766              		.loc 4 262 57 view .LVU468
 1767              	.LBB813:
 1768              		.loc 4 264 3 view .LVU469
 1769 0090 0024     		movs	r4, #0
 1770              	.LVL68:
 1771              		.loc 4 264 3 is_stmt 0 view .LVU470
 1772              		.syntax unified
 1773              	@ 264 "../../../os/common/ext/CMSIS/include/cmsis_gcc.h" 1
 1774 0092 84F31188 		MSR basepri, r4
 1775              	@ 0 "" 2
 1776              	.LVL69:
 1777              		.loc 4 264 3 view .LVU471
 1778              		.thumb
 1779              		.syntax unified
 1780              	.LBE813:
 1781              	.LBE812:
 1782              	.LBE814:
 1783              	.LBE815:
 1784              	.LBE816:
 1785              	.LBE822:
 1786              		.loc 1 191 5 is_stmt 1 view .LVU472
 1787 0096 0A20     		movs	r0, #10
 1788 0098 FFF7FEFF 		bl	chThdSleep
 1789              	.LVL70:
 1790              		.loc 1 193 5 view .LVU473
 1791              	.LBB823:
 1792              	.LBI823:
 1793              		.loc 6 554 20 view .LVU474
 1794              	.LBB824:
 1795              		.loc 6 555 3 view .LVU475
 1796              		.loc 6 557 3 view .LVU476
 1797              	.LBB825:
 1798              	.LBI825:
 1799              		.loc 2 374 20 view .LVU477
 1800              	.LBE825:
 1801              	.LBE824:
 1802              	.LBE823:
 1803              		.loc 2 376 3 view .LVU478
 1804              	.LBB846:
ARM GAS  /tmp/cc3iDV1G.s 			page 33


 1805              	.LBB842:
 1806              	.LBB830:
 1807              	.LBB826:
 1808              	.LBI826:
 1809              		.loc 3 594 20 view .LVU479
 1810              	.LBE826:
 1811              	.LBE830:
 1812              	.LBE842:
 1813              	.LBE846:
 1814              		.loc 3 602 3 view .LVU480
 1815              	.LBB847:
 1816              	.LBB843:
 1817              	.LBB831:
 1818              	.LBB829:
 1819              	.LBB827:
 1820              	.LBI827:
 1821              		.loc 4 262 57 view .LVU481
 1822              	.LBB828:
 1823              		.loc 4 264 3 view .LVU482
 1824 009c 2023     		movs	r3, #32
 1825              		.syntax unified
 1826              	@ 264 "../../../os/common/ext/CMSIS/include/cmsis_gcc.h" 1
 1827 009e 83F31188 		MSR basepri, r3
 1828              	@ 0 "" 2
 1829              	.LVL71:
 1830              		.loc 4 264 3 is_stmt 0 view .LVU483
 1831              		.thumb
 1832              		.syntax unified
 1833              	.LBE828:
 1834              	.LBE827:
 1835              	.LBE829:
 1836              	.LBE831:
 1837              	.LBE843:
 1838              	.LBE847:
 1839              		.loc 2 377 34 is_stmt 1 view .LVU484
 1840              		.loc 2 378 20 view .LVU485
 1841              	.LBB848:
 1842              	.LBB844:
 1843              		.loc 6 558 3 view .LVU486
 1844              	.LBB832:
 1845              	.LBI832:
 1846              		.loc 6 537 20 view .LVU487
 1847              	.LBB833:
 1848              		.loc 6 539 21 view .LVU488
 1849              		.loc 6 541 3 view .LVU489
 1850              		.loc 6 541 20 is_stmt 0 view .LVU490
 1851 00a2 0498     		ldr	r0, [sp, #16]
 1852              	.LVL72:
 1853              		.loc 6 541 20 view .LVU491
 1854              	.LBE833:
 1855              	.LBE832:
 1856              		.loc 6 559 3 is_stmt 1 view .LVU492
 1857              	.LBB834:
 1858              	.LBI834:
 1859              		.loc 2 386 20 view .LVU493
 1860              	.LBB835:
 1861              		.loc 2 388 22 view .LVU494
ARM GAS  /tmp/cc3iDV1G.s 			page 34


 1862              		.loc 2 389 33 view .LVU495
 1863              		.loc 2 395 3 view .LVU496
 1864              		.loc 2 395 3 view .LVU497
 1865              		.loc 2 395 3 view .LVU498
 1866              		.loc 2 399 3 view .LVU499
 1867              	.LBB836:
 1868              	.LBI836:
 1869              		.loc 3 618 20 view .LVU500
 1870              	.LBE836:
 1871              	.LBE835:
 1872              	.LBE834:
 1873              	.LBE844:
 1874              	.LBE848:
 1875              		.loc 3 621 3 view .LVU501
 1876              	.LBB849:
 1877              	.LBB845:
 1878              	.LBB841:
 1879              	.LBB840:
 1880              	.LBB839:
 1881              	.LBB837:
 1882              	.LBI837:
 1883              		.loc 4 262 57 view .LVU502
 1884              	.LBB838:
 1885              		.loc 4 264 3 view .LVU503
 1886              		.syntax unified
 1887              	@ 264 "../../../os/common/ext/CMSIS/include/cmsis_gcc.h" 1
 1888 00a4 84F31188 		MSR basepri, r4
 1889              	@ 0 "" 2
 1890              	.LVL73:
 1891              		.loc 4 264 3 is_stmt 0 view .LVU504
 1892              		.thumb
 1893              		.syntax unified
 1894              	.LBE838:
 1895              	.LBE837:
 1896              	.LBE839:
 1897              	.LBE840:
 1898              	.LBE841:
 1899              		.loc 6 561 3 is_stmt 1 view .LVU505
 1900              		.loc 6 561 3 is_stmt 0 view .LVU506
 1901              	.LBE845:
 1902              	.LBE849:
 1903              		.loc 1 193 5 view .LVU507
 1904 00a8 B0FA80F0 		clz	r0, r0
 1905              	.LVL74:
 1906              		.loc 1 193 5 view .LVU508
 1907 00ac 0449     		ldr	r1, .L36+8
 1908 00ae 4009     		lsrs	r0, r0, #5
 1909 00b0 FFF7FEFF 		bl	_test_assert
 1910              	.LVL75:
 1911              		.loc 1 193 5 is_stmt 1 view .LVU509
 1912              		.loc 1 195 1 is_stmt 0 view .LVU510
 1913 00b4 07B0     		add	sp, sp, #28
 1914              		.cfi_def_cfa_offset 12
 1915              		@ sp needed
 1916 00b6 30BD     		pop	{r4, r5, pc}
 1917              	.L37:
 1918              		.align	2
ARM GAS  /tmp/cc3iDV1G.s 			page 35


 1919              	.L36:
 1920 00b8 00000000 		.word	test_step
 1921 00bc 00000000 		.word	vtcb
 1922 00c0 00000000 		.word	.LC4
 1923              		.cfi_endproc
 1924              	.LFE279:
 1925              		.size	test_001_002_execute, .-test_001_002_execute
 1926              		.global	test_sequence_001
 1927              		.section	.rodata.str1.4,"aMS",%progbits,1
 1928              		.align	2
 1929              	.LC5:
 1930 0000 53797374 		.ascii	"System Tick Counter functionality\000"
 1930      656D2054 
 1930      69636B20 
 1930      436F756E 
 1930      74657220 
 1931 0022 0000     		.align	2
 1932              	.LC6:
 1933 0024 496E7465 		.ascii	"Interrupts handling functionality\000"
 1933      72727570 
 1933      74732068 
 1933      616E646C 
 1933      696E6720 
 1934 0046 0000     		.align	2
 1935              	.LC7:
 1936 0048 43726974 		.ascii	"Critical zones functionality\000"
 1936      6963616C 
 1936      207A6F6E 
 1936      65732066 
 1936      756E6374 
 1937 0065 000000   		.align	2
 1938              	.LC8:
 1939 0068 53797374 		.ascii	"System integrity functionality\000"
 1939      656D2069 
 1939      6E746567 
 1939      72697479 
 1939      2066756E 
 1940              		.section	.rodata.test_001_001,"a"
 1941              		.align	2
 1942              		.type	test_001_001, %object
 1943              		.size	test_001_001, 16
 1944              	test_001_001:
 1945 0000 68000000 		.word	.LC8
 1946 0004 00000000 		.word	0
 1947 0008 00000000 		.word	0
 1948 000c 00000000 		.word	test_001_001_execute
 1949              		.section	.rodata.test_001_002,"a"
 1950              		.align	2
 1951              		.type	test_001_002, %object
 1952              		.size	test_001_002, 16
 1953              	test_001_002:
 1954 0000 48000000 		.word	.LC7
 1955 0004 00000000 		.word	0
 1956 0008 00000000 		.word	0
 1957 000c 00000000 		.word	test_001_002_execute
 1958              		.section	.rodata.test_001_003,"a"
 1959              		.align	2
ARM GAS  /tmp/cc3iDV1G.s 			page 36


 1960              		.type	test_001_003, %object
 1961              		.size	test_001_003, 16
 1962              	test_001_003:
 1963 0000 24000000 		.word	.LC6
 1964 0004 00000000 		.word	0
 1965 0008 00000000 		.word	0
 1966 000c 00000000 		.word	test_001_003_execute
 1967              		.section	.rodata.test_001_004,"a"
 1968              		.align	2
 1969              		.type	test_001_004, %object
 1970              		.size	test_001_004, 16
 1971              	test_001_004:
 1972 0000 00000000 		.word	.LC5
 1973 0004 00000000 		.word	0
 1974 0008 00000000 		.word	0
 1975 000c 00000000 		.word	test_001_004_execute
 1976              		.section	.rodata.test_sequence_001,"a"
 1977              		.align	2
 1978              		.type	test_sequence_001, %object
 1979              		.size	test_sequence_001, 20
 1980              	test_sequence_001:
 1981 0000 00000000 		.word	test_001_001
 1982 0004 00000000 		.word	test_001_002
 1983 0008 00000000 		.word	test_001_003
 1984 000c 00000000 		.word	test_001_004
 1985 0010 00000000 		.word	0
 1986              		.text
 1987              	.Letext0:
 1988              		.file 8 "/usr/lib/gcc/arm-none-eabi/10.3.1/include/stddef.h"
 1989              		.file 9 "/usr/lib/gcc/arm-none-eabi/10.3.1/include/stdint.h"
 1990              		.file 10 "../../../os/common/ports/ARMCMx/compilers/GCC/chtypes.h"
 1991              		.file 11 "../../../os/rt/include/chsystypes.h"
 1992              		.file 12 "../../../os/rt/include/chschd.h"
 1993              		.file 13 "../../../os/common/ports/ARMCMx/chcore.h"
 1994              		.file 14 "../../../os/hal/ports/STM32/LLD/TIMv1/stm32_tim.h"
 1995              		.file 15 "../../../os/rt/include/chsem.h"
 1996              		.file 16 "../../../os/rt/include/chmtx.h"
 1997              		.file 17 "../../../test/lib/ch_test.h"
 1998              		.file 18 "../../../test/rt/source/test/test_sequence_001.h"
 1999              		.file 19 "../../../os/rt/include/chthreads.h"