   1               		.file	"chsem.c"
   2               	__SP_H__ = 0x3e
   3               	__SP_L__ = 0x3d
   4               	__SREG__ = 0x3f
   5               	__RAMPZ__ = 0x3b
   6               	__tmp_reg__ = 0
   7               	__zero_reg__ = 1
   8               		.text
   9               	.Ltext0:
  10               		.cfi_sections	.debug_frame
  11               		.section	.text.chSemObjectInit,"ax",@progbits
  12               	.global	chSemObjectInit
  14               	chSemObjectInit:
  15               	.LFB113:
  16               		.file 1 "../../../os/rt/src/chsem.c"
   1:../../../os/rt/src/chsem.c **** /*
   2:../../../os/rt/src/chsem.c ****     ChibiOS - Copyright (C) 2006..2016 Giovanni Di Sirio.
   3:../../../os/rt/src/chsem.c **** 
   4:../../../os/rt/src/chsem.c ****     This file is part of ChibiOS.
   5:../../../os/rt/src/chsem.c **** 
   6:../../../os/rt/src/chsem.c ****     ChibiOS is free software; you can redistribute it and/or modify
   7:../../../os/rt/src/chsem.c ****     it under the terms of the GNU General Public License as published by
   8:../../../os/rt/src/chsem.c ****     the Free Software Foundation; either version 3 of the License, or
   9:../../../os/rt/src/chsem.c ****     (at your option) any later version.
  10:../../../os/rt/src/chsem.c **** 
  11:../../../os/rt/src/chsem.c ****     ChibiOS is distributed in the hope that it will be useful,
  12:../../../os/rt/src/chsem.c ****     but WITHOUT ANY WARRANTY; without even the implied warranty of
  13:../../../os/rt/src/chsem.c ****     MERCHANTABILITY or FITNESS FOR A PARTICULAR PURPOSE.  See the
  14:../../../os/rt/src/chsem.c ****     GNU General Public License for more details.
  15:../../../os/rt/src/chsem.c **** 
  16:../../../os/rt/src/chsem.c ****     You should have received a copy of the GNU General Public License
  17:../../../os/rt/src/chsem.c ****     along with this program.  If not, see <http://www.gnu.org/licenses/>.
  18:../../../os/rt/src/chsem.c **** */
  19:../../../os/rt/src/chsem.c **** 
  20:../../../os/rt/src/chsem.c **** /**
  21:../../../os/rt/src/chsem.c ****  * @file    chsem.c
  22:../../../os/rt/src/chsem.c ****  * @brief   Semaphores code.
  23:../../../os/rt/src/chsem.c ****  *
  24:../../../os/rt/src/chsem.c ****  * @addtogroup semaphores
  25:../../../os/rt/src/chsem.c ****  * @details Semaphores related APIs and services.
  26:../../../os/rt/src/chsem.c ****  *          <h2>Operation mode</h2>
  27:../../../os/rt/src/chsem.c ****  *          Semaphores are a flexible synchronization primitive, ChibiOS/RT
  28:../../../os/rt/src/chsem.c ****  *          implements semaphores in their "counting semaphores" variant as
  29:../../../os/rt/src/chsem.c ****  *          defined by Edsger Dijkstra plus several enhancements like:
  30:../../../os/rt/src/chsem.c ****  *          - Wait operation with timeout.
  31:../../../os/rt/src/chsem.c ****  *          - Reset operation.
  32:../../../os/rt/src/chsem.c ****  *          - Atomic wait+signal operation.
  33:../../../os/rt/src/chsem.c ****  *          - Return message from the wait operation (OK, RESET, TIMEOUT).
  34:../../../os/rt/src/chsem.c ****  *          .
  35:../../../os/rt/src/chsem.c ****  *          The binary semaphores variant can be easily implemented using
  36:../../../os/rt/src/chsem.c ****  *          counting semaphores.<br>
  37:../../../os/rt/src/chsem.c ****  *          Operations defined for semaphores:
  38:../../../os/rt/src/chsem.c ****  *          - <b>Signal</b>: The semaphore counter is increased and if the
  39:../../../os/rt/src/chsem.c ****  *            result is non-positive then a waiting thread is removed from
  40:../../../os/rt/src/chsem.c ****  *            the semaphore queue and made ready for execution.
  41:../../../os/rt/src/chsem.c ****  *          - <b>Wait</b>: The semaphore counter is decreased and if the result
  42:../../../os/rt/src/chsem.c ****  *            becomes negative the thread is queued in the semaphore and
  43:../../../os/rt/src/chsem.c ****  *            suspended.
  44:../../../os/rt/src/chsem.c ****  *          - <b>Reset</b>: The semaphore counter is reset to a non-negative
  45:../../../os/rt/src/chsem.c ****  *            value and all the threads in the queue are released.
  46:../../../os/rt/src/chsem.c ****  *          .
  47:../../../os/rt/src/chsem.c ****  *          Semaphores can be used as guards for mutual exclusion zones
  48:../../../os/rt/src/chsem.c ****  *          (note that mutexes are recommended for this kind of use) but
  49:../../../os/rt/src/chsem.c ****  *          also have other uses, queues guards and counters for example.<br>
  50:../../../os/rt/src/chsem.c ****  *          Semaphores usually use a FIFO queuing strategy but it is possible
  51:../../../os/rt/src/chsem.c ****  *          to make them order threads by priority by enabling
  52:../../../os/rt/src/chsem.c ****  *          @p CH_CFG_USE_SEMAPHORES_PRIORITY in @p chconf.h.
  53:../../../os/rt/src/chsem.c ****  * @pre     In order to use the semaphore APIs the @p CH_CFG_USE_SEMAPHORES
  54:../../../os/rt/src/chsem.c ****  *          option must be enabled in @p chconf.h.
  55:../../../os/rt/src/chsem.c ****  * @{
  56:../../../os/rt/src/chsem.c ****  */
  57:../../../os/rt/src/chsem.c **** 
  58:../../../os/rt/src/chsem.c **** #include "ch.h"
  59:../../../os/rt/src/chsem.c **** 
  60:../../../os/rt/src/chsem.c **** #if (CH_CFG_USE_SEMAPHORES == TRUE) || defined(__DOXYGEN__)
  61:../../../os/rt/src/chsem.c **** 
  62:../../../os/rt/src/chsem.c **** /*===========================================================================*/
  63:../../../os/rt/src/chsem.c **** /* Module exported variables.                                                */
  64:../../../os/rt/src/chsem.c **** /*===========================================================================*/
  65:../../../os/rt/src/chsem.c **** 
  66:../../../os/rt/src/chsem.c **** /*===========================================================================*/
  67:../../../os/rt/src/chsem.c **** /* Module local types.                                                       */
  68:../../../os/rt/src/chsem.c **** /*===========================================================================*/
  69:../../../os/rt/src/chsem.c **** 
  70:../../../os/rt/src/chsem.c **** /*===========================================================================*/
  71:../../../os/rt/src/chsem.c **** /* Module local variables.                                                   */
  72:../../../os/rt/src/chsem.c **** /*===========================================================================*/
  73:../../../os/rt/src/chsem.c **** 
  74:../../../os/rt/src/chsem.c **** /*===========================================================================*/
  75:../../../os/rt/src/chsem.c **** /* Module local functions.                                                   */
  76:../../../os/rt/src/chsem.c **** /*===========================================================================*/
  77:../../../os/rt/src/chsem.c **** 
  78:../../../os/rt/src/chsem.c **** #if CH_CFG_USE_SEMAPHORES_PRIORITY == TRUE
  79:../../../os/rt/src/chsem.c **** #define sem_insert(tp, qp) queue_prio_insert(tp, qp)
  80:../../../os/rt/src/chsem.c **** #else
  81:../../../os/rt/src/chsem.c **** #define sem_insert(tp, qp) queue_insert(tp, qp)
  82:../../../os/rt/src/chsem.c **** #endif
  83:../../../os/rt/src/chsem.c **** 
  84:../../../os/rt/src/chsem.c **** /*===========================================================================*/
  85:../../../os/rt/src/chsem.c **** /* Module exported functions.                                                */
  86:../../../os/rt/src/chsem.c **** /*===========================================================================*/
  87:../../../os/rt/src/chsem.c **** 
  88:../../../os/rt/src/chsem.c **** /**
  89:../../../os/rt/src/chsem.c ****  * @brief   Initializes a semaphore with the specified counter value.
  90:../../../os/rt/src/chsem.c ****  *
  91:../../../os/rt/src/chsem.c ****  * @param[out] sp       pointer to a @p semaphore_t structure
  92:../../../os/rt/src/chsem.c ****  * @param[in] n         initial value of the semaphore counter. Must be
  93:../../../os/rt/src/chsem.c ****  *                      non-negative.
  94:../../../os/rt/src/chsem.c ****  *
  95:../../../os/rt/src/chsem.c ****  * @init
  96:../../../os/rt/src/chsem.c ****  */
  97:../../../os/rt/src/chsem.c **** void chSemObjectInit(semaphore_t *sp, cnt_t n) {
  17               		.loc 1 97 0
  18               		.cfi_startproc
  19               	.LVL0:
  20               	/* prologue: function */
  21               	/* frame size = 0 */
  22               	/* stack size = 0 */
  23               	.L__stack_usage = 0
  24 0000 FC01      		movw r30,r24
  25               	.LVL1:
  26               	.LBB74:
  27               	.LBB75:
  28               		.file 2 "../../../os/rt/include/chschd.h"
   1:../../../os/rt/include/chschd.h **** /*
   2:../../../os/rt/include/chschd.h ****     ChibiOS - Copyright (C) 2006..2016 Giovanni Di Sirio.
   3:../../../os/rt/include/chschd.h **** 
   4:../../../os/rt/include/chschd.h ****     This file is part of ChibiOS.
   5:../../../os/rt/include/chschd.h **** 
   6:../../../os/rt/include/chschd.h ****     ChibiOS is free software; you can redistribute it and/or modify
   7:../../../os/rt/include/chschd.h ****     it under the terms of the GNU General Public License as published by
   8:../../../os/rt/include/chschd.h ****     the Free Software Foundation; either version 3 of the License, or
   9:../../../os/rt/include/chschd.h ****     (at your option) any later version.
  10:../../../os/rt/include/chschd.h **** 
  11:../../../os/rt/include/chschd.h ****     ChibiOS is distributed in the hope that it will be useful,
  12:../../../os/rt/include/chschd.h ****     but WITHOUT ANY WARRANTY; without even the implied warranty of
  13:../../../os/rt/include/chschd.h ****     MERCHANTABILITY or FITNESS FOR A PARTICULAR PURPOSE.  See the
  14:../../../os/rt/include/chschd.h ****     GNU General Public License for more details.
  15:../../../os/rt/include/chschd.h **** 
  16:../../../os/rt/include/chschd.h ****     You should have received a copy of the GNU General Public License
  17:../../../os/rt/include/chschd.h ****     along with this program.  If not, see <http://www.gnu.org/licenses/>.
  18:../../../os/rt/include/chschd.h **** */
  19:../../../os/rt/include/chschd.h **** 
  20:../../../os/rt/include/chschd.h **** /**
  21:../../../os/rt/include/chschd.h ****  * @file    chschd.h
  22:../../../os/rt/include/chschd.h ****  * @brief   Scheduler macros and structures.
  23:../../../os/rt/include/chschd.h ****  *
  24:../../../os/rt/include/chschd.h ****  * @addtogroup scheduler
  25:../../../os/rt/include/chschd.h ****  * @{
  26:../../../os/rt/include/chschd.h ****  */
  27:../../../os/rt/include/chschd.h **** 
  28:../../../os/rt/include/chschd.h **** #ifndef CHSCHD_H
  29:../../../os/rt/include/chschd.h **** #define CHSCHD_H
  30:../../../os/rt/include/chschd.h **** 
  31:../../../os/rt/include/chschd.h **** /*===========================================================================*/
  32:../../../os/rt/include/chschd.h **** /* Module constants.                                                         */
  33:../../../os/rt/include/chschd.h **** /*===========================================================================*/
  34:../../../os/rt/include/chschd.h **** 
  35:../../../os/rt/include/chschd.h **** /**
  36:../../../os/rt/include/chschd.h ****  * @name    Wakeup status codes
  37:../../../os/rt/include/chschd.h ****  * @{
  38:../../../os/rt/include/chschd.h ****  */
  39:../../../os/rt/include/chschd.h **** #define MSG_OK              (msg_t)0    /**< @brief Normal wakeup message.  */
  40:../../../os/rt/include/chschd.h **** #define MSG_TIMEOUT         (msg_t)-1   /**< @brief Wakeup caused by a timeout
  41:../../../os/rt/include/chschd.h ****                                              condition.                     */
  42:../../../os/rt/include/chschd.h **** #define MSG_RESET           (msg_t)-2   /**< @brief Wakeup caused by a reset
  43:../../../os/rt/include/chschd.h ****                                              condition.                     */
  44:../../../os/rt/include/chschd.h **** /** @} */
  45:../../../os/rt/include/chschd.h **** 
  46:../../../os/rt/include/chschd.h **** /**
  47:../../../os/rt/include/chschd.h ****  * @name    Priority constants
  48:../../../os/rt/include/chschd.h ****  * @{
  49:../../../os/rt/include/chschd.h ****  */
  50:../../../os/rt/include/chschd.h **** #define NOPRIO              (tprio_t)0      /**< @brief Ready list header
  51:../../../os/rt/include/chschd.h ****                                                  priority.                  */
  52:../../../os/rt/include/chschd.h **** #define IDLEPRIO            (tprio_t)1      /**< @brief Idle priority.      */
  53:../../../os/rt/include/chschd.h **** #define LOWPRIO             (tprio_t)2      /**< @brief Lowest priority.    */
  54:../../../os/rt/include/chschd.h **** #define NORMALPRIO          (tprio_t)128    /**< @brief Normal priority.    */
  55:../../../os/rt/include/chschd.h **** #define HIGHPRIO            (tprio_t)255    /**< @brief Highest priority.   */
  56:../../../os/rt/include/chschd.h **** /** @} */
  57:../../../os/rt/include/chschd.h **** 
  58:../../../os/rt/include/chschd.h **** /**
  59:../../../os/rt/include/chschd.h ****  * @name    Thread states
  60:../../../os/rt/include/chschd.h ****  * @{
  61:../../../os/rt/include/chschd.h ****  */
  62:../../../os/rt/include/chschd.h **** #define CH_STATE_READY      (tstate_t)0      /**< @brief Waiting on the
  63:../../../os/rt/include/chschd.h ****                                                   ready list.               */
  64:../../../os/rt/include/chschd.h **** #define CH_STATE_CURRENT    (tstate_t)1      /**< @brief Currently running. */
  65:../../../os/rt/include/chschd.h **** #define CH_STATE_WTSTART    (tstate_t)2      /**< @brief Just created.      */
  66:../../../os/rt/include/chschd.h **** #define CH_STATE_SUSPENDED  (tstate_t)3      /**< @brief Suspended state.   */
  67:../../../os/rt/include/chschd.h **** #define CH_STATE_QUEUED     (tstate_t)4      /**< @brief On an I/O queue.   */
  68:../../../os/rt/include/chschd.h **** #define CH_STATE_WTSEM      (tstate_t)5      /**< @brief On a semaphore.    */
  69:../../../os/rt/include/chschd.h **** #define CH_STATE_WTMTX      (tstate_t)6      /**< @brief On a mutex.        */
  70:../../../os/rt/include/chschd.h **** #define CH_STATE_WTCOND     (tstate_t)7      /**< @brief On a cond.variable.*/
  71:../../../os/rt/include/chschd.h **** #define CH_STATE_SLEEPING   (tstate_t)8      /**< @brief Sleeping.          */
  72:../../../os/rt/include/chschd.h **** #define CH_STATE_WTEXIT     (tstate_t)9      /**< @brief Waiting a thread.  */
  73:../../../os/rt/include/chschd.h **** #define CH_STATE_WTOREVT    (tstate_t)10     /**< @brief One event.         */
  74:../../../os/rt/include/chschd.h **** #define CH_STATE_WTANDEVT   (tstate_t)11     /**< @brief Several events.    */
  75:../../../os/rt/include/chschd.h **** #define CH_STATE_SNDMSGQ    (tstate_t)12     /**< @brief Sending a message,
  76:../../../os/rt/include/chschd.h ****                                                   in queue.                 */
  77:../../../os/rt/include/chschd.h **** #define CH_STATE_SNDMSG     (tstate_t)13     /**< @brief Sent a message,
  78:../../../os/rt/include/chschd.h ****                                                   waiting answer.           */
  79:../../../os/rt/include/chschd.h **** #define CH_STATE_WTMSG      (tstate_t)14     /**< @brief Waiting for a
  80:../../../os/rt/include/chschd.h ****                                                   message.                  */
  81:../../../os/rt/include/chschd.h **** #define CH_STATE_FINAL      (tstate_t)15     /**< @brief Thread terminated. */
  82:../../../os/rt/include/chschd.h **** 
  83:../../../os/rt/include/chschd.h **** /**
  84:../../../os/rt/include/chschd.h ****  * @brief   Thread states as array of strings.
  85:../../../os/rt/include/chschd.h ****  * @details Each element in an array initialized with this macro can be
  86:../../../os/rt/include/chschd.h ****  *          indexed using the numeric thread state values.
  87:../../../os/rt/include/chschd.h ****  */
  88:../../../os/rt/include/chschd.h **** #define CH_STATE_NAMES                                                     \
  89:../../../os/rt/include/chschd.h ****   "READY", "CURRENT", "WTSTART", "SUSPENDED", "QUEUED", "WTSEM", "WTMTX",  \
  90:../../../os/rt/include/chschd.h ****   "WTCOND", "SLEEPING", "WTEXIT", "WTOREVT", "WTANDEVT", "SNDMSGQ",        \
  91:../../../os/rt/include/chschd.h ****   "SNDMSG", "WTMSG", "FINAL"
  92:../../../os/rt/include/chschd.h **** /** @} */
  93:../../../os/rt/include/chschd.h **** 
  94:../../../os/rt/include/chschd.h **** /**
  95:../../../os/rt/include/chschd.h ****  * @name    Thread flags and attributes
  96:../../../os/rt/include/chschd.h ****  * @{
  97:../../../os/rt/include/chschd.h ****  */
  98:../../../os/rt/include/chschd.h **** #define CH_FLAG_MODE_MASK   (tmode_t)3U     /**< @brief Thread memory mode
  99:../../../os/rt/include/chschd.h ****                                                  mask.                      */
 100:../../../os/rt/include/chschd.h **** #define CH_FLAG_MODE_STATIC (tmode_t)0U     /**< @brief Static thread.      */
 101:../../../os/rt/include/chschd.h **** #define CH_FLAG_MODE_HEAP   (tmode_t)1U     /**< @brief Thread allocated
 102:../../../os/rt/include/chschd.h ****                                                  from a Memory Heap.        */
 103:../../../os/rt/include/chschd.h **** #define CH_FLAG_MODE_MPOOL  (tmode_t)2U     /**< @brief Thread allocated
 104:../../../os/rt/include/chschd.h ****                                                  from a Memory Pool.        */
 105:../../../os/rt/include/chschd.h **** #define CH_FLAG_TERMINATE   (tmode_t)4U     /**< @brief Termination requested
 106:../../../os/rt/include/chschd.h ****                                                  flag.                      */
 107:../../../os/rt/include/chschd.h **** /** @} */
 108:../../../os/rt/include/chschd.h **** 
 109:../../../os/rt/include/chschd.h **** /*===========================================================================*/
 110:../../../os/rt/include/chschd.h **** /* Module pre-compile time settings.                                         */
 111:../../../os/rt/include/chschd.h **** /*===========================================================================*/
 112:../../../os/rt/include/chschd.h **** 
 113:../../../os/rt/include/chschd.h **** /*===========================================================================*/
 114:../../../os/rt/include/chschd.h **** /* Derived constants and error checks.                                       */
 115:../../../os/rt/include/chschd.h **** /*===========================================================================*/
 116:../../../os/rt/include/chschd.h **** 
 117:../../../os/rt/include/chschd.h **** #if !defined(CH_CFG_IDLE_ENTER_HOOK)
 118:../../../os/rt/include/chschd.h **** #error "CH_CFG_IDLE_ENTER_HOOK not defined in chconf.h"
 119:../../../os/rt/include/chschd.h **** #endif
 120:../../../os/rt/include/chschd.h **** 
 121:../../../os/rt/include/chschd.h **** #if !defined(CH_CFG_IDLE_LEAVE_HOOK)
 122:../../../os/rt/include/chschd.h **** #error "CH_CFG_IDLE_LEAVE_HOOK not defined in chconf.h"
 123:../../../os/rt/include/chschd.h **** #endif
 124:../../../os/rt/include/chschd.h **** 
 125:../../../os/rt/include/chschd.h **** #if !defined(CH_CFG_IDLE_LOOP_HOOK)
 126:../../../os/rt/include/chschd.h **** #error "CH_CFG_IDLE_LOOP_HOOK not defined in chconf.h"
 127:../../../os/rt/include/chschd.h **** #endif
 128:../../../os/rt/include/chschd.h **** 
 129:../../../os/rt/include/chschd.h **** /*===========================================================================*/
 130:../../../os/rt/include/chschd.h **** /* Module data structures and types.                                         */
 131:../../../os/rt/include/chschd.h **** /*===========================================================================*/
 132:../../../os/rt/include/chschd.h **** 
 133:../../../os/rt/include/chschd.h **** /**
 134:../../../os/rt/include/chschd.h ****  * @brief   Generic threads single link list, it works like a stack.
 135:../../../os/rt/include/chschd.h ****  */
 136:../../../os/rt/include/chschd.h **** struct ch_threads_list {
 137:../../../os/rt/include/chschd.h ****   thread_t              *next;      /**< @brief Next in the list/queue.     */
 138:../../../os/rt/include/chschd.h **** };
 139:../../../os/rt/include/chschd.h **** 
 140:../../../os/rt/include/chschd.h **** /**
 141:../../../os/rt/include/chschd.h ****  * @brief   Generic threads bidirectional linked list header and element.
 142:../../../os/rt/include/chschd.h ****  */
 143:../../../os/rt/include/chschd.h **** struct ch_threads_queue {
 144:../../../os/rt/include/chschd.h ****   thread_t              *next;      /**< @brief Next in the list/queue.     */
 145:../../../os/rt/include/chschd.h ****   thread_t              *prev;      /**< @brief Previous in the queue.      */
 146:../../../os/rt/include/chschd.h **** };
 147:../../../os/rt/include/chschd.h **** 
 148:../../../os/rt/include/chschd.h **** /**
 149:../../../os/rt/include/chschd.h ****  * @brief   Structure representing a thread.
 150:../../../os/rt/include/chschd.h ****  * @note    Not all the listed fields are always needed, by switching off some
 151:../../../os/rt/include/chschd.h ****  *          not needed ChibiOS/RT subsystems it is possible to save RAM space
 152:../../../os/rt/include/chschd.h ****  *          by shrinking this structure.
 153:../../../os/rt/include/chschd.h ****  */
 154:../../../os/rt/include/chschd.h **** struct ch_thread {
 155:../../../os/rt/include/chschd.h ****   threads_queue_t       queue;      /**< @brief Threads queue header.       */
 156:../../../os/rt/include/chschd.h ****   tprio_t               prio;       /**< @brief Thread priority.            */
 157:../../../os/rt/include/chschd.h ****   struct port_context   ctx;        /**< @brief Processor context.          */
 158:../../../os/rt/include/chschd.h **** #if (CH_CFG_USE_REGISTRY == TRUE) || defined(__DOXYGEN__)
 159:../../../os/rt/include/chschd.h ****   thread_t              *newer;     /**< @brief Newer registry element.     */
 160:../../../os/rt/include/chschd.h ****   thread_t              *older;     /**< @brief Older registry element.     */
 161:../../../os/rt/include/chschd.h **** #endif
 162:../../../os/rt/include/chschd.h ****   /* End of the fields shared with the ReadyList structure. */
 163:../../../os/rt/include/chschd.h **** #if (CH_CFG_USE_REGISTRY == TRUE) || defined(__DOXYGEN__)
 164:../../../os/rt/include/chschd.h ****   /**
 165:../../../os/rt/include/chschd.h ****    * @brief   Thread name or @p NULL.
 166:../../../os/rt/include/chschd.h ****    */
 167:../../../os/rt/include/chschd.h ****   const char            *name;
 168:../../../os/rt/include/chschd.h **** #endif
 169:../../../os/rt/include/chschd.h **** #if (CH_DBG_ENABLE_STACK_CHECK == TRUE) || (CH_CFG_USE_DYNAMIC == TRUE) ||  \
 170:../../../os/rt/include/chschd.h ****     defined(__DOXYGEN__)
 171:../../../os/rt/include/chschd.h ****   /**
 172:../../../os/rt/include/chschd.h ****    * @brief   Working area base address.
 173:../../../os/rt/include/chschd.h ****    * @note    This pointer is used for stack overflow checks and for
 174:../../../os/rt/include/chschd.h ****    *          dynamic threading.
 175:../../../os/rt/include/chschd.h ****    */
 176:../../../os/rt/include/chschd.h ****   stkalign_t            *wabase;
 177:../../../os/rt/include/chschd.h **** #endif
 178:../../../os/rt/include/chschd.h ****   /**
 179:../../../os/rt/include/chschd.h ****    * @brief   Current thread state.
 180:../../../os/rt/include/chschd.h ****    */
 181:../../../os/rt/include/chschd.h ****   tstate_t              state;
 182:../../../os/rt/include/chschd.h ****   /**
 183:../../../os/rt/include/chschd.h ****    * @brief   Various thread flags.
 184:../../../os/rt/include/chschd.h ****    */
 185:../../../os/rt/include/chschd.h ****   tmode_t               flags;
 186:../../../os/rt/include/chschd.h **** #if (CH_CFG_USE_REGISTRY == TRUE) || defined(__DOXYGEN__)
 187:../../../os/rt/include/chschd.h ****   /**
 188:../../../os/rt/include/chschd.h ****    * @brief   References to this thread.
 189:../../../os/rt/include/chschd.h ****    */
 190:../../../os/rt/include/chschd.h ****   trefs_t               refs;
 191:../../../os/rt/include/chschd.h **** #endif
 192:../../../os/rt/include/chschd.h ****   /**
 193:../../../os/rt/include/chschd.h ****    * @brief   Number of ticks remaining to this thread.
 194:../../../os/rt/include/chschd.h ****    */
 195:../../../os/rt/include/chschd.h **** #if (CH_CFG_TIME_QUANTUM > 0) || defined(__DOXYGEN__)
 196:../../../os/rt/include/chschd.h ****   tslices_t             preempt;
 197:../../../os/rt/include/chschd.h **** #endif
 198:../../../os/rt/include/chschd.h **** #if (CH_DBG_THREADS_PROFILING == TRUE) || defined(__DOXYGEN__)
 199:../../../os/rt/include/chschd.h ****   /**
 200:../../../os/rt/include/chschd.h ****    * @brief   Thread consumed time in ticks.
 201:../../../os/rt/include/chschd.h ****    * @note    This field can overflow.
 202:../../../os/rt/include/chschd.h ****    */
 203:../../../os/rt/include/chschd.h ****   volatile systime_t    time;
 204:../../../os/rt/include/chschd.h **** #endif
 205:../../../os/rt/include/chschd.h ****   /**
 206:../../../os/rt/include/chschd.h ****    * @brief   State-specific fields.
 207:../../../os/rt/include/chschd.h ****    * @note    All the fields declared in this union are only valid in the
 208:../../../os/rt/include/chschd.h ****    *          specified state or condition and are thus volatile.
 209:../../../os/rt/include/chschd.h ****    */
 210:../../../os/rt/include/chschd.h ****   union {
 211:../../../os/rt/include/chschd.h ****     /**
 212:../../../os/rt/include/chschd.h ****      * @brief   Thread wakeup code.
 213:../../../os/rt/include/chschd.h ****      * @note    This field contains the low level message sent to the thread
 214:../../../os/rt/include/chschd.h ****      *          by the waking thread or interrupt handler. The value is valid
 215:../../../os/rt/include/chschd.h ****      *          after exiting the @p chSchWakeupS() function.
 216:../../../os/rt/include/chschd.h ****      */
 217:../../../os/rt/include/chschd.h ****     msg_t               rdymsg;
 218:../../../os/rt/include/chschd.h ****     /**
 219:../../../os/rt/include/chschd.h ****      * @brief   Thread exit code.
 220:../../../os/rt/include/chschd.h ****      * @note    The thread termination code is stored in this field in order
 221:../../../os/rt/include/chschd.h ****      *          to be retrieved by the thread performing a @p chThdWait() on
 222:../../../os/rt/include/chschd.h ****      *          this thread.
 223:../../../os/rt/include/chschd.h ****      */
 224:../../../os/rt/include/chschd.h ****     msg_t               exitcode;
 225:../../../os/rt/include/chschd.h ****     /**
 226:../../../os/rt/include/chschd.h ****      * @brief   Pointer to a generic "wait" object.
 227:../../../os/rt/include/chschd.h ****      * @note    This field is used to get a generic pointer to a synchronization
 228:../../../os/rt/include/chschd.h ****      *          object and is valid when the thread is in one of the wait
 229:../../../os/rt/include/chschd.h ****      *          states.
 230:../../../os/rt/include/chschd.h ****      */
 231:../../../os/rt/include/chschd.h ****     void                *wtobjp;
 232:../../../os/rt/include/chschd.h ****     /**
 233:../../../os/rt/include/chschd.h ****      * @brief   Pointer to a generic thread reference object.
 234:../../../os/rt/include/chschd.h ****      * @note    This field is used to get a pointer to a synchronization
 235:../../../os/rt/include/chschd.h ****      *          object and is valid when the thread is in @p CH_STATE_SUSPENDED
 236:../../../os/rt/include/chschd.h ****      *          state.
 237:../../../os/rt/include/chschd.h ****      */
 238:../../../os/rt/include/chschd.h ****     thread_reference_t  *wttrp;
 239:../../../os/rt/include/chschd.h **** #if (CH_CFG_USE_MESSAGES == TRUE) || defined(__DOXYGEN__)
 240:../../../os/rt/include/chschd.h ****     /**
 241:../../../os/rt/include/chschd.h ****      * @brief   Thread sent message.
 242:../../../os/rt/include/chschd.h ****      */
 243:../../../os/rt/include/chschd.h ****     msg_t               sentmsg;
 244:../../../os/rt/include/chschd.h **** #endif
 245:../../../os/rt/include/chschd.h **** #if (CH_CFG_USE_SEMAPHORES == TRUE) || defined(__DOXYGEN__)
 246:../../../os/rt/include/chschd.h ****     /**
 247:../../../os/rt/include/chschd.h ****      * @brief   Pointer to a generic semaphore object.
 248:../../../os/rt/include/chschd.h ****      * @note    This field is used to get a pointer to a synchronization
 249:../../../os/rt/include/chschd.h ****      *          object and is valid when the thread is in @p CH_STATE_WTSEM
 250:../../../os/rt/include/chschd.h ****      *          state.
 251:../../../os/rt/include/chschd.h ****      */
 252:../../../os/rt/include/chschd.h ****     struct ch_semaphore *wtsemp;
 253:../../../os/rt/include/chschd.h **** #endif
 254:../../../os/rt/include/chschd.h **** #if (CH_CFG_USE_MUTEXES == TRUE) || defined(__DOXYGEN__)
 255:../../../os/rt/include/chschd.h ****     /**
 256:../../../os/rt/include/chschd.h ****      * @brief   Pointer to a generic mutex object.
 257:../../../os/rt/include/chschd.h ****      * @note    This field is used to get a pointer to a synchronization
 258:../../../os/rt/include/chschd.h ****      *          object and is valid when the thread is in @p CH_STATE_WTMTX
 259:../../../os/rt/include/chschd.h ****      *          state.
 260:../../../os/rt/include/chschd.h ****      */
 261:../../../os/rt/include/chschd.h ****     struct ch_mutex     *wtmtxp;
 262:../../../os/rt/include/chschd.h **** #endif
 263:../../../os/rt/include/chschd.h **** #if (CH_CFG_USE_EVENTS == TRUE) || defined(__DOXYGEN__)
 264:../../../os/rt/include/chschd.h ****     /**
 265:../../../os/rt/include/chschd.h ****      * @brief   Enabled events mask.
 266:../../../os/rt/include/chschd.h ****      * @note    This field is only valid while the thread is in the
 267:../../../os/rt/include/chschd.h ****      *          @p CH_STATE_WTOREVT or @p CH_STATE_WTANDEVT states.
 268:../../../os/rt/include/chschd.h ****      */
 269:../../../os/rt/include/chschd.h ****     eventmask_t         ewmask;
 270:../../../os/rt/include/chschd.h **** #endif
 271:../../../os/rt/include/chschd.h ****   }                     u;
 272:../../../os/rt/include/chschd.h **** #if (CH_CFG_USE_WAITEXIT == TRUE) || defined(__DOXYGEN__)
 273:../../../os/rt/include/chschd.h ****   /**
 274:../../../os/rt/include/chschd.h ****    * @brief   Termination waiting list.
 275:../../../os/rt/include/chschd.h ****    */
 276:../../../os/rt/include/chschd.h ****   threads_list_t        waiting;
 277:../../../os/rt/include/chschd.h **** #endif
 278:../../../os/rt/include/chschd.h **** #if (CH_CFG_USE_MESSAGES == TRUE) || defined(__DOXYGEN__)
 279:../../../os/rt/include/chschd.h ****   /**
 280:../../../os/rt/include/chschd.h ****    * @brief   Messages queue.
 281:../../../os/rt/include/chschd.h ****    */
 282:../../../os/rt/include/chschd.h ****   threads_queue_t       msgqueue;
 283:../../../os/rt/include/chschd.h **** #endif
 284:../../../os/rt/include/chschd.h **** #if (CH_CFG_USE_EVENTS == TRUE) || defined(__DOXYGEN__)
 285:../../../os/rt/include/chschd.h ****   /**
 286:../../../os/rt/include/chschd.h ****    * @brief   Pending events mask.
 287:../../../os/rt/include/chschd.h ****    */
 288:../../../os/rt/include/chschd.h ****   eventmask_t           epending;
 289:../../../os/rt/include/chschd.h **** #endif
 290:../../../os/rt/include/chschd.h **** #if (CH_CFG_USE_MUTEXES == TRUE) || defined(__DOXYGEN__)
 291:../../../os/rt/include/chschd.h ****   /**
 292:../../../os/rt/include/chschd.h ****    * @brief   List of the mutexes owned by this thread.
 293:../../../os/rt/include/chschd.h ****    * @note    The list is terminated by a @p NULL in this field.
 294:../../../os/rt/include/chschd.h ****    */
 295:../../../os/rt/include/chschd.h ****   struct ch_mutex       *mtxlist;
 296:../../../os/rt/include/chschd.h ****   /**
 297:../../../os/rt/include/chschd.h ****    * @brief   Thread's own, non-inherited, priority.
 298:../../../os/rt/include/chschd.h ****    */
 299:../../../os/rt/include/chschd.h ****   tprio_t               realprio;
 300:../../../os/rt/include/chschd.h **** #endif
 301:../../../os/rt/include/chschd.h **** #if ((CH_CFG_USE_DYNAMIC == TRUE) && (CH_CFG_USE_MEMPOOLS == TRUE)) ||      \
 302:../../../os/rt/include/chschd.h ****     defined(__DOXYGEN__)
 303:../../../os/rt/include/chschd.h ****   /**
 304:../../../os/rt/include/chschd.h ****    * @brief   Memory Pool where the thread workspace is returned.
 305:../../../os/rt/include/chschd.h ****    */
 306:../../../os/rt/include/chschd.h ****   void                  *mpool;
 307:../../../os/rt/include/chschd.h **** #endif
 308:../../../os/rt/include/chschd.h **** #if (CH_DBG_STATISTICS == TRUE) || defined(__DOXYGEN__)
 309:../../../os/rt/include/chschd.h ****   /**
 310:../../../os/rt/include/chschd.h ****    * @brief   Thread statistics.
 311:../../../os/rt/include/chschd.h ****    */
 312:../../../os/rt/include/chschd.h ****   time_measurement_t    stats;
 313:../../../os/rt/include/chschd.h **** #endif
 314:../../../os/rt/include/chschd.h **** #if defined(CH_CFG_THREAD_EXTRA_FIELDS)
 315:../../../os/rt/include/chschd.h ****   /* Extra fields defined in chconf.h.*/
 316:../../../os/rt/include/chschd.h ****   CH_CFG_THREAD_EXTRA_FIELDS
 317:../../../os/rt/include/chschd.h **** #endif
 318:../../../os/rt/include/chschd.h **** };
 319:../../../os/rt/include/chschd.h **** 
 320:../../../os/rt/include/chschd.h **** /**
 321:../../../os/rt/include/chschd.h ****  * @extends virtual_timers_list_t
 322:../../../os/rt/include/chschd.h ****  *
 323:../../../os/rt/include/chschd.h ****  * @brief   Virtual Timer descriptor structure.
 324:../../../os/rt/include/chschd.h ****  */
 325:../../../os/rt/include/chschd.h **** struct ch_virtual_timer {
 326:../../../os/rt/include/chschd.h ****   virtual_timer_t       *next;      /**< @brief Next timer in the list.     */
 327:../../../os/rt/include/chschd.h ****   virtual_timer_t       *prev;      /**< @brief Previous timer in the list. */
 328:../../../os/rt/include/chschd.h ****   systime_t             delta;      /**< @brief Time delta before timeout.  */
 329:../../../os/rt/include/chschd.h ****   vtfunc_t              func;       /**< @brief Timer callback function
 330:../../../os/rt/include/chschd.h ****                                                 pointer.                    */
 331:../../../os/rt/include/chschd.h ****   void                  *par;       /**< @brief Timer callback function
 332:../../../os/rt/include/chschd.h ****                                                 parameter.                  */
 333:../../../os/rt/include/chschd.h **** };
 334:../../../os/rt/include/chschd.h **** 
 335:../../../os/rt/include/chschd.h **** /**
 336:../../../os/rt/include/chschd.h ****  * @brief   Virtual timers list header.
 337:../../../os/rt/include/chschd.h ****  * @note    The timers list is implemented as a double link bidirectional list
 338:../../../os/rt/include/chschd.h ****  *          in order to make the unlink time constant, the reset of a virtual
 339:../../../os/rt/include/chschd.h ****  *          timer is often used in the code.
 340:../../../os/rt/include/chschd.h ****  */
 341:../../../os/rt/include/chschd.h **** struct ch_virtual_timers_list {
 342:../../../os/rt/include/chschd.h ****   virtual_timer_t       *next;      /**< @brief Next timer in the delta
 343:../../../os/rt/include/chschd.h ****                                                 list.                       */
 344:../../../os/rt/include/chschd.h ****   virtual_timer_t       *prev;      /**< @brief Last timer in the delta
 345:../../../os/rt/include/chschd.h ****                                                 list.                       */
 346:../../../os/rt/include/chschd.h ****   systime_t             delta;      /**< @brief Must be initialized to -1.  */
 347:../../../os/rt/include/chschd.h **** #if (CH_CFG_ST_TIMEDELTA == 0) || defined(__DOXYGEN__)
 348:../../../os/rt/include/chschd.h ****   volatile systime_t    systime;    /**< @brief System Time counter.        */
 349:../../../os/rt/include/chschd.h **** #endif
 350:../../../os/rt/include/chschd.h **** #if (CH_CFG_ST_TIMEDELTA > 0) || defined(__DOXYGEN__)
 351:../../../os/rt/include/chschd.h ****   /**
 352:../../../os/rt/include/chschd.h ****    * @brief   System time of the last tick event.
 353:../../../os/rt/include/chschd.h ****    */
 354:../../../os/rt/include/chschd.h ****   systime_t             lasttime;   /**< @brief System time of the last
 355:../../../os/rt/include/chschd.h ****                                                 tick event.                 */
 356:../../../os/rt/include/chschd.h **** #endif
 357:../../../os/rt/include/chschd.h **** };
 358:../../../os/rt/include/chschd.h **** 
 359:../../../os/rt/include/chschd.h **** /**
 360:../../../os/rt/include/chschd.h ****  * @extends threads_queue_t
 361:../../../os/rt/include/chschd.h ****  */
 362:../../../os/rt/include/chschd.h **** struct ch_ready_list {
 363:../../../os/rt/include/chschd.h ****   threads_queue_t       queue;      /**< @brief Threads queue.              */
 364:../../../os/rt/include/chschd.h ****   tprio_t               prio;       /**< @brief This field must be
 365:../../../os/rt/include/chschd.h ****                                                 initialized to zero.        */
 366:../../../os/rt/include/chschd.h ****   struct port_context   ctx;        /**< @brief Not used, present because
 367:../../../os/rt/include/chschd.h ****                                                 offsets.                    */
 368:../../../os/rt/include/chschd.h **** #if (CH_CFG_USE_REGISTRY == TRUE) || defined(__DOXYGEN__)
 369:../../../os/rt/include/chschd.h ****   thread_t              *newer;     /**< @brief Newer registry element.     */
 370:../../../os/rt/include/chschd.h ****   thread_t              *older;     /**< @brief Older registry element.     */
 371:../../../os/rt/include/chschd.h **** #endif
 372:../../../os/rt/include/chschd.h ****   /* End of the fields shared with the thread_t structure.*/
 373:../../../os/rt/include/chschd.h ****   thread_t              *current;   /**< @brief The currently running
 374:../../../os/rt/include/chschd.h ****                                                 thread.                     */
 375:../../../os/rt/include/chschd.h **** };
 376:../../../os/rt/include/chschd.h **** 
 377:../../../os/rt/include/chschd.h **** /**
 378:../../../os/rt/include/chschd.h ****  * @brief   System debug data structure.
 379:../../../os/rt/include/chschd.h ****  */
 380:../../../os/rt/include/chschd.h **** struct ch_system_debug {
 381:../../../os/rt/include/chschd.h ****   /**
 382:../../../os/rt/include/chschd.h ****    * @brief   Pointer to the panic message.
 383:../../../os/rt/include/chschd.h ****    * @details This pointer is meant to be accessed through the debugger, it is
 384:../../../os/rt/include/chschd.h ****    *          written once and then the system is halted.
 385:../../../os/rt/include/chschd.h ****    * @note    Accesses to this pointer must never be optimized out so the
 386:../../../os/rt/include/chschd.h ****    *          field itself is declared volatile.
 387:../../../os/rt/include/chschd.h ****    */
 388:../../../os/rt/include/chschd.h ****   const char            * volatile panic_msg;
 389:../../../os/rt/include/chschd.h **** #if (CH_DBG_SYSTEM_STATE_CHECK == TRUE) || defined(__DOXYGEN__)
 390:../../../os/rt/include/chschd.h ****   /**
 391:../../../os/rt/include/chschd.h ****    * @brief   ISR nesting level.
 392:../../../os/rt/include/chschd.h ****    */
 393:../../../os/rt/include/chschd.h ****   cnt_t                 isr_cnt;
 394:../../../os/rt/include/chschd.h ****   /**
 395:../../../os/rt/include/chschd.h ****    * @brief   Lock nesting level.
 396:../../../os/rt/include/chschd.h ****    */
 397:../../../os/rt/include/chschd.h ****   cnt_t                 lock_cnt;
 398:../../../os/rt/include/chschd.h **** #endif
 399:../../../os/rt/include/chschd.h **** #if (CH_DBG_TRACE_MASK != CH_DBG_TRACE_MASK_DISABLED) || defined(__DOXYGEN__)
 400:../../../os/rt/include/chschd.h ****   /**
 401:../../../os/rt/include/chschd.h ****    * @brief   Public trace buffer.
 402:../../../os/rt/include/chschd.h ****    */
 403:../../../os/rt/include/chschd.h ****   ch_trace_buffer_t     trace_buffer;
 404:../../../os/rt/include/chschd.h **** #endif
 405:../../../os/rt/include/chschd.h **** };
 406:../../../os/rt/include/chschd.h **** 
 407:../../../os/rt/include/chschd.h **** /**
 408:../../../os/rt/include/chschd.h ****  * @brief   System data structure.
 409:../../../os/rt/include/chschd.h ****  * @note    This structure contain all the data areas used by the OS except
 410:../../../os/rt/include/chschd.h ****  *          stacks.
 411:../../../os/rt/include/chschd.h ****  */
 412:../../../os/rt/include/chschd.h **** struct ch_system {
 413:../../../os/rt/include/chschd.h ****   /**
 414:../../../os/rt/include/chschd.h ****    * @brief   Ready list header.
 415:../../../os/rt/include/chschd.h ****    */
 416:../../../os/rt/include/chschd.h ****   ready_list_t          rlist;
 417:../../../os/rt/include/chschd.h ****   /**
 418:../../../os/rt/include/chschd.h ****    * @brief   Virtual timers delta list header.
 419:../../../os/rt/include/chschd.h ****    */
 420:../../../os/rt/include/chschd.h ****   virtual_timers_list_t vtlist;
 421:../../../os/rt/include/chschd.h ****   /**
 422:../../../os/rt/include/chschd.h ****    * @brief   System debug.
 423:../../../os/rt/include/chschd.h ****    */
 424:../../../os/rt/include/chschd.h ****   system_debug_t        dbg;
 425:../../../os/rt/include/chschd.h ****   /**
 426:../../../os/rt/include/chschd.h ****    * @brief   Main thread descriptor.
 427:../../../os/rt/include/chschd.h ****    */
 428:../../../os/rt/include/chschd.h ****   thread_t              mainthread;
 429:../../../os/rt/include/chschd.h **** #if (CH_CFG_USE_TM == TRUE) || defined(__DOXYGEN__)
 430:../../../os/rt/include/chschd.h ****   /**
 431:../../../os/rt/include/chschd.h ****    * @brief   Time measurement calibration data.
 432:../../../os/rt/include/chschd.h ****    */
 433:../../../os/rt/include/chschd.h ****   tm_calibration_t      tm;
 434:../../../os/rt/include/chschd.h **** #endif
 435:../../../os/rt/include/chschd.h **** #if (CH_DBG_STATISTICS == TRUE) || defined(__DOXYGEN__)
 436:../../../os/rt/include/chschd.h ****   /**
 437:../../../os/rt/include/chschd.h ****    * @brief   Global kernel statistics.
 438:../../../os/rt/include/chschd.h ****    */
 439:../../../os/rt/include/chschd.h ****   kernel_stats_t        kernel_stats;
 440:../../../os/rt/include/chschd.h **** #endif
 441:../../../os/rt/include/chschd.h **** };
 442:../../../os/rt/include/chschd.h **** 
 443:../../../os/rt/include/chschd.h **** /*===========================================================================*/
 444:../../../os/rt/include/chschd.h **** /* Module macros.                                                            */
 445:../../../os/rt/include/chschd.h **** /*===========================================================================*/
 446:../../../os/rt/include/chschd.h **** 
 447:../../../os/rt/include/chschd.h **** /**
 448:../../../os/rt/include/chschd.h ****  * @brief   Returns the priority of the first thread on the given ready list.
 449:../../../os/rt/include/chschd.h ****  *
 450:../../../os/rt/include/chschd.h ****  * @notapi
 451:../../../os/rt/include/chschd.h ****  */
 452:../../../os/rt/include/chschd.h **** #define firstprio(rlp)  ((rlp)->next->prio)
 453:../../../os/rt/include/chschd.h **** 
 454:../../../os/rt/include/chschd.h **** /**
 455:../../../os/rt/include/chschd.h ****  * @brief   Current thread pointer access macro.
 456:../../../os/rt/include/chschd.h ****  * @note    This macro is not meant to be used in the application code but
 457:../../../os/rt/include/chschd.h ****  *          only from within the kernel, use @p chThdGetSelfX() instead.
 458:../../../os/rt/include/chschd.h ****  */
 459:../../../os/rt/include/chschd.h **** #define currp ch.rlist.current
 460:../../../os/rt/include/chschd.h **** 
 461:../../../os/rt/include/chschd.h **** /*===========================================================================*/
 462:../../../os/rt/include/chschd.h **** /* External declarations.                                                    */
 463:../../../os/rt/include/chschd.h **** /*===========================================================================*/
 464:../../../os/rt/include/chschd.h **** 
 465:../../../os/rt/include/chschd.h **** #if !defined(__DOXYGEN__)
 466:../../../os/rt/include/chschd.h **** extern ch_system_t ch;
 467:../../../os/rt/include/chschd.h **** #endif
 468:../../../os/rt/include/chschd.h **** 
 469:../../../os/rt/include/chschd.h **** /*
 470:../../../os/rt/include/chschd.h ****  * Scheduler APIs.
 471:../../../os/rt/include/chschd.h ****  */
 472:../../../os/rt/include/chschd.h **** #ifdef __cplusplus
 473:../../../os/rt/include/chschd.h **** extern "C" {
 474:../../../os/rt/include/chschd.h **** #endif
 475:../../../os/rt/include/chschd.h ****   void _scheduler_init(void);
 476:../../../os/rt/include/chschd.h ****   thread_t *chSchReadyI(thread_t *tp);
 477:../../../os/rt/include/chschd.h ****   thread_t *chSchReadyAheadI(thread_t *tp);
 478:../../../os/rt/include/chschd.h ****   void chSchGoSleepS(tstate_t newstate);
 479:../../../os/rt/include/chschd.h ****   msg_t chSchGoSleepTimeoutS(tstate_t newstate, systime_t time);
 480:../../../os/rt/include/chschd.h ****   void chSchWakeupS(thread_t *ntp, msg_t msg);
 481:../../../os/rt/include/chschd.h ****   void chSchRescheduleS(void);
 482:../../../os/rt/include/chschd.h ****   bool chSchIsPreemptionRequired(void);
 483:../../../os/rt/include/chschd.h ****   void chSchDoRescheduleBehind(void);
 484:../../../os/rt/include/chschd.h ****   void chSchDoRescheduleAhead(void);
 485:../../../os/rt/include/chschd.h ****   void chSchDoReschedule(void);
 486:../../../os/rt/include/chschd.h **** #if CH_CFG_OPTIMIZE_SPEED == FALSE
 487:../../../os/rt/include/chschd.h ****   void queue_prio_insert(thread_t *tp, threads_queue_t *tqp);
 488:../../../os/rt/include/chschd.h ****   void queue_insert(thread_t *tp, threads_queue_t *tqp);
 489:../../../os/rt/include/chschd.h ****   thread_t *queue_fifo_remove(threads_queue_t *tqp);
 490:../../../os/rt/include/chschd.h ****   thread_t *queue_lifo_remove(threads_queue_t *tqp);
 491:../../../os/rt/include/chschd.h ****   thread_t *queue_dequeue(thread_t *tp);
 492:../../../os/rt/include/chschd.h ****   void list_insert(thread_t *tp, threads_list_t *tlp);
 493:../../../os/rt/include/chschd.h ****   thread_t *list_remove(threads_list_t *tlp);
 494:../../../os/rt/include/chschd.h **** #endif /* CH_CFG_OPTIMIZE_SPEED == FALSE */
 495:../../../os/rt/include/chschd.h **** #ifdef __cplusplus
 496:../../../os/rt/include/chschd.h **** }
 497:../../../os/rt/include/chschd.h **** #endif
 498:../../../os/rt/include/chschd.h **** 
 499:../../../os/rt/include/chschd.h **** /*===========================================================================*/
 500:../../../os/rt/include/chschd.h **** /* Module inline functions.                                                  */
 501:../../../os/rt/include/chschd.h **** /*===========================================================================*/
 502:../../../os/rt/include/chschd.h **** 
 503:../../../os/rt/include/chschd.h **** /**
 504:../../../os/rt/include/chschd.h ****  * @brief   Threads list initialization.
 505:../../../os/rt/include/chschd.h ****  *
 506:../../../os/rt/include/chschd.h ****  * @param[in] tlp       pointer to the threads list object
 507:../../../os/rt/include/chschd.h ****  *
 508:../../../os/rt/include/chschd.h ****  * @notapi
 509:../../../os/rt/include/chschd.h ****  */
 510:../../../os/rt/include/chschd.h **** static inline void list_init(threads_list_t *tlp) {
 511:../../../os/rt/include/chschd.h **** 
 512:../../../os/rt/include/chschd.h ****   tlp->next = (thread_t *)tlp;
 513:../../../os/rt/include/chschd.h **** }
 514:../../../os/rt/include/chschd.h **** 
 515:../../../os/rt/include/chschd.h **** /**
 516:../../../os/rt/include/chschd.h ****  * @brief   Evaluates to @p true if the specified threads list is empty.
 517:../../../os/rt/include/chschd.h ****  *
 518:../../../os/rt/include/chschd.h ****  * @param[in] tlp       pointer to the threads list object
 519:../../../os/rt/include/chschd.h ****  * @return              The status of the list.
 520:../../../os/rt/include/chschd.h ****  *
 521:../../../os/rt/include/chschd.h ****  * @notapi
 522:../../../os/rt/include/chschd.h ****  */
 523:../../../os/rt/include/chschd.h **** static inline bool list_isempty(threads_list_t *tlp) {
 524:../../../os/rt/include/chschd.h **** 
 525:../../../os/rt/include/chschd.h ****   return (bool)(tlp->next == (thread_t *)tlp);
 526:../../../os/rt/include/chschd.h **** }
 527:../../../os/rt/include/chschd.h **** 
 528:../../../os/rt/include/chschd.h **** /**
 529:../../../os/rt/include/chschd.h ****  * @brief   Evaluates to @p true if the specified threads list is not empty.
 530:../../../os/rt/include/chschd.h ****  *
 531:../../../os/rt/include/chschd.h ****  * @param[in] tlp       pointer to the threads list object
 532:../../../os/rt/include/chschd.h ****  * @return              The status of the list.
 533:../../../os/rt/include/chschd.h ****  *
 534:../../../os/rt/include/chschd.h ****  * @notapi
 535:../../../os/rt/include/chschd.h ****  */
 536:../../../os/rt/include/chschd.h **** static inline bool list_notempty(threads_list_t *tlp) {
 537:../../../os/rt/include/chschd.h **** 
 538:../../../os/rt/include/chschd.h ****   return (bool)(tlp->next != (thread_t *)tlp);
 539:../../../os/rt/include/chschd.h **** }
 540:../../../os/rt/include/chschd.h **** 
 541:../../../os/rt/include/chschd.h **** /**
 542:../../../os/rt/include/chschd.h ****  * @brief   Threads queue initialization.
 543:../../../os/rt/include/chschd.h ****  *
 544:../../../os/rt/include/chschd.h ****  * @param[in] tqp       pointer to the threads queue object
 545:../../../os/rt/include/chschd.h ****  *
 546:../../../os/rt/include/chschd.h ****  * @notapi
 547:../../../os/rt/include/chschd.h ****  */
 548:../../../os/rt/include/chschd.h **** static inline void queue_init(threads_queue_t *tqp) {
 549:../../../os/rt/include/chschd.h **** 
 550:../../../os/rt/include/chschd.h ****   tqp->next = (thread_t *)tqp;
  29               		.loc 2 550 0
  30 0002 9183      		std Z+1,r25
  31 0004 8083      		st Z,r24
 551:../../../os/rt/include/chschd.h ****   tqp->prev = (thread_t *)tqp;
  32               		.loc 2 551 0
  33 0006 9383      		std Z+3,r25
  34 0008 8283      		std Z+2,r24
  35               	.LVL2:
  36               	.LBE75:
  37               	.LBE74:
  98:../../../os/rt/src/chsem.c **** 
  99:../../../os/rt/src/chsem.c ****   chDbgCheck((sp != NULL) && (n >= (cnt_t)0));
 100:../../../os/rt/src/chsem.c **** 
 101:../../../os/rt/src/chsem.c ****   queue_init(&sp->queue);
 102:../../../os/rt/src/chsem.c ****   sp->cnt = n;
  38               		.loc 1 102 0
  39 000a 6483      		std Z+4,r22
  40 000c 0895      		ret
  41               		.cfi_endproc
  42               	.LFE113:
  44               		.section	.text.chSemResetI,"ax",@progbits
  45               	.global	chSemResetI
  47               	chSemResetI:
  48               	.LFB115:
 103:../../../os/rt/src/chsem.c **** }
 104:../../../os/rt/src/chsem.c **** 
 105:../../../os/rt/src/chsem.c **** /**
 106:../../../os/rt/src/chsem.c ****  * @brief   Performs a reset operation on the semaphore.
 107:../../../os/rt/src/chsem.c ****  * @post    After invoking this function all the threads waiting on the
 108:../../../os/rt/src/chsem.c ****  *          semaphore, if any, are released and the semaphore counter is set
 109:../../../os/rt/src/chsem.c ****  *          to the specified, non negative, value.
 110:../../../os/rt/src/chsem.c ****  * @note    The released threads can recognize they were waked up by a reset
 111:../../../os/rt/src/chsem.c ****  *          rather than a signal because the @p chSemWait() will return
 112:../../../os/rt/src/chsem.c ****  *          @p MSG_RESET instead of @p MSG_OK.
 113:../../../os/rt/src/chsem.c ****  *
 114:../../../os/rt/src/chsem.c ****  * @param[in] sp        pointer to a @p semaphore_t structure
 115:../../../os/rt/src/chsem.c ****  * @param[in] n         the new value of the semaphore counter. The value must
 116:../../../os/rt/src/chsem.c ****  *                      be non-negative.
 117:../../../os/rt/src/chsem.c ****  *
 118:../../../os/rt/src/chsem.c ****  * @api
 119:../../../os/rt/src/chsem.c ****  */
 120:../../../os/rt/src/chsem.c **** void chSemReset(semaphore_t *sp, cnt_t n) {
 121:../../../os/rt/src/chsem.c **** 
 122:../../../os/rt/src/chsem.c ****   chSysLock();
 123:../../../os/rt/src/chsem.c ****   chSemResetI(sp, n);
 124:../../../os/rt/src/chsem.c ****   chSchRescheduleS();
 125:../../../os/rt/src/chsem.c ****   chSysUnlock();
 126:../../../os/rt/src/chsem.c **** }
 127:../../../os/rt/src/chsem.c **** 
 128:../../../os/rt/src/chsem.c **** /**
 129:../../../os/rt/src/chsem.c ****  * @brief   Performs a reset operation on the semaphore.
 130:../../../os/rt/src/chsem.c ****  * @post    After invoking this function all the threads waiting on the
 131:../../../os/rt/src/chsem.c ****  *          semaphore, if any, are released and the semaphore counter is set
 132:../../../os/rt/src/chsem.c ****  *          to the specified, non negative, value.
 133:../../../os/rt/src/chsem.c ****  * @post    This function does not reschedule so a call to a rescheduling
 134:../../../os/rt/src/chsem.c ****  *          function must be performed before unlocking the kernel. Note that
 135:../../../os/rt/src/chsem.c ****  *          interrupt handlers always reschedule on exit so an explicit
 136:../../../os/rt/src/chsem.c ****  *          reschedule must not be performed in ISRs.
 137:../../../os/rt/src/chsem.c ****  * @note    The released threads can recognize they were waked up by a reset
 138:../../../os/rt/src/chsem.c ****  *          rather than a signal because the @p chSemWait() will return
 139:../../../os/rt/src/chsem.c ****  *          @p MSG_RESET instead of @p MSG_OK.
 140:../../../os/rt/src/chsem.c ****  *
 141:../../../os/rt/src/chsem.c ****  * @param[in] sp        pointer to a @p semaphore_t structure
 142:../../../os/rt/src/chsem.c ****  * @param[in] n         the new value of the semaphore counter. The value must
 143:../../../os/rt/src/chsem.c ****  *                      be non-negative.
 144:../../../os/rt/src/chsem.c ****  *
 145:../../../os/rt/src/chsem.c ****  * @iclass
 146:../../../os/rt/src/chsem.c ****  */
 147:../../../os/rt/src/chsem.c **** void chSemResetI(semaphore_t *sp, cnt_t n) {
  49               		.loc 1 147 0
  50               		.cfi_startproc
  51               	.LVL3:
  52 0000 EF92      		push r14
  53               	.LCFI0:
  54               		.cfi_def_cfa_offset 4
  55               		.cfi_offset 14, -3
  56 0002 FF92      		push r15
  57               	.LCFI1:
  58               		.cfi_def_cfa_offset 5
  59               		.cfi_offset 15, -4
  60 0004 1F93      		push r17
  61               	.LCFI2:
  62               		.cfi_def_cfa_offset 6
  63               		.cfi_offset 17, -5
  64 0006 CF93      		push r28
  65               	.LCFI3:
  66               		.cfi_def_cfa_offset 7
  67               		.cfi_offset 28, -6
  68 0008 DF93      		push r29
  69               	.LCFI4:
  70               		.cfi_def_cfa_offset 8
  71               		.cfi_offset 29, -7
  72               	/* prologue: function */
  73               	/* frame size = 0 */
  74               	/* stack size = 5 */
  75               	.L__stack_usage = 5
  76 000a EC01      		movw r28,r24
 148:../../../os/rt/src/chsem.c ****   cnt_t cnt;
 149:../../../os/rt/src/chsem.c **** 
 150:../../../os/rt/src/chsem.c ****   chDbgCheckClassI();
 151:../../../os/rt/src/chsem.c ****   chDbgCheck((sp != NULL) && (n >= (cnt_t)0));
 152:../../../os/rt/src/chsem.c ****   chDbgAssert(((sp->cnt >= (cnt_t)0) && queue_isempty(&sp->queue)) ||
 153:../../../os/rt/src/chsem.c ****               ((sp->cnt < (cnt_t)0) && queue_notempty(&sp->queue)),
 154:../../../os/rt/src/chsem.c ****               "inconsistent semaphore");
 155:../../../os/rt/src/chsem.c **** 
 156:../../../os/rt/src/chsem.c ****   cnt = sp->cnt;
  77               		.loc 1 156 0
  78 000c 1C81      		ldd r17,Y+4
  79               	.LVL4:
 157:../../../os/rt/src/chsem.c ****   sp->cnt = n;
  80               		.loc 1 157 0
  81 000e 6C83      		std Y+4,r22
 158:../../../os/rt/src/chsem.c ****   while (++cnt <= (cnt_t)0) {
  82               		.loc 1 158 0
  83 0010 1F5F      		subi r17,lo8(-(1))
  84               	.LVL5:
  85 0012 1116      		cp __zero_reg__,r17
  86 0014 04F0      		brlt .L2
 159:../../../os/rt/src/chsem.c ****     chSchReadyI(queue_lifo_remove(&sp->queue))->u.rdymsg = MSG_RESET;
  87               		.loc 1 159 0
  88 0016 8EEF      		ldi r24,lo8(-2)
  89 0018 E82E      		mov r14,r24
  90 001a FF24      		clr r15
  91 001c FA94      		dec r15
  92               	.LVL6:
  93               	.L6:
  94               	.LBB76:
  95               	.LBB77:
 552:../../../os/rt/include/chschd.h **** }
 553:../../../os/rt/include/chschd.h **** 
 554:../../../os/rt/include/chschd.h **** /**
 555:../../../os/rt/include/chschd.h ****  * @brief   Evaluates to @p true if the specified threads queue is empty.
 556:../../../os/rt/include/chschd.h ****  *
 557:../../../os/rt/include/chschd.h ****  * @param[in] tqp       pointer to the threads queue object
 558:../../../os/rt/include/chschd.h ****  * @return              The status of the queue.
 559:../../../os/rt/include/chschd.h ****  *
 560:../../../os/rt/include/chschd.h ****  * @notapi
 561:../../../os/rt/include/chschd.h ****  */
 562:../../../os/rt/include/chschd.h **** static inline bool queue_isempty(const threads_queue_t *tqp) {
 563:../../../os/rt/include/chschd.h **** 
 564:../../../os/rt/include/chschd.h ****   return (bool)(tqp->next == (const thread_t *)tqp);
 565:../../../os/rt/include/chschd.h **** }
 566:../../../os/rt/include/chschd.h **** 
 567:../../../os/rt/include/chschd.h **** /**
 568:../../../os/rt/include/chschd.h ****  * @brief   Evaluates to @p true if the specified threads queue is not empty.
 569:../../../os/rt/include/chschd.h ****  *
 570:../../../os/rt/include/chschd.h ****  * @param[in] tqp       pointer to the threads queue object
 571:../../../os/rt/include/chschd.h ****  * @return              The status of the queue.
 572:../../../os/rt/include/chschd.h ****  *
 573:../../../os/rt/include/chschd.h ****  * @notapi
 574:../../../os/rt/include/chschd.h ****  */
 575:../../../os/rt/include/chschd.h **** static inline bool queue_notempty(const threads_queue_t *tqp) {
 576:../../../os/rt/include/chschd.h **** 
 577:../../../os/rt/include/chschd.h ****   return (bool)(tqp->next != (const thread_t *)tqp);
 578:../../../os/rt/include/chschd.h **** }
 579:../../../os/rt/include/chschd.h **** 
 580:../../../os/rt/include/chschd.h **** /* If the performance code path has been chosen then all the following
 581:../../../os/rt/include/chschd.h ****    functions are inlined into the various kernel modules.*/
 582:../../../os/rt/include/chschd.h **** #if CH_CFG_OPTIMIZE_SPEED == TRUE
 583:../../../os/rt/include/chschd.h **** static inline void list_insert(thread_t *tp, threads_list_t *tlp) {
 584:../../../os/rt/include/chschd.h **** 
 585:../../../os/rt/include/chschd.h ****   tp->queue.next = tlp->next;
 586:../../../os/rt/include/chschd.h ****   tlp->next = tp;
 587:../../../os/rt/include/chschd.h **** }
 588:../../../os/rt/include/chschd.h **** 
 589:../../../os/rt/include/chschd.h **** static inline thread_t *list_remove(threads_list_t *tlp) {
 590:../../../os/rt/include/chschd.h **** 
 591:../../../os/rt/include/chschd.h ****   thread_t *tp = tlp->next;
 592:../../../os/rt/include/chschd.h ****   tlp->next = tp->queue.next;
 593:../../../os/rt/include/chschd.h **** 
 594:../../../os/rt/include/chschd.h ****   return tp;
 595:../../../os/rt/include/chschd.h **** }
 596:../../../os/rt/include/chschd.h **** 
 597:../../../os/rt/include/chschd.h **** static inline void queue_prio_insert(thread_t *tp, threads_queue_t *tqp) {
 598:../../../os/rt/include/chschd.h **** 
 599:../../../os/rt/include/chschd.h ****   thread_t *cp = (thread_t *)tqp;
 600:../../../os/rt/include/chschd.h ****   do {
 601:../../../os/rt/include/chschd.h ****     cp = cp->queue.next;
 602:../../../os/rt/include/chschd.h ****   } while ((cp != (thread_t *)tqp) && (cp->prio >= tp->prio));
 603:../../../os/rt/include/chschd.h ****   tp->queue.next             = cp;
 604:../../../os/rt/include/chschd.h ****   tp->queue.prev             = cp->queue.prev;
 605:../../../os/rt/include/chschd.h ****   tp->queue.prev->queue.next = tp;
 606:../../../os/rt/include/chschd.h ****   cp->queue.prev             = tp;
 607:../../../os/rt/include/chschd.h **** }
 608:../../../os/rt/include/chschd.h **** 
 609:../../../os/rt/include/chschd.h **** static inline void queue_insert(thread_t *tp, threads_queue_t *tqp) {
 610:../../../os/rt/include/chschd.h **** 
 611:../../../os/rt/include/chschd.h ****   tp->queue.next             = (thread_t *)tqp;
 612:../../../os/rt/include/chschd.h ****   tp->queue.prev             = tqp->prev;
 613:../../../os/rt/include/chschd.h ****   tp->queue.prev->queue.next = tp;
 614:../../../os/rt/include/chschd.h ****   tqp->prev                  = tp;
 615:../../../os/rt/include/chschd.h **** }
 616:../../../os/rt/include/chschd.h **** 
 617:../../../os/rt/include/chschd.h **** static inline thread_t *queue_fifo_remove(threads_queue_t *tqp) {
 618:../../../os/rt/include/chschd.h ****   thread_t *tp = tqp->next;
 619:../../../os/rt/include/chschd.h **** 
 620:../../../os/rt/include/chschd.h ****   tqp->next             = tp->queue.next;
 621:../../../os/rt/include/chschd.h ****   tqp->next->queue.prev = (thread_t *)tqp;
 622:../../../os/rt/include/chschd.h **** 
 623:../../../os/rt/include/chschd.h ****   return tp;
 624:../../../os/rt/include/chschd.h **** }
 625:../../../os/rt/include/chschd.h **** 
 626:../../../os/rt/include/chschd.h **** static inline thread_t *queue_lifo_remove(threads_queue_t *tqp) {
 627:../../../os/rt/include/chschd.h ****   thread_t *tp = tqp->prev;
  96               		.loc 2 627 0
  97 001e 8A81      		ldd r24,Y+2
  98 0020 9B81      		ldd r25,Y+3
  99               	.LVL7:
 628:../../../os/rt/include/chschd.h **** 
 629:../../../os/rt/include/chschd.h ****   tqp->prev             = tp->queue.prev;
 100               		.loc 2 629 0
 101 0022 DC01      		movw r26,r24
 102 0024 1296      		adiw r26,2
 103 0026 ED91      		ld r30,X+
 104 0028 FC91      		ld r31,X
 105 002a 1397      		sbiw r26,2+1
 106 002c FB83      		std Y+3,r31
 107 002e EA83      		std Y+2,r30
 630:../../../os/rt/include/chschd.h ****   tqp->prev->queue.next = (thread_t *)tqp;
 108               		.loc 2 630 0
 109 0030 D183      		std Z+1,r29
 110 0032 C083      		st Z,r28
 111               	.LVL8:
 112               	.LBE77:
 113               	.LBE76:
 114               		.loc 1 159 0
 115 0034 0E94 0000 		call chSchReadyI
 116               	.LVL9:
 117 0038 FC01      		movw r30,r24
 118 003a F18A      		std Z+17,r15
 119 003c E08A      		std Z+16,r14
 120 003e 1F5F      		subi r17,lo8(-(1))
 121               	.LVL10:
 158:../../../os/rt/src/chsem.c ****     chSchReadyI(queue_lifo_remove(&sp->queue))->u.rdymsg = MSG_RESET;
 122               		.loc 1 158 0
 123 0040 1130      		cpi r17,lo8(1)
 124 0042 01F4      		brne .L6
 125               	.L2:
 126               	/* epilogue start */
 160:../../../os/rt/src/chsem.c ****   }
 161:../../../os/rt/src/chsem.c **** }
 127               		.loc 1 161 0
 128 0044 DF91      		pop r29
 129 0046 CF91      		pop r28
 130               	.LVL11:
 131 0048 1F91      		pop r17
 132               	.LVL12:
 133 004a FF90      		pop r15
 134 004c EF90      		pop r14
 135 004e 0895      		ret
 136               		.cfi_endproc
 137               	.LFE115:
 139               		.section	.text.chSemReset,"ax",@progbits
 140               	.global	chSemReset
 142               	chSemReset:
 143               	.LFB114:
 120:../../../os/rt/src/chsem.c **** 
 144               		.loc 1 120 0
 145               		.cfi_startproc
 146               	.LVL13:
 147               	/* prologue: function */
 148               	/* frame size = 0 */
 149               	/* stack size = 0 */
 150               	.L__stack_usage = 0
 151               	.LBB78:
 152               	.LBB79:
 153               	.LBB80:
 154               		.file 3 "../../../os/common/ports/AVR/chcore.h"
   1:../../../os/common/ports/AVR/chcore.h **** /*
   2:../../../os/common/ports/AVR/chcore.h ****     ChibiOS - Copyright (C) 2006..2016 Giovanni Di Sirio.
   3:../../../os/common/ports/AVR/chcore.h **** 
   4:../../../os/common/ports/AVR/chcore.h ****     This file is part of ChibiOS.
   5:../../../os/common/ports/AVR/chcore.h **** 
   6:../../../os/common/ports/AVR/chcore.h ****     ChibiOS is free software; you can redistribute it and/or modify
   7:../../../os/common/ports/AVR/chcore.h ****     it under the terms of the GNU General Public License as published by
   8:../../../os/common/ports/AVR/chcore.h ****     the Free Software Foundation; either version 3 of the License, or
   9:../../../os/common/ports/AVR/chcore.h ****     (at your option) any later version.
  10:../../../os/common/ports/AVR/chcore.h **** 
  11:../../../os/common/ports/AVR/chcore.h ****     ChibiOS is distributed in the hope that it will be useful,
  12:../../../os/common/ports/AVR/chcore.h ****     but WITHOUT ANY WARRANTY; without even the implied warranty of
  13:../../../os/common/ports/AVR/chcore.h ****     MERCHANTABILITY or FITNESS FOR A PARTICULAR PURPOSE.  See the
  14:../../../os/common/ports/AVR/chcore.h ****     GNU General Public License for more details.
  15:../../../os/common/ports/AVR/chcore.h **** 
  16:../../../os/common/ports/AVR/chcore.h ****     You should have received a copy of the GNU General Public License
  17:../../../os/common/ports/AVR/chcore.h ****     along with this program.  If not, see <http://www.gnu.org/licenses/>.
  18:../../../os/common/ports/AVR/chcore.h **** */
  19:../../../os/common/ports/AVR/chcore.h **** 
  20:../../../os/common/ports/AVR/chcore.h **** /**
  21:../../../os/common/ports/AVR/chcore.h ****  * @file    templates/chcore.h
  22:../../../os/common/ports/AVR/chcore.h ****  * @brief   Port related template macros and structures.
  23:../../../os/common/ports/AVR/chcore.h ****  * @details This file is a template of the system driver macros provided by
  24:../../../os/common/ports/AVR/chcore.h ****  *          a port.
  25:../../../os/common/ports/AVR/chcore.h ****  *
  26:../../../os/common/ports/AVR/chcore.h ****  * @addtogroup core
  27:../../../os/common/ports/AVR/chcore.h ****  * @{
  28:../../../os/common/ports/AVR/chcore.h ****  */
  29:../../../os/common/ports/AVR/chcore.h **** 
  30:../../../os/common/ports/AVR/chcore.h **** #ifndef CHCORE_H
  31:../../../os/common/ports/AVR/chcore.h **** #define CHCORE_H
  32:../../../os/common/ports/AVR/chcore.h **** 
  33:../../../os/common/ports/AVR/chcore.h **** #include <avr/io.h>
  34:../../../os/common/ports/AVR/chcore.h **** #include <avr/interrupt.h>
  35:../../../os/common/ports/AVR/chcore.h **** 
  36:../../../os/common/ports/AVR/chcore.h **** extern bool __avr_in_isr;
  37:../../../os/common/ports/AVR/chcore.h **** 
  38:../../../os/common/ports/AVR/chcore.h **** /*===========================================================================*/
  39:../../../os/common/ports/AVR/chcore.h **** /* Module constants.                                                         */
  40:../../../os/common/ports/AVR/chcore.h **** /*===========================================================================*/
  41:../../../os/common/ports/AVR/chcore.h **** 
  42:../../../os/common/ports/AVR/chcore.h **** /**
  43:../../../os/common/ports/AVR/chcore.h ****  * @name    Port Capabilities and Constants
  44:../../../os/common/ports/AVR/chcore.h ****  * @{
  45:../../../os/common/ports/AVR/chcore.h ****  */
  46:../../../os/common/ports/AVR/chcore.h **** /**
  47:../../../os/common/ports/AVR/chcore.h ****  * @brief   This port supports a realtime counter.
  48:../../../os/common/ports/AVR/chcore.h ****  */
  49:../../../os/common/ports/AVR/chcore.h **** #define PORT_SUPPORTS_RT                FALSE
  50:../../../os/common/ports/AVR/chcore.h **** 
  51:../../../os/common/ports/AVR/chcore.h **** /**
  52:../../../os/common/ports/AVR/chcore.h ****  * @brief   Natural alignment constant.
  53:../../../os/common/ports/AVR/chcore.h ****  * @note    It is the minimum alignment for pointer-size variables.
  54:../../../os/common/ports/AVR/chcore.h ****  */
  55:../../../os/common/ports/AVR/chcore.h **** #define PORT_NATURAL_ALIGN              1U
  56:../../../os/common/ports/AVR/chcore.h **** 
  57:../../../os/common/ports/AVR/chcore.h **** /**
  58:../../../os/common/ports/AVR/chcore.h ****  * @brief   Stack alignment constant.
  59:../../../os/common/ports/AVR/chcore.h ****  * @note    It is the alignement required for the stack pointer.
  60:../../../os/common/ports/AVR/chcore.h ****  */
  61:../../../os/common/ports/AVR/chcore.h **** #define PORT_STACK_ALIGN                1U
  62:../../../os/common/ports/AVR/chcore.h **** 
  63:../../../os/common/ports/AVR/chcore.h **** /**
  64:../../../os/common/ports/AVR/chcore.h ****  * @brief   Working Areas alignment constant.
  65:../../../os/common/ports/AVR/chcore.h ****  * @note    It is the alignment to be enforced for thread working areas.
  66:../../../os/common/ports/AVR/chcore.h ****  */
  67:../../../os/common/ports/AVR/chcore.h **** #define PORT_WORKING_AREA_ALIGN         1U
  68:../../../os/common/ports/AVR/chcore.h **** /** @} */
  69:../../../os/common/ports/AVR/chcore.h **** 
  70:../../../os/common/ports/AVR/chcore.h **** /**
  71:../../../os/common/ports/AVR/chcore.h ****  * @name    Architecture and Compiler
  72:../../../os/common/ports/AVR/chcore.h ****  * @{
  73:../../../os/common/ports/AVR/chcore.h ****  */
  74:../../../os/common/ports/AVR/chcore.h **** /**
  75:../../../os/common/ports/AVR/chcore.h ****  * @brief   Macro defining an AVR architecture.
  76:../../../os/common/ports/AVR/chcore.h ****  */
  77:../../../os/common/ports/AVR/chcore.h **** #define PORT_ARCHITECTURE_AVR
  78:../../../os/common/ports/AVR/chcore.h **** 
  79:../../../os/common/ports/AVR/chcore.h **** /**
  80:../../../os/common/ports/AVR/chcore.h ****  * @brief   Macro defining the specific AVR architecture.
  81:../../../os/common/ports/AVR/chcore.h ****  */
  82:../../../os/common/ports/AVR/chcore.h **** #define PORT_ARCHITECTURE_AVR_MEGAAVR
  83:../../../os/common/ports/AVR/chcore.h **** 
  84:../../../os/common/ports/AVR/chcore.h **** /**
  85:../../../os/common/ports/AVR/chcore.h ****  * @brief   Name of the implemented architecture.
  86:../../../os/common/ports/AVR/chcore.h ****  */
  87:../../../os/common/ports/AVR/chcore.h **** #define PORT_ARCHITECTURE_NAME          "MegaAVR"
  88:../../../os/common/ports/AVR/chcore.h **** 
  89:../../../os/common/ports/AVR/chcore.h **** /**
  90:../../../os/common/ports/AVR/chcore.h ****  * @brief   Compiler name and version.
  91:../../../os/common/ports/AVR/chcore.h ****  */
  92:../../../os/common/ports/AVR/chcore.h **** #if defined(__GNUC__) || defined(__DOXYGEN__)
  93:../../../os/common/ports/AVR/chcore.h **** #define PORT_COMPILER_NAME              "GCC " __VERSION__
  94:../../../os/common/ports/AVR/chcore.h **** 
  95:../../../os/common/ports/AVR/chcore.h **** #else
  96:../../../os/common/ports/AVR/chcore.h **** #error "unsupported compiler"
  97:../../../os/common/ports/AVR/chcore.h **** #endif
  98:../../../os/common/ports/AVR/chcore.h **** 
  99:../../../os/common/ports/AVR/chcore.h **** /**
 100:../../../os/common/ports/AVR/chcore.h ****  * @brief   Port-specific information string.
 101:../../../os/common/ports/AVR/chcore.h ****  */
 102:../../../os/common/ports/AVR/chcore.h **** #define PORT_INFO                       "None"
 103:../../../os/common/ports/AVR/chcore.h **** /** @} */
 104:../../../os/common/ports/AVR/chcore.h **** 
 105:../../../os/common/ports/AVR/chcore.h **** /*===========================================================================*/
 106:../../../os/common/ports/AVR/chcore.h **** /* Module pre-compile time settings.                                         */
 107:../../../os/common/ports/AVR/chcore.h **** /*===========================================================================*/
 108:../../../os/common/ports/AVR/chcore.h **** 
 109:../../../os/common/ports/AVR/chcore.h **** /**
 110:../../../os/common/ports/AVR/chcore.h ****  * @brief   Stack size for the system idle thread.
 111:../../../os/common/ports/AVR/chcore.h ****  * @details This size depends on the idle thread implementation, usually
 112:../../../os/common/ports/AVR/chcore.h ****  *          the idle thread should take no more space than those reserved
 113:../../../os/common/ports/AVR/chcore.h ****  *          by @p PORT_INT_REQUIRED_STACK.
 114:../../../os/common/ports/AVR/chcore.h ****  */
 115:../../../os/common/ports/AVR/chcore.h **** #if !defined(PORT_IDLE_THREAD_STACK_SIZE) || defined(__DOXYGEN__)
 116:../../../os/common/ports/AVR/chcore.h **** #define PORT_IDLE_THREAD_STACK_SIZE     8
 117:../../../os/common/ports/AVR/chcore.h **** #endif
 118:../../../os/common/ports/AVR/chcore.h **** 
 119:../../../os/common/ports/AVR/chcore.h **** /**
 120:../../../os/common/ports/AVR/chcore.h ****  * @brief   Per-thread stack overhead for interrupts servicing.
 121:../../../os/common/ports/AVR/chcore.h ****  * @details This constant is used in the calculation of the correct working
 122:../../../os/common/ports/AVR/chcore.h ****  *          area size.
 123:../../../os/common/ports/AVR/chcore.h ****  */
 124:../../../os/common/ports/AVR/chcore.h **** #if !defined(PORT_INT_REQUIRED_STACK) || defined(__DOXYGEN__)
 125:../../../os/common/ports/AVR/chcore.h **** #define PORT_INT_REQUIRED_STACK         32
 126:../../../os/common/ports/AVR/chcore.h **** #endif
 127:../../../os/common/ports/AVR/chcore.h **** 
 128:../../../os/common/ports/AVR/chcore.h **** /**
 129:../../../os/common/ports/AVR/chcore.h ****  * @brief   Enables an alternative timer implementation.
 130:../../../os/common/ports/AVR/chcore.h ****  * @details Usually the port uses a timer interface defined in the file
 131:../../../os/common/ports/AVR/chcore.h ****  *          @p chcore_timer.h, if this option is enabled then the file
 132:../../../os/common/ports/AVR/chcore.h ****  *          @p chcore_timer_alt.h is included instead.
 133:../../../os/common/ports/AVR/chcore.h ****  */
 134:../../../os/common/ports/AVR/chcore.h **** #if !defined(PORT_USE_ALT_TIMER) || defined(__DOXYGEN__)
 135:../../../os/common/ports/AVR/chcore.h **** #define PORT_USE_ALT_TIMER              FALSE
 136:../../../os/common/ports/AVR/chcore.h **** #endif
 137:../../../os/common/ports/AVR/chcore.h **** 
 138:../../../os/common/ports/AVR/chcore.h **** /**
 139:../../../os/common/ports/AVR/chcore.h ****  * @brief   Enables a "wait for interrupt" instruction in the idle loop.
 140:../../../os/common/ports/AVR/chcore.h ****  */
 141:../../../os/common/ports/AVR/chcore.h **** #if !defined(PORT_AVR_WFI_SLEEP_IDLE) || defined(__DOXYGEN__)
 142:../../../os/common/ports/AVR/chcore.h **** #define PORT_AVR_WFI_SLEEP_IDLE      FALSE
 143:../../../os/common/ports/AVR/chcore.h **** #endif
 144:../../../os/common/ports/AVR/chcore.h **** 
 145:../../../os/common/ports/AVR/chcore.h **** /*===========================================================================*/
 146:../../../os/common/ports/AVR/chcore.h **** /* Derived constants and error checks.                                       */
 147:../../../os/common/ports/AVR/chcore.h **** /*===========================================================================*/
 148:../../../os/common/ports/AVR/chcore.h **** 
 149:../../../os/common/ports/AVR/chcore.h **** /*===========================================================================*/
 150:../../../os/common/ports/AVR/chcore.h **** /* Module data structures and types.                                         */
 151:../../../os/common/ports/AVR/chcore.h **** /*===========================================================================*/
 152:../../../os/common/ports/AVR/chcore.h **** 
 153:../../../os/common/ports/AVR/chcore.h **** /* The following code is not processed when the file is included from an
 154:../../../os/common/ports/AVR/chcore.h ****    asm module.*/
 155:../../../os/common/ports/AVR/chcore.h **** #if !defined(_FROM_ASM_)
 156:../../../os/common/ports/AVR/chcore.h **** 
 157:../../../os/common/ports/AVR/chcore.h **** /**
 158:../../../os/common/ports/AVR/chcore.h ****  * @brief   Type of stack and memory alignment enforcement.
 159:../../../os/common/ports/AVR/chcore.h ****  * @note    In this architecture the stack alignment is enforced to 8 bits.
 160:../../../os/common/ports/AVR/chcore.h ****  */
 161:../../../os/common/ports/AVR/chcore.h **** typedef uint8_t stkalign_t;
 162:../../../os/common/ports/AVR/chcore.h **** 
 163:../../../os/common/ports/AVR/chcore.h **** /**
 164:../../../os/common/ports/AVR/chcore.h ****  * @brief   Interrupt saved context.
 165:../../../os/common/ports/AVR/chcore.h ****  * @details This structure represents the stack frame saved during a
 166:../../../os/common/ports/AVR/chcore.h ****  *          preemption-capable interrupt handler.
 167:../../../os/common/ports/AVR/chcore.h ****  * @note    R2 and R13 are not saved because those are assumed to be immutable
 168:../../../os/common/ports/AVR/chcore.h ****  *          during the system life cycle.
 169:../../../os/common/ports/AVR/chcore.h ****  */
 170:../../../os/common/ports/AVR/chcore.h **** struct port_extctx {
 171:../../../os/common/ports/AVR/chcore.h ****   uint8_t       _next;
 172:../../../os/common/ports/AVR/chcore.h ****   uint8_t       r31;
 173:../../../os/common/ports/AVR/chcore.h ****   uint8_t       r30;
 174:../../../os/common/ports/AVR/chcore.h ****   uint8_t       r27;
 175:../../../os/common/ports/AVR/chcore.h ****   uint8_t       r26;
 176:../../../os/common/ports/AVR/chcore.h ****   uint8_t       r25;
 177:../../../os/common/ports/AVR/chcore.h ****   uint8_t       r24;
 178:../../../os/common/ports/AVR/chcore.h ****   uint8_t       r23;
 179:../../../os/common/ports/AVR/chcore.h ****   uint8_t       r22;
 180:../../../os/common/ports/AVR/chcore.h ****   uint8_t       r21;
 181:../../../os/common/ports/AVR/chcore.h ****   uint8_t       r20;
 182:../../../os/common/ports/AVR/chcore.h ****   uint8_t       r19;
 183:../../../os/common/ports/AVR/chcore.h ****   uint8_t       r18;
 184:../../../os/common/ports/AVR/chcore.h ****   uint8_t       sr;
 185:../../../os/common/ports/AVR/chcore.h ****   uint8_t       r1;
 186:../../../os/common/ports/AVR/chcore.h ****   uint8_t       r0;
 187:../../../os/common/ports/AVR/chcore.h **** #if defined(__AVR_3_BYTE_PC__)
 188:../../../os/common/ports/AVR/chcore.h ****   uint8_t       pcx;
 189:../../../os/common/ports/AVR/chcore.h **** #endif
 190:../../../os/common/ports/AVR/chcore.h ****   uint16_t      pc;
 191:../../../os/common/ports/AVR/chcore.h **** };
 192:../../../os/common/ports/AVR/chcore.h **** 
 193:../../../os/common/ports/AVR/chcore.h **** /**
 194:../../../os/common/ports/AVR/chcore.h ****  * @brief   System saved context.
 195:../../../os/common/ports/AVR/chcore.h ****  * @details This structure represents the inner stack frame during a context
 196:../../../os/common/ports/AVR/chcore.h ****  *          switching.
 197:../../../os/common/ports/AVR/chcore.h ****  * @note    R2 and R13 are not saved because those are assumed to be immutable
 198:../../../os/common/ports/AVR/chcore.h ****  *          during the system life cycle.
 199:../../../os/common/ports/AVR/chcore.h ****  * @note    LR is stored in the caller context so it is not present in this
 200:../../../os/common/ports/AVR/chcore.h ****  *          structure.
 201:../../../os/common/ports/AVR/chcore.h ****  */
 202:../../../os/common/ports/AVR/chcore.h **** struct port_intctx {
 203:../../../os/common/ports/AVR/chcore.h ****   uint8_t       _next;
 204:../../../os/common/ports/AVR/chcore.h ****   uint8_t       r29;
 205:../../../os/common/ports/AVR/chcore.h ****   uint8_t       r28;
 206:../../../os/common/ports/AVR/chcore.h ****   uint8_t       r17;
 207:../../../os/common/ports/AVR/chcore.h ****   uint8_t       r16;
 208:../../../os/common/ports/AVR/chcore.h ****   uint8_t       r15;
 209:../../../os/common/ports/AVR/chcore.h ****   uint8_t       r14;
 210:../../../os/common/ports/AVR/chcore.h ****   uint8_t       r13;
 211:../../../os/common/ports/AVR/chcore.h ****   uint8_t       r12;
 212:../../../os/common/ports/AVR/chcore.h ****   uint8_t       r11;
 213:../../../os/common/ports/AVR/chcore.h ****   uint8_t       r10;
 214:../../../os/common/ports/AVR/chcore.h ****   uint8_t       r9;
 215:../../../os/common/ports/AVR/chcore.h ****   uint8_t       r8;
 216:../../../os/common/ports/AVR/chcore.h ****   uint8_t       r7;
 217:../../../os/common/ports/AVR/chcore.h ****   uint8_t       r6;
 218:../../../os/common/ports/AVR/chcore.h ****   uint8_t       r5;
 219:../../../os/common/ports/AVR/chcore.h ****   uint8_t       r4;
 220:../../../os/common/ports/AVR/chcore.h ****   uint8_t       r3;
 221:../../../os/common/ports/AVR/chcore.h ****   uint8_t       r2;
 222:../../../os/common/ports/AVR/chcore.h **** #if defined(__AVR_3_BYTE_PC__)
 223:../../../os/common/ports/AVR/chcore.h ****   uint8_t       pcx;
 224:../../../os/common/ports/AVR/chcore.h **** #endif
 225:../../../os/common/ports/AVR/chcore.h ****   uint8_t       pcl;
 226:../../../os/common/ports/AVR/chcore.h ****   uint8_t       pch;
 227:../../../os/common/ports/AVR/chcore.h **** };
 228:../../../os/common/ports/AVR/chcore.h **** 
 229:../../../os/common/ports/AVR/chcore.h **** /**
 230:../../../os/common/ports/AVR/chcore.h ****  * @brief   Platform dependent part of the @p thread_t structure.
 231:../../../os/common/ports/AVR/chcore.h ****  * @details This structure usually contains just the saved stack pointer
 232:../../../os/common/ports/AVR/chcore.h ****  *          defined as a pointer to a @p port_intctx structure.
 233:../../../os/common/ports/AVR/chcore.h ****  */
 234:../../../os/common/ports/AVR/chcore.h **** struct port_context {
 235:../../../os/common/ports/AVR/chcore.h ****   struct port_intctx *sp;
 236:../../../os/common/ports/AVR/chcore.h **** };
 237:../../../os/common/ports/AVR/chcore.h **** 
 238:../../../os/common/ports/AVR/chcore.h **** #endif /* !defined(_FROM_ASM_) */
 239:../../../os/common/ports/AVR/chcore.h **** 
 240:../../../os/common/ports/AVR/chcore.h **** /*===========================================================================*/
 241:../../../os/common/ports/AVR/chcore.h **** /* Module macros.                                                            */
 242:../../../os/common/ports/AVR/chcore.h **** /*===========================================================================*/
 243:../../../os/common/ports/AVR/chcore.h **** 
 244:../../../os/common/ports/AVR/chcore.h **** /**
 245:../../../os/common/ports/AVR/chcore.h ****  * @brief   Platform dependent part of the @p chThdCreateI() API.
 246:../../../os/common/ports/AVR/chcore.h ****  * @details This code usually setup the context switching frame represented
 247:../../../os/common/ports/AVR/chcore.h ****  *          by an @p port_intctx structure.
 248:../../../os/common/ports/AVR/chcore.h ****  */
 249:../../../os/common/ports/AVR/chcore.h **** #if defined(__AVR_3_BYTE_PC__) || defined(__DOXYGEN__)
 250:../../../os/common/ports/AVR/chcore.h **** #define PORT_SETUP_CONTEXT(tp, wbase, wtop, pf, arg) {                      \
 251:../../../os/common/ports/AVR/chcore.h ****   tp->ctx.sp = (struct port_intctx *)((uint8_t *)(wtop) -                   \
 252:../../../os/common/ports/AVR/chcore.h ****                                       sizeof(struct port_intctx));          \
 253:../../../os/common/ports/AVR/chcore.h ****   tp->ctx.sp->r2  = (uint8_t)(0xff & (uint16_t)pf);                         \
 254:../../../os/common/ports/AVR/chcore.h ****   tp->ctx.sp->r3  = (uint8_t)((uint16_t)(pf) >> 8);                         \
 255:../../../os/common/ports/AVR/chcore.h ****   tp->ctx.sp->r4  = (uint8_t)(0xff & (uint16_t)arg);                        \
 256:../../../os/common/ports/AVR/chcore.h ****   tp->ctx.sp->r5  = (uint8_t)((uint16_t)(arg) >> 8);                        \
 257:../../../os/common/ports/AVR/chcore.h ****   tp->ctx.sp->pcx = (uint8_t)0;                                             \
 258:../../../os/common/ports/AVR/chcore.h ****   tp->ctx.sp->pcl = (uint16_t)_port_thread_start >> 8;                      \
 259:../../../os/common/ports/AVR/chcore.h ****   tp->ctx.sp->pch = (uint8_t)(0xff & (uint16_t)_port_thread_start);         \
 260:../../../os/common/ports/AVR/chcore.h **** }
 261:../../../os/common/ports/AVR/chcore.h **** #else /* !__AVR_3_BYTE_PC__ */
 262:../../../os/common/ports/AVR/chcore.h **** #define PORT_SETUP_CONTEXT(tp, wbase, wtop, pf, arg) {                      \
 263:../../../os/common/ports/AVR/chcore.h ****   tp->ctx.sp = (struct port_intctx *)((uint8_t *)(wtop) -                   \
 264:../../../os/common/ports/AVR/chcore.h ****                                       sizeof(struct port_intctx));          \
 265:../../../os/common/ports/AVR/chcore.h ****   tp->ctx.sp->r2  = (uint8_t)(0xff & (uint16_t)pf);                         \
 266:../../../os/common/ports/AVR/chcore.h ****   tp->ctx.sp->r3  = (uint8_t)((uint16_t)(pf) >> 8);                         \
 267:../../../os/common/ports/AVR/chcore.h ****   tp->ctx.sp->r4  = (uint8_t)(0xff & (uint16_t)arg);                        \
 268:../../../os/common/ports/AVR/chcore.h ****   tp->ctx.sp->r5  = (uint8_t)((uint16_t)(arg) >> 8);                        \
 269:../../../os/common/ports/AVR/chcore.h ****   tp->ctx.sp->pcl = (uint16_t)_port_thread_start >> 8;                      \
 270:../../../os/common/ports/AVR/chcore.h ****   tp->ctx.sp->pch = (uint8_t)(0xff & (uint16_t)_port_thread_start);         \
 271:../../../os/common/ports/AVR/chcore.h **** }
 272:../../../os/common/ports/AVR/chcore.h **** #endif /* !__AVR_3_BYTE_PC__ */
 273:../../../os/common/ports/AVR/chcore.h **** 
 274:../../../os/common/ports/AVR/chcore.h **** /**
 275:../../../os/common/ports/AVR/chcore.h ****  * @brief   Computes the thread working area global size.
 276:../../../os/common/ports/AVR/chcore.h ****  * @note    There is no need to perform alignments in this macro.
 277:../../../os/common/ports/AVR/chcore.h ****  */
 278:../../../os/common/ports/AVR/chcore.h **** #define PORT_WA_SIZE(n) ((sizeof(struct port_intctx) - 1) +                \
 279:../../../os/common/ports/AVR/chcore.h ****                          (sizeof(struct port_extctx) - 1) +                \
 280:../../../os/common/ports/AVR/chcore.h ****                          ((size_t)(n)) + ((size_t)(PORT_INT_REQUIRED_STACK)))
 281:../../../os/common/ports/AVR/chcore.h **** 
 282:../../../os/common/ports/AVR/chcore.h **** /**
 283:../../../os/common/ports/AVR/chcore.h ****  * @brief   Static working area allocation.
 284:../../../os/common/ports/AVR/chcore.h ****  * @details This macro is used to allocate a static thread working area
 285:../../../os/common/ports/AVR/chcore.h ****  *          aligned as both position and size.
 286:../../../os/common/ports/AVR/chcore.h ****  *
 287:../../../os/common/ports/AVR/chcore.h ****  * @param[in] s         the name to be assigned to the stack array
 288:../../../os/common/ports/AVR/chcore.h ****  * @param[in] n         the stack size to be assigned to the thread
 289:../../../os/common/ports/AVR/chcore.h ****  */
 290:../../../os/common/ports/AVR/chcore.h **** #define PORT_WORKING_AREA(s, n)                                             \
 291:../../../os/common/ports/AVR/chcore.h ****   stkalign_t s[THD_WORKING_AREA_SIZE(n) / sizeof (stkalign_t)]
 292:../../../os/common/ports/AVR/chcore.h **** 
 293:../../../os/common/ports/AVR/chcore.h **** /**
 294:../../../os/common/ports/AVR/chcore.h ****  * @brief   Priority level verification macro.
 295:../../../os/common/ports/AVR/chcore.h ****  */
 296:../../../os/common/ports/AVR/chcore.h **** #define PORT_IRQ_IS_VALID_PRIORITY(n) false
 297:../../../os/common/ports/AVR/chcore.h **** 
 298:../../../os/common/ports/AVR/chcore.h **** /**
 299:../../../os/common/ports/AVR/chcore.h ****  * @brief   Priority level verification macro.
 300:../../../os/common/ports/AVR/chcore.h ****  */
 301:../../../os/common/ports/AVR/chcore.h **** #define PORT_IRQ_IS_VALID_KERNEL_PRIORITY(n) false
 302:../../../os/common/ports/AVR/chcore.h **** 
 303:../../../os/common/ports/AVR/chcore.h **** /**
 304:../../../os/common/ports/AVR/chcore.h ****  * @brief   IRQ prologue code.
 305:../../../os/common/ports/AVR/chcore.h ****  * @details This macro must be inserted at the start of all IRQ handlers
 306:../../../os/common/ports/AVR/chcore.h ****  *          enabled to invoke system APIs.
 307:../../../os/common/ports/AVR/chcore.h ****  * @note    This code tricks the compiler to save all the specified registers
 308:../../../os/common/ports/AVR/chcore.h ****  *          by "touching" them.
 309:../../../os/common/ports/AVR/chcore.h ****  */
 310:../../../os/common/ports/AVR/chcore.h **** #define PORT_IRQ_PROLOGUE() {                                               \
 311:../../../os/common/ports/AVR/chcore.h ****   asm ("" : : : "r18", "r19", "r20", "r21", "r22", "r23", "r24",            \
 312:../../../os/common/ports/AVR/chcore.h ****                 "r25", "r26", "r27", "r30", "r31");                         \
 313:../../../os/common/ports/AVR/chcore.h ****   __avr_in_isr = true;                                                      \
 314:../../../os/common/ports/AVR/chcore.h **** }
 315:../../../os/common/ports/AVR/chcore.h **** 
 316:../../../os/common/ports/AVR/chcore.h **** /**
 317:../../../os/common/ports/AVR/chcore.h ****  * @brief   IRQ epilogue code.
 318:../../../os/common/ports/AVR/chcore.h ****  * @details This macro must be inserted at the end of all IRQ handlers
 319:../../../os/common/ports/AVR/chcore.h ****  *          enabled to invoke system APIs.
 320:../../../os/common/ports/AVR/chcore.h ****  */
 321:../../../os/common/ports/AVR/chcore.h **** #define PORT_IRQ_EPILOGUE() {                                               \
 322:../../../os/common/ports/AVR/chcore.h ****   __avr_in_isr = false;                                                     \
 323:../../../os/common/ports/AVR/chcore.h ****   _dbg_check_lock();                                                        \
 324:../../../os/common/ports/AVR/chcore.h ****   if (chSchIsPreemptionRequired())                                          \
 325:../../../os/common/ports/AVR/chcore.h ****     chSchDoReschedule();                                                    \
 326:../../../os/common/ports/AVR/chcore.h ****   _dbg_check_unlock();                                                      \
 327:../../../os/common/ports/AVR/chcore.h **** }
 328:../../../os/common/ports/AVR/chcore.h **** 
 329:../../../os/common/ports/AVR/chcore.h **** /**
 330:../../../os/common/ports/AVR/chcore.h ****  * @brief   IRQ handler function declaration.
 331:../../../os/common/ports/AVR/chcore.h ****  * @note    @p id can be a function name or a vector number depending on the
 332:../../../os/common/ports/AVR/chcore.h ****  *          port implementation.
 333:../../../os/common/ports/AVR/chcore.h ****  */
 334:../../../os/common/ports/AVR/chcore.h **** #define PORT_IRQ_HANDLER(id) ISR(id)
 335:../../../os/common/ports/AVR/chcore.h **** 
 336:../../../os/common/ports/AVR/chcore.h **** /**
 337:../../../os/common/ports/AVR/chcore.h ****  * @brief   Fast IRQ handler function declaration.
 338:../../../os/common/ports/AVR/chcore.h ****  * @note    @p id can be a function name or a vector number depending on the
 339:../../../os/common/ports/AVR/chcore.h ****  *          port implementation.
 340:../../../os/common/ports/AVR/chcore.h ****  */
 341:../../../os/common/ports/AVR/chcore.h **** #define PORT_FAST_IRQ_HANDLER(id) ISR(id)
 342:../../../os/common/ports/AVR/chcore.h **** 
 343:../../../os/common/ports/AVR/chcore.h **** /**
 344:../../../os/common/ports/AVR/chcore.h ****  * @brief   Performs a context switch between two threads.
 345:../../../os/common/ports/AVR/chcore.h ****  * @details This is the most critical code in any port, this function
 346:../../../os/common/ports/AVR/chcore.h ****  *          is responsible for the context switch between 2 threads.
 347:../../../os/common/ports/AVR/chcore.h ****  * @note    The implementation of this code affects <b>directly</b> the context
 348:../../../os/common/ports/AVR/chcore.h ****  *          switch performance so optimize here as much as you can.
 349:../../../os/common/ports/AVR/chcore.h ****  *
 350:../../../os/common/ports/AVR/chcore.h ****  * @param[in] ntp       the thread to be switched in
 351:../../../os/common/ports/AVR/chcore.h ****  * @param[in] otp       the thread to be switched out
 352:../../../os/common/ports/AVR/chcore.h ****  */
 353:../../../os/common/ports/AVR/chcore.h **** #define port_switch(ntp, otp) {                                             \
 354:../../../os/common/ports/AVR/chcore.h ****   _port_switch(ntp, otp);                                                   \
 355:../../../os/common/ports/AVR/chcore.h ****   asm volatile ("" : : : "memory");                                         \
 356:../../../os/common/ports/AVR/chcore.h **** }
 357:../../../os/common/ports/AVR/chcore.h **** 
 358:../../../os/common/ports/AVR/chcore.h **** 
 359:../../../os/common/ports/AVR/chcore.h **** /**
 360:../../../os/common/ports/AVR/chcore.h ****  * @brief   Port-related initialization code.
 361:../../../os/common/ports/AVR/chcore.h ****  * @note    This function is empty in this port.
 362:../../../os/common/ports/AVR/chcore.h ****  */
 363:../../../os/common/ports/AVR/chcore.h **** #define port_init() {                                                       \
 364:../../../os/common/ports/AVR/chcore.h ****   __avr_in_isr = true;                                                      \
 365:../../../os/common/ports/AVR/chcore.h **** }
 366:../../../os/common/ports/AVR/chcore.h **** 
 367:../../../os/common/ports/AVR/chcore.h **** /*===========================================================================*/
 368:../../../os/common/ports/AVR/chcore.h **** /* External declarations.                                                    */
 369:../../../os/common/ports/AVR/chcore.h **** /*===========================================================================*/
 370:../../../os/common/ports/AVR/chcore.h **** 
 371:../../../os/common/ports/AVR/chcore.h **** /* The following code is not processed when the file is included from an
 372:../../../os/common/ports/AVR/chcore.h ****    asm module.*/
 373:../../../os/common/ports/AVR/chcore.h **** #if !defined(_FROM_ASM_)
 374:../../../os/common/ports/AVR/chcore.h **** 
 375:../../../os/common/ports/AVR/chcore.h **** #ifdef __cplusplus
 376:../../../os/common/ports/AVR/chcore.h **** extern "C" {
 377:../../../os/common/ports/AVR/chcore.h **** #endif
 378:../../../os/common/ports/AVR/chcore.h ****   void _port_switch(thread_t *ntp, thread_t *otp);
 379:../../../os/common/ports/AVR/chcore.h ****   void _port_thread_start(void);
 380:../../../os/common/ports/AVR/chcore.h **** #ifdef __cplusplus
 381:../../../os/common/ports/AVR/chcore.h **** }
 382:../../../os/common/ports/AVR/chcore.h **** #endif
 383:../../../os/common/ports/AVR/chcore.h **** 
 384:../../../os/common/ports/AVR/chcore.h **** #endif /* !defined(_FROM_ASM_) */
 385:../../../os/common/ports/AVR/chcore.h **** 
 386:../../../os/common/ports/AVR/chcore.h **** /*===========================================================================*/
 387:../../../os/common/ports/AVR/chcore.h **** /* Module inline functions.                                                  */
 388:../../../os/common/ports/AVR/chcore.h **** /*===========================================================================*/
 389:../../../os/common/ports/AVR/chcore.h **** 
 390:../../../os/common/ports/AVR/chcore.h **** /* The following code is not processed when the file is included from an
 391:../../../os/common/ports/AVR/chcore.h ****    asm module.*/
 392:../../../os/common/ports/AVR/chcore.h **** #if !defined(_FROM_ASM_)
 393:../../../os/common/ports/AVR/chcore.h **** 
 394:../../../os/common/ports/AVR/chcore.h **** /**
 395:../../../os/common/ports/AVR/chcore.h ****  * @brief   Returns a word encoding the current interrupts status.
 396:../../../os/common/ports/AVR/chcore.h ****  *
 397:../../../os/common/ports/AVR/chcore.h ****  * @return              The interrupts status.
 398:../../../os/common/ports/AVR/chcore.h ****  */
 399:../../../os/common/ports/AVR/chcore.h **** static inline syssts_t port_get_irq_status(void) {
 400:../../../os/common/ports/AVR/chcore.h **** 
 401:../../../os/common/ports/AVR/chcore.h ****   return SREG;
 402:../../../os/common/ports/AVR/chcore.h **** }
 403:../../../os/common/ports/AVR/chcore.h **** 
 404:../../../os/common/ports/AVR/chcore.h **** /**
 405:../../../os/common/ports/AVR/chcore.h ****  * @brief   Checks the interrupt status.
 406:../../../os/common/ports/AVR/chcore.h ****  *
 407:../../../os/common/ports/AVR/chcore.h ****  * @param[in] sts       the interrupt status word
 408:../../../os/common/ports/AVR/chcore.h ****  *
 409:../../../os/common/ports/AVR/chcore.h ****  * @return              The interrupt status.
 410:../../../os/common/ports/AVR/chcore.h ****  * @retval false        the word specified a disabled interrupts status.
 411:../../../os/common/ports/AVR/chcore.h ****  * @retval true         the word specified an enabled interrupts status.
 412:../../../os/common/ports/AVR/chcore.h ****  */
 413:../../../os/common/ports/AVR/chcore.h **** static inline bool port_irq_enabled(syssts_t sts) {
 414:../../../os/common/ports/AVR/chcore.h **** 
 415:../../../os/common/ports/AVR/chcore.h ****   return (bool)((sts & 0x80) != 0);
 416:../../../os/common/ports/AVR/chcore.h **** }
 417:../../../os/common/ports/AVR/chcore.h **** 
 418:../../../os/common/ports/AVR/chcore.h **** /**
 419:../../../os/common/ports/AVR/chcore.h ****  * @brief   Determines the current execution context.
 420:../../../os/common/ports/AVR/chcore.h ****  *
 421:../../../os/common/ports/AVR/chcore.h ****  * @return              The execution context.
 422:../../../os/common/ports/AVR/chcore.h ****  * @retval false        not running in ISR mode.
 423:../../../os/common/ports/AVR/chcore.h ****  * @retval true         running in ISR mode.
 424:../../../os/common/ports/AVR/chcore.h ****  */
 425:../../../os/common/ports/AVR/chcore.h **** static inline bool port_is_isr_context(void) {
 426:../../../os/common/ports/AVR/chcore.h **** 
 427:../../../os/common/ports/AVR/chcore.h ****   return __avr_in_isr;
 428:../../../os/common/ports/AVR/chcore.h **** }
 429:../../../os/common/ports/AVR/chcore.h **** 
 430:../../../os/common/ports/AVR/chcore.h **** /**
 431:../../../os/common/ports/AVR/chcore.h ****  * @brief   Kernel-lock action.
 432:../../../os/common/ports/AVR/chcore.h ****  * @details Usually this function just disables interrupts but may perform more
 433:../../../os/common/ports/AVR/chcore.h ****  *          actions.
 434:../../../os/common/ports/AVR/chcore.h ****  */
 435:../../../os/common/ports/AVR/chcore.h **** static inline void port_lock(void) {
 436:../../../os/common/ports/AVR/chcore.h **** 
 437:../../../os/common/ports/AVR/chcore.h ****   asm volatile ("cli" : : : "memory");
 155               		.loc 3 437 0
 156               	/* #APP */
 157               	 ;  437 "../../../os/common/ports/AVR/chcore.h" 1
 158 0000 F894      		cli
 159               	 ;  0 "" 2
 160               	/* #NOAPP */
 161               	.LBE80:
 162               	.LBE79:
 163               	.LBE78:
 123:../../../os/rt/src/chsem.c ****   chSchRescheduleS();
 164               		.loc 1 123 0
 165 0002 0E94 0000 		call chSemResetI
 166               	.LVL14:
 124:../../../os/rt/src/chsem.c ****   chSysUnlock();
 167               		.loc 1 124 0
 168 0006 0E94 0000 		call chSchRescheduleS
 169               	.LVL15:
 170               	.LBB81:
 171               	.LBB82:
 172               	.LBB83:
 173               	.LBB84:
 438:../../../os/common/ports/AVR/chcore.h **** }
 439:../../../os/common/ports/AVR/chcore.h **** 
 440:../../../os/common/ports/AVR/chcore.h **** /**
 441:../../../os/common/ports/AVR/chcore.h ****  * @brief   Kernel-unlock action.
 442:../../../os/common/ports/AVR/chcore.h ****  * @details Usually this function just enables interrupts but may perform more
 443:../../../os/common/ports/AVR/chcore.h ****  *          actions.
 444:../../../os/common/ports/AVR/chcore.h ****  */
 445:../../../os/common/ports/AVR/chcore.h **** static inline void port_unlock(void) {
 446:../../../os/common/ports/AVR/chcore.h **** 
 447:../../../os/common/ports/AVR/chcore.h ****   asm volatile ("sei" : : : "memory");
 174               		.loc 3 447 0
 175               	/* #APP */
 176               	 ;  447 "../../../os/common/ports/AVR/chcore.h" 1
 177 000a 7894      		sei
 178               	 ;  0 "" 2
 179               	/* #NOAPP */
 180 000c 0895      		ret
 181               	.LBE84:
 182               	.LBE83:
 183               	.LBE82:
 184               	.LBE81:
 185               		.cfi_endproc
 186               	.LFE114:
 188               		.section	.text.chSemWait,"ax",@progbits
 189               	.global	chSemWait
 191               	chSemWait:
 192               	.LFB116:
 162:../../../os/rt/src/chsem.c **** 
 163:../../../os/rt/src/chsem.c **** /**
 164:../../../os/rt/src/chsem.c ****  * @brief   Performs a wait operation on a semaphore.
 165:../../../os/rt/src/chsem.c ****  *
 166:../../../os/rt/src/chsem.c ****  * @param[in] sp        pointer to a @p semaphore_t structure
 167:../../../os/rt/src/chsem.c ****  * @return              A message specifying how the invoking thread has been
 168:../../../os/rt/src/chsem.c ****  *                      released from the semaphore.
 169:../../../os/rt/src/chsem.c ****  * @retval MSG_OK       if the thread has not stopped on the semaphore or the
 170:../../../os/rt/src/chsem.c ****  *                      semaphore has been signaled.
 171:../../../os/rt/src/chsem.c ****  * @retval MSG_RESET    if the semaphore has been reset using @p chSemReset().
 172:../../../os/rt/src/chsem.c ****  *
 173:../../../os/rt/src/chsem.c ****  * @api
 174:../../../os/rt/src/chsem.c ****  */
 175:../../../os/rt/src/chsem.c **** msg_t chSemWait(semaphore_t *sp) {
 193               		.loc 1 175 0
 194               		.cfi_startproc
 195               	.LVL16:
 196 0000 CF93      		push r28
 197               	.LCFI5:
 198               		.cfi_def_cfa_offset 4
 199               		.cfi_offset 28, -3
 200 0002 DF93      		push r29
 201               	.LCFI6:
 202               		.cfi_def_cfa_offset 5
 203               		.cfi_offset 29, -4
 204               	/* prologue: function */
 205               	/* frame size = 0 */
 206               	/* stack size = 2 */
 207               	.L__stack_usage = 2
 208 0004 FC01      		movw r30,r24
 209               	.LBB98:
 210               	.LBB99:
 211               	.LBB100:
 437:../../../os/common/ports/AVR/chcore.h **** }
 212               		.loc 3 437 0
 213               	/* #APP */
 214               	 ;  437 "../../../os/common/ports/AVR/chcore.h" 1
 215 0006 F894      		cli
 216               	 ;  0 "" 2
 217               	.LVL17:
 218               	/* #NOAPP */
 219               	.LBE100:
 220               	.LBE99:
 221               	.LBE98:
 222               	.LBB101:
 223               	.LBB102:
 176:../../../os/rt/src/chsem.c ****   msg_t msg;
 177:../../../os/rt/src/chsem.c **** 
 178:../../../os/rt/src/chsem.c ****   chSysLock();
 179:../../../os/rt/src/chsem.c ****   msg = chSemWaitS(sp);
 180:../../../os/rt/src/chsem.c ****   chSysUnlock();
 181:../../../os/rt/src/chsem.c **** 
 182:../../../os/rt/src/chsem.c ****   return msg;
 183:../../../os/rt/src/chsem.c **** }
 184:../../../os/rt/src/chsem.c **** 
 185:../../../os/rt/src/chsem.c **** /**
 186:../../../os/rt/src/chsem.c ****  * @brief   Performs a wait operation on a semaphore.
 187:../../../os/rt/src/chsem.c ****  *
 188:../../../os/rt/src/chsem.c ****  * @param[in] sp        pointer to a @p semaphore_t structure
 189:../../../os/rt/src/chsem.c ****  * @return              A message specifying how the invoking thread has been
 190:../../../os/rt/src/chsem.c ****  *                      released from the semaphore.
 191:../../../os/rt/src/chsem.c ****  * @retval MSG_OK       if the thread has not stopped on the semaphore or the
 192:../../../os/rt/src/chsem.c ****  *                      semaphore has been signaled.
 193:../../../os/rt/src/chsem.c ****  * @retval MSG_RESET    if the semaphore has been reset using @p chSemReset().
 194:../../../os/rt/src/chsem.c ****  *
 195:../../../os/rt/src/chsem.c ****  * @sclass
 196:../../../os/rt/src/chsem.c ****  */
 197:../../../os/rt/src/chsem.c **** msg_t chSemWaitS(semaphore_t *sp) {
 198:../../../os/rt/src/chsem.c **** 
 199:../../../os/rt/src/chsem.c ****   chDbgCheckClassS();
 200:../../../os/rt/src/chsem.c ****   chDbgCheck(sp != NULL);
 201:../../../os/rt/src/chsem.c ****   chDbgAssert(((sp->cnt >= (cnt_t)0) && queue_isempty(&sp->queue)) ||
 202:../../../os/rt/src/chsem.c ****               ((sp->cnt < (cnt_t)0) && queue_notempty(&sp->queue)),
 203:../../../os/rt/src/chsem.c ****               "inconsistent semaphore");
 204:../../../os/rt/src/chsem.c **** 
 205:../../../os/rt/src/chsem.c ****   if (--sp->cnt < (cnt_t)0) {
 224               		.loc 1 205 0
 225 0008 9481      		ldd r25,Z+4
 226 000a 9150      		subi r25,lo8(-(-1))
 227 000c 9483      		std Z+4,r25
 228 000e 97FD      		sbrc r25,7
 229 0010 00C0      		rjmp .L13
 206:../../../os/rt/src/chsem.c ****     currp->u.wtsemp = sp;
 207:../../../os/rt/src/chsem.c ****     sem_insert(currp, &sp->queue);
 208:../../../os/rt/src/chsem.c ****     chSchGoSleepS(CH_STATE_WTSEM);
 209:../../../os/rt/src/chsem.c **** 
 210:../../../os/rt/src/chsem.c ****     return currp->u.rdymsg;
 211:../../../os/rt/src/chsem.c ****   }
 212:../../../os/rt/src/chsem.c **** 
 213:../../../os/rt/src/chsem.c ****   return MSG_OK;
 230               		.loc 1 213 0
 231 0012 80E0      		ldi r24,0
 232 0014 90E0      		ldi r25,0
 233               	.LVL18:
 234               	.LBE102:
 235               	.LBE101:
 236               	.LBB108:
 237               	.LBB109:
 238               	.LBB110:
 239               	.LBB111:
 240               		.loc 3 447 0
 241               	/* #APP */
 242               	 ;  447 "../../../os/common/ports/AVR/chcore.h" 1
 243 0016 7894      		sei
 244               	 ;  0 "" 2
 245               	/* epilogue start */
 246               	/* #NOAPP */
 247               	.LBE111:
 248               	.LBE110:
 249               	.LBE109:
 250               	.LBE108:
 183:../../../os/rt/src/chsem.c **** 
 251               		.loc 1 183 0
 252 0018 DF91      		pop r29
 253 001a CF91      		pop r28
 254 001c 0895      		ret
 255               	.LVL19:
 256               	.L13:
 257               	.LBB115:
 258               	.LBB107:
 259               	.LBB103:
 260               	.LBB104:
 206:../../../os/rt/src/chsem.c ****     currp->u.wtsemp = sp;
 261               		.loc 1 206 0
 262 001e A091 0000 		lds r26,ch+11
 263 0022 B091 0000 		lds r27,ch+11+1
 264 0026 5196      		adiw r26,16+1
 265 0028 FC93      		st X,r31
 266 002a EE93      		st -X,r30
 267 002c 5097      		sbiw r26,16
 268               	.LVL20:
 269               	.LBB105:
 270               	.LBB106:
 611:../../../os/rt/include/chschd.h ****   tp->queue.prev             = tqp->prev;
 271               		.loc 2 611 0
 272 002e 1196      		adiw r26,1
 273 0030 FC93      		st X,r31
 274 0032 EE93      		st -X,r30
 612:../../../os/rt/include/chschd.h ****   tp->queue.prev->queue.next = tp;
 275               		.loc 2 612 0
 276 0034 C281      		ldd r28,Z+2
 277 0036 D381      		ldd r29,Z+3
 278 0038 1396      		adiw r26,2+1
 279 003a DC93      		st X,r29
 280 003c CE93      		st -X,r28
 281 003e 1297      		sbiw r26,2
 613:../../../os/rt/include/chschd.h ****   tqp->prev                  = tp;
 282               		.loc 2 613 0
 283 0040 B983      		std Y+1,r27
 284 0042 A883      		st Y,r26
 614:../../../os/rt/include/chschd.h **** }
 285               		.loc 2 614 0
 286 0044 B383      		std Z+3,r27
 287 0046 A283      		std Z+2,r26
 288               	.LVL21:
 289               	.LBE106:
 290               	.LBE105:
 208:../../../os/rt/src/chsem.c **** 
 291               		.loc 1 208 0
 292 0048 85E0      		ldi r24,lo8(5)
 293               	.LVL22:
 294 004a 0E94 0000 		call chSchGoSleepS
 295               	.LVL23:
 210:../../../os/rt/src/chsem.c ****   }
 296               		.loc 1 210 0
 297 004e E091 0000 		lds r30,ch+11
 298 0052 F091 0000 		lds r31,ch+11+1
 299 0056 8089      		ldd r24,Z+16
 300 0058 9189      		ldd r25,Z+17
 301               	.LVL24:
 302               	.LBE104:
 303               	.LBE103:
 304               	.LBE107:
 305               	.LBE115:
 306               	.LBB116:
 307               	.LBB114:
 308               	.LBB113:
 309               	.LBB112:
 310               		.loc 3 447 0
 311               	/* #APP */
 312               	 ;  447 "../../../os/common/ports/AVR/chcore.h" 1
 313 005a 7894      		sei
 314               	 ;  0 "" 2
 315               	/* epilogue start */
 316               	/* #NOAPP */
 317               	.LBE112:
 318               	.LBE113:
 319               	.LBE114:
 320               	.LBE116:
 183:../../../os/rt/src/chsem.c **** 
 321               		.loc 1 183 0
 322 005c DF91      		pop r29
 323 005e CF91      		pop r28
 324 0060 0895      		ret
 325               		.cfi_endproc
 326               	.LFE116:
 328               		.section	.text.chSemWaitS,"ax",@progbits
 329               	.global	chSemWaitS
 331               	chSemWaitS:
 332               	.LFB117:
 197:../../../os/rt/src/chsem.c **** 
 333               		.loc 1 197 0
 334               		.cfi_startproc
 335               	.LVL25:
 336 0000 CF93      		push r28
 337               	.LCFI7:
 338               		.cfi_def_cfa_offset 4
 339               		.cfi_offset 28, -3
 340 0002 DF93      		push r29
 341               	.LCFI8:
 342               		.cfi_def_cfa_offset 5
 343               		.cfi_offset 29, -4
 344               	/* prologue: function */
 345               	/* frame size = 0 */
 346               	/* stack size = 2 */
 347               	.L__stack_usage = 2
 348 0004 FC01      		movw r30,r24
 205:../../../os/rt/src/chsem.c ****     currp->u.wtsemp = sp;
 349               		.loc 1 205 0
 350 0006 9481      		ldd r25,Z+4
 351 0008 9150      		subi r25,lo8(-(-1))
 352 000a 9483      		std Z+4,r25
 353 000c 97FD      		sbrc r25,7
 354 000e 00C0      		rjmp .L17
 355               		.loc 1 213 0
 356 0010 80E0      		ldi r24,0
 357 0012 90E0      		ldi r25,0
 358               	.LVL26:
 359               	/* epilogue start */
 214:../../../os/rt/src/chsem.c **** }
 360               		.loc 1 214 0
 361 0014 DF91      		pop r29
 362 0016 CF91      		pop r28
 363 0018 0895      		ret
 364               	.LVL27:
 365               	.L17:
 366               	.LBB121:
 367               	.LBB122:
 206:../../../os/rt/src/chsem.c ****     sem_insert(currp, &sp->queue);
 368               		.loc 1 206 0
 369 001a A091 0000 		lds r26,ch+11
 370 001e B091 0000 		lds r27,ch+11+1
 371 0022 5196      		adiw r26,16+1
 372 0024 FC93      		st X,r31
 373 0026 EE93      		st -X,r30
 374 0028 5097      		sbiw r26,16
 375               	.LVL28:
 376               	.LBB123:
 377               	.LBB124:
 611:../../../os/rt/include/chschd.h ****   tp->queue.prev             = tqp->prev;
 378               		.loc 2 611 0
 379 002a 1196      		adiw r26,1
 380 002c FC93      		st X,r31
 381 002e EE93      		st -X,r30
 612:../../../os/rt/include/chschd.h ****   tp->queue.prev->queue.next = tp;
 382               		.loc 2 612 0
 383 0030 C281      		ldd r28,Z+2
 384 0032 D381      		ldd r29,Z+3
 385 0034 1396      		adiw r26,2+1
 386 0036 DC93      		st X,r29
 387 0038 CE93      		st -X,r28
 388 003a 1297      		sbiw r26,2
 613:../../../os/rt/include/chschd.h ****   tqp->prev                  = tp;
 389               		.loc 2 613 0
 390 003c B983      		std Y+1,r27
 391 003e A883      		st Y,r26
 614:../../../os/rt/include/chschd.h **** }
 392               		.loc 2 614 0
 393 0040 B383      		std Z+3,r27
 394 0042 A283      		std Z+2,r26
 395               	.LVL29:
 396               	.LBE124:
 397               	.LBE123:
 208:../../../os/rt/src/chsem.c **** 
 398               		.loc 1 208 0
 399 0044 85E0      		ldi r24,lo8(5)
 400               	.LVL30:
 401 0046 0E94 0000 		call chSchGoSleepS
 402               	.LVL31:
 210:../../../os/rt/src/chsem.c ****   }
 403               		.loc 1 210 0
 404 004a E091 0000 		lds r30,ch+11
 405 004e F091 0000 		lds r31,ch+11+1
 406 0052 8089      		ldd r24,Z+16
 407 0054 9189      		ldd r25,Z+17
 408               	.LVL32:
 409               	/* epilogue start */
 410               	.LBE122:
 411               	.LBE121:
 412               		.loc 1 214 0
 413 0056 DF91      		pop r29
 414 0058 CF91      		pop r28
 415 005a 0895      		ret
 416               		.cfi_endproc
 417               	.LFE117:
 419               		.section	.text.chSemWaitTimeout,"ax",@progbits
 420               	.global	chSemWaitTimeout
 422               	chSemWaitTimeout:
 423               	.LFB118:
 215:../../../os/rt/src/chsem.c **** 
 216:../../../os/rt/src/chsem.c **** /**
 217:../../../os/rt/src/chsem.c ****  * @brief   Performs a wait operation on a semaphore with timeout specification.
 218:../../../os/rt/src/chsem.c ****  *
 219:../../../os/rt/src/chsem.c ****  * @param[in] sp        pointer to a @p semaphore_t structure
 220:../../../os/rt/src/chsem.c ****  * @param[in] time      the number of ticks before the operation timeouts,
 221:../../../os/rt/src/chsem.c ****  *                      the following special values are allowed:
 222:../../../os/rt/src/chsem.c ****  *                      - @a TIME_IMMEDIATE immediate timeout.
 223:../../../os/rt/src/chsem.c ****  *                      - @a TIME_INFINITE no timeout.
 224:../../../os/rt/src/chsem.c ****  *                      .
 225:../../../os/rt/src/chsem.c ****  * @return              A message specifying how the invoking thread has been
 226:../../../os/rt/src/chsem.c ****  *                      released from the semaphore.
 227:../../../os/rt/src/chsem.c ****  * @retval MSG_OK       if the thread has not stopped on the semaphore or the
 228:../../../os/rt/src/chsem.c ****  *                      semaphore has been signaled.
 229:../../../os/rt/src/chsem.c ****  * @retval MSG_RESET    if the semaphore has been reset using @p chSemReset().
 230:../../../os/rt/src/chsem.c ****  * @retval MSG_TIMEOUT  if the semaphore has not been signaled or reset within
 231:../../../os/rt/src/chsem.c ****  *                      the specified timeout.
 232:../../../os/rt/src/chsem.c ****  *
 233:../../../os/rt/src/chsem.c ****  * @api
 234:../../../os/rt/src/chsem.c ****  */
 235:../../../os/rt/src/chsem.c **** msg_t chSemWaitTimeout(semaphore_t *sp, systime_t time) {
 424               		.loc 1 235 0
 425               		.cfi_startproc
 426               	.LVL33:
 427 0000 CF93      		push r28
 428               	.LCFI9:
 429               		.cfi_def_cfa_offset 4
 430               		.cfi_offset 28, -3
 431 0002 DF93      		push r29
 432               	.LCFI10:
 433               		.cfi_def_cfa_offset 5
 434               		.cfi_offset 29, -4
 435               	/* prologue: function */
 436               	/* frame size = 0 */
 437               	/* stack size = 2 */
 438               	.L__stack_usage = 2
 439 0004 FC01      		movw r30,r24
 440               	.LBB138:
 441               	.LBB139:
 442               	.LBB140:
 437:../../../os/common/ports/AVR/chcore.h **** }
 443               		.loc 3 437 0
 444               	/* #APP */
 445               	 ;  437 "../../../os/common/ports/AVR/chcore.h" 1
 446 0006 F894      		cli
 447               	 ;  0 "" 2
 448               	.LVL34:
 449               	/* #NOAPP */
 450               	.LBE140:
 451               	.LBE139:
 452               	.LBE138:
 453               	.LBB141:
 454               	.LBB142:
 236:../../../os/rt/src/chsem.c ****   msg_t msg;
 237:../../../os/rt/src/chsem.c **** 
 238:../../../os/rt/src/chsem.c ****   chSysLock();
 239:../../../os/rt/src/chsem.c ****   msg = chSemWaitTimeoutS(sp, time);
 240:../../../os/rt/src/chsem.c ****   chSysUnlock();
 241:../../../os/rt/src/chsem.c **** 
 242:../../../os/rt/src/chsem.c ****   return msg;
 243:../../../os/rt/src/chsem.c **** }
 244:../../../os/rt/src/chsem.c **** 
 245:../../../os/rt/src/chsem.c **** /**
 246:../../../os/rt/src/chsem.c ****  * @brief   Performs a wait operation on a semaphore with timeout specification.
 247:../../../os/rt/src/chsem.c ****  *
 248:../../../os/rt/src/chsem.c ****  * @param[in] sp        pointer to a @p semaphore_t structure
 249:../../../os/rt/src/chsem.c ****  * @param[in] time      the number of ticks before the operation timeouts,
 250:../../../os/rt/src/chsem.c ****  *                      the following special values are allowed:
 251:../../../os/rt/src/chsem.c ****  *                      - @a TIME_IMMEDIATE immediate timeout.
 252:../../../os/rt/src/chsem.c ****  *                      - @a TIME_INFINITE no timeout.
 253:../../../os/rt/src/chsem.c ****  *                      .
 254:../../../os/rt/src/chsem.c ****  * @return              A message specifying how the invoking thread has been
 255:../../../os/rt/src/chsem.c ****  *                      released from the semaphore.
 256:../../../os/rt/src/chsem.c ****  * @retval MSG_OK       if the thread has not stopped on the semaphore or the
 257:../../../os/rt/src/chsem.c ****  *                      semaphore has been signaled.
 258:../../../os/rt/src/chsem.c ****  * @retval MSG_RESET    if the semaphore has been reset using @p chSemReset().
 259:../../../os/rt/src/chsem.c ****  * @retval MSG_TIMEOUT  if the semaphore has not been signaled or reset within
 260:../../../os/rt/src/chsem.c ****  *                      the specified timeout.
 261:../../../os/rt/src/chsem.c ****  *
 262:../../../os/rt/src/chsem.c ****  * @sclass
 263:../../../os/rt/src/chsem.c ****  */
 264:../../../os/rt/src/chsem.c **** msg_t chSemWaitTimeoutS(semaphore_t *sp, systime_t time) {
 265:../../../os/rt/src/chsem.c **** 
 266:../../../os/rt/src/chsem.c ****   chDbgCheckClassS();
 267:../../../os/rt/src/chsem.c ****   chDbgCheck(sp != NULL);
 268:../../../os/rt/src/chsem.c ****   chDbgAssert(((sp->cnt >= (cnt_t)0) && queue_isempty(&sp->queue)) ||
 269:../../../os/rt/src/chsem.c ****               ((sp->cnt < (cnt_t)0) && queue_notempty(&sp->queue)),
 270:../../../os/rt/src/chsem.c ****               "inconsistent semaphore");
 271:../../../os/rt/src/chsem.c **** 
 272:../../../os/rt/src/chsem.c ****   if (--sp->cnt < (cnt_t)0) {
 455               		.loc 1 272 0
 456 0008 9481      		ldd r25,Z+4
 457 000a 8FEF      		ldi r24,lo8(-1)
 458               	.LVL35:
 459 000c 890F      		add r24,r25
 460 000e 8483      		std Z+4,r24
 461 0010 87FD      		sbrc r24,7
 462 0012 00C0      		rjmp .L22
 273:../../../os/rt/src/chsem.c ****     if (TIME_IMMEDIATE == time) {
 274:../../../os/rt/src/chsem.c ****       sp->cnt++;
 275:../../../os/rt/src/chsem.c **** 
 276:../../../os/rt/src/chsem.c ****       return MSG_TIMEOUT;
 277:../../../os/rt/src/chsem.c ****     }
 278:../../../os/rt/src/chsem.c ****     currp->u.wtsemp = sp;
 279:../../../os/rt/src/chsem.c ****     sem_insert(currp, &sp->queue);
 280:../../../os/rt/src/chsem.c **** 
 281:../../../os/rt/src/chsem.c ****     return chSchGoSleepTimeoutS(CH_STATE_WTSEM, time);
 282:../../../os/rt/src/chsem.c ****   }
 283:../../../os/rt/src/chsem.c **** 
 284:../../../os/rt/src/chsem.c ****   return MSG_OK;
 463               		.loc 1 284 0
 464 0014 80E0      		ldi r24,0
 465 0016 90E0      		ldi r25,0
 466               	.L19:
 467               	.LVL36:
 468               	.LBE142:
 469               	.LBE141:
 470               	.LBB149:
 471               	.LBB150:
 472               	.LBB151:
 473               	.LBB152:
 474               		.loc 3 447 0
 475               	/* #APP */
 476               	 ;  447 "../../../os/common/ports/AVR/chcore.h" 1
 477 0018 7894      		sei
 478               	 ;  0 "" 2
 479               	/* epilogue start */
 480               	/* #NOAPP */
 481               	.LBE152:
 482               	.LBE151:
 483               	.LBE150:
 484               	.LBE149:
 243:../../../os/rt/src/chsem.c **** 
 485               		.loc 1 243 0
 486 001a DF91      		pop r29
 487 001c CF91      		pop r28
 488 001e 0895      		ret
 489               	.LVL37:
 490               	.L22:
 491               	.LBB156:
 492               	.LBB147:
 273:../../../os/rt/src/chsem.c ****     if (TIME_IMMEDIATE == time) {
 493               		.loc 1 273 0
 494 0020 6115      		cp r22,__zero_reg__
 495 0022 7105      		cpc r23,__zero_reg__
 496 0024 01F0      		breq .L23
 497               	.LVL38:
 498               	.LBB143:
 499               	.LBB144:
 278:../../../os/rt/src/chsem.c ****     sem_insert(currp, &sp->queue);
 500               		.loc 1 278 0
 501 0026 A091 0000 		lds r26,ch+11
 502 002a B091 0000 		lds r27,ch+11+1
 503 002e 5196      		adiw r26,16+1
 504 0030 FC93      		st X,r31
 505 0032 EE93      		st -X,r30
 506 0034 5097      		sbiw r26,16
 507               	.LVL39:
 508               	.LBB145:
 509               	.LBB146:
 611:../../../os/rt/include/chschd.h ****   tp->queue.prev             = tqp->prev;
 510               		.loc 2 611 0
 511 0036 1196      		adiw r26,1
 512 0038 FC93      		st X,r31
 513 003a EE93      		st -X,r30
 612:../../../os/rt/include/chschd.h ****   tp->queue.prev->queue.next = tp;
 514               		.loc 2 612 0
 515 003c C281      		ldd r28,Z+2
 516 003e D381      		ldd r29,Z+3
 517 0040 1396      		adiw r26,2+1
 518 0042 DC93      		st X,r29
 519 0044 CE93      		st -X,r28
 520 0046 1297      		sbiw r26,2
 613:../../../os/rt/include/chschd.h ****   tqp->prev                  = tp;
 521               		.loc 2 613 0
 522 0048 B983      		std Y+1,r27
 523 004a A883      		st Y,r26
 614:../../../os/rt/include/chschd.h **** }
 524               		.loc 2 614 0
 525 004c B383      		std Z+3,r27
 526 004e A283      		std Z+2,r26
 527               	.LVL40:
 528               	.LBE146:
 529               	.LBE145:
 281:../../../os/rt/src/chsem.c ****   }
 530               		.loc 1 281 0
 531 0050 85E0      		ldi r24,lo8(5)
 532 0052 0E94 0000 		call chSchGoSleepTimeoutS
 533               	.LVL41:
 534               	.LBE144:
 535               	.LBE143:
 536               	.LBE147:
 537               	.LBE156:
 538               	.LBB157:
 539               	.LBB155:
 540               	.LBB154:
 541               	.LBB153:
 542               		.loc 3 447 0
 543               	/* #APP */
 544               	 ;  447 "../../../os/common/ports/AVR/chcore.h" 1
 545 0056 7894      		sei
 546               	 ;  0 "" 2
 547               	/* epilogue start */
 548               	/* #NOAPP */
 549               	.LBE153:
 550               	.LBE154:
 551               	.LBE155:
 552               	.LBE157:
 243:../../../os/rt/src/chsem.c **** 
 553               		.loc 1 243 0
 554 0058 DF91      		pop r29
 555 005a CF91      		pop r28
 556 005c 0895      		ret
 557               	.LVL42:
 558               	.L23:
 559               	.LBB158:
 560               	.LBB148:
 274:../../../os/rt/src/chsem.c **** 
 561               		.loc 1 274 0
 562 005e 9483      		std Z+4,r25
 276:../../../os/rt/src/chsem.c ****     }
 563               		.loc 1 276 0
 564 0060 8FEF      		ldi r24,lo8(-1)
 565 0062 9FEF      		ldi r25,lo8(-1)
 566 0064 00C0      		rjmp .L19
 567               	.LBE148:
 568               	.LBE158:
 569               		.cfi_endproc
 570               	.LFE118:
 572               		.section	.text.chSemWaitTimeoutS,"ax",@progbits
 573               	.global	chSemWaitTimeoutS
 575               	chSemWaitTimeoutS:
 576               	.LFB119:
 264:../../../os/rt/src/chsem.c **** 
 577               		.loc 1 264 0
 578               		.cfi_startproc
 579               	.LVL43:
 580 0000 CF93      		push r28
 581               	.LCFI11:
 582               		.cfi_def_cfa_offset 4
 583               		.cfi_offset 28, -3
 584 0002 DF93      		push r29
 585               	.LCFI12:
 586               		.cfi_def_cfa_offset 5
 587               		.cfi_offset 29, -4
 588               	/* prologue: function */
 589               	/* frame size = 0 */
 590               	/* stack size = 2 */
 591               	.L__stack_usage = 2
 592 0004 FC01      		movw r30,r24
 272:../../../os/rt/src/chsem.c ****     if (TIME_IMMEDIATE == time) {
 593               		.loc 1 272 0
 594 0006 9481      		ldd r25,Z+4
 595 0008 8FEF      		ldi r24,lo8(-1)
 596               	.LVL44:
 597 000a 890F      		add r24,r25
 598 000c 8483      		std Z+4,r24
 599 000e 87FD      		sbrc r24,7
 600 0010 00C0      		rjmp .L28
 601               		.loc 1 284 0
 602 0012 80E0      		ldi r24,0
 603 0014 90E0      		ldi r25,0
 604               	.L25:
 605               	/* epilogue start */
 285:../../../os/rt/src/chsem.c **** }
 606               		.loc 1 285 0
 607 0016 DF91      		pop r29
 608 0018 CF91      		pop r28
 609 001a 0895      		ret
 610               	.L28:
 273:../../../os/rt/src/chsem.c ****       sp->cnt++;
 611               		.loc 1 273 0
 612 001c 6115      		cp r22,__zero_reg__
 613 001e 7105      		cpc r23,__zero_reg__
 614 0020 01F0      		breq .L29
 615               	.LVL45:
 616               	.LBB163:
 617               	.LBB164:
 278:../../../os/rt/src/chsem.c ****     sem_insert(currp, &sp->queue);
 618               		.loc 1 278 0
 619 0022 A091 0000 		lds r26,ch+11
 620 0026 B091 0000 		lds r27,ch+11+1
 621 002a 5196      		adiw r26,16+1
 622 002c FC93      		st X,r31
 623 002e EE93      		st -X,r30
 624 0030 5097      		sbiw r26,16
 625               	.LVL46:
 626               	.LBB165:
 627               	.LBB166:
 611:../../../os/rt/include/chschd.h ****   tp->queue.prev             = tqp->prev;
 628               		.loc 2 611 0
 629 0032 1196      		adiw r26,1
 630 0034 FC93      		st X,r31
 631 0036 EE93      		st -X,r30
 612:../../../os/rt/include/chschd.h ****   tp->queue.prev->queue.next = tp;
 632               		.loc 2 612 0
 633 0038 C281      		ldd r28,Z+2
 634 003a D381      		ldd r29,Z+3
 635 003c 1396      		adiw r26,2+1
 636 003e DC93      		st X,r29
 637 0040 CE93      		st -X,r28
 638 0042 1297      		sbiw r26,2
 613:../../../os/rt/include/chschd.h ****   tqp->prev                  = tp;
 639               		.loc 2 613 0
 640 0044 B983      		std Y+1,r27
 641 0046 A883      		st Y,r26
 614:../../../os/rt/include/chschd.h **** }
 642               		.loc 2 614 0
 643 0048 B383      		std Z+3,r27
 644 004a A283      		std Z+2,r26
 645               	.LVL47:
 646               	.LBE166:
 647               	.LBE165:
 281:../../../os/rt/src/chsem.c ****   }
 648               		.loc 1 281 0
 649 004c 85E0      		ldi r24,lo8(5)
 650               	/* epilogue start */
 651               	.LBE164:
 652               	.LBE163:
 653               		.loc 1 285 0
 654 004e DF91      		pop r29
 655 0050 CF91      		pop r28
 656               	.LBB168:
 657               	.LBB167:
 281:../../../os/rt/src/chsem.c ****   }
 658               		.loc 1 281 0
 659 0052 0C94 0000 		jmp chSchGoSleepTimeoutS
 660               	.LVL48:
 661               	.L29:
 662               	.LBE167:
 663               	.LBE168:
 274:../../../os/rt/src/chsem.c **** 
 664               		.loc 1 274 0
 665 0056 9483      		std Z+4,r25
 276:../../../os/rt/src/chsem.c ****     }
 666               		.loc 1 276 0
 667 0058 8FEF      		ldi r24,lo8(-1)
 668 005a 9FEF      		ldi r25,lo8(-1)
 669 005c 00C0      		rjmp .L25
 670               		.cfi_endproc
 671               	.LFE119:
 673               		.section	.text.chSemSignal,"ax",@progbits
 674               	.global	chSemSignal
 676               	chSemSignal:
 677               	.LFB120:
 286:../../../os/rt/src/chsem.c **** 
 287:../../../os/rt/src/chsem.c **** /**
 288:../../../os/rt/src/chsem.c ****  * @brief   Performs a signal operation on a semaphore.
 289:../../../os/rt/src/chsem.c ****  *
 290:../../../os/rt/src/chsem.c ****  * @param[in] sp        pointer to a @p semaphore_t structure
 291:../../../os/rt/src/chsem.c ****  *
 292:../../../os/rt/src/chsem.c ****  * @api
 293:../../../os/rt/src/chsem.c ****  */
 294:../../../os/rt/src/chsem.c **** void chSemSignal(semaphore_t *sp) {
 678               		.loc 1 294 0
 679               		.cfi_startproc
 680               	.LVL49:
 681 0000 CF93      		push r28
 682               	.LCFI13:
 683               		.cfi_def_cfa_offset 4
 684               		.cfi_offset 28, -3
 685 0002 DF93      		push r29
 686               	.LCFI14:
 687               		.cfi_def_cfa_offset 5
 688               		.cfi_offset 29, -4
 689               	/* prologue: function */
 690               	/* frame size = 0 */
 691               	/* stack size = 2 */
 692               	.L__stack_usage = 2
 693 0004 FC01      		movw r30,r24
 694               	.LBB169:
 695               	.LBB170:
 696               	.LBB171:
 437:../../../os/common/ports/AVR/chcore.h **** }
 697               		.loc 3 437 0
 698               	/* #APP */
 699               	 ;  437 "../../../os/common/ports/AVR/chcore.h" 1
 700 0006 F894      		cli
 701               	 ;  0 "" 2
 702               	/* #NOAPP */
 703               	.LBE171:
 704               	.LBE170:
 705               	.LBE169:
 295:../../../os/rt/src/chsem.c **** 
 296:../../../os/rt/src/chsem.c ****   chDbgCheck(sp != NULL);
 297:../../../os/rt/src/chsem.c ****   chDbgAssert(((sp->cnt >= (cnt_t)0) && queue_isempty(&sp->queue)) ||
 298:../../../os/rt/src/chsem.c ****               ((sp->cnt < (cnt_t)0) && queue_notempty(&sp->queue)),
 299:../../../os/rt/src/chsem.c ****               "inconsistent semaphore");
 300:../../../os/rt/src/chsem.c **** 
 301:../../../os/rt/src/chsem.c ****   chSysLock();
 302:../../../os/rt/src/chsem.c ****   if (++sp->cnt <= (cnt_t)0) {
 706               		.loc 1 302 0
 707 0008 9481      		ldd r25,Z+4
 708 000a 9F5F      		subi r25,lo8(-(1))
 709 000c 9483      		std Z+4,r25
 710 000e 1916      		cp __zero_reg__,r25
 711 0010 04F4      		brge .L32
 712               	.LBB172:
 713               	.LBB173:
 714               	.LBB174:
 715               	.LBB175:
 716               		.loc 3 447 0
 717               	/* #APP */
 718               	 ;  447 "../../../os/common/ports/AVR/chcore.h" 1
 719 0012 7894      		sei
 720               	 ;  0 "" 2
 721               	/* epilogue start */
 722               	/* #NOAPP */
 723               	.LBE175:
 724               	.LBE174:
 725               	.LBE173:
 726               	.LBE172:
 303:../../../os/rt/src/chsem.c ****     chSchWakeupS(queue_fifo_remove(&sp->queue), MSG_OK);
 304:../../../os/rt/src/chsem.c ****   }
 305:../../../os/rt/src/chsem.c ****   chSysUnlock();
 306:../../../os/rt/src/chsem.c **** }
 727               		.loc 1 306 0
 728 0014 DF91      		pop r29
 729 0016 CF91      		pop r28
 730 0018 0895      		ret
 731               	.L32:
 732               	.LVL50:
 733               	.LBB179:
 734               	.LBB180:
 618:../../../os/rt/include/chschd.h **** 
 735               		.loc 2 618 0
 736 001a 8081      		ld r24,Z
 737 001c 9181      		ldd r25,Z+1
 738               	.LVL51:
 620:../../../os/rt/include/chschd.h ****   tqp->next->queue.prev = (thread_t *)tqp;
 739               		.loc 2 620 0
 740 001e EC01      		movw r28,r24
 741 0020 A881      		ld r26,Y
 742 0022 B981      		ldd r27,Y+1
 743 0024 B183      		std Z+1,r27
 744 0026 A083      		st Z,r26
 621:../../../os/rt/include/chschd.h **** 
 745               		.loc 2 621 0
 746 0028 1396      		adiw r26,2+1
 747 002a FC93      		st X,r31
 748 002c EE93      		st -X,r30
 749 002e 1297      		sbiw r26,2
 750               	.LVL52:
 751               	.LBE180:
 752               	.LBE179:
 303:../../../os/rt/src/chsem.c ****   }
 753               		.loc 1 303 0
 754 0030 60E0      		ldi r22,0
 755 0032 70E0      		ldi r23,0
 756 0034 0E94 0000 		call chSchWakeupS
 757               	.LVL53:
 758               	.LBB181:
 759               	.LBB178:
 760               	.LBB177:
 761               	.LBB176:
 762               		.loc 3 447 0
 763               	/* #APP */
 764               	 ;  447 "../../../os/common/ports/AVR/chcore.h" 1
 765 0038 7894      		sei
 766               	 ;  0 "" 2
 767               	/* epilogue start */
 768               	/* #NOAPP */
 769               	.LBE176:
 770               	.LBE177:
 771               	.LBE178:
 772               	.LBE181:
 773               		.loc 1 306 0
 774 003a DF91      		pop r29
 775 003c CF91      		pop r28
 776 003e 0895      		ret
 777               		.cfi_endproc
 778               	.LFE120:
 780               		.section	.text.chSemSignalI,"ax",@progbits
 781               	.global	chSemSignalI
 783               	chSemSignalI:
 784               	.LFB121:
 307:../../../os/rt/src/chsem.c **** 
 308:../../../os/rt/src/chsem.c **** /**
 309:../../../os/rt/src/chsem.c ****  * @brief   Performs a signal operation on a semaphore.
 310:../../../os/rt/src/chsem.c ****  * @post    This function does not reschedule so a call to a rescheduling
 311:../../../os/rt/src/chsem.c ****  *          function must be performed before unlocking the kernel. Note that
 312:../../../os/rt/src/chsem.c ****  *          interrupt handlers always reschedule on exit so an explicit
 313:../../../os/rt/src/chsem.c ****  *          reschedule must not be performed in ISRs.
 314:../../../os/rt/src/chsem.c ****  *
 315:../../../os/rt/src/chsem.c ****  * @param[in] sp    pointer to a @p semaphore_t structure
 316:../../../os/rt/src/chsem.c ****  *
 317:../../../os/rt/src/chsem.c ****  * @iclass
 318:../../../os/rt/src/chsem.c ****  */
 319:../../../os/rt/src/chsem.c **** void chSemSignalI(semaphore_t *sp) {
 785               		.loc 1 319 0
 786               		.cfi_startproc
 787               	.LVL54:
 788 0000 CF93      		push r28
 789               	.LCFI15:
 790               		.cfi_def_cfa_offset 4
 791               		.cfi_offset 28, -3
 792 0002 DF93      		push r29
 793               	.LCFI16:
 794               		.cfi_def_cfa_offset 5
 795               		.cfi_offset 29, -4
 796               	/* prologue: function */
 797               	/* frame size = 0 */
 798               	/* stack size = 2 */
 799               	.L__stack_usage = 2
 800 0004 FC01      		movw r30,r24
 320:../../../os/rt/src/chsem.c **** 
 321:../../../os/rt/src/chsem.c ****   chDbgCheckClassI();
 322:../../../os/rt/src/chsem.c ****   chDbgCheck(sp != NULL);
 323:../../../os/rt/src/chsem.c ****   chDbgAssert(((sp->cnt >= (cnt_t)0) && queue_isempty(&sp->queue)) ||
 324:../../../os/rt/src/chsem.c ****               ((sp->cnt < (cnt_t)0) && queue_notempty(&sp->queue)),
 325:../../../os/rt/src/chsem.c ****               "inconsistent semaphore");
 326:../../../os/rt/src/chsem.c **** 
 327:../../../os/rt/src/chsem.c ****   if (++sp->cnt <= (cnt_t)0) {
 801               		.loc 1 327 0
 802 0006 9481      		ldd r25,Z+4
 803 0008 9F5F      		subi r25,lo8(-(1))
 804 000a 9483      		std Z+4,r25
 805 000c 1916      		cp __zero_reg__,r25
 806 000e 04F4      		brge .L35
 807               	/* epilogue start */
 328:../../../os/rt/src/chsem.c ****     /* Note, it is done this way in order to allow a tail call on
 329:../../../os/rt/src/chsem.c ****              chSchReadyI().*/
 330:../../../os/rt/src/chsem.c ****     thread_t *tp = queue_fifo_remove(&sp->queue);
 331:../../../os/rt/src/chsem.c ****     tp->u.rdymsg = MSG_OK;
 332:../../../os/rt/src/chsem.c ****     (void) chSchReadyI(tp);
 333:../../../os/rt/src/chsem.c ****   }
 334:../../../os/rt/src/chsem.c **** }
 808               		.loc 1 334 0
 809 0010 DF91      		pop r29
 810 0012 CF91      		pop r28
 811 0014 0895      		ret
 812               	.L35:
 813               	.LVL55:
 814               	.LBB182:
 815               	.LBB183:
 816               	.LBB184:
 618:../../../os/rt/include/chschd.h **** 
 817               		.loc 2 618 0
 818 0016 8081      		ld r24,Z
 819 0018 9181      		ldd r25,Z+1
 820               	.LVL56:
 620:../../../os/rt/include/chschd.h ****   tqp->next->queue.prev = (thread_t *)tqp;
 821               		.loc 2 620 0
 822 001a EC01      		movw r28,r24
 823 001c A881      		ld r26,Y
 824 001e B981      		ldd r27,Y+1
 825 0020 B183      		std Z+1,r27
 826 0022 A083      		st Z,r26
 621:../../../os/rt/include/chschd.h **** 
 827               		.loc 2 621 0
 828 0024 1396      		adiw r26,2+1
 829 0026 FC93      		st X,r31
 830 0028 EE93      		st -X,r30
 831 002a 1297      		sbiw r26,2
 832               	.LVL57:
 833               	.LBE184:
 834               	.LBE183:
 331:../../../os/rt/src/chsem.c ****     (void) chSchReadyI(tp);
 835               		.loc 1 331 0
 836 002c 198A      		std Y+17,__zero_reg__
 837 002e 188A      		std Y+16,__zero_reg__
 838               	/* epilogue start */
 839               	.LBE182:
 840               		.loc 1 334 0
 841 0030 DF91      		pop r29
 842 0032 CF91      		pop r28
 843               	.LBB185:
 332:../../../os/rt/src/chsem.c ****   }
 844               		.loc 1 332 0
 845 0034 0C94 0000 		jmp chSchReadyI
 846               	.LVL58:
 847               	.LBE185:
 848               		.cfi_endproc
 849               	.LFE121:
 851               		.section	.text.chSemAddCounterI,"ax",@progbits
 852               	.global	chSemAddCounterI
 854               	chSemAddCounterI:
 855               	.LFB122:
 335:../../../os/rt/src/chsem.c **** 
 336:../../../os/rt/src/chsem.c **** /**
 337:../../../os/rt/src/chsem.c ****  * @brief   Adds the specified value to the semaphore counter.
 338:../../../os/rt/src/chsem.c ****  * @post    This function does not reschedule so a call to a rescheduling
 339:../../../os/rt/src/chsem.c ****  *          function must be performed before unlocking the kernel. Note that
 340:../../../os/rt/src/chsem.c ****  *          interrupt handlers always reschedule on exit so an explicit
 341:../../../os/rt/src/chsem.c ****  *          reschedule must not be performed in ISRs.
 342:../../../os/rt/src/chsem.c ****  *
 343:../../../os/rt/src/chsem.c ****  * @param[in] sp        pointer to a @p semaphore_t structure
 344:../../../os/rt/src/chsem.c ****  * @param[in] n         value to be added to the semaphore counter. The value
 345:../../../os/rt/src/chsem.c ****  *                      must be positive.
 346:../../../os/rt/src/chsem.c ****  *
 347:../../../os/rt/src/chsem.c ****  * @iclass
 348:../../../os/rt/src/chsem.c ****  */
 349:../../../os/rt/src/chsem.c **** void chSemAddCounterI(semaphore_t *sp, cnt_t n) {
 856               		.loc 1 349 0
 857               		.cfi_startproc
 858               	.LVL59:
 859 0000 0F93      		push r16
 860               	.LCFI17:
 861               		.cfi_def_cfa_offset 4
 862               		.cfi_offset 16, -3
 863 0002 1F93      		push r17
 864               	.LCFI18:
 865               		.cfi_def_cfa_offset 5
 866               		.cfi_offset 17, -4
 867 0004 CF93      		push r28
 868               	.LCFI19:
 869               		.cfi_def_cfa_offset 6
 870               		.cfi_offset 28, -5
 871               	/* prologue: function */
 872               	/* frame size = 0 */
 873               	/* stack size = 3 */
 874               	.L__stack_usage = 3
 875 0006 8C01      		movw r16,r24
 876 0008 C62F      		mov r28,r22
 350:../../../os/rt/src/chsem.c **** 
 351:../../../os/rt/src/chsem.c ****   chDbgCheckClassI();
 352:../../../os/rt/src/chsem.c ****   chDbgCheck((sp != NULL) && (n > (cnt_t)0));
 353:../../../os/rt/src/chsem.c ****   chDbgAssert(((sp->cnt >= (cnt_t)0) && queue_isempty(&sp->queue)) ||
 354:../../../os/rt/src/chsem.c ****               ((sp->cnt < (cnt_t)0) && queue_notempty(&sp->queue)),
 355:../../../os/rt/src/chsem.c ****               "inconsistent semaphore");
 356:../../../os/rt/src/chsem.c **** 
 357:../../../os/rt/src/chsem.c ****   while (n > (cnt_t)0) {
 877               		.loc 1 357 0
 878 000a 1616      		cp __zero_reg__,r22
 879 000c 04F0      		brlt .L41
 880 000e 00C0      		rjmp .L36
 881               	.LVL60:
 882               	.L38:
 883 0010 C150      		subi r28,lo8(-(-1))
 884               	.LVL61:
 885 0012 01F0      		breq .L36
 886               	.L41:
 358:../../../os/rt/src/chsem.c ****     if (++sp->cnt <= (cnt_t)0) {
 887               		.loc 1 358 0
 888 0014 D801      		movw r26,r16
 889 0016 1496      		adiw r26,4
 890 0018 8C91      		ld r24,X
 891 001a 1497      		sbiw r26,4
 892 001c 8F5F      		subi r24,lo8(-(1))
 893 001e 1496      		adiw r26,4
 894 0020 8C93      		st X,r24
 895 0022 1497      		sbiw r26,4
 896 0024 1816      		cp __zero_reg__,r24
 897 0026 04F0      		brlt .L38
 898               	.LVL62:
 899               	.LBB186:
 900               	.LBB187:
 618:../../../os/rt/include/chschd.h **** 
 901               		.loc 2 618 0
 902 0028 8D91      		ld r24,X+
 903 002a 9C91      		ld r25,X
 904               	.LVL63:
 620:../../../os/rt/include/chschd.h ****   tqp->next->queue.prev = (thread_t *)tqp;
 905               		.loc 2 620 0
 906 002c DC01      		movw r26,r24
 907 002e ED91      		ld r30,X+
 908 0030 FC91      		ld r31,X
 909 0032 D801      		movw r26,r16
 910 0034 ED93      		st X+,r30
 911 0036 FC93      		st X,r31
 621:../../../os/rt/include/chschd.h **** 
 912               		.loc 2 621 0
 913 0038 1383      		std Z+3,r17
 914 003a 0283      		std Z+2,r16
 915               	.LVL64:
 916               	.LBE187:
 917               	.LBE186:
 359:../../../os/rt/src/chsem.c ****       chSchReadyI(queue_fifo_remove(&sp->queue))->u.rdymsg = MSG_OK;
 918               		.loc 1 359 0
 919 003c 0E94 0000 		call chSchReadyI
 920               	.LVL65:
 921 0040 FC01      		movw r30,r24
 922 0042 118A      		std Z+17,__zero_reg__
 923 0044 108A      		std Z+16,__zero_reg__
 924 0046 C150      		subi r28,lo8(-(-1))
 925               	.LVL66:
 357:../../../os/rt/src/chsem.c ****     if (++sp->cnt <= (cnt_t)0) {
 926               		.loc 1 357 0
 927 0048 01F4      		brne .L41
 928               	.L36:
 929               	/* epilogue start */
 360:../../../os/rt/src/chsem.c ****     }
 361:../../../os/rt/src/chsem.c ****     n--;
 362:../../../os/rt/src/chsem.c ****   }
 363:../../../os/rt/src/chsem.c **** }
 930               		.loc 1 363 0
 931 004a CF91      		pop r28
 932               	.LVL67:
 933 004c 1F91      		pop r17
 934 004e 0F91      		pop r16
 935               	.LVL68:
 936 0050 0895      		ret
 937               		.cfi_endproc
 938               	.LFE122:
 940               		.section	.text.chSemSignalWait,"ax",@progbits
 941               	.global	chSemSignalWait
 943               	chSemSignalWait:
 944               	.LFB123:
 364:../../../os/rt/src/chsem.c **** 
 365:../../../os/rt/src/chsem.c **** /**
 366:../../../os/rt/src/chsem.c ****  * @brief   Performs atomic signal and wait operations on two semaphores.
 367:../../../os/rt/src/chsem.c ****  *
 368:../../../os/rt/src/chsem.c ****  * @param[in] sps       pointer to a @p semaphore_t structure to be signaled
 369:../../../os/rt/src/chsem.c ****  * @param[in] spw       pointer to a @p semaphore_t structure to wait on
 370:../../../os/rt/src/chsem.c ****  * @return              A message specifying how the invoking thread has been
 371:../../../os/rt/src/chsem.c ****  *                      released from the semaphore.
 372:../../../os/rt/src/chsem.c ****  * @retval MSG_OK       if the thread has not stopped on the semaphore or the
 373:../../../os/rt/src/chsem.c ****  *                      semaphore has been signaled.
 374:../../../os/rt/src/chsem.c ****  * @retval MSG_RESET    if the semaphore has been reset using @p chSemReset().
 375:../../../os/rt/src/chsem.c ****  *
 376:../../../os/rt/src/chsem.c ****  * @api
 377:../../../os/rt/src/chsem.c ****  */
 378:../../../os/rt/src/chsem.c **** msg_t chSemSignalWait(semaphore_t *sps, semaphore_t *spw) {
 945               		.loc 1 378 0
 946               		.cfi_startproc
 947               	.LVL69:
 948 0000 0F93      		push r16
 949               	.LCFI20:
 950               		.cfi_def_cfa_offset 4
 951               		.cfi_offset 16, -3
 952 0002 1F93      		push r17
 953               	.LCFI21:
 954               		.cfi_def_cfa_offset 5
 955               		.cfi_offset 17, -4
 956 0004 CF93      		push r28
 957               	.LCFI22:
 958               		.cfi_def_cfa_offset 6
 959               		.cfi_offset 28, -5
 960 0006 DF93      		push r29
 961               	.LCFI23:
 962               		.cfi_def_cfa_offset 7
 963               		.cfi_offset 29, -6
 964               	/* prologue: function */
 965               	/* frame size = 0 */
 966               	/* stack size = 4 */
 967               	.L__stack_usage = 4
 968 0008 FC01      		movw r30,r24
 969 000a EB01      		movw r28,r22
 970               	.LBB188:
 971               	.LBB189:
 972               	.LBB190:
 437:../../../os/common/ports/AVR/chcore.h **** }
 973               		.loc 3 437 0
 974               	/* #APP */
 975               	 ;  437 "../../../os/common/ports/AVR/chcore.h" 1
 976 000c F894      		cli
 977               	 ;  0 "" 2
 978               	/* #NOAPP */
 979               	.LBE190:
 980               	.LBE189:
 981               	.LBE188:
 379:../../../os/rt/src/chsem.c ****   msg_t msg;
 380:../../../os/rt/src/chsem.c **** 
 381:../../../os/rt/src/chsem.c ****   chDbgCheck((sps != NULL) && (spw != NULL));
 382:../../../os/rt/src/chsem.c ****   chDbgAssert(((sps->cnt >= (cnt_t)0) && queue_isempty(&sps->queue)) ||
 383:../../../os/rt/src/chsem.c ****               ((sps->cnt < (cnt_t)0) && queue_notempty(&sps->queue)),
 384:../../../os/rt/src/chsem.c ****               "inconsistent semaphore");
 385:../../../os/rt/src/chsem.c ****   chDbgAssert(((spw->cnt >= (cnt_t)0) && queue_isempty(&spw->queue)) ||
 386:../../../os/rt/src/chsem.c ****               ((spw->cnt < (cnt_t)0) && queue_notempty(&spw->queue)),
 387:../../../os/rt/src/chsem.c ****               "inconsistent semaphore");
 388:../../../os/rt/src/chsem.c **** 
 389:../../../os/rt/src/chsem.c ****   chSysLock();
 390:../../../os/rt/src/chsem.c ****   if (++sps->cnt <= (cnt_t)0) {
 982               		.loc 1 390 0
 983 000e 9481      		ldd r25,Z+4
 984 0010 9F5F      		subi r25,lo8(-(1))
 985 0012 9483      		std Z+4,r25
 986 0014 1916      		cp __zero_reg__,r25
 987 0016 04F4      		brge .L47
 988               	.LVL70:
 989               	.L44:
 391:../../../os/rt/src/chsem.c ****     chSchReadyI(queue_fifo_remove(&sps->queue))->u.rdymsg = MSG_OK;
 392:../../../os/rt/src/chsem.c ****   }
 393:../../../os/rt/src/chsem.c ****   if (--spw->cnt < (cnt_t)0) {
 990               		.loc 1 393 0
 991 0018 8C81      		ldd r24,Y+4
 992 001a 8150      		subi r24,lo8(-(-1))
 993 001c 8C83      		std Y+4,r24
 994 001e 87FD      		sbrc r24,7
 995 0020 00C0      		rjmp .L48
 394:../../../os/rt/src/chsem.c ****     thread_t *ctp = currp;
 395:../../../os/rt/src/chsem.c ****     sem_insert(ctp, &spw->queue);
 396:../../../os/rt/src/chsem.c ****     ctp->u.wtsemp = spw;
 397:../../../os/rt/src/chsem.c ****     chSchGoSleepS(CH_STATE_WTSEM);
 398:../../../os/rt/src/chsem.c ****     msg = ctp->u.rdymsg;
 399:../../../os/rt/src/chsem.c ****   }
 400:../../../os/rt/src/chsem.c ****   else {
 401:../../../os/rt/src/chsem.c ****     chSchRescheduleS();
 996               		.loc 1 401 0
 997 0022 0E94 0000 		call chSchRescheduleS
 998               	.LVL71:
 402:../../../os/rt/src/chsem.c ****     msg = MSG_OK;
 999               		.loc 1 402 0
 1000 0026 80E0      		ldi r24,0
 1001 0028 90E0      		ldi r25,0
 1002               	.LVL72:
 1003               	.LBB191:
 1004               	.LBB192:
 1005               	.LBB193:
 1006               	.LBB194:
 1007               		.loc 3 447 0
 1008               	/* #APP */
 1009               	 ;  447 "../../../os/common/ports/AVR/chcore.h" 1
 1010 002a 7894      		sei
 1011               	 ;  0 "" 2
 1012               	/* epilogue start */
 1013               	/* #NOAPP */
 1014               	.LBE194:
 1015               	.LBE193:
 1016               	.LBE192:
 1017               	.LBE191:
 403:../../../os/rt/src/chsem.c ****   }
 404:../../../os/rt/src/chsem.c ****   chSysUnlock();
 405:../../../os/rt/src/chsem.c **** 
 406:../../../os/rt/src/chsem.c ****   return msg;
 407:../../../os/rt/src/chsem.c **** }
 1018               		.loc 1 407 0
 1019 002c DF91      		pop r29
 1020 002e CF91      		pop r28
 1021               	.LVL73:
 1022 0030 1F91      		pop r17
 1023 0032 0F91      		pop r16
 1024 0034 0895      		ret
 1025               	.LVL74:
 1026               	.L48:
 1027               	.LBB198:
 394:../../../os/rt/src/chsem.c ****     sem_insert(ctp, &spw->queue);
 1028               		.loc 1 394 0
 1029 0036 0091 0000 		lds r16,ch+11
 1030 003a 1091 0000 		lds r17,ch+11+1
 1031               	.LVL75:
 1032               	.LBB199:
 1033               	.LBB200:
 611:../../../os/rt/include/chschd.h ****   tp->queue.prev             = tqp->prev;
 1034               		.loc 2 611 0
 1035 003e D801      		movw r26,r16
 1036 0040 1196      		adiw r26,1
 1037 0042 DC93      		st X,r29
 1038 0044 CE93      		st -X,r28
 612:../../../os/rt/include/chschd.h ****   tp->queue.prev->queue.next = tp;
 1039               		.loc 2 612 0
 1040 0046 EA81      		ldd r30,Y+2
 1041 0048 FB81      		ldd r31,Y+3
 1042 004a 1396      		adiw r26,2+1
 1043 004c FC93      		st X,r31
 1044 004e EE93      		st -X,r30
 1045 0050 1297      		sbiw r26,2
 613:../../../os/rt/include/chschd.h ****   tqp->prev                  = tp;
 1046               		.loc 2 613 0
 1047 0052 1183      		std Z+1,r17
 1048 0054 0083      		st Z,r16
 614:../../../os/rt/include/chschd.h **** }
 1049               		.loc 2 614 0
 1050 0056 1B83      		std Y+3,r17
 1051 0058 0A83      		std Y+2,r16
 1052               	.LVL76:
 1053               	.LBE200:
 1054               	.LBE199:
 396:../../../os/rt/src/chsem.c ****     chSchGoSleepS(CH_STATE_WTSEM);
 1055               		.loc 1 396 0
 1056 005a 5196      		adiw r26,16+1
 1057 005c DC93      		st X,r29
 1058 005e CE93      		st -X,r28
 1059 0060 5097      		sbiw r26,16
 397:../../../os/rt/src/chsem.c ****     msg = ctp->u.rdymsg;
 1060               		.loc 1 397 0
 1061 0062 85E0      		ldi r24,lo8(5)
 1062 0064 0E94 0000 		call chSchGoSleepS
 1063               	.LVL77:
 398:../../../os/rt/src/chsem.c ****   }
 1064               		.loc 1 398 0
 1065 0068 F801      		movw r30,r16
 1066 006a 8089      		ldd r24,Z+16
 1067 006c 9189      		ldd r25,Z+17
 1068               	.LVL78:
 1069               	.LBE198:
 1070               	.LBB201:
 1071               	.LBB197:
 1072               	.LBB196:
 1073               	.LBB195:
 1074               		.loc 3 447 0
 1075               	/* #APP */
 1076               	 ;  447 "../../../os/common/ports/AVR/chcore.h" 1
 1077 006e 7894      		sei
 1078               	 ;  0 "" 2
 1079               	/* epilogue start */
 1080               	/* #NOAPP */
 1081               	.LBE195:
 1082               	.LBE196:
 1083               	.LBE197:
 1084               	.LBE201:
 1085               		.loc 1 407 0
 1086 0070 DF91      		pop r29
 1087 0072 CF91      		pop r28
 1088               	.LVL79:
 1089 0074 1F91      		pop r17
 1090 0076 0F91      		pop r16
 1091               	.LVL80:
 1092 0078 0895      		ret
 1093               	.LVL81:
 1094               	.L47:
 1095               	.LBB202:
 1096               	.LBB203:
 618:../../../os/rt/include/chschd.h **** 
 1097               		.loc 2 618 0
 1098 007a 8081      		ld r24,Z
 1099 007c 9181      		ldd r25,Z+1
 1100               	.LVL82:
 620:../../../os/rt/include/chschd.h ****   tqp->next->queue.prev = (thread_t *)tqp;
 1101               		.loc 2 620 0
 1102 007e DC01      		movw r26,r24
 1103 0080 2D91      		ld r18,X+
 1104 0082 3C91      		ld r19,X
 1105 0084 3183      		std Z+1,r19
 1106 0086 2083      		st Z,r18
 621:../../../os/rt/include/chschd.h **** 
 1107               		.loc 2 621 0
 1108 0088 D901      		movw r26,r18
 1109 008a 1396      		adiw r26,2+1
 1110 008c FC93      		st X,r31
 1111 008e EE93      		st -X,r30
 1112 0090 1297      		sbiw r26,2
 1113               	.LVL83:
 1114               	.LBE203:
 1115               	.LBE202:
 391:../../../os/rt/src/chsem.c ****   }
 1116               		.loc 1 391 0
 1117 0092 0E94 0000 		call chSchReadyI
 1118               	.LVL84:
 1119 0096 FC01      		movw r30,r24
 1120 0098 118A      		std Z+17,__zero_reg__
 1121 009a 108A      		std Z+16,__zero_reg__
 1122 009c 00C0      		rjmp .L44
 1123               		.cfi_endproc
 1124               	.LFE123:
 1126               		.text
 1127               	.Letext0:
 1128               		.file 4 "/usr/lib/avr/include/stdint.h"
 1129               		.file 5 "../../../os/common/ports/AVR/compilers/GCC/chtypes.h"
 1130               		.file 6 "../../../os/rt/include/chsystypes.h"
 1131               		.file 7 "../../../os/rt/include/chsem.h"
 1132               		.file 8 "../../../os/rt/include/chmtx.h"
 1133               		.file 9 "../../../os/rt/include/chsys.h"